(dp0
S'GAACGT'
p1
I6880
sS'CGTCGT'
p2
I2897
sS'CTTCTT'
p3
I55283
sS'CACCCT'
p4
I40823
sS'GAACGG'
p5
I7970
sS'GAACGC'
p6
I7857
sS'GAACGA'
p7
I6117
sS'CACCCA'
p8
I49181
sS'CTTCTA'
p9
I29938
sS'CACCCC'
p10
I47058
sS'CTTCTC'
p11
I58984
sS'CACCCG'
p12
I15864
sS'CTTCTG'
p13
I59391
sS'CGTGTG'
p14
I15281
sS'TAAGGT'
p15
I18345
sS'CGTGTC'
p16
I9424
sS'CGTGTA'
p17
I5602
sS'GGAAAT'
p18
I50039
sS'TAAGGG'
p19
I21326
sS'CGTGTT'
p20
I9653
sS'TAAGGC'
p21
I18987
sS'TAAGGA'
p22
I27719
sS'GTCAAA'
p23
I26286
sS'AGGGAT'
p24
I27203
sS'GTCAAG'
p25
I22304
sS'CTGTCC'
p26
I39524
sS'TCAGAG'
p27
I52832
sS'CTGTCA'
p28
I41520
sS'CTGTCG'
p29
I9502
sS'GTATCT'
p30
I19611
sS'CTGTGC'
p31
I45525
sS'TCAGAA'
p32
I54914
sS'GTCAAT'
p33
I15212
sS'GTATCA'
p34
I15158
sS'GTATCC'
p35
I10981
sS'GTATCG'
p36
I2465
sS'CTGTCT'
p37
I55607
sS'GGTGTC'
p38
I23662
sS'GGTGTA'
p39
I14438
sS'GGTGTG'
p40
I40258
sS'TATCCT'
p41
I20101
sS'CCGGGG'
p42
I29906
sS'TTCTGT'
p43
I62810
sS'ATTCCT'
p44
I35142
sS'CCGGGC'
p45
I32224
sS'CCGGGA'
p46
I23548
sS'TATCCA'
p47
I18552
sS'TAACGC'
p48
I4026
sS'TATCCC'
p49
I15108
sS'GTTCTG'
p50
I37661
sS'AGAGGT'
p51
I39011
sS'TATCCG'
p52
I3254
sS'GGTGTT'
p53
I26639
sS'ATTCCG'
p54
I6031
sS'TTCTGG'
p55
I51319
sS'CCGGGT'
p56
I16111
sS'ATTCCC'
p57
I29067
sS'TTCTGC'
p58
I48949
sS'ATTCCA'
p59
I37729
sS'TTCTGA'
p60
I54890
sS'TGCACT'
p61
I33669
sS'GGNCCC'
p62
I1
sS'GGNCCG'
p63
I1
sS'CGTCAT'
p64
I6303
sS'GTTCTC'
p65
I32883
sS'CCCGCG'
p66
I23334
sS'CGCGGG'
p67
I23328
sS'NCCGCC'
p68
I1
sS'CGCGGC'
p69
I24921
sS'CGCGGA'
p70
I11168
sS'NCCCAC'
p71
I1
sS'ACCTGT'
p72
I31860
sS'TCATGT'
p73
I31786
sS'AGGGAC'
p74
I34788
sS'TTACAG'
p75
I40359
sS'CTCCGC'
p76
I26588
sS'TTACAA'
p77
I30971
sS'TTACAC'
p78
I20397
sS'CTCCGG'
p79
I20175
sS'TCATGC'
p80
I26435
sS'ACCTGG'
p81
I41747
sS'TCATGA'
p82
I30125
sS'TCATGG'
p83
I29120
sS'ACCTGC'
p84
I36299
sS'GCGCNN'
p85
I1
sS'ACCTGA'
p86
I31888
sS'AGAGGG'
p87
I55396
sS'CTCCGT'
p88
I12998
sS'GAATTT'
p89
I39160
sS'GCCTGA'
p90
I37534
sS'GCCTGC'
p91
I45750
sS'GCCTGG'
p92
I72194
sS'TCTTGC'
p93
I33250
sS'TAAAGG'
p94
I30144
sS'CAAATT'
p95
I37417
sS'TAAAGA'
p96
I38814
sS'TAAAGC'
p97
I26204
sS'GCCTGT'
p98
I42282
sS'TCCCCG'
p99
I25219
sS'TAAAGT'
p100
I30312
sS'CAAATA'
p101
I39271
sS'ACGTCC'
p102
I7813
sS'CAAATC'
p103
I30253
sS'CGTGCT'
p104
I10489
sS'CAAATG'
p105
I44424
sS'AATACT'
p106
I26116
sS'CGTCAC'
p107
I9812
sS'CCGGCG'
p108
I19228
sS'GGCATG'
p109
I30979
sS'GGCATA'
p110
I14852
sS'GGCATC'
p111
I21641
sS'AATACG'
p112
I5200
sS'AATACA'
p113
I36408
sS'AATACC'
p114
I19005
sS'GGCATT'
p115
I26700
sS'TATCTG'
p116
I26973
sS'TGCACA'
p117
I39854
sS'GAGCAC'
p118
I26333
sS'ACTGAT'
p119
I25338
sS'GAGCAG'
p120
I51228
sS'AGTAGT'
p121
I18651
sS'TCTCGC'
p122
I12637
sS'TCTCGA'
p123
I7868
sS'TCTCGG'
p124
I14513
sS'ACTGAG'
p125
I45627
sS'AGTAGA'
p126
I27247
sS'AGTAGG'
p127
I22879
sS'GAGCAT'
p128
I23460
sS'ACGGCC'
p129
I10796
sS'TCTCGT'
p130
I7771
sS'GTGTCG'
p131
I5928
sS'TCGAAC'
p132
I5080
sS'TCGAAA'
p133
I6243
sS'GTGTCC'
p134
I26373
sS'TCGAAG'
p135
I6024
sS'GTGTCA'
p136
I27891
sS'CTTGCT'
p137
I42881
sS'CCGTCT'
p138
I13038
sS'GTGTCT'
p139
I35696
sS'TTGAAG'
p140
I34146
sS'TCGAAT'
p141
I5338
sS'CTTGCG'
p142
I7804
sS'CTTGCA'
p143
I30693
sS'CTTGCC'
p144
I33515
sS'CGAAAG'
p145
I9249
sS'CGAAAA'
p146
I8332
sS'CGAAAC'
p147
I7906
sS'AATCAT'
p148
I30714
sS'ACAGTG'
p149
I43500
sS'CACGGC'
p150
I13754
sS'AAATGA'
p151
I68575
sS'AAATGG'
p152
I48185
sS'CACGGG'
p153
I13282
sS'ACAGTA'
p154
I26182
sS'CGAAAT'
p155
I5969
sS'ACAGTT'
p156
I34654
sS'AATCAG'
p157
I34240
sS'AATCAA'
p158
I31276
sS'AAATGT'
p159
I57554
sS'AATCAC'
p160
I29276
sS'GGGTCT'
p161
I29540
sS'GCTCAA'
p162
I26968
sS'TCTAGT'
p163
I21997
sS'TTGCCG'
p164
I7399
sS'TTGCCA'
p165
I33365
sS'TTGCCC'
p166
I32198
sS'ATACGA'
p167
I3520
sS'TCTAGG'
p168
I25390
sS'GGGTAA'
p169
I20076
sS'TCTAGA'
p170
I27431
sS'GGGTAG'
p171
I21118
sS'TCTAGC'
p172
I19534
sS'ATACGG'
p173
I3791
sS'ATACAT'
p174
I26399
sS'AGATGT'
p175
I32720
sS'TCGCCC'
p176
I15131
sS'TCGCCA'
p177
I8974
sS'ATAGTC'
p178
I12855
sS'TCGCCG'
p179
I8555
sS'GGTAAT'
p180
I17090
sS'ACCCAT'
p181
I22640
sS'GTCAAC'
p182
I14614
sS'CCTNNN'
p183
I1
sS'GTGTAT'
p184
I21937
sS'ACCCAC'
p185
I35507
sS'GGTAAC'
p186
I15599
sS'ACCCAA'
p187
I29401
sS'AGATGG'
p188
I42493
sS'ACCCAG'
p189
I51436
sS'GGTAAG'
p190
I20043
sS'TCGCCT'
p191
I11198
sS'AGATGC'
p192
I28466
sS'CCCCAT'
p193
I36097
sS'TTGGGT'
p194
I29391
sS'CACTAG'
p195
I19632
sS'CACTAA'
p196
I22534
sS'CACTAC'
p197
I16671
sS'CCCCAA'
p198
I43743
sS'CCCCAC'
p199
I57808
sS'CCCCAG'
p200
I71937
sS'CACTAT'
p201
I18063
sS'TTGGGG'
p202
I43724
sS'CCGTCC'
p203
I13140
sS'TTGGGA'
p204
I40218
sS'TTGGGC'
p205
I26950
sS'TGCCTG'
p206
I59595
sS'TGCAGA'
p207
I48710
sS'TTTCTG'
p208
I78521
sS'TGCAGC'
p209
I46622
sS'TTTCTA'
p210
I49444
sS'TTTCTC'
p211
I74986
sS'TGCAGG'
p212
I48317
sS'GGGTCA'
p213
I26159
sS'TCAGAC'
p214
I28480
sS'TTTCTT'
p215
I97166
sS'ACGTGC'
p216
I10332
sS'TGCCTT'
p217
I46522
sS'TGCAGT'
p218
I47792
sS'NNNTGA'
p219
I1
sS'TAGTGC'
p220
I14159
sS'AAGGAA'
p221
I71690
sS'AAGGAC'
p222
I28530
sS'AAGGAG'
p223
I53438
sS'ATATGC'
p224
I18121
sS'ATATGA'
p225
I24109
sS'ATATGG'
p226
I18359
sS'GAGTTC'
p227
I27852
sS'AAGGAT'
p228
I28254
sS'GGCTCG'
p229
I13477
sS'ATATGT'
p230
I26210
sS'GGTCCC'
p231
I30102
sS'GCCCAG'
p232
I69154
sS'CCACTG'
p233
I52029
sS'GCCCAA'
p234
I26973
sS'GGTCCG'
p235
I8838
sS'GCCCAC'
p236
I35273
sS'TGTGTC'
p237
I36516
sS'AGACCC'
p238
I29544
sS'ATTGTT'
p239
I30334
sS'CTTCGA'
p240
I6027
sS'CTTCGC'
p241
I9815
sS'CTTAGT'
p242
I21097
sS'GCCCAT'
p243
I22917
sS'AGGTCA'
p244
I37653
sS'AAAGTT'
p245
I42245
sS'TCCGGC'
p246
I14650
sS'GGTCCT'
p247
I26062
sS'TCCGGA'
p248
I10976
sS'CTTAGC'
p249
I21555
sS'ATTGTG'
p250
I28202
sS'CTTAGA'
p251
I25586
sS'ATGCAC'
p252
I23180
sS'CTTAGG'
p253
I22766
sS'ATTGTC'
p254
I18851
sS'TCTTGG'
p255
I39460
sS'GCCTTT'
p256
I40404
sS'ATTTTG'
p257
I50271
sS'GAGGTG'
p258
I46787
sS'ATTTTA'
p259
I61113
sS'TAAATT'
p260
I39333
sS'ATTTTC'
p261
I56321
sS'TCCAGC'
p262
I49233
sS'TAGCAG'
p263
I27116
sS'GATACT'
p264
I15411
sS'TAGCAC'
p265
I18643
sS'TAGCAA'
p266
I24829
sS'TCCAGT'
p267
I33545
sS'ATTTTT'
p268
I90017
sS'GCCTTG'
p269
I35372
sS'GTGGGG'
p270
I57792
sS'GCCTTA'
p271
I18979
sS'TTGACA'
p272
I26227
sS'GCCTTC'
p273
I38181
sS'GATACG'
p274
I3454
sS'TAGCAT'
p275
I20484
sS'GATACC'
p276
I11381
sS'GATTTC'
p277
I31578
sS'TGAGCT'
p278
I41939
sS'ACGGAC'
p279
I5773
sS'GATCAT'
p280
I18223
sS'TACCGG'
p281
I4464
sS'ACCGAG'
p282
I10579
sS'AAGACC'
p283
I27015
sS'GATTTA'
p284
I23619
sS'AAGACG'
p285
I9249
sS'CCACTT'
p286
I40390
sS'TGAGCG'
p287
I11018
sS'TGAGCA'
p288
I40842
sS'TGAGCC'
p289
I45414
sS'CGGGGA'
p290
I25202
sS'AAGACT'
p291
I32841
sS'GAAGGG'
p292
I50699
sS'ACCACG'
p293
I12798
sS'GCGGTA'
p294
I4825
sS'CGTGCA'
p295
I10258
sS'GCGGTG'
p296
I18755
sS'CTATCG'
p297
I2771
sS'CGGTGT'
p298
I8365
sS'TCGTTA'
p299
I4276
sS'TCGTTC'
p300
I6118
sS'CTTCCC'
p301
I68558
sS'TCGTTG'
p302
I5481
sS'TGTGTG'
p303
I97459
sS'GCGGTT'
p304
I8414
sS'ACTTGC'
p305
I25496
sS'ATGTGA'
p306
I37266
sS'ACTTGA'
p307
I30534
sS'CGGTGG'
p308
I18021
sS'CTCGAG'
p309
I9427
sS'CGGTGA'
p310
I10876
sS'CCGTTA'
p311
I4466
sS'CGGTGC'
p312
I12324
sS'TTCCTA'
p313
I33001
sS'AACGTT'
p314
I7855
sS'TTCCTC'
p315
I68287
sS'ACTGAC'
p316
I25734
sS'ATGTGC'
p317
I26839
sS'TTCCTG'
p318
I71246
sS'TCCTTT'
p319
I62187
sS'GACCCA'
p320
I27651
sS'ACGCTA'
p321
I4142
sS'TAGACG'
p322
I4206
sS'TTCCTT'
p323
I71651
sS'TAGACC'
p324
I12692
sS'TAGACA'
p325
I22636
sS'TCCTTG'
p326
I38161
sS'TCCTTA'
p327
I27687
sS'TCCTTC'
p328
I53754
sS'ATCTCT'
p329
I39564
sS'ACCGTT'
p330
I5558
sS'TGGCGC'
p331
I15522
sS'TGGCGA'
p332
I8980
sS'GGCCAT'
p333
I23760
sS'ATCTCG'
p334
I7817
sS'ATCTCA'
p335
I38552
sS'ATCTCC'
p336
I30134
sS'GGCCAA'
p337
I33172
sS'ACGGAG'
p338
I12985
sS'GGCCAC'
p339
I37776
sS'ACCGTG'
p340
I10387
sS'ACCGTA'
p341
I4123
sS'GGCCAG'
p342
I54211
sS'ACCGTC'
p343
I6326
sS'ACCGAC'
p344
I5147
sS'AGATTA'
p345
I23492
sS'GGCAGT'
p346
I34070
sS'CCATAA'
p347
I19844
sS'CAAAGG'
p348
I43478
sS'CCATAC'
p349
I13027
sS'CTAACT'
p350
I20541
sS'AGATTC'
p351
I26728
sS'CAAAGC'
p352
I40282
sS'CAACGT'
p353
I6768
sS'GGCAGA'
p354
I52976
sS'GGCAGC'
p355
I52061
sS'AACGTA'
p356
I5316
sS'GGCAGG'
p357
I68768
sS'CAACGC'
p358
I6840
sS'CTAACA'
p359
I23338
sS'CAACGA'
p360
I5479
sS'CTAACC'
p361
I17672
sS'CCATAT'
p362
I18364
sS'GCACTG'
p363
I36088
sS'GGGGGT'
p364
I31446
sS'CGAGTG'
p365
I9093
sS'GAAACC'
p366
I42938
sS'CGATCT'
p367
I6578
sS'NNNNNC'
p368
I1
sS'CTCTAG'
p369
I28029
sS'CTCTAA'
p370
I28625
sS'CTCTAC'
p371
I24918
sS'GGGGGG'
p372
I29760
sS'TACGCA'
p373
I4350
sS'TACGCC'
p374
I3940
sS'GGGGGC'
p375
I46632
sS'CGATCG'
p376
I1807
sS'GGGGGA'
p377
I44526
sS'TACGCG'
p378
I2160
sS'CTCTAT'
p379
I21791
sS'GCGCAG'
p380
I21674
sS'ACCGAA'
p381
I6902
sS'CAGACC'
p382
I31628
sS'CAGACA'
p383
I46762
sS'CAGACG'
p384
I11287
sS'ACGTGA'
p385
I11663
sS'TAGTTG'
p386
I17079
sS'GCTAAT'
p387
I20421
sS'TAGTTC'
p388
I19325
sS'TAGTTA'
p389
I17878
sS'CAGACT'
p390
I34672
sS'GCTAAG'
p391
I21560
sS'TAGTTT'
p392
I33529
sS'GCTAAC'
p393
I13840
sS'GCTAAA'
p394
I23648
sS'TGCATT'
p395
I38564
sS'GCGAAA'
p396
I7538
sS'AACCCT'
p397
I30883
sS'GTCCAC'
p398
I18813
sS'ACGCAC'
p399
I9163
sS'AACCCC'
p400
I31376
sS'AACCCA'
p401
I37215
sS'TCANNN'
p402
I1
sS'TGCATA'
p403
I23480
sS'TTTCCG'
p404
I12391
sS'TGCATC'
p405
I23228
sS'AGAATA'
p406
I32844
sS'ACGTAA'
p407
I6042
sS'AACTGG'
p408
I33735
sS'AACTGA'
p409
I45681
sS'AGTTTA'
p410
I29887
sS'CCCAGA'
p411
I57509
sS'CCCAGC'
p412
I80122
sS'AGAATC'
p413
I30901
sS'CCCAGG'
p414
I83893
sS'AACTGT'
p415
I34657
sS'AGTTTT'
p416
I51531
sS'CTACAT'
p417
I20018
sS'AGTCAA'
p418
I28262
sS'CGAGTC'
p419
I8348
sS'CCCAGT'
p420
I40898
sS'CGCATA'
p421
I3185
sS'ATACTG'
p422
I21686
sS'CGCATC'
p423
I6262
sS'ATACTA'
p424
I14681
sS'ATACTC'
p425
I14937
sS'CGCATG'
p426
I8387
sS'AGGCCA'
p427
I46651
sS'GCGAAT'
p428
I4139
sS'ATACTT'
p429
I24615
sS'CGCATT'
p430
I5769
sS'AGGCCC'
p431
I42771
sS'GCTCCG'
p432
I20999
sS'TATTGT'
p433
I23701
sS'GCTCCC'
p434
I44866
sS'GCTCCA'
p435
I36707
sS'CCTACT'
p436
I22877
sS'TGTACT'
p437
I22354
sS'TTTAGT'
p438
I32152
sS'TATTGG'
p439
I16896
sS'GCTCCT'
p440
I42753
sS'TATTGC'
p441
I16981
sS'TATTGA'
p442
I20988
sS'TTTAGG'
p443
I29010
sS'TGTACG'
p444
I4240
sS'CCTACG'
p445
I5606
sS'TGTACA'
p446
I24893
sS'TTTAGC'
p447
I23642
sS'TGTACC'
p448
I16263
sS'CCTACC'
p449
I22566
sS'TTCGCG'
p450
I4215
sS'TTCGCA'
p451
I5777
sS'TTCGCC'
p452
I8202
sS'AGTATC'
p453
I15403
sS'GACTAA'
p454
I18010
sS'AGTATA'
p455
I16316
sS'TTTGGG'
p456
I49379
sS'AGTATG'
p457
I18114
sS'TTTGGA'
p458
I40088
sS'TTTGGC'
p459
I31660
sS'TTCGCT'
p460
I8262
sS'GATCNN'
p461
I2
sS'TTTGGT'
p462
I38392
sS'GCCACA'
p463
I43537
sS'GACTAT'
p464
I12853
sS'AGTATT'
p465
I26125
sS'TTACTC'
p466
I23236
sS'TTACTA'
p467
I20771
sS'TTACTG'
p468
I30428
sS'ACCTTG'
p469
I30369
sS'ACCTTC'
p470
I30319
sS'ACCTTA'
p471
I18332
sS'TTACTT'
p472
I36028
sS'ACGCTT'
p473
I7464
sS'ACCTTT'
p474
I33588
sS'ACAGGG'
p475
I42067
sS'CTGGGA'
p476
I69863
sS'CTGGGC'
p477
I69153
sS'ACAGGC'
p478
I42288
sS'TTATAT'
p479
I26715
sS'CTGGGG'
p480
I71906
sS'AGGACG'
p481
I11629
sS'GCAGCT'
p482
I49329
sS'CAGGAA'
p483
I71283
sS'TCGCTT'
p484
I10080
sS'CAGGAG'
p485
I69371
sS'AGGACA'
p486
I39433
sS'GCGCAT'
p487
I7060
sS'TTATAC'
p488
I15170
sS'ACAGGT'
p489
I31868
sS'CTGGGT'
p490
I51430
sS'TTATAG'
p491
I19799
sS'CTCCGA'
p492
I10603
sS'TCGCTG'
p493
I12214
sS'GAGTTG'
p494
I26698
sS'GCAGCG'
p495
I22454
sS'AGGACT'
p496
I32289
sS'TCGCTC'
p497
I12072
sS'TCGCTA'
p498
I4008
sS'CAGGAT'
p499
I33345
sS'CCTCAG'
p500
I64253
sS'CCTCAA'
p501
I36615
sS'CCTCAC'
p502
I42591
sS'TATGTT'
p503
I27161
sS'ATGGGC'
p504
I22918
sS'TCTTTG'
p505
I48416
sS'ATGGGA'
p506
I33492
sS'TCTTTA'
p507
I38774
sS'ATGGGG'
p508
I36076
sS'TCTTTC'
p509
I62548
sS'CCTCAT'
p510
I36543
sS'NNNAGG'
p511
I1
sS'TCTTTT'
p512
I77364
sS'TATGTG'
p513
I30027
sS'TATGTA'
p514
I23885
sS'ATGGGT'
p515
I22644
sS'TATGTC'
p516
I16732
sS'GAAAGA'
p517
I62609
sS'ATCAAG'
p518
I22541
sS'CATGAT'
p519
I24310
sS'ATCAAC'
p520
I16883
sS'GAAAGG'
p521
I53981
sS'ATCAAA'
p522
I31826
sS'GTCAGG'
p523
I35391
sS'ACGTGG'
p524
I15113
sS'CATGAG'
p525
I33952
sS'ATCAAT'
p526
I18644
sS'AACCGA'
p527
I7349
sS'CATGAC'
p528
I23778
sS'CATGAA'
p529
I35519
sS'GTAGCG'
p530
I4960
sS'CAAGTT'
p531
I31153
sS'GCTTTG'
p532
I40268
sS'GTAGCC'
p533
I15689
sS'GCTTTC'
p534
I42090
sS'ACGTGT'
p535
I10598
sS'AAAGTA'
p536
I38196
sS'GCTTTT'
p537
I47545
sS'TGCCAG'
p538
I44341
sS'GTAGCT'
p539
I23532
sS'TTCTTT'
p540
I88824
sS'GCGGCC'
p541
I30197
sS'CAAGTC'
p542
I26846
sS'GCGGCA'
p543
I14439
sS'CAAGTA'
p544
I22720
sS'AACGGT'
p545
I5557
sS'TAATCG'
p546
I3140
sS'CTTGTG'
p547
I34376
sS'TAATCA'
p548
I23331
sS'TAATCC'
p549
I23036
sS'TGCGAA'
p550
I5783
sS'CGGCCC'
p551
I28240
sS'CGACTA'
p552
I2935
sS'AAAATT'
p553
I60300
sS'CGGCCG'
p554
I21834
sS'TCGTGA'
p555
I6991
sS'ATGAAG'
p556
I37301
sS'GGTCTG'
p557
I31644
sS'TAATCT'
p558
I23499
sS'TGCGAC'
p559
I5092
sS'GGTCTC'
p560
I32842
sS'GGTCTA'
p561
I12693
sS'AAAATG'
p562
I74884
sS'AAAATC'
p563
I42872
sS'CGGCCT'
p564
I21055
sS'TCGTCA'
p565
I5479
sS'TCGTCC'
p566
I7241
sS'TTCAGG'
p567
I42701
sS'ATATCC'
p568
I15312
sS'TCGTCG'
p569
I2691
sS'NNNGTC'
p570
I1
sS'TGCCAA'
p571
I31229
sS'TCGGGA'
p572
I10985
sS'GAACAA'
p573
I31414
sS'ATCCCG'
p574
I8147
sS'GAACAC'
p575
I25369
sS'ATCCCC'
p576
I27515
sS'GAACAG'
p577
I37316
sS'TTCAGT'
p578
I48372
sS'GCACTT'
p579
I33434
sS'AACGGA'
p580
I8289
sS'CACCAC'
p581
I44428
sS'CACCAA'
p582
I32150
sS'CACCAG'
p583
I42968
sS'TCCGTG'
p584
I10968
sS'ATTGCG'
p585
I4221
sS'TCCGTC'
p586
I9622
sS'GAGTTA'
p587
I20337
sS'TCCGTA'
p588
I4606
sS'ACCAGA'
p589
I34938
sS'ACGCGA'
p590
I3615
sS'CACCAT'
p591
I33336
sS'AACATG'
p592
I34966
sS'AACATA'
p593
I27152
sS'AACATC'
p594
I25762
sS'NNNNGT'
p595
I1
sS'GTCAGC'
p596
I27789
sS'GCACGG'
p597
I11731
sS'GTCAGA'
p598
I32108
sS'GCACGA'
p599
I6767
sS'CAGTCC'
p600
I31227
sS'GCACGC'
p601
I12454
sS'GCAAGT'
p602
I25495
sS'GCAAGC'
p603
I23905
sS'GCACGT'
p604
I10339
sS'CAGTCT'
p605
I37907
sS'TCAGCT'
p606
I46616
sS'GTCAGT'
p607
I25734
sS'GTATAC'
p608
I9288
sS'TTCCGT'
p609
I9786
sS'GTATAA'
p610
I15182
sS'GTATAG'
p611
I10413
sS'CCGGAA'
p612
I15388
sS'CCGGAC'
p613
I10117
sS'CAACGG'
p614
I6432
sS'CCGGAG'
p615
I20180
sS'TATCAT'
p616
I19688
sS'CTCGTA'
p617
I3911
sS'TTCCGG'
p618
I15383
sS'TTCCGA'
p619
I7265
sS'TTCCGC'
p620
I12388
sS'GTATAT'
p621
I17374
sS'TATCAC'
p622
I17610
sS'TATCAA'
p623
I18211
sS'TATCAG'
p624
I20871
sS'CCGGAT'
p625
I6886
sS'CTCTTC'
p626
I53448
sS'TGTTAT'
p627
I26582
sS'CTCTTA'
p628
I28189
sS'CTCTTG'
p629
I40292
sS'CCCGAT'
p630
I5142
sS'TACGTA'
p631
I4572
sS'TACGTC'
p632
I3786
sS'TCTGGT'
p633
I34914
sS'AACAAA'
p634
I71603
sS'CGCGAT'
p635
I3824
sS'TACGTG'
p636
I7415
sS'GCCGTT'
p637
I7128
sS'TGTTAG'
p638
I23357
sS'GGTTTC'
p639
I42949
sS'CTCGTG'
p640
I10398
sS'CTCTTT'
p641
I60732
sS'TGTTAA'
p642
I31626
sS'TCTGGG'
p643
I57496
sS'CGCGAC'
p644
I5991
sS'GATATT'
p645
I21254
sS'TCTGGC'
p646
I39486
sS'TACGTT'
p647
I5322
sS'TCTGGA'
p648
I42276
sS'AGTCGT'
p649
I5267
sS'TTACCT'
p650
I26356
sS'CTCCAT'
p651
I36129
sS'ACTAGA'
p652
I21997
sS'TTACCG'
p653
I4889
sS'CTCCAC'
p654
I44044
sS'AGTCGG'
p655
I8064
sS'TTACCC'
p656
I20074
sS'CTCCAG'
p657
I65668
sS'TTACCA'
p658
I26275
sS'AGTCGC'
p659
I6859
sS'AATGCC'
p660
I26695
sS'GTACCG'
p661
I3595
sS'CCGACT'
p662
I8067
sS'GCCTAC'
p663
I14839
sS'GCCTAA'
p664
I17778
sS'CCGAGG'
p665
I22531
sS'GCCTAG'
p666
I21574
sS'GTGCGG'
p667
I12889
sS'CCGACA'
p668
I6774
sS'GATATC'
p669
I10055
sS'CCGACC'
p670
I10203
sS'GGTGAC'
p671
I29615
sS'CCGACG'
p672
I5354
sS'AACTCA'
p673
I36371
sS'GCCTAT'
p674
I14335
sS'TGACGG'
p675
I7814
sS'ACGCGG'
p676
I8413
sS'CCCGAG'
p677
I20266
sS'CTCGTT'
p678
I7592
sS'TCAGCG'
p679
I11755
sS'GCTGTC'
p680
I31992
sS'CGTCCT'
p681
I11638
sS'CGCACA'
p682
I11308
sS'ATACAC'
p683
I21952
sS'CGCACC'
p684
I12562
sS'TATAAT'
p685
I24003
sS'ACTGCT'
p686
I38532
sS'ATACAG'
p687
I25900
sS'CGCACG'
p688
I8065
sS'GGGTCC'
p689
I26227
sS'GAGCGT'
p690
I8422
sS'CTCACT'
p691
I52014
sS'TTTGTA'
p692
I40654
sS'ACTGCA'
p693
I47758
sS'TTTGTC'
p694
I34976
sS'ACTGCC'
p695
I34055
sS'CGCACT'
p696
I8467
sS'TTTGTG'
p697
I50171
sS'ACTGCG'
p698
I10966
sS'CTTGAC'
p699
I22306
sS'CTCACA'
p700
I46482
sS'CTCACG'
p701
I13977
sS'GTGGGT'
p702
I35496
sS'GTGAGG'
p703
I42577
sS'GATTTT'
p704
I42883
sS'ACAATT'
p705
I27254
sS'GTGAGC'
p706
I37100
sS'TAGTGA'
p707
I22903
sS'GTGAGA'
p708
I42546
sS'TCGACG'
p709
I1880
sS'TCGACA'
p710
I3572
sS'TCGACC'
p711
I4353
sS'ACAATA'
p712
I23688
sS'GTGAGT'
p713
I32472
sS'TAGTGT'
p714
I18591
sS'GTGGGA'
p715
I44690
sS'ACAATG'
p716
I29278
sS'TCGACT'
p717
I4326
sS'GTGGGN'
p718
I1
sS'GTACAC'
p719
I13637
sS'NAGGTG'
p720
I1
sS'CTGGTT'
p721
I37942
sS'TGCAAA'
p722
I50444
sS'CGAACG'
p723
I2896
sS'CGAACC'
p724
I5761
sS'CGAACA'
p725
I5228
sS'CGGNCC'
p726
I1
sS'CTGGTG'
p727
I42935
sS'CTGGTA'
p728
I21938
sS'CTGGTC'
p729
I31985
sS'CGAACT'
p730
I6409
sS'CGCTGA'
p731
I11751
sS'TTGCAT'
p732
I34117
sS'NNGAAT'
p733
I8
sS'GCGGAA'
p734
I12390
sS'TTGCAG'
p735
I41818
sS'TCCATA'
p736
I17885
sS'TTGCAC'
p737
I23027
sS'TTGCAA'
p738
I32001
sS'GGGNNN'
p739
I1
sS'AAGATC'
p740
I22309
sS'ACGTAC'
p741
I4251
sS'CGTCCA'
p742
I8025
sS'GAGGGC'
p743
I44034
sS'TCGCAT'
p744
I4166
sS'GAGCGG'
p745
I18543
sS'GTCGTG'
p746
I6103
sS'TGACNN'
p747
I1
sS'GTCGTA'
p748
I2603
sS'GTCGTC'
p749
I5144
sS'GCGTCC'
p750
I13196
sS'CCGTTT'
p751
I10734
sS'GAGCAA'
p752
I33316
sS'GCCTCG'
p753
I19677
sS'ATATCG'
p754
I2626
sS'GTCGTT'
p755
I4857
sS'TCAGAT'
p756
I32955
sS'TCGCAG'
p757
I10304
sS'TCCATG'
p758
I28571
sS'CCAAGC'
p759
I32220
sS'TCGCAC'
p760
I6044
sS'CCGTTG'
p761
I6425
sS'CGCTGC'
p762
I22461
sS'CCGTTC'
p763
I7970
sS'GATCGG'
p764
I4227
sS'AATGCT'
p765
I34380
sS'GGTACG'
p766
I3687
sS'GGTACA'
p767
I16246
sS'TCCAGG'
p768
I51021
sS'GGTACC'
p769
I11916
sS'TATTTG'
p770
I39301
sS'CAGGGA'
p771
I58497
sS'TTCAGC'
p772
I38759
sS'TATTTC'
p773
I42259
sS'TATTTA'
p774
I44545
sS'CCCCCT'
p775
I41603
sS'GGTACT'
p776
I14452
sS'AATGCG'
p777
I5771
sS'TGCAAT'
p778
I26203
sS'AATGCA'
p779
I38516
sS'CCCCCC'
p780
I29767
sS'CCCCCA'
p781
I54365
sS'TATTTT'
p782
I79925
sS'CCCCCG'
p783
I26603
sS'CTTGAG'
p784
I37989
sS'ATGATG'
p785
I28532
sS'ATGATA'
p786
I19681
sS'GCGTTA'
p787
I4019
sS'CTTGAA'
p788
I40020
sS'TGCAAC'
p789
I23667
sS'TTGAGT'
p790
I30351
sS'TGCAAG'
p791
I30717
sS'GCCGTC'
p792
I10000
sS'ATGATT'
p793
I30691
sS'CTTGAT'
p794
I22539
sS'CGAATC'
p795
I4617
sS'TTGAGG'
p796
I36615
sS'AATCTC'
p797
I29330
sS'CAATGT'
p798
I24408
sS'TTGAGC'
p799
I26943
sS'TTGAGA'
p800
I44288
sS'GAGAAT'
p801
I37684
sS'TGTCTT'
p802
I46341
sS'AGTAGC'
p803
I22936
sS'AAGGCC'
p804
I34219
sS'ATAACC'
p805
I16679
sS'AAGGCA'
p806
I46516
sS'ATAACA'
p807
I26529
sS'AAGGCG'
p808
I13455
sS'TCCAGA'
p809
I42267
sS'GAGGGT'
p810
I32488
sS'TGTCTG'
p811
I46795
sS'GAGAAG'
p812
I59011
sS'GAGAAA'
p813
I75024
sS'TGTCTC'
p814
I45636
sS'GAGAAC'
p815
I32871
sS'TGTCTA'
p816
I22645
sS'TGTGGC'
p817
I43535
sS'TGTGGA'
p818
I37042
sS'TGTGGG'
p819
I50628
sS'ATAACT'
p820
I22629
sS'AAGGCT'
p821
I38696
sS'CTGTAA'
p822
I40336
sS'AACGGC'
p823
I7131
sS'AGGTAT'
p824
I18757
sS'ACCAAG'
p825
I31587
sS'ACTGAA'
p826
I48386
sS'ACCAAA'
p827
I38423
sS'AAGCAG'
p828
I55617
sS'ACCAAC'
p829
I22271
sS'GGTCAC'
p830
I26481
sS'GATCGC'
p831
I6245
sS'GGTCAT'
p832
I20423
sS'ACCAAT'
p833
I19888
sS'TGTGGT'
p834
I50511
sS'AGGTAA'
p835
I26368
sS'GATAGG'
p836
I13989
sS'TTTTGC'
p837
I43150
sS'TCTTAC'
p838
I23350
sS'AATTGG'
p839
I21370
sS'TCTTAA'
p840
I33434
sS'AATTGA'
p841
I25831
sS'TCTTAG'
p842
I26704
sS'AATTGC'
p843
I21989
sS'TAGCCA'
p844
I25378
sS'TGGGGT'
p845
I41993
sS'TAGCCC'
p846
I17126
sS'GATAAT'
p847
I19755
sS'CGCTCA'
p848
I11011
sS'TAGCCG'
p849
I5878
sS'AATTGT'
p850
I27259
sS'CGAGAG'
p851
I13029
sS'AATCTT'
p852
I30787
sS'TCTTAT'
p853
I25552
sS'TTTTGT'
p854
I72186
sS'CGCTCT'
p855
I15328
sS'TGGGGG'
p856
I54395
sS'GATAAC'
p857
I13024
sS'TAGCCT'
p858
I21809
sS'TGGGGC'
p859
I49590
sS'GATAAG'
p860
I17377
sS'CTCTCA'
p861
I47358
sS'GATCCT'
p862
I21537
sS'AAGAAT'
p863
I41215
sS'GTTATC'
p864
I13026
sS'AAGAAC'
p865
I35105
sS'GATCCA'
p866
I18190
sS'AAGAAA'
p867
I97242
sS'GATCCC'
p868
I18482
sS'AAGAAG'
p869
I55314
sS'GATCCG'
p870
I6524
sS'GCCCCA'
p871
I49584
sS'ATGCCG'
p872
I5942
sS'CAAGGG'
p873
I34550
sS'CANNNN'
p874
I1
sS'CAAGGC'
p875
I35370
sS'AGTCCG'
p876
I7387
sS'CAAGGA'
p877
I38168
sS'GGCGCN'
p878
I1
sS'GGTTCA'
p879
I25863
sS'TGACCT'
p880
I37674
sS'CAAGGT'
p881
I30384
sS'GGTTCG'
p882
I5759
sS'TAGGCA'
p883
I24002
sS'TAGTGG'
p884
I21210
sS'ATTATC'
p885
I19740
sS'TAGAAT'
p886
I28168
sS'CAAACG'
p887
I8918
sS'ATTATG'
p888
I22504
sS'AGTCTT'
p889
I32833
sS'TAGAAA'
p890
I49500
sS'TAGAAC'
p891
I20025
sS'ATTATT'
p892
I39878
sS'TAGAAG'
p893
I29972
sS'AGTCTA'
p894
I17978
sS'AGTCTC'
p895
I35156
sS'AGTCTG'
p896
I34680
sS'TAACTC'
p897
I20348
sS'TAACTA'
p898
I17885
sS'TAACTG'
p899
I26176
sS'ATCTAT'
p900
I18605
sS'ACGCGT'
p901
I3314
sS'GCCCCG'
p902
I39616
sS'TAACTT'
p903
I29394
sS'ATCTAG'
p904
I18130
sS'ATCTAC'
p905
I15641
sS'ATCTAA'
p906
I20844
sS'GGTCAG'
p907
I34996
sS'CCATGT'
p908
I32838
sS'GCCCCC'
p909
I46628
sS'TGGAGG'
p910
I55863
sS'TGGAGA'
p911
I50650
sS'TGGAGC'
p912
I36718
sS'CCATGC'
p913
I27260
sS'CCATGA'
p914
I29130
sS'CCATGG'
p915
I31767
sS'TGGAGT'
p916
I39617
sS'ATTACG'
p917
I3947
sS'TCAGTA'
p918
I26662
sS'TCAGTC'
p919
I29900
sS'CTCTCT'
p920
I75231
sS'GGGGAT'
p921
I27509
sS'TCAGTG'
p922
I42756
sS'CGATAT'
p923
I2626
sS'GGNNNN'
p924
I1
sS'GGGGAA'
p925
I58676
sS'GGGGAC'
p926
I34499
sS'CTCTCC'
p927
I60724
sS'TCAGTT'
p928
I45671
sS'GGGGAG'
p929
I69345
sS'CGATAG'
p930
I2777
sS'CGATAA'
p931
I3270
sS'ATGCTG'
p932
I37332
sS'CGATAC'
p933
I2466
sS'GTGTTT'
p934
I45197
sS'GCTACT'
p935
I22942
sS'GTGGTT'
p936
I40926
sS'GTGTTC'
p937
I25370
sS'GTGTTA'
p938
I20780
sS'GTGTTG'
p939
I27220
sS'CGTGCC'
p940
I12459
sS'GTGGTA'
p941
I21125
sS'GCTACA'
p942
I19640
sS'GTGGTC'
p943
I24677
sS'GCTACC'
p944
I15506
sS'GTGGTG'
p945
I44402
sS'GCTACG'
p946
I5177
sS'AGGTAG'
p947
I24663
sS'TTTCGT'
p948
I8690
sS'TGCCCT'
p949
I46098
sS'AGCGTT'
p950
I7669
sS'CGTGCG'
p951
I8064
sS'TGCCCC'
p952
I40935
sS'TGCCCA'
p953
I47421
sS'TGCCCG'
p954
I15467
sS'TTTCGG'
p955
I8958
sS'AGCGTA'
p956
I3942
sS'AGCGTC'
p957
I9044
sS'AGCGTG'
p958
I11947
sS'GGCCCC'
p959
I48197
sS'GGCCCA'
p960
I38450
sS'CACGTG'
p961
I19844
sS'GGCCCG'
p962
I24663
sS'CACGTA'
p963
I7414
sS'CACGTC'
p964
I10218
sS'CTACGC'
p965
I4833
sS'CTACGA'
p966
I4144
sS'GGGACT'
p967
I35001
sS'ACAGTC'
p968
I26813
sS'CACGTT'
p969
I10239
sS'CTAAGT'
p970
I21940
sS'GNCCCA'
p971
I1
sS'GGCCCT'
p972
I40126
sS'GGGACA'
p973
I35397
sS'TTTTGG'
p974
I46644
sS'GGGACC'
p975
I30094
sS'TGACGA'
p976
I5477
sS'CTACGT'
p977
I5671
sS'AGAGAG'
p978
I75249
sS'AGAGAA'
p979
I76002
sS'AGAGAC'
p980
I42433
sS'TCTATA'
p981
I17992
sS'GTCTTT'
p982
I37826
sS'TCTATC'
p983
I16822
sS'TCTATG'
p984
I20516
sS'AGAGAT'
p985
I39597
sS'NNGTCA'
p986
I1
sS'TCGTGC'
p987
I6760
sS'GTCTTG'
p988
I28547
sS'TCTATT'
p989
I29895
sS'GTCTTC'
p990
I30115
sS'GTCTTA'
p991
I18864
sS'GCAGAG'
p992
I63260
sS'CGATTG'
p993
I4355
sS'GCTCAC'
p994
I37059
sS'GCAGAC'
p995
I27437
sS'GCAGAA'
p996
I48984
sS'GCTCAG'
p997
I48940
sS'AGACGT'
p998
I8182
sS'ATGCGT'
p999
I5794
sS'TTGCTG'
p1000
I45407
sS'TTGCTA'
p1001
I24809
sS'TTGCTC'
p1002
I33291
sS'GCAGAT'
p1003
I30436
sS'GCTCAT'
p1004
I26138
sS'GTTTGC'
p1005
I26551
sS'TTGCTT'
p1006
I48712
sS'ATGCGG'
p1007
I6583
sS'CGCTCC'
p1008
I20630
sS'ATGCGC'
p1009
I7058
sS'ATGCGA'
p1010
I4167
sS'TGTAAG'
p1011
I25351
sS'GGCTAG'
p1012
I18597
sS'TGTAAC'
p1013
I21559
sS'GGCTAC'
p1014
I15699
sS'TGTAAA'
p1015
I41880
sS'CTGAAA'
p1016
I65718
sS'ACTGTA'
p1017
I26516
sS'TTGGTA'
p1018
I20384
sS'ACTGTC'
p1019
I27105
sS'TTGGTC'
p1020
I22060
sS'TTCGAC'
p1021
I3464
sS'TTCGAA'
p1022
I6176
sS'TTGGTG'
p1023
I32140
sS'GACTGC'
p1024
I26033
sS'GGCTAT'
p1025
I14584
sS'TGTAAT'
p1026
I33526
sS'GACTGG'
p1027
I31516
sS'TTCGAT'
p1028
I4769
sS'TTGGTT'
p1029
I37473
sS'ACTGTT'
p1030
I32990
sS'GTTTCT'
p1031
I57335
sS'AGGTCC'
p1032
I23958
sS'ATAATT'
p1033
I32916
sS'CCTTTT'
p1034
I57154
sS'GTTTCG'
p1035
I7896
sS'GTTTCC'
p1036
I46058
sS'GTTTCA'
p1037
I49358
sS'ATAATG'
p1038
I25733
sS'CCTTTA'
p1039
I30139
sS'CCTTTC'
p1040
I53973
sS'ATAATC'
p1041
I18310
sS'NNNNGA'
p1042
I9
sS'ATAATA'
p1043
I29122
sS'CCTTTG'
p1044
I43459
sS'ACAGAA'
p1045
I62849
sS'CTCTCG'
p1046
I13023
sS'ACAGAC'
p1047
I34726
sS'GCCCCT'
p1048
I46083
sS'ACAGAG'
p1049
I62549
sS'TTATCT'
p1050
I32389
sS'CTGGAC'
p1051
I29456
sS'CTGGAA'
p1052
I52095
sS'CTGGAG'
p1053
I65646
sS'ACAGAT'
p1054
I36451
sS'TTATCG'
p1055
I3266
sS'TTATCA'
p1056
I24463
sS'CTGGAT'
p1057
I28854
sS'TTATCC'
p1058
I17656
sS'CCAATG'
p1059
I21663
sS'AAACCG'
p1060
I9914
sS'AAACCA'
p1061
I56448
sS'CCAATC'
p1062
I20246
sS'AAACCC'
p1063
I39626
sS'CCAATA'
p1064
I16893
sS'TGTCGG'
p1065
I6777
sS'GAGATC'
p1066
I23034
sS'CCCTAT'
p1067
I15958
sS'GAGATA'
p1068
I22999
sS'AACGAA'
p1069
I8736
sS'GAGATG'
p1070
I40821
sS'AACGAC'
p1071
I4856
sS'AAACCT'
p1072
I38861
sS'CCAATT'
p1073
I21367
sS'ATTTGC'
p1074
I34679
sS'GGGTAT'
p1075
I14177
sS'ATTTGG'
p1076
I35721
sS'CCCTAG'
p1077
I23807
sS'TGTCGT'
p1078
I5553
sS'CCCTAC'
p1079
I19997
sS'GAGATT'
p1080
I29354
sS'CCCTAA'
p1081
I23540
sS'CATTAT'
p1082
I25754
sS'CAATCG'
p1083
I4359
sS'TGGATT'
p1084
I28085
sS'ATCACA'
p1085
I34044
sS'ATCACC'
p1086
I25232
sS'CATGCT'
p1087
I31770
sS'TGACAC'
p1088
I27910
sS'TGACAA'
p1089
I31689
sS'TGGATA'
p1090
I18545
sS'CATTAG'
p1091
I20458
sS'CATTAA'
p1092
I27684
sS'TGGATG'
p1093
I29170
sS'CATGCA'
p1094
I34718
sS'TGACAT'
p1095
I31195
sS'CAATCC'
p1096
I18647
sS'ATCACT'
p1097
I31231
sS'AATTAG'
p1098
I28995
sS'AACCTG'
p1099
I33782
sS'GTAGAA'
p1100
I25084
sS'GTAGAC'
p1101
I12439
sS'GTAGAG'
p1102
I24935
sS'GATTGG'
p1103
I20242
sS'ACAACC'
p1104
I22268
sS'GATTGC'
p1105
I16098
sS'GATTGA'
p1106
I16518
sS'ACTAAG'
p1107
I21096
sS'GTAGAT'
p1108
I15640
sS'TGCTAC'
p1109
I19059
sS'TTGCCT'
p1110
I39610
sS'TGATGC'
p1111
I22692
sS'GATTGT'
p1112
I18184
sS'ACAACT'
p1113
I26259
sS'GCGCGT'
p1114
I8530
sS'TAATAG'
p1115
I18921
sS'GTCCGG'
p1116
I10124
sS'TAATAC'
p1117
I16887
sS'GTCCGA'
p1118
I4831
sS'TAATAA'
p1119
I34558
sS'GTCCGC'
p1120
I9657
sS'TGTTTA'
p1121
I39889
sS'CACATC'
p1122
I31621
sS'GTCCGT'
p1123
I5774
sS'TAATAT'
p1124
I24693
sS'CGTAAC'
p1125
I3807
sS'GGGNCC'
p1126
I1
sS'ATTCGC'
p1127
I4138
sS'TTCTCC'
p1128
I55654
sS'ATTCGA'
p1129
I5336
sS'TTCTCA'
p1130
I62169
sS'ATCCAT'
p1131
I21004
sS'TTCTCG'
p1132
I10561
sS'TCGTAC'
p1133
I2532
sS'TACCTT'
p1134
I23434
sS'TCGTAA'
p1135
I3888
sS'TCGTAG'
p1136
I4142
sS'GAACCT'
p1137
I25188
sS'TGAACG'
p1138
I6943
sS'ATCCAC'
p1139
I22188
sS'TGAACC'
p1140
I25898
sS'TTCTCT'
p1141
I75953
sS'TGAACA'
p1142
I35427
sS'GAACCC'
p1143
I25815
sS'TACCTG'
p1144
I24758
sS'TACCTA'
p1145
I16402
sS'TACCTC'
p1146
I21648
sS'TCGTAT'
p1147
I3527
sS'ATGTTA'
p1148
I25777
sS'ACCATA'
p1149
I17645
sS'ACCATG'
p1150
I30362
sS'ATGTTG'
p1151
I29514
sS'AGCTCT'
p1152
I45329
sS'GAGCTG'
p1153
I53477
sS'AGTGGT'
p1154
I33757
sS'CGTGGT'
p1155
I12797
sS'AAACGA'
p1156
I10047
sS'ATGAGC'
p1157
I26134
sS'ATGTTT'
p1158
I45605
sS'ACCATT'
p1159
I25375
sS'AGTGGA'
p1160
I35268
sS'AGTGGC'
p1161
I38682
sS'AGCTCC'
p1162
I41992
sS'AGTGGG'
p1163
I42428
sS'CAGTAA'
p1164
I30446
sS'CAGTAC'
p1165
I17116
sS'CAGTAG'
p1166
I25173
sS'CGCGGT'
p1167
I9203
sS'TTAATA'
p1168
I29746
sS'CAGTAT'
p1169
I21688
sS'TGTCCC'
p1170
I35408
sS'TTAATC'
p1171
I20461
sS'CCGGCT'
p1172
I19733
sS'GATCTA'
p1173
I12295
sS'GATCTC'
p1174
I23011
sS'ATTGAC'
p1175
I15218
sS'GATCTG'
p1176
I26234
sS'TTTCAG'
p1177
I65708
sS'CCGGCC'
p1178
I31433
sS'ATTAGG'
p1179
I19265
sS'GTTCCA'
p1180
I26552
sS'CACATT'
p1181
I39937
sS'ATTAGC'
p1182
I20420
sS'TCCCTC'
p1183
I56781
sS'GAGCTT'
p1184
I30587
sS'TCCCTA'
p1185
I25125
sS'TGCCAC'
p1186
I38670
sS'TCCCTG'
p1187
I58483
sS'GATCTT'
p1188
I22300
sS'AAGTGA'
p1189
I52251
sS'AAGTGC'
p1190
I33455
sS'TGTTCT'
p1191
I46337
sS'AAGTGG'
p1192
I40385
sS'TGATTG'
p1193
I25203
sS'TCTGAT'
p1194
I32670
sS'TGATTA'
p1195
I23321
sS'TGTTCA'
p1196
I35433
sS'CACAAG'
p1197
I34395
sS'TGTTCC'
p1198
I32849
sS'CACAAA'
p1199
I50222
sS'CACAAC'
p1200
I25984
sS'TGTTCG'
p1201
I5228
sS'TCTGAA'
p1202
I51035
sS'TCTGAC'
p1203
I32113
sS'TCTGAG'
p1204
I53348
sS'CGCGCC'
p1205
I25162
sS'CGCGCA'
p1206
I11433
sS'GGTAAA'
p1207
I24929
sS'CGCGCG'
p1208
I22418
sS'CTCCCT'
p1209
I68319
sS'AGCGGG'
p1210
I18397
sS'NNAGGT'
p1211
I1
sS'AGCGGA'
p1212
I11635
sS'ACCTCT'
p1213
I38986
sS'AGATGA'
p1214
I43447
sS'GACGTG'
p1215
I10217
sS'GACATT'
p1216
I27965
sS'CGCGCT'
p1217
I12768
sS'GTGCGA'
p1218
I6042
sS'ACCTCA'
p1219
I40480
sS'ACCTCG'
p1220
I11029
sS'CTCCCC'
p1221
I69329
sS'TAGCTA'
p1222
I16828
sS'TAAGCC'
p1223
I19900
sS'CGGGAG'
p1224
I28318
sS'CCCATG'
p1225
I31261
sS'CGGGAA'
p1226
I16305
sS'TAATTT'
p1227
I50608
sS'TAGCTG'
p1228
I31121
sS'CCCATC'
p1229
I33701
sS'CCGAGA'
p1230
I14515
sS'CCTGCT'
p1231
I55590
sS'CCGAAT'
p1232
I5250
sS'CCCATT'
p1233
I32684
sS'CGGGAT'
p1234
I8144
sS'ATTTCG'
p1235
I5964
sS'TAGCTT'
p1236
I23402
sS'TAAGCT'
p1237
I20845
sS'GCCTCC'
p1238
I66504
sS'CCGAAC'
p1239
I5654
sS'CCTGCG'
p1240
I21196
sS'CCGAAA'
p1241
I8961
sS'CCGAAG'
p1242
I10559
sS'CCTGCC'
p1243
I68778
sS'CCTGCA'
p1244
I48284
sS'GTACTG'
p1245
I17115
sS'CCATTC'
p1246
I34338
sS'TATAAG'
p1247
I16730
sS'TATAAA'
p1248
I37446
sS'TATAAC'
p1249
I14254
sS'GCNNNN'
p1250
I1
sS'GATTTG'
p1251
I30244
sS'CATTTC'
p1252
I56992
sS'CGACAG'
p1253
I9516
sS'CCATTT'
p1254
I48194
sS'TCTACA'
p1255
I24792
sS'TCTACC'
p1256
I21304
sS'TCTACG'
p1257
I4713
sS'ACTTTC'
p1258
I44482
sS'CGCAAC'
p1259
I5417
sS'CGCAAA'
p1260
I7422
sS'ATACCG'
p1261
I3288
sS'CGCAAG'
p1262
I7813
sS'ATACCA'
p1263
I20390
sS'ATACCC'
p1264
I14175
sS'TCTACT'
p1265
I27242
sS'CCGAGT'
p1266
I10828
sS'ATACCT'
p1267
I18756
sS'CGCAAT'
p1268
I4218
sS'TAGTAA'
p1269
I20785
sS'TGGGTG'
p1270
I49182
sS'TAGTAC'
p1271
I10256
sS'CTCAAG'
p1272
I37995
sS'CTCAAA'
p1273
I51658
sS'TAGTAG'
p1274
I16617
sS'CTCAAC'
p1275
I25222
sS'GTGTGC'
p1276
I31452
sS'GTGTGA'
p1277
I38437
sS'GTGTGG'
p1278
I43082
sS'TAACGG'
p1279
I4469
sS'CTCAAT'
p1280
I23442
sS'TAGTAT'
p1281
I14706
sS'CTCCCG'
p1282
I28307
sS'GTGTGT'
p1283
I79427
sS'ATCTTT'
p1284
I39940
sS'GTTGGG'
p1285
I28911
sS'GTTGGA'
p1286
I21941
sS'GTTGGC'
p1287
I21939
sS'CCTTGG'
p1288
I41928
sS'CCTTGA'
p1289
I32313
sS'GCGTAT'
p1290
I3065
sS'AGGATT'
p1291
I29832
sS'GGACGT'
p1292
I7808
sS'CTAAGC'
p1293
I19771
sS'GTTGGT'
p1294
I22271
sS'ATCTTG'
p1295
I28901
sS'ATCTTA'
p1296
I22319
sS'ATCTTC'
p1297
I29269
sS'CCTTGT'
p1298
I31893
sS'AGGATA'
p1299
I20093
sS'AGGATG'
p1300
I38013
sS'GACATG'
p1301
I24589
sS'GACATC'
p1302
I19488
sS'GACATA'
p1303
I16729
sS'TCGGCG'
p1304
I8033
sS'GAATAT'
p1305
I23555
sS'GGTGCA'
p1306
I26904
sS'TCGGCC'
p1307
I15087
sS'ATCAGA'
p1308
I32649
sS'TTGCGA'
p1309
I4358
sS'TTGCGC'
p1310
I6409
sS'TTGCGG'
p1311
I8055
sS'GAATAG'
p1312
I19448
sS'TCGGCT'
p1313
I12026
sS'ATCAGC'
p1314
I25380
sS'AGGAAG'
p1315
I88157
sS'GAATAA'
p1316
I29588
sS'AAGTCG'
p1317
I6434
sS'GTACAT'
p1318
I16559
sS'ATACAA'
p1319
I27601
sS'GACCTT'
p1320
I25513
sS'ACNNNN'
p1321
I1
sS'TGCCTC'
p1322
I50455
sS'ACGTCG'
p1323
I2899
sS'GGACGC'
p1324
I13199
sS'TTATAA'
p1325
I30606
sS'GAAATG'
p1326
I56997
sS'AATGAT'
p1327
I30916
sS'GAAATA'
p1328
I42248
sS'GAAATC'
p1329
I31600
sS'ACCGGT'
p1330
I4468
sS'GAAATT'
p1331
I40189
sS'AATGAA'
p1332
I58337
sS'ATGTCC'
p1333
I21552
sS'AATGAC'
p1334
I31040
sS'AATGAG'
p1335
I45597
sS'CTTGGA'
p1336
I32992
sS'CTTGGC'
p1337
I38024
sS'GTCCTT'
p1338
I28523
sS'CTTGGG'
p1339
I42907
sS'TTGTGA'
p1340
I35447
sS'GGGAAT'
p1341
I29068
sS'TTGAAT'
p1342
I34009
sS'GTCCTA'
p1343
I15120
sS'GTCCTC'
p1344
I30223
sS'TGCACG'
p1345
I10266
sS'CTTGGT'
p1346
I31576
sS'GTCCTG'
p1347
I35552
sS'TGCACC'
p1348
I26911
sS'TTGAAA'
p1349
I53620
sS'TTGAAC'
p1350
I26770
sS'AGCCCA'
p1351
I46447
sS'AGCCCC'
p1352
I48116
sS'CTTATG'
p1353
I18613
sS'ATAAAT'
p1354
I45367
sS'TGGTCG'
p1355
I6005
sS'TGGTCA'
p1356
I30393
sS'TGGTCC'
p1357
I23467
sS'ACGATT'
p1358
I4829
sS'GAGACT'
p1359
I35188
sS'GATTCA'
p1360
I25596
sS'CGTGGG'
p1361
I18948
sS'TGGTCT'
p1362
I35846
sS'ATAAAG'
p1363
I34285
sS'CCTGTG'
p1364
I53640
sS'ATAAAA'
p1365
I58830
sS'TCAGCC'
p1366
I49343
sS'ATAAAC'
p1367
I28418
sS'GAGACG'
p1368
I14411
sS'ACGATG'
p1369
I6116
sS'CTACAG'
p1370
I29083
sS'GAGACC'
p1371
I32817
sS'ACGATC'
p1372
I3922
sS'GAGACA'
p1373
I45588
sS'ACGATA'
p1374
I3005
sS'GGTTAC'
p1375
I14870
sS'ATGTGT'
p1376
I40252
sS'GGTTAA'
p1377
I21372
sS'GACGTC'
p1378
I7733
sS'GGTTAG'
p1379
I17674
sS'CTTCCT'
p1380
I88128
sS'GAATGT'
p1381
I30028
sS'TCCATT'
p1382
I40940
sS'CGTGAA'
p1383
I9139
sS'CCAACA'
p1384
I32508
sS'TCCGCT'
p1385
I11629
sS'CTTCCA'
p1386
I46747
sS'ATGTGG'
p1387
I38055
sS'ACCACC'
p1388
I34134
sS'CGTATG'
p1389
I3981
sS'ACCACA'
p1390
I50482
sS'GGTTAT'
p1391
I16690
sS'TCCGCC'
p1392
I22976
sS'TCCGCA'
p1393
I9642
sS'TCCGCG'
p1394
I11174
sS'AACGTC'
p1395
I6426
sS'TAAGTT'
p1396
I24519
sS'AACGTG'
p1397
I10242
sS'CGTGAC'
p1398
I10115
sS'GGTAGC'
p1399
I15493
sS'AGTGTG'
p1400
I39434
sS'TCTTCG'
p1401
I8187
sS'AGTGTA'
p1402
I20196
sS'TCTTCA'
p1403
I45256
sS'AGTGTC'
p1404
I26324
sS'TCTTCC'
p1405
I56899
sS'TAAGTG'
p1406
I27181
sS'TAAGTC'
p1407
I17572
sS'TAAGTA'
p1408
I22017
sS'CAATTT'
p1409
I34502
sS'TCTTCT'
p1410
I58200
sS'AGTGTT'
p1411
I34226
sS'ANNNNN'
p1412
I1
sS'GTGCGC'
p1413
I12297
sS'TTGGCA'
p1414
I31209
sS'AAAGGT'
p1415
I33585
sS'TTGGCC'
p1416
I33185
sS'AGTAAC'
p1417
I21308
sS'ACTTGG'
p1418
I31961
sS'TTAACG'
p1419
I5019
sS'TTGGCG'
p1420
I8375
sS'GACTTC'
p1421
I29715
sS'CGCCGG'
p1422
I19221
sS'GACTTA'
p1423
I17572
sS'GACTTG'
p1424
I26835
sS'ACGTCA'
p1425
I9267
sS'ACGTAG'
p1426
I5675
sS'AAAGGG'
p1427
I48563
sS'AAAGGA'
p1428
I62205
sS'TTGGCT'
p1429
I39500
sS'AAAGGC'
p1430
I40398
sS'GAGTAC'
p1431
I12120
sS'GTCGAT'
p1432
I2523
sS'GACTTT'
p1433
I34503
sS'TAAACC'
p1434
I22118
sS'CAAGAA'
p1435
I44276
sS'AGCGAG'
p1436
I15496
sS'CAAGAC'
p1437
I28556
sS'GATTCG'
p1438
I4619
sS'CAAGAG'
p1439
I40316
sS'CGTATT'
p1440
I5201
sS'TTCTTG'
p1441
I44220
sS'TTCTTC'
p1442
I55812
sS'TTCTTA'
p1443
I39649
sS'CAAGAT'
p1444
I28931
sS'AGGGCT'
p1445
I45127
sS'TACGGG'
p1446
I4729
sS'TACGGA'
p1447
I4614
sS'TACGGC'
p1448
I4160
sS'CTCAGA'
p1449
I53344
sS'TAGAGT'
p1450
I20533
sS'TACGGT'
p1451
I4125
sS'AGGGCG'
p1452
I21481
sS'AGGGCA'
p1453
I46087
sS'AGGGCC'
p1454
I40120
sS'TCGAGA'
p1455
I7860
sS'TAGAGC'
p1456
I19768
sS'TAGAGA'
p1457
I36328
sS'TAGAGG'
p1458
I26785
sS'GTGTAA'
p1459
I20397
sS'GTGCTG'
p1460
I46521
sS'GTGCTA'
p1461
I18643
sS'ATCTGT'
p1462
I36422
sS'GTGCTC'
p1463
I26326
sS'CAATTC'
p1464
I24298
sS'ACCACT'
p1465
I33775
sS'GTGCTT'
p1466
I32750
sS'ATCTGC'
p1467
I30423
sS'CGAATA'
p1468
I3594
sS'CGAATG'
p1469
I6879
sS'ATCTGG'
p1470
I31267
sS'ATCATA'
p1471
I19058
sS'GATAGC'
p1472
I10636
sS'ATCATC'
p1473
I22861
sS'GATAGA'
p1474
I16816
sS'AAGCAA'
p1475
I48731
sS'CAAACT'
p1476
I36624
sS'ATCATG'
p1477
I24299
sS'GGCTCA'
p1478
I45338
sS'GTTATG'
p1479
I16620
sS'CTAGGT'
p1480
I19500
sS'CATTTA'
p1481
I42042
sS'ACGCAT'
p1482
I5790
sS'CATTTG'
p1483
I44417
sS'GTTATA'
p1484
I14243
sS'CAAACA'
p1485
I46907
sS'AAGCAT'
p1486
I31550
sS'CAAACC'
p1487
I32269
sS'CATATT'
p1488
I28054
sS'ATCATT'
p1489
I30902
sS'GATAGT'
p1490
I12097
sS'ACGCAG'
p1491
I12690
sS'CTAGGG'
p1492
I23796
sS'GTTATT'
p1493
I26377
sS'CTAGGC'
p1494
I21550
sS'CATTTT'
p1495
I74897
sS'CTAGGA'
p1496
I24972
sS'AAGTTT'
p1497
I43557
sS'TACAGT'
p1498
I26542
sS'CTAACG'
p1499
I4685
sS'CTAAGG'
p1500
I22593
sS'CTAAGA'
p1501
I26714
sS'GGGGCT'
p1502
I48106
sS'TACAGG'
p1503
I31804
sS'AAGTTG'
p1504
I29260
sS'AAGTTA'
p1505
I29374
sS'TACAGC'
p1506
I23184
sS'AAGTTC'
p1507
I30073
sS'TACAGA'
p1508
I34699
sS'GGGGCC'
p1509
I48180
sS'GTATGA'
p1510
I16551
sS'GGGGCA'
p1511
I40924
sS'GGGGCG'
p1512
I44650
sS'GGGGNN'
p1513
I1
sS'TATATC'
p1514
I13280
sS'TATATA'
p1515
I28914
sS'TGTATA'
p1516
I21659
sS'TATATG'
p1517
I20821
sS'ACATCG'
p1518
I4890
sS'TCCGGT'
p1519
I7959
sS'GGTCCA'
p1520
I19073
sS'TATATT'
p1521
I29709
sS'TGATGG'
p1522
I29537
sS'CATATG'
p1523
I22223
sS'ATGAGT'
p1524
I30562
sS'AGGTCT'
p1525
I30370
sS'TGATGA'
p1526
I33122
sS'TGCCAT'
p1527
I32031
sS'ACTCTT'
p1528
I32852
sS'TGTTTC'
p1529
I53848
sS'CACATA'
p1530
I30023
sS'TTAATT'
p1531
I39522
sS'CACATG'
p1532
I40933
sS'TTTCAT'
p1533
I57565
sS'ATGAGA'
p1534
I41071
sS'TGATGT'
p1535
I29988
sS'ATGAGG'
p1536
I36520
sS'TTTCAC'
p1537
I50794
sS'ACTCTG'
p1538
I44477
sS'TTTCAA'
p1539
I53628
sS'ACTCTA'
p1540
I20524
sS'TGTTTT'
p1541
I84108
sS'ACTCTC'
p1542
I30510
sS'TTAATG'
p1543
I27661
sS'AAATTC'
p1544
I39151
sS'CCCGGT'
p1545
I10960
sS'AAATTA'
p1546
I50553
sS'AAATTG'
p1547
I34508
sS'NNNNTG'
p1548
I1
sS'AGACCG'
p1549
I8397
sS'AAATTT'
p1550
I52969
sS'CGTCTA'
p1551
I4206
sS'GGGAAC'
p1552
I31688
sS'GGTGCG'
p1553
I12563
sS'GGGAAA'
p1554
I62605
sS'GGGAAG'
p1555
I68588
sS'GGTGCC'
p1556
I28222
sS'TCCGGG'
p1557
I18974
sS'AGAGCG'
p1558
I15331
sS'GCGACT'
p1559
I6853
sS'AGAGCC'
p1560
I41268
sS'AGAGCA'
p1561
I47741
sS'GCGTAG'
p1562
I4839
sS'GGTGCT'
p1563
I32036
sS'GCGTAC'
p1564
I2913
sS'GCGTAA'
p1565
I3588
sS'GCGACG'
p1566
I6491
sS'AGAGCT'
p1567
I45336
sS'GCGACA'
p1568
I8161
sS'TATCGG'
p1569
I2680
sS'GCGACC'
p1570
I8866
sS'AGGTCG'
p1571
I7751
sS'GCAGGA'
p1572
I52971
sS'GCAGGC'
p1573
I45739
sS'GCAGGG'
p1574
I58869
sS'GGCGAT'
p1575
I6161
sS'GCACTA'
p1576
I14162
sS'CCGTGC'
p1577
I11733
sS'GCTCGG'
p1578
I16000
sS'TATTCT'
p1579
I32863
sS'CCGTGG'
p1580
I15586
sS'CTTTAG'
p1581
I26856
sS'GCAGGT'
p1582
I36300
sS'TGAAGC'
p1583
I34024
sS'ACGTCT'
p1584
I8175
sS'TATTCC'
p1585
I20855
sS'CAATTG'
p1586
I15735
sS'TATTCA'
p1587
I30564
sS'CAATTA'
p1588
I21897
sS'TATTCG'
p1589
I3591
sS'GGCGAC'
p1590
I11658
sS'TGTAGA'
p1591
I24809
sS'TTTACC'
p1592
I24919
sS'TGTAGC'
p1593
I19648
sS'TGAAGA'
p1594
I45313
sS'TTTACG'
p1595
I5550
sS'TGTAGG'
p1596
I22071
sS'TGCTTA'
p1597
I27850
sS'TTCGGA'
p1598
I6491
sS'TTCGGC'
p1599
I7407
sS'CTTTAC'
p1600
I24812
sS'TTCAAG'
p1601
I40000
sS'TTCGGG'
p1602
I9610
sS'AGCATG'
p1603
I31774
sS'GGCTCT'
p1604
I41271
sS'TGTAGT'
p1605
I24375
sS'TTTACT'
p1606
I38435
sS'AGCATA'
p1607
I20205
sS'TTACAT'
p1608
I30533
sS'ATTGTA'
p1609
I20971
sS'TTCGGT'
p1610
I6895
sS'GTTTAT'
p1611
I28422
sS'GTCTAG'
p1612
I15750
sS'GCACTC'
p1613
I27339
sS'CGCTAC'
p1614
I4960
sS'GTTTAA'
p1615
I29325
sS'CGCTAA'
p1616
I4539
sS'AACTTG'
p1617
I31154
sS'CGAATT'
p1618
I4898
sS'GTTTAG'
p1619
I20951
sS'GAGGTA'
p1620
I21647
sS'CTGGCT'
p1621
I57444
sS'AGGCGG'
p1622
I29620
sS'AGGCGA'
p1623
I11204
sS'AGGCGC'
p1624
I19070
sS'AGGAGT'
p1625
I37317
sS'ACAGCC'
p1626
I41692
sS'GATAAA'
p1627
I27725
sS'ACAGCA'
p1628
I49058
sS'GAGGTC'
p1629
I29510
sS'ACAGCG'
p1630
I12367
sS'AGGAGC'
p1631
I42758
sS'AGGCGT'
p1632
I12728
sS'AGGAGA'
p1633
I60638
sS'CTGGCG'
p1634
I17648
sS'AGGAGG'
p1635
I77440
sS'CTGGCA'
p1636
I44317
sS'GTCGGG'
p1637
I11423
sS'GCGCCC'
p1638
I28640
sS'GCATCG'
p1639
I5327
sS'ATGCAA'
p1640
I34113
sS'ACAGCT'
p1641
I44220
sS'GCTCTC'
p1642
I36933
sS'ATTGGT'
p1643
I19887
sS'AATTTT'
p1644
I60257
sS'TGTCAA'
p1645
I26251
sS'TGTCAC'
p1646
I35619
sS'CCCTCT'
p1647
I55390
sS'GCTCTA'
p1648
I19765
sS'ATTTAT'
p1649
I45362
sS'ATTGGG'
p1650
I19162
sS'AATTTA'
p1651
I39301
sS'AATTTC'
p1652
I40137
sS'AACGCC'
p1653
I8138
sS'ATTGGA'
p1654
I20437
sS'AATTTG'
p1655
I37409
sS'CCCTCA'
p1656
I43056
sS'CCCTCC'
p1657
I76525
sS'TGTCAT'
p1658
I33436
sS'CCCTCG'
p1659
I17664
sS'GAGGTT'
p1660
I34020
sS'CACGAT'
p1661
I6114
sS'GGCGTT'
p1662
I8137
sS'TGACCA'
p1663
I30403
sS'CATTCT'
p1664
I44632
sS'TAAATC'
p1665
I23650
sS'AAATGC'
p1666
I44068
sS'NGATCC'
p1667
I2
sS'CATTCG'
p1668
I6880
sS'CATTCC'
p1669
I34405
sS'CATTCA'
p1670
I40651
sS'CTGACC'
p1671
I35009
sS'ACGAAA'
p1672
I8686
sS'CGCTAT'
p1673
I3604
sS'ACAAAT'
p1674
I42217
sS'GATTAA'
p1675
I20471
sS'GTAGGC'
p1676
I14829
sS'GATTAC'
p1677
I19038
sS'GTAGGA'
p1678
I20446
sS'GTAGGG'
p1679
I19996
sS'GATTAG'
p1680
I15221
sS'GAATGA'
p1681
I38767
sS'ACAAAC'
p1682
I36586
sS'ACAAAA'
p1683
I72237
sS'ACAAAG'
p1684
I46624
sS'GCGGGC'
p1685
I28690
sS'GTCGGT'
p1686
I5149
sS'GCGGGA'
p1687
I23041
sS'GCGGGG'
p1688
I48075
sS'GATTAT'
p1689
I18319
sS'GTAGGT'
p1690
I17830
sS'GGCGTC'
p1691
I11865
sS'TAATGA'
p1692
I29827
sS'GATGTT'
p1693
I25760
sS'TAATGC'
p1694
I17654
sS'GGAGAT'
p1695
I30139
sS'GCCCTT'
p1696
I33897
sS'GGCGTA'
p1697
I3941
sS'GCCCTC'
p1698
I44051
sS'GATGTG'
p1699
I31609
sS'GATACA'
p1700
I17969
sS'GATGTA'
p1701
I15909
sS'GCCCTG'
p1702
I56748
sS'GATGTC'
p1703
I19484
sS'CAATAG'
p1704
I16851
sS'TGAAAT'
p1705
I52891
sS'AACCTA'
p1706
I20068
sS'TTCTAA'
p1707
I39008
sS'ATCCGT'
p1708
I4933
sS'TTCTAC'
p1709
I25092
sS'TGAAAA'
p1710
I70284
sS'TGAAAC'
p1711
I49373
sS'TGAAAG'
p1712
I55378
sS'TTCTAT'
p1713
I31004
sS'ATCCGC'
p1714
I6797
sS'ATCCGA'
p1715
I4342
sS'ATCCGG'
p1716
I6883
sS'TGGCTC'
p1717
I45550
sS'TGGCTA'
p1718
I25384
sS'TGGCTG'
p1719
I59368
sS'GACCGG'
p1720
I9045
sS'GTCGGA'
p1721
I5465
sS'AGTTGT'
p1722
I26264
sS'AGCTAT'
p1723
I20880
sS'ATTAGT'
p1724
I20175
sS'AAGACA'
p1725
I46309
sS'GTCGGC'
p1726
I8355
sS'CGTCGA'
p1727
I1881
sS'TGGCTT'
p1728
I47605
sS'AGTTGG'
p1729
I26970
sS'AGCTAA'
p1730
I26186
sS'ACGCCG'
p1731
I7625
sS'AGCTAC'
p1732
I23543
sS'AGTTGC'
p1733
I22455
sS'AGTTGA'
p1734
I25999
sS'AGCTAG'
p1735
I21690
sS'CGTTGA'
p1736
I4979
sS'GCACCT'
p1737
I30613
sS'CAGTGT'
p1738
I40265
sS'AGTCAG'
p1739
I39418
sS'TCAGGT'
p1740
I31885
sS'TCAAGG'
p1741
I32327
sS'CTGGCC'
p1742
I54188
sS'TCAAGC'
p1743
I25969
sS'CTGCAC'
p1744
I41955
sS'GCACCA'
p1745
I28686
sS'CAGTGC'
p1746
I36076
sS'CTAATC'
p1747
I15218
sS'CAGTGA'
p1748
I51476
sS'CAGTGG'
p1749
I51982
sS'CTAATG'
p1750
I20451
sS'TCAAGT'
p1751
I30527
sS'CTGCAA'
p1752
I41803
sS'GAGCCC'
p1753
I41312
sS'TCAGGC'
p1754
I37515
sS'ACCGAT'
p1755
I3624
sS'CGTTGG'
p1756
I7349
sS'GATCAG'
p1757
I21001
sS'CAACCA'
p1758
I30220
sS'GTTCAT'
p1759
I24134
sS'TTCCCT'
p1760
I60732
sS'CGAGCG'
p1761
I9255
sS'CGAGCA'
p1762
I8460
sS'GAGCCG'
p1763
I21038
sS'ACGCCA'
p1764
I9855
sS'TTCCCA'
p1765
I56145
sS'TTCCCC'
p1766
I58674
sS'GTTCAC'
p1767
I22101
sS'GTTCAA'
p1768
I26760
sS'GATCAC'
p1769
I21897
sS'GGACCT'
p1770
I23962
sS'TACATG'
p1771
I23695
sS'AAGTAC'
p1772
I20335
sS'CACACT'
p1773
I39444
sS'TACATC'
p1774
I15926
sS'AAGTAG'
p1775
I27727
sS'TACATA'
p1776
I23904
sS'CATGGT'
p1777
I30342
sS'GGACCG'
p1778
I10394
sS'AACGCT'
p1779
I7672
sS'GGACCA'
p1780
I23473
sS'CTTTCT'
p1781
I79091
sS'GGACCC'
p1782
I26223
sS'CACACG'
p1783
I15284
sS'TACATT'
p1784
I30054
sS'CACACC'
p1785
I40268
sS'GCACAA'
p1786
I24855
sS'CACACA'
p1787
I97444
sS'TCTGCC'
p1788
I52958
sS'TCTGCA'
p1789
I48670
sS'TCTGCG'
p1790
I13394
sS'TAGATT'
p1791
I21392
sS'CCCGTC'
p1792
I13300
sS'TTAAGG'
p1793
I24735
sS'CCCGTA'
p1794
I4729
sS'TTAAGA'
p1795
I33424
sS'CCCGTG'
p1796
I13277
sS'TTAAGC'
p1797
I20846
sS'TTACGT'
p1798
I6039
sS'TAGATC'
p1799
I12297
sS'AAACAG'
p1800
I60613
sS'TAGATA'
p1801
I17635
sS'TTTCGC'
p1802
I7532
sS'TAGATG'
p1803
I21889
sS'TCTGCT'
p1804
I54955
sS'TTACGC'
p1805
I3587
sS'TTAAGT'
p1806
I29451
sS'TTACGA'
p1807
I3888
sS'TTACGG'
p1808
I4760
sS'CCCGTT'
p1809
I8633
sS'AGTGAC'
p1810
I32700
sS'AGTGAA'
p1811
I47027
sS'AGTGAG'
p1812
I52055
sS'GCGGTC'
p1813
I9397
sS'CGGGCG'
p1814
I23481
sS'AAACAC'
p1815
I45191
sS'TAAGAG'
p1816
I28230
sS'CCTGAT'
p1817
I25642
sS'TAAGAA'
p1818
I39700
sS'CGGGCA'
p1819
I15462
sS'TAAGAC'
p1820
I18895
sS'TGTCAG'
p1821
I37044
sS'AGTGAT'
p1822
I31234
sS'CTTTCC'
p1823
I59381
sS'TAAGAT'
p1824
I22338
sS'CCTGAA'
p1825
I42709
sS'CCTGAC'
p1826
I35403
sS'CCTGAG'
p1827
I56304
sS'GTTAGG'
p1828
I18076
sS'GCCAAC'
p1829
I21941
sS'TATACT'
p1830
I16321
sS'GTTAGC'
p1831
I13840
sS'GTTAGA'
p1832
I18846
sS'GNNNNN'
p1833
I1
sS'GCCAAA'
p1834
I31696
sS'TATACG'
p1835
I2864
sS'GTTAGT'
p1836
I15481
sS'TATACC'
p1837
I11420
sS'TATACA'
p1838
I21637
sS'ATTGGC'
p1839
I20662
sS'TCTTGT'
p1840
I35175
sS'ACTAGT'
p1841
I13636
sS'TTTATT'
p1842
I67112
sS'GTAATA'
p1843
I17443
sS'AACGCA'
p1844
I7701
sS'GTAATC'
p1845
I19009
sS'TCTAAC'
p1846
I18855
sS'CGTTCT'
p1847
I9386
sS'GTGAAG'
p1848
I35524
sS'CGGATC'
p1849
I6518
sS'CCACCA'
p1850
I50351
sS'CCACCC'
p1851
I57844
sS'ATTACT'
p1852
I24833
sS'TTTATG'
p1853
I34529
sS'ACTAGG'
p1854
I18196
sS'TTTATC'
p1855
I27715
sS'ACTAGC'
p1856
I13864
sS'TTTATA'
p1857
I37402
sS'ATAGAA'
p1858
I30999
sS'CCACCT'
p1859
I52628
sS'CGTTCG'
p1860
I2894
sS'ACTTGT'
p1861
I26944
sS'CGTTCA'
p1862
I6944
sS'CGTTCC'
p1863
I9588
sS'TCTAAT'
p1864
I23472
sS'CTTTGT'
p1865
I46594
sS'AAACAT'
p1866
I45646
sS'GTGACN'
p1867
I1
sS'ACTGGA'
p1868
I33537
sS'ACTGGC'
p1869
I28886
sS'TAGTCC'
p1870
I15747
sS'GTGACC'
p1871
I26471
sS'TAGTCA'
p1872
I21465
sS'GTGACA'
p1873
I35607
sS'TAGTCG'
p1874
I2938
sS'GTGACG'
p1875
I9806
sS'ATTTAG'
p1876
I28862
sS'ACTGGT'
p1877
I24213
sS'CTTTGG'
p1878
I45605
sS'CCTATG'
p1879
I16713
sS'CTTTGC'
p1880
I40672
sS'CTTTGA'
p1881
I40696
sS'ACATTA'
p1882
I24739
sS'GTGACT'
p1883
I35230
sS'TAGTCT'
p1884
I19131
sS'GTGCAC'
p1885
I22477
sS'GCGCTT'
p1886
I10283
sS'ACCTAG'
p1887
I19499
sS'CGACGA'
p1888
I2690
sS'ACCTAA'
p1889
I20984
sS'CGACGC'
p1890
I5775
sS'CGAAGT'
p1891
I6718
sS'CCGCAG'
p1892
I23458
sS'CCGCAA'
p1893
I8060
sS'CCGCAC'
p1894
I12892
sS'CTACGG'
p1895
I5459
sS'ACCTAT'
p1896
I14747
sS'CGACGT'
p1897
I2901
sS'CGAAGA'
p1898
I8185
sS'CCCCGT'
p1899
I14231
sS'CGAAGG'
p1900
I10595
sS'GCGCTC'
p1901
I17194
sS'GTGCAT'
p1902
I23188
sS'GCGCTA'
p1903
I4913
sS'CCGCAT'
p1904
I6580
sS'GTTCGC'
p1905
I4981
sS'GAAGAT'
p1906
I29281
sS'GGATCT'
p1907
I20349
sS'CTTCCG'
p1908
I18171
sS'TCGGAA'
p1909
I7264
sS'TCGGAC'
p1910
I4830
sS'GAATCT'
p1911
I26743
sS'TCGGAG'
p1912
I10602
sS'GGATCG'
p1913
I5253
sS'GAAGAG'
p1914
I53471
sS'GAAGAA'
p1915
I55854
sS'GTTCGG'
p1916
I5655
sS'GAAGAC'
p1917
I30126
sS'GGATCA'
p1918
I20381
sS'GGATCN'
p1919
I2
sS'GAATCA'
p1920
I29841
sS'GAATCC'
p1921
I21034
sS'TCGGAT'
p1922
I4339
sS'GAATCG'
p1923
I6510
sS'ATGGTC'
p1924
I16986
sS'CAGATG'
p1925
I44795
sS'CTCGAT'
p1926
I4785
sS'TGACCC'
p1927
I26164
sS'ATGGTG'
p1928
I33298
sS'CAGATC'
p1929
I26228
sS'CTATCC'
p1930
I13042
sS'TGCGTG'
p1931
I13606
sS'TAGACT'
p1932
I17981
sS'CTATCT'
p1933
I20781
sS'CAGATT'
p1934
I33129
sS'CTCGAC'
p1935
I5439
sS'ATGGTT'
p1936
I26294
sS'TCGCAA'
p1937
I4357
sS'TGACCG'
p1938
I6995
sS'GCTATT'
p1939
I21452
sS'TGCGTC'
p1940
I8026
sS'CCGGTA'
p1941
I4459
sS'GCGTGG'
p1942
I19109
sS'AATGGT'
p1943
I25361
sS'GTTACG'
p1944
I3806
sS'GGGACG'
p1945
I15183
sS'AATGGC'
p1946
I27464
sS'AATGGA'
p1947
I40943
sS'AATGGG'
p1948
I32668
sS'NCCCCC'
p1949
I1
sS'CCCCGA'
p1950
I15911
sS'CAACTC'
p1951
I26702
sS'AACGCG'
p1952
I4583
sS'AATAGC'
p1953
I21449
sS'ATTTAC'
p1954
I28619
sS'CGTTAG'
p1955
I4689
sS'AGCCAG'
p1956
I57462
sS'GGAGGG'
p1957
I76553
sS'AAAAGT'
p1958
I50136
sS'GGAGGA'
p1959
I70987
sS'GGAGGC'
p1960
I66519
sS'TGGTAG'
p1961
I22420
sS'CGCCAT'
p1962
I10667
sS'GAGTGT'
p1963
I27226
sS'ATGATC'
p1964
I18232
sS'TGGTAA'
p1965
I26292
sS'AAAAGG'
p1966
I57152
sS'GGAGGT'
p1967
I41474
sS'AGCCAT'
p1968
I31472
sS'AAAAGC'
p1969
I47550
sS'AAAAGA'
p1970
I77445
sS'TTGACT'
p1971
I28248
sS'GAGTGG'
p1972
I36631
sS'CGCCAG'
p1973
I17651
sS'TGGTAT'
p1974
I20396
sS'CGCCAA'
p1975
I8372
sS'GAGTGC'
p1976
I27289
sS'CGCCAC'
p1977
I17355
sS'GAGTGA'
p1978
I36338
sS'GCCAGG'
p1979
I62918
sS'GCCAGA'
p1980
I39508
sS'GCCAGC'
p1981
I42375
sS'GCCCGT'
p1982
I9629
sS'TACCGA'
p1983
I3829
sS'TACCGC'
p1984
I4833
sS'CTTCAT'
p1985
I37312
sS'GCCCGC'
p1986
I28704
sS'GCCAGT'
p1987
I28889
sS'GCCCGA'
p1988
I11656
sS'GCCCGG'
p1989
I32232
sS'TGCGAT'
p1990
I5195
sS'ATTTAA'
p1991
I46656
sS'CTTCAA'
p1992
I34154
sS'TACCGT'
p1993
I4311
sS'TCCGAG'
p1994
I11093
sS'GTGGGC'
p1995
I35248
sS'TCCGAC'
p1996
I5470
sS'AATTCA'
p1997
I38328
sS'TAGCGA'
p1998
I4011
sS'AATTCC'
p1999
I29734
sS'AATTCG'
p2000
I4896
sS'TCCGAT'
p2001
I4003
sS'NNNGAT'
p2002
I2
sS'TAGCGG'
p2003
I5670
sS'AATTCT'
p2004
I41227
sS'NNCCCC'
p2005
I1
sS'TAGCGC'
p2006
I4911
sS'GTCATC'
p2007
I22316
sS'GTCATA'
p2008
I17151
sS'GTCATG'
p2009
I23773
sS'AGCAGG'
p2010
I55580
sS'CCAGGT'
p2011
I41732
sS'TTGGAA'
p2012
I38327
sS'TTGGAG'
p2013
I37009
sS'AGCAGA'
p2014
I54944
sS'GTCATT'
p2015
I31033
sS'CCAGGG'
p2016
I61765
sS'AGCAGT'
p2017
I38535
sS'CCAGGA'
p2018
I60616
sS'CCAGGC'
p2019
I72164
sS'TTGGAT'
p2020
I21946
sS'ACGGTA'
p2021
I4303
sS'CATCTG'
p2022
I44798
sS'ACGGTC'
p2023
I5578
sS'CATCTA'
p2024
I21892
sS'ATAGAC'
p2025
I13866
sS'CATCTC'
p2026
I40821
sS'CAAGCT'
p2027
I30570
sS'TCCAAC'
p2028
I21946
sS'GGGGTC'
p2029
I25969
sS'CAAGCC'
p2030
I31269
sS'CATCTT'
p2031
I39620
sS'CAAGCA'
p2032
I35843
sS'ACGGTT'
p2033
I6099
sS'GACTGA'
p2034
I29916
sS'CCTGGC'
p2035
I62913
sS'GTTCTT'
p2036
I35086
sS'ACATGA'
p2037
I31793
sS'CGTAAT'
p2038
I3950
sS'ACATGC'
p2039
I28004
sS'TCTTGA'
p2040
I34013
sS'TGTTTG'
p2041
I46913
sS'ACATGG'
p2042
I32835
sS'CCCGCT'
p2043
I18406
sS'GTAAAC'
p2044
I19620
sS'TGGCGG'
p2045
I19673
sS'CGTAAG'
p2046
I4973
sS'GAGTCA'
p2047
I37325
sS'ACATGT'
p2048
I31556
sS'GTTCTA'
p2049
I20023
sS'CGTAAA'
p2050
I5554
sS'AGGGAG'
p2051
I68342
sS'CCCGCC'
p2052
I55461
sS'AGACGC'
p2053
I10640
sS'CCCGCA'
p2054
I16620
sS'CCCTTT'
p2055
I48576
sS'AGCGCA'
p2056
I10166
sS'GTTGTT'
p2057
I29523
sS'ATCCTT'
p2058
I28246
sS'TTGTCG'
p2059
I4503
sS'TTGTCC'
p2060
I24581
sS'TTGTCA'
p2061
I31672
sS'ATCCTC'
p2062
I30433
sS'GTTGTA'
p2063
I16194
sS'ATCCTA'
p2064
I17451
sS'GTTGTC'
p2065
I17521
sS'ATCCTG'
p2066
I33329
sS'GTTGTG'
p2067
I25975
sS'TTGTCT'
p2068
I38114
sS'CTATGC'
p2069
I14898
sS'TGACTA'
p2070
I21488
sS'TGGGCC'
p2071
I38456
sS'TGACTC'
p2072
I37316
sS'TGGGCA'
p2073
I47427
sS'TGGGCG'
p2074
I21947
sS'TGACTG'
p2075
I37720
sS'AAGCCG'
p2076
I11966
sS'AAGCCC'
p2077
I36441
sS'AAGCCA'
p2078
I47588
sS'CAAAAT'
p2079
I50306
sS'TGACTT'
p2080
I40500
sS'TGGGCT'
p2081
I46464
sS'CAAAAC'
p2082
I48055
sS'CAAAAA'
p2083
I71751
sS'AAGCCT'
p2084
I37953
sS'CAAAAG'
p2085
I47616
sS'TCAATG'
p2086
I21980
sS'AAACTT'
p2087
I43567
sS'TCAATC'
p2088
I16518
sS'AAGGGA'
p2089
I50606
sS'TCAATA'
p2090
I20967
sS'CAGTTC'
p2091
I37919
sS'GACCCG'
p2092
I12114
sS'CAGTTG'
p2093
I28634
sS'GACCCC'
p2094
I25965
sS'CTCTGT'
p2095
I62518
sS'TCAATT'
p2096
I25831
sS'TGGCGT'
p2097
I9857
sS'CTCTGC'
p2098
I63236
sS'GACCCT'
p2099
I26256
sS'CTCTGA'
p2100
I52822
sS'CTCTGG'
p2101
I57889
sS'CAGTTT'
p2102
I53771
sS'GCGAAG'
p2103
I9821
sS'ACGTTC'
p2104
I6872
sS'TGCTGG'
p2105
I56566
sS'CGAGGT'
p2106
I11026
sS'TGCTGA'
p2107
I45076
sS'GAGTCT'
p2108
I30852
sS'TGCTGC'
p2109
I49884
sS'AGCTGC'
p2110
I49323
sS'GCTGGT'
p2111
I37306
sS'GTGATT'
p2112
I29281
sS'ACGTTA'
p2113
I5344
sS'TGCTGT'
p2114
I49084
sS'TAGGGC'
p2115
I18175
sS'TAATGG'
p2116
I19835
sS'GTGATG'
p2117
I29546
sS'GCTGGG'
p2118
I80112
sS'GTGATC'
p2119
I21910
sS'GCTGGC'
p2120
I42380
sS'GTGATA'
p2121
I17584
sS'GCTGGA'
p2122
I49214
sS'TGATAA'
p2123
I24503
sS'TGATAC'
p2124
I15150
sS'TGATAG'
p2125
I16947
sS'CTTGTT'
p2126
I36412
sS'GACGGT'
p2127
I6325
sS'GCTAGG'
p2128
I20609
sS'GCTAGA'
p2129
I19532
sS'ATGAAT'
p2130
I36883
sS'GCTAGC'
p2131
I12919
sS'ATAGGG'
p2132
I15946
sS'TGATAT'
p2133
I19764
sS'GCTAGT'
p2134
I13863
sS'ATGAAC'
p2135
I24118
sS'GACGGG'
p2136
I13299
sS'ATGAAA'
p2137
I57575
sS'GACGGA'
p2138
I9615
sS'CTTGTA'
p2139
I21390
sS'GACGGC'
p2140
I10004
sS'CTTGTC'
p2141
I27558
sS'CAAAGA'
p2142
I48454
sS'GNCCGC'
p2143
I1
sS'CCATAG'
p2144
I16544
sS'GGTGAA'
p2145
I32214
sS'GCCCTA'
p2146
I18168
sS'GCGTCT'
p2147
I10642
sS'GACTGT'
p2148
I26813
sS'GGTGAG'
p2149
I42092
sS'GGAATG'
p2150
I34414
sS'AGCCCT'
p2151
I45140
sS'GGCTAA'
p2152
I21356
sS'GGAATC'
p2153
I23016
sS'GGAATA'
p2154
I20843
sS'GCGTCA'
p2155
I7737
sS'GGGGTG'
p2156
I47051
sS'GGTGAT'
p2157
I25232
sS'GCGTCG'
p2158
I5773
sS'CGTCCG'
p2159
I6550
sS'GGAATT'
p2160
I29764
sS'CGTCCC'
p2161
I15178
sS'GGCCGC'
p2162
I30206
sS'TTTCGA'
p2163
I6244
sS'CCGTAT'
p2164
I3789
sS'GAAGTC'
p2165
I29725
sS'GAAGTA'
p2166
I25758
sS'GAAGTG'
p2167
I47159
sS'GCCGTA'
p2168
I4155
sS'CCGTAC'
p2169
I3602
sS'CCGTAA'
p2170
I4756
sS'CCGTAG'
p2171
I5459
sS'CAAAGT'
p2172
I41580
sS'CTAAAA'
p2173
I44266
sS'GAAGTT'
p2174
I34396
sS'GGCGCG'
p2175
I25148
sS'ATGCCC'
p2176
I24497
sS'TTAGTT'
p2177
I27544
sS'TATTAG'
p2178
I18661
sS'GGCGCC'
p2179
I27721
sS'TATTAA'
p2180
I29791
sS'GGCGCA'
p2181
I14543
sS'TATTAC'
p2182
I17462
sS'ACTATG'
p2183
I18385
sS'CCTACA'
p2184
I22058
sS'TTTAAG'
p2185
I39880
sS'ACTATC'
p2186
I12096
sS'TTTAAA'
p2187
I84581
sS'ACTATA'
p2188
I15359
sS'TTTAAC'
p2189
I30301
sS'TATTAT'
p2190
I29165
sS'TTAGTG'
p2191
I22512
sS'GGCGCT'
p2192
I18177
sS'TTAGTC'
p2193
I18000
sS'ATGCCT'
p2194
I33101
sS'TTAGTA'
p2195
I20778
sS'TTTAAT'
p2196
I44083
sS'ACTATT'
p2197
I21886
sS'GGGCAT'
p2198
I24503
sS'AAAGAC'
p2199
I37852
sS'TTCTAG'
p2200
I32442
sS'TTTCCA'
p2201
I59038
sS'TTTCCC'
p2202
I62609
sS'GTACGT'
p2203
I4252
sS'GTTTGT'
p2204
I36587
sS'TTTCCT'
p2205
I84057
sS'GGGCAG'
p2206
I63340
sS'CCTGGA'
p2207
I51041
sS'GGGCAA'
p2208
I32214
sS'GGGCAC'
p2209
I29876
sS'GTACGG'
p2210
I3603
sS'GTTTGA'
p2211
I29839
sS'GTTTGG'
p2212
I31708
sS'GTACGA'
p2213
I2528
sS'CCGCTC'
p2214
I18540
sS'GCATGT'
p2215
I28003
sS'CCGCTA'
p2216
I5666
sS'CCGCTG'
p2217
I20447
sS'AGCATT'
p2218
I34402
sS'GCGCGG'
p2219
I26803
sS'GCGCGC'
p2220
I27883
sS'GCGCGA'
p2221
I8529
sS'GCATGG'
p2222
I27286
sS'TGGATC'
p2223
I18190
sS'GCATGC'
p2224
I24168
sS'CCGCTT'
p2225
I12038
sS'GCATGA'
p2226
I26447
sS'GTCGAC'
p2227
I2716
sS'GTCGAA'
p2228
I3463
sS'GTCGAG'
p2229
I5444
sS'CGTGGC'
p2230
I16352
sS'GAGCTA'
p2231
I20925
sS'TGCGCT'
p2232
I10166
sS'GAGCTC'
p2233
I34220
sS'ATTGAT'
p2234
I18644
sS'TGTCCT'
p2235
I39465
sS'AGTACA'
p2236
I22336
sS'AAACGC'
p2237
I9368
sS'GTAACA'
p2238
I21988
sS'CACGCG'
p2239
I8708
sS'AAACGG'
p2240
I10736
sS'ATTGAA'
p2241
I28031
sS'TGCGCG'
p2242
I11428
sS'TGTCCA'
p2243
I29592
sS'TGTCCG'
p2244
I7601
sS'TGCGCC'
p2245
I14549
sS'ATTGAG'
p2246
I23441
sS'TGCGCA'
p2247
I11295
sS'GTAGTG'
p2248
I16659
sS'AAACGT'
p2249
I10844
sS'NNNNNT'
p2250
I1
sS'TGGGTT'
p2251
I37203
sS'ATTTCA'
p2252
I52830
sS'ATTTCC'
p2253
I50023
sS'ATCAGT'
p2254
I25334
sS'ATCGGG'
p2255
I5144
sS'CATAGT'
p2256
I18387
sS'ATCGGC'
p2257
I4444
sS'CCGTGT'
p2258
I10808
sS'ATCGGA'
p2259
I4001
sS'ATTTCT'
p2260
I62027
sS'CGATCA'
p2261
I3965
sS'TGGGTC'
p2262
I27657
sS'TTTTCA'
p2263
I70213
sS'TGGGTA'
p2264
I24906
sS'CATAGG'
p2265
I16709
sS'ATCGGT'
p2266
I3621
sS'ATCAGG'
p2267
I25638
sS'CATAGC'
p2268
I17967
sS'CATAGA'
p2269
I20525
sS'GGTCAA'
p2270
I19303
sS'ACGGGT'
p2271
I6121
sS'CCTGGT'
p2272
I38449
sS'ATTCGG'
p2273
I5255
sS'GATTCT'
p2274
I30871
sS'CTTTTG'
p2275
I47548
sS'TACTAG'
p2276
I12810
sS'CTTTTC'
p2277
I61016
sS'CTTTTA'
p2278
I43769
sS'GATTCC'
p2279
I23013
sS'ACGGGG'
p2280
I14234
sS'ACGGGA'
p2281
I9961
sS'ACGGGC'
p2282
I9620
sS'GGGGGN'
p2283
I1
sS'TACTAT'
p2284
I16430
sS'CTTTTT'
p2285
I79606
sS'TCACGA'
p2286
I6994
sS'TCACGC'
p2287
I12074
sS'TCACGG'
p2288
I10256
sS'GCAGCC'
p2289
I55672
sS'CTCACC'
p2290
I42090
sS'TCTCAT'
p2291
I41073
sS'TCACGT'
p2292
I11662
sS'TTCCAC'
p2293
I37258
sS'TTCCAA'
p2294
I38333
sS'TTCCAG'
p2295
I52087
sS'CGAGGC'
p2296
I19661
sS'ACCCTT'
p2297
I26770
sS'TGAAGT'
p2298
I36370
sS'AAACAA'
p2299
I73334
sS'ATGCTT'
p2300
I31537
sS'TTCCAT'
p2301
I42381
sS'ACCCTA'
p2302
I17965
sS'ACCCTC'
p2303
I32488
sS'TGAAGG'
p2304
I39932
sS'ACCCTG'
p2305
I41124
sS'CTGACT'
p2306
I39406
sS'CCCCTT'
p2307
I43882
sS'ATCANN'
p2308
I1
sS'AGTTAT'
p2309
I22646
sS'ACATAT'
p2310
I26234
sS'CTGACG'
p2311
I9594
sS'TACAAT'
p2312
I21009
sS'CTGACA'
p2313
I37010
sS'AGTTAA'
p2314
I29218
sS'CCCCTG'
p2315
I49864
sS'AGTTAC'
p2316
I21372
sS'CCCCTC'
p2317
I59373
sS'AGTTAG'
p2318
I20546
sS'CCCCTA'
p2319
I21996
sS'ACACAG'
p2320
I56691
sS'ACACAA'
p2321
I39205
sS'ACACAC'
p2322
I79440
sS'AATGTT'
p2323
I38791
sS'CTGCAG'
p2324
I72061
sS'CATGGG'
p2325
I31256
sS'CATGGA'
p2326
I28591
sS'CATGGC'
p2327
I30811
sS'AATGTC'
p2328
I27969
sS'ACACAT'
p2329
I40259
sS'AATGTA'
p2330
I30022
sS'AATGTG'
p2331
I39896
sS'GCACAC'
p2332
I31472
sS'CTGCAT'
p2333
I35533
sS'GCACAG'
p2334
I45532
sS'ACATTT'
p2335
I57555
sS'ATGTTC'
p2336
I25733
sS'CGAGAT'
p2337
I7826
sS'GTTCGT'
p2338
I4557
sS'CACAAT'
p2339
I28217
sS'ACATTG'
p2340
I24410
sS'GTACCA'
p2341
I14252
sS'ACGCTC'
p2342
I8416
sS'ACATTC'
p2343
I30021
sS'ATTACA'
p2344
I33517
sS'ATGCTC'
p2345
I23464
sS'ATTACC'
p2346
I17077
sS'CGAGAC'
p2347
I11390
sS'CGAGAA'
p2348
I10571
sS'AAGTCT'
p2349
I32792
sS'ATGCTA'
p2350
I20481
sS'GGACAT'
p2351
I21567
sS'CAGCGT'
p2352
I12583
sS'NNNNCC'
p2353
I1
sS'GCTATA'
p2354
I12705
sS'GCTATC'
p2355
I10635
sS'ACGCCT'
p2356
I12718
sS'CACTGG'
p2357
I41365
sS'AAGTCA'
p2358
I40502
sS'GCTATG'
p2359
I17969
sS'AAGTCC'
p2360
I28896
sS'GGACAG'
p2361
I39538
sS'GGACAC'
p2362
I26389
sS'GGACAA'
p2363
I24597
sS'CTAATT'
p2364
I29001
sS'AGGGTT'
p2365
I30887
sS'GAGGCG'
p2366
I28413
sS'TGTTGG'
p2367
I32534
sS'GAGGCA'
p2368
I50453
sS'TGTTGA'
p2369
I30307
sS'GAGGCC'
p2370
I51265
sS'TGTTGC'
p2371
I29590
sS'TCCAAG'
p2372
I33021
sS'ACTCGA'
p2373
I5575
sS'TAAAAT'
p2374
I61179
sS'ACTCGC'
p2375
I7506
sS'ACTCGG'
p2376
I10825
sS'TGTTGT'
p2377
I34638
sS'GAGGCT'
p2378
I53318
sS'AGCGCC'
p2379
I18173
sS'AGGGTG'
p2380
I40822
sS'AGGGTA'
p2381
I20377
sS'AGCGCG'
p2382
I12764
sS'AGGGTC'
p2383
I26265
sS'TAAAAG'
p2384
I43834
sS'ACTCGT'
p2385
I5146
sS'TAAAAC'
p2386
I39168
sS'TAAAAA'
p2387
I80478
sS'CTACTC'
p2388
I22195
sS'TAGGGA'
p2389
I25143
sS'CTACTA'
p2390
I16605
sS'AGCTGA'
p2391
I46620
sS'ACGTTG'
p2392
I6762
sS'AGCTGG'
p2393
I58648
sS'TAGGGG'
p2394
I22006
sS'AGTGCG'
p2395
I8465
sS'AGTGCA'
p2396
I33622
sS'AGAGTT'
p2397
I35715
sS'AGTGCC'
p2398
I29197
sS'AAAACC'
p2399
I47541
sS'TTCGTG'
p2400
I7903
sS'TAGGGT'
p2401
I17971
sS'GCATAG'
p2402
I14908
sS'AGCTGT'
p2403
I44222
sS'CTACTT'
p2404
I27735
sS'AGTGCT'
p2405
I39672
sS'CGTTAC'
p2406
I4034
sS'AGAGTA'
p2407
I23705
sS'AGAGTG'
p2408
I39518
sS'TTCGTA'
p2409
I4445
sS'GTTAAA'
p2410
I30297
sS'CTAATA'
p2411
I18640
sS'GTTAAC'
p2412
I15515
sS'GTCTGT'
p2413
I34701
sS'CCTGGG'
p2414
I83878
sS'GTTAAG'
p2415
I20714
sS'AGCCCG'
p2416
I18564
sS'TTCGTC'
p2417
I5546
sS'GCACCC'
p2418
I28109
sS'GTCTGG'
p2419
I33747
sS'ATCTGA'
p2420
I32951
sS'GTCTGC'
p2421
I27423
sS'GTTAAT'
p2422
I20717
sS'GTCTGA'
p2423
I28470
sS'GCGGNC'
p2424
I1
sS'TCTAAA'
p2425
I36072
sS'CCGGTC'
p2426
I9046
sS'GGAAGG'
p2427
I66748
sS'CCACAT'
p2428
I38058
sS'GGAAGC'
p2429
I48099
sS'GCACCG'
p2430
I12326
sS'GGAAGA'
p2431
I56921
sS'TGTATT'
p2432
I36445
sS'CAATGA'
p2433
I28703
sS'GCGTTC'
p2434
I7854
sS'CAATGC'
p2435
I20257
sS'GCGTTG'
p2436
I6839
sS'CAATGG'
p2437
I24126
sS'CCACAG'
p2438
I61348
sS'GGAAGT'
p2439
I50026
sS'CCACAC'
p2440
I43089
sS'CCACAA'
p2441
I39221
sS'ATTTGT'
p2442
I42201
sS'TCCTCG'
p2443
I13409
sS'TGTATG'
p2444
I25827
sS'TCCTCA'
p2445
I49298
sS'GCGTTT'
p2446
I9365
sS'TCCTCC'
p2447
I70957
sS'TGTATC'
p2448
I17974
sS'GTGAAT'
p2449
I27733
sS'TAACCG'
p2450
I4296
sS'TCATAG'
p2451
I20888
sS'TCAGGG'
p2452
I43518
sS'TCATAA'
p2453
I26468
sS'TAACCC'
p2454
I17408
sS'TCATAC'
p2455
I16549
sS'TAACCA'
p2456
I26601
sS'ACCGCT'
p2457
I8109
sS'TCGCGA'
p2458
I3884
sS'TGCATG'
p2459
I34727
sS'TCAGGA'
p2460
I47054
sS'TTCGTT'
p2461
I8734
sS'TCATAT'
p2462
I24119
sS'TAACCT'
p2463
I22297
sS'CGTTAT'
p2464
I4373
sS'GTGAAA'
p2465
I50804
sS'GTGAAC'
p2466
I22111
sS'AACCCG'
p2467
I10460
sS'ACCGCG'
p2468
I9209
sS'ACCGCA'
p2469
I9951
sS'AACGAG'
p2470
I7594
sS'ACCGCC'
p2471
I14166
sS'AGTTCC'
p2472
I34036
sS'CCGCCT'
p2473
I29622
sS'AGGCTT'
p2474
I37954
sS'CCTTCT'
p2475
I55653
sS'CGAGCT'
p2476
I9894
sS'GTTGCA'
p2477
I23664
sS'TGTCGC'
p2478
I8149
sS'GATCAA'
p2479
I16083
sS'GTGCCG'
p2480
I9906
sS'GTGCCA'
p2481
I30391
sS'GTTGCG'
p2482
I5416
sS'GTGCCC'
p2483
I29876
sS'CCTTCA'
p2484
I39907
sS'AGGCTA'
p2485
I21804
sS'CCTTCC'
p2486
I66692
sS'AGGCTC'
p2487
I37685
sS'CCGCCC'
p2488
I53207
sS'TGTCGA'
p2489
I3577
sS'CCTTCG'
p2490
I10593
sS'AGGCTG'
p2491
I76896
sS'GTGCCT'
p2492
I35202
sS'GGCGAA'
p2493
I8204
sS'GTTGCT'
p2494
I28225
sS'NNNGCG'
p2495
I1
sS'GGATAT'
p2496
I15323
sS'TCGGGT'
p2497
I7890
sS'ATTTGA'
p2498
I38745
sS'GCAGTT'
p2499
I32475
sS'GAAGCT'
p2500
I38343
sS'GGATAA'
p2501
I17670
sS'ATGCCA'
p2502
I30588
sS'GGATAC'
p2503
I10988
sS'NNNNNG'
p2504
I11
sS'TCGGGG'
p2505
I15903
sS'GGATAG'
p2506
I13052
sS'GAAGCG'
p2507
I13941
sS'GCAGTG'
p2508
I52214
sS'GAAGCC'
p2509
I40677
sS'GCAGTA'
p2510
I20633
sS'GAAGCA'
p2511
I44152
sS'GCAGTC'
p2512
I26028
sS'CGCCCG'
p2513
I23494
sS'GAGAGA'
p2514
I68023
sS'GAGAGG'
p2515
I61021
sS'CGCCCA'
p2516
I21951
sS'AGTTTG'
p2517
I36614
sS'CTATAG'
p2518
I13173
sS'NNNNNN'
p2519
I2234
sS'GCATTC'
p2520
I23477
sS'CTATAA'
p2521
I19805
sS'CTCGCA'
p2522
I8808
sS'CGCCCT'
p2523
I21482
sS'GAGAGT'
p2524
I30506
sS'GTCTCG'
p2525
I11395
sS'CTATAT'
p2526
I15979
sS'AGTTTC'
p2527
I51580
sS'GCCGGG'
p2528
I35488
sS'AGCATC'
p2529
I26496
sS'TACCCG'
p2530
I5648
sS'GCCGGC'
p2531
I24487
sS'CATGTT'
p2532
I34996
sS'GCCGGA'
p2533
I14652
sS'AGATCT'
p2534
I27748
sS'AACTGC'
p2535
I32472
sS'GTCCCG'
p2536
I14774
sS'GCCACT'
p2537
I38709
sS'CATGTA'
p2538
I23693
sS'CATGTC'
p2539
I24591
sS'GCCGGT'
p2540
I9485
sS'CATGTG'
p2541
I40919
sS'ATTAAC'
p2542
I20706
sS'GTTGCC'
p2543
I23913
sS'TCACTT'
p2544
I52229
sS'GGCCTC'
p2545
I51287
sS'NNGCGC'
p2546
I1
sS'GGCCTA'
p2547
I16976
sS'TTTGTT'
p2548
I71529
sS'AATCGG'
p2549
I5107
sS'AATCGC'
p2550
I6018
sS'AATCGA'
p2551
I4798
sS'GTTCAG'
p2552
I30168
sS'GGCCTT'
p2553
I34243
sS'TCACTA'
p2554
I22888
sS'TCACTC'
p2555
I36328
sS'AATCGT'
p2556
I4832
sS'TCGAGG'
p2557
I8795
sS'AGCCGA'
p2558
I12033
sS'CCGCCG'
p2559
I29668
sS'AGCCGC'
p2560
I19439
sS'TAATTG'
p2561
I21903
sS'AAAAAT'
p2562
I90093
sS'AGCCGG'
p2563
I19745
sS'GTTTTT'
p2564
I61215
sS'TGGTGA'
p2565
I40238
sS'GATGGA'
p2566
I29485
sS'TGGTGC'
p2567
I28673
sS'GGGCTA'
p2568
I17131
sS'GGGCTG'
p2569
I63398
sS'TGGTGG'
p2570
I50349
sS'GATGGG'
p2571
I33704
sS'AAAAAA'
p2572
I233620
sS'CAGCTG'
p2573
I68424
sS'GTTTTA'
p2574
I39126
sS'GGGCTC'
p2575
I41322
sS'GTTTTG'
p2576
I48009
sS'TTCCCG'
p2577
I16307
sS'AAAAAG'
p2578
I79692
sS'TGACAG'
p2579
I41559
sS'CCAAGG'
p2580
I41936
sS'ACGTAT'
p2581
I5115
sS'TCTCAG'
p2582
I58977
sS'TCTCAA'
p2583
I44349
sS'TGGTGT'
p2584
I33489
sS'GGGCTT'
p2585
I36443
sS'ATTCGT'
p2586
I5259
sS'AGAACT'
p2587
I39757
sS'GCATTA'
p2588
I17632
sS'CCGCCA'
p2589
I19675
sS'TACCAT'
p2590
I19902
sS'AGATAG'
p2591
I20774
sS'CACTGT'
p2592
I43504
sS'ACCCGA'
p2593
I7889
sS'ATGTCT'
p2594
I31878
sS'ACCCGC'
p2595
I13959
sS'AGATAA'
p2596
I32417
sS'TACCAC'
p2597
I21152
sS'AGAACG'
p2598
I9383
sS'TACCAA'
p2599
I20421
sS'AGAACA'
p2600
I46311
sS'TACCAG'
p2601
I21977
sS'AGAACC'
p2602
I30192
sS'ATGTCA'
p2603
I31180
sS'ACCCGT'
p2604
I6125
sS'AGATAT'
p2605
I22621
sS'ATCACG'
p2606
I7785
sS'CCTATA'
p2607
I13311
sS'CACTGC'
p2608
I52214
sS'CCTATC'
p2609
I13997
sS'CACTGA'
p2610
I42773
sS'TAGGTT'
p2611
I20056
sS'GTTTAC'
p2612
I19611
sS'AATTAT'
p2613
I32917
sS'CTGTTG'
p2614
I36454
sS'TGCTAT'
p2615
I23698
sS'CTGTTC'
p2616
I37308
sS'CGGGTT'
p2617
I10445
sS'CTGTTA'
p2618
I27726
sS'AATTAC'
p2619
I24726
sS'AATTAA'
p2620
I39551
sS'TAGGTA'
p2621
I16376
sS'TAGGTC'
p2622
I14320
sS'CGGGTC'
p2623
I12110
sS'CTGTTT'
p2624
I60589
sS'CGGGTA'
p2625
I5648
sS'CGGGTG'
p2626
I15846
sS'GGGTAC'
p2627
I12053
sS'CTTCGG'
p2628
I10551
sS'AAGTAA'
p2629
I36041
sS'CATTAC'
p2630
I18178
sS'TTAGGG'
p2631
I23516
sS'ATATAT'
p2632
I32573
sS'AGCAAC'
p2633
I28233
sS'TTAGGC'
p2634
I17762
sS'AAAGCT'
p2635
I42211
sS'TTAGGA'
p2636
I26794
sS'AAAGCA'
p2637
I60747
sS'ATATAG'
p2638
I15982
sS'TTAGGT'
p2639
I20979
sS'ATATAA'
p2640
I26730
sS'AGCAAT'
p2641
I29749
sS'ATATAC'
p2642
I17363
sS'ATAGCA'
p2643
I23694
sS'ATAGCC'
p2644
I14570
sS'TACTTG'
p2645
I22716
sS'ATAGCG'
p2646
I3599
sS'CAGCAT'
p2647
I37344
sS'CAGCGC'
p2648
I21092
sS'ACGGCT'
p2649
I8789
sS'ATAGCT'
p2650
I20858
sS'TACTTT'
p2651
I38232
sS'CATGCG'
p2652
I8390
sS'GTTTTC'
p2653
I47979
sS'CGAGTT'
p2654
I6893
sS'TCCAAT'
p2655
I20441
sS'CGTACT'
p2656
I3695
sS'CAGCGG'
p2657
I20443
sS'TATGCT'
p2658
I20205
sS'CTTAAG'
p2659
I23960
sS'ACATAA'
p2660
I28388
sS'CTTAAA'
p2661
I39888
sS'AGGGGT'
p2662
I30767
sS'CTTAAC'
p2663
I20710
sS'CGTACA'
p2664
I4242
sS'CGTACC'
p2665
I3692
sS'CGAGTA'
p2666
I4714
sS'CGTACG'
p2667
I1677
sS'AGGGGA'
p2668
I56694
sS'CTTAAT'
p2669
I23965
sS'AGGGGC'
p2670
I46081
sS'TATGCA'
p2671
I23492
sS'AGGGGG'
p2672
I41603
sS'NNNNNA'
p2673
I1
sS'CGTTTG'
p2674
I8912
sS'CGACTT'
p2675
I6436
sS'TGAATT'
p2676
I38353
sS'TTGTAA'
p2677
I30964
sS'TTGTAC'
p2678
I16727
sS'GTACCT'
p2679
I16410
sS'CGTTTA'
p2680
I6438
sS'TGAATC'
p2681
I25604
sS'ACAACA'
p2682
I34636
sS'TGAATA'
p2683
I30568
sS'CGACTC'
p2684
I7751
sS'TGAATG'
p2685
I40677
sS'AAGTAT'
p2686
I24626
sS'CGGCTG'
p2687
I21096
sS'TTGTAT'
p2688
I27597
sS'ATCGTG'
p2689
I6112
sS'GCTTCG'
p2690
I9045
sS'ATCGTC'
p2691
I3884
sS'GCTTCC'
p2692
I48081
sS'TGGGAG'
p2693
I66227
sS'TGGGAA'
p2694
I56184
sS'TGGGAC'
p2695
I31625
sS'GCTTCT'
p2696
I45941
sS'ATCGTT'
p2697
I4738
sS'ACAACG'
p2698
I6112
sS'TGGGAT'
p2699
I34362
sS'CTAGCC'
p2700
I18591
sS'TNNNNN'
p2701
I1
sS'CTAGCA'
p2702
I20966
sS'CTAGCG'
p2703
I5633
sS'CGGTAG'
p2704
I5638
sS'ACTTAG'
p2705
I21944
sS'ACTTAA'
p2706
I29463
sS'CGGTAC'
p2707
I3596
sS'ACTTAC'
p2708
I20293
sS'CGGTAA'
p2709
I4895
sS'GACCAG'
p2710
I31991
sS'GACCAC'
p2711
I24688
sS'CTAGCT'
p2712
I21670
sS'TTCGAG'
p2713
I8270
sS'TACACC'
p2714
I14439
sS'CGGTAT'
p2715
I3287
sS'TACACA'
p2716
I33612
sS'TACACG'
p2717
I5606
sS'GCGAGA'
p2718
I12649
sS'GAGAGC'
p2719
I36919
sS'GCGAGC'
p2720
I13242
sS'GGCCGT'
p2721
I10798
sS'GCGAGG'
p2722
I19474
sS'CAGCCG'
p2723
I21098
sS'CAGCCA'
p2724
I59381
sS'CAGCCC'
p2725
I63382
sS'GCTGAA'
p2726
I38799
sS'GCGAGT'
p2727
I7505
sS'GAACTG'
p2728
I37916
sS'GAACTC'
p2729
I27851
sS'GAACTA'
p2730
I19317
sS'GGACTT'
p2731
I28902
sS'CACCTA'
p2732
I22256
sS'AACTAT'
p2733
I20396
sS'CACCTC'
p2734
I46800
sS'CACCTG'
p2735
I52822
sS'TGATCC'
p2736
I20385
sS'AACACT'
p2737
I34214
sS'TGATCA'
p2738
I23704
sS'TGATCG'
p2739
I3959
sS'CACCTN'
p2740
I1
sS'AACTAG'
p2741
I20506
sS'GGACTG'
p2742
I31235
sS'CACCTT'
p2743
I35606
sS'AACTAC'
p2744
I19386
sS'GGACTC'
p2745
I25957
sS'AACGAT'
p2746
I4742
sS'AACACG'
p2747
I9646
sS'AACACA'
p2748
I48028
sS'CGTCTC'
p2749
I14416
sS'AACACC'
p2750
I26658
sS'TGATCT'
p2751
I29193
sS'CGTCAA'
p2752
I4595
sS'CTATAC'
p2753
I10424
sS'CAACAG'
p2754
I36461
sS'GACAGT'
p2755
I27119
sS'CAACAA'
p2756
I33841
sS'CCAGCC'
p2757
I74051
sS'CAACAC'
p2758
I27222
sS'GCTGAT'
p2759
I25380
sS'ACGCAA'
p2760
I6025
sS'GACAGG'
p2761
I40358
sS'CAACAT'
p2762
I29527
sS'GACAGC'
p2763
I31982
sS'GACAGA'
p2764
I46777
sS'GTATTA'
p2765
I16871
sS'GTATTC'
p2766
I15293
sS'GTAAGT'
p2767
I20292
sS'CCAGCG'
p2768
I19770
sS'GTATTG'
p2769
I14597
sS'GGTGGC'
p2770
I44837
sS'TCCCCT'
p2771
I56683
sS'GGTGGA'
p2772
I38553
sS'TATCTT'
p2773
I27809
sS'GGTGGG'
p2774
I61276
sS'NNNGAA'
p2775
I7
sS'AGAGGC'
p2776
I50147
sS'GTAAGA'
p2777
I23337
sS'AGAGGA'
p2778
I63475
sS'GTAAGC'
p2779
I14528
sS'GTATTT'
p2780
I39975
sS'GTAAGG'
p2781
I18138
sS'TATCTA'
p2782
I17646
sS'TATCTC'
p2783
I23000
sS'TCCCCC'
p2784
I44514
sS'GGTGGT'
p2785
I34133
sS'TCCCCA'
p2786
I63571
sS'GTCGCG'
p2787
I5990
sS'GTCGCA'
p2788
I5090
sS'GTCGCC'
p2789
I11651
sS'TCGGTC'
p2790
I6347
sS'TCGGTA'
p2791
I3822
sS'CTCGCG'
p2792
I10668
sS'TCGGTG'
p2793
I8704
sS'GTCGCT'
p2794
I7622
sS'CCGTCG'
p2795
I5262
sS'CCGTCA'
p2796
I7810
sS'TCGGTT'
p2797
I7343
sS'GGCTGT'
p2798
I41703
sS'CGCGTG'
p2799
I8704
sS'GCATTT'
p2800
I44070
sS'CGCGTC'
p2801
I8419
sS'CGCGTA'
p2802
I2160
sS'ATGCAG'
p2803
I35530
sS'CCACTA'
p2804
I21202
sS'CCACTC'
p2805
I36651
sS'CGCGTT'
p2806
I4580
sS'GGCTGG'
p2807
I74031
sS'GGCTGA'
p2808
I49338
sS'GGCTGC'
p2809
I55671
sS'ATGCAT'
p2810
I27107
sS'TTTAGA'
p2811
I36061
sS'ATGACG'
p2812
I6301
sS'GGAGTT'
p2813
I34720
sS'ATGACA'
p2814
I33419
sS'ATGACC'
p2815
I20415
sS'CGGGCC'
p2816
I24656
sS'GGGCCT'
p2817
I42781
sS'ATGACT'
p2818
I34122
sS'GGAGTA'
p2819
I17482
sS'GGAGTC'
p2820
I28736
sS'GGAGTG'
p2821
I39916
sS'GGGCCG'
p2822
I28226
sS'GGGCCC'
p2823
I41995
sS'GGGCCA'
p2824
I38422
sS'GGCAAG'
p2825
I33520
sS'ACGAGT'
p2826
I5145
sS'TTCNNN'
p2827
I7
sS'GCGCAA'
p2828
I6414
sS'GCGCAC'
p2829
I12299
sS'AGGCCG'
p2830
I21033
sS'ACGAGG'
p2831
I10979
sS'ACGAGC'
p2832
I6171
sS'ACGAGA'
p2833
I7772
sS'CTGATG'
p2834
I32894
sS'AGGCCT'
p2835
I44415
sS'AGACGG'
p2836
I13028
sS'GGGTTG'
p2837
I27072
sS'GACTAC'
p2838
I13694
sS'GGGTTA'
p2839
I17397
sS'CTCGGG'
p2840
I20255
sS'GGGTTC'
p2841
I25810
sS'NNNCCC'
p2842
I1
sS'TTTGAT'
p2843
I31824
sS'TGAACT'
p2844
I34961
sS'ATTGCT'
p2845
I29753
sS'GGGTTT'
p2846
I39633
sS'TACAAG'
p2847
I21420
sS'AGATCC'
p2848
I20347
sS'TGCGAG'
p2849
I8810
sS'ATTGCC'
p2850
I19463
sS'TTTGAG'
p2851
I51635
sS'ATTGCA'
p2852
I26184
sS'GACTAG'
p2853
I14750
sS'AACGGG'
p2854
I8633
sS'TTTGAC'
p2855
I26276
sS'TTTGAA'
p2856
I54810
sS'CGGGCT'
p2857
I18564
sS'TGACGT'
p2858
I9272
sS'CTCGTC'
p2859
I8142
sS'CCCTGG'
p2860
I61749
sS'CCCTGA'
p2861
I43536
sS'AAGCTT'
p2862
I32182
sS'CCCTGC'
p2863
I58877
sS'GTCTCA'
p2864
I38796
sS'GCAGCA'
p2865
I49858
sS'CCCTGT'
p2866
I42065
sS'AAGCTC'
p2867
I30583
sS'GATATA'
p2868
I13257
sS'AAGCTA'
p2869
I23388
sS'GATATG'
p2870
I15752
sS'AAGCTG'
p2871
I45786
sS'TGACGC'
p2872
I7740
sS'CTCGGA'
p2873
I11084
sS'TACTCT'
p2874
I23730
sS'CATCGT'
p2875
I6115
sS'NGTCAC'
p2876
I1
sS'CCAGTA'
p2877
I20922
sS'CCAGTC'
p2878
I31523
sS'TACGAT'
p2879
I3126
sS'CCAGTG'
p2880
I41360
sS'TACTCG'
p2881
I4713
sS'CATCGA'
p2882
I4572
sS'CATCGC'
p2883
I7065
sS'TACTCC'
p2884
I17487
sS'NGAATT'
p2885
I8
sS'TACTCA'
p2886
I26570
sS'CATCGG'
p2887
I5198
sS'CAGGGG'
p2888
I49878
sS'CCAGTT'
p2889
I33723
sS'CAGGGC'
p2890
I56742
sS'AATCTG'
p2891
I33111
sS'CGGACT'
p2892
I7379
sS'AAAGTG'
p2893
I51581
sS'GCCATT'
p2894
I27477
sS'AGTCGA'
p2895
I4328
sS'AATCTA'
p2896
I21377
sS'ATCCAA'
p2897
I21934
sS'TCACAC'
p2898
I38431
sS'CCCATA'
p2899
I17511
sS'TCACAA'
p2900
I35443
sS'TCACAG'
p2901
I51777
sS'GCCATA'
p2902
I14713
sS'CGGACG'
p2903
I6550
sS'GCCATC'
p2904
I24945
sS'CGGACA'
p2905
I7605
sS'CGGACC'
p2906
I8834
sS'GCCATG'
p2907
I30814
sS'TTTTAA'
p2908
I83430
sS'CGCNNN'
p2909
I1
sS'CTCGGC'
p2910
I21945
sS'TCACAT'
p2911
I37283
sS'ACATCA'
p2912
I29977
sS'CACGGA'
p2913
I10973
sS'ATTAAA'
p2914
I44076
sS'ATTAAG'
p2915
I23958
sS'CTTACA'
p2916
I25341
sS'GGCCTG'
p2917
I52479
sS'TCCACG'
p2918
I11433
sS'GTGCAG'
p2919
I41918
sS'ATTAAT'
p2920
I28732
sS'AAGCAC'
p2921
I32745
sS'GAACCA'
p2922
I29366
sS'GGTATG'
p2923
I14810
sS'GGTATA'
p2924
I11404
sS'GGTATC'
p2925
I11384
sS'GAACCG'
p2926
I8443
sS'ACGAAT'
p2927
I5259
sS'GGTATT'
p2928
I19006
sS'CTGAAC'
p2929
I30179
sS'GGAACC'
p2930
I26947
sS'CTGAAG'
p2931
I48551
sS'NNNNGC'
p2932
I1
sS'CCCGAA'
p2933
I9612
sS'GGCGAG'
p2934
I17881
sS'CATTGC'
p2935
I24573
sS'CCCGGC'
p2936
I35516
sS'CATTGA'
p2937
I21997
sS'CTAGTT'
p2938
I20497
sS'CATTGG'
p2939
I21665
sS'TCAACT'
p2940
I25995
sS'ACCATC'
p2941
I23176
sS'ACACCG'
p2942
I8370
sS'CTGCCA'
p2943
I51831
sS'CTGCCC'
p2944
I63329
sS'ACACCC'
p2945
I30783
sS'ACACCA'
p2946
I33497
sS'CTGCCG'
p2947
I20031
sS'CTAGTG'
p2948
I19622
sS'TCAACC'
p2949
I21105
sS'TCAACA'
p2950
I30273
sS'CTAGTC'
p2951
I14753
sS'TCAACG'
p2952
I4979
sS'CTAGTA'
p2953
I12778
sS'CATTGT'
p2954
I29281
sS'CCCGGG'
p2955
I36393
sS'GTAATG'
p2956
I18170
sS'ACACCT'
p2957
I32382
sS'CTGCCT'
p2958
I72616
sS'CCTCGT'
p2959
I10980
sS'TATGAA'
p2960
I29898
sS'GAGGAC'
p2961
I30236
sS'AGACTG'
p2962
I37908
sS'TCACTG'
p2963
I51452
sS'AGACTA'
p2964
I19128
sS'CCTCGG'
p2965
I22552
sS'CCTCGC'
p2966
I19469
sS'CCCGAC'
p2967
I11422
sS'CCTCGA'
p2968
I8800
sS'CGAGGA'
p2969
I13409
sS'AGACTT'
p2970
I32800
sS'NNNNAG'
p2971
I1
sS'CGAGGG'
p2972
I17665
sS'CACCGT'
p2973
I10404
sS'ACTTTA'
p2974
I30294
sS'ACTTTG'
p2975
I41525
sS'GACCTG'
p2976
I30423
sS'GACCTA'
p2977
I14325
sS'GACCTC'
p2978
I29540
sS'CACCGG'
p2979
I11774
sS'ACGCTG'
p2980
I12587
sS'CACCGA'
p2981
I8709
sS'ACTTTT'
p2982
I50137
sS'GGACGA'
p2983
I7249
sS'CGCCCC'
p2984
I44666
sS'GGACGG'
p2985
I13141
sS'GCATAA'
p2986
I17566
sS'CACAGC'
p2987
I55063
sS'CTTATC'
p2988
I17379
sS'CACAGA'
p2989
I62170
sS'CTTATA'
p2990
I16706
sS'CACAGG'
p2991
I53640
sS'TTAACT'
p2992
I29204
sS'ACTCAT'
p2993
I30579
sS'GAGGAG'
p2994
I68282
sS'GACGTA'
p2995
I3782
sS'CGTATC'
p2996
I3455
sS'GCATAC'
p2997
I11152
sS'TAAACT'
p2998
I29921
sS'GAGGAA'
p2999
I68310
sS'AGCGAT'
p3000
I7028
sS'TTAACA'
p3001
I31589
sS'ACTCAC'
p3002
I32481
sS'TTAACC'
p3003
I21361
sS'ACTCAA'
p3004
I30351
sS'ACTCAG'
p3005
I43995
sS'CTTATT'
p3006
I31337
sS'CACAGT'
p3007
I44531
sS'AGCGAC'
p3008
I7627
sS'TAAACA'
p3009
I39878
sS'AGCGAA'
p3010
I8263
sS'GAGGAT'
p3011
I30438
sS'GACGTT'
p3012
I6423
sS'CCACCG'
p3013
I18037
sS'TAAACG'
p3014
I6436
sS'CTGTGG'
p3015
I61329
sS'GTATGT'
p3016
I22000
sS'AGTTCA'
p3017
I34938
sS'TACTTA'
p3018
I22005
sS'AGTTCG'
p3019
I6394
sS'CTGTGA'
p3020
I51780
sS'CGGGGT'
p3021
I16669
sS'TAGGAC'
p3022
I15130
sS'GCAAAG'
p3023
I40698
sS'TAGGAA'
p3024
I33011
sS'GCAAAA'
p3025
I43175
sS'TAGGAG'
p3026
I27004
sS'GCAAAC'
p3027
I26570
sS'CGGGGC'
p3028
I39611
sS'GTATGG'
p3029
I13027
sS'CTGTGT'
p3030
I56695
sS'CGGGGG'
p3031
I26600
sS'GTATGC'
p3032
I11141
sS'AGTTCT'
p3033
I39759
sS'GCAAAT'
p3034
I34679
sS'TAGGAT'
p3035
I17464
sS'TAATTA'
p3036
I29037
sS'TTCAAT'
p3037
I28036
sS'TGCTTT'
p3038
I60766
sS'ACAGGA'
p3039
I48861
sS'TGGGNC'
p3040
I1
sS'GTAATT'
p3041
I24717
sS'GTTACC'
p3042
I15596
sS'GTTACA'
p3043
I21540
sS'TAATTC'
p3044
I24684
sS'TATCGA'
p3045
I2566
sS'TATCGC'
p3046
I2880
sS'TATAGT'
p3047
I15375
sS'GTCTAA'
p3048
I15466
sS'CAGGAC'
p3049
I35563
sS'GTCTAC'
p3050
I12436
sS'TGCTTC'
p3051
I44154
sS'TTCAAA'
p3052
I54790
sS'TTCAAC'
p3053
I25686
sS'TGCTTG'
p3054
I35843
sS'TATAGC'
p3055
I12714
sS'TATCGT'
p3056
I3001
sS'TATAGA'
p3057
I18030
sS'AGCTCA'
p3058
I41913
sS'TATAGG'
p3059
I13322
sS'GTTACT'
p3060
I21297
sS'GGAAAA'
p3061
I62755
sS'AACCTT'
p3062
I28079
sS'GATGGC'
p3063
I24935
sS'GCTCTG'
p3064
I57173
sS'CCACGT'
p3065
I15117
sS'CAATAT'
p3066
I20161
sS'AGGACC'
p3067
I26062
sS'GAATGG'
p3068
I34330
sS'GGCTTT'
p3069
I42133
sS'ACTACT'
p3070
I18657
sS'GAATGC'
p3071
I23456
sS'CCACGA'
p3072
I9705
sS'CAATAC'
p3073
I14612
sS'CCACGC'
p3074
I19115
sS'CAATAA'
p3075
I26975
sS'GTTCCG'
p3076
I8235
sS'AACCTC'
p3077
I34005
sS'CCACGG'
p3078
I15590
sS'GCTCTT'
p3079
I35819
sS'GGCTTA'
p3080
I19883
sS'ACTACC'
p3081
I14463
sS'GGCTTC'
p3082
I40665
sS'ACTACA'
p3083
I24355
sS'ACTACG'
p3084
I4619
sS'GGCTTG'
p3085
I31264
sS'TCCTAG'
p3086
I24968
sS'TAACAA'
p3087
I29209
sS'CGTTGC'
p3088
I7073
sS'TAACAC'
p3089
I20798
sS'TCCTAC'
p3090
I20448
sS'AGTCAC'
p3091
I35235
sS'TCCTAA'
p3092
I26815
sS'TAACAG'
p3093
I27766
sS'TCATCG'
p3094
I6112
sS'AAGCGT'
p3095
I7463
sS'TCATCC'
p3096
I27426
sS'AAAAAC'
p3097
I61278
sS'TCATCA'
p3098
I33094
sS'AGTCAT'
p3099
I34139
sS'TCCTAT'
p3100
I20354
sS'TAACAT'
p3101
I25803
sS'CGTTGT'
p3102
I6113
sS'TAAATA'
p3103
I44577
sS'GAGCGA'
p3104
I12083
sS'CTTTCA'
p3105
I55316
sS'CTTTCG'
p3106
I9245
sS'GCGGGT'
p3107
I13964
sS'AGCCGT'
p3108
I8785
sS'GAGCGC'
p3109
I17193
sS'GTTGAT'
p3110
I16882
sS'CGACCA'
p3111
I6007
sS'CGACCC'
p3112
I10070
sS'CGACCG'
p3113
I4582
sS'CCTTAT'
p3114
I20851
sS'GTTGAC'
p3115
I14611
sS'GTTGAA'
p3116
I25687
sS'ACTGGG'
p3117
I40877
sS'GTTGAG'
p3118
I25218
sS'CCTTAC'
p3119
I18151
sS'CCTTAA'
p3120
I24753
sS'CCTTAG'
p3121
I22594
sS'CGACCT'
p3122
I7747
sS'AATAGA'
p3123
I29893
sS'CAACTA'
p3124
I17080
sS'CAACTG'
p3125
I28639
sS'AATAGG'
p3126
I21374
sS'GATGGT'
p3127
I23190
sS'GGGGTT'
p3128
I31386
sS'ATTCNN'
p3129
I7
sS'GGATGT'
p3130
I25189
sS'AATAGT'
p3131
I21883
sS'TCTCAC'
p3132
I42540
sS'CAACTT'
p3133
I29274
sS'GGATGC'
p3134
I21140
sS'GGATGA'
p3135
I27439
sS'GGATGG'
p3136
I32636
sS'GGGGTA'
p3137
I16473
sS'TCTCCG'
p3138
I14300
sS'GAGTCC'
p3139
I25950
sS'AAACTG'
p3140
I53792
sS'TCTCCC'
p3141
I56322
sS'AAACTA'
p3142
I33522
sS'TCTCCA'
p3143
I50630
sS'AAACTC'
p3144
I38808
sS'CTATGA'
p3145
I20892
sS'AGTACG'
p3146
I3694
sS'ACGCGC'
p3147
I8532
sS'AGTACC'
p3148
I14456
sS'CTATGG'
p3149
I16532
sS'TGCCGC'
p3150
I14444
sS'CCCTTA'
p3151
I21307
sS'CCCTTC'
p3152
I50694
sS'TCTCCT'
p3153
I60605
sS'CCCTTG'
p3154
I34543
sS'AGTACT'
p3155
I19326
sS'CTATGT'
p3156
I21229
sS'GCCGAA'
p3157
I7413
sS'GTGGAG'
p3158
I44052
sS'GCCGAC'
p3159
I8353
sS'GTGGAC'
p3160
I18809
sS'GCCGAG'
p3161
I21952
sS'GTGGAA'
p3162
I37263
sS'GTGGAT'
p3163
I22190
sS'GCCGAT'
p3164
I4443
sS'CCTATT'
p3165
I21369
sS'ACCCGG'
p3166
I16124
sS'GTAGTC'
p3167
I13697
sS'AAATCG'
p3168
I6740
sS'GTAGTA'
p3169
I12361
sS'CACGCA'
p3170
I13605
sS'AAATCC'
p3171
I32823
sS'CACGCC'
p3172
I20851
sS'AAATCA'
p3173
I47139
sS'AGATAC'
p3174
I19612
sS'TCCCGA'
p3175
I10976
sS'CACGCT'
p3176
I11952
sS'AAATCT'
p3177
I41614
sS'AAAGTC'
p3178
I34495
sS'GTAGTT'
p3179
I19379
sS'ACCAGT'
p3180
I24218
sS'TGCCGT'
p3181
I8123
sS'GATGAT'
p3182
I22855
sS'GGAGCA'
p3183
I37269
sS'GGAGCC'
p3184
I45421
sS'TAAATG'
p3185
I42078
sS'CCAAAT'
p3186
I35734
sS'GGAGCG'
p3187
I20618
sS'AAAACT'
p3188
I51520
sS'GATGAC'
p3189
I22321
sS'GATGAA'
p3190
I32143
sS'GATGAG'
p3191
I32842
sS'CCAAAA'
p3192
I46674
sS'AAAACA'
p3193
I84054
sS'AAAACG'
p3194
I13301
sS'GGAGCT'
p3195
I41999
sS'CCAAAG'
p3196
I45635
sS'TCGCGG'
p3197
I8674
sS'CGGTCC'
p3198
I10399
sS'TCGCGC'
p3199
I8542
sS'GGGAGT'
p3200
I33102
sS'TACCCT'
p3201
I20395
sS'AGATCA'
p3202
I29169
sS'GCCACC'
p3203
I44853
sS'AGAAAT'
p3204
I62067
sS'CGACGG'
p3205
I5265
sS'GCCACG'
p3206
I16351
sS'AGATCG'
p3207
I6584
sS'TGCCTA'
p3208
I23990
sS'ACCAGC'
p3209
I37287
sS'TCGCGT'
p3210
I3616
sS'GTGCAA'
p3211
I23021
sS'GTCTAT'
p3212
I13864
sS'AGAAAG'
p3213
I79091
sS'TCCCTT'
p3214
I50589
sS'AGAAAC'
p3215
I57352
sS'TACCCA'
p3216
I24914
sS'AGAAAA'
p3217
I101974
sS'TACCCC'
p3218
I16476
sS'ATGTAC'
p3219
I16564
sS'ACTTCG'
p3220
I6716
sS'ATGTAA'
p3221
I30540
sS'ATGTAG'
p3222
I20018
sS'ACCAGG'
p3223
I38461
sS'ACCTAC'
p3224
I17845
sS'CCGGCA'
p3225
I13725
sS'GACGAC'
p3226
I5145
sS'ATGTCG'
p3227
I4126
sS'ATGTAT'
p3228
I26409
sS'ATTAGA'
p3229
I23450
sS'GTTCCC'
p3230
I31689
sS'AGCACT'
p3231
I39639
sS'TTAGAA'
p3232
I39012
sS'GACGAG'
p3233
I8147
sS'TTAGAC'
p3234
I15463
sS'CGGCTC'
p3235
I21023
sS'TTAGAG'
p3236
I28623
sS'CGGCTA'
p3237
I5881
sS'AGCACC'
p3238
I32035
sS'AGCACA'
p3239
I42023
sS'AGCACG'
p3240
I10486
sS'GGTCGG'
p3241
I10195
sS'CGGCTT'
p3242
I11970
sS'TTAGAT'
p3243
I20839
sS'CCAGCA'
p3244
I56499
sS'CGAAGC'
p3245
I9049
sS'AAAGAA'
p3246
I88899
sS'AAAGAG'
p3247
I60726
sS'ATATCA'
p3248
I19731
sS'GCGCTG'
p3249
I21098
sS'TTATTT'
p3250
I73554
sS'TGTGAG'
p3251
I46525
sS'TGTGAA'
p3252
I47764
sS'GGGAGG'
p3253
I97936
sS'TGTGAC'
p3254
I34718
sS'ATATCT'
p3255
I22617
sS'CCAGCT'
p3256
I58643
sS'CACGGT'
p3257
I10388
sS'AAAGAT'
p3258
I39966
sS'TGTGAT'
p3259
I34086
sS'TTATTG'
p3260
I26939
sS'TTATTA'
p3261
I34509
sS'GAAAGC'
p3262
I42104
sS'TTATTC'
p3263
I29580
sS'ACATCT'
p3264
I32721
sS'TTTTAT'
p3265
I58813
sS'GCGAAC'
p3266
I4982
sS'CTTACT'
p3267
I25947
sS'TCCACT'
p3268
I35282
sS'TACAAA'
p3269
I40739
sS'AGACGA'
p3270
I7300
sS'TACAAC'
p3271
I16231
sS'CCTCTG'
p3272
I66268
sS'AGGTGG'
p3273
I52640
sS'CCTCTC'
p3274
I61026
sS'AGGTGC'
p3275
I30627
sS'CCTCTA'
p3276
I26771
sS'AGGTGA'
p3277
I41811
sS'CTTACG'
p3278
I4971
sS'TCCACA'
p3279
I37006
sS'TTTTAG'
p3280
I44265
sS'TCCACC'
p3281
I38545
sS'CTTACC'
p3282
I20039
sS'CCAAAC'
p3283
I31715
sS'TTTTAC'
p3284
I37765
sS'ACATCC'
p3285
I25186
sS'AGGTGT'
p3286
I32393
sS'CCTCTT'
p3287
I53892
sS'CGTCGG'
p3288
I5356
sS'TATGAG'
p3289
I21942
sS'CCCGGA'
p3290
I18975
sS'TATGAC'
p3291
I17162
sS'TTGTGT'
p3292
I39205
sS'TGGAAT'
p3293
I37755
sS'TAGGTG'
p3294
I22255
sS'TTGTGC'
p3295
I24835
sS'TATGAT'
p3296
I19088
sS'TTGTGG'
p3297
I39206
sS'NNTGAT'
p3298
I1
sS'TTTTGA'
p3299
I55280
sS'GGCGTG'
p3300
I20878
sS'TGGAAG'
p3301
I46776
sS'TGGAAC'
p3302
I26555
sS'TGGAAA'
p3303
I59064
sS'TGAGGA'
p3304
I49339
sS'AAGAGG'
p3305
I53893
sS'TGAGGC'
p3306
I47152
sS'AAGAGA'
p3307
I60179
sS'AAGAGC'
p3308
I35823
sS'TGAGGG'
p3309
I43079
sS'GCTTAG'
p3310
I19786
sS'GCTTAC'
p3311
I14527
sS'GCTTAA'
p3312
I20862
sS'TGATTC'
p3313
I29860
sS'AAGCGC'
p3314
I10286
sS'AAGAGT'
p3315
I32857
sS'AAGCGA'
p3316
I10081
sS'TGAGGT'
p3317
I40482
sS'GCTTAT'
p3318
I18073
sS'CTGCTA'
p3319
I27114
sS'GCGTGT'
p3320
I11493
sS'CTGCTC'
p3321
I51231
sS'ACTTCT'
p3322
I43901
sS'GACCGT'
p3323
I5577
sS'CTGCTG'
p3324
I71193
sS'CGGTCA'
p3325
I6993
sS'GGTCGT'
p3326
I4989
sS'CTAGAG'
p3327
I28024
sS'CTAGAA'
p3328
I32457
sS'CTAGAC'
p3329
I15754
sS'GACCGA'
p3330
I6348
sS'GACCGC'
p3331
I9399
sS'ACTTCC'
p3332
I50025
sS'CTGCTT'
p3333
I55616
sS'ACTTCA'
p3334
I36354
sS'CTAGAT'
p3335
I18129
sS'AAGTGT'
p3336
I34097
sS'CGGTCT'
p3337
I8396
sS'GGTCGC'
p3338
I8871
sS'GGTCGA'
p3339
I4355
sS'CGTCGC'
p3340
I6489
sS'GTACAG'
p3341
I20783
sS'GCGTGA'
p3342
I12089
sS'GCGTGC'
p3343
I12450
sS'TGCTCA'
p3344
I40847
sS'TTCATC'
p3345
I32121
sS'TGCTCC'
p3346
I37272
sS'TTCATA'
p3347
I29858
sS'TTCATG'
p3348
I35490
sS'TGCTCG'
p3349
I8464
sS'CAGAAT'
p3350
I42526
sS'CAGCAG'
p3351
I71208
sS'TACACT'
p3352
I20207
sS'GCGGCT'
p3353
I19432
sS'CAGCAC'
p3354
I46511
sS'CAGCAA'
p3355
I45416
sS'ACGACT'
p3356
I5266
sS'TGATTT'
p3357
I47169
sS'TTCATT'
p3358
I58332
sS'GCTTTA'
p3359
I26179
sS'GCTGCC'
p3360
I52051
sS'GCTGCA'
p3361
I46615
sS'AACTCT'
p3362
I35728
sS'TGGCCC'
p3363
I38406
sS'TGGCCA'
p3364
I47396
sS'GTAGCA'
p3365
I19048
sS'TCATCT'
p3366
I43434
sS'TGCTCT'
p3367
I47747
sS'AGCAAA'
p3368
I51446
sS'TGGCCT'
p3369
I46664
sS'AACTCC'
p3370
I34721
sS'GCTGCT'
p3371
I56092
sS'AACTCG'
p3372
I6898
sS'CAGTCG'
p3373
I7396
sS'CTACAA'
p3374
I23908
sS'GGATCC'
p3375
I18737
sS'AATATT'
p3376
I42468
sS'GTTCGA'
p3377
I5073
sS'CAACCT'
p3378
I29583
sS'CAGTTA'
p3379
I26158
sS'TGGCCG'
p3380
I16420
sS'GGCACG'
p3381
I12458
sS'GGCACA'
p3382
I35466
sS'GACAAT'
p3383
I18840
sS'GGCACC'
p3384
I28221
sS'CAACCG'
p3385
I6790
sS'ACGACC'
p3386
I4990
sS'AATATG'
p3387
I28041
sS'CGGTCG'
p3388
I4583
sS'CAACCC'
p3389
I27072
sS'AGCAAG'
p3390
I42892
sS'AATATC'
p3391
I21247
sS'CTTCGT'
p3392
I8139
sS'GACAAA'
p3393
I35004
sS'GGCACT'
p3394
I29204
sS'GACAAC'
p3395
I17524
sS'CAGAAC'
p3396
I37678
sS'GACAAG'
p3397
I27586
sS'GCTGCG'
p3398
I22570
sS'GCGGCG'
p3399
I33628
sS'GCAATA'
p3400
I16991
sS'GCAATG'
p3401
I24570
sS'CAAGTG'
p3402
I34214
sS'CGATGG'
p3403
I6632
sS'GACACT'
p3404
I26314
sS'TCCCAT'
p3405
I33493
sS'CGATGC'
p3406
I5329
sS'GTAAAT'
p3407
I28618
sS'CGATGA'
p3408
I6124
sS'GAATTA'
p3409
I24669
sS'GAATTC'
p3410
I26114
sS'GAATTG'
p3411
I24302
sS'TCCCAA'
p3412
I40242
sS'CTACAC'
p3413
I17845
sS'GTAAAA'
p3414
I37777
sS'GTAAAG'
p3415
I24800
sS'TCCCAG'
p3416
I69836
sS'GGATTT'
p3417
I32835
sS'GTGCGT'
p3418
I9163
sS'ATGGTA'
p3419
I19887
sS'GGATTC'
p3420
I21040
sS'GGATTA'
p3421
I23045
sS'GGATTG'
p3422
I18652
sS'AGCGGC'
p3423
I18539
sS'CTATCA'
p3424
I16934
sS'AAAGCC'
p3425
I42126
sS'TCTGTG'
p3426
I62141
sS'ACGCCC'
p3427
I14581
sS'ATAACG'
p3428
I4368
sS'TCTGTA'
p3429
I34678
sS'AACCGG'
p3430
I7589
sS'CTCCTT'
p3431
I53449
sS'GGCGGA'
p3432
I22985
sS'CAGATA'
p3433
I26960
sS'AACCGC'
p3434
I8411
sS'ACTCCT'
p3435
I37327
sS'TCTGTT'
p3436
I52759
sS'AAAGCG'
p3437
I11027
sS'CTCCTG'
p3438
I69375
sS'AACCGT'
p3439
I6103
sS'CTCCTA'
p3440
I26995
sS'CTCCTC'
p3441
I68267
sS'GGCGGT'
p3442
I14160
sS'AACAAG'
p3443
I36428
sS'GACGCC'
p3444
I11862
sS'CCCACA'
p3445
I50647
sS'CCCACC'
p3446
I61311
sS'TACTTC'
p3447
I25759
sS'AGCCTT'
p3448
I38697
sS'GACNNN'
p3449
I1
sS'CCGATT'
p3450
I5108
sS'CCCACT'
p3451
I42442
sS'AACAAT'
p3452
I30359
sS'GACGCT'
p3453
I9047
sS'AGCGGT'
p3454
I8096
sS'CCGATA'
p3455
I2675
sS'AGCCTG'
p3456
I61132
sS'AGCCTA'
p3457
I21254
sS'AGCCTC'
p3458
I53314
sS'GTACCC'
p3459
I12049
sS'GAGTTT'
p3460
I38801
sS'TGGTTA'
p3461
I26597
sS'CGCCTT'
p3462
I13455
sS'TGGTTC'
p3463
I29369
sS'ACCTCC'
p3464
I41461
sS'TCNNNN'
p3465
I9
sS'CAGAGT'
p3466
I44494
sS'GCATCT'
p3467
I28472
sS'CTCCCA'
p3468
I66200
sS'AGGCAC'
p3469
I35206
sS'CGCCTC'
p3470
I28423
sS'AGGCAA'
p3471
I39621
sS'CGCCTA'
p3472
I6246
sS'AGGCAG'
p3473
I72629
sS'CGCCTG'
p3474
I24500
sS'ACGAAG'
p3475
I8137
sS'CAGAGG'
p3476
I66270
sS'GCATCC'
p3477
I21145
sS'GCATCA'
p3478
I22683
sS'CAGAGC'
p3479
I57165
sS'CGGCCA'
p3480
I16418
sS'CAGAGA'
p3481
I68633
sS'GCCTCT'
p3482
I50144
sS'CCGATC'
p3483
I4225
sS'AGACTC'
p3484
I30877
sS'CCTAGA'
p3485
I25391
sS'CTCGAA'
p3486
I8269
sS'TTTGCT'
p3487
I51433
sS'TAGCTC'
p3488
I20918
sS'TGCGGT'
p3489
I9946
sS'CCTAGG'
p3490
I25653
sS'TAAGCA'
p3491
I27873
sS'TTTGCA'
p3492
I50397
sS'TTTGCC'
p3493
I35730
sS'CCTAGT'
p3494
I18202
sS'TGCGGG'
p3495
I16630
sS'TTTGCG'
p3496
I7415
sS'TGAGTT'
p3497
I36381
sS'CGGGAC'
p3498
I14779
sS'ATCGCT'
p3499
I7028
sS'CAGGGT'
p3500
I41134
sS'CACCGC'
p3501
I18762
sS'ATCGCC'
p3502
I6160
sS'TGAGTG'
p3503
I39017
sS'ATCGCA'
p3504
I5191
sS'TGAGTA'
p3505
I26590
sS'ATCGCG'
p3506
I3829
sS'TGAGTC'
p3507
I35406
sS'GGCTCC'
p3508
I45422
sS'AAGGTG'
p3509
I35579
sS'AAGGTC'
p3510
I25514
sS'CATCAT'
p3511
I28544
sS'AAGGTA'
p3512
I23412
sS'CATCAN'
p3513
I1
sS'TACGCT'
p3514
I3944
sS'AAGCGG'
p3515
I12033
sS'ACGGCA'
p3516
I8115
sS'CATCAC'
p3517
I29558
sS'AAGGTT'
p3518
I28079
sS'CATCAA'
p3519
I24319
sS'CATCAG'
p3520
I32918
sS'ACGGCG'
p3521
I7345
sS'TCACCT'
p3522
I41812
sS'TCTAAG'
p3523
I25598
sS'TCGTTT'
p3524
I10048
sS'CGGAAT'
p3525
I6034
sS'CGGATT'
p3526
I5484
sS'GTGGCT'
p3527
I49540
sS'ATCGAT'
p3528
I3081
sS'TCACCG'
p3529
I10884
sS'TCACCA'
p3530
I40241
sS'TCACCC'
p3531
I36165
sS'CGGAAG'
p3532
I18176
sS'AATATA'
p3533
I29665
sS'AAAATA'
p3534
I79878
sS'CGGAAC'
p3535
I8235
sS'AGCTCG'
p3536
I9894
sS'CGGAAA'
p3537
I12398
sS'GCCTCA'
p3538
I47124
sS'ATCCAG'
p3539
I28863
sS'ATGGCG'
p3540
I10663
sS'TGTGTA'
p3541
I33595
sS'ATGGCC'
p3542
I23756
sS'ATGGCA'
p3543
I32010
sS'TTCAGA'
p3544
I51032
sS'ATGGCT'
p3545
I31458
sS'TGTGTT'
p3546
I48062
sS'CCAAGT'
p3547
I31951
sS'GAACAT'
p3548
I25732
sS'AGAATT'
p3549
I41224
sS'GAAACG'
p3550
I12333
sS'GAAACA'
p3551
I53830
sS'AGATTG'
p3552
I22821
sS'AAGATA'
p3553
I27804
sS'CTGAGT'
p3554
I43975
sS'AGGTAC'
p3555
I16413
sS'GAAACT'
p3556
I51593
sS'AGAATG'
p3557
I44625
sS'AGATTT'
p3558
I41626
sS'ACATAC'
p3559
I22004
sS'CTGAGC'
p3560
I48932
sS'CTGAGA'
p3561
I58970
sS'CTGAGG'
p3562
I64246
sS'CATACC'
p3563
I14811
sS'CATACA'
p3564
I25824
sS'CATACG'
p3565
I3978
sS'GCAATC'
p3566
I16092
sS'TCAAAT'
p3567
I38741
sS'CGAGCC'
p3568
I13477
sS'GTCCAT'
p3569
I17408
sS'ACATAG'
p3570
I21243
sS'CATACT'
p3571
I18115
sS'GTCCAG'
p3572
I29450
sS'TCAAAG'
p3573
I40711
sS'CACGAG'
p3574
I10409
sS'TCAAAA'
p3575
I55344
sS'TCAAAC'
p3576
I29853
sS'CGGCGG'
p3577
I29660
sS'TTGATG'
p3578
I24298
sS'ATCGAG'
p3579
I4783
sS'CGGCGC'
p3580
I22390
sS'TTGATC'
p3581
I16089
sS'CGGCGA'
p3582
I8554
sS'TTGATA'
p3583
I18178
sS'TTGATT'
p3584
I31287
sS'CGGCGT'
p3585
I7627
sS'GTACGC'
p3586
I2909
sS'ATCGAC'
p3587
I2522
sS'CCATTA'
p3588
I19823
sS'TCGTCT'
p3589
I7298
sS'CGGTTA'
p3590
I4293
sS'GGTTTA'
p3591
I22114
sS'CGGTTC'
p3592
I8441
sS'GCTGTT'
p3593
I37154
sS'TTTACA'
p3594
I41839
sS'CGGTTG'
p3595
I6789
sS'GGTTTG'
p3596
I32285
sS'CCATTG'
p3597
I24130
sS'TCCAAA'
p3598
I40105
sS'GCTGTG'
p3599
I55033
sS'GGTTTT'
p3600
I47552
sS'CGGTTT'
p3601
I9915
sS'GCTGTA'
p3602
I23176
sS'TATGCG'
p3603
I3182
sS'AGGTTG'
p3604
I29584
sS'AGGTTC'
p3605
I25178
sS'AGGTTA'
p3606
I22284
sS'CNNNNN'
p3607
I11
sS'GAGGGA'
p3608
I56800
sS'TTTTTC'
p3609
I78029
sS'TCCATC'
p3610
I29476
sS'TTTTTA'
p3611
I80320
sS'TCCTCT'
p3612
I63449
sS'TTTTTG'
p3613
I71602
sS'GAGGGG'
p3614
I59374
sS'TTAAAT'
p3615
I46652
sS'AGGTTT'
p3616
I38859
sS'TAAGCG'
p3617
I4673
sS'TATGCC'
p3618
I14858
sS'TTAAAC'
p3619
I29337
sS'ATACGT'
p3620
I5122
sS'TTAAAA'
p3621
I83455
sS'ACTCCG'
p3622
I10857
sS'TTAAAG'
p3623
I39440
sS'ACTCCA'
p3624
I39663
sS'TTTTTT'
p3625
I233106
sS'ACTCCC'
p3626
I33100
sS'TAGGCT'
p3627
I21250
sS'GTCACG'
p3628
I10105
sS'CTGTAC'
p3629
I20788
sS'GCAACT'
p3630
I22438
sS'GTCACC'
p3631
I29587
sS'CTGTAG'
p3632
I29076
sS'GTCACA'
p3633
I34707
sS'GCAACG'
p3634
I7071
sS'GGTCTT'
p3635
I27009
sS'GTCACT'
p3636
I32700
sS'TAGGCG'
p3637
I6241
sS'GCAACC'
p3638
I22093
sS'CTGTAT'
p3639
I25895
sS'GCAACA'
p3640
I29594
sS'TAGGCC'
p3641
I16983
sS'CGATGT'
p3642
I4900
sS'ATTCAT'
p3643
I36886
sS'TCCCAC'
p3644
I44691
sS'GCGATT'
p3645
I6016
sS'TCGTGT'
p3646
I7056
sS'TTCACT'
p3647
I47023
sS'GTCTCT'
p3648
I42415
sS'AACATT'
p3649
I38786
sS'ATTCAG'
p3650
I36507
sS'ATTCAA'
p3651
I34006
sS'ATTCAC'
p3652
I27724
sS'GTCTCC'
p3653
I35394
sS'TCGTGG'
p3654
I9699
sS'GCGATG'
p3655
I7068
sS'TTCACC'
p3656
I32202
sS'GCGATA'
p3657
I2879
sS'TTCACA'
p3658
I47697
sS'GCGATC'
p3659
I6231
sS'GAAGGC'
p3660
I38162
sS'GAAGGA'
p3661
I53777
sS'CGATTC'
p3662
I6510
sS'CGATTA'
p3663
I3140
sS'CAATCT'
p3664
I22822
sS'GGAACA'
p3665
I32851
sS'GGAACG'
p3666
I9592
sS'AGCCAC'
p3667
I49605
sS'CACGAA'
p3668
I7906
sS'TACTGC'
p3669
I20641
sS'CGATTT'
p3670
I6745
sS'GAAGGT'
p3671
I30318
sS'CTCGCT'
p3672
I15484
sS'TTGTAG'
p3673
I23910
sS'CAATCA'
p3674
I25188
sS'GGAACT'
p3675
I34042
sS'TCCTGA'
p3676
I47061
sS'AGTCCA'
p3677
I27158
sS'TCCTGC'
p3678
I52938
sS'AGTCCC'
p3679
I35003
sS'ACTAAA'
p3680
I32180
sS'TCCTGG'
p3681
I60603
sS'ACTAAC'
p3682
I15486
sS'TACTGG'
p3683
I20934
sS'TAACGA'
p3684
I4278
sS'CAGCTA'
p3685
I31099
sS'CAGCTC'
p3686
I53447
sS'ACTAAT'
p3687
I20177
sS'AGTCCT'
p3688
I32294
sS'TCCTGT'
p3689
I48851
sS'TAATGT'
p3690
I24752
sS'CAGCTT'
p3691
I45798
sS'TAACGT'
p3692
I5347
sS'TTGACC'
p3693
I19303
sS'GTACTT'
p3694
I20313
sS'CGACAT'
p3695
I4128
sS'TTGTTC'
p3696
I31406
sS'TTGTTA'
p3697
I29161
sS'CGACTG'
p3698
I7401
sS'TTGTTG'
p3699
I33823
sS'ACGGAA'
p3700
I9786
sS'CCGAGC'
p3701
I15997
sS'CCGCGT'
p3702
I8414
sS'CGACAC'
p3703
I5929
sS'CGACAA'
p3704
I4505
sS'GTACTC'
p3705
I12123
sS'GTACTA'
p3706
I10252
sS'CCGCGC'
p3707
I26801
sS'TTGACG'
p3708
I4592
sS'CCGCGA'
p3709
I8674
sS'CCGCGG'
p3710
I24752
sS'TTGTTT'
p3711
I73278
sS'GCATAT'
p3712
I18120
sS'TCCGTT'
p3713
I8288
sS'AGCCAA'
p3714
I39512
sS'AATAAC'
p3715
I26379
sS'AATAAA'
p3716
I67180
sS'AATAAG'
p3717
I31346
sS'TGGTAC'
p3718
I14265
sS'TACTAA'
p3719
I20803
sS'AATAAT'
p3720
I39883
sS'ACGGTG'
p3721
I10397
sS'CCAACC'
p3722
I28202
sS'CTCAGT'
p3723
I45622
sS'CCAACG'
p3724
I7345
sS'GGGATT'
p3725
I32139
sS'CGCCGC'
p3726
I33640
sS'AGTAAA'
p3727
I38444
sS'CGCCGA'
p3728
I8030
sS'GAGTAG'
p3729
I22201
sS'TCGAGT'
p3730
I5576
sS'GAGTAA'
p3731
I23240
sS'AGTAAG'
p3732
I25954
sS'CTCAGG'
p3733
I56289
sS'CTCAGC'
p3734
I60857
sS'CCAACT'
p3735
I26979
sS'GAGTAT'
p3736
I14943
sS'GCTTCA'
p3737
I34005
sS'GTGTAG'
p3738
I17841
sS'TCGAGC'
p3739
I5680
sS'AGTAAT'
p3740
I24838
sS'GTGTAC'
p3741
I13638
sS'CGCCGT'
p3742
I7343
sS'GTGGCA'
p3743
I38639
sS'GTGGCC'
p3744
I37758
sS'ATCGTA'
p3745
I3121
sS'GTGGCG'
p3746
I17346
sS'GCCGCC'
p3747
I39535
sS'GCCGCA'
p3748
I14760
sS'GCCGCG'
p3749
I24925
sS'ACACTT'
p3750
I34082
sS'CTCGGT'
p3751
I10570
sS'CATATC'
p3752
I15752
sS'CATATA'
p3753
I20805
sS'TCAGCA'
p3754
I45038
sS'TACTAC'
p3755
I12367
sS'ACACTC'
p3756
I27226
sS'ACACTA'
p3757
I18591
sS'ACACTG'
p3758
I40261
sS'GCCGCT'
p3759
I18545
sS'ACCGGA'
p3760
I7962
sS'AAATAA'
p3761
I73583
sS'ACCGGC'
p3762
I9484
sS'AAATAC'
p3763
I39980
sS'CTTTAA'
p3764
I39431
sS'AATCCT'
p3765
I29831
sS'AAATAG'
p3766
I39382
sS'AACTTA'
p3767
I24513
sS'CAGGTA'
p3768
I24745
sS'AACTTC'
p3769
I34393
sS'CAGGTC'
p3770
I30413
sS'CACGAC'
p3771
I6103
sS'ACGTTT'
p3772
I10841
sS'CAGGTG'
p3773
I52813
sS'CTTTAT'
p3774
I34301
sS'AATCCC'
p3775
I32115
sS'GCTCGT'
p3776
I6173
sS'AATCCA'
p3777
I28081
sS'AAATAT'
p3778
I53076
sS'AATCCG'
p3779
I5483
sS'CAGTCA'
p3780
I37714
sS'CAGGTT'
p3781
I33774
sS'AACTTT'
p3782
I42244
sS'TCTGTC'
p3783
I46776
sS'GGGATA'
p3784
I15101
sS'GGGATC'
p3785
I18486
sS'GGGTGT'
p3786
I30778
sS'GGGATG'
p3787
I31503
sS'GATGCT'
p3788
I26483
sS'CGCAGT'
p3789
I10963
sS'GAGTCG'
p3790
I7744
sS'GAGCCT'
p3791
I37687
sS'GGAGAC'
p3792
I35419
sS'GGGTGA'
p3793
I36186
sS'GGAGAA'
p3794
I55701
sS'GGGTGC'
p3795
I28105
sS'GGAGAG'
p3796
I60771
sS'GGGTGG'
p3797
I57833
sS'GAGCCA'
p3798
I45595
sS'CGCAGG'
p3799
I21199
sS'GATGCG'
p3800
I6253
sS'CGCAGA'
p3801
I13401
sS'GATGCA'
p3802
I23219
sS'CGCAGC'
p3803
I22572
sS'GATGCC'
p3804
I21633
sS'ACGAAC'
p3805
I4559
sS'GGTTCT'
p3806
I30197
sS'GGTAGT'
p3807
I14471
sS'ACCCCT'
p3808
I30760
sS'GCCAAT'
p3809
I20670
sS'GGCGGG'
p3810
I55443
sS'AGAGTC'
p3811
I29411
sS'AGAAGT'
p3812
I43904
sS'ACCCCA'
p3813
I41978
sS'GGTAGA'
p3814
I21314
sS'ACCCCC'
p3815
I31448
sS'CGGATG'
p3816
I7685
sS'GCCAAG'
p3817
I38033
sS'CGGATA'
p3818
I3252
sS'ACCCCG'
p3819
I16680
sS'GGTAGG'
p3820
I22568
sS'AGAAGA'
p3821
I58225
sS'AGAAGC'
p3822
I45923
sS'GCAAGA'
p3823
I33281
sS'AGAAGG'
p3824
I55673
sS'CACTCC'
p3825
I39945
sS'CACTCA'
p3826
I39010
sS'CACTCG'
p3827
I9091
sS'TGCGTT'
p3828
I7705
sS'GCAAGG'
p3829
I32293
sS'AGCTTT'
p3830
I42218
sS'CCCCGG'
p3831
I29915
sS'TGCGTA'
p3832
I4350
sS'CCCCGC'
p3833
I48092
sS'CACTCT'
p3834
I39507
sS'AGCTTC'
p3835
I38335
sS'AGCTTA'
p3836
I20814
sS'AGCTTG'
p3837
I30565
sS'AGACCA'
p3838
I35825
sS'TTAGCT'
p3839
I26180
sS'ACTGTG'
p3840
I44534
sS'TTAGCC'
p3841
I21350
sS'TTAGCA'
p3842
I27339
sS'GACCAT'
p3843
I16991
sS'TTAGCG'
p3844
I4537
sS'CGATCC'
p3845
I5253
sS'AAGGGG'
p3846
I43871
sS'ATAAGG'
p3847
I20839
sS'TGTGCT'
p3848
I42035
sS'AAGGGC'
p3849
I33895
sS'ATAAGC'
p3850
I18073
sS'ATCCCT'
p3851
I27201
sS'ATAAGA'
p3852
I25546
sS'CCAGAC'
p3853
I33756
sS'CCAGAA'
p3854
I51346
sS'CCAGAG'
p3855
I57894
sS'TGTGCG'
p3856
I11306
sS'ATAAGT'
p3857
I19574
sS'AAGGGT'
p3858
I26764
sS'TGTGCC'
p3859
I35483
sS'ATAGGA'
p3860
I20355
sS'TGTGCA'
p3861
I39855
sS'ATAGGC'
p3862
I14325
sS'GCTCGC'
p3863
I13242
sS'ATACGC'
p3864
I3064
sS'CCAGAT'
p3865
I31274
sS'AGACAA'
p3866
I38115
sS'GACGCA'
p3867
I8020
sS'AGACAC'
p3868
I35698
sS'AGACAG'
p3869
I55610
sS'TTTTCT'
p3870
I101879
sS'CGCTGT'
p3871
I12369
sS'CCCACG'
p3872
I18925
sS'TCAAGA'
p3873
I34003
sS'CTTCAC'
p3874
I35525
sS'AGACAT'
p3875
I31886
sS'CGTGGA'
p3876
I11440
sS'TTTTCG'
p3877
I8323
sS'AACAAC'
p3878
I29552
sS'CGTCTT'
p3879
I9246
sS'TTTTCC'
p3880
I62675
sS'CAGCGA'
p3881
I12221
sS'CGCTGG'
p3882
I19772
sS'TATGGA'
p3883
I17903
sS'TATGGC'
p3884
I14720
sS'CGTAGG'
p3885
I5611
sS'CGTAGA'
p3886
I4717
sS'TATGGG'
p3887
I17519
sS'CGTAGC'
p3888
I5184
sS'CTTCAG'
p3889
I48546
sS'TGGACT'
p3890
I27151
sS'CGTAGT'
p3891
I4621
sS'GCTCGA'
p3892
I5681
sS'TATGGT'
p3893
I17648
sS'TGGACA'
p3894
I29595
sS'TGGACC'
p3895
I19061
sS'TGGACG'
p3896
I8028
sS'GGCGGN'
p3897
I1
sS'CCGGTT'
p3898
I7587
sS'GACCAA'
p3899
I22067
sS'GCTTGA'
p3900
I25980
sS'TGAGAC'
p3901
I38808
sS'GCTTGC'
p3902
I23914
sS'TGAGAA'
p3903
I62238
sS'TGAGAG'
p3904
I47398
sS'GCTTGG'
p3905
I32223
sS'CCTGTT'
p3906
I39253
sS'CCGGTG'
p3907
I11761
sS'CCTTGC'
p3908
I32282
sS'ACTTAT'
p3909
I19593
sS'CCTGTC'
p3910
I40350
sS'CCTGTA'
p3911
I31755
sS'CTCGCC'
p3912
I17881
sS'GCTTGT'
p3913
I25817
sS'TGAGAT'
p3914
I38600
sS'TCCGAA'
p3915
I6492
sS'GGTTGT'
p3916
I22276
sS'CGTCTG'
p3917
I11280
sS'AATTCN'
p3918
I8
sS'TAGCGT'
p3919
I4147
sS'GGTTGG'
p3920
I28211
sS'CTGAAT'
p3921
I36514
sS'GGTTGA'
p3922
I21120
sS'TTCACG'
p3923
I9132
sS'GGTTGC'
p3924
I22118
sS'GAAAGT'
p3925
I44505
sS'GGAAAC'
p3926
I46072
sS'TCCCGC'
p3927
I23043
sS'GTAACG'
p3928
I4033
sS'TCCCGG'
p3929
I23548
sS'GTAACC'
p3930
I14859
sS'CGTTTT'
p3931
I13307
sS'ATTCTC'
p3932
I37659
sS'AGGGAA'
p3933
I60758
sS'ATTCTA'
p3934
I28147
sS'ATTCTG'
p3935
I42520
sS'TCATTT'
p3936
I68564
sS'GTAACT'
p3937
I21373
sS'TGCTAA'
p3938
I27376
sS'ACCTNN'
p3939
I1
sS'TGCTAG'
p3940
I21003
sS'TCCCGT'
p3941
I9958
sS'AGGATC'
p3942
I21530
sS'TCATTC'
p3943
I38759
sS'TCATTA'
p3944
I29821
sS'TCATTG'
p3945
I28692
sS'ATTCTT'
p3946
I41194
sS'CGTTTC'
p3947
I12326
sS'ACCGGG'
p3948
I10964
sS'TGGCAA'
p3949
I33387
sS'TGGCAC'
p3950
I30376
sS'TGGCAG'
p3951
I51843
sS'GCTGAG'
p3952
I60886
sS'ACAATC'
p3953
I18175
sS'GCTGAC'
p3954
I27805
sS'CGTCAG'
p3955
I9597
sS'TGGCAT'
p3956
I30596
sS'GGCCGG'
p3957
I31434
sS'NNGATC'
p3958
I2
sS'CCGATG'
p3959
I5201
sS'GCAATT'
p3960
I21996
sS'GAACTT'
p3961
I30078
sS'GGCCGA'
p3962
I15080
sS'GGCAAT'
p3963
I19471
sS'CGCTCG'
p3964
I9255
sS'ATCNNN'
p3965
I2
sS'CTGATT'
p3966
I34240
sS'CCATCG'
p3967
I6628
sS'CTAAAT'
p3968
I28870
sS'CCATCC'
p3969
I32614
sS'CCATCA'
p3970
I29517
sS'CTGATC'
p3971
I20988
sS'CTGATA'
p3972
I20843
sS'TGGTTG'
p3973
I30223
sS'GGCAAC'
p3974
I23919
sS'GGCAAA'
p3975
I35740
sS'CTAAAG'
p3976
I26861
sS'CCATCT'
p3977
I42499
sS'CTAAAC'
p3978
I20953
sS'TTGCGT'
p3979
I6027
sS'GACACC'
p3980
I23660
sS'GACACA'
p3981
I36495
sS'GACACG'
p3982
I9419
sS'CCAAGA'
p3983
I39486
sS'GCGCCT'
p3984
I19075
sS'CGTATA'
p3985
I2866
sS'TACGAG'
p3986
I3920
sS'TACGAC'
p3987
I2602
sS'GGAAAG'
p3988
I59375
sS'TACGAA'
p3989
I4448
sS'CCGTGA'
p3990
I10256
sS'CGTGAG'
p3991
I13999
sS'TGTTAC'
p3992
I21997
sS'CTATTG'
p3993
I16845
sS'CTATTA'
p3994
I18908
sS'CTATTC'
p3995
I19433
sS'GGTTCC'
p3996
I26953
sS'TCGATG'
p3997
I4572
sS'TCGATA'
p3998
I2569
sS'TCGATC'
p3999
I3225
sS'CTATTT'
p4000
I39392
sS'CGCGAA'
p4001
I4216
sS'GCATTG'
p4002
I20259
sS'CAGCCT'
p4003
I76931
sS'TCGATT'
p4004
I4796
sS'TCGGCA'
p4005
I6999
sS'TGGTTT'
p4006
I56459
sS'AACCAA'
p4007
I37488
sS'TGCCGG'
p4008
I13737
sS'AACCAC'
p4009
I40930
sS'GCGCCA'
p4010
I15528
sS'AACCAG'
p4011
I37946
sS'TGCCGA'
p4012
I7008
sS'TTGGAC'
p4013
I18171
sS'TCGGGC'
p4014
I11654
sS'CGCGAG'
p4015
I10667
sS'GCGCCG'
p4016
I22386
sS'GGCGGC'
p4017
I39520
sS'AACCAT'
p4018
I26312
sS'AACAGA'
p4019
I52805
sS'CTACCG'
p4020
I5637
sS'AACAGC'
p4021
I37149
sS'CTACCC'
p4022
I21106
sS'AACAGG'
p4023
I39256
sS'CTACCA'
p4024
I22417
sS'CCCAAG'
p4025
I42931
sS'AGCAGC'
p4026
I56084
sS'GACGAA'
p4027
I5555
sS'CTNNNN'
p4028
I1
sS'CCCAAC'
p4029
I28906
sS'CCCAAA'
p4030
I49454
sS'CTACCT'
p4031
I24658
sS'GGGAGA'
p4032
I56317
sS'AACAGT'
p4033
I32992
sS'GGGAGC'
p4034
I44851
sS'CCCAAT'
p4035
I19174
sS'GACGAT'
p4036
I3889
sS'GGGCGC'
p4037
I28624
sS'GGGCGA'
p4038
I15156
sS'NGCGCC'
p4039
I1
sS'GGGCGG'
p4040
I53186
sS'TCTCTT'
p4041
I60180
sS'AGGCAT'
p4042
I33108
sS'CGTTAA'
p4043
I5016
sS'GTACAA'
p4044
I16729
sS'GAATAC'
p4045
I15298
sS'TCTCTC'
p4046
I67978
sS'TCTCTA'
p4047
I36315
sS'TCTCTG'
p4048
I68617
sS'GGGCGT'
p4049
I14579
sS'CAGAAA'
p4050
I78566
sS'ACGACA'
p4051
I5552
sS'NTGATG'
p4052
I1
sS'ACGACG'
p4053
I2900
sS'CAGAAG'
p4054
I59398
sS'GTCCAA'
p4055
I18179
sS'CACTTT'
p4056
I51554
sS'CCTAAT'
p4057
I19265
sS'CGCTAG'
p4058
I5633
sS'CACTTG'
p4059
I34215
sS'CCTAAC'
p4060
I18085
sS'CCTAAA'
p4061
I29034
sS'CACTTC'
p4062
I47151
sS'CCTAAG'
p4063
I22774
sS'CACTTA'
p4064
I27167
sS'GCGGAT'
p4065
I6790
sS'CTGCGG'
p4066
I23446
sS'AAGATT'
p4067
I30803
sS'CTCATG'
p4068
I33933
sS'GACTCG'
p4069
I8352
sS'CTCATC'
p4070
I32834
sS'GACTCC'
p4071
I28735
sS'CTCATA'
p4072
I21943
sS'GACTCA'
p4073
I35409
sS'ATAGGT'
p4074
I14742
sS'CTCCAA'
p4075
I37012
sS'AAGATG'
p4076
I39621
sS'GACTCT'
p4077
I29425
sS'CTCATT'
p4078
I45605
sS'ATCGAA'
p4079
I4772
sS'GGACTA'
p4080
I15754
sS'CCTAGC'
p4081
I20606
sS'ATATTT'
p4082
I53053
sS'ATAGAG'
p4083
I21793
sS'AACTAA'
p4084
I27558
sS'ATAGTT'
p4085
I20384
sS'TACTGT'
p4086
I26210
sS'ATATTC'
p4087
I23543
sS'ATATTA'
p4088
I24663
sS'ATATTG'
p4089
I20158
sS'ATAGTA'
p4090
I16392
sS'TACTGA'
p4091
I26692
sS'ATTATA'
p4092
I23972
sS'ATAGTG'
p4093
I18050
sS'GATCGA'
p4094
I3222
sS'CAGGCA'
p4095
I59558
sS'CAGGCC'
p4096
I52448
sS'CATCCG'
p4097
I7685
sS'AGGAAA'
p4098
I84070
sS'CATCCA'
p4099
I29169
sS'AGGAAC'
p4100
I36948
sS'CATCCC'
p4101
I31513
sS'TTATGA'
p4102
I26458
sS'TTATGC'
p4103
I17562
sS'CGGAGT'
p4104
I10852
sS'TTATGG'
p4105
I19836
sS'CATCCT'
p4106
I38032
sS'AGGAAT'
p4107
I35150
sS'CAGGCT'
p4108
I61116
sS'ACGGAT'
p4109
I4931
sS'CGGAGA'
p4110
I14301
sS'CGGAGC'
p4111
I20989
sS'TTATGT'
p4112
I28369
sS'CGGAGG'
p4113
I24208
sS'ATGGAA'
p4114
I42381
sS'ATGGAC'
p4115
I17412
sS'ATGGAG'
p4116
I36131
sS'CGCTTG'
p4117
I10239
sS'CGCTTA'
p4118
I4671
sS'CGCTTC'
p4119
I13941
sS'ATGGAT'
p4120
I21002
sS'TGCGGC'
p4121
I14749
sS'CGCTTT'
p4122
I11023
sS'GCCGTG'
p4123
I13755
sS'TGGGGA'
p4124
I63585
sS'GGGTCG'
p4125
I10073
sS'GATCGT'
p4126
I3923
sS'TGCGGA'
p4127
I9642
sS'GAAAAG'
p4128
I61058
sS'GAAAAC'
p4129
I47997
sS'ATAGAT'
p4130
I18602
sS'GAAAAA'
p4131
I78095
sS'GTTCCT'
p4132
I36967
sS'AGACCT'
p4133
I30374
sS'CAAGCG'
p4134
I10224
sS'GAAAAT'
p4135
I56384
sS'CGGCAT'
p4136
I5942
sS'CTACTG'
p4137
I25170
sS'ACAAGG'
p4138
I31889
sS'ACAAGA'
p4139
I35190
sS'ACAAGC'
p4140
I25817
sS'ACACGT'
p4141
I10600
sS'CTGCGT'
p4142
I12692
sS'GCGGAG'
p4143
I26596
sS'CATAAG'
p4144
I18616
sS'GTCCCT'
p4145
I34794
sS'CATAAA'
p4146
I34547
sS'GCGGAC'
p4147
I9656
sS'CATAAC'
p4148
I16634
sS'ACACGC'
p4149
I11492
sS'ACAAGT'
p4150
I26947
sS'ACACGA'
p4151
I7050
sS'ACACGG'
p4152
I10810
sS'CATAAT'
p4153
I22514
sS'GTCCCA'
p4154
I31606
sS'GCACAT'
p4155
I26851
sS'GTCCCC'
p4156
I34489
sS'ATCCCA'
p4157
I34312
sS'CTGCGA'
p4158
I10299
sS'CTGCGC'
p4159
I21673
sS'CGGCAA'
p4160
I7399
sS'CGGCAC'
p4161
I9903
sS'CATGCC'
p4162
I30963
sS'CGGCAG'
p4163
I20030
sS'GACGCG'
p4164
I8423
sS'CCTCCT'
p4165
I77410
sS'AGCGCT'
p4166
I12371
sS'CAGGCG'
p4167
I24504
sS'CCTCCC'
p4168
I97944
sS'CCTCCA'
p4169
I55838
sS'CCTCCG'
p4170
I24207
sS'CGTGAT'
p4171
I7789
s.