(dp0
S'AAAAAC'
p1
I359
sS'GAACGT'
p2
I82
sS'CTTCTT'
p3
I321
sS'CACCCT'
p4
I857
sS'ATTGAA'
p5
I250
sS'GAACGG'
p6
I329
sS'GAACGC'
p7
I342
sS'GAACGA'
p8
I205
sS'CAACAT'
p9
I40
sS'CACCCA'
p10
I1958
sS'CTTCTA'
p11
I1239
sS'CACCCC'
p12
I2990
sS'CTTCTC'
p13
I1619
sS'CACCCG'
p14
I1258
sS'CTTCTG'
p15
I3799
sS'CGTGTG'
p16
I1096
sS'TAAGGT'
p17
I129
sS'CGTGTC'
p18
I236
sS'CGTGTA'
p19
I266
sS'AGGCAA'
p20
I564
sS'GGAAAT'
p21
I109
sS'TAAGGG'
p22
I656
sS'CGTGTT'
p23
I52
sS'TTTTCT'
p24
I687
sS'TAAGGC'
p25
I389
sS'TAAGGA'
p26
I521
sS'TCACTG'
p27
I467
sS'GTCAAA'
p28
I1023
sS'GTCAAC'
p29
I977
sS'GTCAAG'
p30
I1557
sS'CTGTCC'
p31
I2553
sS'TCAGAG'
p32
I268
sS'CTGTCA'
p33
I1587
sS'CTGTCG'
p34
I686
sS'TCAGAC'
p35
I134
sS'TCAGAA'
p36
I255
sS'GTCAAT'
p37
I306
sS'GTATCA'
p38
I275
sS'GTATCC'
p39
I398
sS'GTATCG'
p40
I108
sS'CTGTCT'
p41
I941
sS'GGTGTC'
p42
I402
sS'GGTGTA'
p43
I492
sS'GGTGTG'
p44
I1892
sS'TATCCT'
p45
I236
sS'CCGGGG'
p46
I877
sS'TTCTGT'
p47
I1914
sS'ATTCCT'
p48
I267
sS'CCGGGC'
p49
I664
sS'CCGGGA'
p50
I582
sS'TATCCA'
p51
I537
sS'AGGCAG'
p52
I1654
sS'TATCCC'
p53
I686
sS'TATCCG'
p54
I241
sS'GGTGTT'
p55
I119
sS'ATTCCG'
p56
I206
sS'TTCTGG'
p57
I5695
sS'CCGGGT'
p58
I165
sS'ATTCCC'
p59
I477
sS'TTCTGC'
p60
I5956
sS'ATTCCA'
p61
I541
sS'TTCTGA'
p62
I3595
sS'TGCACT'
p63
I842
sS'CGTCAT'
p64
I89
sS'CGCGGT'
p65
I295
sS'AGGGAG'
p66
I1673
sS'CGCGGG'
p67
I2595
sS'CGCGGC'
p68
I2224
sS'CGCGGA'
p69
I838
sS'ACCTGT'
p70
I583
sS'TCATGT'
p71
I112
sS'CTCCGA'
p72
I1458
sS'TTACAG'
p73
I190
sS'CTCCGC'
p74
I5455
sS'TTACAA'
p75
I159
sS'TTACAC'
p76
I88
sS'CTCCGG'
p77
I3712
sS'TCATGC'
p78
I228
sS'ACCTGG'
p79
I3368
sS'TCATGA'
p80
I124
sS'GTAAGC'
p81
I304
sS'TCATGG'
p82
I285
sS'ACCTGC'
p83
I3159
sS'ACCTGA'
p84
I1643
sS'TTACAT'
p85
I47
sS'CTCGAT'
p86
I71
sS'CTCCGT'
p87
I560
sS'GAATTT'
p88
I90
sS'GCCTGA'
p89
I3380
sS'GCCTGC'
p90
I7076
sS'GCCTGG'
p91
I8656
sS'TAAAGG'
p92
I1174
sS'GCATTT'
p93
I100
sS'TAAAGA'
p94
I736
sS'TAAAGC'
p95
I667
sS'GCCTGT'
p96
I1468
sS'TATCTA'
p97
I881
sS'TAAAGT'
p98
I219
sS'CAAATA'
p99
I407
sS'CAAATC'
p100
I182
sS'CGTGCT'
p101
I165
sS'CGTCAA'
p102
I233
sS'AATACT'
p103
I302
sS'TATCTC'
p104
I772
sS'GGCATG'
p105
I2284
sS'GGCATA'
p106
I637
sS'GGCATC'
p107
I765
sS'AATACG'
p108
I257
sS'AATACA'
p109
I867
sS'AATACC'
p110
I702
sS'GGCATT'
p111
I271
sS'CGTCAG'
p112
I628
sS'CTTGGT'
p113
I315
sS'GAGCAC'
p114
I1625
sS'GAGCAA'
p115
I1238
sS'GAGCAG'
p116
I3374
sS'AGTAGT'
p117
I293
sS'TCTCGC'
p118
I597
sS'TCTCGA'
p119
I220
sS'TCTCGG'
p120
I626
sS'ACTGAG'
p121
I570
sS'AGTAGA'
p122
I699
sS'AGTAGG'
p123
I1269
sS'GAGCAT'
p124
I287
sS'TTGAAC'
p125
I316
sS'TCTCGT'
p126
I94
sS'GTGTCG'
p127
I637
sS'TCGAAC'
p128
I71
sS'TCGAAA'
p129
I42
sS'GTGTCC'
p130
I2079
sS'TCGAAG'
p131
I87
sS'GTGTCA'
p132
I1256
sS'CTTGCT'
p133
I493
sS'AGACAC'
p134
I152
sS'CCGTCT'
p135
I127
sS'GTGTCT'
p136
I870
sS'TTGAAG'
p137
I546
sS'TCGAAT'
p138
I15
sS'CTTGCG'
p139
I520
sS'CTTGCA'
p140
I918
sS'CTTGCC'
p141
I1053
sS'CGAAAG'
p142
I126
sS'CGAAAA'
p143
I60
sS'CGAAAC'
p144
I81
sS'AAGGTT'
p145
I134
sS'CACGGA'
p146
I685
sS'ACAGTG'
p147
I435
sS'CACGGC'
p148
I1210
sS'AAATGA'
p149
I437
sS'AAATGG'
p150
I589
sS'CACGGG'
p151
I1267
sS'ACAGTA'
p152
I158
sS'CGAAAT'
p153
I14
sS'ACAGTT'
p154
I41
sS'AATCAG'
p155
I1745
sS'CACGGT'
p156
I221
sS'AAATGT'
p157
I174
sS'AATCAC'
p158
I1190
sS'GGGTCT'
p159
I471
sS'GCTCAA'
p160
I473
sS'TCTAGT'
p161
I175
sS'TTGCCG'
p162
I675
sS'TTGCCA'
p163
I1138
sS'TTGCCC'
p164
I1560
sS'GGGTAC'
p165
I236
sS'TCTAGG'
p166
I886
sS'GGGTAA'
p167
I256
sS'TCTAGA'
p168
I421
sS'GGGTAG'
p169
I446
sS'TCTAGC'
p170
I526
sS'ATACGG'
p171
I68
sS'ATACAT'
p172
I26
sS'AGATGT'
p173
I142
sS'TCGCCC'
p174
I276
sS'ACTGCG'
p175
I381
sS'ATAGTC'
p176
I50
sS'TCGCCG'
p177
I170
sS'GGTAAT'
p178
I124
sS'ACCCAT'
p179
I124
sS'GTGTAT'
p180
I150
sS'ACCCAC'
p181
I815
sS'GGTAAC'
p182
I571
sS'ACCCAA'
p183
I546
sS'AGATGG'
p184
I502
sS'ACCCAG'
p185
I1121
sS'GGTAAG'
p186
I746
sS'TCGCCT'
p187
I110
sS'AGATGC'
p188
I326
sS'GCTCAC'
p189
I696
sS'CCCCAT'
p190
I236
sS'TTGGGT'
p191
I231
sS'CACTAG'
p192
I1726
sS'CACTAA'
p193
I1526
sS'CACTAC'
p194
I1551
sS'CCCCAA'
p195
I907
sS'CCCCAC'
p196
I1858
sS'CCCCAG'
p197
I1985
sS'CACTAT'
p198
I326
sS'TTGGGG'
p199
I1375
sS'TCGGTT'
p200
I13
sS'TTGGGA'
p201
I741
sS'TTGGGC'
p202
I627
sS'ATAAAA'
p203
I236
sS'TGCCTG'
p204
I7567
sS'TGCAGA'
p205
I3205
sS'TTTCTG'
p206
I2844
sS'TGCAGC'
p207
I5185
sS'TTTCTA'
p208
I1279
sS'TGCCTA'
p209
I1827
sS'TGCAGG'
p210
I6126
sS'ACGCCT'
p211
I118
sS'GTATCT'
p212
I189
sS'TTTCTT'
p213
I343
sS'TGCCTT'
p214
I707
sS'TGCAGT'
p215
I1467
sS'ACGATG'
p216
I164
sS'ACAATT'
p217
I49
sS'AAGGAA'
p218
I1255
sS'TACAGT'
p219
I940
sS'AAGGAC'
p220
I1008
sS'AAGGAG'
p221
I2001
sS'ATATGC'
p222
I222
sS'ATATGA'
p223
I125
sS'TACGAA'
p224
I201
sS'ATATGG'
p225
I224
sS'GATGGA'
p226
I1493
sS'AAGGAT'
p227
I140
sS'AGGGCC'
p228
I1649
sS'TGGTTT'
p229
I199
sS'TGACTT'
p230
I47
sS'GGTCCC'
p231
I945
sS'GCCCAG'
p232
I3001
sS'CCACTG'
p233
I484
sS'GCCCAA'
p234
I951
sS'GGTCCG'
p235
I438
sS'AGGTCT'
p236
I460
sS'ATGGCG'
p237
I355
sS'AGACCC'
p238
I238
sS'CTTCGG'
p239
I1000
sS'TCTTGT'
p240
I361
sS'CTTCGC'
p241
I858
sS'CTTAGT'
p242
I324
sS'AGGTCC'
p243
I1212
sS'AGGTCA'
p244
I965
sS'AAAGTT'
p245
I61
sS'TCCGGC'
p246
I1310
sS'GGTCCT'
p247
I311
sS'TCCGGA'
p248
I699
sS'CTTAGC'
p249
I935
sS'TCTTGA'
p250
I740
sS'CTTAGA'
p251
I849
sS'TCTTGC'
p252
I1166
sS'CTTAGG'
p253
I1236
sS'ATTGTC'
p254
I190
sS'TCTTGG'
p255
I1451
sS'GCCTTT'
p256
I1235
sS'ATTTTG'
p257
I1554
sS'GAGGTG'
p258
I4847
sS'ATTTTA'
p259
I1227
sS'GAGGTA'
p260
I1208
sS'ATTTTC'
p261
I504
sS'TCCAGC'
p262
I3884
sS'TAGCAG'
p263
I754
sS'GATACT'
p264
I354
sS'TAGCAC'
p265
I482
sS'TAGCAA'
p266
I464
sS'TCCAGT'
p267
I816
sS'CGCTAA'
p268
I800
sS'GCCTTG'
p269
I8295
sS'TAGTGT'
p270
I340
sS'GCCTTA'
p271
I3242
sS'TTGACA'
p272
I465
sS'TAAATG'
p273
I837
sS'GATACG'
p274
I306
sS'TAGCAT'
p275
I134
sS'GATACC'
p276
I779
sS'GATTTC'
p277
I1774
sS'TGAGCT'
p278
I236
sS'ACGGAC'
p279
I64
sS'GATCAT'
p280
I179
sS'AAGACA'
p281
I1322
sS'AAGACC'
p282
I1117
sS'GTGGGC'
p283
I1302
sS'AAGACG'
p284
I663
sS'GATCAG'
p285
I1513
sS'TGAGCG'
p286
I275
sS'GATCAC'
p287
I1145
sS'TGAGCC'
p288
I480
sS'CGGGGA'
p289
I765
sS'AAGACT'
p290
I404
sS'GAAGGG'
p291
I2608
sS'CTTCCA'
p292
I1213
sS'GCGGTA'
p293
I192
sS'GCGGTG'
p294
I988
sS'CGGTGT'
p295
I210
sS'TCGTTA'
p296
I148
sS'TCGTTC'
p297
I114
sS'ATGTGG'
p298
I978
sS'TCGTTG'
p299
I361
sS'TTGGAG'
p300
I562
sS'GAGTTT'
p301
I366
sS'GCGGTT'
p302
I45
sS'ACTTGC'
p303
I713
sS'ATGTGA'
p304
I679
sS'ACTTGA'
p305
I592
sS'CGGTGG'
p306
I971
sS'ACTTGG'
p307
I951
sS'CGGTGA'
p308
I385
sS'CGGTGC'
p309
I744
sS'TTCCTA'
p310
I3161
sS'AACGTT'
p311
I142
sS'TTCCTC'
p312
I4264
sS'ACTGAC'
p313
I331
sS'CTTCCG'
p314
I972
sS'TGGGTT'
p315
I91
sS'TTCCTG'
p316
I9990
sS'TCCTTT'
p317
I1433
sS'CAGTTG'
p318
I1664
sS'TAGACG'
p319
I285
sS'TTCCTT'
p320
I1193
sS'TAGACC'
p321
I614
sS'TAGACA'
p322
I574
sS'TCCTTG'
p323
I8113
sS'TCCTTA'
p324
I4067
sS'TCCTTC'
p325
I5088
sS'ATCTCT'
p326
I819
sS'ACCGTT'
p327
I61
sS'TGGCGC'
p328
I663
sS'TTTACG'
p329
I231
sS'TGGCGA'
p330
I263
sS'TGGCGG'
p331
I933
sS'ATCTCG'
p332
I846
sS'ATCTCA'
p333
I1741
sS'ATCTCC'
p334
I2258
sS'GGCCAA'
p335
I1627
sS'GGCCAC'
p336
I1994
sS'ACCGTG'
p337
I850
sS'ACCGTA'
p338
I262
sS'GGCCAG'
p339
I2936
sS'ACCGTC'
p340
I233
sS'ACCGAC'
p341
I315
sS'CCACAG'
p342
I240
sS'GGCAGT'
p343
I1229
sS'CCATAA'
p344
I68
sS'CAAAGG'
p345
I1306
sS'CCATAC'
p346
I78
sS'CAAAGA'
p347
I702
sS'AGATTC'
p348
I160
sS'CAAAGC'
p349
I852
sS'CAACGT'
p350
I37
sS'GGCAGA'
p351
I3183
sS'GGCAGC'
p352
I5908
sS'AACGTA'
p353
I427
sS'GGCAGG'
p354
I8372
sS'CAACGC'
p355
I136
sS'GCACTA'
p356
I153
sS'CAACGA'
p357
I91
sS'CTAACC'
p358
I481
sS'CCATAT'
p359
I40
sS'CTAACG'
p360
I180
sS'GGGGGT'
p361
I246
sS'TACGCT'
p362
I209
sS'AGATTG'
p363
I393
sS'CGATCT'
p364
I38
sS'CTCTAG'
p365
I2976
sS'CTCTAA'
p366
I2238
sS'CTCTAC'
p367
I2322
sS'GGGGGG'
p368
I771
sS'TACGCA'
p369
I497
sS'TACGCC'
p370
I656
sS'GGGGGC'
p371
I1039
sS'CGATCG'
p372
I28
sS'GGGGGA'
p373
I812
sS'TACGCG'
p374
I416
sS'CTCTAT'
p375
I506
sS'GCGCAG'
p376
I359
sS'ACCGAA'
p377
I163
sS'CAGACC'
p378
I1296
sS'CAGACA'
p379
I1112
sS'CAGACG'
p380
I580
sS'TAGTTG'
p381
I1082
sS'ACTAGT'
p382
I84
sS'TAGTTC'
p383
I646
sS'TAGTTA'
p384
I782
sS'CAGACT'
p385
I360
sS'GCTAAG'
p386
I619
sS'TAGTTT'
p387
I207
sS'GCTAAC'
p388
I356
sS'GCTAAA'
p389
I344
sS'TGCATT'
p390
I429
sS'GCGAAA'
p391
I76
sS'AACCCT'
p392
I664
sS'AACCCC'
p393
I2017
sS'GGAGAG'
p394
I688
sS'AACCCA'
p395
I1633
sS'AACCCG'
p396
I1095
sS'TGCATC'
p397
I922
sS'AGATTT'
p398
I57
sS'AGTTTG'
p399
I2852
sS'CTACAC'
p400
I144
sS'AACTGA'
p401
I2477
sS'AACTGC'
p402
I3692
sS'CCCAGA'
p403
I2583
sS'CCCAGC'
p404
I5323
sS'CCCAGG'
p405
I6129
sS'AACTGT'
p406
I1116
sS'AGTTTT'
p407
I248
sS'CTACAT'
p408
I67
sS'CGAGTC'
p409
I84
sS'CCCAGT'
p410
I972
sS'TTGACG'
p411
I188
sS'CGCATA'
p412
I330
sS'ATACTG'
p413
I221
sS'CGCATC'
p414
I450
sS'ATACTA'
p415
I97
sS'ATACTC'
p416
I49
sS'CGCATG'
p417
I1571
sS'GCGCAA'
p418
I106
sS'GCGAAT'
p419
I27
sS'ATACTT'
p420
I29
sS'CTTTTC'
p421
I1981
sS'GCGCAC'
p422
I222
sS'GCTCCG'
p423
I914
sS'TATTGT'
p424
I672
sS'GCTCCC'
p425
I1223
sS'AACCGG'
p426
I1362
sS'CCTACT'
p427
I217
sS'TGTACT'
p428
I213
sS'TTTAGT'
p429
I282
sS'TATTGG'
p430
I1604
sS'GCTCCT'
p431
I613
sS'TATTGC'
p432
I1079
sS'TATTGA'
p433
I989
sS'TTTAGG'
p434
I1036
sS'TGTACG'
p435
I209
sS'CCTACG'
p436
I240
sS'TGTACA'
p437
I356
sS'CCTACA'
p438
I433
sS'TGTACC'
p439
I429
sS'TTTAGA'
p440
I752
sS'TTCGCG'
p441
I507
sS'TTCGCA'
p442
I496
sS'TTCGCC'
p443
I905
sS'CGTACA'
p444
I159
sS'GACTAA'
p445
I2103
sS'AGTATA'
p446
I278
sS'GACTAC'
p447
I2368
sS'AGTATG'
p448
I616
sS'TTTGGA'
p449
I720
sS'TTTGGC'
p450
I606
sS'TTCGCT'
p451
I273
sS'TTTGGT'
p452
I212
sS'GACTAT'
p453
I463
sS'AGTATT'
p454
I99
sS'CAAGTC'
p455
I194
sS'TTACTC'
p456
I135
sS'TTACTA'
p457
I192
sS'ACCACA'
p458
I1298
sS'ACCTTG'
p459
I4186
sS'ACCTTC'
p460
I1921
sS'ACCTTA'
p461
I1814
sS'CTAATA'
p462
I298
sS'GTAAAC'
p463
I255
sS'ACGCTT'
p464
I44
sS'ACCTTT'
p465
I461
sS'ACAGGG'
p466
I567
sS'CTGGGA'
p467
I2207
sS'CTGGGC'
p468
I2027
sS'ACAGGC'
p469
I360
sS'ACAGGA'
p470
I574
sS'CTGGGG'
p471
I3013
sS'AGGACG'
p472
I781
sS'GCAGCT'
p473
I684
sS'CAGGAA'
p474
I926
sS'TTTCAT'
p475
I193
sS'CAGGAG'
p476
I1484
sS'AGGACA'
p477
I1162
sS'GCGCAT'
p478
I47
sS'TTATAC'
p479
I85
sS'ACAGGT'
p480
I191
sS'CTGGGT'
p481
I648
sS'TTATAG'
p482
I125
sS'TCGCTG'
p483
I564
sS'GCAGCG'
p484
I928
sS'AGGACT'
p485
I493
sS'GCAGCA'
p486
I1206
sS'GCAGCC'
p487
I1208
sS'CAGGAT'
p488
I127
sS'CCTCAG'
p489
I1196
sS'CCTCAA'
p490
I501
sS'CCTCAC'
p491
I779
sS'TATGTT'
p492
I117
sS'ATGGGC'
p493
I432
sS'TCTTTG'
p494
I4038
sS'ATGGGA'
p495
I640
sS'TCTTTA'
p496
I2027
sS'ATGGGG'
p497
I948
sS'TCTTTC'
p498
I1618
sS'CCTCAT'
p499
I139
sS'TCTTTT'
p500
I390
sS'TATGTG'
p501
I1366
sS'TATGTA'
p502
I876
sS'ATGGGT'
p503
I147
sS'TATGTC'
p504
I299
sS'GAAAGA'
p505
I1619
sS'ATCAAG'
p506
I883
sS'GAAAGC'
p507
I1577
sS'ATCAAC'
p508
I636
sS'GAAAGG'
p509
I3087
sS'ATCAAA'
p510
I710
sS'GGAACT'
p511
I182
sS'CGCTAG'
p512
I1094
sS'CATGAG'
p513
I776
sS'ATCAAT'
p514
I172
sS'TCAAAC'
p515
I157
sS'CATGAC'
p516
I648
sS'CATGAA'
p517
I534
sS'TGACCT'
p518
I141
sS'GTAGCG'
p519
I261
sS'CAAGTT'
p520
I68
sS'GCTTTG'
p521
I4568
sS'GCTTTA'
p522
I1769
sS'GCTTTC'
p523
I1311
sS'ACGTGT'
p524
I94
sS'GAGGAT'
p525
I270
sS'GCGGCG'
p526
I947
sS'CAAGTG'
p527
I624
sS'GTAGCT'
p528
I272
sS'GCGGCC'
p529
I1001
sS'TAAGCG'
p530
I203
sS'GCGGCA'
p531
I484
sS'CAAGTA'
p532
I222
sS'ATTGCT'
p533
I151
sS'CGTACG'
p534
I150
sS'GGGGAA'
p535
I483
sS'TAATCG'
p536
I83
sS'GGTCTT'
p537
I173
sS'TAATCA'
p538
I308
sS'TAATCC'
p539
I327
sS'GGGTTT'
p540
I205
sS'CGGCCC'
p541
I1225
sS'CGACTA'
p542
I50
sS'CGGCCA'
p543
I580
sS'CGCTAT'
p544
I176
sS'CGGCCG'
p545
I734
sS'TCGTGA'
p546
I101
sS'ATGAAG'
p547
I441
sS'GGTCTG'
p548
I2492
sS'TAATCT'
p549
I112
sS'GGTCTC'
p550
I902
sS'GGTCTA'
p551
I622
sS'AAAATG'
p552
I678
sS'AAAATC'
p553
I108
sS'TCAATA'
p554
I156
sS'CGGCCT'
p555
I336
sS'TTCAGC'
p556
I3478
sS'ATCCCT'
p557
I451
sS'TTCAGG'
p558
I4111
sS'GAACAT'
p559
I38
sS'TCGTCG'
p560
I107
sS'TTTAGC'
p561
I715
sS'TGCCAA'
p562
I1042
sS'TCGGGA'
p563
I194
sS'GAACAA'
p564
I285
sS'ATCCCG'
p565
I650
sS'GAACAC'
p566
I239
sS'ATCCCC'
p567
I1202
sS'GAACAG'
p568
I413
sS'ATCCCA'
p569
I1062
sS'GCACTT'
p570
I113
sS'ATTGCA'
p571
I349
sS'CACCAC'
p572
I1931
sS'CACCAA'
p573
I1244
sS'CACCAG'
p574
I2112
sS'TCCGTG'
p575
I1367
sS'ATTGCG'
p576
I129
sS'TCCGTC'
p577
I511
sS'TCCGTA'
p578
I434
sS'ACCAGA'
p579
I1081
sS'CACCAT'
p580
I305
sS'AACATG'
p581
I2247
sS'AACATA'
p582
I1055
sS'AACATC'
p583
I875
sS'GTCAGC'
p584
I3375
sS'GCACGG'
p585
I211
sS'GTCAGA'
p586
I2167
sS'GCACGA'
p587
I90
sS'CAGTCC'
p588
I1795
sS'GCACGC'
p589
I174
sS'CAGTCA'
p590
I1244
sS'AACAAC'
p591
I1742
sS'GCAAGC'
p592
I383
sS'GCACGT'
p593
I87
sS'CAGTCT'
p594
I539
sS'GCAAGG'
p595
I776
sS'GTCAGT'
p596
I981
sS'GTATAC'
p597
I88
sS'TTCCGT'
p598
I416
sS'CCACCA'
p599
I542
sS'GTATAG'
p600
I97
sS'CCGGAA'
p601
I159
sS'CCGGAC'
p602
I135
sS'CCGGAG'
p603
I281
sS'TATCAT'
p604
I138
sS'CTCGTA'
p605
I466
sS'TTCCGG'
p606
I2865
sS'TTCCGA'
p607
I773
sS'TTCCGC'
p608
I2355
sS'GTATAT'
p609
I45
sS'CGTCTC'
p610
I722
sS'TATCAA'
p611
I530
sS'CGTCTG'
p612
I1658
sS'CCGGAT'
p613
I28
sS'CTCTTC'
p614
I7050
sS'TGTTAT'
p615
I256
sS'CTCTTA'
p616
I4762
sS'CTCTTG'
p617
I9469
sS'CCCGAT'
p618
I54
sS'TACGTA'
p619
I432
sS'CTGACA'
p620
I854
sS'TACGTC'
p621
I393
sS'TCTGGT'
p622
I193
sS'AACAAA'
p623
I2928
sS'CGCGAT'
p624
I74
sS'TACGTG'
p625
I950
sS'TGTTAG'
p626
I851
sS'GCTGTT'
p627
I152
sS'TGTTAC'
p628
I751
sS'CTCTTT'
p629
I2032
sS'TGTTAA'
p630
I1029
sS'CGCGAA'
p631
I333
sS'CGCGAC'
p632
I650
sS'GATATT'
p633
I145
sS'TCTGGC'
p634
I749
sS'TACGTT'
p635
I86
sS'CGCGAG'
p636
I1129
sS'AGTCGT'
p637
I144
sS'TTACCT'
p638
I169
sS'CTCCAT'
p639
I451
sS'TTACCG'
p640
I110
sS'CTCCAC'
p641
I2909
sS'CTCCAA'
p642
I1900
sS'TTACCC'
p643
I195
sS'CTCCAG'
p644
I4077
sS'TTACCA'
p645
I245
sS'AGTCGC'
p646
I799
sS'CAAATG'
p647
I702
sS'CCGACT'
p648
I83
sS'GCCTAC'
p649
I1444
sS'GCCTAA'
p650
I1280
sS'GCCTAG'
p651
I2037
sS'CCGACA'
p652
I118
sS'GATATC'
p653
I265
sS'CCGACC'
p654
I326
sS'CCGACG'
p655
I124
sS'GCCTAT'
p656
I278
sS'TGACGG'
p657
I90
sS'ACGCTC'
p658
I142
sS'AGGGCG'
p659
I1115
sS'CTCGTT'
p660
I142
sS'CTAAGT'
p661
I201
sS'CCCGAA'
p662
I310
sS'CGGTTT'
p663
I75
sS'CGCACA'
p664
I1153
sS'ATACAC'
p665
I74
sS'CGCACC'
p666
I1676
sS'GGGTCG'
p667
I488
sS'ACTGCT'
p668
I206
sS'GGGTCA'
p669
I779
sS'CGCACG'
p670
I1153
sS'GGGTCC'
p671
I1278
sS'GAGCGT'
p672
I406
sS'CTCACT'
p673
I1478
sS'TTTGTA'
p674
I904
sS'ACTGCA'
p675
I612
sS'TTTGTC'
p676
I515
sS'ACTGCC'
p677
I519
sS'CGCACT'
p678
I545
sS'TTTGTG'
p679
I1837
sS'TAGAGC'
p680
I1108
sS'CTCACC'
p681
I4059
sS'CTCACA'
p682
I2791
sS'CTCACG'
p683
I1470
sS'TAGTGG'
p684
I1158
sS'GTGAGG'
p685
I2525
sS'GATTTT'
p686
I389
sS'TAGTGC'
p687
I839
sS'GTGAGC'
p688
I1281
sS'TAGTGA'
p689
I726
sS'GTGAGA'
p690
I1031
sS'TCGACG'
p691
I68
sS'TCGACA'
p692
I49
sS'TCGACC'
p693
I135
sS'GATTTG'
p694
I4468
sS'GTGAGT'
p695
I473
sS'GTGGGG'
p696
I3252
sS'GTGGGA'
p697
I1569
sS'GATTTA'
p698
I2530
sS'TCGACT'
p699
I35
sS'CTGGTT'
p700
I142
sS'TTGAGT'
p701
I225
sS'TCAAAA'
p702
I127
sS'CGAACG'
p703
I78
sS'CGAACC'
p704
I171
sS'CGAACA'
p705
I113
sS'CTGGTG'
p706
I1854
sS'CTGGTA'
p707
I563
sS'CTGGTC'
p708
I428
sS'CGAACT'
p709
I57
sS'TTGCAT'
p710
I194
sS'NNGAAT'
p711
I2
sS'CGTCTT'
p712
I121
sS'TTGCAG'
p713
I854
sS'TCCATA'
p714
I901
sS'TTGCAC'
p715
I466
sS'TTGCAA'
p716
I460
sS'AAGATC'
p717
I285
sS'ACGTAC'
p718
I57
sS'TCCATC'
p719
I960
sS'TCGCAT'
p720
I15
sS'GTCGTG'
p721
I998
sS'GTCGTA'
p722
I361
sS'GTCGTC'
p723
I370
sS'CCGTTT'
p724
I58
sS'ACTGAT'
p725
I60
sS'ATATCG'
p726
I53
sS'GTCGTT'
p727
I90
sS'TCAGAT'
p728
I40
sS'TCGCAG'
p729
I137
sS'TCCATG'
p730
I2395
sS'TCGCAC'
p731
I78
sS'CCGTTG'
p732
I418
sS'CCGTTA'
p733
I225
sS'CCGTTC'
p734
I179
sS'AATGCT'
p735
I378
sS'GGTACG'
p736
I155
sS'GGTACA'
p737
I329
sS'GGTACC'
p738
I479
sS'TATTTG'
p739
I3850
sS'CCAGTT'
p740
I87
sS'TATTTC'
p741
I1465
sS'TATTTA'
p742
I3293
sS'CCCCCT'
p743
I649
sS'GGTACT'
p744
I180
sS'AATGCG'
p745
I541
sS'AATCTT'
p746
I210
sS'AATGCC'
p747
I964
sS'AATGCA'
p748
I1317
sS'CCCCCC'
p749
I951
sS'CCCCCA'
p750
I1574
sS'TATTTT'
p751
I518
sS'CCCCCG'
p752
I1137
sS'GAGCGA'
p753
I1402
sS'CTTGAG'
p754
I841
sS'ATGATG'
p755
I675
sS'ATGATA'
p756
I232
sS'CTTGAA'
p757
I581
sS'CGGACT'
p758
I140
sS'TGCAAC'
p759
I1279
sS'TGCAAA'
p760
I1924
sS'TGCAAG'
p761
I2002
sS'GCCGTC'
p762
I594
sS'ATGATT'
p763
I79
sS'CTTGAT'
p764
I102
sS'CGAATC'
p765
I63
sS'TTGAGG'
p766
I1108
sS'AATCTC'
p767
I870
sS'TTGAGC'
p768
I622
sS'TTGAGA'
p769
I625
sS'GAGAAT'
p770
I354
sS'TGTCTT'
p771
I278
sS'CGAATA'
p772
I59
sS'TTCAGA'
p773
I2462
sS'AGTAGC'
p774
I868
sS'AAGGCC'
p775
I2137
sS'ATAACC'
p776
I165
sS'AAGGCA'
p777
I1917
sS'ATAACA'
p778
I265
sS'AAGGCG'
p779
I1254
sS'ATAACG'
p780
I72
sS'TATGCT'
p781
I197
sS'ACTCCA'
p782
I493
sS'TGTCTG'
p783
I3422
sS'GAGAAG'
p784
I3865
sS'GAGAAA'
p785
I2134
sS'TGTCTC'
p786
I1327
sS'GAGAAC'
p787
I1724
sS'TGTCTA'
p788
I885
sS'TGTGGC'
p789
I1167
sS'TGTGGA'
p790
I749
sS'TGTGGG'
p791
I1674
sS'ATAACT'
p792
I87
sS'AAGGCT'
p793
I629
sS'TAGGCT'
p794
I292
sS'CAATTT'
p795
I38
sS'AGGTAT'
p796
I99
sS'ACCAAG'
p797
I1099
sS'GGTCAG'
p798
I948
sS'GCCCCC'
p799
I2465
sS'AAGCAG'
p800
I1727
sS'ACCAAC'
p801
I726
sS'GGTCAC'
p802
I758
sS'GATCGC'
p803
I970
sS'GGTCAT'
p804
I88
sS'ACCAAT'
p805
I367
sS'GCCCCT'
p806
I1013
sS'GAACTG'
p807
I979
sS'CGTGCG'
p808
I536
sS'AGGTAC'
p809
I332
sS'TTTTGC'
p810
I1386
sS'TCTTAC'
p811
I455
sS'AATTGG'
p812
I1306
sS'TCTTAA'
p813
I582
sS'TTTTGG'
p814
I1334
sS'TCTTAG'
p815
I664
sS'AATTGC'
p816
I1223
sS'TAGCCA'
p817
I705
sS'TGGGGT'
p818
I266
sS'CGCTCG'
p819
I2042
sS'GATAAT'
p820
I249
sS'CGCTCA'
p821
I2126
sS'CGCTCC'
p822
I4771
sS'AATTGT'
p823
I438
sS'CGAGAG'
p824
I247
sS'GCCATC'
p825
I912
sS'TCTTAT'
p826
I131
sS'CATTTC'
p827
I2147
sS'CGCTCT'
p828
I1188
sS'TGGGGG'
p829
I1459
sS'GATAAC'
p830
I709
sS'TAGCCT'
p831
I303
sS'TGGGGC'
p832
I1079
sS'TGGGGA'
p833
I914
sS'GATCCT'
p834
I488
sS'AAGAAT'
p835
I252
sS'GGGGCT'
p836
I494
sS'GTTATC'
p837
I171
sS'AAGAAC'
p838
I949
sS'GATCCA'
p839
I917
sS'AAGAAA'
p840
I1316
sS'GATCCC'
p841
I1468
sS'AAGAAG'
p842
I1724
sS'GATCCG'
p843
I778
sS'GCCCCA'
p844
I2282
sS'TATTAA'
p845
I920
sS'AAGCAT'
p846
I201
sS'CAAGGG'
p847
I951
sS'CAAGGC'
p848
I781
sS'GGTTCT'
p849
I411
sS'CAAGGA'
p850
I842
sS'GGTTCA'
p851
I818
sS'GGTTCC'
p852
I1463
sS'CAAGGT'
p853
I301
sS'GGTTCG'
p854
I596
sS'CTGTAT'
p855
I159
sS'ATTATA'
p856
I289
sS'ATTATC'
p857
I127
sS'TAGAAT'
p858
I149
sS'CAAACG'
p859
I208
sS'ATTATG'
p860
I441
sS'AGTCTT'
p861
I239
sS'TAGAAA'
p862
I605
sS'TAGAAC'
p863
I529
sS'ATTATT'
p864
I70
sS'TAGAAG'
p865
I877
sS'AGTCTA'
p866
I724
sS'AGTCTC'
p867
I1115
sS'AGTCTG'
p868
I2657
sS'TAACTC'
p869
I160
sS'TAACTA'
p870
I186
sS'TAACTG'
p871
I446
sS'ATCTAT'
p872
I182
sS'ACGCGT'
p873
I33
sS'GCCCCG'
p874
I2667
sS'TAACTT'
p875
I37
sS'ATCTAG'
p876
I776
sS'CTAGGA'
p877
I724
sS'ATCTAC'
p878
I729
sS'ATCTAA'
p879
I784
sS'CCATGT'
p880
I219
sS'ACCAAA'
p881
I632
sS'TGGAGG'
p882
I2671
sS'TGGAGA'
p883
I1166
sS'TGGAGC'
p884
I1345
sS'CCATGC'
p885
I304
sS'CCATGA'
p886
I219
sS'CCATGG'
p887
I493
sS'TGGAGT'
p888
I471
sS'ATTACG'
p889
I107
sS'TCAGTA'
p890
I151
sS'TCAGTC'
p891
I116
sS'CTCTCT'
p892
I3253
sS'GGGGAT'
p893
I134
sS'TCAGTG'
p894
I525
sS'CGATAT'
p895
I11
sS'CTCTCG'
p896
I2961
sS'GGGGAC'
p897
I555
sS'CTCTCC'
p898
I10037
sS'TCAGTT'
p899
I55
sS'GGGGAG'
p900
I1300
sS'CGATAG'
p901
I28
sS'CGATAA'
p902
I16
sS'CGATAC'
p903
I21
sS'CTAAGG'
p904
I804
sS'GTGTTT'
p905
I369
sS'GCTACT'
p906
I197
sS'GTGGTT'
p907
I147
sS'GTGTTC'
p908
I927
sS'GTGTTA'
p909
I1136
sS'GTGTTG'
p910
I2455
sS'CGTGCC'
p911
I484
sS'GTGGTA'
p912
I556
sS'GCTACA'
p913
I366
sS'GTGGTC'
p914
I432
sS'GCTACC'
p915
I430
sS'GTGGTG'
p916
I2103
sS'GCTACG'
p917
I259
sS'CGTGCA'
p918
I427
sS'TTTCGT'
p919
I96
sS'TGCCCT'
p920
I928
sS'AGCGTT'
p921
I164
sS'AGGTAA'
p922
I380
sS'TGCCCC'
p923
I2499
sS'TGCCCA'
p924
I1806
sS'TGCCCG'
p925
I1387
sS'TTTCGG'
p926
I518
sS'AGCGTA'
p927
I522
sS'AGCGTC'
p928
I725
sS'GTACGT'
p929
I42
sS'AGCGTG'
p930
I2042
sS'GGCCCC'
p931
I2703
sS'CAGAAA'
p932
I703
sS'GGCCCA'
p933
I1718
sS'CACGTG'
p934
I3282
sS'GGCCCG'
p935
I1848
sS'CACGTA'
p936
I692
sS'CACGTC'
p937
I618
sS'ACGTGC'
p938
I281
sS'ACGTGA'
p939
I280
sS'ACGTGG'
p940
I479
sS'ACAGTC'
p941
I100
sS'CACGTT'
p942
I161
sS'TTCACG'
p943
I828
sS'GNCCCA'
p944
I1
sS'GGCCCT'
p945
I835
sS'GGGACA'
p946
I925
sS'AATTGA'
p947
I956
sS'GGGACC'
p948
I1327
sS'TCGTGG'
p949
I266
sS'GGGACG'
p950
I840
sS'TTTCCT'
p951
I634
sS'AGAGAG'
p952
I679
sS'AGAGAA'
p953
I449
sS'AGAGAC'
p954
I289
sS'TTCACC'
p955
I2137
sS'GTCTTT'
p956
I1442
sS'TCTATC'
p957
I172
sS'TCTATG'
p958
I589
sS'AGAGAT'
p959
I80
sS'TCGTGC'
p960
I217
sS'GTCTTG'
p961
I6533
sS'GCGATC'
p962
I74
sS'TCTATT'
p963
I76
sS'GTCTTC'
p964
I3904
sS'GTCTTA'
p965
I3008
sS'GCAGAG'
p966
I747
sS'CGATTG'
p967
I183
sS'TAGCCC'
p968
I854
sS'GCAGAC'
p969
I242
sS'GCAGAA'
p970
I538
sS'GCTCAG'
p971
I1294
sS'AGACGT'
p972
I53
sS'ATGCGT'
p973
I67
sS'TTGCTG'
p974
I3582
sS'TTGCTA'
p975
I1217
sS'TTGCTC'
p976
I1237
sS'GCAGAT'
p977
I96
sS'GCTCAT'
p978
I132
sS'CGAATT'
p979
I16
sS'GTACGG'
p980
I125
sS'TTGCTT'
p981
I403
sS'ATGCGG'
p982
I296
sS'TAGCCG'
p983
I377
sS'ATGCGC'
p984
I358
sS'TATATG'
p985
I718
sS'TGTAAG'
p986
I820
sS'GGCTAG'
p987
I1900
sS'TGTAAC'
p988
I651
sS'GGCTAC'
p989
I1511
sS'GACTGT'
p990
I1923
sS'GGCTAA'
p991
I1471
sS'ACTGTA'
p992
I424
sS'TTGGTA'
p993
I387
sS'ACTGTC'
p994
I225
sS'TTGGTC'
p995
I298
sS'TTCGAC'
p996
I267
sS'ACTGTG'
p997
I1193
sS'TTGGTG'
p998
I1111
sS'GACTGC'
p999
I6614
sS'GGCTAT'
p1000
I242
sS'GACTGA'
p1001
I4747
sS'GACTGG'
p1002
I7482
sS'TGTAAT'
p1003
I210
sS'TGTGGT'
p1004
I271
sS'TTGGTT'
p1005
I107
sS'ACTGTT'
p1006
I63
sS'GTTTCT'
p1007
I651
sS'GAATGA'
p1008
I707
sS'TTTTGT'
p1009
I744
sS'CCTTTT'
p1010
I426
sS'GTTTCG'
p1011
I461
sS'GTTTCC'
p1012
I1855
sS'GATAAA'
p1013
I1094
sS'ATAATG'
p1014
I322
sS'CCTTTA'
p1015
I2374
sS'CCTTTC'
p1016
I1946
sS'CGTTTA'
p1017
I615
sS'ATAATA'
p1018
I220
sS'CCTTTG'
p1019
I4709
sS'ACAGAA'
p1020
I284
sS'ACAGAC'
p1021
I159
sS'ACAGAG'
p1022
I339
sS'TTATCT'
p1023
I187
sS'CTGGAC'
p1024
I538
sS'CTGGAA'
p1025
I698
sS'CTGGAG'
p1026
I1209
sS'GTCGAT'
p1027
I53
sS'CAAAGT'
p1028
I217
sS'GATAAG'
p1029
I1129
sS'TTATCA'
p1030
I248
sS'CTGGAT'
p1031
I141
sS'TTATCC'
p1032
I328
sS'CCAATG'
p1033
I617
sS'AAACCG'
p1034
I122
sS'AAACCA'
p1035
I293
sS'CCAATC'
p1036
I238
sS'AAACCC'
p1037
I277
sS'CCAATA'
p1038
I246
sS'TGTCGG'
p1039
I680
sS'GAGATC'
p1040
I627
sS'CCCTAT'
p1041
I242
sS'GAGATA'
p1042
I916
sS'TGTCGC'
p1043
I718
sS'GAGATG'
p1044
I2972
sS'AACGAC'
p1045
I474
sS'ATTTGA'
p1046
I785
sS'CCAATT'
p1047
I67
sS'ATTTGC'
p1048
I1030
sS'GGGTAT'
p1049
I87
sS'ATTTGG'
p1050
I846
sS'CCCTAG'
p1051
I1646
sS'TGTCGT'
p1052
I150
sS'CCCTAC'
p1053
I1472
sS'CATGGA'
p1054
I672
sS'CCCTAA'
p1055
I1241
sS'CATTAT'
p1056
I251
sS'ACTTCA'
p1057
I740
sS'ATCACA'
p1058
I1186
sS'ATCACC'
p1059
I1141
sS'CATGCT'
p1060
I348
sS'TGACAC'
p1061
I86
sS'ATCACG'
p1062
I499
sS'TGGATA'
p1063
I368
sS'CATTAG'
p1064
I1170
sS'CATTAA'
p1065
I1000
sS'TGGATG'
p1066
I1067
sS'CATGCA'
p1067
I987
sS'TGACAT'
p1068
I41
sS'CATGCC'
p1069
I906
sS'ATCACT'
p1070
I452
sS'CATGCG'
p1071
I684
sS'GTAGAA'
p1072
I339
sS'GTAGAC'
p1073
I138
sS'CCGCTT'
p1074
I91
sS'GTAGAG'
p1075
I352
sS'GATTGG'
p1076
I4902
sS'ACAACC'
p1077
I186
sS'GATTGC'
p1078
I1807
sS'GATTGA'
p1079
I1593
sS'TAAATT'
p1080
I86
sS'ACTAAG'
p1081
I363
sS'GTAGAT'
p1082
I81
sS'TGCTAC'
p1083
I1454
sS'TTGCCT'
p1084
I702
sS'TGATGC'
p1085
I248
sS'CATGGC'
p1086
I1017
sS'GATTGT'
p1087
I685
sS'ACAACT'
p1088
I90
sS'ATACGC'
p1089
I58
sS'TAATAG'
p1090
I136
sS'GTCCGG'
p1091
I2095
sS'TAATAC'
p1092
I105
sS'GTCCGA'
p1093
I732
sS'TAATAA'
p1094
I189
sS'GTCCGC'
p1095
I2200
sS'TGCCAT'
p1096
I298
sS'ACTCTT'
p1097
I132
sS'GTCCGT'
p1098
I332
sS'TAATAT'
p1099
I50
sS'CGTAAC'
p1100
I199
sS'ATTCGC'
p1101
I235
sS'TTCTCC'
p1102
I6637
sS'ATTCGA'
p1103
I152
sS'TTCTCA'
p1104
I4291
sS'ATTCGG'
p1105
I229
sS'TTCTCG'
p1106
I1984
sS'TCGTAC'
p1107
I33
sS'TACCTT'
p1108
I428
sS'TCGTAA'
p1109
I37
sS'TCGTAG'
p1110
I72
sS'TCGTCA'
p1111
I138
sS'GAACCT'
p1112
I165
sS'TGAACG'
p1113
I128
sS'ATCCAC'
p1114
I697
sS'TGAACC'
p1115
I278
sS'TTCTCT'
p1116
I2705
sS'ATCCAG'
p1117
I911
sS'GAACCC'
p1118
I376
sS'TTATAT'
p1119
I74
sS'TACCTG'
p1120
I3963
sS'TACCTA'
p1121
I1352
sS'TACCTC'
p1122
I1450
sS'TCGTAT'
p1123
I15
sS'ACCATC'
p1124
I475
sS'ACCATA'
p1125
I532
sS'ACCATG'
p1126
I1427
sS'ATGTTG'
p1127
I1218
sS'AGCTCT'
p1128
I1976
sS'TGTCCT'
p1129
I402
sS'AGTGGT'
p1130
I259
sS'ATGAGC'
p1131
I516
sS'ATGTTT'
p1132
I170
sS'ACCATT'
p1133
I173
sS'CGTAAA'
p1134
I213
sS'AGCTCG'
p1135
I2222
sS'AGTGGC'
p1136
I954
sS'AGCTCC'
p1137
I6593
sS'AGTGGG'
p1138
I1559
sS'ATAGCC'
p1139
I200
sS'CAGTAA'
p1140
I417
sS'CAGTAC'
p1141
I395
sS'CAGTAG'
p1142
I551
sS'TTTCAC'
p1143
I751
sS'CAGTAT'
p1144
I107
sS'GTTCCT'
p1145
I427
sS'TTTCAA'
p1146
I788
sS'AAAGTG'
p1147
I731
sS'GATCTA'
p1148
I1017
sS'GATCTC'
p1149
I1288
sS'ATTGAC'
p1150
I231
sS'GATCTG'
p1151
I3592
sS'TCCCTT'
p1152
I650
sS'CCGGCC'
p1153
I887
sS'CCGGCA'
p1154
I368
sS'GTTCCA'
p1155
I559
sS'CACATT'
p1156
I448
sS'GTTCCC'
p1157
I840
sS'TCCCTC'
p1158
I3182
sS'GAGCTT'
p1159
I467
sS'TCCCTA'
p1160
I2009
sS'TTAATG'
p1161
I607
sS'TCCCTG'
p1162
I6746
sS'GATCTT'
p1163
I294
sS'CACAAT'
p1164
I388
sS'AAGTGC'
p1165
I1462
sS'TGTTCT'
p1166
I722
sS'AAGTGG'
p1167
I1884
sS'TGATTG'
p1168
I568
sS'TGATTC'
p1169
I147
sS'TGTATT'
p1170
I127
sS'TGATTA'
p1171
I218
sS'TGTTCA'
p1172
I1124
sS'CACAAG'
p1173
I1982
sS'TGTTCC'
p1174
I1594
sS'CACAAA'
p1175
I1710
sS'CACAAC'
p1176
I1476
sS'TGTTCG'
p1177
I538
sS'TCTGAA'
p1178
I387
sS'TCTGAC'
p1179
I491
sS'GAAGTC'
p1180
I353
sS'TCTGAG'
p1181
I790
sS'CGCGCC'
p1182
I2419
sS'CGCGCA'
p1183
I1323
sS'GGTAAA'
p1184
I533
sS'CGCGCG'
p1185
I1751
sS'CTCCCT'
p1186
I2222
sS'AGCGGG'
p1187
I2497
sS'AGCGGA'
p1188
I1015
sS'AGCGGC'
p1189
I2007
sS'AGATGA'
p1190
I246
sS'GAAATA'
p1191
I536
sS'GACATT'
p1192
I481
sS'CGCGCT'
p1193
I577
sS'ACCTCC'
p1194
I2873
sS'CTCCCG'
p1195
I3236
sS'CTCCCA'
p1196
I3992
sS'CTCCCC'
p1197
I5907
sS'GCCTCT'
p1198
I1882
sS'TAAGCC'
p1199
I433
sS'CGGGAG'
p1200
I705
sS'TAAGCA'
p1201
I504
sS'CGGGAA'
p1202
I271
sS'CCCATA'
p1203
I909
sS'TAGCTG'
p1204
I1923
sS'CCCATC'
p1205
I1078
sS'CCGAGA'
p1206
I212
sS'CCTGCT'
p1207
I534
sS'CCGAAT'
p1208
I20
sS'CCCATT'
p1209
I480
sS'CGGGAT'
p1210
I69
sS'GCCTCG'
p1211
I3099
sS'GCCTCA'
p1212
I3773
sS'TAAGCT'
p1213
I158
sS'GCCTCC'
p1214
I7467
sS'CCGAAC'
p1215
I91
sS'CCTGCG'
p1216
I915
sS'CCGAAA'
p1217
I46
sS'CCGAAG'
p1218
I167
sS'CCTGCC'
p1219
I1572
sS'CCTGCA'
p1220
I1244
sS'GTACTG'
p1221
I410
sS'CCATTC'
p1222
I233
sS'CCATTA'
p1223
I265
sS'CCATTG'
p1224
I794
sS'TATAAC'
p1225
I392
sS'TAACGA'
p1226
I63
sS'TATAAT'
p1227
I165
sS'CCATTT'
p1228
I77
sS'TCTACA'
p1229
I348
sS'TCTACC'
p1230
I487
sS'TCTACG'
p1231
I158
sS'CACCGT'
p1232
I337
sS'CGCAAC'
p1233
I713
sS'TGCTTA'
p1234
I3778
sS'CGCAAA'
p1235
I544
sS'ATACCG'
p1236
I41
sS'CGCAAG'
p1237
I1002
sS'ATACCA'
p1238
I122
sS'ATACCC'
p1239
I118
sS'TCTACT'
p1240
I145
sS'CCGAGT'
p1241
I85
sS'ATACCT'
p1242
I87
sS'CGCAAT'
p1243
I137
sS'TAGTAA'
p1244
I342
sS'ATTTCT'
p1245
I283
sS'TAGTAC'
p1246
I253
sS'CTCAAG'
p1247
I2272
sS'CTCAAA'
p1248
I1702
sS'TAGTAG'
p1249
I380
sS'CTCAAC'
p1250
I1538
sS'GTGTGC'
p1251
I1713
sS'GTGTGA'
p1252
I1316
sS'GTGTGG'
p1253
I2801
sS'TAACGG'
p1254
I127
sS'TTGCGT'
p1255
I98
sS'CTCAAT'
p1256
I362
sS'ATTACA'
p1257
I517
sS'AGAATT'
p1258
I64
sS'TAGTAT'
p1259
I98
sS'GTGTGT'
p1260
I1186
sS'ATCTTT'
p1261
I516
sS'GTTGGG'
p1262
I1274
sS'GTTGGA'
p1263
I637
sS'GTTGGC'
p1264
I640
sS'CCTTGG'
p1265
I2050
sS'CCTTGA'
p1266
I1014
sS'GCGTAT'
p1267
I18
sS'AGGATT'
p1268
I149
sS'GGACGT'
p1269
I42
sS'GTTGGT'
p1270
I221
sS'ATCTTG'
p1271
I4076
sS'ATCTTA'
p1272
I1986
sS'ATCTTC'
p1273
I1833
sS'AGGATC'
p1274
I347
sS'AGGATA'
p1275
I515
sS'AAACTA'
p1276
I284
sS'AGGATG'
p1277
I1869
sS'GACATG'
p1278
I2875
sS'GACATC'
p1279
I1228
sS'GACATA'
p1280
I1096
sS'TCGGCG'
p1281
I216
sS'GAATAT'
p1282
I47
sS'GGTGCA'
p1283
I575
sS'TCGGCC'
p1284
I406
sS'CATAGC'
p1285
I716
sS'TTGCGA'
p1286
I143
sS'TTGCGC'
p1287
I388
sS'TTGCGG'
p1288
I398
sS'GAATAG'
p1289
I226
sS'TCGGCT'
p1290
I98
sS'ATCAGC'
p1291
I1599
sS'AGGAAG'
p1292
I2340
sS'GAATAA'
p1293
I247
sS'ACTTTT'
p1294
I160
sS'CGACAG'
p1295
I60
sS'ATACAA'
p1296
I104
sS'TTAATT'
p1297
I116
sS'GGACGA'
p1298
I95
sS'ACGACT'
p1299
I41
sS'AAAATT'
p1300
I48
sS'TGCCTC'
p1301
I2970
sS'GGACGC'
p1302
I195
sS'TTATAA'
p1303
I140
sS'GAAATG'
p1304
I1537
sS'AATGAT'
p1305
I151
sS'TTTCTC'
p1306
I1368
sS'GAAATC'
p1307
I260
sS'CGCATT'
p1308
I156
sS'ACCGGT'
p1309
I70
sS'GAAATT'
p1310
I76
sS'AATGAA'
p1311
I1164
sS'AATGAC'
p1312
I944
sS'AATGAG'
p1313
I1534
sS'AGGAAA'
p1314
I1010
sS'TCAGCA'
p1315
I531
sS'CTTGGA'
p1316
I966
sS'CTTGGC'
p1317
I1168
sS'GTATTG'
p1318
I660
sS'GTCCTT'
p1319
I692
sS'CTTGGG'
p1320
I1710
sS'ATACAG'
p1321
I88
sS'AGCCCT'
p1322
I1240
sS'GCGTAA'
p1323
I80
sS'TTGAAT'
p1324
I128
sS'GTCCTA'
p1325
I1785
sS'GTCCTC'
p1326
I2748
sS'TGCACG'
p1327
I1030
sS'TGCACA'
p1328
I1705
sS'GTCCTG'
p1329
I6952
sS'TGCACC'
p1330
I1973
sS'TTGAAA'
p1331
I427
sS'AGCCCG'
p1332
I2199
sS'AGCCCA'
p1333
I2801
sS'AGCCCC'
p1334
I4029
sS'TTAACT'
p1335
I203
sS'ATAAAT'
p1336
I68
sS'TGGTCG'
p1337
I315
sS'TGGTCA'
p1338
I675
sS'TGGTCC'
p1339
I1014
sS'ACGATT'
p1340
I19
sS'GAGACT'
p1341
I900
sS'GATTCA'
p1342
I1919
sS'TGGTCT'
p1343
I364
sS'ATAAAG'
p1344
I257
sS'AGGAAC'
p1345
I826
sS'TCAGCC'
p1346
I529
sS'ATAAAC'
p1347
I175
sS'GAGACG'
p1348
I1466
sS'GATTCG'
p1349
I934
sS'CTACAG'
p1350
I238
sS'GAGACC'
p1351
I2514
sS'ACGATC'
p1352
I31
sS'GAGACA'
p1353
I2169
sS'ACGATA'
p1354
I44
sS'GGTTAC'
p1355
I567
sS'ATGTGT'
p1356
I331
sS'GGTTAA'
p1357
I688
sS'ACCACT'
p1358
I410
sS'GGTTAG'
p1359
I704
sS'CTTCCT'
p1360
I1082
sS'GAATGT'
p1361
I352
sS'TAAACT'
p1362
I193
sS'CGTGAA'
p1363
I215
sS'CTCAGT'
p1364
I1492
sS'TCCGCT'
p1365
I432
sS'ACCACG'
p1366
I715
sS'CTTCCC'
p1367
I2203
sS'ACCACC'
p1368
I1513
sS'CGTATG'
p1369
I197
sS'ATGTGC'
p1370
I623
sS'GGTTAT'
p1371
I113
sS'TCCGCC'
p1372
I2369
sS'TCCGCA'
p1373
I873
sS'TCCGCG'
p1374
I858
sS'AACGTC'
p1375
I428
sS'CGTGAG'
p1376
I576
sS'AACGTG'
p1377
I1459
sS'CGTGAC'
p1378
I507
sS'GGTAGC'
p1379
I668
sS'AGTGTG'
p1380
I1917
sS'TCTTCG'
p1381
I582
sS'AGTGTA'
p1382
I651
sS'TCTTCA'
p1383
I1169
sS'AGTGTC'
p1384
I417
sS'TCTTCC'
p1385
I2063
sS'CGTGAT'
p1386
I51
sS'ACTCAA'
p1387
I341
sS'TAAGTC'
p1388
I143
sS'TAAGTA'
p1389
I276
sS'GCTCGC'
p1390
I938
sS'TCTTCT'
p1391
I577
sS'AGTGTT'
p1392
I157
sS'TTGGCA'
p1393
I738
sS'AAAGGT'
p1394
I159
sS'TTGGCC'
p1395
I1123
sS'AGTAAC'
p1396
I712
sS'TTAACG'
p1397
I125
sS'TTGGCG'
p1398
I401
sS'GACTTC'
p1399
I4853
sS'TCGAGT'
p1400
I51
sS'GACTTA'
p1401
I3453
sS'GACTTG'
p1402
I8289
sS'ACGTAG'
p1403
I84
sS'AAAGGG'
p1404
I1283
sS'AAAGGA'
p1405
I976
sS'TTGGCT'
p1406
I390
sS'AAAGGC'
p1407
I832
sS'GAGTAC'
p1408
I586
sS'GACTTT'
p1409
I1226
sS'TTCTTT'
p1410
I2131
sS'CAAGAA'
p1411
I462
sS'AGCGAG'
p1412
I1563
sS'CAAGAC'
p1413
I300
sS'CAAGAG'
p1414
I494
sS'CGTATT'
p1415
I48
sS'TTCTTG'
p1416
I8068
sS'TTCTTC'
p1417
I5395
sS'TTCTTA'
p1418
I5130
sS'CAAGAT'
p1419
I90
sS'AGGGCT'
p1420
I514
sS'TACGGG'
p1421
I716
sS'TACGGA'
p1422
I411
sS'TACGGC'
p1423
I564
sS'CCAACT'
p1424
I165
sS'TAGAGT'
p1425
I326
sS'TACGGT'
p1426
I132
sS'CCCGAG'
p1427
I969
sS'AGGGCA'
p1428
I1375
sS'CCCGAC'
p1429
I752
sS'TCGAGA'
p1430
I109
sS'AGTTCG'
p1431
I607
sS'TAGAGA'
p1432
I1253
sS'TAGAGG'
p1433
I1895
sS'AGTAAT'
p1434
I176
sS'GTGCTG'
p1435
I6015
sS'GTGCTA'
p1436
I1198
sS'ATCTGT'
p1437
I745
sS'GTGCTC'
p1438
I1631
sS'GCTCGT'
p1439
I117
sS'ATCTGA'
p1440
I1612
sS'GTGCTT'
p1441
I569
sS'ATCTGC'
p1442
I2667
sS'TCGAGG'
p1443
I300
sS'CGAATG'
p1444
I180
sS'ATCTGG'
p1445
I2477
sS'ATCATA'
p1446
I515
sS'GATAGC'
p1447
I865
sS'ATCATC'
p1448
I478
sS'GATAGA'
p1449
I954
sS'AAGCAA'
p1450
I839
sS'GATAGG'
p1451
I1526
sS'ATCATG'
p1452
I1239
sS'TTTACC'
p1453
I615
sS'GTTATG'
p1454
I661
sS'CTAGGT'
p1455
I251
sS'CATTTA'
p1456
I2981
sS'CATTTG'
p1457
I4774
sS'GTTATA'
p1458
I258
sS'CAAACA'
p1459
I642
sS'TTTCAG'
p1460
I1044
sS'CAAACC'
p1461
I483
sS'GTGGCC'
p1462
I1936
sS'ATCATT'
p1463
I177
sS'GATAGT'
p1464
I314
sS'ACGCAG'
p1465
I157
sS'CTAGGG'
p1466
I883
sS'GTTATT'
p1467
I116
sS'CTAGGC'
p1468
I526
sS'CATTTT'
p1469
I483
sS'CTCGGA'
p1470
I933
sS'AAGTTT'
p1471
I193
sS'AAGGTC'
p1472
I465
sS'GTGGCG'
p1473
I1038
sS'CTAAGA'
p1474
I494
sS'CTAAGC'
p1475
I461
sS'TACAGG'
p1476
I3606
sS'AAGTTG'
p1477
I1539
sS'GGATGC'
p1478
I265
sS'AAGTTA'
p1479
I968
sS'TACAGC'
p1480
I2504
sS'AAGTTC'
p1481
I652
sS'TACAGA'
p1482
I2156
sS'GGGGCC'
p1483
I1538
sS'GTATGA'
p1484
I218
sS'GGGGCA'
p1485
I1135
sS'ATATGT'
p1486
I111
sS'GGGGCG'
p1487
I1524
sS'TATATC'
p1488
I218
sS'TATATA'
p1489
I678
sS'CTTTTA'
p1490
I2731
sS'AGTTCT'
p1491
I512
sS'TCCGGT'
p1492
I295
sS'GGTCCA'
p1493
I487
sS'GCCCAT'
p1494
I207
sS'TTAATA'
p1495
I329
sS'TATATT'
p1496
I145
sS'TGATGG'
p1497
I303
sS'CATATG'
p1498
I830
sS'ATGAGT'
p1499
I189
sS'GCCCAC'
p1500
I1596
sS'TGATGA'
p1501
I201
sS'AGCATG'
p1502
I3288
sS'TGTTTA'
p1503
I2778
sS'CACATC'
p1504
I1077
sS'TGTTTC'
p1505
I1590
sS'CACATA'
p1506
I1316
sS'TCATAA'
p1507
I51
sS'CACATG'
p1508
I2937
sS'TGTTTG'
p1509
I4608
sS'ATGAGA'
p1510
I508
sS'TGATGT'
p1511
I126
sS'ATGAGG'
p1512
I950
sS'CATATC'
p1513
I243
sS'ACTCTG'
p1514
I1555
sS'TGCCAG'
p1515
I2120
sS'ACTCTA'
p1516
I487
sS'TGTTTT'
p1517
I566
sS'ACTCTC'
p1518
I455
sS'TGCCAC'
p1519
I1595
sS'AAATTC'
p1520
I174
sS'CCCGGT'
p1521
I209
sS'AAATTA'
p1522
I324
sS'AAATTG'
p1523
I363
sS'CTTCGA'
p1524
I406
sS'CGTACC'
p1525
I252
sS'TTAATC'
p1526
I150
sS'AAATTT'
p1527
I32
sS'CGTCTA'
p1528
I384
sS'GGGAAC'
p1529
I738
sS'GGTGCG'
p1530
I557
sS'GGGAAA'
p1531
I717
sS'GGGAAG'
p1532
I1994
sS'GGTGCC'
p1533
I664
sS'TCCGGG'
p1534
I2198
sS'AGAGCG'
p1535
I417
sS'GCGACT'
p1536
I71
sS'AGAGCC'
p1537
I766
sS'AGAGCA'
p1538
I732
sS'GCGTAG'
p1539
I130
sS'GGTGCT'
p1540
I287
sS'GCGTAC'
p1541
I94
sS'ACTGAA'
p1542
I299
sS'GGGAAT'
p1543
I183
sS'GCGACG'
p1544
I173
sS'AGAGCT'
p1545
I303
sS'GCGACA'
p1546
I180
sS'TATCGG'
p1547
I273
sS'GCGACC'
p1548
I327
sS'AGGTCG'
p1549
I445
sS'GCAGGA'
p1550
I1243
sS'GCAGGC'
p1551
I860
sS'GCAGGG'
p1552
I1585
sS'GGCGAT'
p1553
I91
sS'CCGTGC'
p1554
I350
sS'GCTCGG'
p1555
I1217
sS'TATTCT'
p1556
I576
sS'CCGTGG'
p1557
I414
sS'ACTTAC'
p1558
I293
sS'CTTTAG'
p1559
I1029
sS'GCAGGT'
p1560
I432
sS'TGAAGC'
p1561
I487
sS'ACGTCT'
p1562
I78
sS'TATTCC'
p1563
I1175
sS'GGCGAG'
p1564
I1593
sS'TATTCA'
p1565
I1571
sS'GGCGAA'
p1566
I504
sS'TATTCG'
p1567
I406
sS'GGCGAC'
p1568
I938
sS'TGTAGA'
p1569
I738
sS'GGCTCA'
p1570
I3419
sS'TGTAGC'
p1571
I822
sS'GGCTCC'
p1572
I6671
sS'AATCCT'
p1573
I350
sS'TGTAGG'
p1574
I1174
sS'GGCTCG'
p1575
I2448
sS'TTCGGA'
p1576
I413
sS'TTCGGC'
p1577
I718
sS'AAATAG'
p1578
I191
sS'GTCTAC'
p1579
I1121
sS'TTCGGG'
p1580
I1080
sS'CACGAG'
p1581
I678
sS'GGCTCT'
p1582
I1787
sS'AGCATC'
p1583
I1187
sS'TTTACT'
p1584
I330
sS'AGCATA'
p1585
I1093
sS'AGACCT'
p1586
I119
sS'TTCGGT'
p1587
I170
sS'GTTTAT'
p1588
I145
sS'CTCTCA'
p1589
I4707
sS'GCACTC'
p1590
I136
sS'CGCTAC'
p1591
I971
sS'GTTTAA'
p1592
I764
sS'TCCAGG'
p1593
I5399
sS'CACGAA'
p1594
I325
sS'CAATCT'
p1595
I91
sS'GTTTAG'
p1596
I740
sS'CAGGTG'
p1597
I2501
sS'TCCAGA'
p1598
I2147
sS'CTGGCT'
p1599
I892
sS'AGGCGG'
p1600
I2241
sS'AGGCGA'
p1601
I623
sS'AGGCGC'
p1602
I1279
sS'AGGAGT'
p1603
I599
sS'ACAGCC'
p1604
I479
sS'ACAGCA'
p1605
I677
sS'GAGGTC'
p1606
I936
sS'ACAGCG'
p1607
I345
sS'AGGAGC'
p1608
I2330
sS'GTCGGA'
p1609
I498
sS'AGGAGA'
p1610
I1952
sS'CTGGCG'
p1611
I1013
sS'AGGAGG'
p1612
I5963
sS'CTGGCA'
p1613
I1615
sS'CTGGCC'
p1614
I2377
sS'ACAGCT'
p1615
I286
sS'GGAAAA'
p1616
I298
sS'AACGCT'
p1617
I368
sS'AATTTT'
p1618
I214
sS'AAACAG'
p1619
I361
sS'TGTCAC'
p1620
I888
sS'CCCTCT'
p1621
I1784
sS'AACCTT'
p1622
I384
sS'TGTCAG'
p1623
I1255
sS'AACGCG'
p1624
I790
sS'AATTTA'
p1625
I1862
sS'AATTTC'
p1626
I929
sS'ATTGGC'
p1627
I891
sS'AACGCA'
p1628
I762
sS'AATTTG'
p1629
I2679
sS'CCCTCA'
p1630
I3148
sS'ATTTAA'
p1631
I670
sS'TGTCAT'
p1632
I202
sS'CCCTCG'
p1633
I2170
sS'ACCGAT'
p1634
I35
sS'GAGGTT'
p1635
I262
sS'CACGAT'
p1636
I74
sS'GGAAAG'
p1637
I571
sS'ATTTTT'
p1638
I125
sS'TGACCA'
p1639
I154
sS'CATTCT'
p1640
I815
sS'TAAATC'
p1641
I163
sS'AAATGC'
p1642
I571
sS'ATGGTT'
p1643
I42
sS'NGATCC'
p1644
I1
sS'CATTCG'
p1645
I713
sS'CATTCC'
p1646
I2860
sS'CATTCA'
p1647
I2252
sS'ACGAAA'
p1648
I56
sS'GCCTTC'
p1649
I4301
sS'ACAAAT'
p1650
I53
sS'GATTAA'
p1651
I1245
sS'GTAGGC'
p1652
I384
sS'GATTAC'
p1653
I1540
sS'GTAGGA'
p1654
I532
sS'GTAGGG'
p1655
I773
sS'GATTAG'
p1656
I1331
sS'GCGGGT'
p1657
I179
sS'ACAAAC'
p1658
I183
sS'ACAAAA'
p1659
I224
sS'ACAAAG'
p1660
I334
sS'GCGGGC'
p1661
I812
sS'GTCGGT'
p1662
I180
sS'GCGGGA'
p1663
I806
sS'GCGGGG'
p1664
I2162
sS'GATTAT'
p1665
I231
sS'GTAGGT'
p1666
I205
sS'CCACGA'
p1667
I113
sS'AACCTG'
p1668
I4220
sS'TAATGA'
p1669
I341
sS'GATGTT'
p1670
I231
sS'TAATGC'
p1671
I318
sS'GGAGAT'
p1672
I82
sS'GCCCTT'
p1673
I563
sS'CAATAA'
p1674
I112
sS'CAATTG'
p1675
I375
sS'GCCCTC'
p1676
I2630
sS'GATGTG'
p1677
I2775
sS'GCCCTA'
p1678
I1849
sS'GATGTA'
p1679
I1062
sS'GCCCTG'
p1680
I7527
sS'GATGTC'
p1681
I664
sS'AACCTC'
p1682
I1747
sS'TGAAAT'
p1683
I91
sS'TTCTAG'
p1684
I2164
sS'TTCTAA'
p1685
I2218
sS'ATCCGT'
p1686
I125
sS'TTCTAC'
p1687
I1723
sS'TGAAAA'
p1688
I197
sS'TTGGAT'
p1689
I44
sS'TGAAAC'
p1690
I248
sS'TGAAAG'
p1691
I372
sS'TTCTAT'
p1692
I537
sS'ATCCGC'
p1693
I797
sS'ATCCGA'
p1694
I343
sS'ATCCGG'
p1695
I826
sS'TGGCTC'
p1696
I1112
sS'TGGCTA'
p1697
I803
sS'TGGCTG'
p1698
I4000
sS'AGGCGT'
p1699
I263
sS'GGAATA'
p1700
I187
sS'AGTTGT'
p1701
I473
sS'AGCTAT'
p1702
I410
sS'ATTAGT'
p1703
I121
sS'GTCGGC'
p1704
I1044
sS'TGGCTT'
p1705
I326
sS'AGTTGG'
p1706
I1494
sS'AGCTAA'
p1707
I1822
sS'AGCTAC'
p1708
I1785
sS'AGTTGC'
p1709
I1394
sS'AGTTGA'
p1710
I990
sS'AGCTAG'
p1711
I2098
sS'CGTTGA'
p1712
I409
sS'GCACCT'
p1713
I331
sS'CAGTGT'
p1714
I618
sS'TAACAA'
p1715
I161
sS'TCAGGT'
p1716
I156
sS'TCAAGG'
p1717
I441
sS'GTCGGG'
p1718
I1629
sS'TCAAGC'
p1719
I253
sS'TCAAGA'
p1720
I230
sS'GCACCA'
p1721
I425
sS'CAGTGC'
p1722
I1768
sS'GCACCC'
p1723
I310
sS'CAGTGA'
p1724
I1404
sS'CAGTGG'
p1725
I2079
sS'CTAATG'
p1726
I652
sS'TCAAGT'
p1727
I135
sS'TCAGGG'
p1728
I561
sS'GAGCCC'
p1729
I3627
sS'TCAGGC'
p1730
I321
sS'GTGGGT'
p1731
I464
sS'TCCTAA'
p1732
I1399
sS'TAACAG'
p1733
I188
sS'TTCCCT'
p1734
I1473
sS'CGAGCG'
p1735
I339
sS'CGAGCA'
p1736
I241
sS'GAGCCG'
p1737
I2278
sS'CGAGCC'
p1738
I429
sS'TTCCCA'
p1739
I2991
sS'TTCCCC'
p1740
I3601
sS'GTTCAC'
p1741
I501
sS'TTCCCG'
p1742
I1960
sS'TGAGCA'
p1743
I525
sS'GGACCT'
p1744
I163
sS'CTTACT'
p1745
I307
sS'TACATG'
p1746
I1828
sS'AAGTAC'
p1747
I457
sS'CACACT'
p1748
I1036
sS'TACATC'
p1749
I688
sS'AAGTAG'
p1750
I566
sS'TACATA'
p1751
I1457
sS'CATGGT'
p1752
I235
sS'GGACCG'
p1753
I148
sS'ATTGGT'
p1754
I175
sS'GGACCA'
p1755
I222
sS'TCATCA'
p1756
I228
sS'GGACCC'
p1757
I236
sS'CACACG'
p1758
I1271
sS'TACATT'
p1759
I446
sS'CACACC'
p1760
I3067
sS'GCACAA'
p1761
I115
sS'CACACA'
p1762
I4226
sS'ACGGTC'
p1763
I59
sS'TCTGCC'
p1764
I908
sS'TCTGCA'
p1765
I953
sS'AGGTAG'
p1766
I505
sS'TCTGCG'
p1767
I550
sS'TTTCGA'
p1768
I239
sS'ATTGCC'
p1769
I255
sS'CCCGTC'
p1770
I598
sS'TTAAGG'
p1771
I666
sS'CCCGTA'
p1772
I453
sS'CGTCGA'
p1773
I210
sS'CCCGTG'
p1774
I1569
sS'TTAAGC'
p1775
I390
sS'TTACGT'
p1776
I42
sS'TAGATC'
p1777
I190
sS'TGTCAA'
p1778
I551
sS'TAGATA'
p1779
I402
sS'TTTCGC'
p1780
I411
sS'TAGATG'
p1781
I884
sS'TGGTTA'
p1782
I764
sS'TCTGCT'
p1783
I312
sS'TTACGC'
p1784
I69
sS'TTAAGT'
p1785
I231
sS'TTACGA'
p1786
I53
sS'TTACGG'
p1787
I102
sS'CCCGTT'
p1788
I99
sS'AGTGAC'
p1789
I871
sS'AGTGAA'
p1790
I636
sS'AGTGAG'
p1791
I1305
sS'GCGGTC'
p1792
I127
sS'CGGGCG'
p1793
I699
sS'AAACAC'
p1794
I282
sS'TAAGAG'
p1795
I339
sS'CGGGCC'
p1796
I1101
sS'GAAAGT'
p1797
I403
sS'CGGGCA'
p1798
I605
sS'TAAGAC'
p1799
I194
sS'ATTTAT'
p1800
I117
sS'AGTGAT'
p1801
I113
sS'TAAGAT'
p1802
I48
sS'CCTGAA'
p1803
I432
sS'CCTGAC'
p1804
I613
sS'CCTGAG'
p1805
I959
sS'GTTAGG'
p1806
I980
sS'GCCAAC'
p1807
I1293
sS'CTTTCA'
p1808
I1936
sS'GTTAGC'
p1809
I594
sS'GTTAGA'
p1810
I607
sS'GCCAAA'
p1811
I1039
sS'TATACG'
p1812
I157
sS'GTTAGT'
p1813
I189
sS'TATACC'
p1814
I373
sS'TATACA'
p1815
I526
sS'AACGCC'
p1816
I1217
sS'CGTATA'
p1817
I99
sS'CAATTA'
p1818
I312
sS'GTAATG'
p1819
I546
sS'TTTATT'
p1820
I195
sS'GTAATA'
p1821
I219
sS'ATTGGA'
p1822
I410
sS'GTAATC'
p1823
I127
sS'GTACAG'
p1824
I156
sS'TCTAAC'
p1825
I335
sS'CGTTCT'
p1826
I251
sS'CCACCG'
p1827
I335
sS'CGGATC'
p1828
I137
sS'TCTAAG'
p1829
I547
sS'CCACCC'
p1830
I645
sS'GTTCGT'
p1831
I108
sS'TTTATG'
p1832
I927
sS'ACTAGG'
p1833
I545
sS'CTACTG'
p1834
I532
sS'ACTAGC'
p1835
I312
sS'TTTATA'
p1836
I636
sS'ACTAGA'
p1837
I352
sS'CCACCT'
p1838
I475
sS'CGTTCG'
p1839
I429
sS'ACTTGT'
p1840
I207
sS'CGTTCA'
p1841
I530
sS'CGTTCC'
p1842
I949
sS'TCTAAT'
p1843
I86
sS'TCGTCT'
p1844
I73
sS'CTTTGT'
p1845
I1193
sS'CCCTCC'
p1846
I8740
sS'ACTGGA'
p1847
I429
sS'ACTGGC'
p1848
I498
sS'TAGTCC'
p1849
I1055
sS'GTGACC'
p1850
I1079
sS'TAGTCA'
p1851
I758
sS'GTGACA'
p1852
I868
sS'TAGTCG'
p1853
I265
sS'GTGACG'
p1854
I728
sS'ATTTAG'
p1855
I415
sS'ACTGGT'
p1856
I120
sS'CTTTGG'
p1857
I2720
sS'CCTATG'
p1858
I591
sS'CTTTGC'
p1859
I2807
sS'CTTTGA'
p1860
I1908
sS'GTGACT'
p1861
I499
sS'TAGTCT'
p1862
I380
sS'GTGCAC'
p1863
I825
sS'GCGCTT'
p1864
I118
sS'ACCTAG'
p1865
I887
sS'GCAATT'
p1866
I62
sS'GTGCAG'
p1867
I1370
sS'CGACGC'
p1868
I101
sS'ACCTAC'
p1869
I834
sS'CCGCAG'
p1870
I281
sS'CCGCAA'
p1871
I71
sS'ATTGTG'
p1872
I709
sS'CCGCAC'
p1873
I152
sS'CTACGG'
p1874
I190
sS'ACCTAT'
p1875
I121
sS'GCGCTG'
p1876
I1440
sS'CGAAGA'
p1877
I210
sS'CCCCGT'
p1878
I267
sS'CGAAGG'
p1879
I408
sS'GCGCTC'
p1880
I363
sS'GTGCAT'
p1881
I165
sS'GCGCTA'
p1882
I271
sS'CCGCAT'
p1883
I37
sS'ATTACC'
p1884
I326
sS'GAAGAT'
p1885
I111
sS'GGATCT'
p1886
I86
sS'TCGGAA'
p1887
I81
sS'TCGGAC'
p1888
I64
sS'GAATCT'
p1889
I196
sS'TCGGAG'
p1890
I180
sS'GGATCG'
p1891
I77
sS'GAAGAG'
p1892
I1213
sS'GAAGAA'
p1893
I786
sS'GGATCC'
p1894
I306
sS'GAAGAC'
p1895
I643
sS'GGATCA'
p1896
I143
sS'GAATCA'
p1897
I491
sS'GAATCC'
p1898
I613
sS'TCGGAT'
p1899
I24
sS'GAATCG'
p1900
I230
sS'ATGGTC'
p1901
I141
sS'CAGATG'
p1902
I1629
sS'ACGCCG'
p1903
I173
sS'TGACCC'
p1904
I169
sS'ACGCCA'
p1905
I179
sS'CAGATC'
p1906
I333
sS'CTATCC'
p1907
I505
sS'CAGATA'
p1908
I499
sS'TAGACT'
p1909
I256
sS'CTCGAG'
p1910
I793
sS'CAGATT'
p1911
I109
sS'CTCGAC'
p1912
I526
sS'CTCGAA'
p1913
I343
sS'TCGCAA'
p1914
I41
sS'TGACCG'
p1915
I70
sS'GCTATT'
p1916
I92
sS'TGCGTC'
p1917
I614
sS'AATGGT'
p1918
I246
sS'GTTACG'
p1919
I227
sS'CTACGT'
p1920
I58
sS'CCCCGC'
p1921
I4266
sS'AATGGA'
p1922
I1094
sS'AATGGG'
p1923
I1727
sS'CAATAC'
p1924
I98
sS'CCCCGA'
p1925
I840
sS'AATAGA'
p1926
I909
sS'ACAATA'
p1927
I185
sS'ACGCCC'
p1928
I366
sS'CAACTA'
p1929
I160
sS'ACGCAA'
p1930
I70
sS'ATTTAC'
p1931
I439
sS'GTGAAT'
p1932
I120
sS'AGCCAG'
p1933
I3916
sS'GGAGGG'
p1934
I1885
sS'AAAAGT'
p1935
I203
sS'GGAGGA'
p1936
I1314
sS'AGCCAA'
p1937
I2587
sS'TGGTAG'
p1938
I333
sS'CGCCAT'
p1939
I242
sS'GAGTGT'
p1940
I885
sS'TGGTAC'
p1941
I213
sS'TGGTAA'
p1942
I254
sS'AAAAGG'
p1943
I1417
sS'GGAGGT'
p1944
I333
sS'AGCCAT'
p1945
I395
sS'AAAAGC'
p1946
I845
sS'AAAAGA'
p1947
I950
sS'TTGACT'
p1948
I205
sS'GAGTGG'
p1949
I3578
sS'CGCCAG'
p1950
I1765
sS'TGGTAT'
p1951
I85
sS'CGCCAA'
p1952
I753
sS'GAGTGC'
p1953
I2452
sS'CGCCAC'
p1954
I1510
sS'GAGTGA'
p1955
I2207
sS'GCCAGG'
p1956
I6586
sS'GCCAGA'
p1957
I2464
sS'GCCAGC'
p1958
I4034
sS'GCCCGT'
p1959
I323
sS'TACCGA'
p1960
I401
sS'TACCGC'
p1961
I1055
sS'TACCGG'
p1962
I846
sS'GCCCGC'
p1963
I3469
sS'GCCAGT'
p1964
I906
sS'GCCCGA'
p1965
I1107
sS'GCCCGG'
p1966
I3368
sS'TGCGAT'
p1967
I74
sS'CTTCAC'
p1968
I867
sS'CTTCAA'
p1969
I688
sS'CTTCAG'
p1970
I1312
sS'TCCGAG'
p1971
I712
sS'TCCGAA'
p1972
I224
sS'TCCGAC'
p1973
I479
sS'AATTCA'
p1974
I1372
sS'TATTAG'
p1975
I755
sS'AATTCC'
p1976
I1732
sS'ATTAGG'
p1977
I507
sS'AATTCG'
p1978
I455
sS'TCCGAT'
p1979
I41
sS'GGACAA'
p1980
I104
sS'NNNGAT'
p1981
I1
sS'TAGCGG'
p1982
I556
sS'AATTCT'
p1983
I526
sS'TAGCGC'
p1984
I483
sS'GTCATC'
p1985
I892
sS'GTCATA'
p1986
I844
sS'GTCATG'
p1987
I2492
sS'AGCAGG'
p1988
I7912
sS'CCAGGT'
p1989
I464
sS'TTGGAA'
p1990
I359
sS'AGCAGC'
p1991
I7076
sS'AGCAGA'
p1992
I3600
sS'GTCATT'
p1993
I441
sS'CCAGGG'
p1994
I1452
sS'AGCAGT'
p1995
I1479
sS'CCAGGA'
p1996
I1292
sS'CCAGGC'
p1997
I1004
sS'AGCGCT'
p1998
I642
sS'ATAGAG'
p1999
I177
sS'CATCTG'
p2000
I3526
sS'GATCGG'
p2001
I832
sS'CATCTA'
p2002
I1104
sS'GATCGA'
p2003
I423
sS'CATCTC'
p2004
I1385
sS'ATAGAA'
p2005
I186
sS'ATGCGA'
p2006
I131
sS'ATTAGA'
p2007
I410
sS'GGATGG'
p2008
I416
sS'CAAGCC'
p2009
I814
sS'CATCTT'
p2010
I365
sS'CAAGCA'
p2011
I776
sS'CAAGCG'
p2012
I408
sS'ACTCGA'
p2013
I172
sS'GTTCTT'
p2014
I184
sS'ACATGA'
p2015
I160
sS'CGTAAT'
p2016
I35
sS'ACATGC'
p2017
I175
sS'ACATGG'
p2018
I254
sS'AGGGAT'
p2019
I132
sS'GGCCAT'
p2020
I283
sS'CGTAAG'
p2021
I268
sS'GTTCTG'
p2022
I2232
sS'ACATGT'
p2023
I95
sS'GTTCTA'
p2024
I723
sS'GTTCTC'
p2025
I864
sS'CCCGCG'
p2026
I1406
sS'TTATTT'
p2027
I142
sS'AGGGAC'
p2028
I802
sS'AGACGC'
p2029
I196
sS'CCCGCA'
p2030
I1188
sS'CCCTTT'
p2031
I1177
sS'TGTTGT'
p2032
I747
sS'GTTGTT'
p2033
I124
sS'ATCCTT'
p2034
I288
sS'TTGTCG'
p2035
I266
sS'TTGTCC'
p2036
I1201
sS'TTGTCA'
p2037
I923
sS'ATCCTC'
p2038
I1185
sS'GTTGTA'
p2039
I499
sS'ATCCTA'
p2040
I1040
sS'GTTGTC'
p2041
I318
sS'ATCCTG'
p2042
I3248
sS'GTTGTG'
p2043
I1216
sS'TTGTCT'
p2044
I511
sS'ACCTCA'
p2045
I1835
sS'TGACTA'
p2046
I132
sS'TGGGCC'
p2047
I1148
sS'TGACTC'
p2048
I146
sS'TGGGCA'
p2049
I841
sS'TGGGCG'
p2050
I706
sS'TGACTG'
p2051
I374
sS'AAGCCG'
p2052
I905
sS'AAGCCC'
p2053
I1826
sS'AAGCCA'
p2054
I1408
sS'CAAAAT'
p2055
I78
sS'ACGCGG'
p2056
I253
sS'TGGGCT'
p2057
I365
sS'CAAAAC'
p2058
I286
sS'CAAAAA'
p2059
I235
sS'AAGCCT'
p2060
I609
sS'CAAAAG'
p2061
I462
sS'TGATTT'
p2062
I62
sS'TCAATG'
p2063
I314
sS'AAACTT'
p2064
I51
sS'TCAATC'
p2065
I75
sS'CGTCGT'
p2066
I106
sS'CAGTTC'
p2067
I814
sS'GACCCG'
p2068
I2372
sS'GACCCA'
p2069
I2584
sS'GACCCC'
p2070
I3425
sS'CTCTGT'
p2071
I2613
sS'TCAATT'
p2072
I45
sS'TGGCGT'
p2073
I123
sS'CTCTGC'
p2074
I11313
sS'GACCCT'
p2075
I1196
sS'CTCTGA'
p2076
I5127
sS'ACAATC'
p2077
I65
sS'CTCTGG'
p2078
I9657
sS'CAGTTT'
p2079
I233
sS'GCGAAG'
p2080
I277
sS'CTACTC'
p2081
I173
sS'TGCTGG'
p2082
I7133
sS'CGAGGT'
p2083
I143
sS'TGCTGA'
p2084
I4094
sS'GAGTCT'
p2085
I953
sS'TGCTGC'
p2086
I7735
sS'TAGGGA'
p2087
I893
sS'GCTGGT'
p2088
I318
sS'GTGATT'
p2089
I137
sS'ACGTTA'
p2090
I185
sS'TGCTGT'
p2091
I1969
sS'TAGGGC'
p2092
I927
sS'TAATGG'
p2093
I414
sS'TCGCTA'
p2094
I142
sS'GTGATG'
p2095
I1425
sS'GCTGGG'
p2096
I2888
sS'GTGATC'
p2097
I274
sS'GCTGGC'
p2098
I1191
sS'GTGATA'
p2099
I405
sS'GCTGGA'
p2100
I1181
sS'TGATAA'
p2101
I64
sS'TGTAGT'
p2102
I505
sS'TGATAC'
p2103
I61
sS'TGATAG'
p2104
I78
sS'CTTGTT'
p2105
I146
sS'GACGGT'
p2106
I432
sS'GCTAGG'
p2107
I1055
sS'GCTAGA'
p2108
I533
sS'ATGAAT'
p2109
I81
sS'GCTAGC'
p2110
I510
sS'AAGGGT'
p2111
I371
sS'TGATAT'
p2112
I35
sS'GCTAGT'
p2113
I179
sS'ATGAAC'
p2114
I234
sS'GACGGG'
p2115
I3178
sS'CTTGTG'
p2116
I1698
sS'GACGGA'
p2117
I1544
sS'CTTGTA'
p2118
I713
sS'GACGGC'
p2119
I2264
sS'CTTGTC'
p2120
I470
sS'CTAACT'
p2121
I225
sS'CCCGCT'
p2122
I453
sS'AGAGTT'
p2123
I61
sS'CCATAG'
p2124
I71
sS'GGTGAA'
p2125
I467
sS'GGTGAC'
p2126
I739
sS'GCGTCT'
p2127
I192
sS'TGTAAA'
p2128
I954
sS'GGTGAG'
p2129
I1246
sS'GGAATG'
p2130
I870
sS'CGTCCT'
p2131
I231
sS'GGAATC'
p2132
I165
sS'TAATGT'
p2133
I156
sS'GCGTCA'
p2134
I372
sS'GCGTCC'
p2135
I735
sS'GGTGAT'
p2136
I81
sS'GCGTCG'
p2137
I227
sS'CAAACT'
p2138
I185
sS'CGTCCG'
p2139
I421
sS'GGAATT'
p2140
I88
sS'CGTCCC'
p2141
I798
sS'CGTCCA'
p2142
I421
sS'CCGTAT'
p2143
I24
sS'GCCGTG'
p2144
I1970
sS'GAAGTA'
p2145
I493
sS'GAAGTG'
p2146
I1627
sS'GCCGTA'
p2147
I553
sS'CCGTAC'
p2148
I58
sS'CCGTAA'
p2149
I54
sS'TTCGAA'
p2150
I246
sS'CTAACA'
p2151
I422
sS'GCCGTT'
p2152
I113
sS'GAAGTT'
p2153
I88
sS'GGCGCG'
p2154
I1908
sS'ATGCCC'
p2155
I851
sS'TTAGTT'
p2156
I66
sS'ATGCCA'
p2157
I660
sS'GGCGCC'
p2158
I2239
sS'ATGCCG'
p2159
I397
sS'GGCGCA'
p2160
I1264
sS'TATTAC'
p2161
I666
sS'ACTATG'
p2162
I380
sS'CAACGG'
p2163
I146
sS'TTTAAG'
p2164
I1140
sS'ACTATC'
p2165
I97
sS'TTTAAA'
p2166
I1429
sS'ACTATA'
p2167
I158
sS'TTTAAC'
p2168
I694
sS'TATTAT'
p2169
I329
sS'TTAGTG'
p2170
I406
sS'GGCGCT'
p2171
I568
sS'TTAGTC'
p2172
I108
sS'ATGCCT'
p2173
I371
sS'TTAGTA'
p2174
I198
sS'TTTAAT'
p2175
I212
sS'GCACTG'
p2176
I569
sS'GCCGAT'
p2177
I63
sS'GGGCAT'
p2178
I151
sS'TTTCCG'
p2179
I468
sS'TTTCCA'
p2180
I891
sS'TTTCCC'
p2181
I1210
sS'GGGACT'
p2182
I478
sS'GTTTGT'
p2183
I626
sS'GTAACG'
p2184
I155
sS'GGGCAG'
p2185
I1288
sS'GTCTGT'
p2186
I1610
sS'GGGCAA'
p2187
I392
sS'GGGCAC'
p2188
I643
sS'GTTTGC'
p2189
I1627
sS'GTTTGA'
p2190
I1161
sS'GTTTGG'
p2191
I1817
sS'ACATCC'
p2192
I235
sS'CCGCTC'
p2193
I301
sS'GCATGT'
p2194
I166
sS'CCGCTA'
p2195
I225
sS'CCGCTG'
p2196
I898
sS'AGCATT'
p2197
I429
sS'GCGCGG'
p2198
I756
sS'GCGCGC'
p2199
I698
sS'GCGCGA'
p2200
I212
sS'GCATGG'
p2201
I368
sS'TGGATC'
p2202
I236
sS'GCATGC'
p2203
I354
sS'TTAGGG'
p2204
I563
sS'GCATGA'
p2205
I207
sS'GTCGAC'
p2206
I344
sS'GTCGAA'
p2207
I216
sS'GTCGAG'
p2208
I529
sS'CGTGGC'
p2209
I788
sS'GAGCTA'
p2210
I1776
sS'TGCGCT'
p2211
I390
sS'GAGCTC'
p2212
I2170
sS'ATTGAT'
p2213
I46
sS'GAGCTG'
p2214
I8105
sS'AAACGA'
p2215
I106
sS'AAACGC'
p2216
I246
sS'GTAACA'
p2217
I416
sS'GTAGTA'
p2218
I194
sS'AAACGG'
p2219
I216
sS'TGTCCC'
p2220
I1065
sS'TGCGCG'
p2221
I1176
sS'TGTCCA'
p2222
I592
sS'TGTCCG'
p2223
I435
sS'TGCGCC'
p2224
I1500
sS'ATTGAG'
p2225
I279
sS'TGCGCA'
p2226
I1229
sS'CACGCA'
p2227
I1083
sS'AAACGT'
p2228
I65
sS'ATTTCG'
p2229
I227
sS'ATTTCA'
p2230
I735
sS'ATTTCC'
p2231
I989
sS'ATCAGT'
p2232
I426
sS'ATCGGG'
p2233
I397
sS'CATAGT'
p2234
I239
sS'AAATCA'
p2235
I327
sS'ATCGGC'
p2236
I264
sS'CCGTGT'
p2237
I119
sS'ATCGGA'
p2238
I190
sS'TGGGTG'
p2239
I1355
sS'CGATCA'
p2240
I54
sS'TGGGTC'
p2241
I286
sS'TGGGTA'
p2242
I433
sS'CATAGG'
p2243
I874
sS'ATCGGT'
p2244
I58
sS'ATCAGG'
p2245
I1751
sS'ATCAGA'
p2246
I1213
sS'CATAGA'
p2247
I694
sS'GGTCAA'
p2248
I408
sS'ACGGGT'
p2249
I50
sS'ATAATT'
p2250
I50
sS'CCTGGT'
p2251
I280
sS'GATTCT'
p2252
I894
sS'CTTTTG'
p2253
I4508
sS'TACTAG'
p2254
I1020
sS'TACTAA'
p2255
I1208
sS'TACTAC'
p2256
I1052
sS'GATTCC'
p2257
I2582
sS'ACGGGG'
p2258
I382
sS'ACGGGA'
p2259
I208
sS'ACGGGC'
p2260
I191
sS'TACTAT'
p2261
I329
sS'CTTTTT'
p2262
I423
sS'CGTAGA'
p2263
I284
sS'TCACGA'
p2264
I36
sS'TCACGC'
p2265
I94
sS'TCACGG'
p2266
I102
sS'TCTCAT'
p2267
I106
sS'TCACGT'
p2268
I37
sS'TTCCAC'
p2269
I1565
sS'TTCCAA'
p2270
I1447
sS'TTCCAG'
p2271
I2765
sS'GTTTCA'
p2272
I1095
sS'ACCCTT'
p2273
I255
sS'TGAAGT'
p2274
I199
sS'AAACAA'
p2275
I354
sS'ATGCTT'
p2276
I213
sS'AGGCAC'
p2277
I849
sS'TTCCAT'
p2278
I397
sS'ACCCTA'
p2279
I914
sS'ACCCTC'
p2280
I1134
sS'TGAAGG'
p2281
I802
sS'ACCCTG'
p2282
I3039
sS'CTGACT'
p2283
I452
sS'ATAATC'
p2284
I68
sS'CCCCTT'
p2285
I636
sS'AGTTAT'
p2286
I148
sS'ACATAT'
p2287
I30
sS'CTGACG'
p2288
I529
sS'CTGACC'
p2289
I1132
sS'TCCTCT'
p2290
I1810
sS'AGTTAA'
p2291
I881
sS'CCCCTG'
p2292
I5027
sS'AGTTAC'
p2293
I712
sS'CCCCTC'
p2294
I2940
sS'AGTTAG'
p2295
I781
sS'CCCCTA'
p2296
I1871
sS'ACACAG'
p2297
I145
sS'ACACAA'
p2298
I151
sS'ACACAC'
p2299
I185
sS'AATGTT'
p2300
I173
sS'CTGCAG'
p2301
I2319
sS'CATGGG'
p2302
I1159
sS'CTGCAC'
p2303
I1208
sS'CTGCAA'
p2304
I804
sS'AATGTC'
p2305
I525
sS'ACACAT'
p2306
I56
sS'AATGTA'
p2307
I1040
sS'AATGTG'
p2308
I2102
sS'GCACAC'
p2309
I127
sS'CTGCAT'
p2310
I302
sS'GCACAG'
p2311
I246
sS'ACATTT'
p2312
I61
sS'ATGTTC'
p2313
I333
sS'CGAGAT'
p2314
I32
sS'ATTACT'
p2315
I150
sS'ACATTG'
p2316
I359
sS'GTACCA'
p2317
I179
sS'ACATTA'
p2318
I194
sS'ACATTC'
p2319
I196
sS'GTTCGA'
p2320
I272
sS'ATGCTC'
p2321
I666
sS'GTTCGC'
p2322
I472
sS'CGAGAC'
p2323
I111
sS'GTTCGG'
p2324
I601
sS'AAGTCT'
p2325
I556
sS'CCACAA'
p2326
I147
sS'GGACAT'
p2327
I60
sS'CAGCGT'
p2328
I189
sS'GCTATA'
p2329
I251
sS'GCTATC'
p2330
I137
sS'AAGTCG'
p2331
I505
sS'AAGTCA'
p2332
I1162
sS'GCTATG'
p2333
I637
sS'AAGTCC'
p2334
I1470
sS'GGACAG'
p2335
I149
sS'GGACAC'
p2336
I99
sS'CTATCG'
p2337
I132
sS'CTAATT'
p2338
I108
sS'AGGGTT'
p2339
I138
sS'GAGGCG'
p2340
I3490
sS'TGTTGG'
p2341
I1828
sS'GAGGCA'
p2342
I3218
sS'TGTTGA'
p2343
I1242
sS'GAGGCC'
p2344
I4827
sS'TGTTGC'
p2345
I1784
sS'CAATGT'
p2346
I130
sS'TAAAAT'
p2347
I114
sS'ACTCGC'
p2348
I397
sS'AAGCTT'
p2349
I273
sS'ACTCGG'
p2350
I513
sS'AGCGCA'
p2351
I1282
sS'GAGGCT'
p2352
I1240
sS'AGCGCC'
p2353
I2282
sS'AGGGTG'
p2354
I1763
sS'AGGGTA'
p2355
I519
sS'AGCGCG'
p2356
I1702
sS'AGGGTC'
p2357
I368
sS'TAAAAG'
p2358
I498
sS'ACTCGT'
p2359
I67
sS'TAAAAC'
p2360
I351
sS'TAAAAA'
p2361
I371
sS'ACGTTC'
p2362
I120
sS'AGCTGC'
p2363
I8396
sS'CTACTA'
p2364
I212
sS'AGCTGA'
p2365
I4177
sS'ACGTTG'
p2366
I352
sS'AGCTGG'
p2367
I7805
sS'TAGGGG'
p2368
I1489
sS'AGTGCG'
p2369
I581
sS'AGTGCA'
p2370
I780
sS'CCCGCC'
p2371
I5280
sS'AGTGCC'
p2372
I790
sS'CCAAAA'
p2373
I142
sS'TAGGGT'
p2374
I240
sS'GCATAG'
p2375
I89
sS'AGCTGT'
p2376
I2042
sS'CTACTT'
p2377
I80
sS'AGTGCT'
p2378
I282
sS'AGAGTC'
p2379
I167
sS'AGAGTA'
p2380
I215
sS'AGAGTG'
p2381
I615
sS'TAACCC'
p2382
I185
sS'GTTAAA'
p2383
I634
sS'CCTGGC'
p2384
I1287
sS'GTTAAC'
p2385
I479
sS'CCTGGA'
p2386
I1051
sS'CCTGGG'
p2387
I2216
sS'GTTAAG'
p2388
I743
sS'CCGGTG'
p2389
I446
sS'TTCGTC'
p2390
I336
sS'CTAATC'
p2391
I160
sS'GTCTGG'
p2392
I5848
sS'GTCTGC'
p2393
I5091
sS'GTTAAT'
p2394
I162
sS'GTCTGA'
p2395
I3101
sS'CCGGTC'
p2396
I111
sS'GGAAGG'
p2397
I1722
sS'CCACAT'
p2398
I72
sS'GGAAGC'
p2399
I886
sS'GCACCG'
p2400
I297
sS'GGAAGA'
p2401
I789
sS'GCGTTA'
p2402
I266
sS'CAATGA'
p2403
I368
sS'GCGTTC'
p2404
I223
sS'CAATGC'
p2405
I313
sS'GCGTTG'
p2406
I628
sS'CAATGG'
p2407
I580
sS'ATGCTG'
p2408
I2214
sS'GGAAGT'
p2409
I313
sS'CCACAC'
p2410
I152
sS'ATGCTA'
p2411
I654
sS'ATTTGT'
p2412
I282
sS'TCCTCG'
p2413
I2021
sS'TGTATG'
p2414
I796
sS'TCCTCA'
p2415
I3482
sS'TGTATA'
p2416
I394
sS'TCCTCC'
p2417
I8123
sS'TGTATC'
p2418
I257
sS'CGTTAG'
p2419
I366
sS'TAACCG'
p2420
I86
sS'TCATAG'
p2421
I79
sS'TTCGTG'
p2422
I860
sS'CGTTAC'
p2423
I305
sS'TTCGTA'
p2424
I334
sS'TCATAC'
p2425
I55
sS'TAACCA'
p2426
I209
sS'ACCGCT'
p2427
I153
sS'TCGCGA'
p2428
I69
sS'TGCATG'
p2429
I2800
sS'TCAGGA'
p2430
I508
sS'TTCGTT'
p2431
I94
sS'TACCCT'
p2432
I489
sS'TAACCT'
p2433
I83
sS'GTGAAG'
p2434
I909
sS'GTGAAA'
p2435
I477
sS'GTGAAC'
p2436
I403
sS'CAATAG'
p2437
I167
sS'TGCATA'
p2438
I1617
sS'ACCGCG'
p2439
I568
sS'ACCGCA'
p2440
I507
sS'AACGAG'
p2441
I655
sS'ACCGCC'
p2442
I1101
sS'AGTTCC'
p2443
I1533
sS'CCGCCT'
p2444
I376
sS'AGGCTT'
p2445
I431
sS'CCTTCT'
p2446
I784
sS'CGAGCT'
p2447
I159
sS'GTTGCA'
p2448
I561
sS'AACGAA'
p2449
I404
sS'GTTGCC'
p2450
I699
sS'GTGCCG'
p2451
I1201
sS'GTGCCA'
p2452
I1410
sS'GTTGCG'
p2453
I332
sS'GTGCCC'
p2454
I2413
sS'CCGCCG'
p2455
I612
sS'AGGCTA'
p2456
I878
sS'CCTTCC'
p2457
I3125
sS'AGGCTC'
p2458
I1363
sS'CCGCCC'
p2459
I1336
sS'TGTCGA'
p2460
I230
sS'CCTTCG'
p2461
I847
sS'AGGCTG'
p2462
I5160
sS'GTGCCT'
p2463
I1107
sS'GTTGCT'
p2464
I285
sS'GGATAT'
p2465
I34
sS'TCGGGT'
p2466
I65
sS'AAACCT'
p2467
I113
sS'GCAGTT'
p2468
I101
sS'GAAGCT'
p2469
I511
sS'TCGGGC'
p2470
I222
sS'GGATAC'
p2471
I73
sS'TCGGGG'
p2472
I492
sS'GGATAG'
p2473
I75
sS'GAAGCG'
p2474
I845
sS'GCAGTG'
p2475
I807
sS'GAAGCC'
p2476
I1584
sS'GCAGTA'
p2477
I216
sS'GAAGCA'
p2478
I1284
sS'GCAGTC'
p2479
I161
sS'CGCCCG'
p2480
I2134
sS'GAGAGA'
p2481
I4355
sS'GTTCAT'
p2482
I103
sS'GAGAGG'
p2483
I8433
sS'CGCCCA'
p2484
I1967
sS'ACGTAA'
p2485
I56
sS'GCATTG'
p2486
I616
sS'ACGCAC'
p2487
I106
sS'GCATTA'
p2488
I292
sS'CTCGCA'
p2489
I936
sS'CGCCCT'
p2490
I877
sS'CTCGCG'
p2491
I1307
sS'AAACAT'
p2492
I66
sS'ACGCAT'
p2493
I26
sS'AGTTTC'
p2494
I1164
sS'GCCGGG'
p2495
I3587
sS'GCCGGC'
p2496
I2084
sS'CATGTT'
p2497
I159
sS'GCCGGA'
p2498
I1058
sS'AGATCT'
p2499
I97
sS'AGTTTA'
p2500
I1648
sS'TACCCA'
p2501
I1148
sS'CATGTA'
p2502
I780
sS'CATGTC'
p2503
I436
sS'GCCGGT'
p2504
I243
sS'GAGATT'
p2505
I203
sS'CATGTG'
p2506
I1991
sS'TACCCC'
p2507
I1147
sS'GGCCTG'
p2508
I7365
sS'GGCCTC'
p2509
I2745
sS'GGCCTA'
p2510
I1505
sS'TTTGTT'
p2511
I200
sS'AATCGG'
p2512
I680
sS'CTATCA'
p2513
I356
sS'AATCGC'
p2514
I706
sS'AATCGA'
p2515
I325
sS'GTTCAG'
p2516
I756
sS'GGCCTT'
p2517
I542
sS'TCACTA'
p2518
I143
sS'TCACTC'
p2519
I158
sS'AATCGT'
p2520
I142
sS'TGGATT'
p2521
I110
sS'AGCCGA'
p2522
I1546
sS'CCTTCA'
p2523
I1295
sS'AGCCGC'
p2524
I4252
sS'TAATTG'
p2525
I625
sS'TATCTG'
p2526
I2001
sS'AGCCGG'
p2527
I3764
sS'GTTTTT'
p2528
I285
sS'TGGTGA'
p2529
I760
sS'GGGCTC'
p2530
I1291
sS'TGGTGC'
p2531
I1007
sS'GATGGC'
p2532
I1620
sS'GGGCTG'
p2533
I4790
sS'TGGTGG'
p2534
I1623
sS'GATGGG'
p2535
I2966
sS'GTTTTC'
p2536
I1216
sS'GAGCGG'
p2537
I3301
sS'GTTTTG'
p2538
I3266
sS'AGCCGT'
p2539
I507
sS'GAGCGC'
p2540
I3012
sS'TGACAG'
p2541
I155
sS'CCAAGG'
p2542
I665
sS'ACGTAT'
p2543
I12
sS'TCTCAG'
p2544
I920
sS'CCAAGC'
p2545
I333
sS'TGGTGT'
p2546
I468
sS'TCTCAC'
p2547
I570
sS'ATTCGT'
p2548
I67
sS'AGAACT'
p2549
I192
sS'GCGTTT'
p2550
I86
sS'CCGCCA'
p2551
I408
sS'TACCAT'
p2552
I220
sS'CCTATT'
p2553
I105
sS'ACCCGG'
p2554
I1259
sS'ACCCGA'
p2555
I436
sS'AGATAC'
p2556
I102
sS'ACCCGC'
p2557
I1175
sS'ACCAGT'
p2558
I376
sS'TACCAC'
p2559
I979
sS'AGAACG'
p2560
I220
sS'TACCAA'
p2561
I780
sS'AGAACA'
p2562
I529
sS'TACCAG'
p2563
I1222
sS'AGAACC'
p2564
I516
sS'ATGTCA'
p2565
I676
sS'CACTGG'
p2566
I5096
sS'ATGTCC'
p2567
I667
sS'TGACAA'
p2568
I91
sS'ACCAGG'
p2569
I2628
sS'CACTGC'
p2570
I6474
sS'CCTATC'
p2571
I208
sS'CACTGA'
p2572
I3395
sS'GAGTCA'
p2573
I2636
sS'TAGGTT'
p2574
I72
sS'GTTTAC'
p2575
I748
sS'CGTTAT'
p2576
I75
sS'CTGTTG'
p2577
I2712
sS'GTAACC'
p2578
I387
sS'CTGTTC'
p2579
I998
sS'CGGGTT'
p2580
I52
sS'CTGTTA'
p2581
I1317
sS'AATTAC'
p2582
I837
sS'AATTAA'
p2583
I1012
sS'AATTAG'
p2584
I1039
sS'TAGGTC'
p2585
I292
sS'CGGGTC'
p2586
I226
sS'CTGTTT'
p2587
I421
sS'CGGGTA'
p2588
I230
sS'CGGGTG'
p2589
I771
sS'CCAAAC'
p2590
I175
sS'ATTGTT'
p2591
I69
sS'AAGTAA'
p2592
I505
sS'CATTAC'
p2593
I953
sS'AGCAAA'
p2594
I2127
sS'ATATAT'
p2595
I41
sS'AGCAAC'
p2596
I2163
sS'TTAGGC'
p2597
I252
sS'AAAGCT'
p2598
I246
sS'AGCAAG'
p2599
I3119
sS'AAAGCA'
p2600
I865
sS'AAAGCC'
p2601
I830
sS'TTAGGT'
p2602
I147
sS'ATATAA'
p2603
I84
sS'AGCAAT'
p2604
I467
sS'ATATAC'
p2605
I72
sS'TACTTC'
p2606
I2432
sS'TACTTA'
p2607
I2738
sS'TACTTG'
p2608
I4101
sS'ATAGCG'
p2609
I102
sS'TGCTAA'
p2610
I2142
sS'ATAGCT'
p2611
I125
sS'TACTTT'
p2612
I854
sS'CGAGTT'
p2613
I22
sS'TCCAAT'
p2614
I371
sS'CGTACT'
p2615
I89
sS'TCCCGT'
p2616
I276
sS'ACATAC'
p2617
I65
sS'CTTAAG'
p2618
I800
sS'ACATAA'
p2619
I61
sS'CTTAAA'
p2620
I772
sS'ACATAG'
p2621
I56
sS'CTTAAC'
p2622
I579
sS'TCCAAG'
p2623
I1733
sS'CGAGTG'
p2624
I228
sS'TTGTTA'
p2625
I1321
sS'CGAGTA'
p2626
I96
sS'TCCAAA'
p2627
I1049
sS'AGGGGA'
p2628
I1325
sS'CTTAAT'
p2629
I149
sS'AGGGGC'
p2630
I1622
sS'TATGCA'
p2631
I942
sS'AGGGGG'
p2632
I2070
sS'CGTTTG'
p2633
I1457
sS'CGACTT'
p2634
I18
sS'TGAATT'
p2635
I60
sS'TTGTAA'
p2636
I360
sS'TTGTAC'
p2637
I225
sS'GTACCT'
p2638
I153
sS'TTGTAG'
p2639
I501
sS'TGAATC'
p2640
I124
sS'ACAACA'
p2641
I241
sS'TGAATA'
p2642
I291
sS'CGACTC'
p2643
I68
sS'TGAATG'
p2644
I708
sS'AAGTAT'
p2645
I99
sS'CGACTG'
p2646
I170
sS'TTGTAT'
p2647
I113
sS'ATCGTG'
p2648
I451
sS'GCTTCG'
p2649
I790
sS'GCTTCA'
p2650
I1193
sS'GCTTCC'
p2651
I2308
sS'TGGGAG'
p2652
I908
sS'TGGGAA'
p2653
I433
sS'TGGGAC'
p2654
I463
sS'GCTTCT'
p2655
I640
sS'ATCGTT'
p2656
I31
sS'ACAACG'
p2657
I112
sS'TGGGAT'
p2658
I109
sS'CTAGCC'
p2659
I577
sS'CTAGCA'
p2660
I536
sS'CTAGCG'
p2661
I384
sS'CGGTAG'
p2662
I167
sS'ACTTAG'
p2663
I408
sS'TAGATT'
p2664
I90
sS'ACTTAA'
p2665
I417
sS'CGGTAC'
p2666
I121
sS'TACACT'
p2667
I663
sS'CGGTAA'
p2668
I87
sS'GACCAG'
p2669
I3194
sS'GACCAC'
p2670
I2317
sS'GACCAA'
p2671
I1995
sS'TTCGAG'
p2672
I422
sS'TACACC'
p2673
I1345
sS'CGGTAT'
p2674
I40
sS'TACACA'
p2675
I1624
sS'TACACG'
p2676
I610
sS'GCGAGA'
p2677
I304
sS'GAGAGC'
p2678
I3988
sS'GCGAGC'
p2679
I446
sS'GGCCGT'
p2680
I452
sS'GCGAGG'
p2681
I1019
sS'TTAAGA'
p2682
I545
sS'CAGCCG'
p2683
I957
sS'CAGCCA'
p2684
I1700
sS'GGTATT'
p2685
I73
sS'CAGCCC'
p2686
I2378
sS'GCGAGT'
p2687
I95
sS'CTCGCT'
p2688
I610
sS'GAACTC'
p2689
I283
sS'GAACTA'
p2690
I438
sS'GGACTT'
p2691
I67
sS'CACCTA'
p2692
I1951
sS'AACTAT'
p2693
I292
sS'CACCTC'
p2694
I2843
sS'CACCTG'
p2695
I7105
sS'TGATCC'
p2696
I178
sS'AACACT'
p2697
I894
sS'TGATCA'
p2698
I140
sS'GCTCCA'
p2699
I1011
sS'TGATCG'
p2700
I63
sS'AACTAG'
p2701
I1293
sS'GGACTG'
p2702
I406
sS'CACCTT'
p2703
I569
sS'GGACTA'
p2704
I122
sS'GGACTC'
p2705
I137
sS'AACGAT'
p2706
I62
sS'AACACG'
p2707
I931
sS'AACACA'
p2708
I2330
sS'AACACC'
p2709
I1923
sS'TGATCT'
p2710
I104
sS'AAAGAC'
p2711
I391
sS'CTATAC'
p2712
I108
sS'CAACAG'
p2713
I201
sS'GACAGT'
p2714
I1493
sS'CAACAA'
p2715
I198
sS'AAAGAA'
p2716
I603
sS'CAACAC'
p2717
I121
sS'GCTGAT'
p2718
I104
sS'CTATAA'
p2719
I153
sS'GACAGG'
p2720
I7487
sS'ATATCC'
p2721
I218
sS'GACAGC'
p2722
I5973
sS'GACAGA'
p2723
I4678
sS'GTATTA'
p2724
I392
sS'ACGAAT'
p2725
I17
sS'GTATTC'
p2726
I268
sS'GTAAGT'
p2727
I174
sS'ATATCA'
p2728
I166
sS'AGAGGT'
p2729
I235
sS'GGTGGC'
p2730
I1107
sS'TCCCCT'
p2731
I783
sS'GGTGGA'
p2732
I892
sS'TATCTT'
p2733
I242
sS'GGTGGG'
p2734
I2554
sS'AGAGGC'
p2735
I684
sS'GTAAGA'
p2736
I435
sS'AGAGGA'
p2737
I966
sS'CTCGCC'
p2738
I2267
sS'GTATTT'
p2739
I168
sS'GTAAGG'
p2740
I684
sS'TCCCCG'
p2741
I1586
sS'CGTCAC'
p2742
I700
sS'TCCCCC'
p2743
I1749
sS'GGTGGT'
p2744
I285
sS'TCCCCA'
p2745
I1966
sS'GTCGCG'
p2746
I759
sS'GTCGCA'
p2747
I624
sS'GTCGCC'
p2748
I1300
sS'TCGGTC'
p2749
I77
sS'TCGGTA'
p2750
I90
sS'GAGAGT'
p2751
I813
sS'TCGGTG'
p2752
I366
sS'GTCGCT'
p2753
I363
sS'GTAACT'
p2754
I189
sS'CCGTCG'
p2755
I174
sS'CCGTCA'
p2756
I242
sS'CCGTCC'
p2757
I554
sS'GGCTGT'
p2758
I1828
sS'CGCGTG'
p2759
I1764
sS'CTATAT'
p2760
I43
sS'CGCGTC'
p2761
I635
sS'CGCGTA'
p2762
I462
sS'ATGCAG'
p2763
I605
sS'ATGCAA'
p2764
I397
sS'ATGCAC'
p2765
I344
sS'CGCGTT'
p2766
I115
sS'GGCTGG'
p2767
I9511
sS'GGCTGA'
p2768
I4208
sS'GGCTGC'
p2769
I9261
sS'ATGCAT'
p2770
I107
sS'CCTACC'
p2771
I724
sS'TTGACC'
p2772
I510
sS'ATGACG'
p2773
I242
sS'GGAGTT'
p2774
I55
sS'ATGACA'
p2775
I453
sS'ATGACC'
p2776
I367
sS'CCTGAT'
p2777
I101
sS'GGGCCT'
p2778
I638
sS'TAAGAA'
p2779
I320
sS'ATGACT'
p2780
I193
sS'GGAGTA'
p2781
I178
sS'CTACGC'
p2782
I154
sS'GGAGTC'
p2783
I143
sS'GGAGTG'
p2784
I596
sS'GGGCCG'
p2785
I1013
sS'GGGCCC'
p2786
I1418
sS'GGGCCA'
p2787
I1004
sS'CTGATC'
p2788
I286
sS'ACGAGT'
p2789
I36
sS'AGGCCA'
p2790
I1271
sS'AGGCCC'
p2791
I1934
sS'AGGCCG'
p2792
I1014
sS'ACGAGG'
p2793
I362
sS'AGTATC'
p2794
I185
sS'ACGAGC'
p2795
I145
sS'ACGAGA'
p2796
I125
sS'CTGATG'
p2797
I1263
sS'AGGCCT'
p2798
I677
sS'GCTCTA'
p2799
I1016
sS'AGACGG'
p2800
I184
sS'GGGTTG'
p2801
I1659
sS'TTTGGG'
p2802
I1085
sS'GGGTTA'
p2803
I780
sS'GGGTTC'
p2804
I496
sS'TTTGAT'
p2805
I93
sS'TGCAAT'
p2806
I338
sS'TGAACT'
p2807
I162
sS'CTACGA'
p2808
I91
sS'AACGGT'
p2809
I195
sS'TGCGAA'
p2810
I324
sS'TGCGAC'
p2811
I518
sS'AGAAAT'
p2812
I113
sS'TGCGAG'
p2813
I782
sS'AACGGC'
p2814
I818
sS'TTTGAG'
p2815
I769
sS'AACGGA'
p2816
I609
sS'GACTAG'
p2817
I2289
sS'AACGGG'
p2818
I1075
sS'TTTGAC'
p2819
I468
sS'TTTGAA'
p2820
I634
sS'CGGGCT'
p2821
I269
sS'TGACGT'
p2822
I49
sS'CTCGTC'
p2823
I553
sS'CCCTGG'
p2824
I6086
sS'CCCTGA'
p2825
I2770
sS'CTCGTG'
p2826
I1317
sS'CCCTGC'
p2827
I7027
sS'CCCTGT'
p2828
I1199
sS'AAGCTC'
p2829
I1116
sS'GATATA'
p2830
I436
sS'AAGCTA'
p2831
I1036
sS'GATATG'
p2832
I963
sS'AAGCTG'
p2833
I3602
sS'TGACGC'
p2834
I109
sS'TACTCT'
p2835
I982
sS'CATCGT'
p2836
I146
sS'GATGGT'
p2837
I375
sS'GTAGTC'
p2838
I157
sS'CCAGTA'
p2839
I230
sS'GCTAAT'
p2840
I97
sS'CCAGTC'
p2841
I158
sS'TACGAT'
p2842
I45
sS'CCAGTG'
p2843
I646
sS'TACTCG'
p2844
I945
sS'CATCGA'
p2845
I317
sS'CATCGC'
p2846
I813
sS'TACTCC'
p2847
I2465
sS'NGAATT'
p2848
I2
sS'TACTCA'
p2849
I2337
sS'CATCGG'
p2850
I514
sS'CAGGGG'
p2851
I2308
sS'CAGGGA'
p2852
I1670
sS'CAGGGC'
p2853
I2169
sS'AATCTG'
p2854
I2455
sS'TACAAT'
p2855
I417
sS'GCCATT'
p2856
I418
sS'AGTCGA'
p2857
I332
sS'AATCTA'
p2858
I851
sS'ATCCAA'
p2859
I536
sS'TCACAC'
p2860
I88
sS'TCACAA'
p2861
I93
sS'TCACAG'
p2862
I157
sS'GCCATA'
p2863
I807
sS'CGGACG'
p2864
I326
sS'TCCACC'
p2865
I2821
sS'CGGACA'
p2866
I282
sS'CGGACC'
p2867
I569
sS'GCCATG'
p2868
I2998
sS'TTTTAA'
p2869
I1309
sS'TCACAT'
p2870
I58
sS'ATTAAC'
p2871
I403
sS'ATTAAA'
p2872
I482
sS'ATTAAG'
p2873
I464
sS'CTTACA'
p2874
I588
sS'TCACTT'
p2875
I75
sS'ACTCCT'
p2876
I230
sS'TGAACA'
p2877
I309
sS'ATTAAT'
p2878
I82
sS'AAGCAC'
p2879
I976
sS'GAACCA'
p2880
I415
sS'TTACTG'
p2881
I458
sS'GGTATG'
p2882
I556
sS'GGTATA'
p2883
I203
sS'GGTATC'
p2884
I155
sS'GAACCG'
p2885
I204
sS'TCGCTT'
p2886
I37
sS'CTGAAA'
p2887
I470
sS'CTGAAC'
p2888
I483
sS'CTGAAG'
p2889
I893
sS'ATTGTA'
p2890
I363
sS'NNNNGA'
p2891
I4
sS'TAGGTA'
p2892
I515
sS'CATTGC'
p2893
I1969
sS'TATGAG'
p2894
I562
sS'CATTGA'
p2895
I1295
sS'CTAGTT'
p2896
I85
sS'CATTGG'
p2897
I3015
sS'TCAACT'
p2898
I92
sS'ATGTTA'
p2899
I696
sS'ACACCG'
p2900
I123
sS'CTGCCA'
p2901
I2603
sS'CTGCCC'
p2902
I4621
sS'ACACCC'
p2903
I195
sS'ACACCA'
p2904
I225
sS'CTGCCG'
p2905
I2034
sS'CTAGTG'
p2906
I582
sS'TCAACC'
p2907
I205
sS'TCAACA'
p2908
I250
sS'CTAGTC'
p2909
I143
sS'TCAACG'
p2910
I78
sS'CTAGTA'
p2911
I202
sS'CATTGT'
p2912
I911
sS'CCCGGG'
p2913
I2775
sS'ACACCT'
p2914
I166
sS'CTGCCT'
p2915
I1865
sS'CCTCGT'
p2916
I165
sS'TTGTGT'
p2917
I603
sS'AGACTG'
p2918
I460
sS'AGACTC'
p2919
I150
sS'AGACTA'
p2920
I196
sS'CCTCGG'
p2921
I1153
sS'CCTCGC'
p2922
I1054
sS'CCTCGA'
p2923
I367
sS'CGAGGA'
p2924
I387
sS'CGAGGC'
p2925
I428
sS'CGAGGG'
p2926
I621
sS'ACTTTC'
p2927
I639
sS'ACTTTA'
p2928
I999
sS'ACTTTG'
p2929
I2039
sS'GACCTG'
p2930
I7208
sS'GACCTA'
p2931
I2058
sS'GACCTC'
p2932
I2883
sS'CACCGG'
p2933
I1633
sS'CTATTG'
p2934
I1050
sS'CACCGA'
p2935
I850
sS'CACCGC'
p2936
I2894
sS'GACCTT'
p2937
I723
sS'CGCCCC'
p2938
I4943
sS'GGACGG'
p2939
I208
sS'ACGCTA'
p2940
I153
sS'CACAGC'
p2941
I5225
sS'CTTATC'
p2942
I289
sS'CACAGA'
p2943
I3150
sS'CTTATA'
p2944
I431
sS'CACAGG'
p2945
I5372
sS'CTTATG'
p2946
I735
sS'ACTCAT'
p2947
I101
sS'GAGGAG'
p2948
I5555
sS'GACGTA'
p2949
I793
sS'CTTGAC'
p2950
I593
sS'GACGTC'
p2951
I1218
sS'GAGGAC'
p2952
I1844
sS'GAGGAA'
p2953
I2124
sS'GACGTG'
p2954
I2806
sS'TTAACA'
p2955
I481
sS'ACTCAC'
p2956
I562
sS'TTAACC'
p2957
I364
sS'TATGAT'
p2958
I79
sS'ACTCAG'
p2959
I679
sS'CTTATT'
p2960
I153
sS'CACAGT'
p2961
I1213
sS'AGCGAC'
p2962
I823
sS'TAAACA'
p2963
I681
sS'AGCGAA'
p2964
I514
sS'TAAACC'
p2965
I376
sS'GACGTT'
p2966
I225
sS'TCTAAA'
p2967
I366
sS'TAAACG'
p2968
I156
sS'CTGTGG'
p2969
I2822
sS'GTATGT'
p2970
I240
sS'AGTTCA'
p2971
I1178
sS'TAATTT'
p2972
I57
sS'CTGTGC'
p2973
I2230
sS'CTGTGA'
p2974
I1489
sS'CGGGGT'
p2975
I201
sS'TAGGAC'
p2976
I474
sS'GCAAAG'
p2977
I373
sS'TAGGAA'
p2978
I521
sS'GCAAAA'
p2979
I174
sS'TAGGAG'
p2980
I843
sS'GCAAAC'
p2981
I203
sS'CGGGGC'
p2982
I1378
sS'GTATGG'
p2983
I369
sS'CTGTGT'
p2984
I1030
sS'CGGGGG'
p2985
I1100
sS'GTATGC'
p2986
I317
sS'AGTGGA'
p2987
I720
sS'GCAAAT'
p2988
I79
sS'CGAGAA'
p2989
I175
sS'TAGGAT'
p2990
I88
sS'TAATTA'
p2991
I559
sS'TTCAAT'
p2992
I343
sS'TGCTTT'
p2993
I1341
sS'GTCTAT'
p2994
I306
sS'GTAATT'
p2995
I89
sS'GTTACC'
p2996
I547
sS'GTTACA'
p2997
I507
sS'TAATTC'
p2998
I185
sS'TATCGA'
p2999
I177
sS'TATCGC'
p3000
I353
sS'TATAGT'
p3001
I262
sS'GTCTAA'
p3002
I1180
sS'CAGGAC'
p3003
I950
sS'TTCAAG'
p3004
I2061
sS'TGCTTC'
p3005
I4341
sS'TTCAAA'
p3006
I1986
sS'TTCAAC'
p3007
I1345
sS'TGCTTG'
p3008
I7181
sS'TATAGC'
p3009
I477
sS'TTTATC'
p3010
I284
sS'TATAGA'
p3011
I600
sS'AGCTCA'
p3012
I4194
sS'TATAGG'
p3013
I768
sS'GTTACT'
p3014
I266
sS'GCTCTC'
p3015
I984
sS'GGAAAC'
p3016
I371
sS'GGGCTA'
p3017
I766
sS'GCTCTG'
p3018
I4074
sS'CCACGT'
p3019
I115
sS'GGCGTT'
p3020
I155
sS'AGGACC'
p3021
I1308
sS'CGATCC'
p3022
I99
sS'GAATGG'
p3023
I961
sS'GGCTTT'
p3024
I1078
sS'ACTACT'
p3025
I116
sS'GAATGC'
p3026
I870
sS'GCATAA'
p3027
I81
sS'GGCGTC'
p3028
I791
sS'CCACGC'
p3029
I161
sS'GGCGTA'
p3030
I539
sS'GGCGTG'
p3031
I2828
sS'CCACGG'
p3032
I207
sS'AACCTA'
p3033
I1408
sS'GGCTTA'
p3034
I2953
sS'ACTACC'
p3035
I269
sS'GGCTTC'
p3036
I4528
sS'ACTACA'
p3037
I507
sS'ACTACG'
p3038
I171
sS'GGCTTG'
p3039
I7647
sS'TCCTAG'
p3040
I1808
sS'AGTCAG'
p3041
I1391
sS'CGTTGC'
p3042
I947
sS'TAACAC'
p3043
I142
sS'TCCTAC'
p3044
I1413
sS'AGTCAC'
p3045
I1155
sS'CGTTGG'
p3046
I841
sS'AGTCAA'
p3047
I619
sS'TCATCG'
p3048
I117
sS'AAGCGT'
p3049
I211
sS'TCATCC'
p3050
I338
sS'GTTTTA'
p3051
I1764
sS'CTTTCT'
p3052
I1107
sS'AGTCAT'
p3053
I187
sS'TCCTAT'
p3054
I294
sS'TAACAT'
p3055
I29
sS'CGTTGT'
p3056
I205
sS'TAAATA'
p3057
I598
sS'CTTTCC'
p3058
I3109
sS'TCATCT'
p3059
I156
sS'CTTTCG'
p3060
I762
sS'AAAAAG'
p3061
I543
sS'GTTGAT'
p3062
I82
sS'CGACCA'
p3063
I94
sS'CGACCC'
p3064
I154
sS'GCATAC'
p3065
I64
sS'CGACCG'
p3066
I71
sS'CCTTAT'
p3067
I118
sS'GTTGAC'
p3068
I336
sS'GTTGAA'
p3069
I426
sS'ACTGGG'
p3070
I853
sS'GTTGAG'
p3071
I615
sS'CCTTAC'
p3072
I510
sS'TTCGAT'
p3073
I52
sS'CCTTAA'
p3074
I624
sS'CCTTAG'
p3075
I789
sS'CGACCT'
p3076
I49
sS'CAACTC'
p3077
I137
sS'AATAGC'
p3078
I918
sS'CAACTG'
p3079
I378
sS'AATAGG'
p3080
I1257
sS'AATATC'
p3081
I248
sS'TCGCTC'
p3082
I188
sS'GGGGTT'
p3083
I153
sS'GGATGT'
p3084
I146
sS'AATAGT'
p3085
I339
sS'GGGCTT'
p3086
I362
sS'CAACTT'
p3087
I34
sS'GGGGTG'
p3088
I1795
sS'GGATGA'
p3089
I202
sS'GGGGTC'
p3090
I296
sS'GGGGTA'
p3091
I380
sS'TCTCCG'
p3092
I479
sS'GAGTCC'
p3093
I2951
sS'AAACTG'
p3094
I574
sS'TCTCCC'
p3095
I1017
sS'GAGTCG'
p3096
I1218
sS'TCTCCA'
p3097
I752
sS'AAACTC'
p3098
I156
sS'ACGCGA'
p3099
I86
sS'AGTACG'
p3100
I227
sS'ACGCGC'
p3101
I221
sS'AGTACC'
p3102
I512
sS'CTATGG'
p3103
I541
sS'AGTACA'
p3104
I458
sS'CCCTTA'
p3105
I3153
sS'CCCTTC'
p3106
I4679
sS'TCTCCT'
p3107
I424
sS'CCCTTG'
p3108
I6712
sS'AGTACT'
p3109
I245
sS'CTATGT'
p3110
I213
sS'GCCGAA'
p3111
I397
sS'GTGGAG'
p3112
I1097
sS'GCCGAC'
p3113
I798
sS'GTGGAC'
p3114
I431
sS'GCCGAG'
p3115
I1493
sS'GTGGAA'
p3116
I567
sS'GTGGAT'
p3117
I97
sS'ACGAAC'
p3118
I66
sS'AGATAG'
p3119
I94
sS'CAAATT'
p3120
I60
sS'CACTGT'
p3121
I1627
sS'ACCGAG'
p3122
I507
sS'AAATCG'
p3123
I109
sS'CACGCG'
p3124
I1012
sS'TTATCG'
p3125
I94
sS'GTAGTG'
p3126
I499
sS'AAATCC'
p3127
I371
sS'CACGCC'
p3128
I2106
sS'AAAGTA'
p3129
I308
sS'AGAGGG'
p3130
I1264
sS'ATGTCT'
p3131
I261
sS'CACGCT'
p3132
I385
sS'AAATCT'
p3133
I119
sS'AAAGTC'
p3134
I173
sS'GTAGTT'
p3135
I94
sS'AGATAA'
p3136
I116
sS'GATGAT'
p3137
I180
sS'GGAGCA'
p3138
I754
sS'GGAGCC'
p3139
I903
sS'CCGGCT'
p3140
I256
sS'CCAAAT'
p3141
I62
sS'GGAGCG'
p3142
I623
sS'AAAACT'
p3143
I164
sS'GATGAC'
p3144
I1277
sS'GATGAA'
p3145
I1087
sS'GCTCTT'
p3146
I198
sS'GATGAG'
p3147
I1912
sS'AAAACC'
p3148
I496
sS'AAAACA'
p3149
I747
sS'AAAACG'
p3150
I204
sS'GGAGCT'
p3151
I385
sS'CCAAAG'
p3152
I258
sS'TCGCGG'
p3153
I241
sS'CTAGAG'
p3154
I475
sS'TCGCGC'
p3155
I166
sS'ACGTCG'
p3156
I134
sS'GCCACA'
p3157
I2265
sS'AGATCA'
p3158
I208
sS'GCCACC'
p3159
I2949
sS'AGATCC'
p3160
I245
sS'CGACGG'
p3161
I100
sS'GCCACG'
p3162
I1525
sS'AGATCG'
p3163
I99
sS'ACCAGC'
p3164
I1850
sS'TCGCGT'
p3165
I36
sS'GTGCAA'
p3166
I514
sS'ACCCGT'
p3167
I125
sS'AGAAAG'
p3168
I729
sS'CGACGA'
p3169
I34
sS'TACCCG'
p3170
I697
sS'AGAAAC'
p3171
I435
sS'GCCACT'
p3172
I926
sS'AGAAAA'
p3173
I394
sS'ACCTAA'
p3174
I686
sS'ATGTAC'
p3175
I165
sS'ACTTCG'
p3176
I357
sS'ATGTAA'
p3177
I290
sS'ATGTAG'
p3178
I267
sS'CCTATA'
p3179
I273
sS'CGAAGT'
p3180
I82
sS'GTTCCG'
p3181
I458
sS'CCCAAG'
p3182
I1794
sS'ATGTCG'
p3183
I235
sS'CTATGA'
p3184
I314
sS'ATGTAT'
p3185
I87
sS'CCGGCG'
p3186
I493
sS'ATTAGC'
p3187
I480
sS'ATCCAT'
p3188
I129
sS'AGCACT'
p3189
I1201
sS'TTAGAA'
p3190
I293
sS'CGGCTG'
p3191
I2131
sS'TTAGAC'
p3192
I132
sS'CGGCTC'
p3193
I765
sS'TTAGAG'
p3194
I283
sS'CGGCTA'
p3195
I387
sS'AGCACC'
p3196
I3013
sS'AGCACA'
p3197
I2652
sS'AGCACG'
p3198
I1538
sS'CGGCTT'
p3199
I131
sS'TTAGAT'
p3200
I48
sS'CCAGCA'
p3201
I1216
sS'CGAAGC'
p3202
I258
sS'CCAGCC'
p3203
I1318
sS'AAAGAG'
p3204
I629
sS'CCAGCG'
p3205
I730
sS'CGACGT'
p3206
I25
sS'TATCGT'
p3207
I85
sS'TGTGAG'
p3208
I1169
sS'AATTAT'
p3209
I184
sS'TGTGAA'
p3210
I631
sS'CTACCT'
p3211
I298
sS'TGTGAC'
p3212
I824
sS'CTATGC'
p3213
I394
sS'ATATCT'
p3214
I96
sS'CCAGCT'
p3215
I652
sS'AAAGAT'
p3216
I58
sS'TGTGAT'
p3217
I160
sS'TTATTG'
p3218
I706
sS'TTATTA'
p3219
I562
sS'CATGAT'
p3220
I106
sS'TTATTC'
p3221
I265
sS'ACATCT'
p3222
I104
sS'TTTTAT'
p3223
I246
sS'GCGAAC'
p3224
I128
sS'TACAAG'
p3225
I1510
sS'TCCACT'
p3226
I688
sS'TACAAA'
p3227
I1605
sS'AGACGA'
p3228
I83
sS'TACAAC'
p3229
I1230
sS'CCTCTG'
p3230
I3852
sS'AGGTGG'
p3231
I2475
sS'CCTCTC'
p3232
I1333
sS'AGGTGC'
p3233
I1335
sS'CCTCTA'
p3234
I1086
sS'AGGTGA'
p3235
I1111
sS'CTTACG'
p3236
I249
sS'TCCACA'
p3237
I1608
sS'TTTTAG'
p3238
I682
sS'ACATCG'
p3239
I79
sS'CTTACC'
p3240
I769
sS'ACATCA'
p3241
I210
sS'TTTTAC'
p3242
I678
sS'TCCACG'
p3243
I938
sS'AGGTGT'
p3244
I599
sS'CCTCTT'
p3245
I283
sS'CGTCGG'
p3246
I712
sS'CCCGGC'
p3247
I2181
sS'CCCGGA'
p3248
I954
sS'TATGAC'
p3249
I401
sS'TATGAA'
p3250
I403
sS'TGGAAT'
p3251
I192
sS'TAGGTG'
p3252
I1069
sS'TTGTGC'
p3253
I911
sS'TTGTGA'
p3254
I799
sS'TTGTGG'
p3255
I1412
sS'TTTTGA'
p3256
I1132
sS'TGGAAG'
p3257
I1039
sS'GGTTTT'
p3258
I287
sS'TGGAAC'
p3259
I484
sS'TGGAAA'
p3260
I510
sS'TGAGGA'
p3261
I588
sS'AAGAGG'
p3262
I3842
sS'TGAGGC'
p3263
I493
sS'AAGAGA'
p3264
I2071
sS'AAGAGC'
p3265
I2079
sS'TGAGGG'
p3266
I704
sS'GCTTAG'
p3267
I732
sS'GCTTAC'
p3268
I413
sS'GCTTAA'
p3269
I569
sS'TCTGAT'
p3270
I92
sS'AAGCGC'
p3271
I1203
sS'AAGAGT'
p3272
I498
sS'AAGCGA'
p3273
I595
sS'TGAGGT'
p3274
I222
sS'GCTTAT'
p3275
I89
sS'CTGCTA'
p3276
I1568
sS'GCGTGT'
p3277
I187
sS'CTGCTC'
p3278
I2685
sS'ACTTCT'
p3279
I265
sS'GACCGT'
p3280
I477
sS'CTGCTG'
p3281
I8123
sS'CGGTCA'
p3282
I305
sS'GGTCGT'
p3283
I149
sS'CGGTCC'
p3284
I674
sS'CTAGAA'
p3285
I390
sS'CTAGAC'
p3286
I212
sS'GACCGA'
p3287
I1304
sS'GACCGC'
p3288
I2954
sS'ACTTCC'
p3289
I1248
sS'CTGCTT'
p3290
I700
sS'GACCGG'
p3291
I2833
sS'CTAGAT'
p3292
I88
sS'GGTCGG'
p3293
I1016
sS'AGCGGT'
p3294
I269
sS'CGGTCT'
p3295
I166
sS'GGTCGC'
p3296
I879
sS'GGTCGA'
p3297
I340
sS'CGTCGC'
p3298
I811
sS'GCGTGG'
p3299
I745
sS'ACGTTT'
p3300
I41
sS'GCGTGA'
p3301
I270
sS'GCGTGC'
p3302
I522
sS'TGCTCA'
p3303
I3408
sS'TTCATC'
p3304
I1039
sS'TGCTCC'
p3305
I4998
sS'TTCATA'
p3306
I1169
sS'TTCATG'
p3307
I2554
sS'TGCTCG'
p3308
I1715
sS'GTACAA'
p3309
I92
sS'CAGCAG'
p3310
I1724
sS'GCGGCT'
p3311
I269
sS'CAGCAC'
p3312
I1053
sS'CAGCAA'
p3313
I691
sS'GGGAGT'
p3314
I560
sS'GTACAC'
p3315
I86
sS'TGCTCT'
p3316
I1745
sS'TTCATT'
p3317
I623
sS'GTAGCC'
p3318
I455
sS'TGGCCG'
p3319
I701
sS'GCTGCA'
p3320
I1396
sS'AACTCT'
p3321
I1122
sS'TGGCCC'
p3322
I1295
sS'TGGCCA'
p3323
I1006
sS'GTAGCA'
p3324
I422
sS'AACTCA'
p3325
I2574
sS'TGGCCT'
p3326
I499
sS'AACTCC'
p3327
I3513
sS'GCTGCT'
p3328
I616
sS'AACTCG'
p3329
I1201
sS'CTACAA'
p3330
I198
sS'TGAAGA'
p3331
I464
sS'AATATT'
p3332
I112
sS'CAACCT'
p3333
I160
sS'CAGTTA'
p3334
I1042
sS'GCTGCC'
p3335
I1444
sS'GGCACG'
p3336
I1156
sS'GGCACA'
p3337
I1772
sS'GACAAT'
p3338
I645
sS'GGCACC'
p3339
I2207
sS'CAACCG'
p3340
I122
sS'GTACAT'
p3341
I37
sS'AATATG'
p3342
I859
sS'CGGTCG'
p3343
I276
sS'CAACCC'
p3344
I285
sS'TTAGGA'
p3345
I446
sS'CAACCA'
p3346
I258
sS'CTTCGT'
p3347
I190
sS'GACAAA'
p3348
I2770
sS'GGCACT'
p3349
I855
sS'GACAAC'
p3350
I2003
sS'CAGAAC'
p3351
I739
sS'GACAAG'
p3352
I3179
sS'GCTGCG'
p3353
I1130
sS'GCTTTT'
p3354
I374
sS'GCAATA'
p3355
I155
sS'GCAATG'
p3356
I455
sS'CGATGG'
p3357
I125
sS'TCCCAT'
p3358
I266
sS'CGATGC'
p3359
I90
sS'CAGCAT'
p3360
I180
sS'CGATGA'
p3361
I61
sS'GAATTA'
p3362
I490
sS'GAATTC'
p3363
I415
sS'GAATTG'
p3364
I753
sS'TCCCAA'
p3365
I913
sS'CGATGT'
p3366
I33
sS'GTAAAA'
p3367
I278
sS'GTAAAG'
p3368
I352
sS'TCCCAG'
p3369
I2348
sS'GGATTT'
p3370
I51
sS'GTGCGT'
p3371
I219
sS'ATGGTA'
p3372
I284
sS'GGATTC'
p3373
I132
sS'GGATTA'
p3374
I301
sS'GGATTG'
p3375
I380
sS'ACCTCT'
p3376
I691
sS'ATGGTG'
p3377
I760
sS'ATATAG'
p3378
I67
sS'TCTGTG'
p3379
I2086
sS'TCTGTC'
p3380
I487
sS'GTCCCG'
p3381
I2165
sS'TCTGTA'
p3382
I711
sS'GGCGGC'
p3383
I2845
sS'CTCCTT'
p3384
I1279
sS'GGCGGA'
p3385
I1621
sS'GGCGGG'
p3386
I6558
sS'AACCGA'
p3387
I702
sS'TCTGTT'
p3388
I121
sS'AAAGCG'
p3389
I371
sS'CTCCTG'
p3390
I11265
sS'AACCGT'
p3391
I265
sS'CTCCTA'
p3392
I3248
sS'CTCCTC'
p3393
I6720
sS'GGCGGT'
p3394
I428
sS'GACGCA'
p3395
I1819
sS'CCCACG'
p3396
I1127
sS'CCCACA'
p3397
I1996
sS'CCCACC'
p3398
I4605
sS'ATAGCA'
p3399
I270
sS'AGCCTT'
p3400
I792
sS'CCGATT'
p3401
I20
sS'CCCACT'
p3402
I874
sS'AACAAT'
p3403
I490
sS'GACGCT'
p3404
I858
sS'GTGCGA'
p3405
I392
sS'CCGATA'
p3406
I66
sS'AGCCTG'
p3407
I8954
sS'AGCCTA'
p3408
I2109
sS'AGCCTC'
p3409
I3805
sS'GTACCC'
p3410
I222
sS'GTGCGC'
p3411
I1000
sS'GTACCG'
p3412
I116
sS'CGCCTT'
p3413
I503
sS'GCGCCT'
p3414
I336
sS'CAGAGT'
p3415
I470
sS'GCATCT'
p3416
I156
sS'ACCTCG'
p3417
I1112
sS'GAGTTG'
p3418
I3248
sS'CGCCTC'
p3419
I3479
sS'GCGCCA'
p3420
I449
sS'CGCCTA'
p3421
I1385
sS'GAGTTC'
p3422
I1238
sS'CGCCTG'
p3423
I5808
sS'GAGTTA'
p3424
I1578
sS'CAGAGG'
p3425
I3690
sS'GCATCC'
p3426
I425
sS'GTGCGG'
p3427
I1070
sS'CAGAGC'
p3428
I2407
sS'GCATCG'
p3429
I121
sS'CAGAGA'
p3430
I1777
sS'AATCAT'
p3431
I223
sS'TAGCTA'
p3432
I633
sS'CCGATC'
p3433
I55
sS'CCTAGA'
p3434
I542
sS'CCTAGC'
p3435
I629
sS'TTTGCT'
p3436
I337
sS'TAGCTC'
p3437
I675
sS'TGCGGT'
p3438
I267
sS'CCTAGG'
p3439
I1080
sS'CCCATG'
p3440
I2233
sS'GTCTAG'
p3441
I1571
sS'TGCGGC'
p3442
I1396
sS'TGCGGA'
p3443
I705
sS'CCTAGT'
p3444
I197
sS'TGCGGG'
p3445
I1834
sS'TTTGCG'
p3446
I301
sS'TGAGTT'
p3447
I60
sS'CGGGAC'
p3448
I416
sS'ATCGCT'
p3449
I131
sS'CAGGGT'
p3450
I445
sS'ATCGCC'
p3451
I423
sS'TGAGTG'
p3452
I551
sS'ATCGCA'
p3453
I268
sS'TGAGTA'
p3454
I196
sS'ATCGCG'
p3455
I263
sS'TGAGTC'
p3456
I166
sS'AAGGTG'
p3457
I2095
sS'ACGGCT'
p3458
I67
sS'CATCAT'
p3459
I175
sS'AAGGTA'
p3460
I752
sS'AAGCGG'
p3461
I1328
sS'ACGGCA'
p3462
I169
sS'CATCAC'
p3463
I1146
sS'ACGGCC'
p3464
I271
sS'CATCAA'
p3465
I671
sS'CATCAG'
p3466
I1301
sS'ACGGCG'
p3467
I195
sS'TCACCT'
p3468
I202
sS'TCGTTT'
p3469
I40
sS'CGGAAT'
p3470
I46
sS'CAATTC'
p3471
I117
sS'ATCGAT'
p3472
I20
sS'TCACCG'
p3473
I146
sS'TCACCA'
p3474
I268
sS'TCACCC'
p3475
I212
sS'CGGAAG'
p3476
I776
sS'AATATA'
p3477
I476
sS'AACTGG'
p3478
I3412
sS'AAAATA'
p3479
I423
sS'CGGAAC'
p3480
I284
sS'CGGAAA'
p3481
I270
sS'TAGCTT'
p3482
I157
sS'TGTGTC'
p3483
I528
sS'TGTGTA'
p3484
I846
sS'CCGTAG'
p3485
I101
sS'TGTGTG'
p3486
I3801
sS'ATGGCA'
p3487
I634
sS'TTACTT'
p3488
I58
sS'TCGTCC'
p3489
I273
sS'ATGGCT'
p3490
I210
sS'TGTGTT'
p3491
I175
sS'CCAAGT'
p3492
I169
sS'AGATTA'
p3493
I224
sS'GAAACG'
p3494
I474
sS'GAAACA'
p3495
I951
sS'GAAACC'
p3496
I972
sS'AAGATA'
p3497
I567
sS'CTGAGT'
p3498
I439
sS'GAAACT'
p3499
I334
sS'AGAATG'
p3500
I837
sS'AGAATA'
p3501
I317
sS'AGAATC'
p3502
I160
sS'CTGAGC'
p3503
I1471
sS'CTGAGA'
p3504
I1147
sS'CTGAGG'
p3505
I2333
sS'CATACC'
p3506
I619
sS'CATACA'
p3507
I570
sS'GCGCGT'
p3508
I112
sS'CATACG'
p3509
I193
sS'GCAATC'
p3510
I74
sS'TCAAAT'
p3511
I62
sS'GTCCAT'
p3512
I239
sS'AGGGGT'
p3513
I365
sS'CATACT'
p3514
I218
sS'AATGGC'
p3515
I1069
sS'GTCCAG'
p3516
I1962
sS'CAAGCT'
p3517
I336
sS'TCAAAG'
p3518
I205
sS'GTCCAC'
p3519
I1115
sS'GTCCAA'
p3520
I847
sS'CGGCGG'
p3521
I1165
sS'TTGATG'
p3522
I735
sS'ATCGAG'
p3523
I196
sS'CGGCGC'
p3524
I921
sS'TTGATC'
p3525
I170
sS'CGGCGA'
p3526
I320
sS'TTGATA'
p3527
I362
sS'CTATCT'
p3528
I217
sS'AAGTGA'
p3529
I1435
sS'TTGATT'
p3530
I106
sS'CGGCGT'
p3531
I133
sS'ATGGCC'
p3532
I640
sS'GTACGC'
p3533
I91
sS'ATCGAC'
p3534
I138
sS'TATAAG'
p3535
I577
sS'TCCAAC'
p3536
I1109
sS'CGGTTA'
p3537
I247
sS'GGTTTA'
p3538
I1286
sS'CGGTTC'
p3539
I254
sS'GGTTTC'
p3540
I1203
sS'TTTACA'
p3541
I897
sS'CGGTTG'
p3542
I682
sS'GGTTTG'
p3543
I2868
sS'TATAAA'
p3544
I715
sS'TTCAGT'
p3545
I1086
sS'GCTGTG'
p3546
I2806
sS'GCTGTC'
p3547
I521
sS'GTAAAT'
p3548
I104
sS'GCTGTA'
p3549
I768
sS'TATGCG'
p3550
I242
sS'TCTCAA'
p3551
I510
sS'AGGTTG'
p3552
I1533
sS'AGGTTC'
p3553
I535
sS'AGGTTA'
p3554
I819
sS'ATGAAA'
p3555
I306
sS'GAGGGA'
p3556
I4550
sS'TTTTTC'
p3557
I1189
sS'GAGGGC'
p3558
I4117
sS'TTTTTA'
p3559
I2118
sS'TTTTTG'
p3560
I2652
sS'GAGGGG'
p3561
I8312
sS'TTAAAT'
p3562
I125
sS'GTACGA'
p3563
I63
sS'AGGTTT'
p3564
I195
sS'TATGCC'
p3565
I474
sS'TTAAAC'
p3566
I256
sS'ATACGT'
p3567
I22
sS'TTAAAA'
p3568
I452
sS'ACTCCG'
p3569
I288
sS'TTAAAG'
p3570
I453
sS'GAGGGT'
p3571
I758
sS'TTTTTT'
p3572
I424
sS'ACTCCC'
p3573
I539
sS'CTGTAA'
p3574
I480
sS'GTCACG'
p3575
I1459
sS'CTGTAC'
p3576
I364
sS'GCAACT'
p3577
I138
sS'GTCACC'
p3578
I2626
sS'CTGTAG'
p3579
I610
sS'GTCACA'
p3580
I2103
sS'ACTTAT'
p3581
I50
sS'GCAACG'
p3582
I176
sS'GTCACT'
p3583
I1148
sS'TAGGCG'
p3584
I491
sS'GCAACC'
p3585
I304
sS'TAGGCA'
p3586
I869
sS'GCAACA'
p3587
I313
sS'TAGGCC'
p3588
I979
sS'ATTCAT'
p3589
I109
sS'TCCCAC'
p3590
I1480
sS'GCGATT'
p3591
I38
sS'TCGTGT'
p3592
I78
sS'TTCACT'
p3593
I977
sS'GTCTCT'
p3594
I2143
sS'AACATT'
p3595
I398
sS'ATTCAG'
p3596
I577
sS'ATTCAA'
p3597
I453
sS'ATTCAC'
p3598
I394
sS'GTCTCC'
p3599
I5962
sS'CCACTA'
p3600
I150
sS'GTCTCA'
p3601
I3324
sS'GCGATG'
p3602
I329
sS'GTCTCG'
p3603
I2161
sS'GCGATA'
p3604
I84
sS'TTCACA'
p3605
I2087
sS'ACAGAT'
p3606
I55
sS'GAAGGC'
p3607
I1450
sS'GAAGGA'
p3608
I1738
sS'CGATTC'
p3609
I54
sS'CGATTA'
p3610
I61
sS'GGAACC'
p3611
I454
sS'AGACTT'
p3612
I60
sS'GGAACA'
p3613
I399
sS'GGAACG'
p3614
I233
sS'TGACGA'
p3615
I47
sS'ATAGTA'
p3616
I137
sS'CGATTT'
p3617
I17
sS'GAAGGT'
p3618
I382
sS'CAATCG'
p3619
I146
sS'CAATCA'
p3620
I464
sS'CAATCC'
p3621
I355
sS'TCCTGA'
p3622
I3075
sS'AGTCCA'
p3623
I677
sS'TCCTGC'
p3624
I6707
sS'AGTCCC'
p3625
I1212
sS'ACTAAA'
p3626
I282
sS'TCCTGG'
p3627
I6729
sS'ACTAAC'
p3628
I229
sS'TAACGC'
p3629
I130
sS'CAGCTG'
p3630
I4375
sS'CAGCTA'
p3631
I1014
sS'CAGCTC'
p3632
I1447
sS'ACTAAT'
p3633
I50
sS'AGTCCT'
p3634
I417
sS'TCCTGT'
p3635
I1600
sS'CAGCTT'
p3636
I245
sS'TAACGT'
p3637
I44
sS'AGCGAT'
p3638
I100
sS'GTACTT'
p3639
I62
sS'CGACAT'
p3640
I18
sS'TTGTTC'
p3641
I802
sS'CCGAGG'
p3642
I654
sS'TTGTTG'
p3643
I1958
sS'ACGGAA'
p3644
I78
sS'CCGAGC'
p3645
I369
sS'CCGCGT'
p3646
I72
sS'CGACAC'
p3647
I33
sS'CGACAA'
p3648
I29
sS'GTACTC'
p3649
I102
sS'GTACTA'
p3650
I130
sS'CCGCGC'
p3651
I453
sS'AGCCAC'
p3652
I2728
sS'CCGCGA'
p3653
I170
sS'CCGCGG'
p3654
I489
sS'TTGTTT'
p3655
I392
sS'GCATAT'
p3656
I51
sS'TCCGTT'
p3657
I100
sS'GGAGGC'
p3658
I860
sS'AATAAC'
p3659
I764
sS'AATAAA'
p3660
I1291
sS'AATAAG'
p3661
I999
sS'AATAAT'
p3662
I190
sS'ACGGTG'
p3663
I279
sS'CCAACC'
p3664
I470
sS'CCAACA'
p3665
I310
sS'CCAACG'
p3666
I155
sS'CGCCGC'
p3667
I5875
sS'AGTAAA'
p3668
I731
sS'CGCCGA'
p3669
I1135
sS'GAGTAG'
p3670
I1064
sS'CGCCGG'
p3671
I3448
sS'GAGTAA'
p3672
I794
sS'AGTAAG'
p3673
I820
sS'CTCAGG'
p3674
I6565
sS'CTCAGC'
p3675
I6119
sS'CTCAGA'
p3676
I3131
sS'GAGTAT'
p3677
I168
sS'ATCGTC'
p3678
I128
sS'GTGTAG'
p3679
I507
sS'TCGAGC'
p3680
I154
sS'GTGTAA'
p3681
I398
sS'GTGTAC'
p3682
I308
sS'CGCCGT'
p3683
I444
sS'GTGGCA'
p3684
I1345
sS'CTCGGG'
p3685
I2478
sS'ATCGTA'
p3686
I154
sS'CTCGGC'
p3687
I2039
sS'GCCGCC'
p3688
I3041
sS'GCCGCA'
p3689
I1339
sS'GCCGCG'
p3690
I1935
sS'ACACTT'
p3691
I47
sS'CTCGGT'
p3692
I353
sS'AGATAT'
p3693
I26
sS'GTGGCT'
p3694
I696
sS'CATATA'
p3695
I445
sS'CAGTCG'
p3696
I547
sS'ACACTC'
p3697
I93
sS'ACACTA'
p3698
I98
sS'ACACTG'
p3699
I417
sS'GCCGCT'
p3700
I578
sS'ACCGGA'
p3701
I421
sS'AAATAA'
p3702
I228
sS'ACCGGC'
p3703
I539
sS'AAATAC'
p3704
I197
sS'CTTTAA'
p3705
I1396
sS'ACCGGG'
p3706
I767
sS'CTTTAC'
p3707
I892
sS'AACTTA'
p3708
I2278
sS'CAGGTA'
p3709
I822
sS'AACTTC'
p3710
I2603
sS'CAGGTC'
p3711
I530
sS'CACGAC'
p3712
I536
sS'AACTTG'
p3713
I4993
sS'GTCAGG'
p3714
I4469
sS'CTTTAT'
p3715
I268
sS'AATCCC'
p3716
I1176
sS'AATCCA'
p3717
I736
sS'AAATAT'
p3718
I58
sS'AATCCG'
p3719
I465
sS'GATACA'
p3720
I749
sS'TCAGCG'
p3721
I301
sS'CAGGTT'
p3722
I110
sS'AACTTT'
p3723
I585
sS'GGGATA'
p3724
I405
sS'GGGATC'
p3725
I284
sS'GGGTGT'
p3726
I515
sS'GGGATG'
p3727
I1650
sS'GATGCT'
p3728
I599
sS'CGCAGT'
p3729
I771
sS'ATTGGG'
p3730
I533
sS'GAGCCT'
p3731
I1096
sS'GGAGAC'
p3732
I322
sS'GGGTGA'
p3733
I844
sS'GGAGAA'
p3734
I494
sS'GGGTGC'
p3735
I1028
sS'GGGATT'
p3736
I148
sS'AATCAA'
p3737
I946
sS'GGGTGG'
p3738
I2665
sS'GAGCCA'
p3739
I2566
sS'CGCAGG'
p3740
I4014
sS'GATGCG'
p3741
I873
sS'CGCAGA'
p3742
I1651
sS'GATGCA'
p3743
I1491
sS'CGCAGC'
p3744
I3820
sS'GATGCC'
p3745
I1407
sS'CGGATT'
p3746
I37
sS'GGTAGT'
p3747
I207
sS'ACCCCT'
p3748
I388
sS'GCCAAT'
p3749
I750
sS'AACCGC'
p3750
I1504
sS'AGAAGT'
p3751
I240
sS'ACCCCA'
p3752
I1056
sS'GGTAGA'
p3753
I673
sS'ACCCCC'
p3754
I913
sS'CGGATG'
p3755
I506
sS'GCCAAG'
p3756
I2292
sS'CGGATA'
p3757
I148
sS'ACCCCG'
p3758
I782
sS'GGTAGG'
p3759
I1398
sS'AGAAGA'
p3760
I721
sS'AGAAGC'
p3761
I888
sS'GCAAGA'
p3762
I427
sS'AGAAGG'
p3763
I1526
sS'CACTCC'
p3764
I4731
sS'CACTCA'
p3765
I3603
sS'CACTCG'
p3766
I1627
sS'TGCGTT'
p3767
I114
sS'TCAGCT'
p3768
I261
sS'AGCTTT'
p3769
I1132
sS'CCCCGG'
p3770
I2147
sS'TGCGTA'
p3771
I507
sS'TGCGTG'
p3772
I1840
sS'CACTCT'
p3773
I1461
sS'AGCTTC'
p3774
I4401
sS'AGCTTA'
p3775
I3006
sS'AGCTTG'
p3776
I6904
sS'ATACGA'
p3777
I27
sS'AGACCA'
p3778
I203
sS'CCACTT'
p3779
I99
sS'TTAGCT'
p3780
I199
sS'GTATAA'
p3781
I97
sS'TTAGCC'
p3782
I313
sS'TTAGCA'
p3783
I459
sS'GACCAT'
p3784
I325
sS'TTAGCG'
p3785
I157
sS'CTTCAT'
p3786
I212
sS'TCATAT'
p3787
I35
sS'AAGGGG'
p3788
I3273
sS'ATAAGG'
p3789
I387
sS'TGTGCT'
p3790
I313
sS'AAGGGC'
p3791
I1826
sS'ATAAGC'
p3792
I174
sS'AAGGGA'
p3793
I1894
sS'ATAAGA'
p3794
I299
sS'CCAGAC'
p3795
I234
sS'CCAGAA'
p3796
I480
sS'CCAGAG'
p3797
I595
sS'GCAAGT'
p3798
I174
sS'TGTGCG'
p3799
I592
sS'ATAAGT'
p3800
I84
sS'ATAGGG'
p3801
I305
sS'TGTGCC'
p3802
I742
sS'ATAGGA'
p3803
I314
sS'TGTGCA'
p3804
I739
sS'ATAGGC'
p3805
I181
sS'TAAGTT'
p3806
I36
sS'AGACCG'
p3807
I107
sS'CCAGAT'
p3808
I105
sS'AGACAA'
p3809
I151
sS'AACAAG'
p3810
I2299
sS'CGTGGT'
p3811
I177
sS'TCCATT'
p3812
I432
sS'AGACAG'
p3813
I264
sS'GATCAA'
p3814
I818
sS'CGCTGT'
p3815
I1088
sS'GACGCC'
p3816
I2874
sS'CGTGGG'
p3817
I888
sS'CTATAG'
p3818
I153
sS'AGACAT'
p3819
I48
sS'CGTGGA'
p3820
I389
sS'TTTTCG'
p3821
I381
sS'CGCTGA'
p3822
I2182
sS'CGCTGC'
p3823
I5805
sS'TTTTCC'
p3824
I1706
sS'TTTTCA'
p3825
I1298
sS'CGCTGG'
p3826
I4472
sS'TATGGA'
p3827
I445
sS'TATGGC'
p3828
I494
sS'CGTAGG'
p3829
I577
sS'GACGCG'
p3830
I2105
sS'TATGGG'
p3831
I799
sS'CGTAGC'
p3832
I444
sS'TACCGT'
p3833
I188
sS'AAGTGT'
p3834
I549
sS'TGGACT'
p3835
I247
sS'CGTAGT'
p3836
I157
sS'GCTCGA'
p3837
I336
sS'TATGGT'
p3838
I168
sS'TGGACA'
p3839
I497
sS'TGGACC'
p3840
I607
sS'TGGACG'
p3841
I350
sS'CCGGTT'
p3842
I30
sS'CTAGCT'
p3843
I319
sS'GCTTGA'
p3844
I829
sS'TGAGAC'
p3845
I189
sS'GCTTGC'
p3846
I1332
sS'TGAGAA'
p3847
I323
sS'TGAGAG'
p3848
I314
sS'GCTTGG'
p3849
I1870
sS'CCTGTT'
p3850
I136
sS'TATCAC'
p3851
I553
sS'CCTTGC'
p3852
I1673
sS'CCGGTA'
p3853
I119
sS'CCTGTC'
p3854
I497
sS'CCTGTA'
p3855
I726
sS'CCTGTG'
p3856
I2220
sS'GCTTGT'
p3857
I433
sS'TGAGAT'
p3858
I59
sS'GGTTGT'
p3859
I429
sS'CCCAAC'
p3860
I1440
sS'TATCAG'
p3861
I774
sS'TAGCGT'
p3862
I106
sS'GGTTGG'
p3863
I2003
sS'CTGAAT'
p3864
I135
sS'GGTTGA'
p3865
I835
sS'GGTTGC'
p3866
I1493
sS'ACTATT'
p3867
I53
sS'TCCCGC'
p3868
I2784
sS'TCCCGA'
p3869
I723
sS'TCCCGG'
p3870
I2459
sS'TGCTAT'
p3871
I417
sS'CGTTTT'
p3872
I133
sS'ATTCTC'
p3873
I417
sS'AGGGAA'
p3874
I728
sS'ATTCTA'
p3875
I506
sS'ATTCTG'
p3876
I1188
sS'TCATTT'
p3877
I75
sS'CAGCGA'
p3878
I587
sS'CAGCGC'
p3879
I1387
sS'TATACT'
p3880
I218
sS'TGCTAG'
p3881
I1809
sS'CAGCGG'
p3882
I1332
sS'CCTTGT'
p3883
I482
sS'TCATTC'
p3884
I218
sS'TCATTA'
p3885
I376
sS'TCATTG'
p3886
I695
sS'ATTCTT'
p3887
I111
sS'CGTTTC'
p3888
I726
sS'CCACTC'
p3889
I162
sS'TGGCAA'
p3890
I343
sS'TGGCAC'
p3891
I470
sS'TGGCAG'
p3892
I871
sS'GCTGAG'
p3893
I1410
sS'GCTGAA'
p3894
I564
sS'GCTGAC'
p3895
I669
sS'TGGCAT'
p3896
I111
sS'GGCCGG'
p3897
I4064
sS'GTTCAA'
p3898
I449
sS'CCGATG'
p3899
I177
sS'GGCCGC'
p3900
I4369
sS'GAACTT'
p3901
I97
sS'GGCCGA'
p3902
I1338
sS'GGCAAT'
p3903
I288
sS'CTGATT'
p3904
I169
sS'CCATCG'
p3905
I128
sS'CTAAAT'
p3906
I81
sS'CCATCC'
p3907
I603
sS'CCATCA'
p3908
I300
sS'GGCAAG'
p3909
I2395
sS'CTGATA'
p3910
I427
sS'TGGTTG'
p3911
I1404
sS'GGCAAC'
p3912
I1633
sS'GGCAAA'
p3913
I1305
sS'CTAAAG'
p3914
I351
sS'CCATCT'
p3915
I270
sS'CTAAAC'
p3916
I226
sS'CTAAAA'
p3917
I261
sS'GACACC'
p3918
I3406
sS'GACACA'
p3919
I3297
sS'GACACG'
p3920
I1740
sS'CCAAGA'
p3921
I341
sS'TGGTTC'
p3922
I541
sS'TAGCGA'
p3923
I267
sS'TACGAG'
p3924
I351
sS'TACGAC'
p3925
I310
sS'GACACT'
p3926
I1383
sS'CCGTGA'
p3927
I214
sS'AGTCCG'
p3928
I503
sS'AAAAAT'
p3929
I78
sS'ACGCTG'
p3930
I537
sS'CTATTA'
p3931
I496
sS'CTATTC'
p3932
I260
sS'TCGATG'
p3933
I161
sS'TCGATA'
p3934
I44
sS'TCGATC'
p3935
I38
sS'CTATTT'
p3936
I159
sS'TCTGGG'
p3937
I1456
sS'CAGCCT'
p3938
I759
sS'TCGATT'
p3939
I13
sS'GGATAA'
p3940
I54
sS'TCGGCA'
p3941
I164
sS'GCGCCC'
p3942
I767
sS'ACAATG'
p3943
I451
sS'AACCAA'
p3944
I1526
sS'TGCCGG'
p3945
I2213
sS'AACCAC'
p3946
I1582
sS'CGTATC'
p3947
I82
sS'TGCCGC'
p3948
I2552
sS'AACCAG'
p3949
I1918
sS'TGCCGA'
p3950
I678
sS'TTGGAC'
p3951
I241
sS'TCTGGA'
p3952
I593
sS'ATGATC'
p3953
I115
sS'GCGCCG'
p3954
I550
sS'TGCCGT'
p3955
I315
sS'AACCAT'
p3956
I211
sS'AACAGA'
p3957
I2576
sS'CTACCG'
p3958
I182
sS'AACAGC'
p3959
I3560
sS'ACGTCC'
p3960
I265
sS'AACAGG'
p3961
I3999
sS'ACGTCA'
p3962
I357
sS'GACGAC'
p3963
I1073
sS'GTCCCT'
p3964
I1234
sS'GACGAA'
p3965
I690
sS'GACGAG'
p3966
I1574
sS'CCCAAA'
p3967
I943
sS'CAATAT'
p3968
I31
sS'GGGAGG'
p3969
I5841
sS'GGGAGA'
p3970
I1671
sS'AACAGT'
p3971
I927
sS'GGGAGC'
p3972
I2016
sS'ACGAAG'
p3973
I131
sS'CCCAAT'
p3974
I245
sS'GACGAT'
p3975
I115
sS'GGGCGC'
p3976
I1358
sS'GGGCGA'
p3977
I570
sS'GCATCA'
p3978
I243
sS'GGGCGG'
p3979
I3146
sS'TCTCTT'
p3980
I217
sS'AGGCAT'
p3981
I172
sS'CGTTAA'
p3982
I258
sS'CAGAAT'
p3983
I139
sS'GAATAC'
p3984
I191
sS'TCTCTC'
p3985
I1134
sS'TCTCTA'
p3986
I1066
sS'TCTCTG'
p3987
I3276
sS'GGGCGT'
p3988
I257
sS'ACGACC'
p3989
I127
sS'ACGACA'
p3990
I80
sS'ACGACG'
p3991
I91
sS'CAGAAG'
p3992
I1377
sS'TAAGTG'
p3993
I581
sS'CACTTT'
p3994
I905
sS'CATATT'
p3995
I110
sS'CCTAAT'
p3996
I81
sS'TCTATA'
p3997
I268
sS'GCATTC'
p3998
I227
sS'CACTTG'
p3999
I6222
sS'CCTAAC'
p4000
I404
sS'CTACCC'
p4001
I382
sS'CCTAAA'
p4002
I300
sS'CACTTC'
p4003
I4371
sS'CCTAAG'
p4004
I498
sS'CACTTA'
p4005
I3487
sS'GCGGAT'
p4006
I27
sS'GTCCCC'
p4007
I3042
sS'AAGATT'
p4008
I100
sS'CTCATG'
p4009
I2822
sS'GACTCG'
p4010
I3002
sS'CTCATC'
p4011
I1282
sS'GACTCC'
p4012
I6539
sS'CTCATA'
p4013
I1125
sS'GACTCA'
p4014
I5801
sS'ATAGGT'
p4015
I88
sS'AGTCGG'
p4016
I913
sS'AAGATG'
p4017
I1713
sS'GACTCT'
p4018
I2306
sS'CTCATT'
p4019
I621
sS'ATCGAA'
p4020
I118
sS'AACTAC'
p4021
I1601
sS'ATATTT'
p4022
I83
sS'ACGGTA'
p4023
I81
sS'AACTAA'
p4024
I1468
sS'ATAGTT'
p4025
I27
sS'CTACCA'
p4026
I323
sS'TACTGT'
p4027
I1202
sS'ATATTC'
p4028
I133
sS'ATATTA'
p4029
I247
sS'ATATTG'
p4030
I325
sS'TACTGC'
p4031
I3124
sS'TACTGA'
p4032
I2159
sS'TACTGG'
p4033
I2869
sS'ATAGTG'
p4034
I236
sS'ATAGAC'
p4035
I99
sS'CAGGCA'
p4036
I1908
sS'CAGGCC'
p4037
I2597
sS'CATCCG'
p4038
I543
sS'ACGGAG'
p4039
I132
sS'CATCCA'
p4040
I877
sS'CAGGCG'
p4041
I1278
sS'CATCCC'
p4042
I1336
sS'TTATGA'
p4043
I207
sS'TTATGC'
p4044
I311
sS'CGGAGT'
p4045
I215
sS'TTATGG'
p4046
I322
sS'CATCCT'
p4047
I444
sS'AGGAAT'
p4048
I285
sS'CAGGCT'
p4049
I654
sS'ACGGAT'
p4050
I12
sS'CGGAGA'
p4051
I639
sS'CGGAGC'
p4052
I1218
sS'TTATGT'
p4053
I192
sS'CGGAGG'
p4054
I1617
sS'ATGGAA'
p4055
I348
sS'ATGGAC'
p4056
I177
sS'ATGGAG'
p4057
I431
sS'CGCTTG'
p4058
I3731
sS'CGCTTA'
p4059
I1432
sS'CGCTTC'
p4060
I3008
sS'ATGGAT'
p4061
I42
sS'TTTGCA'
p4062
I1044
sS'CGCTTT'
p4063
I604
sS'GATCGT'
p4064
I174
sS'TTTGCC'
p4065
I670
sS'GAAAAG'
p4066
I1237
sS'GAAAAC'
p4067
I670
sS'ATAGAT'
p4068
I36
sS'GAAAAA'
p4069
I582
sS'ACGGTT'
p4070
I18
sS'GAAAAT'
p4071
I144
sS'ACAAGG'
p4072
I424
sS'ACAAGA'
p4073
I246
sS'AAAAAA'
p4074
I611
sS'ACAAGC'
p4075
I240
sS'ACACGT'
p4076
I46
sS'CTGCGT'
p4077
I248
sS'GCGGAG'
p4078
I534
sS'CATAAG'
p4079
I594
sS'GCGGAA'
p4080
I179
sS'CATAAA'
p4081
I631
sS'GCGGAC'
p4082
I187
sS'CATAAC'
p4083
I523
sS'ACACGC'
p4084
I103
sS'ACAAGT'
p4085
I103
sS'ACACGA'
p4086
I73
sS'ACACGG'
p4087
I135
sS'CATAAT'
p4088
I153
sS'GTCCCA'
p4089
I2237
sS'GCACAT'
p4090
I62
sS'CTGCGG'
p4091
I1409
sS'CTGCGA'
p4092
I539
sS'CTGCGC'
p4093
I1293
sS'CGGCAA'
p4094
I153
sS'CGGCAC'
p4095
I275
sS'CGGCAG'
p4096
I563
sS'CCTCCT'
p4097
I900
sS'NNNGAA'
p4098
I1
sS'CGGCAT'
p4099
I57
sS'TCGCCA'
p4100
I170
sS'CCTCCC'
p4101
I2183
sS'CCTCCA'
p4102
I1139
sS'CCTCCG'
p4103
I847
s.