(dp0
S'GGGCTT'
p1
I16297
sS'GAACGT'
p2
I2707
sS'CGTCGT'
p3
I1930
sS'CTTCTT'
p4
I14468
sS'CACCCT'
p5
I16986
sS'ATTGAA'
p6
I4903
sS'GAACGG'
p7
I4337
sS'GAACGC'
p8
I4700
sS'GAACGA'
p9
I2647
sS'CACCCA'
p10
I17265
sS'CTTCTA'
p11
I6663
sS'CACCCC'
p12
I26171
sS'CTTCTC'
p13
I20431
sS'CACCCG'
p14
I10257
sS'CTTCTG'
p15
I17739
sS'CATTAG'
p16
I4675
sS'CGTGTG'
p17
I6468
sS'TAAGGT'
p18
I4150
sS'CGTGTC'
p19
I4459
sS'CGTGTA'
p20
I1829
sS'AGGCAA'
p21
I11753
sS'GGAAAT'
p22
I12229
sS'TAAGGG'
p23
I6810
sS'CGTGTT'
p24
I3421
sS'TAAGGC'
p25
I5810
sS'TAAGGA'
p26
I7188
sS'GTCAAA'
p27
I5389
sS'GTCAAC'
p28
I3667
sS'GTCAAG'
p29
I6172
sS'CTGTCC'
p30
I17221
sS'TCAGAG'
p31
I16298
sS'CTGTCA'
p32
I10770
sS'CTGTCG'
p33
I5014
sS'GTATCT'
p34
I3726
sS'TCAGAA'
p35
I11812
sS'GTCAAT'
p36
I3209
sS'GTATCA'
p37
I2597
sS'TCAGAT'
p38
I7277
sS'GTATCG'
p39
I831
sS'CTGTCT'
p40
I15859
sS'GGTGTC'
p41
I9501
sS'GGTGTA'
p42
I3769
sS'GGTGTG'
p43
I13731
sS'TATCCT'
p44
I4664
sS'CCGGGG'
p45
I25312
sS'TTCTGT'
p46
I12386
sS'ATTCCT'
p47
I12339
sS'CCGGGC'
p48
I27078
sS'CCGGGA'
p49
I18656
sS'TATCCA'
p50
I3796
sS'TATCCC'
p51
I4896
sS'TGGTTG'
p52
I7697
sS'TATCCG'
p53
I1425
sS'GGTGTT'
p54
I7760
sS'ATTCCG'
p55
I3149
sS'TTCTGG'
p56
I16031
sS'CCGGGT'
p57
I10912
sS'ATTCCC'
p58
I10504
sS'TTCTGC'
p59
I15004
sS'ATTCCA'
p60
I11000
sS'TTCTGA'
p61
I11985
sS'TGCACT'
p62
I9351
sS'GGNCCC'
p63
I1
sS'CGTCAT'
p64
I2349
sS'CGCGGT'
p65
I6939
sS'AGGGAG'
p66
I35613
sS'CGCGGG'
p67
I21387
sS'CGCGGC'
p68
I22134
sS'CGCGGA'
p69
I9541
sS'GTCCTT'
p70
I9788
sS'ACCTGT'
p71
I9025
sS'TCATGT'
p72
I5279
sS'CTCCGA'
p73
I7270
sS'TTACAG'
p74
I8382
sS'CTCCGC'
p75
I20303
sS'TTACAA'
p76
I6048
sS'TTACAC'
p77
I4204
sS'CTCCGG'
p78
I16000
sS'TCATGC'
p79
I6332
sS'ACCTGG'
p80
I18702
sS'TCATGA'
p81
I5320
sS'TCATGG'
p82
I7231
sS'ACCTGC'
p83
I16284
sS'GCGCNN'
p84
I1
sS'ACCTGA'
p85
I9762
sS'TTACAT'
p86
I5249
sS'CTCGAT'
p87
I2008
sS'CTCCGT'
p88
I6712
sS'GCCTGA'
p89
I15646
sS'GCCTGC'
p90
I26601
sS'GCCTGG'
p91
I36770
sS'TCTTGC'
p92
I9963
sS'TAAAGG'
p93
I8030
sS'CAAATT'
p94
I7314
sS'TAAAGA'
p95
I7355
sS'ACGGCT'
p96
I4680
sS'GCCTGT'
p97
I15302
sS'CGTCAA'
p98
I1888
sS'TAAAGT'
p99
I5201
sS'CAAATA'
p100
I6670
sS'ACGTCC'
p101
I4251
sS'CAAATC'
p102
I7386
sS'CGTGCT'
p103
I5523
sS'CAAATG'
p104
I9722
sS'AATACT'
p105
I4003
sS'AATCCG'
p106
I2988
sS'CGTCAC'
p107
I4655
sS'TGGTTC'
p108
I8103
sS'GTCCTC'
p109
I13847
sS'GGCGAC'
p110
I7631
sS'GGCATC'
p111
I8472
sS'AATACG'
p112
I1391
sS'AATACA'
p113
I5860
sS'AATACC'
p114
I3973
sS'GGCATT'
p115
I8509
sS'CGTCAG'
p116
I5002
sS'CTTGGT'
p117
I8972
sS'GAGCAC'
p118
I10858
sS'ACTGAT'
p119
I4880
sS'CATATC'
p120
I2725
sS'GAGCAG'
p121
I23700
sS'AGTAGT'
p122
I3442
sS'TCTCGC'
p123
I7024
sS'TCTCGA'
p124
I3102
sS'TCTCGG'
p125
I8196
sS'ACTGAG'
p126
I12402
sS'GGGTCG'
p127
I7936
sS'ACTGAC'
p128
I6842
sS'ACTGAA'
p129
I8715
sS'AGCCCG'
p130
I14724
sS'GGGTCA'
p131
I10853
sS'GTGTCG'
p132
I3177
sS'TCGAAC'
p133
I2023
sS'TCGAAA'
p134
I1920
sS'GTGTCC'
p135
I10658
sS'TCGAAG'
p136
I2861
sS'GTGTCA'
p137
I7008
sS'CTTGCT'
p138
I12950
sS'CCGTCT'
p139
I6562
sS'GTGTCT'
p140
I10147
sS'TTGAAG'
p141
I8050
sS'TCGAAT'
p142
I1714
sS'CTTGCG'
p143
I4693
sS'CTTGCA'
p144
I10046
sS'CTTGCC'
p145
I13075
sS'CGAAAG'
p146
I3937
sS'CGAAAA'
p147
I2947
sS'CGAAAC'
p148
I2751
sS'AAGGTT'
p149
I6627
sS'AATCAT'
p150
I4701
sS'AAATGC'
p151
I10920
sS'CACGGC'
p152
I8169
sS'AAATGA'
p153
I10869
sS'AAATGG'
p154
I11062
sS'CACGGG'
p155
I7794
sS'ACAGTA'
p156
I4568
sS'TAGAGC'
p157
I6315
sS'CGAAAT'
p158
I2010
sS'ACAGTT'
p159
I6547
sS'AATCAG'
p160
I8642
sS'CACGGT'
p161
I4297
sS'AAATGT'
p162
I9574
sS'AATCAC'
p163
I6592
sS'TTTGTA'
p164
I7214
sS'TCTAGT'
p165
I4524
sS'TTGCCG'
p166
I4275
sS'TTGCCA'
p167
I9580
sS'TTGCCC'
p168
I11701
sS'TTGCCT'
p169
I11940
sS'TCTAGG'
p170
I8015
sS'GGGTAA'
p171
I5648
sS'TCTAGA'
p172
I5616
sS'GGGTAG'
p173
I8080
sS'TCTAGC'
p174
I5635
sS'ATACGG'
p175
I1199
sS'GGCTCC'
p176
I30329
sS'TCGGGC'
p177
I9004
sS'TCGCCC'
p178
I10680
sS'TCGCCA'
p179
I5281
sS'ATAGTC'
p180
I2392
sS'TCGCCG'
p181
I7020
sS'GGTAAT'
p182
I3717
sS'ACCCAT'
p183
I5810
sS'CTCACC'
p184
I17848
sS'ACCCAC'
p185
I12043
sS'GGTAAC'
p186
I4276
sS'ACCCAA'
p187
I8319
sS'AGATGG'
p188
I12822
sS'ACCCAG'
p189
I19246
sS'AGATGA'
p190
I8998
sS'TCGCCT'
p191
I7118
sS'AGATGC'
p192
I9050
sS'TTTGAG'
p193
I10687
sS'CCCCAT'
p194
I13955
sS'TTGGGT'
p195
I8318
sS'CACTAG'
p196
I5686
sS'CACTAA'
p197
I4422
sS'CACTAC'
p198
I4137
sS'CCCCAA'
p199
I17850
sS'CCCCAC'
p200
I30159
sS'CCCCAG'
p201
I39165
sS'CACTAT'
p202
I3064
sS'TTGGGG'
p203
I17889
sS'TCGGTT'
p204
I2859
sS'TTGGGA'
p205
I13317
sS'TTGGGC'
p206
I10945
sS'TGCCTG'
p207
I23399
sS'GTGGGT'
p208
I12210
sS'TTTCTG'
p209
I17499
sS'TGCAGC'
p210
I22363
sS'TTTCTA'
p211
I8610
sS'TGCCTA'
p212
I6353
sS'TGCAGG'
p213
I23847
sS'TAGAGG'
p214
I8827
sS'TTTCTN'
p215
I1
sS'TCAGAC'
p216
I8618
sS'TTTCTT'
p217
I19940
sS'TGCCTT'
p218
I14775
sS'TGCAGT'
p219
I12799
sS'TAGTGC'
p220
I3825
sS'AAGGAA'
p221
I19743
sS'AAGGAC'
p222
I9730
sS'AAGGAG'
p223
I20742
sS'ATATGC'
p224
I3228
sS'GTTCCA'
p225
I8053
sS'ATATGA'
p226
I2966
sS'TACGAA'
p227
I1149
sS'ATATGG'
p228
I3169
sS'GAGTTC'
p229
I8492
sS'GATGGA'
p230
I9447
sS'AAGGAT'
p231
I7499
sS'TGGTTT'
p232
I10521
sS'ATATGT'
p233
I3309
sS'GGTCCC'
p234
I17813
sS'GCCCAG'
p235
I35603
sS'GGTCCA'
p236
I8101
sS'GCCCAA'
p237
I10851
sS'GGTCCG'
p238
I6851
sS'GCCCAC'
p239
I17706
sS'TGTGTC'
p240
I9789
sS'AGACCC'
p241
I13837
sS'CTTCGG'
p242
I6571
sS'CTTCGA'
p243
I2973
sS'CTTCGC'
p244
I6390
sS'ATGCAA'
p245
I7793
sS'TCCGGG'
p246
I14162
sS'AGGTCA'
p247
I11055
sS'TCCGGC'
p248
I10702
sS'GGTCCT'
p249
I12340
sS'TCCGGA'
p250
I6996
sS'CTTAGC'
p251
I6508
sS'TCTTGA'
p252
I7268
sS'CTTAGA'
p253
I6044
sS'CCACTC'
p254
I14243
sS'CTTAGG'
p255
I7330
sS'ATTGTC'
p256
I4659
sS'ATTGTA'
p257
I3424
sS'GCCTTT'
p258
I14749
sS'ATTTTG'
p259
I8610
sS'CGCTAA'
p260
I2162
sS'ATTTTA'
p261
I8998
sS'TCCAGA'
p262
I14701
sS'ATTTTC'
p263
I10381
sS'TCCAGC'
p264
I22563
sS'TAGCAG'
p265
I7454
sS'GATACT'
p266
I2844
sS'TAGCAC'
p267
I4638
sS'TAGCAA'
p268
I5498
sS'TCCAGT'
p269
I10207
sS'ATTTTT'
p270
I13275
sS'TAAATC'
p271
I4956
sS'TAGTGT'
p272
I3426
sS'GCCTTA'
p273
I5952
sS'TTGACA'
p274
I5438
sS'CGCTAT'
p275
I1532
sS'GATACG'
p276
I1108
sS'TAGCAT'
p277
I4046
sS'GATACC'
p278
I2979
sS'GATACA'
p279
I3356
sS'TGAGCT'
p280
I13486
sS'GATCAT'
p281
I3417
sS'AAGACA'
p282
I10494
sS'AAGACC'
p283
I8307
sS'GTGGGC'
p284
I17470
sS'AAACAT'
p285
I7455
sS'AAGACG'
p286
I4095
sS'GATCAG'
p287
I6413
sS'TGAGCG'
p288
I7206
sS'TGAGCA'
p289
I12180
sS'TGAGCC'
p290
I16663
sS'CGGGGA'
p291
I19226
sS'AAGACT'
p292
I7682
sS'ACCACG'
p293
I5196
sS'GCGGTA'
p294
I2757
sS'ATAAGT'
p295
I2771
sS'GCGGTG'
p296
I12783
sS'CTATCG'
p297
I1086
sS'CGGTGT'
p298
I4505
sS'TCGTTA'
p299
I1307
sS'TCGTTC'
p300
I2602
sS'ATGTGG'
p301
I9158
sS'TCGTTG'
p302
I2161
sS'TGTGTG'
p303
I24948
sS'GCGGTT'
p304
I4555
sS'ACTTGC'
p305
I7395
sS'ACCACC'
p306
I12032
sS'ACTTGA'
p307
I6461
sS'CGGTGG'
p308
I11335
sS'CTCGAG'
p309
I5358
sS'CGGTGA'
p310
I5979
sS'CGGTGC'
p311
I8936
sS'TTCCTA'
p312
I8813
sS'AACGTT'
p313
I2239
sS'TTCCTC'
p314
I22566
sS'CTTCCG'
p315
I9738
sS'TGGGTT'
p316
I10531
sS'TTCCTG'
p317
I24347
sS'TCCTTT'
p318
I17261
sS'CAGTTG'
p319
I7777
sS'ACGCTA'
p320
I1596
sS'TAGACG'
p321
I1674
sS'TTCCTT'
p322
I19836
sS'TAGACC'
p323
I3621
sS'TAGACA'
p324
I4269
sS'TCCTTG'
p325
I13496
sS'TCCTTA'
p326
I7255
sS'TCCTTC'
p327
I19572
sS'ATCTCT'
p328
I9299
sS'ACCGTT'
p329
I2008
sS'TGGCGC'
p330
I11410
sS'TGGCGA'
p331
I5322
sS'GGCCAT'
p332
I9063
sS'ATCTCG'
p333
I3057
sS'ATCTCA'
p334
I7881
sS'ATCTCC'
p335
I10303
sS'GGCCAA'
p336
I12708
sS'GGCCAC'
p337
I18455
sS'ACCGTG'
p338
I4253
sS'ACCGTA'
p339
I1266
sS'TGGCGT'
p340
I4943
sS'ACCGTC'
p341
I3280
sS'ACCGAC'
p342
I3047
sS'AGAATT'
p343
I8345
sS'GGCAGT'
p344
I13334
sS'CCATAA'
p345
I3742
sS'CAAAGG'
p346
I15103
sS'CCATAC'
p347
I3064
sS'CTAACT'
p348
I4764
sS'GAAACG'
p349
I5162
sS'CAAAGC'
p350
I13511
sS'CAACGT'
p351
I2372
sS'GGCAGA'
p352
I20629
sS'GGCAGC'
p353
I30967
sS'TAAGTT'
p354
I3812
sS'GGCAGG'
p355
I36546
sS'CAACGC'
p356
I3834
sS'CTAACA'
p357
I4851
sS'CAACGA'
p358
I2137
sS'CTAACC'
p359
I5065
sS'CCATAT'
p360
I3182
sS'CTAACG'
p361
I1837
sS'GGGGGT'
p362
I17790
sS'TACGCT'
p363
I1559
sS'AGATTG'
p364
I5260
sS'CGATCT'
p365
I2528
sS'CTCTAG'
p366
I8875
sS'CTCTAA'
p367
I6789
sS'CTCTAC'
p368
I6817
sS'GGGGGG'
p369
I19201
sS'CGATCC'
p370
I3283
sS'TACGCC'
p371
I2067
sS'GGGGGC'
p372
I35470
sS'CGATCG'
p373
I1240
sS'GGGGGA'
p374
I25020
sS'TACGCG'
p375
I1437
sS'CTCTAT'
p376
I4652
sS'ACCGAA'
p377
I2709
sS'CAGACC'
p378
I13276
sS'CAGACA'
p379
I13714
sS'CAGACG'
p380
I6259
sS'TGCGTG'
p381
I6352
sS'ACGTGA'
p382
I4023
sS'TAGTTG'
p383
I3322
sS'GCTAAT'
p384
I4787
sS'TAGTTC'
p385
I3895
sS'TAGTTA'
p386
I2816
sS'CAGACT'
p387
I10502
sS'GCTAAG'
p388
I6551
sS'TAGTTT'
p389
I5167
sS'GCTAAC'
p390
I3691
sS'GCTAAA'
p391
I5433
sS'CGAGTA'
p392
I1792
sS'CGTGAT'
p393
I2508
sS'GCGAAA'
p394
I3393
sS'AACCCT'
p395
I9604
sS'AACCCC'
p396
I12350
sS'AACCCA'
p397
I10419
sS'AACCCG'
p398
I5789
sS'TGCATC'
p399
I7414
sS'AGAATA'
p400
I5588
sS'ACGTAA'
p401
I1513
sS'CTACAC'
p402
I4595
sS'AACTGA'
p403
I8360
sS'AGTTTA'
p404
I5554
sS'CCCAGA'
p405
I24206
sS'CCCAGC'
p406
I42089
sS'AGAATC'
p407
I7679
sS'CCCAGG'
p408
I42895
sS'AACTGT'
p409
I6504
sS'AGTTTT'
p410
I9154
sS'CTACAT'
p411
I4033
sS'CGAGTC'
p412
I5013
sS'CCCAGT'
p413
I16010
sS'TTGACG'
p414
I1839
sS'GTGTAT'
p415
I3681
sS'CGCATA'
p416
I1246
sS'ATACTG'
p417
I3699
sS'CGCATC'
p418
I3903
sS'ATACTA'
p419
I1910
sS'ATACTC'
p420
I2912
sS'CGCATG'
p421
I4019
sS'GCGCAA'
p422
I4079
sS'GCGAAT'
p423
I2135
sS'ATACTT'
p424
I3416
sS'CTATCT'
p425
I4444
sS'AGGCCC'
p426
I24021
sS'GCTCCG'
p427
I16715
sS'TATTGT'
p428
I4126
sS'GCTCCC'
p429
I29449
sS'GCTCCA'
p430
I18354
sS'CCTACT'
p431
I6824
sS'TGTACT'
p432
I3939
sS'TTTAGT'
p433
I5148
sS'TATTGG'
p434
I3820
sS'GCTCCT'
p435
I23169
sS'AGGCCG'
p436
I14637
sS'GCTGGG'
p437
I42285
sS'TTTAGG'
p438
I7012
sS'TGTACG'
p439
I1364
sS'CCTACG'
p440
I2861
sS'TGTACA'
p441
I3755
sS'CCTACA'
p442
I6406
sS'TGTACC'
p443
I3924
sS'CCTACC'
p444
I8822
sS'TTCGCG'
p445
I3157
sS'TTCGCA'
p446
I2839
sS'TTCGCC'
p447
I5023
sS'AGTATC'
p448
I2889
sS'GACTAA'
p449
I3676
sS'AGTATA'
p450
I2129
sS'GACTAC'
p451
I3366
sS'AGTATG'
p452
I3081
sS'TTTGGA'
p453
I10555
sS'TTTGGC'
p454
I9269
sS'TTCGCT'
p455
I3891
sS'TTTGGT'
p456
I7472
sS'GGTTGC'
p457
I7861
sS'GACTAT'
p458
I2350
sS'AGTATT'
p459
I4022
sS'TTACTC'
p460
I5063
sS'TTACTA'
p461
I3257
sS'TTACTG'
p462
I6102
sS'ACCTTG'
p463
I9156
sS'GAGTAG'
p464
I6113
sS'ACCTTC'
p465
I9931
sS'ACCTTA'
p466
I4139
sS'TTACTT'
p467
I6156
sS'ACGCTT'
p468
I3040
sS'ACCTTT'
p469
I8486
sS'ACAGGG'
p470
I15957
sS'CTGGGA'
p471
I31651
sS'CTGGGC'
p472
I35654
sS'ACAGGC'
p473
I15429
sS'TTATAT'
p474
I3224
sS'CTGGGG'
p475
I38824
sS'CAGGAC'
p476
I16281
sS'GCAGCT'
p477
I23828
sS'CAGGAA'
p478
I24321
sS'TCGCTT'
p479
I4284
sS'CAGGAG'
p480
I30776
sS'AGGACA'
p481
I13377
sS'GCGCAT'
p482
I4254
sS'TTATAC'
p483
I2172
sS'ACAGGT'
p484
I9076
sS'CTGGGT'
p485
I19441
sS'TTATAG'
p486
I2849
sS'GTCAGA'
p487
I8954
sS'TCGCTG'
p488
I7662
sS'GAGTTG'
p489
I8350
sS'GCAGCG'
p490
I18229
sS'AGGACT'
p491
I11095
sS'TCGCTC'
p492
I7205
sS'TCGCTA'
p493
I1799
sS'CAGGAT'
p494
I11609
sS'CCTCAG'
p495
I25019
sS'CCTCAA'
p496
I10374
sS'CCTCAC'
p497
I17020
sS'TATGTT'
p498
I3776
sS'ATGGGC'
p499
I8813
sS'TCTTTG'
p500
I12361
sS'ATGGGA'
p501
I10612
sS'TCTTTA'
p502
I7539
sS'ATGGGG'
p503
I13897
sS'TCTTTC'
p504
I15683
sS'CCTCAT'
p505
I10110
sS'TCTTTT'
p506
I15870
sS'TATGTG'
p507
I4733
sS'TATGTA'
p508
I3306
sS'ATGGGT'
p509
I5725
sS'TATGTC'
p510
I2793
sS'GAAAGA'
p511
I15922
sS'ATCAAG'
p512
I5015
sS'GAAAGC'
p513
I13200
sS'ATCAAC'
p514
I3453
sS'GAAAGG'
p515
I19280
sS'GTCCAC'
p516
I7275
sS'GTCAGG'
p517
I13726
sS'CATGAG'
p518
I7680
sS'ATCAAT'
p519
I3403
sS'TCAAAC'
p520
I6476
sS'CATGAC'
p521
I5519
sS'CATGAA'
p522
I6617
sS'GTAGCG'
p523
I2835
sS'CAAGTT'
p524
I7208
sS'GCTTTG'
p525
I13500
sS'GTAGCC'
p526
I5938
sS'GCTTTC'
p527
I13017
sS'ACGTGT'
p528
I3335
sS'CAATCT'
p529
I5221
sS'GCTTTT'
p530
I12476
sS'TGCCAG'
p531
I17775
sS'GTAGCT'
p532
I5804
sS'GCGGCC'
p533
I26090
sS'CAAGTC'
p534
I8330
sS'GCGGCA'
p535
I11140
sS'CAAGTA'
p536
I4527
sS'ATTGCT'
p537
I6317
sS'TAATCG'
p538
I1047
sS'CTTGTG'
p539
I9609
sS'TAATCA'
p540
I4107
sS'TAATCC'
p541
I5392
sS'TGCGAA'
p542
I2887
sS'CGGCCC'
p543
I23687
sS'CGACTA'
p544
I1312
sS'CGGCCA'
p545
I11809
sS'GATTTG'
p546
I7217
sS'CGGCCG'
p547
I19360
sS'TCGTGA'
p548
I2395
sS'ATGAAG'
p549
I8212
sS'GGTCTG'
p550
I13329
sS'TAATCT'
p551
I4089
sS'GGTCTC'
p552
I13334
sS'GGTCTA'
p553
I3478
sS'AAAATG'
p554
I12666
sS'AAAATC'
p555
I8165
sS'CGGCCT'
p556
I14496
sS'TTCAGC'
p557
I12480
sS'ATCCCT'
p558
I10253
sS'TTCAGG'
p559
I13622
sS'ATATCC'
p560
I3155
sS'TCGTCG'
p561
I1990
sS'TTTAGC'
p562
I5220
sS'TGTTTT'
p563
I15430
sS'GAACAA'
p564
I7805
sS'ATCCCG'
p565
I5556
sS'GAACAC'
p566
I6702
sS'ATCCCC'
p567
I11998
sS'GAACAG'
p568
I10436
sS'ATCCCA'
p569
I11380
sS'AACGGA'
p570
I3252
sS'CACCAC'
p571
I14239
sS'CACCAA'
p572
I8983
sS'CACCAG'
p573
I17671
sS'AACATT'
p574
I6678
sS'AACGGG'
p575
I4481
sS'TCCGTC'
p576
I5074
sS'GAGTTA'
p577
I4699
sS'TCCGTA'
p578
I1842
sS'ACCAGA'
p579
I10034
sS'ACGCGA'
p580
I2352
sS'CACCAT'
p581
I8137
sS'AACATG'
p582
I6169
sS'AACATA'
p583
I3703
sS'AACATC'
p584
I5377
sS'GTCAGC'
p585
I11149
sS'GCACGG'
p586
I7400
sS'TCAGCC'
p587
I19166
sS'GCACGA'
p588
I3338
sS'CAGTCC'
p589
I13571
sS'GCACGC'
p590
I7876
sS'TCAGCG'
p591
I7391
sS'GCACCA'
p592
I11176
sS'GCAAGC'
p593
I9681
sS'GCACGT'
p594
I4644
sS'CAGTCT'
p595
I10962
sS'TAAAGC'
p596
I6322
sS'TCAGCT'
p597
I14923
sS'GTCAGT'
p598
I7105
sS'TATCTA'
p599
I2574
sS'GTATAC'
p600
I1405
sS'TTCCGT'
p601
I3892
sS'GTATAA'
p602
I2222
sS'GTATAG'
p603
I1700
sS'CCGGAA'
p604
I8412
sS'CCGGAC'
p605
I7652
sS'CCGGAG'
p606
I16049
sS'TATCAT'
p607
I2661
sS'CTCGTA'
p608
I1503
sS'TTCCGG'
p609
I8335
sS'TTCCGA'
p610
I3790
sS'TTCCGC'
p611
I7325
sS'GTATAT'
p612
I2013
sS'CGTCTC'
p613
I7336
sS'TATCAA'
p614
I2811
sS'CGTCTG'
p615
I6341
sS'CCGGAT'
p616
I4141
sS'CTCTTC'
p617
I18361
sS'TGTTAT'
p618
I4514
sS'CTCTTA'
p619
I6784
sS'CTCTTG'
p620
I12280
sS'AGGGCT'
p621
I21003
sS'TACGTA'
p622
I998
sS'CTGACA'
p623
I10593
sS'TACGTC'
p624
I1287
sS'TCTGGT'
p625
I10067
sS'AACAAA'
p626
I14843
sS'CGCGAT'
p627
I2415
sS'TACGTG'
p628
I2136
sS'TGTTAG'
p629
I5002
sS'GCTGTT'
p630
I11403
sS'TGTTAC'
p631
I4402
sS'CTCTTT'
p632
I15871
sS'TGTTAA'
p633
I6040
sS'TCTGGG'
p634
I24430
sS'CGCGAC'
p635
I4700
sS'GATATT'
p636
I3289
sS'TCTGGC'
p637
I16560
sS'TACGTT'
p638
I1259
sS'TCTGGA'
p639
I14869
sS'AGTCGT'
p640
I2189
sS'TTACCT'
p641
I6728
sS'CTCCAT'
p642
I11659
sS'AATGCG'
p643
I2990
sS'TATGCC'
p644
I3307
sS'TTACCG'
p645
I2106
sS'CTCCAC'
p646
I18761
sS'CTCCAA'
p647
I13034
sS'TTACCC'
p648
I5649
sS'CTCCAG'
p649
I31010
sS'TTACCA'
p650
I5095
sS'AGTCGC'
p651
I4324
sS'GTACCG'
p652
I1844
sS'CCGACT'
p653
I5059
sS'GCCTAC'
p654
I5350
sS'GCCTAA'
p655
I5284
sS'GCCTAG'
p656
I8424
sS'CCGACA'
p657
I4038
sS'CCCTGT'
p658
I15855
sS'CCGACC'
p659
I7409
sS'CCGACG'
p660
I4203
sS'GCCTAT'
p661
I3787
sS'AAGCTA'
p662
I5053
sS'ACGCTC'
p663
I4875
sS'AGGGCG'
p664
I17107
sS'AAGCTG'
p665
I15228
sS'CCCGAA'
p666
I5914
sS'CGCACA'
p667
I6492
sS'ATACAC'
p668
I3543
sS'CGCACC'
p669
I8820
sS'ATACAA'
p670
I4282
sS'ACTGCT'
p671
I10940
sS'AGGGCC'
p672
I22178
sS'CGCACG'
p673
I5812
sS'GGGTCC'
p674
I16775
sS'CTCACT'
p675
I13683
sS'GGCATA'
p676
I3441
sS'GGGTCT'
p677
I13842
sS'ACTGCA'
p678
I12772
sS'TTTGTC'
p679
I9036
sS'ACTGCC'
p680
I13042
sS'CGCACT'
p681
I5299
sS'ATACAT'
p682
I3586
sS'ACTGCG'
p683
I6315
sS'CTTGAC'
p684
I6005
sS'CTCACA'
p685
I13008
sS'CTCACG'
p686
I6062
sS'TAGTGG'
p687
I5750
sS'GTGAGG'
p688
I17312
sS'GATTTT'
p689
I8226
sS'ACAATT'
p690
I4805
sS'GTGAGC'
p691
I13142
sS'TAGTGA'
p692
I4402
sS'GTGAGA'
p693
I10702
sS'TCGACG'
p694
I1358
sS'TCGACA'
p695
I1487
sS'TCGACC'
p696
I2429
sS'ACAATA'
p697
I4174
sS'GTGAGT'
p698
I10068
sS'GTGGGG'
p699
I30655
sS'GATTTC'
p700
I7771
sS'GATTTA'
p701
I4955
sS'TCGACT'
p702
I1902
sS'CTGGTT'
p703
I10705
sS'TTGAGT'
p704
I6266
sS'CGAACG'
p705
I1964
sS'CGAACC'
p706
I3396
sS'CGAACA'
p707
I2291
sS'CGGNCC'
p708
I1
sS'CTGGTG'
p709
I17663
sS'CTGGTA'
p710
I6156
sS'CTGGTC'
p711
I12180
sS'CTGCAA'
p712
I13311
sS'CGAACT'
p713
I2834
sS'TTGCAT'
p714
I7892
sS'GACGAG'
p715
I4755
sS'NNGAAT'
p716
I1
sS'CGTCTT'
p717
I4254
sS'TTGCAG'
p718
I13261
sS'TCCATA'
p719
I3789
sS'TTGCAC'
p720
I6294
sS'TTGCAA'
p721
I8103
sS'AAGATC'
p722
I5249
sS'ACGTAC'
p723
I1213
sS'GAGGGC'
p724
I26510
sS'TCGCAT'
p725
I1847
sS'GTCGTG'
p726
I3003
sS'GTCGTA'
p727
I1037
sS'GTCGTC'
p728
I2999
sS'CCGTTT'
p729
I4345
sS'GAGCAA'
p730
I10075
sS'ATATCG'
p731
I700
sS'GTCGTT'
p732
I1977
sS'TCGCAG'
p733
I6851
sS'TCCATG'
p734
I8223
sS'TCGCAC'
p735
I3249
sS'CCGTTG'
p736
I3219
sS'CCGTTA'
p737
I1719
sS'CCGTTC'
p738
I4221
sS'AATGCT'
p739
I8197
sS'GGTACG'
p740
I1725
sS'GGTACA'
p741
I3853
sS'GGTACC'
p742
I4565
sS'TATTTG'
p743
I6710
sS'CCAGTT'
p744
I9773
sS'TATTTC'
p745
I7128
sS'TATTTA'
p746
I7019
sS'CCCCCT'
p747
I26355
sS'GGTACT'
p748
I3770
sS'AAGGGG'
p749
I19844
sS'AATGCC'
p750
I8287
sS'AATGCA'
p751
I9822
sS'CCCCCC'
p752
I19071
sS'CCCCCA'
p753
I30041
sS'TATTTT'
p754
I11451
sS'CCCCCG'
p755
I21488
sS'CTTGAG'
p756
I10753
sS'ATGATG'
p757
I5388
sS'GAAGTA'
p758
I5048
sS'ATGATA'
p759
I2708
sS'GCGTTA'
p760
I1752
sS'ATGATC'
p761
I3444
sS'TGCAAC'
p762
I6323
sS'TGCAAA'
p763
I13180
sS'TGCAAG'
p764
I9994
sS'GAAGTG'
p765
I12281
sS'ATGATT'
p766
I4599
sS'CTTGAT'
p767
I5117
sS'AGGACG'
p768
I7510
sS'CGAATC'
p769
I2251
sS'TTGAGG'
p770
I10243
sS'AATCTC'
p771
I7103
sS'TNCCAT'
p772
I1
sS'TTGAGC'
p773
I7890
sS'TGCAAT'
p774
I5935
sS'GAGAAT'
p775
I8975
sS'TGTCTT'
p776
I10493
sS'CGAATA'
p777
I1165
sS'AGTAGC'
p778
I5703
sS'AAGGCC'
p779
I14667
sS'ATAACC'
p780
I3254
sS'AAGGCA'
p781
I14875
sS'ATAACA'
p782
I4555
sS'AAGGCG'
p783
I8823
sS'ATAACG'
p784
I1195
sS'TCCATT'
p785
I9211
sS'TGTCTG'
p786
I13770
sS'GAGAAG'
p787
I20526
sS'AGTAGA'
p788
I5451
sS'GAGAAA'
p789
I18944
sS'TGTCTC'
p790
I13167
sS'GAGAAC'
p791
I9797
sS'TGTCTA'
p792
I4290
sS'TGTGGC'
p793
I14936
sS'TGTGGA'
p794
I11576
sS'TGTGGG'
p795
I18085
sS'ATAACT'
p796
I3526
sS'AAGGCT'
p797
I13309
sS'GGTATT'
p798
I4036
sS'GCCCCG'
p799
I32651
sS'ACCAAG'
p800
I8952
sS'GGTCAG'
p801
I13336
sS'ACCAAA'
p802
I7609
sS'GGTCAA'
p803
I5240
sS'ACCAAC'
p804
I5629
sS'GGTCAC'
p805
I9568
sS'GGTCAT'
p806
I5240
sS'ACCAAT'
p807
I4642
sS'GCCCCT'
p808
I28502
sS'CGTGCG'
p809
I6036
sS'AGGTAC'
p810
I4486
sS'TTTTGC'
p811
I9735
sS'TCTTAC'
p812
I4785
sS'AATTGG'
p813
I5265
sS'TCTTAA'
p814
I6498
sS'TTTTGG'
p815
I9918
sS'TCTTAG'
p816
I6085
sS'AATTGC'
p817
I5270
sS'TAGCCA'
p818
I6442
sS'TGGGGT'
p819
I17119
sS'TAGCCC'
p820
I6908
sS'GATAAT'
p821
I3432
sS'CGCTCA'
p822
I7105
sS'TAGCCG'
p823
I3086
sS'AATTGT'
p824
I4986
sS'AATCTT'
p825
I5651
sS'TCTTAT'
p826
I4472
sS'TTTTGT'
p827
I13474
sS'CGCTCT'
p828
I9645
sS'TGGGGG'
p829
I30028
sS'GATAAC'
p830
I2787
sS'TAGCCT'
p831
I6352
sS'TGGGGC'
p832
I27324
sS'TGGGGA'
p833
I26834
sS'GATCCT'
p834
I7466
sS'AAGAAT'
p835
I8869
sS'CGAAGT'
p836
I3026
sS'GTTATC'
p837
I2700
sS'AAGAAC'
p838
I8210
sS'GATCCA'
p839
I6252
sS'AAGAAA'
p840
I19999
sS'GATCCC'
p841
I9225
sS'AAGAAG'
p842
I14272
sS'GATCCG'
p843
I4113
sS'GCCCCA'
p844
I27072
sS'ATGCCG'
p845
I3326
sS'TGTGGT'
p846
I9907
sS'CAAGGG'
p847
I13961
sS'CAAGGC'
p848
I14537
sS'GGTTCT'
p849
I9373
sS'CAAGGA'
p850
I13317
sS'TTGATA'
p851
I3045
sS'GGCGCN'
p852
I1
sS'GGTTCA'
p853
I6664
sS'GGTTCC'
p854
I11534
sS'CAAGGT'
p855
I8988
sS'TGCATT'
p856
I10065
sS'GGTTCG'
p857
I3369
sS'TAGGCA'
p858
I6439
sS'ATTATA'
p859
I3015
sS'ATTATC'
p860
I3330
sS'TAGAAT'
p861
I4899
sS'GATAGT'
p862
I2173
sS'ATTATG'
p863
I3329
sS'AGTCTT'
p864
I7672
sS'TAGAAA'
p865
I8696
sS'TAGAAC'
p866
I3970
sS'ATTATT'
p867
I5722
sS'TAGAAG'
p868
I6610
sS'AGTCTA'
p869
I3537
sS'AGTCTC'
p870
I10508
sS'TTTAAC'
p871
I5643
sS'AGTCTG'
p872
I10608
sS'TAACTC'
p873
I4749
sS'TAACTA'
p874
I2888
sS'TAACTG'
p875
I5497
sS'ATCTAT'
p876
I2873
sS'ACGCGT'
p877
I2017
sS'AGGTAT'
p878
I4005
sS'TAACTT'
p879
I5101
sS'ATCTAG'
p880
I3758
sS'ATCTAC'
p881
I3195
sS'ATCTAA'
p882
I3626
sS'CCATGT'
p883
I7716
sS'GCCCCC'
p884
I34816
sS'TGGAGG'
p885
I25776
sS'TGGAGA'
p886
I18801
sS'TGGAGC'
p887
I18650
sS'CCATGC'
p888
I8988
sS'CCATGA'
p889
I7077
sS'CCATGG'
p890
I11999
sS'TGGAGT'
p891
I12094
sS'ATTACG'
p892
I1035
sS'TCAGTA'
p893
I5019
sS'TCAGTC'
p894
I8750
sS'CTCTCT'
p895
I25313
sS'GGGGAT'
p896
I11689
sS'TCAGTG'
p897
I10967
sS'CGATAT'
p898
I632
sS'GGGGAA'
p899
I23000
sS'GGGGAC'
p900
I19423
sS'CTCTCC'
p901
I30574
sS'TCAGTT'
p902
I8634
sS'CTCTCA'
p903
I14009
sS'ATGCAG'
p904
I11431
sS'CGATAG'
p905
I1107
sS'CGATAA'
p906
I1027
sS'ATGCTG'
p907
I11088
sS'CGATAC'
p908
I868
sS'GTGTTT'
p909
I9990
sS'GCTACT'
p910
I5798
sS'GTGGTT'
p911
I8051
sS'GTGTTC'
p912
I6865
sS'GTGTTA'
p913
I4115
sS'GTGTTG'
p914
I7263
sS'CGTGCC'
p915
I6790
sS'GTGGTA'
p916
I4447
sS'GCTACA'
p917
I5287
sS'GTGGTC'
p918
I8169
sS'GCTACC'
p919
I5769
sS'GTGGTG'
p920
I14180
sS'GCTACG'
p921
I2620
sS'CGTGCA'
p922
I4939
sS'TTTCGT'
p923
I2401
sS'GATCGT'
p924
I1380
sS'TGCCCT'
p925
I20083
sS'AGCGTT'
p926
I3457
sS'AGGTAA'
p927
I6773
sS'CACGGA'
p928
I5618
sS'TTTCGC'
p929
I3320
sS'TGCCCG'
p930
I11327
sS'TTTCGG'
p931
I3923
sS'AGCGTA'
p932
I1438
sS'AGCGTC'
p933
I5445
sS'AGCGTG'
p934
I5772
sS'GGCCCC'
p935
I33507
sS'GGCCCA'
p936
I20289
sS'CACGTG'
p937
I8119
sS'GGCCCG'
p938
I20632
sS'CACGTA'
p939
I2053
sS'CACGTC'
p940
I4757
sS'CTACGC'
p941
I2638
sS'CTACGA'
p942
I1576
sS'GGGACT'
p943
I14680
sS'ACAGTC'
p944
I6930
sS'CACGTT'
p945
I3654
sS'CTAAGT'
p946
I4676
sS'GNCCCA'
p947
I1
sS'GGCCCT'
p948
I22311
sS'GGGACA'
p949
I15493
sS'AATTGA'
p950
I4623
sS'GGGACC'
p951
I18172
sS'AGGGAC'
p952
I15813
sS'TCGTGG'
p953
I4511
sS'CTACGT'
p954
I1934
sS'GCTTCC'
p955
I21468
sS'AGAGAG'
p956
I25308
sS'AGAGAA'
p957
I19317
sS'AGAGAC'
p958
I13629
sS'TCTATA'
p959
I2599
sS'GTCTTT'
p960
I9509
sS'TCTATC'
p961
I3541
sS'TCTATG'
p962
I3769
sS'AGAGAT'
p963
I9404
sS'TCGTGC'
p964
I3234
sS'GTCTTG'
p965
I7904
sS'TCTATT'
p966
I5163
sS'GTCTTC'
p967
I9493
sS'GTCTTA'
p968
I3945
sS'GCAGAG'
p969
I27908
sS'GCTCAA'
p970
I7621
sS'GCTCAC'
p971
I13209
sS'GCAGAC'
p972
I11449
sS'GCAGAA'
p973
I15128
sS'GCTCAG'
p974
I21709
sS'AGACGT'
p975
I3154
sS'ATGCGT'
p976
I2168
sS'TTGCTG'
p977
I13686
sS'TTGCTA'
p978
I5396
sS'TTGCTC'
p979
I10132
sS'GCAGAT'
p980
I9654
sS'GCTCAT'
p981
I7405
sS'GTACGG'
p982
I1651
sS'TTGCTT'
p983
I10762
sS'ATGCGG'
p984
I3959
sS'GAGAGG'
p985
I28829
sS'CGCTCC'
p986
I16932
sS'ATGCGC'
p987
I4230
sS'ATGCGA'
p988
I1905
sS'TGTAAG'
p989
I5324
sS'GGCTAG'
p990
I7183
sS'TGTAAC'
p991
I4339
sS'GGCTAC'
p992
I5976
sS'GACTGT'
p993
I6857
sS'GGCTAA'
p994
I5800
sS'TTCGAG'
p995
I3385
sS'TTGGTA'
p996
I3947
sS'ACTGTC'
p997
I6946
sS'TTGGTC'
p998
I6271
sS'TTCGAC'
p999
I1590
sS'ACTGTG'
p1000
I10424
sS'GTTTGG'
p1001
I9690
sS'GACTGC'
p1002
I10528
sS'GGCTAT'
p1003
I3839
sS'TGTAAT'
p1004
I5994
sS'GACTGG'
p1005
I12623
sS'TTCGAT'
p1006
I1415
sS'TTGGTT'
p1007
I7691
sS'ACTGTT'
p1008
I6308
sS'GTTTCT'
p1009
I12690
sS'GAATGA'
p1010
I9292
sS'ATAATT'
p1011
I4640
sS'CCTTTT'
p1012
I15205
sS'GTTTCG'
p1013
I2741
sS'GTTTCC'
p1014
I13995
sS'GTTTCA'
p1015
I8228
sS'ATAATG'
p1016
I4000
sS'CCTTTA'
p1017
I7889
sS'CCTTTC'
p1018
I19528
sS'ATAATC'
p1019
I2940
sS'ATAATA'
p1020
I3950
sS'CCTTTG'
p1021
I15273
sS'ACAGAA'
p1022
I12286
sS'CTCTCG'
p1023
I7951
sS'ACAGAC'
p1024
I9573
sS'ACAGAG'
p1025
I16797
sS'TTATCT'
p1026
I5876
sS'CTGGAC'
p1027
I12689
sS'CTGGAA'
p1028
I19922
sS'CTGGAG'
p1029
I30914
sS'GTCGAT'
p1030
I1110
sS'TTATCG'
p1031
I951
sS'CCTTGC'
p1032
I13690
sS'TTATCA'
p1033
I4079
sS'CTGGAT'
p1034
I9738
sS'TTATCC'
p1035
I4325
sS'CCAATG'
p1036
I6606
sS'AAACCG'
p1037
I3872
sS'AAACCA'
p1038
I10597
sS'CCAATC'
p1039
I7387
sS'AAACCC'
p1040
I11432
sS'CCAATA'
p1041
I3678
sS'TGTCGG'
p1042
I4022
sS'GAGATC'
p1043
I7084
sS'CCCTAT'
p1044
I4681
sS'GAGATA'
p1045
I4799
sS'TGTCGC'
p1046
I4395
sS'GAGATG'
p1047
I11798
sS'AACGAC'
p1048
I2064
sS'AAACCT'
p1049
I9400
sS'CCAATT'
p1050
I5214
sS'ATTTGC'
p1051
I8446
sS'GGGTAT'
p1052
I3541
sS'ATTTGG'
p1053
I8276
sS'CCCTAG'
p1054
I10260
sS'TGTCGT'
p1055
I2074
sS'CCCTAC'
p1056
I8427
sS'CATGGA'
p1057
I8283
sS'CCCTAA'
p1058
I7603
sS'TACAAC'
p1059
I3313
sS'CATTAT'
p1060
I4045
sS'ACTTCA'
p1061
I7963
sS'TGACAG'
p1062
I10852
sS'ATCACC'
p1063
I6802
sS'CATGCT'
p1064
I8361
sS'TGACAC'
p1065
I7135
sS'ATCACG'
p1066
I2497
sS'TGGATA'
p1067
I4001
sS'TGGATC'
p1068
I6124
sS'CATTAA'
p1069
I5038
sS'CATTAC'
p1070
I3781
sS'AGCATT'
p1071
I8171
sS'CATGCA'
p1072
I8455
sS'TGACAT'
p1073
I6128
sS'CATGCC'
p1074
I9179
sS'ATCACT'
p1075
I6071
sS'CATGCG'
p1076
I3986
sS'AACCTG'
p1077
I10652
sS'GTAGAA'
p1078
I5180
sS'GTAGAC'
p1079
I3175
sS'GTAGAG'
p1080
I6897
sS'ACAACA'
p1081
I7143
sS'ACAACC'
p1082
I5905
sS'GATTGC'
p1083
I4466
sS'ACAACG'
p1084
I2216
sS'TAAATT'
p1085
I6261
sS'ACTAAG'
p1086
I4386
sS'GTAGAT'
p1087
I3300
sS'TGCTAC'
p1088
I4732
sS'GGGTAC'
p1089
I4178
sS'TGATGC'
p1090
I6451
sS'GATCAA'
p1091
I3731
sS'TTCAGT'
p1092
I8854
sS'ACAACT'
p1093
I5620
sS'ATACGC'
p1094
I1075
sS'TAATAG'
p1095
I3108
sS'GTCCGG'
p1096
I7629
sS'TAATAC'
p1097
I2397
sS'GTCCGA'
p1098
I3095
sS'TAATAA'
p1099
I5239
sS'GTCCGC'
p1100
I7464
sS'TGTTTA'
p1101
I7540
sS'CACATC'
p1102
I7753
sS'GTCCGT'
p1103
I3126
sS'TAATAT'
p1104
I2928
sS'ATTCGC'
p1105
I2071
sS'TTCTCC'
p1106
I20499
sS'TGAACT'
p1107
I7469
sS'TTCTCA'
p1108
I13558
sS'ATCCAT'
p1109
I4672
sS'TTCTCG'
p1110
I4989
sS'TCGTAC'
p1111
I945
sS'TACCTT'
p1112
I5301
sS'TCGTAA'
p1113
I1086
sS'TCGTAG'
p1114
I1656
sS'TCGTCA'
p1115
I2185
sS'GAACCT'
p1116
I7889
sS'ATCCAA'
p1117
I5408
sS'ATCCAC'
p1118
I6442
sS'TGTTTG'
p1119
I11230
sS'TTCTCT'
p1120
I19161
sS'TGAACA'
p1121
I6749
sS'GAACCC'
p1122
I10362
sS'TACCTG'
p1123
I8231
sS'TACCTA'
p1124
I3140
sS'TACCTC'
p1125
I6154
sS'TCGTAT'
p1126
I867
sS'ACCATC'
p1127
I5903
sS'ACCATA'
p1128
I2628
sS'ACCATG'
p1129
I6762
sS'ATGTTG'
p1130
I5754
sS'AGCTCT'
p1131
I16020
sS'TGTCCT'
p1132
I13359
sS'AGTGGT'
p1133
I7661
sS'CGTGGT'
p1134
I5102
sS'AGATGT'
p1135
I6804
sS'ATGAGC'
p1136
I7266
sS'ATGTTT'
p1137
I7521
sS'ACCATT'
p1138
I5191
sS'AGTGGA'
p1139
I10737
sS'AGTGGC'
p1140
I13384
sS'AGCTCC'
p1141
I22209
sS'AGCTCA'
p1142
I13782
sS'CAGTAA'
p1143
I6203
sS'CAGTAC'
p1144
I4284
sS'CAGTAG'
p1145
I6829
sS'TTAATA'
p1146
I4274
sS'CAGTAT'
p1147
I3812
sS'AAAGTA'
p1148
I5873
sS'TTTCAA'
p1149
I9876
sS'CCGGCT'
p1150
I15376
sS'GATCTA'
p1151
I2715
sS'GATCTC'
p1152
I6918
sS'ATTGAC'
p1153
I3287
sS'GATCTG'
p1154
I8222
sS'TCCCTT'
p1155
I17916
sS'CCGGCC'
p1156
I25952
sS'CCGGCA'
p1157
I10175
sS'CCGGCG'
p1158
I17233
sS'ACTCTC'
p1159
I9425
sS'ATTAGC'
p1160
I4834
sS'TCCCTC'
p1161
I29021
sS'TGTCCG'
p1162
I4637
sS'TCCCTA'
p1163
I8587
sS'TGCCAC'
p1164
I12377
sS'TCCCTG'
p1165
I27623
sS'GATCTT'
p1166
I5286
sS'ATAGAA'
p1167
I4815
sS'CACAAT'
p1168
I5731
sS'AAGTGC'
p1169
I9552
sS'TGTTCT'
p1170
I10447
sS'AAGTGG'
p1171
I11171
sS'TGATTG'
p1172
I6407
sS'TGCGCA'
p1173
I7106
sS'TCTGAT'
p1174
I7503
sS'AGACTC'
p1175
I9552
sS'TGTTCA'
p1176
I6817
sS'CACAAG'
p1177
I9378
sS'TGTTCC'
p1178
I10424
sS'CACAAA'
p1179
I11067
sS'CACAAC'
p1180
I6428
sS'TGTTCG'
p1181
I2320
sS'TCTGAA'
p1182
I11753
sS'AAATTG'
p1183
I6167
sS'TGATTT'
p1184
I8501
sS'AGACTA'
p1185
I3909
sS'TCTGAG'
p1186
I16187
sS'CGCGCC'
p1187
I22023
sS'CGCGCA'
p1188
I9317
sS'GGTAAA'
p1189
I5769
sS'CGCGCG'
p1190
I18633
sS'CTCCCT'
p1191
I35172
sS'AGCGGG'
p1192
I14689
sS'AGCGGA'
p1193
I7797
sS'ACCTCT'
p1194
I12085
sS'GGTAAG'
p1195
I5918
sS'GAAATA'
p1196
I7069
sS'GACATT'
p1197
I6114
sS'CGCGCT'
p1198
I11265
sS'ACCTCC'
p1199
I17819
sS'ACCTCA'
p1200
I10982
sS'CTCCCA'
p1201
I28355
sS'CTCCCC'
p1202
I42460
sS'GCCTCT'
p1203
I22885
sS'TAAGCC'
p1204
I5745
sS'TAGCTC'
p1205
I6209
sS'CCCATG'
p1206
I9993
sS'CGGGAA'
p1207
I11019
sS'CCCATA'
p1208
I4394
sS'TAGCTG'
p1209
I7932
sS'CCCATC'
p1210
I14037
sS'TTGTTG'
p1211
I7634
sS'CCTGCT'
p1212
I26607
sS'CCGAAT'
p1213
I2482
sS'CCCATT'
p1214
I10433
sS'CGGGAT'
p1215
I5589
sS'GCCTCG'
p1216
I13765
sS'GCCTCA'
p1217
I17608
sS'TAAGCT'
p1218
I4751
sS'GCCTCC'
p1219
I35725
sS'CCGAAC'
p1220
I3516
sS'CCTGCG'
p1221
I16279
sS'CCGAAA'
p1222
I3944
sS'CCGAAG'
p1223
I6546
sS'CCTGCC'
p1224
I36397
sS'CCTGCA'
p1225
I23836
sS'CGTGAG'
p1226
I6186
sS'GTACTG'
p1227
I4184
sS'CCATTC'
p1228
I10116
sS'CCATTA'
p1229
I4412
sS'TATAAA'
p1230
I5144
sS'TATAAC'
p1231
I2076
sS'GCNNNN'
p1232
I1
sS'TAACGA'
p1233
I1233
sS'TATAAT'
p1234
I2943
sS'GTCGAA'
p1235
I1572
sS'GTTCTA'
p1236
I3970
sS'CCATTT'
p1237
I10994
sS'TCTACA'
p1238
I5228
sS'TCTACC'
p1239
I5844
sS'CTNCCA'
p1240
I1
sS'TCTACG'
p1241
I1773
sS'ACTTTC'
p1242
I9052
sS'CGCAAC'
p1243
I3111
sS'CGCAAA'
p1244
I3603
sS'ATACCG'
p1245
I1154
sS'GACGCG'
p1246
I6736
sS'ATACCA'
p1247
I3586
sS'ATACCC'
p1248
I3724
sS'TCTACT'
p1249
I5204
sS'CCGAGT'
p1250
I6071
sS'ATACCT'
p1251
I3927
sS'GATAGG'
p1252
I4206
sS'CGCAAT'
p1253
I1798
sS'TAGTAA'
p1254
I3124
sS'TGGGTG'
p1255
I17516
sS'TAGTAC'
p1256
I1690
sS'CTCAAG'
p1257
I10577
sS'GTTTTG'
p1258
I9792
sS'CTCAAA'
p1259
I10655
sS'TAGTAG'
p1260
I3007
sS'CTCAAC'
p1261
I6805
sS'GTGTGC'
p1262
I10775
sS'GTGTGA'
p1263
I9546
sS'GTGTGG'
p1264
I14590
sS'TAACGG'
p1265
I1738
sS'CTCAAT'
p1266
I5193
sS'ATTACA'
p1267
I5961
sS'TAGTAT'
p1268
I1872
sS'GTTCTC'
p1269
I9937
sS'GTGTGT'
p1270
I20696
sS'ATCTTT'
p1271
I7471
sS'GTTGGG'
p1272
I12210
sS'GTTGGA'
p1273
I7330
sS'GTTGGC'
p1274
I7609
sS'CCTTGG'
p1275
I17506
sS'CCTTGA'
p1276
I9771
sS'GCGTAT'
p1277
I1084
sS'AGGATT'
p1278
I8462
sS'GGACGT'
p1279
I4188
sS'CTAAGC'
p1280
I6262
sS'GTTGGT'
p1281
I5720
sS'ATCTTG'
p1282
I6500
sS'ATCTTA'
p1283
I3724
sS'ATCTTC'
p1284
I6938
sS'CCTTGT'
p1285
I9984
sS'AGGATA'
p1286
I4577
sS'AAACTA'
p1287
I5340
sS'AGGATG'
p1288
I12607
sS'GACATG'
p1289
I5676
sS'GACATC'
p1290
I5505
sS'GACATA'
p1291
I2820
sS'TCGGCG'
p1292
I6816
sS'GAATAT'
p1293
I3654
sS'GGTGCA'
p1294
I10771
sS'TCGGCC'
p1295
I10248
sS'ATCAGA'
p1296
I7345
sS'TTGCGA'
p1297
I2062
sS'TTGCGC'
p1298
I3989
sS'TTGCGG'
p1299
I4601
sS'GAATAG'
p1300
I4385
sS'TCGGCT'
p1301
I7034
sS'CATAGA'
p1302
I3784
sS'AGGAAG'
p1303
I28626
sS'GAATAA'
p1304
I5865
sS'ACTTTT'
p1305
I8917
sS'TGCAGA'
p1306
I17250
sS'GTACAT'
p1307
I2504
sS'GACCTT'
p1308
I7929
sS'AAAATT'
p1309
I8719
sS'TACAAG'
p1310
I4572
sS'TGCCTC'
p1311
I19618
sS'TTATAA'
p1312
I4256
sS'GAAATG'
p1313
I12665
sS'AATGAT'
p1314
I4801
sS'TTTCTC'
p1315
I18787
sS'GAAATC'
p1316
I7808
sS'CGCATT'
p1317
I3037
sS'GAAATT'
p1318
I7873
sS'AATGAA'
p1319
I10409
sS'AATGAC'
p1320
I6404
sS'AATGAG'
p1321
I10306
sS'AGGAAA'
p1322
I22565
sS'TCAGCA'
p1323
I14503
sS'CTTGGA'
p1324
I11908
sS'CTTGGC'
p1325
I15308
sS'GTATTG'
p1326
I2831
sS'GTTTTC'
p1327
I11195
sS'CTTGGG'
p1328
I17431
sS'ATACAG'
p1329
I4796
sS'AGCCCT'
p1330
I21074
sS'GGGAAT'
p1331
I10639
sS'TTGAAT'
p1332
I6483
sS'GTCCTA'
p1333
I4484
sS'CAAGCT'
p1334
I9889
sS'TGCACG'
p1335
I5075
sS'TACTAC'
p1336
I2185
sS'GTCCTG'
p1337
I16332
sS'TGCACC'
p1338
I10724
sS'TTGAAA'
p1339
I10029
sS'TTGAAC'
p1340
I5098
sS'AGCCCA'
p1341
I20211
sS'AGCCCC'
p1342
I29681
sS'CTTATG'
p1343
I3548
sS'ATAAAT'
p1344
I6898
sS'TGGTCG'
p1345
I3398
sS'TGGTCA'
p1346
I7756
sS'TGGTCC'
p1347
I9733
sS'ACGATT'
p1348
I1421
sS'GAGACT'
p1349
I10647
sS'GATTCA'
p1350
I6001
sS'TGGTCT'
p1351
I10026
sS'ATAAAG'
p1352
I6397
sS'CCTGTG'
p1353
I19243
sS'ATAAAA'
p1354
I9231
sS'ATGGTG'
p1355
I8157
sS'ATAAAC'
p1356
I4944
sS'GAGACG'
p1357
I7351
sS'ACGATG'
p1358
I2212
sS'CTACAG'
p1359
I7895
sS'GAGACC'
p1360
I13342
sS'ACGATC'
p1361
I1423
sS'GAGACA'
p1362
I13038
sS'ACGATA'
p1363
I698
sS'GGTTAC'
p1364
I3854
sS'ATGTGT'
p1365
I6919
sS'GGTTAA'
p1366
I4815
sS'ACCACT'
p1367
I7819
sS'GCACTT'
p1368
I9447
sS'CTTCCT'
p1369
I28601
sS'TAAACT'
p1370
I5612
sS'CGTGAA'
p1371
I3255
sS'CTCAGT'
p1372
I12550
sS'TCCGCT'
p1373
I7647
sS'CTTCCA'
p1374
I16631
sS'CTTCCC'
p1375
I31404
sS'ATGTGA'
p1376
I7095
sS'CGTATG'
p1377
I1039
sS'ACCACA'
p1378
I9981
sS'GGTTAT'
p1379
I3232
sS'TCCGCC'
p1380
I15578
sS'TCCGCA'
p1381
I6682
sS'TCCGCG'
p1382
I9350
sS'AACGTC'
p1383
I2440
sS'AACGTA'
p1384
I1290
sS'AACGTG'
p1385
I3800
sS'CGTGAC'
p1386
I4318
sS'AGTGTG'
p1387
I10450
sS'TCTTCG'
p1388
I4003
sS'AGTGTA'
p1389
I3769
sS'TCTTCA'
p1390
I10634
sS'AGTGTC'
p1391
I7257
sS'TCTTCC'
p1392
I20121
sS'TAAGTG'
p1393
I5616
sS'ACTCAA'
p1394
I6217
sS'TAAGTC'
p1395
I3958
sS'TAAGTA'
p1396
I3434
sS'GCTCGC'
p1397
I10636
sS'TCTTCT'
p1398
I14559
sS'AGTGTT'
p1399
I6965
sS'GTGCGC'
p1400
I9438
sS'TTGGCA'
p1401
I8875
sS'AAAGGT'
p1402
I8337
sS'TTGGCC'
p1403
I12554
sS'CCGTGC'
p1404
I7527
sS'TTAACG'
p1405
I1543
sS'TTGGCG'
p1406
I5183
sS'GACTTC'
p1407
I8880
sS'TCGAGT'
p1408
I2305
sS'GACTTA'
p1409
I3832
sS'GACTTG'
p1410
I8264
sS'ACGTAG'
p1411
I1950
sS'AAAGGG'
p1412
I17364
sS'AAAGGA'
p1413
I17546
sS'TTGGCT'
p1414
I12685
sS'AAAGGC'
p1415
I14417
sS'GAGTAC'
p1416
I3078
sS'GACTTT'
p1417
I7764
sS'TTCTTT'
p1418
I18638
sS'CTGTAA'
p1419
I8674
sS'CAAGAA'
p1420
I10514
sS'AGCGAG'
p1421
I9578
sS'CAAGAC'
p1422
I7943
sS'GATTCG'
p1423
I2247
sS'CAAGAG'
p1424
I12123
sS'TTCTTG'
p1425
I10772
sS'TTCTTC'
p1426
I14553
sS'TTCTTA'
p1427
I7385
sS'CAAGAT'
p1428
I6326
sS'CCCGAT'
p1429
I3047
sS'TACGGG'
p1430
I2202
sS'TACGGA'
p1431
I1727
sS'TACGGC'
p1432
I2102
sS'CTCAGA'
p1433
I16401
sS'TAGAGT'
p1434
I4144
sS'TACGGT'
p1435
I1287
sS'CCCGAG'
p1436
I14256
sS'AGGGCA'
p1437
I20222
sS'CCCGAC'
p1438
I8184
sS'AGTTCG'
p1439
I2814
sS'TAGAGA'
p1440
I8219
sS'GGCGAG'
p1441
I13799
sS'GGCGAA'
p1442
I5278
sS'GTGCTG'
p1443
I18066
sS'GTGCTA'
p1444
I4411
sS'ATCTGT'
p1445
I7435
sS'GTGCTC'
p1446
I10637
sS'GTGCGG'
p1447
I9557
sS'TAGGAC'
p1448
I4564
sS'ATCTGA'
p1449
I7245
sS'GTGCTT'
p1450
I9076
sS'ATCTGC'
p1451
I9631
sS'CGCCGT'
p1452
I5661
sS'CGAATG'
p1453
I2522
sS'ATCTGG'
p1454
I9960
sS'ATCATA'
p1455
I2374
sS'GATAGC'
p1456
I2924
sS'ATCATC'
p1457
I4595
sS'GATAGA'
p1458
I3440
sS'AAGCAA'
p1459
I10670
sS'CAAACT'
p1460
I8553
sS'AAGCAC'
p1461
I9143
sS'GGCTCA'
p1462
I16817
sS'CATTTC'
p1463
I12662
sS'CTAGGT'
p1464
I5485
sS'CATTTA'
p1465
I7551
sS'ACGCAT'
p1466
I2065
sS'CATTTG'
p1467
I9709
sS'GTTATA'
p1468
I1947
sS'CAAACA'
p1469
I11241
sS'AAGCAT'
p1470
I6709
sS'CAAACC'
p1471
I9346
sS'CATATT'
p1472
I4080
sS'ATCATT'
p1473
I4921
sS'CAAACG'
p1474
I3741
sS'ACGCAG'
p1475
I6920
sS'CTAGGG'
p1476
I10295
sS'GTTATT'
p1477
I4584
sS'CTAGGC'
p1478
I8485
sS'CATTTT'
p1479
I12887
sS'CTAGGA'
p1480
I8497
sS'AAGTTT'
p1481
I8021
sS'TACAGT'
p1482
I4599
sS'CTCGAA'
p1483
I3406
sS'CTAAGG'
p1484
I7249
sS'CTAAGA'
p1485
I6155
sS'GGGGCT'
p1486
I29949
sS'TACAGG'
p1487
I7996
sS'AAGTTG'
p1488
I6744
sS'AAGTTA'
p1489
I5140
sS'TACAGC'
p1490
I6360
sS'AAGTTC'
p1491
I7115
sS'TACAGA'
p1492
I6761
sS'GGGGCC'
p1493
I33927
sS'GTATGA'
p1494
I2630
sS'GGGGCA'
p1495
I22807
sS'GGGGCG'
p1496
I37765
sS'ACAGTG'
p1497
I10333
sS'TATATC'
p1498
I1708
sS'TATATA'
p1499
I3339
sS'TGTATA'
p1500
I2773
sS'TATATG'
p1501
I2514
sS'TCCGGT'
p1502
I4307
sS'TATATT'
p1503
I3468
sS'TGATGG'
p1504
I8213
sS'CATATG'
p1505
I3496
sS'ATGAGT'
p1506
I5780
sS'AGGTCT'
p1507
I9957
sS'TGATGA'
p1508
I6854
sS'AGCATG'
p1509
I8332
sS'TGCCAT'
p1510
I8604
sS'ACTCTT'
p1511
I7511
sS'TGTTTC'
p1512
I11419
sS'CACATA'
p1513
I4805
sS'TTAATT'
p1514
I6715
sS'CACATG'
p1515
I8611
sS'TTTCAT'
p1516
I9022
sS'ATGAGA'
p1517
I7987
sS'TGATGT'
p1518
I6090
sS'ATGAGG'
p1519
I10108
sS'TTTCAC'
p1520
I9527
sS'ACTCTG'
p1521
I12263
sS'TTAATC'
p1522
I4054
sS'ACTCTA'
p1523
I4205
sS'AGACCA'
p1524
I10045
sS'CACATT'
p1525
I8646
sS'AGCATC'
p1526
I8450
sS'AAATTC'
p1527
I8944
sS'GACTGA'
p1528
I8619
sS'AAATTA'
p1529
I7199
sS'CGTACC'
p1530
I1769
sS'CCAGTA'
p1531
I5870
sS'AGACCG'
p1532
I4722
sS'GCTTGT'
p1533
I7601
sS'AAATTT'
p1534
I7863
sS'TTCGAA'
p1535
I2179
sS'CTTAGT'
p1536
I4285
sS'GTCTAT'
p1537
I2647
sS'GGGAAC'
p1538
I13274
sS'GGTGCG'
p1539
I9040
sS'GGGAAA'
p1540
I21145
sS'GGGAAG'
p1541
I31932
sS'GGTGCC'
p1542
I14740
sS'TCGTCC'
p1543
I4431
sS'GCCCAT'
p1544
I8591
sS'AGAGCG'
p1545
I9757
sS'GCGACT'
p1546
I4537
sS'AGCGAT'
p1547
I2889
sS'AGAGCC'
p1548
I19545
sS'AGAGCA'
p1549
I15693
sS'GCGTAG'
p1550
I2649
sS'GGTGCT'
p1551
I13432
sS'GCGTAC'
p1552
I1523
sS'TAATTT'
p1553
I7240
sS'GCGTAA'
p1554
I1447
sS'GCGACG'
p1555
I4804
sS'AGAGCT'
p1556
I15945
sS'GCGACA'
p1557
I4263
sS'TATCGG'
p1558
I1031
sS'GCGACC'
p1559
I6694
sS'AGGTCG'
p1560
I4723
sS'GCAGGA'
p1561
I25283
sS'GCAGGC'
p1562
I26375
sS'GCAGGG'
p1563
I34991
sS'CAATTT'
p1564
I6049
sS'GCACTA'
p1565
I3899
sS'GCTCGA'
p1566
I3404
sS'GCTCGG'
p1567
I12919
sS'TATTCT'
p1568
I5452
sS'CCGTGG'
p1569
I9075
sS'ACTTAC'
p1570
I3982
sS'AAATAC'
p1571
I6755
sS'GCAGGT'
p1572
I16456
sS'GGCATG'
p1573
I8980
sS'ACGTCT'
p1574
I3175
sS'TATTCC'
p1575
I5009
sS'CAATTG'
p1576
I3822
sS'TATTCA'
p1577
I5410
sS'CAATTA'
p1578
I4303
sS'TATTCG'
p1579
I1025
sS'CAATTC'
p1580
I5691
sS'TGTAGA'
p1581
I5265
sS'TTTACC'
p1582
I5795
sS'TGTAGC'
p1583
I5171
sS'TTTACA'
p1584
I8397
sS'TTTACG'
p1585
I1778
sS'TGTAGG'
p1586
I6396
sS'GGCTCG'
p1587
I10512
sS'TTCGGA'
p1588
I3367
sS'TTCGGC'
p1589
I4551
sS'AAATAG'
p1590
I6542
sS'TTCAAG'
p1591
I8717
sS'TTCGGG'
p1592
I5785
sS'AACTTA'
p1593
I3779
sS'GGCTCT'
p1594
I19711
sS'TTTCAG'
p1595
I13589
sS'TTTACT'
p1596
I6854
sS'AGCATA'
p1597
I3689
sS'AGACCT'
p1598
I9929
sS'TTCGGT'
p1599
I2691
sS'GAGCAT'
p1600
I6848
sS'GTTTAT'
p1601
I5014
sS'GGGGAG'
p1602
I42496
sS'GCACTC'
p1603
I9936
sS'CGCTAC'
p1604
I2783
sS'TTAATG'
p1605
I5090
sS'GTTTAA'
p1606
I5414
sS'TCCAGG'
p1607
I25720
sS'AACTTG'
p1608
I7172
sS'CGAATT'
p1609
I1966
sS'GTTTAG'
p1610
I4666
sS'CGCTAG'
p1611
I3528
sS'CTGGCT'
p1612
I25304
sS'AGGCGG'
p1613
I21524
sS'GTCGGT'
p1614
I2965
sS'AGGCGC'
p1615
I14938
sS'AGGAGT'
p1616
I12522
sS'ACAGCC'
p1617
I16817
sS'GATAAA'
p1618
I5288
sS'ACAGCA'
p1619
I14212
sS'GAGGTC'
p1620
I11483
sS'ACAGCG'
p1621
I7504
sS'AGGAGC'
p1622
I23098
sS'AGGCGT'
p1623
I6242
sS'AGGAGA'
p1624
I22600
sS'CTGGCG'
p1625
I13962
sS'AGGAGG'
p1626
I39272
sS'CTGGCA'
p1627
I17816
sS'CTGGCC'
p1628
I28671
sS'ACAGCT'
p1629
I13481
sS'GCTCTC'
p1630
I17378
sS'AACGCT'
p1631
I3464
sS'AATTTT'
p1632
I8754
sS'AAACAG'
p1633
I13585
sS'TGTCAC'
p1634
I8374
sS'CCCTCT'
p1635
I27295
sS'GCTCTA'
p1636
I6133
sS'AAACAA'
p1637
I14643
sS'AACGCG'
p1638
I3237
sS'AATTTA'
p1639
I6189
sS'AATTTC'
p1640
I7737
sS'AACGCC'
p1641
I4812
sS'ATTGGA'
p1642
I5362
sS'AATTTG'
p1643
I7248
sS'CCCTCA'
p1644
I18101
sS'CCCTCC'
p1645
I49356
sS'ATTTAG'
p1646
I5314
sS'CCCTCG'
p1647
I13052
sS'TAAATA'
p1648
I7049
sS'CACGAT'
p1649
I2094
sS'GGCGTT'
p1650
I4693
sS'TGACCA'
p1651
I7914
sS'CATTCT'
p1652
I10710
sS'GCCTTG'
p1653
I14482
sS'TGACCG'
p1654
I3819
sS'NGATCC'
p1655
I1
sS'CATTCG'
p1656
I2471
sS'TGACCT'
p1657
I11069
sS'CATTCA'
p1658
I9499
sS'ACGAAA'
p1659
I2380
sS'GCCTTC'
p1660
I16801
sS'ACAAAT'
p1661
I7330
sS'GATTAA'
p1662
I3962
sS'GTAGGC'
p1663
I5384
sS'GATTAC'
p1664
I3832
sS'GTAGGA'
p1665
I6466
sS'GTAGGG'
p1666
I8505
sS'GATTAG'
p1667
I3805
sS'GCGGGT'
p1668
I10096
sS'ACAAAC'
p1669
I8185
sS'ACAAAA'
p1670
I13325
sS'ACAAAG'
p1671
I13095
sS'GCGGGC'
p1672
I24904
sS'AGGCGA'
p1673
I7251
sS'GCGGGA'
p1674
I18274
sS'GCGGGG'
p1675
I40453
sS'GATTAT'
p1676
I2902
sS'GTAGGT'
p1677
I4880
sS'CAATAC'
p1678
I2817
sS'TAATGA'
p1679
I5120
sS'GATGTT'
p1680
I5592
sS'TAATGC'
p1681
I3947
sS'GGAGAT'
p1682
I10380
sS'GCCCTT'
p1683
I15182
sS'CAATAA'
p1684
I4761
sS'GCCCTC'
p1685
I26501
sS'GATGTG'
p1686
I7890
sS'GCCCTA'
p1687
I7393
sS'GATGTA'
p1688
I3239
sS'GCCCTG'
p1689
I31492
sS'GATGTC'
p1690
I5500
sS'AACCTC'
p1691
I9574
sS'TGAAAT'
p1692
I9661
sS'TTCTAG'
p1693
I6921
sS'TTCTAA'
p1694
I7192
sS'ATCCGT'
p1695
I2062
sS'TTCTAC'
p1696
I5091
sS'GAATGT'
p1697
I8023
sS'TGAAAC'
p1698
I8062
sS'TGAAAG'
p1699
I11943
sS'TTCTAT'
p1700
I4919
sS'ATCCGC'
p1701
I4175
sS'ATCCGA'
p1702
I2241
sS'ATCCGG'
p1703
I4205
sS'TGGCTC'
p1704
I18676
sS'TGGCTA'
p1705
I6326
sS'TGGCTG'
p1706
I24529
sS'GTCGGA'
p1707
I3654
sS'AGTTGT'
p1708
I5676
sS'AGCTAT'
p1709
I4144
sS'ATTAGT'
p1710
I3010
sS'GTCGGC'
p1711
I5917
sS'CGTCGA'
p1712
I1430
sS'TGGCTT'
p1713
I14330
sS'AGTTGG'
p1714
I8399
sS'AGCTAA'
p1715
I5922
sS'AGCTAC'
p1716
I5979
sS'AGTTGC'
p1717
I6700
sS'AGTTGA'
p1718
I5435
sS'AGCTAG'
p1719
I6324
sS'CGTTGA'
p1720
I1962
sS'CTAATT'
p1721
I5530
sS'CAGTGT'
p1722
I10250
sS'AGTCAG'
p1723
I12066
sS'TCAGGT'
p1724
I10071
sS'TCAAGG'
p1725
I9445
sS'GTCGGG'
p1726
I8398
sS'TCAAGC'
p1727
I7243
sS'TCAAGA'
p1728
I7293
sS'CTAATA'
p1729
I2899
sS'CAGTGC'
p1730
I13637
sS'CTAATC'
p1731
I3728
sS'CAGTGA'
p1732
I13302
sS'CAGTGG'
p1733
I16934
sS'CTAATG'
p1734
I4611
sS'TCAAGT'
p1735
I6511
sS'CATGGC'
p1736
I10649
sS'GAGCCC'
p1737
I24760
sS'TCAGGC'
p1738
I15645
sS'CGAGCT'
p1739
I6659
sS'CGTTGG'
p1740
I3850
sS'AGTCAA'
p1741
I5856
sS'TTCCCT'
p1742
I22382
sS'CGAGCG'
p1743
I7887
sS'GTTAGT'
p1744
I3105
sS'CGAGCA'
p1745
I5285
sS'GAGCCG'
p1746
I15836
sS'CGAGCC'
p1747
I10338
sS'TTCCCA'
p1748
I19862
sS'TTCCCC'
p1749
I23226
sS'GTTCAC'
p1750
I5551
sS'TTCCCG'
p1751
I10939
sS'GATCAC'
p1752
I5341
sS'GGACCT'
p1753
I11136
sS'TACATG'
p1754
I3796
sS'AAGTAC'
p1755
I3791
sS'CACACT'
p1756
I10368
sS'TACATC'
p1757
I3322
sS'AAGTAG'
p1758
I5495
sS'TACATA'
p1759
I3258
sS'CATGGT'
p1760
I6659
sS'GGACCG'
p1761
I7671
sS'ATTGGT'
p1762
I4625
sS'GGACCA'
p1763
I9852
sS'TCATCA'
p1764
I6853
sS'GGACCC'
p1765
I16976
sS'CACACG'
p1766
I6406
sS'TACATT'
p1767
I5007
sS'CACACC'
p1768
I13530
sS'CTGCAT'
p1769
I11495
sS'AAGTAT'
p1770
I3619
sS'TCTGCC'
p1771
I20661
sS'TCTGCA'
p1772
I17374
sS'TCTGCG'
p1773
I8679
sS'TGCCCC'
p1774
I22690
sS'CCCGTC'
p1775
I8678
sS'TTAAGG'
p1776
I6505
sS'CCCGTA'
p1777
I2351
sS'TTAAGA'
p1778
I6432
sS'CCCGTG'
p1779
I7957
sS'TTAAGC'
p1780
I4935
sS'ACGCAC'
p1781
I4467
sS'TAGATC'
p1782
I2644
sS'TGTCAA'
p1783
I5450
sS'TAGATA'
p1784
I2647
sS'TGCCCA'
p1785
I17376
sS'TAGATG'
p1786
I4424
sS'TCTGCT'
p1787
I17673
sS'TTACGC'
p1788
I1412
sS'TTAAGT'
p1789
I5346
sS'TTACGA'
p1790
I1118
sS'TTACGG'
p1791
I1654
sS'CCCGTT'
p1792
I4415
sS'AGTGAC'
p1793
I9018
sS'AGTGAA'
p1794
I9156
sS'GCTAGT'
p1795
I3606
sS'AGTGAG'
p1796
I14166
sS'GCGGTC'
p1797
I6726
sS'CGGGCG'
p1798
I20350
sS'AAACAC'
p1799
I9890
sS'TAAGAG'
p1800
I6669
sS'CGGGCC'
p1801
I21104
sS'GAAAGT'
p1802
I9095
sS'CGGGCA'
p1803
I11139
sS'TAAGAC'
p1804
I3917
sS'ATTTAT'
p1805
I6840
sS'AGTGAT'
p1806
I6339
sS'TAAGAT'
p1807
I3853
sS'CCTGAA'
p1808
I13641
sS'CCTGAC'
p1809
I13756
sS'CCTGAG'
p1810
I23051
sS'GTTAGG'
p1811
I5410
sS'GCCAAC'
p1812
I7744
sS'TATACT'
p1813
I2063
sS'GTTAGC'
p1814
I3861
sS'GTTAGA'
p1815
I4131
sS'ACCCCC'
p1816
I17867
sS'TATACG'
p1817
I619
sS'GGTAGC'
p1818
I5801
sS'TATACC'
p1819
I1865
sS'TATACA'
p1820
I2779
sS'ATTGGC'
p1821
I7136
sS'CGTATA'
p1822
I658
sS'TCTTGT'
p1823
I7890
sS'ACTAGT'
p1824
I2506
sS'TTTATT'
p1825
I11529
sS'GTAATA'
p1826
I2535
sS'AACGCA'
p1827
I3348
sS'GTAATC'
p1828
I3932
sS'TCTAAC'
p1829
I4199
sS'CGTTCT'
p1830
I3924
sS'CCACCG'
p1831
I11168
sS'GGTAGG'
p1832
I9097
sS'TCTAAG'
p1833
I5906
sS'CCACCC'
p1834
I30639
sS'GTTCGT'
p1835
I1778
sS'TTTATG'
p1836
I5516
sS'ACTAGG'
p1837
I5427
sS'GTAACG'
p1838
I1566
sS'TTTATC'
p1839
I5350
sS'ACTAGC'
p1840
I3744
sS'TTTATA'
p1841
I5013
sS'ACTAGA'
p1842
I4584
sS'CCACCT'
p1843
I22835
sS'CGTTCG'
p1844
I1923
sS'ACTTGT'
p1845
I5530
sS'CGTTCA'
p1846
I2664
sS'CGTTCC'
p1847
I5446
sS'TCTAAT'
p1848
I4288
sS'CTTTGT'
p1849
I13133
sS'ATTTAA'
p1850
I8027
sS'ACTGGA'
p1851
I10180
sS'ACTGGC'
p1852
I11042
sS'TAGTCC'
p1853
I4388
sS'GTGACC'
p1854
I9768
sS'TAGTCA'
p1855
I3920
sS'GTGACA'
p1856
I8594
sS'TAGTCG'
p1857
I1253
sS'GTGACG'
p1858
I4706
sS'TGTCAT'
p1859
I6745
sS'ACTGGT'
p1860
I6124
sS'CTTTGG'
p1861
I14180
sS'CCTATG'
p1862
I4216
sS'CTTTGC'
p1863
I13247
sS'ACGTGC'
p1864
I4755
sS'GTGACT'
p1865
I9625
sS'TAGTCT'
p1866
I3973
sS'GTGCAC'
p1867
I7669
sS'CGACGG'
p1868
I4084
sS'ACCTAG'
p1869
I5606
sS'CGACGA'
p1870
I1910
sS'ACCTAA'
p1871
I4381
sS'CGACGC'
p1872
I4383
sS'ACCTAC'
p1873
I4739
sS'CCGCAG'
p1874
I18347
sS'CCGCAA'
p1875
I4660
sS'ATTGTG'
p1876
I5826
sS'CCGCAC'
p1877
I9410
sS'ACGTGG'
p1878
I6615
sS'ACCTAT'
p1879
I2808
sS'CGACGT'
p1880
I1879
sS'CGAAGA'
p1881
I4010
sS'CCCCGT'
p1882
I8685
sS'CGAAGG'
p1883
I6523
sS'GCGCTC'
p1884
I14629
sS'GTGCAT'
p1885
I5886
sS'GCGCTA'
p1886
I3213
sS'CCGCAT'
p1887
I4038
sS'GTTCGC'
p1888
I3138
sS'GAAGAT'
p1889
I6880
sS'GGATCT'
p1890
I7579
sS'TCGGAA'
p1891
I3802
sS'TCGGAC'
p1892
I3251
sS'GAATCT'
p1893
I7204
sS'TCGGAG'
p1894
I7327
sS'GGATCG'
p1895
I3185
sS'GAAGAG'
p1896
I18686
sS'GGTATA'
p1897
I1779
sS'GAAGAA'
p1898
I14461
sS'GGATCC'
p1899
I9955
sS'GAAGAC'
p1900
I9298
sS'GGATCA'
p1901
I6265
sS'GAATCA'
p1902
I6636
sS'GAATCC'
p1903
I8173
sS'TCGGAT'
p1904
I2306
sS'GAATCG'
p1905
I2624
sS'ATGGTC'
p1906
I4289
sS'CAGATG'
p1907
I12430
sS'ACGCCG'
p1908
I5881
sS'TGACCC'
p1909
I10699
sS'ACGCCA'
p1910
I4835
sS'CAGATC'
p1911
I8183
sS'ACGCCC'
p1912
I9738
sS'CAGATA'
p1913
I5316
sS'TAGACT'
p1914
I3616
sS'ACGCCT'
p1915
I6215
sS'CAGATT'
p1916
I8006
sS'TGATTA'
p1917
I4099
sS'CTCGAC'
p1918
I3018
sS'ATGGTT'
p1919
I4682
sS'TCGCAA'
p1920
I2023
sS'GCTATT'
p1921
I4689
sS'TGCGTC'
p1922
I4891
sS'AATGGT'
p1923
I5095
sS'GAGGTG'
p1924
I19678
sS'GTTACG'
p1925
I1232
sS'GGGACG'
p1926
I11310
sS'AATGGC'
p1927
I8255
sS'AATGGA'
p1928
I9330
sS'AATGGG'
p1929
I10704
sS'CACTCT'
p1930
I11207
sS'AATAGA'
p1931
I5115
sS'TGCACA'
p1932
I10390
sS'AATAGC'
p1933
I4609
sS'ATTTAC'
p1934
I5543
sS'CGTTAG'
p1935
I1859
sS'AGCCAG'
p1936
I25056
sS'GGAGGG'
p1937
I50054
sS'AAAAGT'
p1938
I9064
sS'GGAGGA'
p1939
I35699
sS'GGAGGC'
p1940
I36097
sS'TGGTAG'
p1941
I5606
sS'CATTCC'
p1942
I13530
sS'GAGTGT'
p1943
I7843
sS'TGGTAC'
p1944
I3350
sS'GAGGTA'
p1945
I6086
sS'TGGTAA'
p1946
I5254
sS'AAAAGG'
p1947
I15250
sS'GGAGGT'
p1948
I17954
sS'AGCCAT'
p1949
I8827
sS'AAAAGC'
p1950
I12579
sS'AAAAGA'
p1951
I15748
sS'TTGACT'
p1952
I5795
sS'GAGTGG'
p1953
I14614
sS'CGCCAG'
p1954
I13738
sS'TGGTAT'
p1955
I3664
sS'CGCCAA'
p1956
I5179
sS'GAGTGC'
p1957
I10082
sS'CGCCAC'
p1958
I11167
sS'GAGTGA'
p1959
I10782
sS'GCCAGG'
p1960
I33586
sS'GCCAGA'
p1961
I16353
sS'CTCGTG'
p1962
I4552
sS'GCCAGC'
p1963
I24477
sS'GCCCGT'
p1964
I6243
sS'CAATCC'
p1965
I6363
sS'TACCGA'
p1966
I1535
sS'TACCGC'
p1967
I2822
sS'CTTCAT'
p1968
I8034
sS'GCCCGC'
p1969
I24854
sS'GCCAGT'
p1970
I11097
sS'GCCCGA'
p1971
I8814
sS'GCCCGG'
p1972
I27132
sS'TGCGAT'
p1973
I2204
sS'CTTCAC'
p1974
I10258
sS'CTTCAA'
p1975
I8007
sS'CTTCAG'
p1976
I15356
sS'TCCGAG'
p1977
I7570
sS'TCCGAA'
p1978
I3420
sS'TCCGAC'
p1979
I3531
sS'AATTCA'
p1980
I7672
sS'AATTCC'
p1981
I9798
sS'ATTAGG'
p1982
I4522
sS'AATTCG'
p1983
I1961
sS'TCCGAT'
p1984
I1881
sS'NNNGAT'
p1985
I1
sS'TAGCGG'
p1986
I3525
sS'AATTCT'
p1987
I8406
sS'TAGCGC'
p1988
I3151
sS'GTCATC'
p1989
I5970
sS'GTCATA'
p1990
I2708
sS'GTCATG'
p1991
I5548
sS'AGCAGG'
p1992
I26547
sS'CCAGGT'
p1993
I18886
sS'TTGGAA'
p1994
I11036
sS'TTGGAG'
p1995
I13410
sS'AGCAGA'
p1996
I17329
sS'GGATGC'
p1997
I9970
sS'CCAGGG'
p1998
I34251
sS'AGCAGT'
p1999
I10983
sS'CCAGGA'
p2000
I28201
sS'CCAGGC'
p2001
I37034
sS'TTGGAT'
p2002
I5495
sS'ATAGAG'
p2003
I4693
sS'CATCTG'
p2004
I12448
sS'GATCGG'
p2005
I2643
sS'CATCTA'
p2006
I4563
sS'GATCGA'
p2007
I1460
sS'CATCTC'
p2008
I11869
sS'GATCGC'
p2009
I3193
sS'ATTAGA'
p2010
I4375
sS'GGATGG'
p2011
I14428
sS'CAAGCC'
p2012
I13029
sS'CATCTT'
p2013
I9105
sS'CAAGCA'
p2014
I10148
sS'CAAGCG'
p2015
I5346
sS'ACTCGA'
p2016
I2322
sS'GTTCTT'
p2017
I8171
sS'ACATGA'
p2018
I5339
sS'CGTAAT'
p2019
I1103
sS'ACATGC'
p2020
I6398
sS'ACATGG'
p2021
I7534
sS'CCCGCT'
p2022
I14580
sS'GTAAAC'
p2023
I4738
sS'TGGCGG'
p2024
I14277
sS'CGTAAG'
p2025
I1699
sS'GTTCTG'
p2026
I10795
sS'ACATGT'
p2027
I4979
sS'CGTAAC'
p2028
I1287
sS'CGTAAA'
p2029
I1762
sS'CCCGCG'
p2030
I21218
sS'CCCGCC'
p2031
I43865
sS'AGACGC'
p2032
I6557
sS'CCCGCA'
p2033
I13277
sS'GAGTCG'
p2034
I4703
sS'TGTTGT'
p2035
I7260
sS'GTTGTT'
p2036
I6463
sS'TTCTNC'
p2037
I1
sS'ATCCTT'
p2038
I7446
sS'TTGTCG'
p2039
I2067
sS'TTGTCC'
p2040
I8328
sS'CCGTGA'
p2041
I4667
sS'TTGTCA'
p2042
I7113
sS'ATCCTC'
p2043
I9690
sS'GTTGTA'
p2044
I3171
sS'ATCCTA'
p2045
I4338
sS'GTTGTC'
p2046
I4915
sS'ATCCTG'
p2047
I11335
sS'GTTGTG'
p2048
I6658
sS'TTGTCT'
p2049
I9403
sS'CTATGC'
p2050
I3721
sS'TGACTA'
p2051
I3845
sS'TGGGCC'
p2052
I20612
sS'TGACTC'
p2053
I11226
sS'TGGGCA'
p2054
I17442
sS'TGGGCG'
p2055
I14546
sS'TGACTG'
p2056
I9825
sS'AAGCCG'
p2057
I7701
sS'AAGCCC'
p2058
I16440
sS'AAGCCA'
p2059
I14319
sS'CAAAAT'
p2060
I8402
sS'ACGCGG'
p2061
I6597
sS'TGGGCT'
p2062
I20284
sS'CAAAAC'
p2063
I9837
sS'CAAAAA'
p2064
I11870
sS'AAGCCT'
p2065
I13225
sS'CAAAAG'
p2066
I11832
sS'TCAATG'
p2067
I4811
sS'AAACTT'
p2068
I8152
sS'TCAATC'
p2069
I3931
sS'TCAATA'
p2070
I3418
sS'CAGTTC'
p2071
I10222
sS'GACCCG'
p2072
I9375
sS'GACCCA'
p2073
I11325
sS'GACCCC'
p2074
I16516
sS'CTCTGT'
p2075
I17108
sS'TCAATT'
p2076
I4614
sS'GGCCAG'
p2077
I28933
sS'CTCTGC'
p2078
I28169
sS'GACCCT'
p2079
I12114
sS'CTCTGA'
p2080
I16412
sS'ACAATC'
p2081
I4023
sS'CTCTGG'
p2082
I25878
sS'CAGTTT'
p2083
I11208
sS'GCGAAG'
p2084
I6522
sS'ACGTTC'
p2085
I2561
sS'TGCTGG'
p2086
I24518
sS'CGAGGT'
p2087
I5990
sS'TGCTGA'
p2088
I14544
sS'GAGTCT'
p2089
I9647
sS'TGCTGC'
p2090
I22878
sS'TAGGGA'
p2091
I8571
sS'GCTGGT'
p2092
I14511
sS'GTGATT'
p2093
I6655
sS'ACGTTA'
p2094
I1417
sS'TGCTGT'
p2095
I14515
sS'TAGGGC'
p2096
I7439
sS'TAATGG'
p2097
I4528
sS'GTGATG'
p2098
I7774
sS'CTACTG'
p2099
I6796
sS'GTGATC'
p2100
I5482
sS'GCTGGC'
p2101
I24683
sS'GTGATA'
p2102
I3074
sS'GCTGGA'
p2103
I22568
sS'TGATAA'
p2104
I4200
sS'TGTAGT'
p2105
I4916
sS'TGATAC'
p2106
I2490
sS'TGATAG'
p2107
I3225
sS'CTTGTT'
p2108
I8535
sS'GACGGT'
p2109
I3344
sS'GCTAGG'
p2110
I8428
sS'GCTAGA'
p2111
I5759
sS'ATGAAT'
p2112
I6591
sS'GCTAGC'
p2113
I5203
sS'ATAGGG'
p2114
I4670
sS'TGATAT'
p2115
I2881
sS'GAGGTT'
p2116
I9370
sS'TCTTGG'
p2117
I12300
sS'ATGAAC'
p2118
I4449
sS'GACGGG'
p2119
I8549
sS'ATGAAA'
p2120
I9089
sS'GACGGA'
p2121
I5189
sS'CTTGTA'
p2122
I4521
sS'GACGGC'
p2123
I7283
sS'CTTGTC'
p2124
I8307
sS'TGTGCA'
p2125
I10443
sS'CAAAGA'
p2126
I12404
sS'CCATAG'
p2127
I4407
sS'GGTGAA'
p2128
I9428
sS'GGTGAC'
p2129
I10645
sS'GCGTCT'
p2130
I6765
sS'TGTAAA'
p2131
I8381
sS'GGTGAG'
p2132
I18223
sS'GGAATG'
p2133
I13606
sS'CGTCCT'
p2134
I7442
sS'GGAATC'
p2135
I8780
sS'GGAATA'
p2136
I5084
sS'GCGTCA'
p2137
I4199
sS'GTTATG'
p2138
I3121
sS'GCGTCC'
p2139
I10520
sS'GGTGAT'
p2140
I6899
sS'GCGTCG'
p2141
I4601
sS'CGTCCG'
p2142
I5160
sS'GGAATT'
p2143
I9873
sS'CGTCCC'
p2144
I11390
sS'CGTCCA'
p2145
I4815
sS'TTTCGA'
p2146
I1891
sS'CCGTAT'
p2147
I1211
sS'GAAGTC'
p2148
I8804
sS'ACGTTT'
p2149
I3193
sS'GCCGTC'
p2150
I7216
sS'GCCGTA'
p2151
I2061
sS'CCGTAC'
p2152
I1708
sS'CCGTAA'
p2153
I1803
sS'CCGTAG'
p2154
I2798
sS'CAAAGT'
p2155
I9124
sS'GCCGTT'
p2156
I3781
sS'TTGGTG'
p2157
I8853
sS'GAAGTT'
p2158
I7994
sS'GGCGCG'
p2159
I22002
sS'ATGCCC'
p2160
I9034
sS'TTAGTT'
p2161
I4413
sS'TATTAG'
p2162
I2718
sS'GGCGCC'
p2163
I24473
sS'TATTAA'
p2164
I4221
sS'GGCGCA'
p2165
I11302
sS'TATTAC'
p2166
I2400
sS'ACTATG'
p2167
I2983
sS'CAACGG'
p2168
I3244
sS'TTTAAG'
p2169
I7849
sS'ACTATC'
p2170
I2247
sS'TTTAAA'
p2171
I14514
sS'ACTATA'
p2172
I1867
sS'AGAGTG'
p2173
I11102
sS'TATTAT'
p2174
I3946
sS'TTAGTG'
p2175
I4441
sS'GGCGCT'
p2176
I15134
sS'TTAGTC'
p2177
I3617
sS'ATGCCT'
p2178
I9089
sS'TTAGTA'
p2179
I3061
sS'TTTAAT'
p2180
I7270
sS'ATGTGC'
p2181
I6541
sS'ACTATT'
p2182
I3330
sS'TTTTGA'
p2183
I8879
sS'GCCGAT'
p2184
I2603
sS'GGGCAT'
p2185
I8919
sS'TTTCCG'
p2186
I5898
sS'TTTCCA'
p2187
I15348
sS'TTTCCC'
p2188
I21076
sS'GTACGT'
p2189
I1251
sS'GTTTGT'
p2190
I8337
sS'TTTCCT'
p2191
I23066
sS'GGGCAG'
p2192
I35654
sS'GTCTGT'
p2193
I9604
sS'GGGCAA'
p2194
I11738
sS'GGGCAC'
p2195
I15325
sS'GTTTGC'
p2196
I8373
sS'GTTTGA'
p2197
I6483
sS'GTACGC'
p2198
I1486
sS'GTACGA'
p2199
I921
sS'CCGCTC'
p2200
I14900
sS'GCATGT'
p2201
I6285
sS'CCGCTA'
p2202
I3392
sS'CCGCTG'
p2203
I16045
sS'TGAAAA'
p2204
I12560
sS'GCGCGG'
p2205
I24149
sS'GCGCGC'
p2206
I24163
sS'GCGCGA'
p2207
I6401
sS'GCATGG'
p2208
I8869
sS'GCATGC'
p2209
I8279
sS'CCGCTT'
p2210
I7615
sS'GCATGA'
p2211
I6362
sS'GTCGAC'
p2212
I1498
sS'GCGCGT'
p2213
I6519
sS'GTCGAG'
p2214
I3094
sS'CGTGGC'
p2215
I9625
sS'GAGCTA'
p2216
I6325
sS'TGCGCT'
p2217
I7296
sS'GAGCTC'
p2218
I16344
sS'ATTGAT'
p2219
I3519
sS'GAGCTG'
p2220
I25269
sS'AAACGA'
p2221
I3087
sS'AAACGC'
p2222
I4596
sS'GTAGTA'
p2223
I2203
sS'AAACGG'
p2224
I4339
sS'TGTCCC'
p2225
I15365
sS'TGCGCG'
p2226
I9323
sS'TGTCCA'
p2227
I8700
sS'GAGGGA'
p2228
I29650
sS'GAGCTT'
p2229
I10546
sS'TGCGCC'
p2230
I11333
sS'ATTGAG'
p2231
I5224
sS'CGCTGA'
p2232
I7357
sS'GTAGTG'
p2233
I4099
sS'AAACGT'
p2234
I3234
sS'ATTTCG'
p2235
I2041
sS'ATTTCA'
p2236
I9607
sS'ATTTCC'
p2237
I12252
sS'ATCAGT'
p2238
I4869
sS'ATCGGG'
p2239
I2972
sS'CATAGT'
p2240
I3046
sS'AAATCA'
p2241
I8734
sS'ATCGGC'
p2242
I2505
sS'CCGTGT'
p2243
I4918
sS'ATCGGA'
p2244
I2032
sS'ATTTCT'
p2245
I11380
sS'CGATCA'
p2246
I1587
sS'TGGGTC'
p2247
I11503
sS'TGGGTA'
p2248
I6142
sS'CATAGG'
p2249
I4352
sS'ATCGGT'
p2250
I1368
sS'ATCAGG'
p2251
I8058
sS'CATAGC'
p2252
I4233
sS'ATCAGC'
p2253
I7962
sS'ACGGGT'
p2254
I3010
sS'CCTGGT'
p2255
I16012
sS'GATTCT'
p2256
I7641
sS'CTTTTG'
p2257
I11589
sS'TACTAG'
p2258
I2355
sS'CTTTTC'
p2259
I16641
sS'CTTTTA'
p2260
I8726
sS'GATTCC'
p2261
I8663
sS'ACGGGG'
p2262
I8474
sS'ACGGGA'
p2263
I5326
sS'ACGGGC'
p2264
I6214
sS'TACTAT'
p2265
I2131
sS'CTTTTT'
p2266
I15488
sS'TCACGA'
p2267
I2272
sS'TCACGC'
p2268
I5136
sS'CGATTG'
p2269
I1967
sS'TCACGG'
p2270
I4640
sS'TCACGT'
p2271
I4098
sS'TTCCAC'
p2272
I10964
sS'TTCCAA'
p2273
I10867
sS'TTCCAG'
p2274
I19667
sS'ACCCTT'
p2275
I8734
sS'TGAAGT'
p2276
I7868
sS'CCACAT'
p2277
I8981
sS'TTCCAT'
p2278
I9537
sS'ACCCTA'
p2279
I5221
sS'ACCCTC'
p2280
I14420
sS'TGAAGG'
p2281
I12960
sS'ACCCTG'
p2282
I16271
sS'CTGACT'
p2283
I11720
sS'GGAAGA'
p2284
I20145
sS'CCCCTT'
p2285
I20003
sS'AGTTAT'
p2286
I3415
sS'CTGACG'
p2287
I5019
sS'CTGACC'
p2288
I13442
sS'TCCTCT'
p2289
I22041
sS'AGTTAA'
p2290
I5539
sS'CCCCTG'
p2291
I27910
sS'AGTTAC'
p2292
I4332
sS'CCCCTC'
p2293
I37882
sS'AGTTAG'
p2294
I4768
sS'CCCCTA'
p2295
I9763
sS'ACACAG'
p2296
I14582
sS'CAATGC'
p2297
I5891
sS'ACACAA'
p2298
I8182
sS'ACACAC'
p2299
I19625
sS'AATGTT'
p2300
I6573
sS'CTGCAG'
p2301
I35710
sS'CATGGG'
p2302
I10023
sS'CTGCAC'
p2303
I15710
sS'GCACAT'
p2304
I6636
sS'AATGTC'
p2305
I5974
sS'ACACAT'
p2306
I6813
sS'AATGTA'
p2307
I5005
sS'AATGTG'
p2308
I8533
sS'GCACAC'
p2309
I10948
sS'GCACAA'
p2310
I7171
sS'GCACAG'
p2311
I16720
sS'CGATTC'
p2312
I2641
sS'ACATTT'
p2313
I9693
sS'ATGTTC'
p2314
I4811
sS'CGAGAT'
p2315
I3084
sS'ATTACT'
p2316
I3903
sS'ACATTG'
p2317
I4866
sS'GTACCA'
p2318
I3349
sS'ACATTA'
p2319
I3875
sS'ACATTC'
p2320
I8004
sS'CGAGAG'
p2321
I7817
sS'ATGCTC'
p2322
I6853
sS'ATTACC'
p2323
I3687
sS'CGAGAC'
p2324
I5066
sS'CGAGAA'
p2325
I4937
sS'AAGTCT'
p2326
I7760
sS'ATGCTA'
p2327
I4163
sS'GGACAT'
p2328
I5921
sS'CAGCGT'
p2329
I6751
sS'GCTATA'
p2330
I2143
sS'GCTATC'
p2331
I2802
sS'AAGTCG'
p2332
I3178
sS'AAGTCA'
p2333
I8829
sS'GCTATG'
p2334
I4241
sS'AAGTCC'
p2335
I9169
sS'GGACAG'
p2336
I17353
sS'GGACAC'
p2337
I10747
sS'GGACAA'
p2338
I8298
sS'GCACCT'
p2339
I13014
sS'AGGGTT'
p2340
I9625
sS'GAGGCG'
p2341
I20928
sS'TGTTGG'
p2342
I9138
sS'GAGGCA'
p2343
I19539
sS'AGCGCT'
p2344
I8708
sS'GAGGCC'
p2345
I26845
sS'TGTTGC'
p2346
I7884
sS'CAATGT'
p2347
I4681
sS'TAAAAT'
p2348
I9181
sS'ACTCGC'
p2349
I4785
sS'ACTCGG'
p2350
I6065
sS'AGCGCA'
p2351
I7296
sS'GAGGCT'
p2352
I22619
sS'AGCGCC'
p2353
I15476
sS'AGGGTG'
p2354
I17295
sS'AGGGTA'
p2355
I5919
sS'AGCGCG'
p2356
I11292
sS'AGGGTC'
p2357
I11984
sS'TAAAAG'
p2358
I8735
sS'ACTCGT'
p2359
I1958
sS'TAAAAC'
p2360
I6715
sS'TAAAAA'
p2361
I11966
sS'CTACTC'
p2362
I6047
sS'AGCTGC'
p2363
I23852
sS'CTACTA'
p2364
I2956
sS'AGCTGA'
p2365
I14470
sS'ACGTTG'
p2366
I2454
sS'AGCTGG'
p2367
I25273
sS'TAGGGG'
p2368
I9717
sS'TAAATG'
p2369
I7367
sS'AGTGCG'
p2370
I5369
sS'AGTGCA'
p2371
I9416
sS'AGAGTT'
p2372
I8351
sS'AGTGCC'
p2373
I11361
sS'CCAAAA'
p2374
I9984
sS'TTCGTG'
p2375
I2915
sS'TAGGGT'
p2376
I5240
sS'GCATAG'
p2377
I3781
sS'AGCTGT'
p2378
I13506
sS'CTACTT'
p2379
I5504
sS'AGTGCT'
p2380
I10950
sS'CGTTAC'
p2381
I1591
sS'AGAGTA'
p2382
I4745
sS'CCAAAC'
p2383
I9772
sS'TTCGTA'
p2384
I1200
sS'GTTAAA'
p2385
I5635
sS'CCTGGC'
p2386
I33485
sS'GTTAAC'
p2387
I3463
sS'CCTGGA'
p2388
I25658
sS'CCTGGG'
p2389
I42888
sS'GTTAAG'
p2390
I4803
sS'TAACCA'
p2391
I4883
sS'GCACCC'
p2392
I14905
sS'GTCTGG'
p2393
I14058
sS'GTCTGC'
p2394
I11617
sS'GTTAAT'
p2395
I4045
sS'GTCTGA'
p2396
I8757
sS'GCGGNC'
p2397
I1
sS'GGAAGG'
p2398
I31293
sS'ATGCTT'
p2399
I6580
sS'GGAAGC'
p2400
I21500
sS'GCACCG'
p2401
I8744
sS'TGTCAG'
p2402
I10537
sS'TGTATT'
p2403
I5927
sS'CAATGA'
p2404
I6621
sS'GCGTTC'
p2405
I4570
sS'CCGGTA'
p2406
I2564
sS'GCGTTG'
p2407
I3919
sS'CAATGG'
p2408
I7614
sS'CCACAG'
p2409
I20812
sS'GGAAGT'
p2410
I13804
sS'CCACAC'
p2411
I14211
sS'CCACAA'
p2412
I9617
sS'ATTTGT'
p2413
I7340
sS'TCCTCG'
p2414
I8964
sS'TGTATG'
p2415
I4247
sS'TCCTCA'
p2416
I15818
sS'GCGTTT'
p2417
I4480
sS'TCCTCC'
p2418
I35954
sS'TGTATC'
p2419
I3285
sS'GTGAAT'
p2420
I6239
sS'TAACCG'
p2421
I1716
sS'TCATAG'
p2422
I3616
sS'TCAGGG'
p2423
I18025
sS'TCATAA'
p2424
I3548
sS'TAACCC'
p2425
I5395
sS'TCATAC'
p2426
I2602
sS'TTCGTC'
p2427
I2411
sS'ACCGCT'
p2428
I4794
sS'TCGCGA'
p2429
I2575
sS'TGCATG'
p2430
I8454
sS'TCAGGA'
p2431
I15230
sS'TTCGTT'
p2432
I2537
sS'GCCACA'
p2433
I14742
sS'TAACCT'
p2434
I5130
sS'GTGAAG'
p2435
I10421
sS'GTGAAA'
p2436
I9454
sS'GTGAAC'
p2437
I5562
sS'TGCATA'
p2438
I4947
sS'ACCGCG'
p2439
I7090
sS'ACCGCA'
p2440
I5013
sS'AACGAG'
p2441
I3163
sS'ACCGCC'
p2442
I9929
sS'CCGCCT'
p2443
I21210
sS'AGGCTT'
p2444
I13107
sS'CCTTCT'
p2445
I19622
sS'GTTGCA'
p2446
I6357
sS'AACGAA'
p2447
I2552
sS'GTTGCC'
p2448
I8375
sS'GTGCCG'
p2449
I6858
sS'GTGCCA'
p2450
I10040
sS'GTTGCG'
p2451
I3059
sS'GTGCCC'
p2452
I15385
sS'CCGCCG'
p2453
I25964
sS'AGGCTA'
p2454
I6230
sS'CCTTCC'
p2455
I31358
sS'AGGCTC'
p2456
I18008
sS'CCGCCC'
p2457
I42543
sS'TGTCGA'
p2458
I1485
sS'CCTTCG'
p2459
I6563
sS'AGGCTG'
p2460
I29805
sS'GTGCCT'
p2461
I13020
sS'CAGCGA'
p2462
I7800
sS'GTTGCT'
p2463
I8279
sS'GGATAT'
p2464
I3167
sS'TCGGGT'
p2465
I4575
sS'ATTTGA'
p2466
I6821
sS'GCAGTT'
p2467
I9687
sS'GAAGCT'
p2468
I13242
sS'GGATAA'
p2469
I4351
sS'ATGCCA'
p2470
I7933
sS'GGATAC'
p2471
I3201
sS'NNNNNG'
p2472
I2
sS'TCGGGG'
p2473
I11407
sS'GGATAG'
p2474
I4057
sS'GAAGCG'
p2475
I8713
sS'GCAGTG'
p2476
I17721
sS'GAAGCC'
p2477
I18142
sS'GCAGTA'
p2478
I5660
sS'GAAGCA'
p2479
I13455
sS'GCAGTC'
p2480
I10497
sS'CGCCCG'
p2481
I20355
sS'GAGAGA'
p2482
I22805
sS'GTTCAT'
p2483
I4432
sS'CGCCCC'
p2484
I37171
sS'CGCCCA'
p2485
I14843
sS'AGTTTG'
p2486
I8662
sS'CTATAG'
p2487
I2451
sS'NNNNNN'
p2488
I675
sS'CTATAC'
p2489
I1759
sS'ACGCAA'
p2490
I2357
sS'CTCGCA'
p2491
I5844
sS'CGCCCT'
p2492
I17077
sS'CTCGCG'
p2493
I8560
sS'GTCTCG'
p2494
I5229
sS'CTATAT'
p2495
I2028
sS'AGTTTC'
p2496
I10196
sS'GCCGGG'
p2497
I29499
sS'TACCCG'
p2498
I3152
sS'GCCGGC'
p2499
I21486
sS'CATGTT'
p2500
I6201
sS'GCCGGA'
p2501
I10832
sS'AGAAAC'
p2502
I12734
sS'AACTGC'
p2503
I9529
sS'GCCACT'
p2504
I13155
sS'CATGTA'
p2505
I3765
sS'CATGTC'
p2506
I5723
sS'GCCGGT'
p2507
I7040
sS'GAGATT'
p2508
I7166
sS'CATGTG'
p2509
I8571
sS'GTACTC'
p2510
I3186
sS'GGCCTG'
p2511
I29287
sS'GGCCTC'
p2512
I27313
sS'GGCCTA'
p2513
I6577
sS'TTTGTT'
p2514
I14861
sS'AATCGG'
p2515
I2408
sS'AATCGC'
p2516
I2673
sS'AATCGA'
p2517
I1509
sS'GTTCAG'
p2518
I8399
sS'GGCCTT'
p2519
I14777
sS'TCACTA'
p2520
I4341
sS'TCACTC'
p2521
I10358
sS'AATCGT'
p2522
I1436
sS'TGGATT'
p2523
I7267
sS'AGCCGA'
p2524
I6867
sS'GAGCGT'
p2525
I4662
sS'AGCCGC'
p2526
I15946
sS'TAATTG'
p2527
I4420
sS'AAAAAT'
p2528
I13113
sS'AGCCGG'
p2529
I15347
sS'GTTTTT'
p2530
I11162
sS'TGGTGA'
p2531
I10873
sS'TCTCAT'
p2532
I8122
sS'TGGTGC'
p2533
I11217
sS'GATGGC'
p2534
I9770
sS'GGGCTG'
p2535
I37569
sS'TGGTGG'
p2536
I18055
sS'GATGGG'
p2537
I13921
sS'AAAAAA'
p2538
I39016
sS'AAAAAC'
p2539
I11186
sS'GGGCTC'
p2540
I24921
sS'GAGCGA'
p2541
I7403
sS'AGCCGT'
p2542
I4639
sS'AAAAAG'
p2543
I15415
sS'ATCACA'
p2544
I7097
sS'CCAAGG'
p2545
I17637
sS'ACGTAT'
p2546
I1015
sS'TCTCAG'
p2547
I17139
sS'CCAAGC'
p2548
I13942
sS'TGGTGT'
p2549
I8720
sS'CCAAGA'
p2550
I12025
sS'ATTCGT'
p2551
I1514
sS'AGAACT'
p2552
I8972
sS'CCGCCA'
p2553
I14100
sS'TACCAT'
p2554
I3302
sS'GTATCC'
p2555
I3173
sS'CCTATT'
p2556
I5004
sS'CACTGT'
p2557
I10264
sS'ACCCGA'
p2558
I4468
sS'ATGTCT'
p2559
I6284
sS'ACCCGC'
p2560
I10179
sS'ACCAGT'
p2561
I6128
sS'TACCAC'
p2562
I4398
sS'AGAACG'
p2563
I3937
sS'TACCAA'
p2564
I3843
sS'ATTGCC'
p2565
I5479
sS'TACCAG'
p2566
I5838
sS'AGAACC'
p2567
I9355
sS'ACCAGC'
p2568
I14220
sS'CACTGG'
p2569
I15205
sS'ATGTCC'
p2570
I5819
sS'TGACAA'
p2571
I7153
sS'ACCAGG'
p2572
I16179
sS'CACTGC'
p2573
I17347
sS'CCTATC'
p2574
I4190
sS'CACTGA'
p2575
I11058
sS'GAGTCA'
p2576
I11421
sS'TAGGTT'
p2577
I4040
sS'GTTTAC'
p2578
I4709
sS'AATTAT'
p2579
I4519
sS'CTGTTG'
p2580
I10051
sS'TGCTAT'
p2581
I4372
sS'CTGTTC'
p2582
I10517
sS'CGGGTT'
p2583
I5866
sS'CTGTTA'
p2584
I5866
sS'AATTAC'
p2585
I4580
sS'TAGGTG'
p2586
I6366
sS'TAGGTA'
p2587
I3147
sS'TAGGTC'
p2588
I4021
sS'CGGGTC'
p2589
I9322
sS'CTGTTT'
p2590
I13430
sS'CGGGTA'
p2591
I3037
sS'CGGGTG'
p2592
I10378
sS'ATTGTT'
p2593
I6181
sS'AAGTAA'
p2594
I5984
sS'TGGATG'
p2595
I9253
sS'AGCAAA'
p2596
I12428
sS'ATATAT'
p2597
I3741
sS'AGCAAC'
p2598
I8325
sS'TTAGGC'
p2599
I5338
sS'AAAGCT'
p2600
I10973
sS'TTAGGA'
p2601
I7092
sS'AAAGCA'
p2602
I14172
sS'ATATAG'
p2603
I2078
sS'TTAGGT'
p2604
I4344
sS'ATATAA'
p2605
I3357
sS'AGCAAT'
p2606
I6348
sS'ATATAC'
p2607
I1998
sS'TACTTC'
p2608
I5038
sS'ATAGCC'
p2609
I3846
sS'TACTTG'
p2610
I4477
sS'ATAGCG'
p2611
I1549
sS'TCTCAC'
p2612
I10642
sS'CAGCAT'
p2613
I11044
sS'CAGCGC'
p2614
I17739
sS'ATAGCT'
p2615
I4254
sS'TACTTT'
p2616
I5970
sS'CGAGTT'
p2617
I3367
sS'TCCAAT'
p2618
I5158
sS'CGTACT'
p2619
I1336
sS'TCCCGT'
p2620
I5548
sS'ACATAC'
p2621
I3572
sS'CTTAAG'
p2622
I6052
sS'ACATAA'
p2623
I4110
sS'CTTAAA'
p2624
I7708
sS'ACATAG'
p2625
I3619
sS'CTTAAC'
p2626
I4798
sS'TCCAAG'
p2627
I11979
sS'CGAGTG'
p2628
I5093
sS'TTGTTA'
p2629
I5913
sS'TCCAAC'
p2630
I7032
sS'CGTACG'
p2631
I902
sS'AGGGGA'
p2632
I25518
sS'CTTAAT'
p2633
I4680
sS'AGGGGC'
p2634
I28748
sS'TATGCA'
p2635
I5001
sS'AGGGGG'
p2636
I26428
sS'TCATTA'
p2637
I5243
sS'CGACTT'
p2638
I3101
sS'TGAATT'
p2639
I7644
sS'TTGTAA'
p2640
I5991
sS'AGCGGT'
p2641
I4770
sS'TTGTAG'
p2642
I5137
sS'TGAATC'
p2643
I5936
sS'GATTGG'
p2644
I7554
sS'TGAATA'
p2645
I5327
sS'TCGGGA'
p2646
I6996
sS'TGAATG'
p2647
I9328
sS'CACACA'
p2648
I23938
sS'CGACTG'
p2649
I4353
sS'TTGTAT'
p2650
I4291
sS'ATCGTG'
p2651
I2039
sS'GCTTCG'
p2652
I5675
sS'GCTTCA'
p2653
I10438
sS'ATCGTA'
p2654
I810
sS'TGGGAG'
p2655
I28614
sS'GAGGGT'
p2656
I14370
sS'TGGGAA'
p2657
I20222
sS'TGGGAC'
p2658
I13126
sS'GCTTCT'
p2659
I15632
sS'TGGCAC'
p2660
I9860
sS'GATTGA'
p2661
I4020
sS'TGGGAT'
p2662
I11493
sS'GGGCTA'
p2663
I7036
sS'CTAGCC'
p2664
I7241
sS'CTAGCA'
p2665
I5962
sS'CTAGCG'
p2666
I3497
sS'CGGTAG'
p2667
I3139
sS'ACTTAG'
p2668
I4618
sS'TAGATT'
p2669
I3644
sS'ACTTAA'
p2670
I5227
sS'CGGTAC'
p2671
I1898
sS'TACACT'
p2672
I3800
sS'CGGTAA'
p2673
I2002
sS'GACCAG'
p2674
I12202
sS'GACCAC'
p2675
I8255
sS'CTAGCT'
p2676
I6420
sS'TACACC'
p2677
I3867
sS'CGGTAT'
p2678
I1137
sS'TACACA'
p2679
I5665
sS'TACACG'
p2680
I1853
sS'CGTTTA'
p2681
I2040
sS'GCGAGA'
p2682
I7008
sS'GAGAGC'
p2683
I17601
sS'GCGAGC'
p2684
I10570
sS'GCTGAG'
p2685
I24204
sS'GCGAGG'
p2686
I15127
sS'CAGCCG'
p2687
I16174
sS'CAGCCA'
p2688
I24201
sS'CAGCCC'
p2689
I37608
sS'GCGAGT'
p2690
I4826
sS'CAGCCT'
p2691
I29826
sS'TTACGT'
p2692
I1478
sS'GAACTC'
p2693
I8391
sS'GAACTA'
p2694
I3866
sS'GGACTT'
p2695
I9048
sS'CACCTA'
p2696
I6307
sS'AACTAT'
p2697
I2878
sS'CACCTC'
p2698
I19629
sS'CACCTG'
p2699
I21737
sS'TGATCC'
p2700
I6249
sS'AACACT'
p2701
I6956
sS'TGATCA'
p2702
I4751
sS'TGATCG'
p2703
I1625
sS'AACTAG'
p2704
I4120
sS'GGACTG'
p2705
I13334
sS'CACCTT'
p2706
I11718
sS'AACTAC'
p2707
I3896
sS'GGACTC'
p2708
I12060
sS'AACGAT'
p2709
I1328
sS'AACACG'
p2710
I3280
sS'AACACA'
p2711
I9966
sS'AACACC'
p2712
I7574
sS'TGATCT'
p2713
I6378
sS'AAAGAC'
p2714
I9416
sS'GCATTC'
p2715
I8648
sS'CAACAG'
p2716
I10233
sS'GACAGT'
p2717
I6998
sS'CAACAA'
p2718
I7534
sS'AAAGAA'
p2719
I18866
sS'CAACAC'
p2720
I7124
sS'GCTGAT'
p2721
I7803
sS'GCATTA'
p2722
I3985
sS'GACAGG'
p2723
I15560
sS'CAACAT'
p2724
I5588
sS'GACAGC'
p2725
I13386
sS'GACAGA'
p2726
I13036
sS'GTATTA'
p2727
I2355
sS'GTATTC'
p2728
I3242
sS'GTAAGT'
p2729
I4015
sS'CCAGCG'
p2730
I15092
sS'AGAGGT'
p2731
I11880
sS'GGTGGC'
p2732
I21499
sS'TCCCCT'
p2733
I25868
sS'GGTGGA'
p2734
I16091
sS'TATCTT'
p2735
I4606
sS'GGTGGG'
p2736
I32911
sS'NNNGAA'
p2737
I1
sS'AGAGGC'
p2738
I22650
sS'GTAAGA'
p2739
I4755
sS'AGAGGA'
p2740
I22376
sS'GTAAGC'
p2741
I3941
sS'GTATTT'
p2742
I6921
sS'GTAAGG'
p2743
I5513
sS'TCCCCG'
p2744
I19289
sS'TATCTC'
p2745
I4667
sS'TCCCCC'
p2746
I25219
sS'GGTGGT'
p2747
I12194
sS'TCCCCA'
p2748
I26937
sS'GTCGCG'
p2749
I4538
sS'GTCGCA'
p2750
I3125
sS'GTCGCC'
p2751
I7765
sS'TCGGTC'
p2752
I3619
sS'TCGGTA'
p2753
I1459
sS'GAGAGT'
p2754
I9209
sS'TCGGTG'
p2755
I5073
sS'GTCGCT'
p2756
I4822
sS'CCGTCG'
p2757
I4054
sS'CCGTCA'
p2758
I4040
sS'CCGTCC'
p2759
I9604
sS'GGCTGT'
p2760
I16808
sS'CGCGTG'
p2761
I6156
sS'GCATTT'
p2762
I11095
sS'CGCGTC'
p2763
I6808
sS'CGCGTA'
p2764
I1522
sS'GTTTTA'
p2765
I6947
sS'CCACTG'
p2766
I16715
sS'CCACTA'
p2767
I5700
sS'ATGCAC'
p2768
I5861
sS'CGCGTT'
p2769
I3195
sS'GGCTGG'
p2770
I38968
sS'GGCTGA'
p2771
I19054
sS'GGCTGC'
p2772
I33512
sS'CCACTT'
p2773
I11325
sS'TTTAGA'
p2774
I6326
sS'TTGACC'
p2775
I5063
sS'ATGACG'
p2776
I2358
sS'GGAGTT'
p2777
I11117
sS'ATGACA'
p2778
I6616
sS'TTTGTG'
p2779
I11137
sS'ATGACC'
p2780
I5216
sS'CCTGAT'
p2781
I7815
sS'GGGCCT'
p2782
I24326
sS'TAAGAA'
p2783
I7466
sS'ATGACT'
p2784
I6432
sS'GGAGTA'
p2785
I5425
sS'GGAGTC'
p2786
I12804
sS'GGAGTG'
p2787
I16082
sS'GGGCCG'
p2788
I24377
sS'GGGCCC'
p2789
I28774
sS'GGGCCA'
p2790
I20339
sS'GGCAAG'
p2791
I12832
sS'ACGAGT'
p2792
I2051
sS'TTCNNN'
p2793
I2
sS'AGGCCA'
p2794
I18819
sS'GCGCAC'
p2795
I9293
sS'AAAGTC'
p2796
I7853
sS'GCGCAG'
p2797
I17415
sS'ACGAGG'
p2798
I5639
sS'ACGAGC'
p2799
I3423
sS'ACGAGA'
p2800
I2915
sS'CTGATG'
p2801
I9229
sS'AGGCCT'
p2802
I20200
sS'ACATCT'
p2803
I6795
sS'GGGTTG'
p2804
I10984
sS'TTTGGG'
p2805
I14718
sS'GGGTTA'
p2806
I5174
sS'CTCGGG'
p2807
I14832
sS'GGGTTC'
p2808
I10430
sS'TTTGAT'
p2809
I5764
sS'ATTCGA'
p2810
I1686
sS'AACGGT'
p2811
I2075
sS'GGGTTT'
p2812
I11574
sS'TGCGAC'
p2813
I3143
sS'AGATCC'
p2814
I7545
sS'TGCGAG'
p2815
I5825
sS'AACGGC'
p2816
I3851
sS'ATTCGG'
p2817
I2428
sS'ATTGCA'
p2818
I5963
sS'GACTAG'
p2819
I4096
sS'ATTGCG'
p2820
I1798
sS'TTTGAC'
p2821
I5195
sS'TTTGAA'
p2822
I10418
sS'AAGCAG'
p2823
I17288
sS'CGGGCT'
p2824
I14594
sS'TGACGT'
p2825
I3592
sS'CTCGTC'
p2826
I4736
sS'CCCTGG'
p2827
I34314
sS'CCCTGA'
p2828
I17824
sS'AAGCTT'
p2829
I8164
sS'CCCTGC'
p2830
I35316
sS'GTGTAA'
p2831
I4057
sS'GATATC'
p2832
I2059
sS'AAGCTC'
p2833
I10397
sS'GATATA'
p2834
I1773
sS'TGACGG'
p2835
I4056
sS'GATATG'
p2836
I2716
sS'TGACGA'
p2837
I2075
sS'TGACGC'
p2838
I4206
sS'TACTCT'
p2839
I4909
sS'CATCGT'
p2840
I2199
sS'GATGGT'
p2841
I5953
sS'GTAGTC'
p2842
I3439
sS'CAGGGT'
p2843
I16481
sS'CTACGG'
p2844
I2805
sS'CCAGTC'
p2845
I12672
sS'TACGAT'
p2846
I769
sS'CCAGTG'
p2847
I15106
sS'TACTCG'
p2848
I1864
sS'CATCGA'
p2849
I1817
sS'CATCGC'
p2850
I4163
sS'TACTCC'
p2851
I5389
sS'NGAATT'
p2852
I1
sS'TACTCA'
p2853
I5049
sS'CATCGG'
p2854
I2795
sS'CAGGGG'
p2855
I27458
sS'CAGGGA'
p2856
I27813
sS'CAGGGC'
p2857
I31509
sS'AATCTG'
p2858
I8119
sS'CGGACT'
p2859
I4792
sS'GCCATT'
p2860
I8256
sS'AGTCGA'
p2861
I1907
sS'AATCTA'
p2862
I3603
sS'TGAACG'
p2863
I2763
sS'TCACAC'
p2864
I9472
sS'TCACAA'
p2865
I7602
sS'TCACAG'
p2866
I14216
sS'GCCATA'
p2867
I3570
sS'CGGACG'
p2868
I5154
sS'ACATCG'
p2869
I1983
sS'CGGACA'
p2870
I4654
sS'CGGACC'
p2871
I6863
sS'GCCATG'
p2872
I10795
sS'TTTTAA'
p2873
I13430
sS'CGCNNN'
p2874
I1
sS'TCACAT'
p2875
I7383
sS'TGAACC'
p2876
I6691
sS'ATTAAC'
p2877
I3984
sS'ATTAAA'
p2878
I7284
sS'ATTAAG'
p2879
I4532
sS'TTTTAC'
p2880
I6844
sS'TCACTT'
p2881
I10060
sS'ACATCC'
p2882
I7262
sS'GTGCAG'
p2883
I15793
sS'ATTAAT'
p2884
I4162
sS'ATCATG'
p2885
I4301
sS'GAACCA'
p2886
I8096
sS'GGTATG'
p2887
I3515
sS'CTGAAT'
p2888
I8902
sS'GGTATC'
p2889
I3024
sS'GAACCG'
p2890
I4727
sS'ACGAAT'
p2891
I1569
sS'CTGAAA'
p2892
I13615
sS'CTGAAC'
p2893
I8543
sS'CTGAAG'
p2894
I15272
sS'NNNNGA'
p2895
I2
sS'CATTGC'
p2896
I6540
sS'TATGAG'
p2897
I3635
sS'CATTGA'
p2898
I4831
sS'CTAGTT'
p2899
I4047
sS'CATTGG'
p2900
I6627
sS'TCAACT'
p2901
I5383
sS'ATGTTA'
p2902
I4046
sS'ACACCG'
p2903
I4533
sS'CTGCCA'
p2904
I20048
sS'CTGCCC'
p2905
I35351
sS'ACACCC'
p2906
I11530
sS'ACACCA'
p2907
I8773
sS'CTGCCG'
p2908
I14967
sS'CTAGTG'
p2909
I5756
sS'TCAACC'
p2910
I5530
sS'TCAACA'
p2911
I6381
sS'CTAGTC'
p2912
I4093
sS'TCAACG'
p2913
I1989
sS'CTAGTA'
p2914
I2322
sS'CATTGT'
p2915
I6979
sS'CCCGGG'
p2916
I30680
sS'GTAATG'
p2917
I3721
sS'ACACCT'
p2918
I9729
sS'CTGCCT'
p2919
I30079
sS'TATCAC'
p2920
I2969
sS'CCTCGT'
p2921
I5694
sS'TTGTGT'
p2922
I8540
sS'TCTNCC'
p2923
I1
sS'AGACTG'
p2924
I11105
sS'TCACTG'
p2925
I13175
sS'GCACTG'
p2926
I13618
sS'CCTCGG'
p2927
I16339
sS'CCTCGC'
p2928
I14942
sS'CCTCGA'
p2929
I4950
sS'CGAGGA'
p2930
I9017
sS'CGAGGC'
p2931
I13667
sS'CGAGGG'
p2932
I13071
sS'CACCGT'
p2933
I4679
sS'ACTTTA'
p2934
I5296
sS'ACTTTG'
p2935
I9359
sS'GAATAC'
p2936
I3271
sS'GACCTG'
p2937
I13176
sS'GACCTA'
p2938
I4008
sS'GACCTC'
p2939
I11683
sS'CACCGG'
p2940
I8003
sS'CTATTG'
p2941
I4146
sS'CACCGA'
p2942
I4887
sS'CACCGC'
p2943
I12659
sS'GGACGA'
p2944
I4617
sS'GGACGC'
p2945
I10400
sS'GGACGG'
p2946
I9675
sS'CTATTA'
p2947
I3006
sS'CACAGC'
p2948
I20688
sS'CTTATC'
p2949
I3873
sS'CACAGA'
p2950
I15645
sS'CTTATA'
p2951
I2515
sS'CACAGG'
p2952
I19520
sS'TTAACT'
p2953
I5438
sS'ACTCAT'
p2954
I5696
sS'GAGGAG'
p2955
I36825
sS'GACGTA'
p2956
I1348
sS'CGTATC'
p2957
I1124
sS'GACGTC'
p2958
I4306
sS'GAGGAC'
p2959
I13795
sS'GAGGAA'
p2960
I22509
sS'GACGTG'
p2961
I4675
sS'TTAACA'
p2962
I6016
sS'ACTCAC'
p2963
I9769
sS'TTAACC'
p2964
I4878
sS'TTGTGA'
p2965
I7661
sS'ACTCAG'
p2966
I13051
sS'CTTATT'
p2967
I5449
sS'CACAGT'
p2968
I10488
sS'AGCGAC'
p2969
I4839
sS'TAAACA'
p2970
I7558
sS'AGCGAA'
p2971
I4017
sS'GAGGAT'
p2972
I9911
sS'GACGTT'
p2973
I2477
sS'CGTATT'
p2974
I1356
sS'TAAACG'
p2975
I2040
sS'AGTTCC'
p2976
I10288
sS'GTATGT'
p2977
I3508
sS'AGTTCA'
p2978
I7449
sS'TACTTA'
p2979
I3436
sS'CTGTGC'
p2980
I17176
sS'CTGTGA'
p2981
I14074
sS'CGGGGT'
p2982
I11656
sS'CCACCA'
p2983
I17851
sS'GCAAAG'
p2984
I13275
sS'TAGGAA'
p2985
I8607
sS'GCAAAA'
p2986
I9619
sS'TAGGAG'
p2987
I9150
sS'GCAAAC'
p2988
I8449
sS'CGGGGC'
p2989
I32929
sS'GTATGG'
p2990
I3137
sS'CTGTGT'
p2991
I14517
sS'CGGGGG'
p2992
I21828
sS'GTATGC'
p2993
I2609
sS'AGTTCT'
p2994
I9142
sS'GCAAAT'
p2995
I8522
sS'TAGGAT'
p2996
I4406
sS'TAATTA'
p2997
I5115
sS'TTCAAT'
p2998
I4975
sS'TGCTTT'
p2999
I14346
sS'ACAGGA'
p3000
I14233
sS'GTAATT'
p3001
I4604
sS'GTTACC'
p3002
I4145
sS'GTTACA'
p3003
I4293
sS'TAATTC'
p3004
I4723
sS'TATCGA'
p3005
I672
sS'TATCGC'
p3006
I1143
sS'TATAGT'
p3007
I1848
sS'GTCTAA'
p3008
I3152
sS'TGCTTA'
p3009
I5877
sS'GTCTAC'
p3010
I2952
sS'TGCTTC'
p3011
I13373
sS'TTCAAA'
p3012
I10525
sS'TTCAAC'
p3013
I5384
sS'TGCTTG'
p3014
I10159
sS'TATAGC'
p3015
I2235
sS'TATCGT'
p3016
I722
sS'TATAGA'
p3017
I2533
sS'AGTGGG'
p3018
I16692
sS'TATAGG'
p3019
I2469
sS'GTGGCG'
p3020
I11004
sS'GTTACT'
p3021
I4508
sS'GGAAAA'
p3022
I17938
sS'AACCTT'
p3023
I6761
sS'CCAAGT'
p3024
I9807
sS'GCTCTG'
p3025
I24914
sS'CCACGT'
p3026
I6627
sS'CAATAT'
p3027
I2828
sS'AGGACC'
p3028
I12378
sS'GAATGG'
p3029
I10188
sS'GGCTTT'
p3030
I14270
sS'ACTACT'
p3031
I3492
sS'GAATGC'
p3032
I8562
sS'CCACGA'
p3033
I4538
sS'GGCGTC'
p3034
I8947
sS'CCACGC'
p3035
I10910
sS'GGCGTA'
p3036
I2071
sS'CAATAG'
p3037
I3990
sS'CCACGG'
p3038
I8993
sS'AACCTA'
p3039
I4073
sS'GGCTTA'
p3040
I5725
sS'ACTACC'
p3041
I3655
sS'GGCTTC'
p3042
I17986
sS'ACTACA'
p3043
I4730
sS'ACTACG'
p3044
I1694
sS'GGCTTG'
p3045
I13401
sS'TCCTAG'
p3046
I8671
sS'TAACAA'
p3047
I5782
sS'CGTTGC'
p3048
I3643
sS'TAACAC'
p3049
I4078
sS'TCCTAC'
p3050
I6399
sS'AGTCAC'
p3051
I9778
sS'TCCTAA'
p3052
I7174
sS'TAACAG'
p3053
I5760
sS'TCATCG'
p3054
I2394
sS'GAATTG'
p3055
I5750
sS'AAGCGT'
p3056
I3103
sS'TCATCC'
p3057
I8885
sS'GAGCGG'
p3058
I15107
sS'CTTTCT'
p3059
I20194
sS'AGTCAT'
p3060
I6488
sS'TCCTAT'
p3061
I4684
sS'TAACAT'
p3062
I4090
sS'CGTTGT'
p3063
I2308
sS'CTTTCC'
p3064
I21294
sS'TCATCT'
p3065
I9227
sS'CTTTCG'
p3066
I3893
sS'GAGCGC'
p3067
I14803
sS'GTTGAT'
p3068
I3457
sS'CGACCA'
p3069
I3403
sS'CGACCC'
p3070
I7806
sS'GCATAC'
p3071
I2588
sS'CGACCG'
p3072
I3431
sS'CCTTAT'
p3073
I4616
sS'GTTGAC'
p3074
I3659
sS'GTTGAA'
p3075
I5404
sS'ACTGGG'
p3076
I15971
sS'GTTGAG'
p3077
I6871
sS'TTAGGG'
p3078
I7491
sS'CCTTAC'
p3079
I5483
sS'CCTTAA'
p3080
I6512
sS'CCTTAG'
p3081
I7444
sS'CGACCT'
p3082
I4650
sS'CAACTC'
p3083
I8269
sS'CAACTA'
p3084
I3323
sS'CAACTG'
p3085
I7524
sS'AATAGG'
p3086
I4937
sS'AATATC'
p3087
I3284
sS'GCAGCA'
p3088
I23073
sS'GGGGTT'
p3089
I12149
sS'GTCCCT'
p3090
I15346
sS'ATTCNN'
p3091
I2
sS'GGATGT'
p3092
I7403
sS'AATAGT'
p3093
I3370
sS'GCAGCC'
p3094
I33279
sS'CAACTT'
p3095
I6633
sS'ACTGTA'
p3096
I4582
sS'GGGGTG'
p3097
I26079
sS'GGATGA'
p3098
I9034
sS'GGGGTC'
p3099
I16589
sS'GGGGTA'
p3100
I6350
sS'TCTCCG'
p3101
I9659
sS'GAGTCC'
p3102
I11813
sS'AAACTG'
p3103
I10944
sS'TCTCCC'
p3104
I26968
sS'CCCTTT'
p3105
I17423
sS'TCTCCA'
p3106
I18545
sS'AAACTC'
p3107
I9072
sS'CTATGA'
p3108
I3555
sS'AGTACG'
p3109
I1312
sS'ACGCGC'
p3110
I6515
sS'AGTACC'
p3111
I3923
sS'CTATGG'
p3112
I4359
sS'AGTACA'
p3113
I3809
sS'CCCTTA'
p3114
I6718
sS'CCCTTC'
p3115
I23878
sS'TCTCCT'
p3116
I22448
sS'CCCTTG'
p3117
I13819
sS'TGCCAA'
p3118
I8878
sS'AGTACT'
p3119
I3804
sS'CTATGT'
p3120
I3567
sS'GCCGAA'
p3121
I4435
sS'GTGGAG'
p3122
I19267
sS'GCCGAC'
p3123
I5949
sS'GTGGAC'
p3124
I7482
sS'GCCGAG'
p3125
I15016
sS'GTGGAA'
p3126
I11198
sS'GTGGAT'
p3127
I6499
sS'GCCATC'
p3128
I9580
sS'ACGAAC'
p3129
I1749
sS'AGATAG'
p3130
I4343
sS'TATCTG'
p3131
I5487
sS'ACCCGG'
p3132
I11001
sS'ACCGAG'
p3133
I5808
sS'AAATCG'
p3134
I2383
sS'CACGCG'
p3135
I6065
sS'CACGCA'
p3136
I6187
sS'AAATCC'
p3137
I9225
sS'CACGCC'
p3138
I11169
sS'GTTCCT'
p3139
I11597
sS'NCCATC'
p3140
I1
sS'AGAGGG'
p3141
I27325
sS'CTTTGA'
p3142
I9900
sS'CTCGTT'
p3143
I3201
sS'CACGCT'
p3144
I5903
sS'AAATCT'
p3145
I7962
sS'ACCGAT'
p3146
I1392
sS'CTTGAA'
p3147
I8933
sS'GTAGTT'
p3148
I3891
sS'AGATAA'
p3149
I5962
sS'TGCCGT'
p3150
I4032
sS'CGTTAT'
p3151
I1196
sS'GATGAT'
p3152
I4622
sS'GGAGCA'
p3153
I18302
sS'GGAGCC'
p3154
I30515
sS'AAAGTG'
p3155
I10773
sS'CCAAAT'
p3156
I8299
sS'GGAGCG'
p3157
I17108
sS'AAAACT'
p3158
I9151
sS'GATGAC'
p3159
I6010
sS'GATGAA'
p3160
I7265
sS'GCTCTT'
p3161
I12673
sS'GATGAG'
p3162
I9519
sS'AAAACC'
p3163
I10271
sS'AGAACA'
p3164
I10401
sS'AAAACA'
p3165
I15330
sS'AAAACG'
p3166
I4310
sS'GGAGCT'
p3167
I22385
sS'CCAAAG'
p3168
I13783
sS'TCGCGG'
p3169
I7068
sS'CTAGAG'
p3170
I8939
sS'TCGCGC'
p3171
I6669
sS'GGGAGT'
p3172
I14617
sS'TACCCT'
p3173
I5931
sS'AGATCA'
p3174
I6305
sS'GCCACC'
p3175
I21617
sS'AGAAAT'
p3176
I11512
sS'TCCCGG'
p3177
I18748
sS'GCGCTT'
p3178
I6879
sS'GCCACG'
p3179
I9534
sS'AGATCG'
p3180
I2624
sS'ATGTCA'
p3181
I6164
sS'TCGCGT'
p3182
I2383
sS'GTGCAA'
p3183
I6213
sS'ACCCGT'
p3184
I2929
sS'AGAAAG'
p3185
I20355
sS'CGGTCG'
p3186
I3500
sS'AGATCT'
p3187
I6668
sS'TACCCA'
p3188
I6387
sS'AGAAAA'
p3189
I20547
sS'TACCCC'
p3190
I6475
sS'ATGTAC'
p3191
I2533
sS'ACTTCG'
p3192
I3064
sS'ATGTAA'
p3193
I5281
sS'ATGTAG'
p3194
I4005
sS'CCTATA'
p3195
I2542
sS'ACGTCA'
p3196
I3459
sS'GTTCCG'
p3197
I4576
sS'GACGAC'
p3198
I2940
sS'ATGTCG'
p3199
I1713
sS'ATGTAT'
p3200
I3498
sS'AAAGTT'
p3201
I8002
sS'GTTCCC'
p3202
I13460
sS'AGCACT'
p3203
I11121
sS'TTAGAA'
p3204
I7227
sS'CGGCTG'
p3205
I16399
sS'TTAGAC'
p3206
I3195
sS'CGGCTC'
p3207
I15809
sS'TTAGAG'
p3208
I6958
sS'CGGCTA'
p3209
I3202
sS'AGCACC'
p3210
I13665
sS'AGCACA'
p3211
I12215
sS'AGCACG'
p3212
I5573
sS'AGTAGG'
p3213
I6863
sS'CGGCTT'
p3214
I7669
sS'TTAGAT'
p3215
I3503
sS'CCAGCA'
p3216
I24522
sS'CGAAGC'
p3217
I5768
sS'CCAGCC'
p3218
I38554
sS'AAAGAG'
p3219
I15859
sS'ATATCA'
p3220
I2649
sS'GCGCTG'
p3221
I17680
sS'TTATTT'
p3222
I11777
sS'TGTGAG'
p3223
I12636
sS'TGTGAA'
p3224
I9827
sS'GGGAGG'
p3225
I56777
sS'TGTGAC'
p3226
I8720
sS'ATATCT'
p3227
I3263
sS'CCAGCT'
p3228
I25137
sS'AAAGAT'
p3229
I7320
sS'TGTGAT'
p3230
I7232
sS'TTATTG'
p3231
I4711
sS'TTATTA'
p3232
I5045
sS'CATGAT'
p3233
I4288
sS'TTATTC'
p3234
I5727
sS'AGACGG'
p3235
I6549
sS'TTTTAT'
p3236
I9145
sS'GCGAAC'
p3237
I3187
sS'CTTACT'
p3238
I5323
sS'TCCACT'
p3239
I10309
sS'TACAAA'
p3240
I7126
sS'AGACGA'
p3241
I3119
sS'AAGTGA'
p3242
I10183
sS'CCTCTG'
p3243
I28913
sS'AGGTGG'
p3244
I22511
sS'CCTCTC'
p3245
I28535
sS'AGGTGC'
p3246
I13058
sS'CCTCTA'
p3247
I8714
sS'AGGTGA'
p3248
I14282
sS'CTTACG'
p3249
I1622
sS'TCCACA'
p3250
I11245
sS'TTTTAG'
p3251
I7342
sS'TCCACC'
p3252
I15963
sS'CTTACC'
p3253
I5952
sS'ACATCA'
p3254
I5928
sS'CTTACA'
p3255
I5228
sS'TCCACG'
p3256
I5910
sS'AGGTGT'
p3257
I9848
sS'CCTCTT'
p3258
I18136
sS'CGTCGG'
p3259
I4257
sS'CCCGGC'
p3260
I29655
sS'CCCGGA'
p3261
I14081
sS'TATGAC'
p3262
I2688
sS'TATGAA'
p3263
I4055
sS'TGGAAT'
p3264
I11082
sS'AATTAA'
p3265
I6755
sS'TTGTGC'
p3266
I7132
sS'TATGAT'
p3267
I2419
sS'TTGTGG'
p3268
I9877
sS'CCCGGT'
p3269
I7697
sS'GGCGTG'
p3270
I11278
sS'TGGAAG'
p3271
I16602
sS'GGTTTT'
p3272
I10299
sS'TGGAAC'
p3273
I8209
sS'TGGAAA'
p3274
I15762
sS'TGAGGA'
p3275
I15920
sS'AAGAGG'
p3276
I18070
sS'TGAGGC'
p3277
I17533
sS'AAGAGA'
p3278
I15038
sS'AAGAGC'
p3279
I12622
sS'TGAGGG'
p3280
I18313
sS'GCTTAG'
p3281
I6034
sS'GCTTAC'
p3282
I3884
sS'GCTTAA'
p3283
I5004
sS'TGATTC'
p3284
I6610
sS'AAGCGC'
p3285
I7079
sS'AAGAGT'
p3286
I7609
sS'AAGCGA'
p3287
I4289
sS'TGAGGT'
p3288
I10781
sS'GCTTAT'
p3289
I3540
sS'GTTCGG'
p3290
I3480
sS'CTGCTA'
p3291
I7634
sS'GCGTGT'
p3292
I5549
sS'CTGCTC'
p3293
I23875
sS'ACTTCT'
p3294
I9525
sS'GACCGT'
p3295
I2668
sS'CTGCTG'
p3296
I33579
sS'CGGTCA'
p3297
I3704
sS'GGTCGT'
p3298
I2830
sS'CGGTCC'
p3299
I7589
sS'CTAGAA'
p3300
I6923
sS'CTAGAC'
p3301
I4263
sS'GACCGA'
p3302
I3708
sS'GACCGC'
p3303
I6719
sS'ACTTCC'
p3304
I13458
sS'CTGCTT'
p3305
I17303
sS'GACCGG'
p3306
I6550
sS'CTAGAT'
p3307
I3761
sS'GGTCGG'
p3308
I7666
sS'CGGTCT'
p3309
I4741
sS'GGTCGC'
p3310
I6618
sS'GGTCGA'
p3311
I2453
sS'CGTCGC'
p3312
I4928
sS'GCGTGG'
p3313
I11059
sS'TGAAGC'
p3314
I10343
sS'GCGTGA'
p3315
I5172
sS'GCGTGC'
p3316
I7771
sS'TGCTCA'
p3317
I12235
sS'TTCATC'
p3318
I7250
sS'TGCTCC'
p3319
I18218
sS'TTCATA'
p3320
I3915
sS'TTCATG'
p3321
I6694
sS'TGCTCG'
p3322
I5330
sS'GTACAA'
p3323
I2844
sS'CAGCAG'
p3324
I33449
sS'GCGGCT'
p3325
I15993
sS'CAGCAC'
p3326
I17958
sS'CAGCAA'
p3327
I13857
sS'GTACAC'
p3328
I2833
sS'TCTGAC'
p3329
I8946
sS'TTCATT'
p3330
I10330
sS'GCTTTA'
p3331
I6290
sS'TGGCCG'
p3332
I11795
sS'GCTGCA'
p3333
I22251
sS'AACTCT'
p3334
I8064
sS'TGGCCC'
p3335
I20269
sS'TGGCCA'
p3336
I18179
sS'GTAGCA'
p3337
I4712
sS'TGCTCT'
p3338
I15730
sS'AACTCA'
p3339
I8081
sS'TGGCCT'
p3340
I18943
sS'AACTCC'
p3341
I11079
sS'GCTGCT'
p3342
I27201
sS'AACTCG'
p3343
I3247
sS'CTACAA'
p3344
I5134
sS'TGAAGA'
p3345
I10822
sS'AATATT'
p3346
I5561
sS'GTTCGA'
p3347
I2020
sS'CAACCT'
p3348
I8651
sS'CAGTTA'
p3349
I5398
sS'GCTGCC'
p3350
I30341
sS'GGCACG'
p3351
I6798
sS'GGCACA'
p3352
I12365
sS'GACAAT'
p3353
I4693
sS'GGCACC'
p3354
I14613
sS'CAACCG'
p3355
I3541
sS'ACGACC'
p3356
I2758
sS'AATATG'
p3357
I3951
sS'CAACCC'
p3358
I10972
sS'AGCAAG'
p3359
I13005
sS'CAACCA'
p3360
I7702
sS'CTTCGT'
p3361
I3377
sS'GACAAA'
p3362
I8895
sS'GGCACT'
p3363
I11120
sS'GACAAC'
p3364
I4836
sS'CAGAAC'
p3365
I10687
sS'GACAAG'
p3366
I8392
sS'GCTGCG'
p3367
I18501
sS'GCGGCG'
p3368
I30086
sS'GCAATA'
p3369
I3108
sS'GAATTT'
p3370
I8801
sS'CAAGTG'
p3371
I9156
sS'CGATGG'
p3372
I3628
sS'TCCCAT'
p3373
I10510
sS'CGATGC'
p3374
I3034
sS'GTAAAT'
p3375
I5661
sS'CGATGA'
p3376
I2533
sS'GAATTA'
p3377
I4783
sS'GAATTC'
p3378
I8489
sS'GCAATT'
p3379
I5216
sS'TCCCAA'
p3380
I13103
sS'CGATGT'
p3381
I1921
sS'GTAAAA'
p3382
I6530
sS'GTAAAG'
p3383
I5765
sS'TCCCAG'
p3384
I31192
sS'GGATTT'
p3385
I9144
sS'GTGCGT'
p3386
I4587
sS'ATGGTA'
p3387
I3328
sS'GGATTC'
p3388
I8231
sS'AATTAG'
p3389
I5545
sS'GGATTA'
p3390
I5306
sS'AGGTCC'
p3391
I10994
sS'AGCGGC'
p3392
I14903
sS'GATAAG'
p3393
I4032
sS'CTATCA'
p3394
I3122
sS'AAAGCC'
p3395
I14769
sS'TCTGTG'
p3396
I15955
sS'CTATCC'
p3397
I4122
sS'GTCCCG'
p3398
I11305
sS'TCTGTA'
p3399
I6821
sS'AACCGG'
p3400
I4321
sS'CTCCTT'
p3401
I20533
sS'GGCGGA'
p3402
I15888
sS'AACCGC'
p3403
I4613
sS'AACCGA'
p3404
I2822
sS'GTGGGA'
p3405
I17833
sS'TCTGTT'
p3406
I10686
sS'AAAGCG'
p3407
I5715
sS'CTCCTG'
p3408
I30295
sS'AACCGT'
p3409
I2109
sS'CTCCTA'
p3410
I9281
sS'CTCCTC'
p3411
I36708
sS'GGCGGT'
p3412
I10136
sS'AACAAG'
p3413
I8550
sS'GACGCC'
p3414
I8619
sS'CCCACA'
p3415
I17649
sS'CCCACC'
p3416
I32886
sS'ATAGCA'
p3417
I4333
sS'AGCCTT'
p3418
I13517
sS'CCGATT'
p3419
I2426
sS'CCCACT'
p3420
I16702
sS'AACAAT'
p3421
I6077
sS'GACGCT'
p3422
I5479
sS'GTGCGA'
p3423
I3352
sS'CCGATA'
p3424
I1036
sS'CCGATC'
p3425
I2566
sS'AGCCTA'
p3426
I6352
sS'AGCCTC'
p3427
I22501
sS'GTACCC'
p3428
I4348
sS'CTCCCG'
p3429
I21306
sS'TGGTTA'
p3430
I4825
sS'CGCCTT'
p3431
I8916
sS'GCGCCT'
p3432
I15028
sS'TCNNNN'
p3433
I2
sS'CAGAGT'
p3434
I12110
sS'GCATCT'
p3435
I9136
sS'ACCTCG'
p3436
I6140
sS'AGGCAC'
p3437
I13227
sS'CGCCTC'
p3438
I20552
sS'GCGCCA'
p3439
I11550
sS'CGCCTA'
p3440
I3548
sS'GCGCCG'
p3441
I20253
sS'CGCCTG'
p3442
I16561
sS'GTACCT'
p3443
I4629
sS'CAGAGG'
p3444
I28492
sS'GCATCC'
p3445
I9790
sS'GCATCA'
p3446
I6352
sS'CAGAGC'
p3447
I24403
sS'GCATCG'
p3448
I2953
sS'CAGAGA'
p3449
I21561
sS'TAGCTA'
p3450
I3097
sS'CCTAGA'
p3451
I7926
sS'CCTAGC'
p3452
I8548
sS'TTTGCT'
p3453
I12431
sS'CGGGAG'
p3454
I21351
sS'TGCGGT'
p3455
I4992
sS'CCTAGG'
p3456
I10899
sS'TAAGCA'
p3457
I6040
sS'GTCTAG'
p3458
I4224
sS'TGCGGC'
p3459
I11514
sS'TTTGCC'
p3460
I10585
sS'CCTAGT'
p3461
I5600
sS'TGCGGG'
p3462
I13321
sS'TTTGCG'
p3463
I3573
sS'TGAGTT'
p3464
I7880
sS'CGGGAC'
p3465
I11306
sS'ATCGCT'
p3466
I2899
sS'TCTCGT'
p3467
I2905
sS'ATCGCC'
p3468
I3681
sS'TGAGTG'
p3469
I11060
sS'ATCGCA'
p3470
I2153
sS'TGAGTA'
p3471
I5085
sS'ATCGCG'
p3472
I2437
sS'TGAGTC'
p3473
I10886
sS'CTTTCA'
p3474
I11878
sS'AAGGTG'
p3475
I11727
sS'AAGGTC'
p3476
I7768
sS'CATCAT'
p3477
I5400
sS'AAGGTA'
p3478
I5338
sS'AAGCGG'
p3479
I7603
sS'ACGGCA'
p3480
I3985
sS'CATCAC'
p3481
I7577
sS'ACGGCC'
p3482
I7060
sS'CATCAA'
p3483
I5246
sS'CATCAG'
p3484
I9169
sS'ACGGCG'
p3485
I5683
sS'TCACCT'
p3486
I13810
sS'TCGTTT'
p3487
I2978
sS'CGGAAT'
p3488
I3143
sS'ATCGAT'
p3489
I1002
sS'TCACCG'
p3490
I5779
sS'TCACCA'
p3491
I11209
sS'TCACCC'
p3492
I13614
sS'CGGAAG'
p3493
I9547
sS'AATATA'
p3494
I3592
sS'AACTGG'
p3495
I9804
sS'AAAATA'
p3496
I11396
sS'CGGAAC'
p3497
I4876
sS'AGCTCG'
p3498
I6613
sS'CGGAAA'
p3499
I5962
sS'TAGCTT'
p3500
I5022
sS'ATCCAG'
p3501
I9903
sS'ATGGCG'
p3502
I5792
sS'TGTGTA'
p3503
I5873
sS'ATGGCC'
p3504
I9078
sS'ATGGCA'
p3505
I8608
sS'TTCAGA'
p3506
I11289
sS'ATGGCT'
p3507
I8778
sS'TGTGTT'
p3508
I10103
sS'GAACAT'
p3509
I4809
sS'AGATTA'
p3510
I4054
sS'AGATTC'
p3511
I7078
sS'GAAACA'
p3512
I11437
sS'GAAACC'
p3513
I10863
sS'ATGCAT'
p3514
I5575
sS'AGATAC'
p3515
I3728
sS'CTGAGT'
p3516
I12803
sS'GAAACT'
p3517
I10164
sS'AGAATG'
p3518
I10600
sS'AGATTT'
p3519
I8081
sS'TATGCT'
p3520
I3682
sS'CTGAGC'
p3521
I21238
sS'CTGAGA'
p3522
I16952
sS'CTGAGG'
p3523
I24842
sS'CATACC'
p3524
I3593
sS'CATACA'
p3525
I4208
sS'CATACG'
p3526
I976
sS'GCAATC'
p3527
I4555
sS'TCAAAT'
p3528
I6917
sS'GTCCAT'
p3529
I4802
sS'AGGGGT'
p3530
I14580
sS'CATACT'
p3531
I3039
sS'GTCCAG'
p3532
I12607
sS'TCAAAG'
p3533
I9992
sS'TCAAAA'
p3534
I8984
sS'GCAATG'
p3535
I6549
sS'CGGCGG'
p3536
I26618
sS'TTGATG'
p3537
I5185
sS'ATCGAG'
p3538
I2026
sS'CGGCGC'
p3539
I20228
sS'TTGATC'
p3540
I3728
sS'CGGCGA'
p3541
I7087
sS'CGTACA'
p3542
I1379
sS'TTGATT'
p3543
I5883
sS'CGGCGT'
p3544
I5896
sS'ATCGAC'
p3545
I1071
sS'TATAAG'
p3546
I2605
sS'TGACTT'
p3547
I8693
sS'TCGTCT'
p3548
I3108
sS'CGGTTA'
p3549
I1694
sS'GGTTTA'
p3550
I4679
sS'CGGTTC'
p3551
I4591
sS'GGTTTC'
p3552
I10946
sS'CGGTTG'
p3553
I3581
sS'GGTTTG'
p3554
I9401
sS'CCATTG'
p3555
I7557
sS'TCCAAA'
p3556
I10312
sS'GCTGTG'
p3557
I21010
sS'GCTGTC'
p3558
I13422
sS'CGGTTT'
p3559
I3944
sS'GCTGTA'
p3560
I6565
sS'TATGCG'
p3561
I1266
sS'TCTCAA'
p3562
I9027
sS'AGGTTG'
p3563
I8603
sS'AGGTTC'
p3564
I7829
sS'AGGTTA'
p3565
I5081
sS'CNNNNN'
p3566
I3
sS'ACTCCT'
p3567
I12232
sS'TTTTTC'
p3568
I15576
sS'TCCATC'
p3569
I9434
sS'TTTTTA'
p3570
I12125
sS'TTTTTG'
p3571
I12055
sS'GAGGGG'
p3572
I38248
sS'TTAAAT'
p3573
I7916
sS'AGGTTT'
p3574
I9302
sS'TAAGCG'
p3575
I2309
sS'ACATAT'
p3576
I3298
sS'TTAAAC'
p3577
I5616
sS'ATACGT'
p3578
I1017
sS'TTAAAA'
p3579
I13321
sS'ACTCCG'
p3580
I6119
sS'TTAAAG'
p3581
I8284
sS'ACTCCA'
p3582
I11939
sS'TTTTTT'
p3583
I39581
sS'ACTCCC'
p3584
I14387
sS'TAGGCT'
p3585
I6277
sS'GTCACG'
p3586
I4265
sS'CTGTAC'
p3587
I4655
sS'GCAACT'
p3588
I6575
sS'GTCACC'
p3589
I10370
sS'CTGTAG'
p3590
I7950
sS'GTCACA'
p3591
I8718
sS'GCAACG'
p3592
I3581
sS'GGTCTT'
p3593
I8453
sS'GTCACT'
p3594
I9022
sS'TAGGCG'
p3595
I3743
sS'GCAACC'
p3596
I7938
sS'CTGTAT'
p3597
I4748
sS'GCAACA'
p3598
I7900
sS'TAGGCC'
p3599
I6494
sS'ATTCAT'
p3600
I6720
sS'TCCCAC'
p3601
I17769
sS'GCGATT'
p3602
I2668
sS'TCGTGT'
p3603
I2369
sS'TTCACT'
p3604
I9170
sS'ACAGAT'
p3605
I7398
sS'GTCTCT'
p3606
I13393
sS'TCCGTG'
p3607
I5566
sS'ATTCAG'
p3608
I8920
sS'ATATTA'
p3609
I2862
sS'ATTCAA'
p3610
I6510
sS'ATTCAC'
p3611
I6426
sS'GTCTCC'
p3612
I16268
sS'GTCTCA'
p3613
I9450
sS'GCGATG'
p3614
I4172
sS'TTCACC'
p3615
I9396
sS'GCGATA'
p3616
I1213
sS'TTCACA'
p3617
I9827
sS'GCGATC'
p3618
I3198
sS'GAAGGC'
p3619
I16911
sS'GAAGGA'
p3620
I19632
sS'TTGTAC'
p3621
I2887
sS'GAAGGG'
p3622
I23695
sS'CGATTA'
p3623
I1031
sS'GGAACC'
p3624
I11632
sS'AGACTT'
p3625
I7899
sS'GGAACA'
p3626
I10275
sS'GGAACG'
p3627
I5724
sS'ATAGTA'
p3628
I2098
sS'CGATTT'
p3629
I2441
sS'GAAGGT'
p3630
I9997
sS'CTCGCT'
p3631
I9335
sS'CAATCG'
p3632
I1977
sS'CAATCA'
p3633
I6331
sS'GGAACT'
p3634
I10245
sS'TCCTGA'
p3635
I15024
sS'AGTCCA'
p3636
I8222
sS'TCCTGC'
p3637
I24925
sS'AGTCCC'
p3638
I14736
sS'ACTAAA'
p3639
I5036
sS'TCCTGG'
p3640
I28275
sS'ACTAAC'
p3641
I3169
sS'TAACGC'
p3642
I1723
sS'CAGCTG'
p3643
I28659
sS'CAGCTA'
p3644
I7886
sS'CAGCTC'
p3645
I25678
sS'ACTAAT'
p3646
I3104
sS'GATTGT'
p3647
I4002
sS'CGACTC'
p3648
I4917
sS'AGTCCT'
p3649
I11319
sS'TCCTGT'
p3650
I14100
sS'TAATGT'
p3651
I3829
sS'CAGCTT'
p3652
I15123
sS'GGTTAG'
p3653
I4886
sS'TAACGT'
p3654
I1450
sS'ACGGAC'
p3655
I3062
sS'GTACTT'
p3656
I3847
sS'CGACAT'
p3657
I1773
sS'TTGTTC'
p3658
I7822
sS'CGCAAG'
p3659
I4612
sS'CCGAGG'
p3660
I15902
sS'CCGAGA'
p3661
I7983
sS'ACGGAA'
p3662
I3854
sS'CCGAGC'
p3663
I12685
sS'CCGCGT'
p3664
I6763
sS'CGACAC'
p3665
I3165
sS'CGACAA'
p3666
I2042
sS'CGACAG'
p3667
I4954
sS'GTACTA'
p3668
I1631
sS'CCGCGC'
p3669
I23887
sS'AGCCAC'
p3670
I17060
sS'CCGCGA'
p3671
I7164
sS'TACGCA'
p3672
I1553
sS'CCGCGG'
p3673
I22213
sS'TTGTTT'
p3674
I14645
sS'GCATAT'
p3675
I3301
sS'TCCGTT'
p3676
I3306
sS'AGCCAA'
p3677
I12413
sS'AATAAC'
p3678
I4650
sS'AATAAA'
p3679
I11757
sS'AATAAG'
p3680
I5506
sS'ATCGTT'
p3681
I1321
sS'CGCCAT'
p3682
I5706
sS'GGATTG'
p3683
I6410
sS'TACTAA'
p3684
I3086
sS'AATAAT'
p3685
I5888
sS'ACGGTG'
p3686
I4700
sS'CCAACC'
p3687
I11511
sS'CCAACA'
p3688
I9025
sS'CCAACG'
p3689
I3797
sS'GGGATT'
p3690
I10331
sS'CGCCGC'
p3691
I29784
sS'AGTAAA'
p3692
I6782
sS'CGCCGA'
p3693
I6625
sS'AGTAAC'
p3694
I4349
sS'CGCCGG'
p3695
I17062
sS'GAGTAA'
p3696
I5055
sS'AGTAAG'
p3697
I5271
sS'CTCAGG'
p3698
I23558
sS'CTAAAA'
p3699
I7444
sS'CTCAGC'
p3700
I24397
sS'CCAACT'
p3701
I8175
sS'GAGTAT'
p3702
I2823
sS'TCGAGA'
p3703
I2985
sS'GTGTAG'
p3704
I4609
sS'TCGAGC'
p3705
I3498
sS'AGTAAT'
p3706
I3983
sS'GTGTAC'
p3707
I2895
sS'TCGAGG'
p3708
I5062
sS'GTGGCA'
p3709
I12429
sS'GTGGCC'
p3710
I18869
sS'CTCGGA'
p3711
I7620
sS'CTCGGC'
p3712
I15069
sS'GCCGCC'
p3713
I34449
sS'GCCGCA'
p3714
I11472
sS'GCCGCG'
p3715
I22353
sS'TATTGA'
p3716
I3471
sS'ACACTT'
p3717
I6975
sS'CTCGGT'
p3718
I5990
sS'AGATAT'
p3719
I3175
sS'GTGGCT'
p3720
I17116
sS'CATATA'
p3721
I2482
sS'CAGTCG'
p3722
I4284
sS'ACACTC'
p3723
I7955
sS'ACACTA'
p3724
I3349
sS'ACACTG'
p3725
I10364
sS'GCCGCT'
p3726
I14938
sS'ACCGGA'
p3727
I4334
sS'AAATAA'
p3728
I11918
sS'ACCGGC'
p3729
I6879
sS'CTTTAG'
p3730
I6384
sS'CTTTAA'
p3731
I8418
sS'AATCCT'
p3732
I8203
sS'CTTTAC'
p3733
I5757
sS'CACGAG'
p3734
I4643
sS'CAGGTA'
p3735
I8284
sS'AACTTC'
p3736
I8006
sS'CAGGTC'
p3737
I13465
sS'CACGAC'
p3738
I2920
sS'CACGAA'
p3739
I2923
sS'CAGGTG'
p3740
I21930
sS'CTTTAT'
p3741
I6453
sS'AATCCC'
p3742
I10550
sS'GCTCGT'
p3743
I3438
sS'AATCCA'
p3744
I7405
sS'AAATAT'
p3745
I6961
sS'ACCGGT'
p3746
I2398
sS'CAGTCA'
p3747
I10027
sS'CAGGTT'
p3748
I10795
sS'AACTTT'
p3749
I7945
sS'TCTGTC'
p3750
I13048
sS'GGGATA'
p3751
I4786
sS'GGGATC'
p3752
I9029
sS'GGGTGT'
p3753
I11687
sS'GGGATG'
p3754
I14718
sS'GATGCT'
p3755
I8451
sS'CGCAGT'
p3756
I6456
sS'ATTGGG'
p3757
I6133
sS'GAGCCT'
p3758
I18063
sS'GGAGAC'
p3759
I16412
sS'GGGTGA'
p3760
I14029
sS'GGAGAA'
p3761
I20523
sS'GGGTGC'
p3762
I14781
sS'GGAGAG'
p3763
I31214
sS'AATCAA'
p3764
I5860
sS'GGGTGG'
p3765
I30786
sS'GAGCCA'
p3766
I18380
sS'CGCAGG'
p3767
I16147
sS'GATGCG'
p3768
I4023
sS'CGCAGA'
p3769
I8895
sS'GATGCA'
p3770
I7390
sS'CGCAGC'
p3771
I18056
sS'GATGCC'
p3772
I8632
sS'CGGATT'
p3773
I3023
sS'GGTAGT'
p3774
I3643
sS'ACCCCT'
p3775
I14831
sS'GCCAAT'
p3776
I7043
sS'GGCGGG'
p3777
I44335
sS'AGAGTC'
p3778
I8888
sS'AGAAGT'
p3779
I9407
sS'ACCCCA'
p3780
I17079
sS'GGTAGA'
p3781
I5890
sS'GCCAAA'
p3782
I9237
sS'CGGATG'
p3783
I4253
sS'GCCAAG'
p3784
I15167
sS'CGGATA'
p3785
I1401
sS'ACCCCG'
p3786
I11712
sS'CGGATC'
p3787
I4071
sS'AGAAGA'
p3788
I14309
sS'AGAAGC'
p3789
I15926
sS'TACAAT'
p3790
I3328
sS'GCAAGA'
p3791
I9741
sS'AGAAGG'
p3792
I19451
sS'CACTCC'
p3793
I15426
sS'CACTCA'
p3794
I10854
sS'CACTCG'
p3795
I5006
sS'TGCGTT'
p3796
I3376
sS'GCAAGG'
p3797
I13732
sS'AGCTTT'
p3798
I11074
sS'CCCCGG'
p3799
I25242
sS'TGCGTA'
p3800
I1672
sS'CCCCGC'
p3801
I39799
sS'CCCCGA'
p3802
I11413
sS'AGCTTC'
p3803
I13203
sS'AGCTTA'
p3804
I4654
sS'AGCTTG'
p3805
I9895
sS'ATACGA'
p3806
I802
sS'TTAGCT'
p3807
I5781
sS'TTAGCC'
p3808
I5758
sS'TTAGCA'
p3809
I6638
sS'GACCAT'
p3810
I4397
sS'TTAGCG'
p3811
I2225
sS'TACCGG'
p3812
I2377
sS'TCATAT'
p3813
I3003
sS'ATAGGT'
p3814
I2872
sS'ATAAGG'
p3815
I4667
sS'TGTGCT'
p3816
I12269
sS'AAGGGC'
p3817
I15045
sS'ATAAGC'
p3818
I3702
sS'AAGGGA'
p3819
I18207
sS'ATAAGA'
p3820
I4527
sS'CCAGAC'
p3821
I14132
sS'CCAGAA'
p3822
I16038
sS'CCAGAG'
p3823
I25540
sS'GCAAGT'
p3824
I7285
sS'TGTGCG'
p3825
I6502
sS'TCTAAA'
p3826
I6363
sS'AAGGGT'
p3827
I8740
sS'TGTGCC'
p3828
I12424
sS'ATAGGA'
p3829
I4665
sS'AGGTAG'
p3830
I7595
sS'ATAGGC'
p3831
I3739
sS'CCAGAT'
p3832
I9612
sS'AGACAA'
p3833
I9321
sS'GACGCA'
p3834
I4713
sS'AGACAC'
p3835
I10084
sS'AGACAG'
p3836
I15814
sS'TTTTCT'
p3837
I20637
sS'CGCTGT'
p3838
I7579
sS'CCCACG'
p3839
I10420
sS'CGTGGG'
p3840
I10497
sS'AGACAT'
p3841
I6284
sS'CGTGGA'
p3842
I6036
sS'TTTTCG'
p3843
I2870
sS'AACAAC'
p3844
I6320
sS'CGCTGC'
p3845
I18078
sS'TTTTCC'
p3846
I17901
sS'TTTTCA'
p3847
I12323
sS'CGCTGG'
p3848
I15282
sS'TATGGA'
p3849
I3880
sS'TATGGC'
p3850
I3606
sS'CGTAGG'
p3851
I2884
sS'ATCGTC'
p3852
I1567
sS'CGTAGA'
p3853
I1931
sS'TATGGG'
p3854
I4388
sS'CGTAGC'
p3855
I2612
sS'TACCGT'
p3856
I1359
sS'AAGTGT'
p3857
I6932
sS'TGGACT'
p3858
I8299
sS'CGTAGT'
p3859
I1628
sS'TATGGT'
p3860
I2767
sS'TGGACA'
p3861
I8780
sS'TGGACC'
p3862
I8224
sS'TGGACG'
p3863
I4895
sS'GGCGGN'
p3864
I1
sS'CCGGTT'
p3865
I4279
sS'GACCAA'
p3866
I6364
sS'GCTTGA'
p3867
I7314
sS'TGAGAC'
p3868
I9270
sS'GCTTGC'
p3869
I9753
sS'TGAGAA'
p3870
I13457
sS'TGAGAG'
p3871
I14092
sS'GCTTGG'
p3872
I14120
sS'CCTGTT'
p3873
I11481
sS'CCGGTG'
p3874
I8201
sS'CCGGTC'
p3875
I6394
sS'ACTTAT'
p3876
I2767
sS'CCTGTC'
p3877
I15458
sS'CCTGTA'
p3878
I8083
sS'CTCGCC'
p3879
I13641
sS'CGTCTA'
p3880
I1679
sS'TGAGAT'
p3881
I7987
sS'GGTTGT'
p3882
I5977
sS'AGGGAT'
p3883
I10087
sS'TATCAG'
p3884
I4021
sS'TATTGC'
p3885
I3302
sS'AATTCN'
p3886
I2
sS'TAGCGT'
p3887
I1602
sS'GGTTGG'
p3888
I11478
sS'GGTTGA'
p3889
I5568
sS'TTCACG'
p3890
I3327
sS'CTGTGG'
p3891
I20854
sS'GGAAAC'
p3892
I14075
sS'TCCCGC'
p3893
I18113
sS'TCCCGA'
p3894
I6701
sS'GTAACA'
p3895
I4272
sS'GTAACC'
p3896
I3921
sS'CGTTTT'
p3897
I4241
sS'ATTCTC'
p3898
I9099
sS'AGGGAA'
p3899
I22738
sS'ATTCTA'
p3900
I4894
sS'ATTCTG'
p3901
I9390
sS'TCATTT'
p3902
I11018
sS'GTAACT'
p3903
I4488
sS'TGCTAA'
p3904
I6569
sS'TGCTAG'
p3905
I5958
sS'CAGCGG'
p3906
I15932
sS'AGGATC'
p3907
I7778
sS'TCATTC'
p3908
I9441
sS'CGTTTG'
p3909
I3603
sS'TCATTG'
p3910
I6504
sS'ATTCTT'
p3911
I8821
sS'CGTTTC'
p3912
I5109
sS'ACCGGG'
p3913
I7649
sS'TGGCAA'
p3914
I9254
sS'AGCCTG'
p3915
I25079
sS'TGGCAG'
p3916
I20527
sS'GGCCGT'
p3917
I7139
sS'GCTGAA'
p3918
I12202
sS'GCTGAC'
p3919
I11232
sS'TGGCAT'
p3920
I8103
sS'GGCCGG'
p3921
I26354
sS'GTTCAA'
p3922
I5203
sS'NNGATC'
p3923
I1
sS'CCGATG'
p3924
I2890
sS'GGCCGC'
p3925
I26339
sS'GAACTT'
p3926
I7028
sS'GGCCGA'
p3927
I10341
sS'GGCAAT'
p3928
I5344
sS'CGCTCG'
p3929
I7928
sS'CTATAA'
p3930
I2922
sS'CTGATT'
p3931
I8465
sS'NCCCAC'
p3932
I1
sS'CCATCG'
p3933
I3644
sS'CTAAAT'
p3934
I5148
sS'CCATCC'
p3935
I14230
sS'CCATCA'
p3936
I8260
sS'CTGATC'
p3937
I6332
sS'CTGATA'
p3938
I3964
sS'GAGTTT'
p3939
I9178
sS'GGCAAC'
p3940
I8231
sS'GGCAAA'
p3941
I10639
sS'CTAAAG'
p3942
I6424
sS'CCATCT'
p3943
I12831
sS'CTAAAC'
p3944
I4729
sS'TTGCGT'
p3945
I2465
sS'GACACC'
p3946
I9594
sS'GACACA'
p3947
I9619
sS'GACACG'
p3948
I4361
sS'AGGCAT'
p3949
I9114
sS'TAGCGA'
p3950
I1832
sS'TACGAG'
p3951
I1477
sS'TACGAC'
p3952
I1035
sS'GGAAAG'
p3953
I21215
sS'GACACT'
p3954
I7531
sS'GGCGAT'
p3955
I3746
sS'AGTCCG'
p3956
I4669
sS'ACGCTG'
p3957
I6896
sS'GCATAA'
p3958
I3659
sS'CTATTC'
p3959
I4323
sS'TCGATG'
p3960
I1836
sS'TCGATA'
p3961
I686
sS'TCGATC'
p3962
I1455
sS'CTATTT'
p3963
I6715
sS'CGCGAA'
p3964
I3051
sS'GCATTG'
p3965
I6046
sS'GAACTG'
p3966
I10234
sS'TCGATT'
p3967
I1561
sS'CTACCG'
p3968
I2994
sS'TCGGCA'
p3969
I3936
sS'GCGCCC'
p3970
I26480
sS'ACAATG'
p3971
I6840
sS'AACCAA'
p3972
I7624
sS'TGCCGG'
p3973
I10108
sS'AACCAC'
p3974
I8147
sS'TGCCGC'
p3975
I11131
sS'AACCAG'
p3976
I10858
sS'TGCCGA'
p3977
I4160
sS'TTGGAC'
p3978
I5213
sS'CGCGAG'
p3979
I8330
sS'AGGCAG'
p3980
I30140
sS'GGCGGC'
p3981
I34781
sS'AACCAT'
p3982
I4653
sS'AACAGA'
p3983
I10575
sS'ACGTCG'
p3984
I1903
sS'AACAGC'
p3985
I11559
sS'CTACCC'
p3986
I8237
sS'AACAGG'
p3987
I11601
sS'CTACCA'
p3988
I5325
sS'CCCAAG'
p3989
I17303
sS'AGCAGC'
p3990
I27040
sS'GACGAA'
p3991
I2468
sS'CCCAAC'
p3992
I12111
sS'CCCAAA'
p3993
I14679
sS'CTACCT'
p3994
I7533
sS'GGGAGA'
p3995
I27171
sS'AACAGT'
p3996
I6291
sS'GGGAGC'
p3997
I29531
sS'ACGAAG'
p3998
I3395
sS'CCCAAT'
p3999
I6050
sS'GACGAT'
p4000
I1570
sS'GGGCGC'
p4001
I26345
sS'GGGCGA'
p4002
I10778
sS'GGGCGG'
p4003
I42738
sS'TCTCTT'
p4004
I15016
sS'GTACAG'
p4005
I4607
sS'CGTTAA'
p4006
I1551
sS'CAGAAT'
p4007
I9471
sS'ACGACT'
p4008
I2175
sS'TCTCTC'
p4009
I22545
sS'TCTCTA'
p4010
I8092
sS'TCTCTG'
p4011
I21503
sS'GGGCGT'
p4012
I9911
sS'CAGAAA'
p4013
I17469
sS'ACGACA'
p4014
I2136
sS'ACGACG'
p4015
I1890
sS'CAGAAG'
p4016
I17664
sS'CCTTCA'
p4017
I12617
sS'GTCCAA'
p4018
I5154
sS'CACTTT'
p4019
I10964
sS'CCTAAT'
p4020
I4595
sS'GTCATT'
p4021
I6599
sS'CACTTG'
p4022
I9206
sS'CCTAAC'
p4023
I5469
sS'CCTAAA'
p4024
I6912
sS'CACTTC'
p4025
I12093
sS'CCTAAG'
p4026
I7497
sS'CACTTA'
p4027
I5541
sS'GCGGAT'
p4028
I4356
sS'CTGCGG'
p4029
I18580
sS'AAGATT'
p4030
I5663
sS'CTCATG'
p4031
I7625
sS'GACTCG'
p4032
I5003
sS'CTCATC'
p4033
I9568
sS'GACTCC'
p4034
I12779
sS'CTCATA'
p4035
I3768
sS'GACTCA'
p4036
I10733
sS'AAGATA'
p4037
I4428
sS'AGTCGG'
p4038
I4996
sS'AAGATG'
p4039
I9024
sS'GACTCT'
p4040
I9225
sS'CTCATT'
p4041
I10367
sS'TTGAGA'
p4042
I9112
sS'ATCGAA'
p4043
I1356
sS'GGACTA'
p4044
I4425
sS'ATATTT'
p4045
I6887
sS'ACGGTA'
p4046
I1383
sS'AACTAA'
p4047
I4522
sS'ATAGTT'
p4048
I2859
sS'TACTGT'
p4049
I4644
sS'ATATTC'
p4050
I3607
sS'ACGGTC'
p4051
I2803
sS'ATATTG'
p4052
I3024
sS'TACTGC'
p4053
I5666
sS'TACTGA'
p4054
I4794
sS'TACTGG'
p4055
I5702
sS'ATAGTG'
p4056
I3090
sS'ATAGAC'
p4057
I2553
sS'CAGGCA'
p4058
I23375
sS'CAGGCC'
p4059
I29659
sS'CATCCG'
p4060
I4151
sS'ACGGAG'
p4061
I6914
sS'CATCCA'
p4062
I8968
sS'AGGAAC'
p4063
I11528
sS'CATCCC'
p4064
I14548
sS'TTATGA'
p4065
I3643
sS'TTATGC'
p4066
I3694
sS'CGGAGT'
p4067
I6190
sS'TTATGG'
p4068
I3943
sS'CATCCT'
p4069
I12487
sS'AGGAAT'
p4070
I12472
sS'CAGGCT'
p4071
I24955
sS'ACGGAT'
p4072
I1959
sS'CGGAGA'
p4073
I9929
sS'CGGAGC'
p4074
I17044
sS'TTATGT'
p4075
I4222
sS'CGGAGG'
p4076
I17957
sS'ATGGAA'
p4077
I9477
sS'ATGGAC'
p4078
I4819
sS'ATGGAG'
p4079
I11730
sS'CGCTTG'
p4080
I5319
sS'CGCTTA'
p4081
I2196
sS'CGCTTC'
p4082
I8680
sS'ATGGAT'
p4083
I4895
sS'TTTGCA'
p4084
I13186
sS'CGCTTT'
p4085
I5620
sS'GCCGTG'
p4086
I8417
sS'ACTTGG'
p4087
I9731
sS'TGCGGA'
p4088
I6897
sS'GAAAAG'
p4089
I16654
sS'TAAACC'
p4090
I4827
sS'GAAAAC'
p4091
I11344
sS'ATAGAT'
p4092
I2808
sS'GAAAAA'
p4093
I15737
sS'ACGGTT'
p4094
I2113
sS'GAAAAT'
p4095
I10266
sS'CGGCAT'
p4096
I3262
sS'ACAAGG'
p4097
I9958
sS'ACAAGA'
p4098
I7814
sS'ACAAGC'
p4099
I7547
sS'ACACGT'
p4100
I3220
sS'CTGCGT'
p4101
I7074
sS'GCGGAG'
p4102
I20821
sS'CATAAG'
p4103
I3530
sS'GCGGAA'
p4104
I7458
sS'CATAAA'
p4105
I5256
sS'GCGGAC'
p4106
I7499
sS'CATAAC'
p4107
I3027
sS'ACACGC'
p4108
I5429
sS'ACAAGT'
p4109
I5592
sS'ACACGA'
p4110
I2424
sS'ACACGG'
p4111
I4835
sS'CATAAT'
p4112
I3263
sS'GTCCCA'
p4113
I12974
sS'GTCCCC'
p4114
I19658
sS'CTGCGA'
p4115
I6730
sS'CTGCGC'
p4116
I17389
sS'CGGCAA'
p4117
I4289
sS'CGGCAC'
p4118
I6516
sS'CGGCAG'
p4119
I15181
sS'CCTCCT'
p4120
I38964
sS'ATCAAA'
p4121
I5781
sS'TGTTGA'
p4122
I6424
sS'CAGGCG'
p4123
I16452
sS'CCTCCC'
p4124
I56489
sS'CCTCCA'
p4125
I25598
sS'CCTCCG'
p4126
I17806
s.