(dp0
S'GAACGT'
p1
I2764
sS'ACATGA'
p2
I9656
sS'CTTCTT'
p3
I17742
sS'CACCCT'
p4
I17204
sS'GAACGG'
p5
I3619
sS'GAACGC'
p6
I3904
sS'GAACGA'
p7
I2567
sS'CACCCA'
p8
I19076
sS'CTTCTA'
p9
I9567
sS'CACCCC'
p10
I20892
sS'CTTCTC'
p11
I20919
sS'CACCCG'
p12
I8659
sS'CTTCTG'
p13
I20208
sS'CGTGTG'
p14
I6201
sS'TAAGGT'
p15
I6103
sS'CGTGTC'
p16
I4145
sS'CGTGTA'
p17
I2107
sS'AGGCAA'
p18
I13926
sS'TAAGGG'
p19
I7724
sS'CGTGTT'
p20
I3795
sS'TAAGGC'
p21
I6939
sS'TAAGGA'
p22
I9898
sS'GTCAAA'
p23
I7821
sS'GTCAAC'
p24
I4904
sS'GTCAAG'
p25
I7490
sS'CTGTCC'
p26
I16887
sS'TCAGAG'
p27
I18304
sS'CTGTCA'
p28
I13489
sS'CTCGCC'
p29
I10351
sS'CTGTCG'
p30
I4501
sS'TCAGAC'
p31
I9947
sS'TCAGAA'
p32
I17108
sS'GTCAAT'
p33
I5001
sS'GTATCA'
p34
I4493
sS'GTATCC'
p35
I4170
sS'GTATCG'
p36
I995
sS'CTGTCT'
p37
I18483
sS'GGTGTC'
p38
I9549
sS'TACCCT'
p39
I6861
sS'GGTGTA'
p40
I4973
sS'GGTGTG'
p41
I15693
sS'TATCCT'
p42
I7129
sS'CCGGGG'
p43
I18318
sS'TTCTGT'
p44
I17956
sS'ATTCCT'
p45
I14660
sS'CCGGGC'
p46
I20953
sS'CCGGGA'
p47
I14441
sS'TATCCA'
p48
I6610
sS'TATCCC'
p49
I5793
sS'TGGTTG'
p50
I9553
sS'TATCCG'
p51
I1442
sS'GGTGTT'
p52
I9041
sS'ATTCCG'
p53
I2967
sS'TTCTGG'
p54
I18621
sS'CCGGGT'
p55
I8832
sS'ATTCCC'
p56
I11343
sS'TTCTGC'
p57
I16286
sS'ATTCCA'
p58
I14835
sS'TTCTGA'
p59
I16919
sS'TGCACT'
p60
I11584
sS'CTGCCC'
p61
I29567
sS'GGNCCG'
p62
I1
sS'CGTCAT'
p63
I2674
sS'GTTCTC'
p64
I10849
sS'CCCGCG'
p65
I15876
sS'ACGAAC'
p66
I1899
sS'CGCGGG'
p67
I15837
sS'NCCGCC'
p68
I1
sS'CGCGGC'
p69
I16973
sS'CGCGGA'
p70
I6939
sS'GTCCTT'
p71
I10572
sS'ACCTGT'
p72
I11454
sS'ATACTA'
p73
I4493
sS'TCATGT'
p74
I9691
sS'CTCCGA'
p75
I5619
sS'TTACAG'
p76
I14154
sS'CTCCGC'
p77
I16039
sS'TTACAA'
p78
I10207
sS'TTACAC'
p79
I6484
sS'CTCCGG'
p80
I11940
sS'TCATGC'
p81
I9053
sS'TGCGAT'
p82
I2103
sS'TCATGA'
p83
I9865
sS'TCATGG'
p84
I9861
sS'ACCTGC'
p85
I15156
sS'ACCTGA'
p86
I11768
sS'GTATTT'
p87
I13081
sS'CTCGAT'
p88
I2113
sS'CTCCGT'
p89
I6142
sS'GCCTGA'
p90
I15093
sS'GCCTGC'
p91
I21178
sS'GCCTGG'
p92
I33644
sS'TCTTGC'
p93
I11429
sS'TAAAGG'
p94
I10706
sS'CAAATT'
p95
I11713
sS'TAAAGA'
p96
I12640
sS'TAAAGC'
p97
I8780
sS'GCCTGT'
p98
I16673
sS'TCCCCG'
p99
I14348
sS'TAAAGT'
p100
I9801
sS'CAAATA'
p101
I12343
sS'CAAATC'
p102
I9778
sS'CGTGCT'
p103
I4705
sS'CAAATG'
p104
I13519
sS'AATACT'
p105
I8449
sS'TATCTC'
p106
I7393
sS'CCGGCG'
p107
I12572
sS'GGCATG'
p108
I11667
sS'GGCATA'
p109
I5083
sS'GGCATC'
p110
I8511
sS'AATACG'
p111
I1915
sS'AATACA'
p112
I12009
sS'AATACC'
p113
I6269
sS'GGCATT'
p114
I10071
sS'CGTCAG'
p115
I4455
sS'TGCACA'
p116
I12848
sS'GAGCAC'
p117
I10125
sS'GAGCAA'
p118
I11791
sS'GAGCAG'
p119
I20353
sS'AGTAGT'
p120
I5931
sS'TCTCGC'
p121
I6086
sS'TCTCGA'
p122
I3471
sS'TCTCGG'
p123
I6915
sS'AGTAGC'
p124
I7930
sS'AGTAGA'
p125
I8878
sS'ACTAAC'
p126
I4895
sS'AGTAGG'
p127
I8298
sS'GAGCAT'
p128
I7916
sS'ACGGCC'
p129
I5717
sS'TTTGTT'
p130
I22626
sS'GTGTCG'
p131
I2873
sS'TCGAAC'
p132
I2406
sS'TCGAAA'
p133
I2163
sS'GTGTCC'
p134
I10754
sS'TCGAAG'
p135
I2553
sS'GTGTCA'
p136
I9620
sS'CTTGCT'
p137
I14596
sS'TCGGTC'
p138
I3116
sS'CCACAA'
p139
I12526
sS'GTGTCT'
p140
I12215
sS'AGCCCC'
p141
I22472
sS'TCGAAT'
p142
I1806
sS'CTTGCG'
p143
I3802
sS'CTTGCA'
p144
I10657
sS'CTTGCC'
p145
I12870
sS'CGAAAG'
p146
I3603
sS'CGAAAA'
p147
I3081
sS'CGAAAC'
p148
I2862
sS'AATCAT'
p149
I9986
sS'AAATGC'
p150
I14281
sS'CACGGC'
p151
I6914
sS'AAATGA'
p152
I20101
sS'AAATGG'
p153
I15267
sS'CACGGG'
p154
I6604
sS'ACAGTA'
p155
I8154
sS'CGAAAT'
p156
I2385
sS'ACAGTT'
p157
I10256
sS'AATCAG'
p158
I11888
sS'AATCAA'
p159
I10265
sS'AAATGT'
p160
I17896
sS'AATCAC'
p161
I10009
sS'TTTGTA'
p162
I13120
sS'GCTCAA'
p163
I9422
sS'TCTAGT'
p164
I7474
sS'TTGCCG'
p165
I3648
sS'TTGCCA'
p166
I12018
sS'GGGTAT'
p167
I4554
sS'TTGCCT'
p168
I13601
sS'TCTAGG'
p169
I9211
sS'GGGTAA'
p170
I6636
sS'TCTAGA'
p171
I8653
sS'GGGTAG'
p172
I7960
sS'TCTAGC'
p173
I6842
sS'ATACGG'
p174
I1442
sS'TGACTA'
p175
I7455
sS'AATTGG'
p176
I7397
sS'TGGGCC'
p177
I17300
sS'AGATGT'
p178
I9984
sS'TCGCCC'
p179
I8477
sS'TCGCCA'
p180
I4543
sS'TCGCCG'
p181
I5315
sS'GGTAAT'
p182
I5669
sS'ACCCAT'
p183
I7421
sS'ACCCAC'
p184
I12673
sS'GGTAAC'
p185
I5172
sS'ACCCAA'
p186
I9854
sS'AGATGG'
p187
I15347
sS'ACCCAG'
p188
I19967
sS'GGTAAG'
p189
I6956
sS'TCGCCT'
p190
I5706
sS'AGATGC'
p191
I9622
sS'TTTGAG'
p192
I15640
sS'CCCCAT'
p193
I13053
sS'TTGGGT'
p194
I9889
sS'CACTAG'
p195
I8059
sS'GTTCCG'
p196
I4205
sS'CACTAC'
p197
I5552
sS'CCCCAA'
p198
I16271
sS'CCCCAC'
p199
I24893
sS'CCCCAG'
p200
I30490
sS'CACTAT'
p201
I5648
sS'TTGGGG'
p202
I15899
sS'CCGTCC'
p203
I7536
sS'TTGGGA'
p204
I16059
sS'TTGGGC'
p205
I10741
sS'TGCCTG'
p206
I23432
sS'GTGGGT'
p207
I12837
sS'TTTCTG'
p208
I23412
sS'TGCAGC'
p209
I18680
sS'TTTCTA'
p210
I14624
sS'TTTCTC'
p211
I23386
sS'TGCAGG'
p212
I20140
sS'GGGTCA'
p213
I10244
sS'TACCGC'
p214
I2344
sS'TGNNNN'
p215
I1
sS'GTATCT'
p216
I5998
sS'TTTCTT'
p217
I30543
sS'TGCCTT'
p218
I16381
sS'TGCAGT'
p219
I16541
sS'ACAATT'
p220
I9041
sS'AAGGAA'
p221
I25108
sS'AAGGAC'
p222
I10607
sS'AAGGAG'
p223
I20823
sS'ATATGC'
p224
I5389
sS'GTTCCA'
p225
I9904
sS'ATATGA'
p226
I7420
sS'ATATGG'
p227
I5712
sS'AAGGAT'
p228
I10145
sS'CTATCA'
p229
I5211
sS'ATATGT'
p230
I8025
sS'GGTCCC'
p231
I14389
sS'TCCGGT'
p232
I3812
sS'CCACTG'
p233
I19023
sS'GCCCAA'
p234
I10753
sS'GGTCCG'
p235
I5199
sS'AGGTCT'
p236
I10801
sS'ATGGCG'
p237
I5371
sS'AGACCC'
p238
I11787
sS'ATTGTT'
p239
I10143
sS'CTTCGA'
p240
I2501
sS'CTTCGC'
p241
I4978
sS'ATGCAA'
p242
I9805
sS'GCCCAT'
p243
I8891
sS'AGGTCA'
p244
I13381
sS'TCCGGC'
p245
I8469
sS'GGTCCT'
p246
I10911
sS'TCCGGA'
p247
I5604
sS'CTACCT'
p248
I8828
sS'ATTGTG'
p249
I8793
sS'CTTAGA'
p250
I8415
sS'CCACTC'
p251
I14573
sS'CTTAGG'
p252
I8576
sS'ATTGTC'
p253
I6422
sS'TCTTGG'
p254
I14294
sS'GCCTTT'
p255
I14972
sS'ATTTTG'
p256
I15438
sS'GAGGTG'
p257
I19029
sS'ATTTTA'
p258
I20367
sS'TAAATT'
p259
I13259
sS'ATTTTC'
p260
I18001
sS'GATTTG'
p261
I9810
sS'TAGCAG'
p262
I8725
sS'GATACT'
p263
I4687
sS'TAGCAC'
p264
I5978
sS'TAGCAA'
p265
I7990
sS'GAGGTT'
p266
I11396
sS'ATTTTT'
p267
I30502
sS'GCCTTG'
p268
I14269
sS'TAGTGT'
p269
I5946
sS'GCCTTA'
p270
I6884
sS'TTGACA'
p271
I8305
sS'GCCTTC'
p272
I15811
sS'GATACG'
p273
I1310
sS'TAGCAT'
p274
I6167
sS'GATACC'
p275
I3679
sS'GATTTC'
p276
I10492
sS'TGAGCT'
p277
I14714
sS'GATCAT'
p278
I5874
sS'ACCGAG'
p279
I4897
sS'AAGACC'
p280
I9533
sS'GATTTA'
p281
I8230
sS'AAACAT'
p282
I14458
sS'AAGACG'
p283
I4005
sS'GATCAG'
p284
I7433
sS'TGAGCG'
p285
I5506
sS'ACGCTG'
p286
I5740
sS'TGAGCA'
p287
I13599
sS'TGAGCC'
p288
I18152
sS'AAGACT'
p289
I10908
sS'GCGGTC'
p290
I5134
sS'GCGGTA'
p291
I2383
sS'CGTGCA'
p292
I4404
sS'GCGGTG'
p293
I10484
sS'CGGTGT'
p294
I3966
sS'TCGTTA'
p295
I1538
sS'TCGTTC'
p296
I2586
sS'CTTCCC'
p297
I28166
sS'TCGTTG'
p298
I2180
sS'TGTGTG'
p299
I34600
sS'GCGGTT'
p300
I3928
sS'ACTTGC'
p301
I8544
sS'ACCACC'
p302
I12377
sS'ACTTGA'
p303
I9898
sS'CGGTGG'
p304
I9420
sS'ACTTGG'
p305
I12059
sS'CGGTGA'
p306
I5353
sS'CCGTTA'
p307
I1726
sS'CGGTGC'
p308
I6741
sS'TTCCTA'
p309
I11617
sS'TAGACT'
p310
I5723
sS'TTCCTC'
p311
I23529
sS'ACTGAC'
p312
I9034
sS'ATGTGC'
p313
I8748
sS'TTCCTG'
p314
I26141
sS'TCCTTT'
p315
I21112
sS'GACCCA'
p316
I10815
sS'ACGCTA'
p317
I1702
sS'TAGACG'
p318
I1743
sS'TTCCTT'
p319
I25001
sS'TAGACC'
p320
I4299
sS'TAGACA'
p321
I7037
sS'TCCTTG'
p322
I14708
sS'TCCTTA'
p323
I9923
sS'TCCTTC'
p324
I20601
sS'ATCTCT'
p325
I13153
sS'TCCGCA'
p326
I5124
sS'ACCGTT'
p327
I2176
sS'TGGCGC'
p328
I9364
sS'TGGCGA'
p329
I4514
sS'TGTNNN'
p330
I1
sS'TGGCGG'
p331
I11245
sS'ATCTCG'
p332
I3451
sS'ATCTCA'
p333
I12025
sS'ATCTCC'
p334
I11235
sS'GGCCAA'
p335
I13812
sS'GGCCAC'
p336
I17549
sS'ACCGTG'
p337
I4296
sS'ATGCAG'
p338
I12280
sS'TGGCGT'
p339
I4584
sS'ACCGTC'
p340
I2971
sS'ACCGAC'
p341
I2436
sS'AGAATT'
p342
I13833
sS'GGCAGT'
p343
I13566
sS'CCATAA'
p344
I6777
sS'CAAAGG'
p345
I16150
sS'CCATAC'
p346
I4503
sS'ACGCTC'
p347
I3944
sS'AGATTC'
p348
I9177
sS'CAAAGC'
p349
I14463
sS'CAACGT'
p350
I2867
sS'GGCAGA'
p351
I20225
sS'GGCAGC'
p352
I24235
sS'TAAGTT'
p353
I7469
sS'GGCAGG'
p354
I31313
sS'CAACGC'
p355
I3302
sS'CAAAGT'
p356
I14230
sS'CAACGA'
p357
I2179
sS'GCACTC'
p358
I10756
sS'CCATAT'
p359
I5708
sS'GCACTG'
p360
I14065
sS'GGGGGT'
p361
I13517
sS'TACGCT'
p362
I1526
sS'GAAACC'
p363
I13318
sS'CGATCT'
p364
I2991
sS'NNNNNC'
p365
I1
sS'CTCTAG'
p366
I10216
sS'CTCTAA'
p367
I9321
sS'CTCTAC'
p368
I9082
sS'GGGGGG'
p369
I14681
sS'CGATCC'
p370
I2862
sS'TACGCC'
p371
I1962
sS'GGGGGC'
p372
I25674
sS'CGATCG'
p373
I982
sS'GGGGGA'
p374
I19327
sS'TACGCG'
p375
I1217
sS'CTCTAT'
p376
I7074
sS'CCCCGC'
p377
I30956
sS'CAGACC'
p378
I12161
sS'CAGACA'
p379
I15491
sS'CAGACG'
p380
I5282
sS'CGCTAA'
p381
I2040
sS'TAGTTG'
p382
I5500
sS'GCTAAT'
p383
I6837
sS'TAGTTC'
p384
I5848
sS'TAGTTA'
p385
I5461
sS'CAGACT'
p386
I12080
sS'GCTAAG'
p387
I7414
sS'TAGTTT'
p388
I9803
sS'GCTAAC'
p389
I4660
sS'GCTAAA'
p390
I7499
sS'TAAGTG'
p391
I8728
sS'TGCTGC'
p392
I19797
sS'AACCCT'
p393
I10621
sS'CTTGAC'
p394
I7650
sS'TGCATG'
p395
I10114
sS'TGCATA'
p396
I6732
sS'TTTCCG'
p397
I5394
sS'TGCATC'
p398
I7877
sS'AGAATA'
p399
I10134
sS'CTACAA'
p400
I7842
sS'ACGTAC'
p401
I1509
sS'AGTTTC'
p402
I13862
sS'CTACAG'
p403
I9983
sS'CCCAGA'
p404
I22904
sS'CCCAGC'
p405
I37051
sS'AGAATC'
p406
I10602
sS'CAGTCC'
p407
I13099
sS'CCCAGG'
p408
I37382
sS'AACTGT'
p409
I10353
sS'AGTTTT'
p410
I16031
sS'CTACAT'
p411
I6274
sS'AGTCAA'
p412
I8675
sS'CAATTT'
p413
I11113
sS'CCCAGT'
p414
I15996
sS'CGCATA'
p415
I1218
sS'ATACTG'
p416
I6989
sS'CGCATC'
p417
I3064
sS'CTTGAA'
p418
I12920
sS'ATACTC'
p419
I4728
sS'CGCATG'
p420
I3675
sS'GCGCAA'
p421
I3299
sS'GCGAAT'
p422
I1945
sS'ATACTT'
p423
I7739
sS'CGCATT'
p424
I2695
sS'AGGCCC'
p425
I19892
sS'GCTCCG'
p426
I12864
sS'TATTGT'
p427
I7698
sS'GCTCCC'
p428
I22910
sS'GCTCCA'
p429
I16447
sS'CCTACT'
p430
I8239
sS'TGTACT'
p431
I6835
sS'TTTAGT'
p432
I10062
sS'TATTGG'
p433
I6136
sS'GCTCCT'
p434
I19604
sS'TATTGC'
p435
I5778
sS'TATTGA'
p436
I6967
sS'TTTAGG'
p437
I9415
sS'TGTACG'
p438
I1605
sS'CCTACG'
p439
I2565
sS'TGTACA'
p440
I7742
sS'GCTGGG'
p441
I36961
sS'TGTACC'
p442
I5253
sS'TTTAGA'
p443
I11070
sS'TTCGCG'
p444
I2307
sS'TTCGCA'
p445
I2448
sS'TTCGCC'
p446
I4239
sS'AGTATC'
p447
I4756
sS'GACTAA'
p448
I6554
sS'AGTATA'
p449
I5054
sS'TTTGGG'
p450
I17302
sS'AGTATG'
p451
I5647
sS'TTTGGA'
p452
I14539
sS'TTTGGC'
p453
I11423
sS'TTCGCT'
p454
I3623
sS'GATCNN'
p455
I1
sS'TTTGGT'
p456
I11454
sS'GACTAT'
p457
I4161
sS'AGTATT'
p458
I8144
sS'TTACTC'
p459
I7932
sS'TTACTA'
p460
I6599
sS'TTACTG'
p461
I9523
sS'ACCTTG'
p462
I10952
sS'ACCTTC'
p463
I11204
sS'ACCTTA'
p464
I6226
sS'TTACTT'
p465
I11044
sS'ACGCTT'
p466
I3028
sS'ACCTTT'
p467
I11368
sS'ACAGGG'
p468
I16054
sS'CTGGGA'
p469
I31071
sS'CTGGGC'
p470
I32148
sS'ACAGGC'
p471
I17082
sS'CTTTTA'
p472
I14575
sS'TTATAT'
p473
I9158
sS'CTGGGG'
p474
I30616
sS'AGGACG'
p475
I5956
sS'GCAGCT'
p476
I19557
sS'CAGGAA'
p477
I26811
sS'TCGCTT'
p478
I4372
sS'CAGGAG'
p479
I29856
sS'AGGACA'
p480
I14982
sS'GCGCAT'
p481
I3435
sS'TTATAC'
p482
I4961
sS'ACAGGT'
p483
I11285
sS'CTGGGT'
p484
I19927
sS'TTATAG'
p485
I6380
sS'TCGCTG'
p486
I6081
sS'GAGTTG'
p487
I9462
sS'GCAGCG'
p488
I12789
sS'AGGACT'
p489
I12356
sS'GCAGCA'
p490
I19660
sS'GCAGCC'
p491
I26131
sS'CAGGAT'
p492
I12814
sS'CCTCAG'
p493
I24843
sS'CCTCAA'
p494
I12166
sS'CCTCAC'
p495
I16471
sS'TATGTT'
p496
I8528
sS'ATGGGC'
p497
I8713
sS'TCTTTG'
p498
I15968
sS'ATGGGA'
p499
I11995
sS'TCTTTA'
p500
I12518
sS'ATGGGG'
p501
I13040
sS'TCTTTC'
p502
I19807
sS'CCTCAT'
p503
I12173
sS'TCTTTT'
p504
I24065
sS'TATGTG'
p505
I9014
sS'TATGTA'
p506
I7462
sS'ATGGGT'
p507
I7322
sS'TATGTC'
p508
I5238
sS'ACCTGG'
p509
I18216
sS'GAAAGA'
p510
I20363
sS'ATCAAG'
p511
I7687
sS'CATGAT'
p512
I7921
sS'ATCAAC'
p513
I5288
sS'GAAAGG'
p514
I19782
sS'GTCCAC'
p515
I8044
sS'CGCTAG'
p516
I2911
sS'ACGTGG'
p517
I6540
sS'GGAGGA'
p518
I31632
sS'ATCAAT'
p519
I6437
sS'GTCCAA'
p520
I6943
sS'GAAAGT'
p521
I12516
sS'CATGAA'
p522
I10955
sS'GTAGCG'
p523
I2425
sS'CAAGTT'
p524
I10132
sS'GCGGCT'
p525
I11732
sS'GTAGCC'
p526
I6049
sS'GCTTTC'
p527
I13792
sS'AAAGTA'
p528
I11701
sS'GCGGCG'
p529
I22606
sS'CAAGTG'
p530
I11956
sS'GTAGCT'
p531
I8082
sS'GCGGCC'
p532
I19740
sS'CAAGTC'
p533
I9715
sS'GCGGCA'
p534
I8251
sS'TTACAT'
p535
I9510
sS'AACGGT'
p536
I2135
sS'CGTACG'
p537
I806
sS'ACCCTC'
p538
I13004
sS'TAATCG'
p539
I1233
sS'CTTGTG'
p540
I11672
sS'TAATCA'
p541
I7706
sS'TAATCC'
p542
I9208
sS'TGCGAA'
p543
I2418
sS'CGGCCC'
p544
I18260
sS'CGACTA'
p545
I1250
sS'AAAATT'
p546
I20508
sS'CGGCCG'
p547
I14796
sS'TCGTGA'
p548
I2708
sS'CTTGTA'
p549
I7002
sS'GGTCTG'
p550
I12069
sS'GAGTTC'
p551
I10220
sS'GGTCTC'
p552
I13176
sS'GGTCTA'
p553
I4307
sS'AAAATG'
p554
I23149
sS'AAAATC'
p555
I14232
sS'CGGCCT'
p556
I12016
sS'TTCAGC'
p557
I13004
sS'CTAACC'
p558
I5773
sS'TTCAGA'
p559
I15924
sS'TTCAGG'
p560
I15208
sS'GAACAT'
p561
I7945
sS'TCGTCG'
p562
I1471
sS'TTTAGC'
p563
I7577
sS'TGTTTT'
p564
I25559
sS'GAACAA'
p565
I10751
sS'ATCCCG'
p566
I4464
sS'GAACAC'
p567
I8502
sS'TCGTCT'
p568
I3068
sS'GAACAG'
p569
I12421
sS'TTCAGT'
p570
I13324
sS'ATTGCA'
p571
I9074
sS'CACCAC'
p572
I16433
sS'NNNCTG'
p573
I1
sS'CACCAA'
p574
I10781
sS'CACCAG'
p575
I17723
sS'TCCGTG'
p576
I5059
sS'AACGGG'
p577
I3861
sS'TCCGTC'
p578
I4670
sS'TTGATT'
p579
I10115
sS'TCCGTA'
p580
I1874
sS'ACCAGA'
p581
I11947
sS'ACGCGA'
p582
I1951
sS'CACCAT'
p583
I11441
sS'AACATG'
p584
I10765
sS'AACATA'
p585
I8474
sS'AACATC'
p586
I8155
sS'GTCAGC'
p587
I11169
sS'GCACGG'
p588
I6068
sS'GTCAGA'
p589
I11100
sS'GCACGA'
p590
I2949
sS'GTCAGG'
p591
I14539
sS'GCACGC'
p592
I6444
sS'CAGTCA'
p593
I12392
sS'AACAAC'
p594
I9634
sS'GCACCA'
p595
I11327
sS'GCAAGC'
p596
I9202
sS'GCACGT'
p597
I4417
sS'CAGTCT'
p598
I13047
sS'TCAGCT'
p599
I15954
sS'GTCAGT'
p600
I8870
sS'TATCTA'
p601
I5601
sS'GTATAC'
p602
I2859
sS'TTCCGT'
p603
I3978
sS'ACGGCT'
p604
I3978
sS'GTATAG'
p605
I3185
sS'CCGGAA'
p606
I7295
sS'CCGGAC'
p607
I5917
sS'CCGGAG'
p608
I12042
sS'TATCAT'
p609
I6134
sS'CTCGTA'
p610
I1596
sS'TTCCGG'
p611
I7422
sS'TTCCGA'
p612
I3460
sS'TTCCGC'
p613
I6078
sS'GTATAT'
p614
I5311
sS'CGTCTC'
p615
I6847
sS'CGTCTA'
p616
I1811
sS'CGTCTG'
p617
I5325
sS'CCGGAT'
p618
I3504
sS'CTCTTC'
p619
I19404
sS'TGTTAT'
p620
I8398
sS'CTCTTA'
p621
I9251
sS'CTCTTG'
p622
I13873
sS'CCCGAT'
p623
I2459
sS'TACGTA'
p624
I1588
sS'CTGACA'
p625
I12395
sS'TACGTC'
p626
I1503
sS'TCTGGT'
p627
I11772
sS'AACAAA'
p628
I22582
sS'CGCGAT'
p629
I2175
sS'TACGTG'
p630
I2544
sS'TGTTAG'
p631
I7548
sS'GGTTTC'
p632
I12978
sS'AAGCTT'
p633
I10687
sS'CTCTTT'
p634
I19333
sS'TGTTAA'
p635
I9584
sS'TCTGGG'
p636
I23079
sS'CGCGAC'
p637
I3500
sS'CCCTGC'
p638
I27926
sS'TCTGGC'
p639
I15972
sS'TACGTT'
p640
I1944
sS'TCTGGA'
p641
I16663
sS'AGTCGT'
p642
I2161
sS'TTACCT'
p643
I9413
sS'CTCCAT'
p644
I13092
sS'AACACA'
p645
I15172
sS'TTACCG'
p646
I2013
sS'CTCCAC'
p647
I18344
sS'AGTCGG'
p648
I4194
sS'TTACCC'
p649
I6746
sS'CTCCAG'
p650
I28166
sS'TTACCA'
p651
I7916
sS'AGTCGC'
p652
I3624
sS'CTCCAN'
p653
I1
sS'GTACCG'
p654
I1613
sS'CCGACT'
p655
I4068
sS'GCCTAC'
p656
I5607
sS'GCCTAA'
p657
I6069
sS'CCGAGG'
p658
I12824
sS'GCCTAG'
p659
I8635
sS'CCGACA'
p660
I3315
sS'CCCTGT'
p661
I16084
sS'CCGACC'
p662
I5793
sS'CCGACG'
p663
I3172
sS'AACTCA'
p664
I11024
sS'GCCTAT'
p665
I4981
sS'AAGCTA'
p666
I7265
sS'ACGCGG'
p667
I5194
sS'CCCGAG'
p668
I11385
sS'AAGCTG'
p669
I16158
sS'CCCGAA'
p670
I4711
sS'CGCACA'
p671
I5396
sS'ATACAC'
p672
I6670
sS'CGCACC'
p673
I6977
sS'GGGTCG'
p674
I5705
sS'ACTGCT'
p675
I12788
sS'ATACAG'
p676
I8309
sS'CGCACG'
p677
I4754
sS'GGGTCC'
p678
I12918
sS'CTCACT'
p679
I17691
sS'GGGTCT'
p680
I11849
sS'ACTGCA'
p681
I16702
sS'TTTGTC'
p682
I11755
sS'ACTGCC'
p683
I13733
sS'CGCACT'
p684
I4348
sS'TTTGTG'
p685
I15434
sS'ACTGCG'
p686
I5353
sS'CTCACC'
p687
I17715
sS'CTCACA'
p688
I15701
sS'CTCACG'
p689
I6303
sS'TAGTGG'
p690
I8030
sS'GTGAGG'
p691
I15960
sS'GATTTT'
p692
I14138
sS'TAGTGC'
p693
I5056
sS'GTGAGC'
p694
I14207
sS'TAGTGA'
p695
I7248
sS'GTGAGA'
p696
I12769
sS'TCGACG'
p697
I1076
sS'TCGACA'
p698
I1505
sS'TAGAGG'
p699
I10127
sS'ACAATA'
p700
I7992
sS'GTGAGT'
p701
I13455
sS'GTGGGG'
p702
I24752
sS'GTGGGA'
p703
I17311
sS'GTGGGC'
p704
I15675
sS'TCGACT'
p705
I1866
sS'GTGGGN'
p706
I1
sS'ACGTAA'
p707
I2158
sS'CTGGTT'
p708
I12558
sS'TGCAAA'
p709
I14530
sS'CGAACG'
p710
I1599
sS'CGAACC'
p711
I2877
sS'CGAACA'
p712
I2223
sS'CTGGTG'
p713
I17536
sS'CTGGTA'
p714
I7370
sS'CTGGTC'
p715
I13015
sS'CTGCAA'
p716
I14551
sS'CGAACT'
p717
I3039
sS'TTGCAT'
p718
I9466
sS'NNGAAT'
p719
I1
sS'TTGCAG'
p720
I14726
sS'TCCATA'
p721
I6436
sS'TTGCAC'
p722
I7720
sS'TTGCAA'
p723
I10309
sS'AAGATC'
p724
I7599
sS'TCCATC'
p725
I10929
sS'TCGCAT'
p726
I1730
sS'GAGCGG'
p727
I11002
sS'GTCGTG'
p728
I2777
sS'GTCGTA'
p729
I1138
sS'GTCGTC'
p730
I2475
sS'CCGTTT'
p731
I4274
sS'ACTGAT'
p732
I7666
sS'GTCGTT'
p733
I1983
sS'TCGCAG'
p734
I5160
sS'CGAATT'
p735
I2048
sS'CCAAGC'
p736
I13206
sS'TCGCAC'
p737
I2808
sS'CCGTTG'
p738
I2848
sS'CGCTGC'
p739
I13145
sS'CCGTTC'
p740
I3831
sS'GATCGG'
p741
I2122
sS'AATGCT'
p742
I11395
sS'GGTACG'
p743
I1673
sS'GGTACA'
p744
I5361
sS'GGTACC'
p745
I4297
sS'TATTTG'
p746
I12366
sS'CCAGTT'
p747
I11864
sS'TATTTC'
p748
I13753
sS'TATTTA'
p749
I15566
sS'CCCCCT'
p750
I20043
sS'GGTACT'
p751
I4865
sS'AATGCG'
p752
I2613
sS'AATCTT'
p753
I10378
sS'AATGCC'
p754
I9826
sS'AATGCA'
p755
I12513
sS'CCCCCC'
p756
I14566
sS'CCCCCA'
p757
I22632
sS'TATTTT'
p758
I26533
sS'CCCCCG'
p759
I15798
sS'CTTGAG'
p760
I13093
sS'ATGATG'
p761
I9255
sS'ATGATA'
p762
I6167
sS'GCGTTA'
p763
I1711
sS'AGACGC'
p764
I5325
sS'CGGACT'
p765
I3845
sS'TGCAAC'
p766
I8179
sS'TTGAGT'
p767
I9593
sS'TGCAAG'
p768
I10599
sS'GCCGTC'
p769
I5618
sS'ATGATT'
p770
I10163
sS'CTTGAT'
p771
I7607
sS'ACGGGA'
p772
I4832
sS'CGAATC'
p773
I2141
sS'TTGAGG'
p774
I12318
sS'AATCTC'
p775
I9897
sS'CAATGT'
p776
I7787
sS'TTGAGC'
p777
I9317
sS'TTGAGA'
p778
I13635
sS'GAGAAT'
p779
I12419
sS'TGTCTT'
p780
I14428
sS'CGAATA'
p781
I1347
sS'ACTGAG'
p782
I15071
sS'AAGGCC'
p783
I13842
sS'TATCGA'
p784
I958
sS'AAGGCA'
p785
I16469
sS'ATAACA'
p786
I8319
sS'AAGGCG'
p787
I7207
sS'ATAACG'
p788
I1560
sS'GAGGGT'
p789
I13123
sS'TGTCTG'
p790
I15740
sS'ACGTAG'
p791
I2169
sS'GAGAAA'
p792
I23544
sS'TGTCTC'
p793
I15530
sS'GAGAAC'
p794
I10994
sS'TGTCTA'
p795
I6933
sS'TGTGGC'
p796
I15857
sS'TGTGGA'
p797
I13444
sS'TGTGGG'
p798
I17744
sS'ATAACT'
p799
I7221
sS'AAGGCT'
p800
I14133
sS'TAGGCT'
p801
I7505
sS'GCCCCG'
p802
I25396
sS'ACCAAG'
p803
I10630
sS'GGTCAG'
p804
I13813
sS'GCCCCC'
p805
I26000
sS'GGTCAA'
p806
I6482
sS'GCCCCA'
p807
I22549
sS'GGTCAC'
p808
I10373
sS'AACAAT'
p809
I10378
sS'GATCGC'
p810
I3061
sS'GGTCAT'
p811
I6931
sS'CGTGCC'
p812
I6046
sS'TGTGGT'
p813
I14270
sS'AGGTAA'
p814
I9252
sS'CAAACT'
p815
I11944
sS'TTTTGC'
p816
I13317
sS'TCTTAC'
p817
I7225
sS'TTTTGA'
p818
I16300
sS'TCTTAA'
p819
I10882
sS'TTTTGG'
p820
I14526
sS'TCTTAG'
p821
I8645
sS'AATTGC'
p822
I7526
sS'TAGCCA'
p823
I8847
sS'TGGGGT'
p824
I15510
sS'CGCTCG'
p825
I5913
sS'GATAAT'
p826
I6364
sS'GAGAAG'
p827
I20953
sS'CGCTCC'
p828
I12634
sS'AATTGT'
p829
I8896
sS'CGAGAG'
p830
I6239
sS'GCCATC'
p831
I10429
sS'TCTTAT'
p832
I8291
sS'TTTTGT'
p833
I22149
sS'CGCTCT'
p834
I7701
sS'GATAAA'
p835
I9553
sS'GATAAC'
p836
I4270
sS'TAGCCT'
p837
I7590
sS'TGGGGC'
p838
I22417
sS'GATAAG'
p839
I6007
sS'GATCCT'
p840
I8762
sS'AAGAAT'
p841
I14255
sS'CGAAGT'
p842
I2878
sS'GTTATC'
p843
I4380
sS'AAGAAC'
p844
I11529
sS'GATCCA'
p845
I7375
sS'AAGAAA'
p846
I30915
sS'ATGCCA'
p847
I11047
sS'AAGAAG'
p848
I18089
sS'GATCCG'
p849
I3690
sS'ATACCA'
p850
I6243
sS'ATGCCG'
p851
I2848
sS'CAAGGG'
p852
I13222
sS'ATCGAG'
p853
I2033
sS'CAAGGC'
p854
I14124
sS'GGTTCT'
p855
I10398
sS'CAAGGA'
p856
I14695
sS'GGTTCA'
p857
I8729
sS'GGTTCC'
p858
I10877
sS'CAAGGT'
p859
I10823
sS'TGCATT'
p860
I12395
sS'GGTTCG'
p861
I2875
sS'TAGGCA'
p862
I8155
sS'ATTATA'
p863
I8495
sS'ATTATC'
p864
I6575
sS'TAGAAT'
p865
I8837
sS'CAAACG'
p866
I3619
sS'ATTATG'
p867
I7286
sS'AGTCTT'
p868
I10784
sS'TAGAAA'
p869
I14848
sS'TAGAAC'
p870
I6249
sS'ATTATT'
p871
I13815
sS'TAGAAG'
p872
I9707
sS'AGTCTA'
p873
I5723
sS'AGTCTC'
p874
I12511
sS'AGTCTG'
p875
I12225
sS'TAACTC'
p876
I6610
sS'TAACTA'
p877
I5486
sS'TAACTG'
p878
I8357
sS'ATCTAT'
p879
I5889
sS'ACGCGT'
p880
I1760
sS'AGGTAT'
p881
I6292
sS'TAACTT'
p882
I9093
sS'ATCTAG'
p883
I6268
sS'ATCTAC'
p884
I5130
sS'ATCTAA'
p885
I6637
sS'CCATGT'
p886
I10770
sS'ACCAAA'
p887
I11098
sS'TGGAGG'
p888
I23159
sS'TGGAGA'
p889
I19796
sS'TGGAGC'
p890
I16660
sS'CCATGC'
p891
I9827
sS'TCCAGA'
p892
I16835
sS'CCATGA'
p893
I10151
sS'CCATGG'
p894
I12492
sS'TGGAGT'
p895
I14784
sS'ATTACG'
p896
I1503
sS'TCAGTA'
p897
I8111
sS'TCAGTC'
p898
I10183
sS'CTCTCT'
p899
I26883
sS'GGGGAT'
p900
I10263
sS'TCAGTG'
p901
I14194
sS'CGATAT'
p902
I974
sS'GGGGAA'
p903
I20859
sS'GGGGAC'
p904
I15683
sS'CTCTCC'
p905
I26389
sS'TCAGTT'
p906
I12395
sS'GGGGAG'
p907
I31875
sS'CGATAG'
p908
I1126
sS'CGATAA'
p909
I1280
sS'TATCAA'
p910
I6124
sS'CTAAGG'
p911
I8438
sS'GTGTTT'
p912
I14417
sS'ATAACC'
p913
I5212
sS'GCTACT'
p914
I7969
sS'GTGGTT'
p915
I11052
sS'GTGTTC'
p916
I8593
sS'GTGTTA'
p917
I6486
sS'GTGTTG'
p918
I9294
sS'ACCAAT'
p919
I6853
sS'GTGGTA'
p920
I6340
sS'GCTACA'
p921
I6530
sS'GTGGTC'
p922
I8711
sS'CTAAGC'
p923
I7077
sS'GTGGTG'
p924
I16650
sS'GCTACG'
p925
I2338
sS'AGGTAG'
p926
I8854
sS'TTTCGT'
p927
I2932
sS'TGCCCT'
p928
I19179
sS'AGCGTT'
p929
I3352
sS'CGTGCG'
p930
I4544
sS'TTTCGA'
p931
I2168
sS'TTTCGC'
p932
I3185
sS'TGCCCG'
p933
I8699
sS'ACAGTG'
p934
I14325
sS'AGCGTA'
p935
I1613
sS'AGCGTC'
p936
I4514
sS'AGCGTG'
p937
I5214
sS'GGCCCC'
p938
I26010
sS'GGCCCA'
p939
I17456
sS'CACGTG'
p940
I8165
sS'GGCCCG'
p941
I15862
sS'CACGTA'
p942
I2618
sS'CACGTC'
p943
I4398
sS'ACGTGC'
p944
I4355
sS'ACGTGA'
p945
I4576
sS'CTACGG'
p946
I2509
sS'ACAGTC'
p947
I8972
sS'CACGTT'
p948
I4137
sS'CTAAGT'
p949
I7056
sS'GGCCCT'
p950
I18507
sS'GGGACA'
p951
I14661
sS'AATTGA'
p952
I7964
sS'GGGACC'
p953
I14231
sS'AGGGAC'
p954
I14029
sS'GTCTCA'
p955
I12647
sS'CTACGT'
p956
I2154
sS'GCTGTC'
p957
I12490
sS'AGAGAG'
p958
I26767
sS'AGAGAA'
p959
I23726
sS'AGAGAC'
p960
I14994
sS'TCTATA'
p961
I5634
sS'GTCTTT'
p962
I12130
sS'TCTATC'
p963
I5444
sS'TCTATG'
p964
I6288
sS'AGAGAT'
p965
I13025
sS'TTCACA'
p966
I13835
sS'GTCTTG'
p967
I9931
sS'TCTATT'
p968
I9058
sS'GTCTTC'
p969
I10625
sS'GTCTTA'
p970
I6103
sS'GCAGAG'
p971
I24892
sS'CGATTG'
p972
I2021
sS'GCTCAC'
p973
I14462
sS'GCAGAC'
p974
I10419
sS'GCAGAA'
p975
I16507
sS'GCTCAG'
p976
I19432
sS'ATGCGT'
p977
I2253
sS'TTGCTG'
p978
I15500
sS'TTGCTA'
p979
I7882
sS'CGCTCA'
p980
I5661
sS'GCAGAT'
p981
I10288
sS'GCTCAT'
p982
I8893
sS'GTACGG'
p983
I1638
sS'TTGCTT'
p984
I15303
sS'ATGCGG'
p985
I3061
sS'TAGCCG'
p986
I3010
sS'ATGCGC'
p987
I3493
sS'ATGCGA'
p988
I1696
sS'TGTAAG'
p989
I8077
sS'GGCTAG'
p990
I7470
sS'TGTAAC'
p991
I6599
sS'GGCTAC'
p992
I6082
sS'TGTAAA'
p993
I13095
sS'CTGAAA'
p994
I18261
sS'ACTGTA'
p995
I8393
sS'TTGGTA'
p996
I6417
sS'ACTGTC'
p997
I9169
sS'TTGGTC'
p998
I7929
sS'TTCGAC'
p999
I1464
sS'TTCGAA'
p1000
I2312
sS'TTGGTG'
p1001
I10880
sS'GACTGC'
p1002
I10081
sS'GGCTAT'
p1003
I4980
sS'TGTAAT'
p1004
I12113
sS'GACTGG'
p1005
I12789
sS'TTCGAT'
p1006
I1654
sS'TTGGTT'
p1007
I11085
sS'ACTGTT'
p1008
I9905
sS'GTTTCT'
p1009
I16962
sS'ATAATT'
p1010
I11279
sS'CCTTTT'
p1011
I18965
sS'GTTTCG'
p1012
I2859
sS'GTTTCC'
p1013
I15520
sS'GTTTCA'
p1014
I12481
sS'ATAATG'
p1015
I8084
sS'CCTTTA'
p1016
I10565
sS'CCTTTC'
p1017
I19404
sS'ATAATC'
p1018
I6245
sS'ATAATA'
p1019
I10232
sS'CCTTTG'
p1020
I15934
sS'ACAGAA'
p1021
I18117
sS'CTCTCG'
p1022
I6267
sS'ACAGAC'
p1023
I11266
sS'GCCCCT'
p1024
I22065
sS'ACAGAG'
p1025
I20722
sS'ATATCC'
p1026
I5344
sS'CTGGAC'
p1027
I12966
sS'CTGGAA'
p1028
I21591
sS'CTGGAG'
p1029
I28644
sS'ACAGAT'
p1030
I11084
sS'TGGGGA'
p1031
I23676
sS'TTATCA'
p1032
I8055
sS'TCCAGC'
p1033
I21426
sS'TTATCC'
p1034
I6475
sS'CCAATG'
p1035
I8106
sS'AAACCG'
p1036
I3931
sS'ATTTGT'
p1037
I13161
sS'CCAATC'
p1038
I8500
sS'AAACCC'
p1039
I13028
sS'CCAATA'
p1040
I6153
sS'TGTCGG'
p1041
I3403
sS'GAGATC'
p1042
I8427
sS'AACGAG'
p1043
I3091
sS'GAGATA'
p1044
I7398
sS'TGTCGC'
p1045
I3880
sS'GAGATG'
p1046
I13899
sS'TGTCGA'
p1047
I1524
sS'ATTTGA'
p1048
I12182
sS'CCAATT'
p1049
I7414
sS'ATTTGC'
p1050
I10404
sS'TTGCCC'
p1051
I12299
sS'ATTTGG'
p1052
I11854
sS'CCCTAG'
p1053
I9968
sS'TGTCGT'
p1054
I2368
sS'CCCTAC'
p1055
I7988
sS'GAGATT'
p1056
I9889
sS'CCCTAA'
p1057
I8306
sS'CATTAT'
p1058
I8175
sS'TGTTTG'
p1059
I15678
sS'TGGATT'
p1060
I10429
sS'ATCACA'
p1061
I11194
sS'ATCACC'
p1062
I8847
sS'CATGCT'
p1063
I10525
sS'TGACAC'
p1064
I9641
sS'TGACAA'
p1065
I9954
sS'TGGATA'
p1066
I6551
sS'AGGAAC'
p1067
I12911
sS'CATTAG'
p1068
I6727
sS'CATTAA'
p1069
I9180
sS'TGGATG'
p1070
I10889
sS'CATGCA'
p1071
I10319
sS'TGACAT'
p1072
I9939
sS'CATGCC'
p1073
I11385
sS'ATCACT'
p1074
I10140
sS'AATTAG'
p1075
I9510
sS'GTAGAA'
p1076
I7752
sS'GTAGAC'
p1077
I3983
sS'GTAGAG'
p1078
I8848
sS'GATTGG'
p1079
I8409
sS'ACAACC'
p1080
I7451
sS'GCATGA'
p1081
I9224
sS'GATTGC'
p1082
I5999
sS'ACAACG'
p1083
I2399
sS'ACTAAG'
p1084
I6818
sS'GTAGAT'
p1085
I5125
sS'TGCTAC'
p1086
I6185
sS'ATACGA'
p1087
I1221
sS'ATGAGT'
p1088
I11573
sS'GATTGT'
p1089
I6069
sS'ACAACT'
p1090
I8400
sS'GCGCGT'
p1091
I4978
sS'TAATAG'
p1092
I6056
sS'GTCCGG'
p1093
I5969
sS'TAATAC'
p1094
I5454
sS'GTCCGA'
p1095
I2603
sS'TAATAA'
p1096
I12023
sS'GTCCGC'
p1097
I5780
sS'TGTTTA'
p1098
I12835
sS'GATCCC'
p1099
I8079
sS'ACTCTT'
p1100
I10762
sS'GTCCGT'
p1101
I2726
sS'TAATAT'
p1102
I8486
sS'CGTAAC'
p1103
I1470
sS'GGGNCC'
p1104
I1
sS'ATTCGC'
p1105
I1904
sS'TTCTCC'
p1106
I21424
sS'ATTCGA'
p1107
I1949
sS'TTCTCA'
p1108
I17846
sS'ATCCAT'
p1109
I7421
sS'TTCTCG'
p1110
I4483
sS'TCGTAC'
p1111
I1017
sS'TTAATT'
p1112
I13449
sS'TCGTAA'
p1113
I1522
sS'TCGTAG'
p1114
I1643
sS'TCGTCA'
p1115
I2250
sS'TAACGG'
p1116
I1811
sS'ATCCAA'
p1117
I8066
sS'ATCCAC'
p1118
I8440
sS'CTCTCA'
p1119
I15301
sS'TTCTCT'
p1120
I23742
sS'ATTCGT'
p1121
I1946
sS'GAACCC'
p1122
I10270
sS'TACCTG'
p1123
I9678
sS'TACCTA'
p1124
I5128
sS'TACCTC'
p1125
I7389
sS'TCGTAT'
p1126
I1228
sS'ATGTTA'
p1127
I8112
sS'ACCATA'
p1128
I5213
sS'ACCATG'
p1129
I10015
sS'ATGTTG'
p1130
I9683
sS'AGCTCT'
p1131
I16203
sS'TGTCCT'
p1132
I14801
sS'AGTGGT'
p1133
I10549
sS'CGTGGT'
p1134
I5461
sS'TGATGT'
p1135
I9451
sS'ATGTTT'
p1136
I14196
sS'ACCATT'
p1137
I7938
sS'AGTGGA'
p1138
I12533
sS'AGTGGC'
p1139
I15078
sS'AGCTCC'
p1140
I19060
sS'AGTGGG'
p1141
I16387
sS'TCCATG'
p1142
I10446
sS'CAGTAA'
p1143
I9752
sS'CAGTAC'
p1144
I5634
sS'CAGTAG'
p1145
I8977
sS'CGCGGT'
p1146
I5646
sS'TTTCAC'
p1147
I13994
sS'CAGTAT'
p1148
I6780
sS'GTTCCT'
p1149
I12645
sS'TGCCAG'
p1150
I18228
sS'AAAGTG'
p1151
I16440
sS'GATCTA'
p1152
I4051
sS'GATCTC'
p1153
I8577
sS'ATTGAC'
p1154
I5019
sS'GATCTG'
p1155
I9297
sS'TGCCAA'
p1156
I11841
sS'CCGGCC'
p1157
I20376
sS'ATTAGG'
p1158
I6420
sS'AAAGTT'
p1159
I13122
sS'CACATT'
p1160
I12811
sS'ATTAGC'
p1161
I6919
sS'TCCCTC'
p1162
I25390
sS'GAGCTT'
p1163
I11013
sS'TCCCTA'
p1164
I9511
sS'TGCCAC'
p1165
I14844
sS'TCCCTG'
p1166
I25344
sS'GATCTT'
p1167
I7582
sS'CTAGAC'
p1168
I5349
sS'AAGTGA'
p1169
I15259
sS'AAGTGC'
p1170
I12206
sS'TGTTCT'
p1171
I14406
sS'AAGTGG'
p1172
I13561
sS'TGATTG'
p1173
I8858
sS'TCTGAT'
p1174
I10671
sS'TGATTA'
p1175
I7655
sS'TGTTCA'
p1176
I10909
sS'CACAAG'
p1177
I11829
sS'TGTTCC'
p1178
I11913
sS'AAGTGT'
p1179
I10538
sS'CACAAC'
p1180
I8485
sS'TGTTCG'
p1181
I2185
sS'TCTGAA'
p1182
I15565
sS'TGATTT'
p1183
I14724
sS'TCCANT'
p1184
I1
sS'TCTGAG'
p1185
I18635
sS'CGCGCC'
p1186
I16993
sS'CGCGCA'
p1187
I6995
sS'GGTAAA'
p1188
I8229
sS'CGCGCG'
p1189
I14861
sS'CTCCCT'
p1190
I30629
sS'AGCGGG'
p1191
I10503
sS'AGCGGA'
p1192
I5965
sS'ACCTCT'
p1193
I13829
sS'AGATGA'
p1194
I13882
sS'GACATT'
p1195
I9185
sS'CGCGCT'
p1196
I8166
sS'GTGCGA'
p1197
I2768
sS'ACCTCA'
p1198
I13382
sS'ACCTCG'
p1199
I5424
sS'GTGCGG'
p1200
I7139
sS'GTTCTG'
p1201
I12595
sS'TAAGCC'
p1202
I7050
sS'TAGCTC'
p1203
I7283
sS'CCCATG'
p1204
I10839
sS'CGGGAA'
p1205
I8855
sS'CCCATA'
p1206
I5898
sS'TAGCTG'
p1207
I10787
sS'CCCATC'
p1208
I13019
sS'CCGAGA'
p1209
I6921
sS'CCTGCT'
p1210
I23241
sS'CCGAAT'
p1211
I2346
sS'CCCATT'
p1212
I11580
sS'CGGGAT'
p1213
I4553
sS'GCCTCG'
p1214
I11035
sS'TAGCTT'
p1215
I7359
sS'TAAGCT'
p1216
I6798
sS'GCCTCC'
p1217
I32120
sS'CCGAAC'
p1218
I2925
sS'CCTGCG'
p1219
I11931
sS'CCGAAA'
p1220
I3598
sS'CCGAAG'
p1221
I5230
sS'CCTGCC'
p1222
I31673
sS'CCTGCA'
p1223
I19881
sS'GTACTG'
p1224
I5723
sS'CCATTC'
p1225
I11560
sS'TATAAG'
p1226
I5346
sS'TATAAA'
p1227
I12642
sS'TATAAC'
p1228
I4479
sS'TAACGA'
p1229
I1610
sS'CATTTC'
p1230
I17539
sS'TATAAT'
p1231
I8358
sS'TGTGNN'
p1232
I1
sS'CCATTT'
p1233
I15528
sS'TCTACA'
p1234
I7786
sS'TCTACC'
p1235
I7345
sS'CTAACT'
p1236
I6650
sS'TCTACG'
p1237
I1925
sS'CACCGT'
p1238
I4586
sS'CGCAAC'
p1239
I2650
sS'TGCTTA'
p1240
I8842
sS'CGCAAA'
p1241
I3185
sS'ATACCG'
p1242
I1292
sS'CGCAAG'
p1243
I3768
sS'AAAGAC'
p1244
I12371
sS'ATACCC'
p1245
I4399
sS'TCTACT'
p1246
I8964
sS'ATACCT'
p1247
I6431
sS'CGCAAT'
p1248
I1926
sS'TAGTAA'
p1249
I6508
sS'TGGGTG'
p1250
I19113
sS'TAGTAC'
p1251
I3082
sS'CTCAAG'
p1252
I13099
sS'CTCAAA'
p1253
I15851
sS'TAGTAG'
p1254
I5648
sS'CTCAAC'
p1255
I8388
sS'GTGTGC'
p1256
I11556
sS'GTGTGA'
p1257
I12289
sS'GTGTGG'
p1258
I15838
sS'ACCAGG'
p1259
I15871
sS'CTCAAT'
p1260
I7700
sS'TAGTAT'
p1261
I4522
sS'CTCCCG'
p1262
I16763
sS'GTGTGT'
p1263
I29685
sS'ATCTTT'
p1264
I12770
sS'GTTGGG'
p1265
I11342
sS'GTTGGA'
p1266
I8373
sS'GTTGGC'
p1267
I8754
sS'CCTTGG'
p1268
I17379
sS'CCTTGA'
p1269
I11306
sS'GCGTAT'
p1270
I1276
sS'AGGATT'
p1271
I11072
sS'GGACGT'
p1272
I3773
sS'GTTGGT'
p1273
I7273
sS'ATCTTG'
p1274
I9828
sS'ATCTTA'
p1275
I7179
sS'ATCTTC'
p1276
I9704
sS'CCTTGT'
p1277
I11828
sS'AGGATA'
p1278
I6943
sS'AGGATG'
p1279
I13755
sS'GACATG'
p1280
I7791
sS'ATCAGG'
p1281
I9347
sS'TTGCGT'
p1282
I2442
sS'GACATA'
p1283
I5137
sS'TCGGCG'
p1284
I4989
sS'GAATAT'
p1285
I7684
sS'TCGGCC'
p1286
I8645
sS'ATCAGA'
p1287
I10728
sS'TTGCGA'
p1288
I1836
sS'TTGCGC'
p1289
I3306
sS'TTGCGG'
p1290
I3807
sS'GAATAG'
p1291
I6205
sS'TCGGCT'
p1292
I6109
sS'ATCAGC'
p1293
I8984
sS'GAATAC'
p1294
I5222
sS'GAATAA'
p1295
I9935
sS'CACCGC'
p1296
I10474
sS'TGCAGA'
p1297
I16852
sS'GTACAT'
p1298
I5101
sS'ATACAA'
p1299
I9098
sS'GGACGA'
p1300
I3605
sS'TACAAG'
p1301
I6942
sS'TGCCTC'
p1302
I19434
sS'GGACGC'
p1303
I7968
sS'TTATAA'
p1304
I10477
sS'GAAATG'
p1305
I17494
sS'AATGAT'
p1306
I10029
sS'GAAATA'
p1307
I13744
sS'GAAATC'
p1308
I10666
sS'ACCGGT'
p1309
I2109
sS'GAAATT'
p1310
I13088
sS'AATGAA'
p1311
I17847
sS'ATGTCC'
p1312
I7769
sS'AATGAC'
p1313
I10579
sS'AATGAG'
p1314
I14862
sS'AGGAAA'
p1315
I29355
sS'CTTGGA'
p1316
I13528
sS'CTTGGC'
p1317
I15954
sS'GTATTG'
p1318
I4750
sS'GTTTTC'
p1319
I15381
sS'CTTGGG'
p1320
I16855
sS'AGCCCT'
p1321
I18523
sS'GCGTAA'
p1322
I1488
sS'TTGAAT'
p1323
I10671
sS'GTCCTA'
p1324
I5552
sS'GTCCTC'
p1325
I12657
sS'TGCACG'
p1326
I4424
sS'CTTGGT'
p1327
I10631
sS'GTCCTG'
p1328
I15045
sS'TGCACC'
p1329
I10087
sS'TTGAAA'
p1330
I16020
sS'AGCCCG'
p1331
I10709
sS'AGCCCA'
p1332
I18592
sS'TTGAAG'
p1333
I11476
sS'TTAACT'
p1334
I8958
sS'ATAAAT'
p1335
I16477
sS'TGGTCG'
p1336
I2853
sS'TGGTCA'
p1337
I10659
sS'TGGTCC'
p1338
I9438
sS'ACGATT'
p1339
I1856
sS'GAGACT'
p1340
I12399
sS'GATTCA'
p1341
I9447
sS'TGGTCT'
p1342
I12499
sS'ATAAAG'
p1343
I11530
sS'ATAAAA'
p1344
I20560
sS'TCAGCC'
p1345
I19383
sS'ATAAAC'
p1346
I9420
sS'GAGACG'
p1347
I6994
sS'ACGATG'
p1348
I2337
sS'GAGACC'
p1349
I13126
sS'ACGATC'
p1350
I1581
sS'GAGACA'
p1351
I15407
sS'ACGATA'
p1352
I1103
sS'GGTTAC'
p1353
I4947
sS'ATGTGT'
p1354
I11910
sS'GGTTAA'
p1355
I6643
sS'ACCACT'
p1356
I10508
sS'GGTTAG'
p1357
I5960
sS'CTTCCT'
p1358
I30217
sS'GAATGT'
p1359
I10691
sS'GAGGAC'
p1360
I12880
sS'CGTGAA'
p1361
I3537
sS'CTCAGT'
p1362
I14831
sS'TCCGCT'
p1363
I6108
sS'CTTCCA'
p1364
I18413
sS'ATGTGG'
p1365
I11758
sS'ATGTGA'
p1366
I11475
sS'CGTATG'
p1367
I1362
sS'CTTCCG'
p1368
I8376
sS'GGTTAT'
p1369
I5311
sS'TCCGCC'
p1370
I13409
sS'GACGTG'
p1371
I4534
sS'TCCGCG'
p1372
I7101
sS'AACGTC'
p1373
I2659
sS'AACGTA'
p1374
I1873
sS'AACGTG'
p1375
I4102
sS'CGTGAC'
p1376
I4362
sS'AGTGTG'
p1377
I12882
sS'TCTTCG'
p1378
I3539
sS'AGTGTA'
p1379
I6294
sS'TCTTCA'
p1380
I14495
sS'AGTGTC'
p1381
I9196
sS'TCTTCC'
p1382
I21712
sS'CGTGAT'
p1383
I3068
sS'ACTCAA'
p1384
I9565
sS'TAAGTC'
p1385
I5894
sS'AACGTT'
p1386
I2942
sS'CCGTGA'
p1387
I4408
sS'TCTTCT'
p1388
I18587
sS'AGTGTT'
p1389
I10914
sS'GTGCGC'
p1390
I7008
sS'TTGGCA'
p1391
I11740
sS'AAAGGT'
p1392
I11480
sS'TTGGCC'
p1393
I14036
sS'GAGTAG'
p1394
I7753
sS'CTTATT'
p1395
I9903
sS'TTGGCG'
p1396
I4334
sS'GACTTC'
p1397
I10234
sS'TCGAGT'
p1398
I2338
sS'GACTTA'
p1399
I5868
sS'GACTTG'
p1400
I9766
sS'AAAGGG'
p1401
I17872
sS'AAAGGA'
p1402
I21358
sS'TTGGCT'
p1403
I14445
sS'AAAGGC'
p1404
I15116
sS'GAGTAC'
p1405
I4167
sS'GTATGG'
p1406
I4203
sS'GTCGAT'
p1407
I1090
sS'GACTTT'
p1408
I10992
sS'TTCTTT'
p1409
I28191
sS'CAAGAA'
p1410
I14567
sS'AGCGAG'
p1411
I7522
sS'CAAGAC'
p1412
I9890
sS'CCCTTT'
p1413
I17451
sS'TCAGCG'
p1414
I5918
sS'CGTATT'
p1415
I1969
sS'TTCTTG'
p1416
I14368
sS'TTCTTC'
p1417
I18637
sS'TTCTTA'
p1418
I12492
sS'CAAGAT'
p1419
I9541
sS'AGGGCT'
p1420
I18672
sS'TACGGG'
p1421
I2164
sS'TACGGA'
p1422
I1914
sS'TACGGC'
p1423
I1881
sS'CCAACT'
p1424
I9755
sS'TAGAGT'
p1425
I6513
sS'TACGGT'
p1426
I1548
sS'AGGGCG'
p1427
I13047
sS'AGGGCA'
p1428
I19021
sS'AGGGCC'
p1429
I18327
sS'TCGAGA'
p1430
I3414
sS'TAGAGC'
p1431
I6951
sS'TAGAGA'
p1432
I11819
sS'CAATTG'
p1433
I5523
sS'AGTAAT'
p1434
I8030
sS'GTGCTG'
p1435
I18244
sS'GTGCTA'
p1436
I6150
sS'ATCTGT'
p1437
I11201
sS'GTGCTC'
p1438
I10337
sS'GGCGAC'
p1439
I6417
sS'ATCTGA'
p1440
I10709
sS'GTGCTT'
p1441
I10718
sS'ATCTGC'
p1442
I10589
sS'TCGAGG'
p1443
I4180
sS'CGAATG'
p1444
I2510
sS'ATCTGG'
p1445
I11251
sS'ATCATA'
p1446
I6111
sS'GATAGC'
p1447
I3517
sS'AAGCAG'
p1448
I18390
sS'GATAGA'
p1449
I5602
sS'AAGCAA'
p1450
I15347
sS'GATAGG'
p1451
I5179
sS'ATCATG'
p1452
I7663
sS'TTTACC'
p1453
I8160
sS'GTTATG'
p1454
I5142
sS'CTAGGT'
p1455
I7125
sS'CATTTA'
p1456
I13315
sS'ACGCAT'
p1457
I2304
sS'CATTTG'
p1458
I13640
sS'GTTATA'
p1459
I4545
sS'CAAACA'
p1460
I15481
sS'AAGCAT'
p1461
I10048
sS'CAAACC'
p1462
I10637
sS'GTGGCC'
p1463
I17333
sS'ATCATT'
p1464
I9983
sS'GATAGT'
p1465
I3774
sS'ACGCAG'
p1466
I5964
sS'CTAGGG'
p1467
I10013
sS'GTTATT'
p1468
I8451
sS'CTAGGC'
p1469
I8598
sS'CATTTT'
p1470
I23026
sS'CTAGGA'
p1471
I9885
sS'AAGTTT'
p1472
I13541
sS'TACAGT'
p1473
I8286
sS'CTCGAA'
p1474
I3605
sS'CTAACG'
p1475
I2004
sS'GCGCCT'
p1476
I11351
sS'CTAAGA'
p1477
I8565
sS'GGGGCT'
p1478
I22448
sS'TACAGG'
p1479
I12109
sS'AAGTTG'
p1480
I9355
sS'GGATGC'
p1481
I8612
sS'AAGTTA'
p1482
I9164
sS'TACAGC'
p1483
I8030
sS'AAGTTC'
p1484
I9599
sS'TACAGA'
p1485
I10854
sS'GGGGCC'
p1486
I25462
sS'GTATGA'
p1487
I5197
sS'GGGGCA'
p1488
I18667
sS'GGGGCG'
p1489
I28321
sS'TATATC'
p1490
I4334
sS'TATATA'
p1491
I11020
sS'TGTATA'
p1492
I6704
sS'TATATG'
p1493
I6342
sS'ACATCG'
p1494
I1946
sS'GCCCAG'
p1495
I31924
sS'GGTCCA'
p1496
I7979
sS'TATATT'
p1497
I10202
sS'CANTCC'
p1498
I1
sS'TGATGG'
p1499
I9730
sS'CATATG'
p1500
I6215
sS'TGATGC'
p1501
I7630
sS'GCCCAC'
p1502
I15274
sS'TGATGA'
p1503
I11355
sS'TGCCAT'
p1504
I11527
sS'CACATC'
p1505
I10045
sS'TGTTTC'
p1506
I16059
sS'CACATA'
p1507
I9045
sS'TCATAA'
p1508
I8622
sS'CACATG'
p1509
I12291
sS'TTTCAT'
p1510
I16740
sS'ATGAGA'
p1511
I12137
sS'ATGAGC'
p1512
I9024
sS'ATGAGG'
p1513
I12229
sS'TTAATA'
p1514
I10102
sS'ACTCTG'
p1515
I15141
sS'TTAATC'
p1516
I7053
sS'ACTCTA'
p1517
I6498
sS'TTTCAG'
p1518
I18370
sS'ACTCTC'
p1519
I10313
sS'TTAATG'
p1520
I8873
sS'AAATTC'
p1521
I13449
sS'GACTGA'
p1522
I10276
sS'AAATTA'
p1523
I16745
sS'AAATTG'
p1524
I11126
sS'CCAGTA'
p1525
I7534
sS'TTCAAT'
p1526
I8787
sS'TCTTGT'
p1527
I11179
sS'CGTACC'
p1528
I1568
sS'NNNNTT'
p1529
I1
sS'AAATTT'
p1530
I17246
sS'CTTAGT'
p1531
I6921
sS'GGGAAC'
p1532
I12431
sS'GGTGCG'
p1533
I6868
sS'GGGAAA'
p1534
I22642
sS'GGGAAG'
p1535
I27722
sS'GGTGCC'
p1536
I13256
sS'GGTGCA'
p1537
I10174
sS'AGAGCG'
p1538
I7762
sS'GCGACT'
p1539
I3572
sS'AGAGCC'
p1540
I17582
sS'AGAGCA'
p1541
I16362
sS'GCGTAG'
p1542
I2270
sS'GGTGCT'
p1543
I12748
sS'GCGTAC'
p1544
I1361
sS'ACTGAA'
p1545
I13094
sS'GGGAAT'
p1546
I11299
sS'GCGACG'
p1547
I3838
sS'AGAGCT'
p1548
I16269
sS'GCGACA'
p1549
I3989
sS'TATCGG'
p1550
I1089
sS'GCGACC'
p1551
I4923
sS'AGGTCG'
p1552
I3845
sS'GCAGGA'
p1553
I22484
sS'CTAGCT'
p1554
I7520
sS'GCAGGC'
p1555
I21379
sS'GCAGGG'
p1556
I27951
sS'GGCGAT'
p1557
I3126
sS'GCACTA'
p1558
I4951
sS'GCTCGA'
p1559
I2765
sS'GCTCGG'
p1560
I9453
sS'TATTCT'
p1561
I10240
sS'CCGTGG'
p1562
I7653
sS'CTTAGC'
p1563
I7478
sS'CTTTAG'
p1564
I8641
sS'GCAGGT'
p1565
I14898
sS'ACCCTA'
p1566
I6223
sS'TATTCC'
p1567
I7771
sS'GGCGAG'
p1568
I10222
sS'TATTCA'
p1569
I9377
sS'CAATTA'
p1570
I7188
sS'TATTCG'
p1571
I1399
sS'GCTCGT'
p1572
I2966
sS'TGTAGA'
p1573
I7800
sS'GGCTCA'
p1574
I18106
sS'TGTAGC'
p1575
I6487
sS'GGCTCC'
p1576
I24117
sS'TTTACG'
p1577
I2130
sS'TGTAGG'
p1578
I7671
sS'GGCTCG'
p1579
I7778
sS'TTCGGA'
p1580
I3022
sS'TTCGGC'
p1581
I3705
sS'CTTTAC'
p1582
I8006
sS'TTCAAG'
p1583
I13061
sS'TTCGGG'
p1584
I4796
sS'AGCATG'
p1585
I10503
sS'GGCTCT'
p1586
I17378
sS'TGTAGT'
p1587
I8163
sS'TTTACT'
p1588
I11914
sS'AGCATA'
p1589
I6180
sS'AGACCT'
p1590
I10828
sS'TTCGGT'
p1591
I2589
sS'GTTTAT'
p1592
I9371
sS'GTCTAG'
p1593
I5584
sS'ATACAT'
p1594
I8026
sS'CGCTAC'
p1595
I2404
sS'TGCTTG'
p1596
I12053
sS'GTTTAA'
p1597
I9358
sS'TCCAGG'
p1598
I23650
sS'CACGAA'
p1599
I3083
sS'GTTTAG'
p1600
I6598
sS'GAGGTA'
p1601
I7334
sS'CTGGCT'
p1602
I23803
sS'AGGCGG'
p1603
I17233
sS'GTCGGT'
p1604
I2576
sS'AGGCGC'
p1605
I11354
sS'AGGAGT'
p1606
I14414
sS'ACAGCC'
p1607
I16389
sS'ACAGCA'
p1608
I16452
sS'GAGGTC'
p1609
I11974
sS'ACAGCG'
p1610
I6254
sS'AGGAGC'
p1611
I19631
sS'AGGCGT'
p1612
I6272
sS'AGGAGA'
p1613
I23375
sS'CTGGCG'
p1614
I10228
sS'AGGAGG'
p1615
I34353
sS'CTGGCA'
p1616
I18247
sS'GTCGGG'
p1617
I6263
sS'GCGCCC'
p1618
I19472
sS'CGATAC'
p1619
I975
sS'ACAGCT'
p1620
I14607
sS'GCTCTC'
p1621
I14979
sS'ATTGGT'
p1622
I7000
sS'AATTTT'
p1623
I20680
sS'TGTCAA'
p1624
I8111
sS'TGTCAC'
p1625
I11842
sS'CCCTCT'
p1626
I24157
sS'AACCTT'
p1627
I9326
sS'TGTCAG'
p1628
I12450
sS'ATTGGG'
p1629
I7110
sS'AATTTA'
p1630
I13389
sS'AATTTC'
p1631
I12983
sS'AACGCC'
p1632
I4073
sS'AACGCA'
p1633
I3235
sS'AATTTG'
p1634
I11795
sS'ATTTAC'
p1635
I9155
sS'ATTTAA'
p1636
I15810
sS'TGTCAT'
p1637
I10781
sS'CCCTCG'
p1638
I9679
sS'TAAATA'
p1639
I15678
sS'CAATAT'
p1640
I6896
sS'TGACCA'
p1641
I10370
sS'TGACCC'
p1642
I10433
sS'TAAATC'
p1643
I8210
sS'TGACCG'
p1644
I3258
sS'CATTCG'
p1645
I2590
sS'CATTCC'
p1646
I14832
sS'ACCACG'
p1647
I5449
sS'NNTTGT'
p1648
I1
sS'CGCTAT'
p1649
I1616
sS'ACAAAT'
p1650
I13291
sS'GATTAA'
p1651
I7013
sS'GTAGGC'
p1652
I5701
sS'GATTAC'
p1653
I7611
sS'GTAGGA'
p1654
I7539
sS'GTAGGG'
p1655
I7926
sS'GATTAG'
p1656
I5093
sS'GCGGGT'
p1657
I8036
sS'ACAAAC'
p1658
I11915
sS'TTTCAA'
p1659
I16187
sS'ACAAAA'
p1660
I22354
sS'ACAAAG'
p1661
I15942
sS'GCGGGC'
p1662
I18837
sS'AGGCGA'
p1663
I5715
sS'GCGGGA'
p1664
I13700
sS'GCGGGG'
p1665
I29922
sS'GATTAT'
p1666
I6325
sS'GTAGGT'
p1667
I6198
sS'GGCGTC'
p1668
I6744
sS'TAATGA'
p1669
I9349
sS'GATGTT'
p1670
I8048
sS'TAATGC'
p1671
I5938
sS'GGGATG'
p1672
I13149
sS'TAATGG'
p1673
I6737
sS'CAATAA'
p1674
I9442
sS'GCCCTC'
p1675
I21787
sS'GATGTG'
p1676
I9989
sS'GCCCTA'
p1677
I7121
sS'GATGTA'
p1678
I5022
sS'TAATGT'
p1679
I7717
sS'GATGTC'
p1680
I6904
sS'AACCTC'
p1681
I11493
sS'TGAAAT'
p1682
I16500
sS'GCTCTT'
p1683
I13226
sS'TTCTAA'
p1684
I12328
sS'ATCCGT'
p1685
I2026
sS'TTCTAC'
p1686
I7761
sS'TGAAAA'
p1687
I20571
sS'TGAAAC'
p1688
I12505
sS'TGAAAG'
p1689
I15511
sS'TTCTAT'
p1690
I9235
sS'ATCCGC'
p1691
I3845
sS'ATCCGA'
p1692
I2092
sS'ATCCGG'
p1693
I3492
sS'TGGCTC'
p1694
I19127
sS'TGGCTA'
p1695
I8730
sS'GCTACC'
p1696
I5864
sS'TGGCTG'
p1697
I23469
sS'GACCGG'
p1698
I5028
sS'GTCGGA'
p1699
I2929
sS'AGTTGT'
p1700
I8300
sS'AGCTAT'
p1701
I6753
sS'ATTAGT'
p1702
I6340
sS'AAGACA'
p1703
I14539
sS'GTCGGC'
p1704
I4728
sS'CGTCGA'
p1705
I1015
sS'TGGCTT'
p1706
I16543
sS'AGTTGG'
p1707
I9749
sS'AGCTAA'
p1708
I8364
sS'AGCTAC'
p1709
I8040
sS'AGTTGC'
p1710
I7571
sS'AGTTGA'
p1711
I8054
sS'AGCTAG'
p1712
I7510
sS'CGTTGA'
p1713
I2063
sS'TCCAGT'
p1714
I12694
sS'GCACCT'
p1715
I12269
sS'CAGTGT'
p1716
I13479
sS'TAACAA'
p1717
I9294
sS'TCAGGT'
p1718
I11560
sS'TCAAGG'
p1719
I11369
sS'CTGGCC'
p1720
I26008
sS'TCAAGC'
p1721
I9032
sS'CTGCAC'
p1722
I15625
sS'CTAATA'
p1723
I5837
sS'CAGTGC'
p1724
I14008
sS'GCACCC'
p1725
I12442
sS'CAGTGA'
p1726
I17817
sS'CAGTGG'
p1727
I18816
sS'GCACCG'
p1728
I6781
sS'TCAAGT'
p1729
I9960
sS'TCAGGG'
p1730
I17056
sS'GAGCCC'
p1731
I19752
sS'TCAGGC'
p1732
I14976
sS'CGAGCT'
p1733
I5093
sS'CGTTGG'
p1734
I3379
sS'CAACCA'
p1735
I9552
sS'GTTCAT'
p1736
I7332
sS'TTCCCT'
p1737
I23054
sS'ACCACA'
p1738
I14269
sS'CGAGCA'
p1739
I4102
sS'GAGCCG'
p1740
I12403
sS'CGAGCC'
p1741
I7922
sS'GTTCAG'
p1742
I10145
sS'TTCCCC'
p1743
I20671
sS'GTTCAC'
p1744
I7202
sS'TTCCCG'
p1745
I8747
sS'GATCAC'
p1746
I7936
sS'GGACCT'
p1747
I10234
sS'TACATG'
p1748
I7076
sS'AAGTAC'
p1749
I6396
sS'AAGTAA'
p1750
I11216
sS'TACATC'
p1751
I4982
sS'AAGTAG'
p1752
I8651
sS'TACATA'
p1753
I7372
sS'GCACAC'
p1754
I11505
sS'GGACCG'
p1755
I5831
sS'AACGCT'
p1756
I3271
sS'GGACCA'
p1757
I9327
sS'TCATCA'
p1758
I11399
sS'GGACCC'
p1759
I12832
sS'CACACG'
p1760
I6343
sS'TACATT'
p1761
I9517
sS'CACACC'
p1762
I15899
sS'GCACAA'
p1763
I8706
sS'AAGTAT'
p1764
I7614
sS'TCTGCC'
p1765
I20429
sS'TCTGCA'
p1766
I16680
sS'TCTGCG'
p1767
I6832
sS'TAGATT'
p1768
I6828
sS'CCCGTC'
p1769
I7120
sS'TTAAGG'
p1770
I8522
sS'CCCGTA'
p1771
I2088
sS'TTAAGA'
p1772
I10975
sS'CCCGTG'
p1773
I6437
sS'TTAAGC'
p1774
I6759
sS'TTACGT'
p1775
I2113
sS'TAGATC'
p1776
I4094
sS'AAACAG'
p1777
I18216
sS'TAGATA'
p1778
I5504
sS'TGCCCA'
p1779
I18457
sS'TAGATG'
p1780
I7511
sS'TCTGCT'
p1781
I18405
sS'TTACGC'
p1782
I1524
sS'TTAAGT'
p1783
I9320
sS'TTACGA'
p1784
I1417
sS'TTACGG'
p1785
I1919
sS'CCCGTT'
p1786
I3924
sS'AGTGAC'
p1787
I12483
sS'AGTGAA'
p1788
I13063
sS'AGTGAG'
p1789
I17436
sS'ACATTT'
p1790
I17715
sS'CGGGCG'
p1791
I16195
sS'AAACAC'
p1792
I14304
sS'TAAGAG'
p1793
I9307
sS'CCTGAT'
p1794
I9532
sS'TAAGAA'
p1795
I12658
sS'CGGGCA'
p1796
I8884
sS'TAAGAC'
p1797
I6049
sS'ATTTAT'
p1798
I16404
sS'AGTGAT'
p1799
I10117
sS'CTTTCC'
p1800
I22186
sS'TAAGAT'
p1801
I6981
sS'CCTGAA'
p1802
I14960
sS'CGGGCT'
p1803
I10870
sS'AGTAAA'
p1804
I12080
sS'CCTGAG'
p1805
I22791
sS'GTTAGG'
p1806
I6480
sS'AACGCG'
p1807
I2551
sS'TCATCT'
p1808
I13922
sS'GTTAGC'
p1809
I4594
sS'GTTAGA'
p1810
I5944
sS'GNNNNN'
p1811
I1
sS'ACCCCC'
p1812
I13538
sS'GACATC'
p1813
I6963
sS'TATACG'
p1814
I1026
sS'CGGATG'
p1815
I3485
sS'TATACC'
p1816
I3421
sS'TATACA'
p1817
I6711
sS'ATTGGC'
p1818
I8434
sS'CGTATA'
p1819
I1014
sS'TCCACG'
p1820
I5358
sS'ACTAGT'
p1821
I4230
sS'TTTATT'
p1822
I24645
sS'GTAATA'
p1823
I5809
sS'ATTGGA'
p1824
I7590
sS'GTAATC'
p1825
I7322
sS'TCTAAC'
p1826
I5958
sS'CGTTCT'
p1827
I3937
sS'CCACCG'
p1828
I9251
sS'GGTAGG'
p1829
I8822
sS'CCACCA'
p1830
I19504
sS'CCACCC'
p1831
I26393
sS'GTTCGT'
p1832
I1800
sS'TTTATG'
p1833
I11379
sS'GTAATT'
p1834
I8132
sS'TTTATC'
p1835
I9489
sS'ACTAGC'
p1836
I4620
sS'TTTATA'
p1837
I12633
sS'ACTAGA'
p1838
I7507
sS'CCACCT'
p1839
I22309
sS'CGTTCG'
p1840
I1585
sS'ACTTGT'
p1841
I8424
sS'CGTTCA'
p1842
I2862
sS'CGTTCC'
p1843
I4934
sS'TCTAAT'
p1844
I7583
sS'CTTTGT'
p1845
I15704
sS'ACTGGG'
p1846
I15997
sS'ACTGGA'
p1847
I12681
sS'ACTGGC'
p1848
I11721
sS'TAGTCC'
p1849
I5900
sS'GTGACC'
p1850
I10293
sS'TAGTCA'
p1851
I7463
sS'GTGACA'
p1852
I11508
sS'TAGTCG'
p1853
I1289
sS'GTGACG'
p1854
I4527
sS'ATTTAG'
p1855
I9119
sS'ACTGGT'
p1856
I8088
sS'CTTTGG'
p1857
I17081
sS'CTTTGC'
p1858
I14116
sS'CTTTGA'
p1859
I13732
sS'GTGACT'
p1860
I14728
sS'TAGTCT'
p1861
I6081
sS'GTGCAC'
p1862
I8164
sS'GCGCTT'
p1863
I5397
sS'ACCTAG'
p1864
I7052
sS'GCAATT'
p1865
I7724
sS'ACCTAA'
p1866
I6692
sS'CGACGC'
p1867
I3557
sS'ACCTAC'
p1868
I6155
sS'CCGCAG'
p1869
I13283
sS'CCGCAA'
p1870
I3821
sS'CCGCAC'
p1871
I7309
sS'GGGACT'
p1872
I13665
sS'ACCTAT'
p1873
I4810
sS'GCGCTG'
p1874
I12845
sS'CGAAGA'
p1875
I3519
sS'CCCCGT'
p1876
I7020
sS'CGAAGG'
p1877
I5136
sS'GCGCTC'
p1878
I10725
sS'GTGCAT'
p1879
I7211
sS'GCGCTA'
p1880
I2585
sS'NCTGAC'
p1881
I1
sS'CCGCAT'
p1882
I3179
sS'GTTCGC'
p1883
I2558
sS'GAAGAT'
p1884
I9700
sS'GGATCT'
p1885
I8054
sS'TCGGAA'
p1886
I3421
sS'TCGGAC'
p1887
I2545
sS'GAATCT'
p1888
I9222
sS'TCGGAG'
p1889
I5683
sS'GGATCG'
p1890
I2836
sS'GAAGAG'
p1891
I19078
sS'GAAGAA'
p1892
I18754
sS'GTTCGG'
p1893
I2984
sS'GAAGAC'
p1894
I10689
sS'GGATCA'
p1895
I8218
sS'GGATCN'
p1896
I1
sS'GAATCA'
p1897
I10788
sS'GAATCC'
p1898
I8667
sS'TCGGAT'
p1899
I2019
sS'GAATCG'
p1900
I2748
sS'ATGGTC'
p1901
I5779
sS'CAGATG'
p1902
I14692
sS'ATGGTA'
p1903
I5781
sS'CATTCT'
p1904
I14666
sS'ATGGTG'
p1905
I11282
sS'CAGATC'
p1906
I9351
sS'ACGCCC'
p1907
I8633
sS'CAGATA'
p1908
I8534
sS'CAATCG'
p1909
I1972
sS'CTCGAG'
p1910
I4456
sS'CAGATT'
p1911
I11160
sS'CTCGAC'
p1912
I2592
sS'ATGGTT'
p1913
I7508
sS'TCGCAA'
p1914
I1914
sS'TGCGTC'
p1915
I4077
sS'NNNTTG'
p1916
I1
sS'AATGGT'
p1917
I7935
sS'ACGTGT'
p1918
I3858
sS'AATGGC'
p1919
I9892
sS'AATGGA'
p1920
I12719
sS'AATGGG'
p1921
I11585
sS'CAATAC'
p1922
I4694
sS'GATCAA'
p1923
I5720
sS'CCCCGA'
p1924
I8460
sS'CAACTC'
p1925
I9480
sS'CAACTA'
p1926
I5431
sS'CGTTAG'
p1927
I1910
sS'TTGACC'
p1928
I6494
sS'GGAGGG'
p1929
I37329
sS'AAAAGT'
p1930
I15754
sS'TTGACG'
p1931
I1868
sS'GGAGGC'
p1932
I32013
sS'TGGTAG'
p1933
I7254
sS'CGCCAT'
p1934
I5460
sS'GAGTGT'
p1935
I9324
sS'TGGTAC'
p1936
I4488
sS'TGGTAA'
p1937
I8015
sS'AAAAGG'
p1938
I19180
sS'GGAGGT'
p1939
I17054
sS'AGCCAT'
p1940
I10981
sS'AAAAGC'
p1941
I15671
sS'CATTCA'
p1942
I13286
sS'AAAAGA'
p1943
I24356
sS'TTGACT'
p1944
I9001
sS'GAGTGG'
p1945
I14159
sS'CGCCAG'
p1946
I10471
sS'TGGTAT'
p1947
I6169
sS'CGCCAA'
p1948
I4296
sS'GAGTGC'
p1949
I10558
sS'CGCCAC'
p1950
I9578
sS'GAGTGA'
p1951
I12770
sS'GCCAGG'
p1952
I29798
sS'GCCAGA'
p1953
I15854
sS'GCCAGC'
p1954
I20423
sS'GCCCGT'
p1955
I5061
sS'CAATCC'
p1956
I7453
sS'TACCGA'
p1957
I1499
sS'ACGCCT'
p1958
I6299
sS'TACTGA'
p1959
I8013
sS'TACCGG'
p1960
I2214
sS'GCCCGC'
p1961
I18898
sS'GCCAGT'
p1962
I11467
sS'GCCCGA'
p1963
I6731
sS'GCCCGG'
p1964
I20786
sS'CTTCAC'
p1965
I11744
sS'CTTCAA'
p1966
I11426
sS'ACTTAC'
p1967
I6429
sS'CTTCAG'
p1968
I16873
sS'TCCGAG'
p1969
I5899
sS'TCCGAA'
p1970
I2995
sS'TCCGAC'
p1971
I2885
sS'TAGCGT'
p1972
I1669
sS'TNNNNN'
p1973
I1
sS'AATTCC'
p1974
I12000
sS'AATTCG'
p1975
I2045
sS'TCCGAT'
p1976
I1993
sS'GGACAA'
p1977
I9821
sS'NTCCCC'
p1978
I1
sS'TAGCGG'
p1979
I2792
sS'TAGCGA'
p1980
I1834
sS'TAGCGC'
p1981
I2618
sS'GTCATC'
p1982
I8892
sS'GTCATA'
p1983
I5761
sS'GTCATG'
p1984
I8429
sS'AGCAGG'
p1985
I23285
sS'CCAGGT'
p1986
I18221
sS'TTGGAA'
p1987
I14620
sS'AGCAGC'
p1988
I22208
sS'AGCAGA'
p1989
I18321
sS'GTCATT'
p1990
I10571
sS'CCAGGG'
p1991
I28314
sS'AGCAGT'
p1992
I12533
sS'CCAGGA'
p1993
I27193
sS'CCAGGC'
p1994
I32965
sS'TTGGAT'
p1995
I8093
sS'ATAGAG'
p1996
I7001
sS'CATCTG'
p1997
I14769
sS'ACGGTC'
p1998
I2488
sS'CATCTA'
p1999
I7458
sS'ATAGAC'
p2000
I4397
sS'CATCTC'
p2001
I14031
sS'ATAGAA'
p2002
I9289
sS'GGATGG'
p2003
I13332
sS'GATCGT'
p2004
I1589
sS'CATCTT'
p2005
I12874
sS'CAAGCA'
p2006
I12033
sS'ACGGTT'
p2007
I2270
sS'GTTCTT'
p2008
I11266
sS'ACCTCC'
p2009
I17122
sS'CGTAAT'
p2010
I1472
sS'ACATGC'
p2011
I8439
sS'TCTTGA'
p2012
I11092
sS'ACATGG'
p2013
I10898
sS'AGGGAT'
p2014
I10993
sS'GTAAAC'
p2015
I6668
sS'GGCCAT'
p2016
I9508
sS'CGTAAG'
p2017
I1903
sS'GAGTCA'
p2018
I18981
sS'ACATGT'
p2019
I8937
sS'GTTCTA'
p2020
I6308
sS'CGTAAA'
p2021
I2209
sS'AGGGAG'
p2022
I30339
sS'ATCCTT'
p2023
I10009
sS'CTCGTT'
p2024
I3145
sS'CCCGCC'
p2025
I35393
sS'AGGGAA'
p2026
I22891
sS'AAACTA'
p2027
I9737
sS'AGCGCA'
p2028
I5355
sS'GTTGTT'
p2029
I9367
sS'TGGATC'
p2030
I7403
sS'TTGTCG'
p2031
I2022
sS'TTGTCC'
p2032
I9711
sS'TTGTCA'
p2033
I10033
sS'ATCCTC'
p2034
I11313
sS'GTTGTA'
p2035
I5284
sS'ATCCTA'
p2036
I6447
sS'GTTGTC'
p2037
I5951
sS'ATCCTG'
p2038
I13250
sS'GTTGTG'
p2039
I8371
sS'TTGTCT'
p2040
I12139
sS'CTATGC'
p2041
I4862
sS'GTTGTN'
p2042
I1
sS'CTGTGG'
p2043
I21226
sS'AAGGGG'
p2044
I17210
sS'TGACTC'
p2045
I19329
sS'TGGGCA'
p2046
I18544
sS'TGGGCG'
p2047
I12656
sS'TGACTG'
p2048
I12542
sS'AAGCCG'
p2049
I6085
sS'NNNNGC'
p2050
I1
sS'AAGCCC'
p2051
I14356
sS'AAGCCA'
p2052
I16665
sS'CAAAAT'
p2053
I15683
sS'TGACTT'
p2054
I12807
sS'TGGGCT'
p2055
I18796
sS'CAAAAC'
p2056
I14285
sS'CAAAAA'
p2057
I22125
sS'AAGCCT'
p2058
I13843
sS'CAAAAG'
p2059
I15042
sS'TCAATG'
p2060
I7487
sS'CCCTTA'
p2061
I7618
sS'TCAATC'
p2062
I5617
sS'TCAATA'
p2063
I6946
sS'CAGTTC'
p2064
I11918
sS'GACCCG'
p2065
I7008
sS'CAGTTG'
p2066
I9366
sS'GACCCC'
p2067
I12366
sS'CTCTGT'
p2068
I20575
sS'TCAATT'
p2069
I7869
sS'GGCCAG'
p2070
I25276
sS'CTCTGC'
p2071
I25046
sS'GACCCT'
p2072
I10584
sS'CTCTGA'
p2073
I18518
sS'ACAATC'
p2074
I6020
sS'CTCTGG'
p2075
I23951
sS'CAGTTT'
p2076
I15845
sS'GCGAAG'
p2077
I4928
sS'ACGTTC'
p2078
I2957
sS'TGCTGG'
p2079
I23896
sS'CGAGGT'
p2080
I5407
sS'GCGAAC'
p2081
I2502
sS'CCCTTG'
p2082
I13489
sS'GCGAAA'
p2083
I3187
sS'AGCTGC'
p2084
I19676
sS'GCTGGT'
p2085
I14706
sS'GTGATT'
p2086
I9967
sS'ACGTTA'
p2087
I1996
sS'TGCTGT'
p2088
I16406
sS'AGCTGA'
p2089
I16248
sS'GCCCTT'
p2090
I14008
sS'TCGCTA'
p2091
I1809
sS'GTGATG'
p2092
I9705
sS'ACGTTG'
p2093
I2645
sS'GTGATC'
p2094
I7733
sS'GCTGGC'
p2095
I20244
sS'GTGATA'
p2096
I5361
sS'GCTGGA'
p2097
I21593
sS'TGATAA'
p2098
I8022
sS'TGATAC'
p2099
I4535
sS'TGATAG'
p2100
I5275
sS'CTTGTT'
p2101
I11743
sS'GACGGT'
p2102
I2943
sS'GCTAGG'
p2103
I8496
sS'GCTAGA'
p2104
I6845
sS'ATGAAT'
p2105
I12557
sS'GCTAGC'
p2106
I4992
sS'AAGGGT'
p2107
I9747
sS'TGATAT'
p2108
I6392
sS'GCTAGT'
p2109
I4737
sS'ATGAAC'
p2110
I7327
sS'GACGGG'
p2111
I7208
sS'ATGAAA'
p2112
I16750
sS'GACGGA'
p2113
I4532
sS'ATGAAG'
p2114
I11932
sS'GACGGC'
p2115
I5523
sS'CTTGTC'
p2116
I9781
sS'GCACTT'
p2117
I12223
sS'CTACTT'
p2118
I8688
sS'CCCGCT'
p2119
I10731
sS'NNNGAA'
p2120
I1
sS'GNCCGC'
p2121
I1
sS'CCATAG'
p2122
I5812
sS'GGTGAA'
p2123
I11453
sS'GGTGAC'
p2124
I12276
sS'GCGTCT'
p2125
I5344
sS'GACTGT'
p2126
I8958
sS'GGTGAG'
p2127
I17224
sS'GGAATG'
p2128
I14490
sS'CGTCCT'
p2129
I5945
sS'GGCTAA'
p2130
I7638
sS'GGAATC'
p2131
I9106
sS'GGAATA'
p2132
I7855
sS'GCGTCA'
p2133
I3844
sS'GCGTCC'
p2134
I7870
sS'GGTGAT'
p2135
I8853
sS'GCGTCG'
p2136
I3380
sS'CGTCCG'
p2137
I4020
sS'GGAATT'
p2138
I11965
sS'CGTCCC'
p2139
I8606
sS'CGTCCA'
p2140
I4192
sS'CCGTAT'
p2141
I1495
sS'GAAGTC'
p2142
I10300
sS'GAAGTA'
p2143
I7859
sS'GAAGTG'
p2144
I14445
sS'GCCGTA'
p2145
I1909
sS'CCGTAC'
p2146
I1584
sS'CCGTAA'
p2147
I1881
sS'CCGTAG'
p2148
I2502
sS'CTAACA'
p2149
I7356
sS'GCCGTT'
p2150
I3311
sS'CCCTCC'
p2151
I37651
sS'GAAGTT'
p2152
I10980
sS'GGCGCG'
p2153
I16959
sS'ATGCCC'
p2154
I9210
sS'TTAGTT'
p2155
I8063
sS'TATTAG'
p2156
I5998
sS'GGCGCC'
p2157
I18402
sS'TATTAA'
p2158
I10207
sS'GGCGCA'
p2159
I8501
sS'TATTAC'
p2160
I5924
sS'ACTATG'
p2161
I5761
sS'CAACGG'
p2162
I2797
sS'TTTAAG'
p2163
I12785
sS'ACTATC'
p2164
I3813
sS'TTTAAA'
p2165
I28484
sS'ACTATA'
p2166
I4700
sS'TTTAAC'
p2167
I9108
sS'TATTAT'
p2168
I10403
sS'TTAGTG'
p2169
I6881
sS'GGCGCT'
p2170
I11400
sS'TCAACA'
p2171
I9649
sS'TTAGTC'
p2172
I6474
sS'ATGCCT'
p2173
I11585
sS'TTAGTA'
p2174
I6785
sS'TTTAAT'
p2175
I15349
sS'ACTATT'
p2176
I6880
sS'GGGCAT'
p2177
I9417
sS'CCANTC'
p2178
I1
sS'TTCTAG'
p2179
I10096
sS'TTTCCA'
p2180
I21183
sS'TTTCCC'
p2181
I22738
sS'GTACGT'
p2182
I1560
sS'GTTTGT'
p2183
I11968
sS'TTTCCT'
p2184
I28778
sS'GGGCAG'
p2185
I29394
sS'CCTGGA'
p2186
I23808
sS'GGGCAA'
p2187
I12363
sS'GGGCAC'
p2188
I13948
sS'GTTTGC'
p2189
I9229
sS'GTTTGA'
p2190
I9574
sS'GTTTGG'
p2191
I11319
sS'GTACGA'
p2192
I981
sS'CCGCTC'
p2193
I11130
sS'GCATGT'
p2194
I8486
sS'CCGCTA'
p2195
I2872
sS'CCGCTG'
p2196
I11814
sS'AGCATT'
p2197
I11359
sS'GCGCGG'
p2198
I18232
sS'GCGCGC'
p2199
I18421
sS'GCGCGA'
p2200
I5211
sS'GCATGG'
p2201
I9628
sS'GCATGC'
p2202
I8643
sS'CCGCTT'
p2203
I6026
sS'TGACCT'
p2204
I13579
sS'GTCGAC'
p2205
I1278
sS'GTCGAA'
p2206
I1391
sS'GTCGAG'
p2207
I2658
sS'AGACAT'
p2208
I9672
sS'GAGCTA'
p2209
I7301
sS'TGCGCT'
p2210
I5406
sS'GAGCTC'
p2211
I14553
sS'ATTGAT'
p2212
I6349
sS'GAGCTG'
p2213
I22335
sS'AAACGA'
p2214
I3536
sS'AAACGC'
p2215
I4176
sS'GTNNNN'
p2216
I1
sS'GTAACA'
p2217
I6853
sS'CACGCG'
p2218
I4977
sS'AAACGG'
p2219
I4299
sS'ATTGAA'
p2220
I8717
sS'TGCGCG'
p2221
I6885
sS'TGTCCA'
p2222
I11662
sS'TGTCCG'
p2223
I3918
sS'TGCGCC'
p2224
I8599
sS'ATTGAG'
p2225
I7745
sS'TGCGCA'
p2226
I5679
sS'GCGCAG'
p2227
I12659
sS'AAACGT'
p2228
I4018
sS'NNNNNT'
p2229
I1
sS'TGGGTT'
p2230
I12176
sS'ACGGAA'
p2231
I3890
sS'ATTTCA'
p2232
I16788
sS'ATTTCC'
p2233
I16541
sS'ATCAGT'
p2234
I7866
sS'ATCGGG'
p2235
I2499
sS'CATAGT'
p2236
I5806
sS'ATCGGC'
p2237
I2202
sS'CCGTGT'
p2238
I4637
sS'ATCGGA'
p2239
I1809
sS'ATTTCT'
p2240
I19126
sS'CGATCA'
p2241
I1662
sS'TGGGTC'
p2242
I10752
sS'TTTCGG'
p2243
I3504
sS'TGGGTA'
p2244
I7933
sS'CATAGG'
p2245
I5876
sS'ATCGGT'
p2246
I1426
sS'CATGAC'
p2247
I8690
sS'CATAGC'
p2248
I6018
sS'CATAGA'
p2249
I6362
sS'ACGGGT'
p2250
I2731
sS'GTCTGA'
p2251
I9802
sS'GATTCT'
p2252
I10428
sS'CTTTTG'
p2253
I14787
sS'TACTAG'
p2254
I4080
sS'CTTTTC'
p2255
I20507
sS'CAGCAA'
p2256
I15351
sS'TACTAC'
p2257
I3946
sS'GATTCC'
p2258
I9204
sS'ACGGGG'
p2259
I7189
sS'NNNNCT'
p2260
I1
sS'GATTCG'
p2261
I2109
sS'ACGGGC'
p2262
I5078
sS'TACTAT'
p2263
I5038
sS'CTTTTT'
p2264
I24766
sS'ACCAAC'
p2265
I7226
sS'TCACGA'
p2266
I2695
sS'TCACGC'
p2267
I5644
sS'TCACGG'
p2268
I4559
sS'TCTCAT'
p2269
I12068
sS'TCACGT'
p2270
I4480
sS'TTCCAC'
p2271
I13442
sS'TTCCAA'
p2272
I14921
sS'TTCCAG'
p2273
I21849
sS'ACCCTT'
p2274
I9626
sS'TGAAGT'
p2275
I11471
sS'AAACAA'
p2276
I23134
sS'ATGCTT'
p2277
I9876
sS'AGGCAC'
p2278
I13601
sS'TTCCAT'
p2279
I14116
sS'TGAAGC'
p2280
I11466
sS'TGAAGA'
p2281
I14780
sS'TGAAGG'
p2282
I14082
sS'ACCCTG'
p2283
I16421
sS'CTGACT'
p2284
I15095
sS'CCCCTT'
p2285
I17003
sS'AGTTAT'
p2286
I7221
sS'ACATAT'
p2287
I8010
sS'CTGACG'
p2288
I4438
sS'CTGACC'
p2289
I13852
sS'CAATGA'
p2290
I10000
sS'AGTTAA'
p2291
I9062
sS'CCCCTG'
p2292
I21866
sS'AGTTAC'
p2293
I6874
sS'CCCCTC'
p2294
I28013
sS'AGTTAG'
p2295
I6493
sS'CCCCTA'
p2296
I9023
sS'ACACAG'
p2297
I18473
sS'ACACAA'
p2298
I12460
sS'ACACAC'
p2299
I29392
sS'AATGTT'
p2300
I12552
sS'CTGCAG'
p2301
I29646
sS'CATGGG'
p2302
I10640
sS'CATGGA'
p2303
I10532
sS'CATGGC'
p2304
I11834
sS'AATGTC'
p2305
I9193
sS'ACACAT'
p2306
I12194
sS'AATGTA'
p2307
I9556
sS'AATGTG'
p2308
I12784
sS'CATGGT'
p2309
I9856
sS'CTGCAT'
p2310
I12119
sS'GCACAG'
p2311
I16897
sS'CGATTC'
p2312
I2780
sS'CCACAG'
p2313
I21352
sS'CGAGAT'
p2314
I3323
sS'ATTACT'
p2315
I8264
sS'CACAAT'
p2316
I8956
sS'TTATCT'
p2317
I10574
sS'ACATTG'
p2318
I7849
sS'ACATTA'
p2319
I7959
sS'ACATTC'
p2320
I10739
sS'ATTACA'
p2321
I12261
sS'CCACAC'
p2322
I16171
sS'ATTACC'
p2323
I5765
sS'CGAGAC'
p2324
I5267
sS'TAACCG'
p2325
I1718
sS'CGAGAA'
p2326
I4424
sS'AAGTCT'
p2327
I10781
sS'GCTATT'
p2328
I6942
sS'GGACAT'
p2329
I7697
sS'GCTATA'
p2330
I3956
sS'GCTATC'
p2331
I3645
sS'AAGTCG'
p2332
I2844
sS'AAGTCA'
p2333
I12962
sS'GCTATG'
p2334
I5951
sS'AAGTCC'
p2335
I10340
sS'GGACAG'
p2336
I16460
sS'GGACAC'
p2337
I11076
sS'CTATCG'
p2338
I1159
sS'CTAATT'
p2339
I9421
sS'AGGGTT'
p2340
I10929
sS'GAGGCG'
p2341
I16516
sS'TGTTGG'
p2342
I11613
sS'GAGGCA'
p2343
I19575
sS'TGTTGA'
p2344
I9712
sS'GAGGCC'
p2345
I23881
sS'TGTTGC'
p2346
I9892
sS'TCCAAG'
p2347
I13560
sS'ACTCGA'
p2348
I2285
sS'TAAAAT'
p2349
I20167
sS'ACTCGC'
p2350
I3928
sS'ACTCGG'
p2351
I5265
sS'TGTTGT'
p2352
I11040
sS'GAGGCT'
p2353
I21898
sS'AGCGCC'
p2354
I11182
sS'AGGGTG'
p2355
I17055
sS'AGGGTA'
p2356
I6798
sS'AGCGCG'
p2357
I8136
sS'AGGGTC'
p2358
I10615
sS'TAAAAG'
p2359
I14566
sS'ACTCGT'
p2360
I2167
sS'TAAAAC'
p2361
I12395
sS'TAAAAA'
p2362
I26523
sS'CTACTC'
p2363
I7891
sS'TAGGGA'
p2364
I9562
sS'CTACTA'
p2365
I5518
sS'TAGGGC'
p2366
I7011
sS'CTACTG'
p2367
I8917
sS'AGCTGG'
p2368
I23997
sS'TAGGGG'
p2369
I9062
sS'TAAATG'
p2370
I13384
sS'AGTGCG'
p2371
I4256
sS'AGTGCA'
p2372
I11484
sS'AGAGTT'
p2373
I11293
sS'AGTGCC'
p2374
I11803
sS'AAAACC'
p2375
I14012
sS'TAGGGT'
p2376
I6315
sS'AGCTGT'
p2377
I14625
sS'ACGTTT'
p2378
I4005
sS'AGTGCT'
p2379
I14285
sS'AGAGTC'
p2380
I10525
sS'ATGCAC'
p2381
I7401
sS'AGAGTA'
p2382
I7406
sS'AGAGTG'
p2383
I13470
sS'TAACCC'
p2384
I5830
sS'GTTAAA'
p2385
I9251
sS'CCTGGC'
p2386
I30390
sS'GTTAAC'
p2387
I4742
sS'GTCTGT'
p2388
I11458
sS'CCTGGG'
p2389
I37732
sS'GTTAAG'
p2390
I6628
sS'TAACCA'
p2391
I7513
sS'CTAATC'
p2392
I5218
sS'GTCTGG'
p2393
I13681
sS'GTCTGC'
p2394
I10410
sS'GTTAAT'
p2395
I6479
sS'CCTGGT'
p2396
I15907
sS'CCGGTC'
p2397
I5208
sS'GGAAGG'
p2398
I28379
sS'CCACAT'
p2399
I11671
sS'GGAAGC'
p2400
I19519
sS'CTAATG'
p2401
I6763
sS'GGAAGA'
p2402
I21305
sS'TGTATT'
p2403
I12132
sS'TCCTCT'
p2404
I22451
sS'GCGTTC'
p2405
I3947
sS'CAATGC'
p2406
I7180
sS'CTGGAT'
p2407
I11530
sS'GCGTTG'
p2408
I3326
sS'CAATGG'
p2409
I8831
sS'ATGCTG'
p2410
I13016
sS'GGAAGT'
p2411
I15736
sS'ATGCTC'
p2412
I7874
sS'ATGCTA'
p2413
I6193
sS'AAACCA'
p2414
I15379
sS'TCCTCG'
p2415
I7019
sS'TGTATG'
p2416
I7586
sS'TCCTCA'
p2417
I17319
sS'GCGTTT'
p2418
I4301
sS'TCCTCC'
p2419
I31382
sS'TGTATC'
p2420
I5812
sS'GTGAAT'
p2421
I9124
sS'AACCCC'
p2422
I11500
sS'TCATAG'
p2423
I6770
sS'TTCGTG'
p2424
I2972
sS'CGTTAC'
p2425
I1655
sS'TTCGTA'
p2426
I1566
sS'CGTTAA'
p2427
I1814
sS'TTCGTC'
p2428
I2415
sS'ACCGCT'
p2429
I3929
sS'TCGCGA'
p2430
I2149
sS'AACCCA'
p2431
I12266
sS'TCAGGA'
p2432
I18243
sS'TTCGTT'
p2433
I2982
sS'TCATAT'
p2434
I7320
sS'TAACCT'
p2435
I7387
sS'GTGAAG'
p2436
I11670
sS'GTGAAA'
p2437
I13996
sS'GTGAAC'
p2438
I7002
sS'CAATAG'
p2439
I5882
sS'AACCCG'
p2440
I5110
sS'ACCGCG'
p2441
I5664
sS'ACCGCA'
p2442
I4371
sS'CCCTAT'
p2443
I5633
sS'ACCGCC'
p2444
I7995
sS'CCGCCT'
p2445
I17701
sS'AGGCTT'
p2446
I13791
sS'CCTTCT'
p2447
I20723
sS'GTTGCA'
p2448
I7845
sS'AACGAA'
p2449
I3054
sS'GTTGCC'
p2450
I9062
sS'GTGCCG'
p2451
I5154
sS'GTGCCA'
p2452
I12180
sS'GTTGCG'
p2453
I2500
sS'GTGCCC'
p2454
I13944
sS'CCGCCG'
p2455
I20505
sS'AGGCTA'
p2456
I7691
sS'CCTTCC'
p2457
I28247
sS'AGGCTC'
p2458
I16249
sS'CCGCCC'
p2459
I33803
sS'AACGAC'
p2460
I1983
sS'CCGCCA'
p2461
I11262
sS'AGGCTG'
p2462
I30818
sS'GTGCCT'
p2463
I13439
sS'GGCGAA'
p2464
I4110
sS'GTTGCT'
p2465
I9460
sS'NNNGCG'
p2466
I1
sS'GGATAT'
p2467
I5242
sS'TCGGGT'
p2468
I3704
sS'AAACCT'
p2469
I12568
sS'GCAGTT'
p2470
I10856
sS'GAAGCT'
p2471
I13759
sS'GGATAA'
p2472
I6490
sS'TCGGGA'
p2473
I5770
sS'NNNNNG'
p2474
I2
sS'TCGGGG'
p2475
I8441
sS'GGATAG'
p2476
I5027
sS'GAAGCG'
p2477
I6810
sS'GCAGTG'
p2478
I19653
sS'GAAGCC'
p2479
I16487
sS'GCAGTA'
p2480
I7334
sS'GAAGCA'
p2481
I14782
sS'GCAGTC'
p2482
I10201
sS'CGCCCG'
p2483
I16196
sS'GAGAGA'
p2484
I24342
sS'GAGAGG'
p2485
I24910
sS'CGCCCA'
p2486
I12311
sS'AGTTTG'
p2487
I11971
sS'CTATAG'
p2488
I4206
sS'NNNNNN'
p2489
I810
sS'GCATTC'
p2490
I9143
sS'CTATAA'
p2491
I6289
sS'CTCGCA'
p2492
I4519
sS'CGCCCT'
p2493
I13039
sS'GAGAGT'
p2494
I10329
sS'GTCTCG'
p2495
I5257
sS'CTATAT'
p2496
I5078
sS'AACTGA'
p2497
I12538
sS'GCCGGG'
p2498
I22930
sS'AGCATC'
p2499
I8948
sS'GCCGGC'
p2500
I15799
sS'CATGTT'
p2501
I10859
sS'GCCGGA'
p2502
I8469
sS'AGATCT'
p2503
I8921
sS'AGTTTA'
p2504
I9736
sS'CGAGCG'
p2505
I5926
sS'GCCACT'
p2506
I15208
sS'CATGTA'
p2507
I6908
sS'CATGTC'
p2508
I8001
sS'GCCGGT'
p2509
I5315
sS'CATGTG'
p2510
I12117
sS'AGTTCG'
p2511
I3051
sS'ATTAAC'
p2512
I6484
sS'GTACTC'
p2513
I4052
sS'GGCCTG'
p2514
I24492
sS'GGCCTC'
p2515
I23734
sS'NNGCGC'
p2516
I1
sS'GGCCTA'
p2517
I6600
sS'AATCGG'
p2518
I2299
sS'AATCGC'
p2519
I2739
sS'AATCGA'
p2520
I1797
sS'TTCCCA'
p2521
I21842
sS'GGCCTT'
p2522
I13959
sS'TCACTA'
p2523
I7234
sS'TCACTC'
p2524
I13053
sS'AATCGT'
p2525
I1842
sS'AGCCGA'
p2526
I6043
sS'GAGCGT'
p2527
I4056
sS'AGCCGC'
p2528
I11670
sS'TAATTG'
p2529
I7173
sS'AAAAAT'
p2530
I30941
sS'AGCCGG'
p2531
I11833
sS'GTTTTT'
p2532
I18899
sS'TGGTGA'
p2533
I14456
sS'GGGCTC'
p2534
I19756
sS'TGGTGC'
p2535
I11264
sS'GATGGC'
p2536
I10178
sS'GGGCTG'
p2537
I29606
sS'TGGTGG'
p2538
I19335
sS'GATGGG'
p2539
I12976
sS'TAATTT'
p2540
I16860
sS'GTTTTA'
p2541
I12387
sS'GTTTTG'
p2542
I13953
sS'GTTCAA'
p2543
I8872
sS'AAAAAG'
p2544
I24952
sS'TGACAG'
p2545
I13398
sS'CCAAGG'
p2546
I17285
sS'ACGTAT'
p2547
I1733
sS'TCTCAG'
p2548
I18884
sS'GATGGT'
p2549
I7438
sS'TGGTGT'
p2550
I11315
sS'GGGCTT'
p2551
I14724
sS'AGAACT'
p2552
I12504
sS'GCATTA'
p2553
I5928
sS'CAAAGA'
p2554
I16368
sS'CCTTCG'
p2555
I5180
sS'TACCAT'
p2556
I6003
sS'AGATAG'
p2557
I6641
sS'ACCCGG'
p2558
I8899
sS'ACCCGA'
p2559
I3858
sS'ATGTCT'
p2560
I9752
sS'ACCCGC'
p2561
I7911
sS'AGATAA'
p2562
I10399
sS'TACCAC'
p2563
I6436
sS'AGAACG'
p2564
I3886
sS'TCCCGA'
p2565
I5864
sS'ATTGCC'
p2566
I7126
sS'TACCAG'
p2567
I7259
sS'AGAACC'
p2568
I10579
sS'ATGTCA'
p2569
I10015
sS'CACTGG'
p2570
I16093
sS'CCTATG'
p2571
I5853
sS'ATCACG'
p2572
I3143
sS'CCTATA'
p2573
I4379
sS'CACTGC'
p2574
I20031
sS'CCTATC'
p2575
I5109
sS'CAGCGT'
p2576
I5841
sS'TAGGTT'
p2577
I6179
sS'GTTTAC'
p2578
I6686
sS'AATTAT'
p2579
I11306
sS'CTGTTG'
p2580
I12245
sS'GTAACC'
p2581
I4848
sS'CTGTTC'
p2582
I12164
sS'CGGGTT'
p2583
I5059
sS'CTGTTA'
p2584
I8574
sS'AATTAC'
p2585
I8259
sS'AATTAA'
p2586
I13161
sS'TAGGTA'
p2587
I5275
sS'TAGGTC'
p2588
I4955
sS'CGGGTC'
p2589
I6972
sS'CTGTTT'
p2590
I18328
sS'CGGGTA'
p2591
I2728
sS'CGGGTG'
p2592
I8538
sS'GGGTAC'
p2593
I4443
sS'CTTCGG'
p2594
I5287
sS'CACACT'
p2595
I13116
sS'CATTAC'
p2596
I6017
sS'TTAGGG'
p2597
I8343
sS'ATATAT'
p2598
I12306
sS'AGCAAC'
p2599
I9769
sS'TTAGGC'
p2600
I6175
sS'AAAGCT'
p2601
I14082
sS'TTAGGA'
p2602
I9756
sS'AAAGCA'
p2603
I18913
sS'ATATAG'
p2604
I4904
sS'TTAGGT'
p2605
I6593
sS'ATATAA'
p2606
I9158
sS'AGCAAT'
p2607
I9812
sS'AAAGCG'
p2608
I4900
sS'ATAGCA'
p2609
I7218
sS'ATAGCC'
p2610
I5029
sS'TACTTG'
p2611
I7385
sS'ATAGCG'
p2612
I1578
sS'CAGCAT'
p2613
I12848
sS'CAGCGC'
p2614
I12761
sS'ATAGCT'
p2615
I6670
sS'TACTTT'
p2616
I11638
sS'CATGCG'
p2617
I3715
sS'CGAGTT'
p2618
I2961
sS'TCCAAT'
p2619
I7611
sS'CGTACT'
p2620
I1445
sS'TCCCGT'
p2621
I4764
sS'TATGCT'
p2622
I6089
sS'CTTAAG'
p2623
I8180
sS'ACATAA'
p2624
I8825
sS'CTTAAA'
p2625
I12911
sS'ACATAG'
p2626
I6567
sS'CTTAAC'
p2627
I6758
sS'CGTACA'
p2628
I1658
sS'CGAGTG'
p2629
I4241
sS'CGAGTA'
p2630
I2042
sS'TCCAAA'
p2631
I14672
sS'AGGGGA'
p2632
I21578
sS'CTTAAT'
p2633
I7905
sS'AGGGGC'
p2634
I21866
sS'TATGCA'
p2635
I6929
sS'AGGGGG'
p2636
I20218
sS'TCATTA'
p2637
I9519
sS'CGACTT'
p2638
I2930
sS'TGAATT'
p2639
I12231
sS'TTGTAA'
p2640
I9971
sS'CACAAA'
p2641
I15714
sS'TTGTAC'
p2642
I5288
sS'GTACCT'
p2643
I5502
sS'CGTTTA'
p2644
I2533
sS'TGAATC'
p2645
I9569
sS'ACAACA'
p2646
I11253
sS'TGAATA'
p2647
I9704
sS'CGACTC'
p2648
I4016
sS'TGAATG'
p2649
I13126
sS'CACACA'
p2650
I34271
sS'CGACTG'
p2651
I3568
sS'TTGTAT'
p2652
I9071
sS'ATCGTG'
p2653
I2369
sS'GCTTCG'
p2654
I4470
sS'GCTTCA'
p2655
I11494
sS'GCTTCC'
p2656
I19508
sS'TGGGAG'
p2657
I27796
sS'TGGGAA'
p2658
I21471
sS'TGGGAC'
p2659
I12844
sS'GCTTCT'
p2660
I16232
sS'ATCGTT'
p2661
I1828
sS'GATTGA'
p2662
I5567
sS'ATCGTA'
p2663
I1108
sS'TGGGAT'
p2664
I14394
sS'CTAGCC'
p2665
I7243
sS'GACCAT'
p2666
I5771
sS'CTAGCG'
p2667
I2944
sS'CGGTAG'
p2668
I2562
sS'ACTTAG'
p2669
I7054
sS'ACTTAA'
p2670
I9346
sS'CGGTAC'
p2671
I1652
sS'TACACT'
p2672
I6179
sS'CGGTAA'
p2673
I2112
sS'GACCAG'
p2674
I12788
sS'GACCAC'
p2675
I8612
sS'CTATCC'
p2676
I4987
sS'TTCGAG'
p2677
I3553
sS'TACACC'
p2678
I4946
sS'CGGTAT'
p2679
I1307
sS'TACACA'
p2680
I10377
sS'TACACG'
p2681
I2144
sS'GCGAGA'
p2682
I5962
sS'GAGAGC'
p2683
I14987
sS'GCGAGC'
p2684
I7880
sS'GGCCGT'
p2685
I5686
sS'GCGAGG'
p2686
I11034
sS'CAGCCG'
p2687
I12118
sS'CAGCCA'
p2688
I23469
sS'CAGCCC'
p2689
I29642
sS'TCCGGG'
p2690
I10941
sS'GCGAGT'
p2691
I3894
sS'GAACTG'
p2692
I12059
sS'CCCTCA'
p2693
I16685
sS'GAACTC'
p2694
I10263
sS'GAACTA'
p2695
I6015
sS'GGACTT'
p2696
I10397
sS'CACCTA'
p2697
I8497
sS'AACTAT'
p2698
I6310
sS'CACCTC'
p2699
I19010
sS'CACCTG'
p2700
I21773
sS'TGATCC'
p2701
I8118
sS'AACACT'
p2702
I10577
sS'TGATCA'
p2703
I7417
sS'TGATCG'
p2704
I1619
sS'AACTAG'
p2705
I6282
sS'GGACTG'
p2706
I12942
sS'CACCTT'
p2707
I13342
sS'GGACTA'
p2708
I5800
sS'GGACTC'
p2709
I11054
sS'AACGAT'
p2710
I1770
sS'AACACG'
p2711
I3804
sS'TGCAAT'
p2712
I9216
sS'AACACC'
p2713
I9095
sS'TGATCT'
p2714
I9566
sS'CCAGCA'
p2715
I23726
sS'ACGCAC'
p2716
I4240
sS'CAACAG'
p2717
I12456
sS'GACAGT'
p2718
I8867
sS'CAACAA'
p2719
I11200
sS'CCAGCC'
p2720
I34433
sS'CAACAC'
p2721
I9350
sS'GCTGAT'
p2722
I8912
sS'ACGCAA'
p2723
I2490
sS'GACAGG'
p2724
I15760
sS'CAACAT'
p2725
I9856
sS'GACAGC'
p2726
I12438
sS'GACAGA'
p2727
I15683
sS'GTATTA'
p2728
I5493
sS'GTATTC'
p2729
I5059
sS'GTAAGT'
p2730
I6414
sS'CCAGCG'
p2731
I11291
sS'AGAGGT'
p2732
I13669
sS'GGTGGC'
p2733
I21346
sS'TCCCCT'
p2734
I21505
sS'GGTGGA'
p2735
I16428
sS'TATCTT'
p2736
I8683
sS'GGTGGG'
p2737
I27485
sS'ATCCCT'
p2738
I10894
sS'AGAGGC'
p2739
I20810
sS'GTAAGA'
p2740
I7128
sS'AGAGGA'
p2741
I22224
sS'GTAAGC'
p2742
I5030
sS'AGAGGG'
p2743
I24272
sS'ANTCCC'
p2744
I1
sS'GTAAGG'
p2745
I6684
sS'CGTCAA'
p2746
I1934
sS'CGTCAC'
p2747
I4540
sS'TCCCCC'
p2748
I18955
sS'GGTGGT'
p2749
I12482
sS'TCCCCA'
p2750
I23717
sS'GTCGCG'
p2751
I3611
sS'GTCGCA'
p2752
I2522
sS'GTCGCC'
p2753
I6308
sS'CCGTCT'
p2754
I6143
sS'TCGGTA'
p2755
I1483
sS'CTCGCG'
p2756
I6505
sS'TCGGTG'
p2757
I4066
sS'GTCGCT'
p2758
I3859
sS'GTAACT'
p2759
I6694
sS'CCGTCG'
p2760
I3118
sS'CCGTCA'
p2761
I3568
sS'TCGGTT'
p2762
I2762
sS'GGCTGT'
p2763
I16169
sS'CGCGTG'
p2764
I4813
sS'GCATTT'
p2765
I14276
sS'CGCGTC'
p2766
I5105
sS'CGCGTA'
p2767
I1155
sS'GAATTT'
p2768
I13652
sS'CCACTA'
p2769
I7946
sS'CCTACA'
p2770
I7583
sS'CGCGTT'
p2771
I2606
sS'GGCTGG'
p2772
I34364
sS'GGCTGA'
p2773
I19457
sS'GGCTGC'
p2774
I25913
sS'ATGCAT'
p2775
I8288
sS'CCTACC'
p2776
I8859
sS'ATGACG'
p2777
I2732
sS'GGAGTT'
p2778
I13306
sS'ATGACA'
p2779
I10699
sS'ATGACC'
p2780
I6980
sS'CGGGCC'
p2781
I15488
sS'GGGCCT'
p2782
I19610
sS'ATGACT'
p2783
I13286
sS'GGAGTA'
p2784
I6426
sS'CTACGC'
p2785
I2282
sS'GGAGTC'
p2786
I12468
sS'GGAGTG'
p2787
I16019
sS'GGGCCG'
p2788
I17666
sS'GGGCCC'
p2789
I21874
sS'GGGCCA'
p2790
I17424
sS'CTGATC'
p2791
I7354
sS'ACGAGT'
p2792
I2075
sS'TTCNNN'
p2793
I2
sS'AGGCCA'
p2794
I18750
sS'GCGCAC'
p2795
I7116
sS'AAAGTC'
p2796
I11036
sS'AGGCCG'
p2797
I12089
sS'ACGAGG'
p2798
I4981
sS'ACGAGC'
p2799
I2834
sS'ACGAGA'
p2800
I2949
sS'GGCAAC'
p2801
I9132
sS'AGGCCT'
p2802
I18138
sS'GCTCTA'
p2803
I7075
sS'ACATCT'
p2804
I10098
sS'GGGTTG'
p2805
I10222
sS'GACTAC'
p2806
I4907
sS'GGGTTA'
p2807
I6209
sS'CTCGGG'
p2808
I10942
sS'GGGTTC'
p2809
I10175
sS'TTTGAT'
p2810
I10672
sS'TGAACT'
p2811
I11022
sS'CTACGA'
p2812
I1693
sS'ATTGCT'
p2813
I9860
sS'GGGTTT'
p2814
I13089
sS'TGCGAC'
p2815
I2564
sS'AGATCC'
p2816
I8069
sS'TGCGAG'
p2817
I4482
sS'AACGGC'
p2818
I3294
sS'ATTCGG'
p2819
I2338
sS'AACGGA'
p2820
I3245
sS'GACTAG'
p2821
I5068
sS'ATTGCG'
p2822
I1830
sS'TTTGAC'
p2823
I8017
sS'TTTGAA'
p2824
I17428
sS'ATCATC'
p2825
I7669
sS'CCTGAC'
p2826
I14676
sS'TGACGT'
p2827
I3868
sS'CTCGTC'
p2828
I3975
sS'CCCTGG'
p2829
I28779
sS'CCCTGA'
p2830
I17167
sS'CTCGTG'
p2831
I4441
sS'GATATT'
p2832
I7074
sS'TACCTT'
p2833
I8002
sS'GATATC'
p2834
I3460
sS'AAGCTC'
p2835
I11190
sS'GATATA'
p2836
I4328
sS'TGACGG'
p2837
I3493
sS'GATATG'
p2838
I4969
sS'TGACGA'
p2839
I2310
sS'TGACGC'
p2840
I3900
sS'TACTCT'
p2841
I7438
sS'CATCGT'
p2842
I2435
sS'CAGGGT'
p2843
I16210
sS'CCAGTC'
p2844
I12780
sS'GACACA'
p2845
I12690
sS'CCAGTG'
p2846
I15938
sS'TACTCG'
p2847
I2035
sS'CATCGA'
p2848
I1807
sS'CATCGC'
p2849
I3427
sS'TACTCC'
p2850
I6435
sS'NGAATT'
p2851
I1
sS'TACTCA'
p2852
I8685
sS'CATCGG'
p2853
I2427
sS'CAGGGG'
p2854
I22208
sS'GAACCT'
p2855
I9038
sS'CAGGGA'
p2856
I25011
sS'CAGGGC'
p2857
I25958
sS'AATCTG'
p2858
I11085
sS'TACAAT'
p2859
I6835
sS'GCCATT'
p2860
I9883
sS'AATCTA'
p2861
I6814
sS'TGAACG'
p2862
I2708
sS'TCACAC'
p2863
I12569
sS'TCACAA'
p2864
I11267
sS'TCACAG'
p2865
I17403
sS'GCCATA'
p2866
I5246
sS'CGGACG'
p2867
I3975
sS'AGACGT'
p2868
I3346
sS'CGGACA'
p2869
I3921
sS'CGGACC'
p2870
I5175
sS'GCCATG'
p2871
I11929
sS'TTTTAA'
p2872
I27223
sS'CTCGGC'
p2873
I12511
sS'TCACAT'
p2874
I11643
sS'TGAACC'
p2875
I8575
sS'CACGGA'
p2876
I4999
sS'ATTAAA'
p2877
I15301
sS'ATTAAG'
p2878
I7985
sS'CTTACA'
p2879
I7958
sS'TCACTT'
p2880
I15319
sS'ACTCCT'
p2881
I14626
sS'ATCCAG'
p2882
I11534
sS'GTGNNN'
p2883
I1
sS'GTGCAG'
p2884
I15507
sS'CGGCCA'
p2885
I9406
sS'ATTAAT'
p2886
I9789
sS'AAGCAC'
p2887
I10724
sS'GAACCA'
p2888
I9786
sS'GGTATG'
p2889
I5041
sS'GGTATA'
p2890
I3448
sS'GGTATC'
p2891
I3700
sS'GAACCG'
p2892
I3942
sS'GGTATT'
p2893
I6141
sS'GTTAGT'
p2894
I4892
sS'TCGACC'
p2895
I2038
sS'GGAACC'
p2896
I11000
sS'CTGAAG'
p2897
I16688
sS'ATTGTA'
p2898
I6728
sS'NNNNGA'
p2899
I1
sS'CATTGC'
p2900
I8590
sS'CCCGGC'
p2901
I22721
sS'CATTGA'
p2902
I7343
sS'CTAGTT'
p2903
I6224
sS'CATTGG'
p2904
I8206
sS'TCAACT'
p2905
I8020
sS'ACCATC'
p2906
I7613
sS'ACACCG'
p2907
I3973
sS'CTGCCA'
p2908
I21145
sS'GACACT'
p2909
I9160
sS'ACACCC'
p2910
I12594
sS'ACACCA'
p2911
I11214
sS'CTGCCG'
p2912
I11240
sS'CTAGTG'
p2913
I8067
sS'TCAACC'
p2914
I6783
sS'ATGTTC'
p2915
I8000
sS'CTAGTC'
p2916
I5117
sS'TCAACG'
p2917
I2045
sS'CTAGTA'
p2918
I4012
sS'CATTGT'
p2919
I9437
sS'TATGAC'
p2920
I5785
sS'GTAATG'
p2921
I6008
sS'ACACCT'
p2922
I11765
sS'CTGCCT'
p2923
I28621
sS'TATCAC'
p2924
I5369
sS'CCTCGT'
p2925
I5038
sS'TTGTGT'
p2926
I12519
sS'AGACTG'
p2927
I13048
sS'TCACTG'
p2928
I17995
sS'AGACTA'
p2929
I6182
sS'CCTCGG'
p2930
I12574
sS'CCTCGC'
p2931
I11314
sS'CCCGAC'
p2932
I6373
sS'CCTCGA'
p2933
I4237
sS'CGAGGA'
p2934
I7035
sS'CGAGGC'
p2935
I10930
sS'CGAGGG'
p2936
I9647
sS'ACTTTC'
p2937
I12273
sS'ACTTTA'
p2938
I9740
sS'ACTTTG'
p2939
I14219
sS'TAGCTA'
p2940
I5256
sS'GACCTG'
p2941
I12603
sS'GACCTA'
p2942
I4903
sS'GACCTC'
p2943
I11878
sS'CACCGG'
p2944
I6284
sS'GCATAG'
p2945
I4917
sS'CACCGA'
p2946
I4150
sS'ACTTTT'
p2947
I15971
sS'GACCTT'
p2948
I9088
sS'CGCCCC'
p2949
I28839
sS'GGACGG'
p2950
I7360
sS'CTATTA'
p2951
I6153
sS'CACAGC'
p2952
I20569
sS'CTTATC'
p2953
I5989
sS'CACAGA'
p2954
I19276
sS'CTTATA'
p2955
I5318
sS'CACAGG'
p2956
I19922
sS'CTTATG'
p2957
I5950
sS'ACTCAT'
p2958
I11960
sS'GAGGAG'
p2959
I30715
sS'GACGTA'
p2960
I1495
sS'CGTATC'
p2961
I1395
sS'GACGTC'
p2962
I3893
sS'TAAACT'
p2963
I9597
sS'GAGGAA'
p2964
I23632
sS'AGCGAT'
p2965
I3171
sS'TTAACA'
p2966
I9672
sS'ACTCAC'
p2967
I13485
sS'TTAACC'
p2968
I6611
sS'TTGTGA'
p2969
I10868
sS'ACTCAG'
p2970
I16505
sS'TTAACG'
p2971
I1834
sS'CACAGT'
p2972
I14395
sS'AGCGAC'
p2973
I3852
sS'TAAACA'
p2974
I12942
sS'AGCGAA'
p2975
I3587
sS'TAAACC'
p2976
I6946
sS'GACGTT'
p2977
I2583
sS'TCTAAA'
p2978
I11175
sS'TAAACG'
p2979
I2426
sS'AGTTCC'
p2980
I11144
sS'GTATGT'
p2981
I6665
sS'AGTTCA'
p2982
I11073
sS'TACTTA'
p2983
I6922
sS'CTGTGC'
p2984
I16587
sS'TAGCCC'
p2985
I6542
sS'CTGTGA'
p2986
I17249
sS'CGGGGT'
p2987
I9285
sS'TAGGAC'
p2988
I5480
sS'GCAAAG'
p2989
I14067
sS'TAGGAA'
p2990
I12122
sS'GCAAAA'
p2991
I13482
sS'TAGGAG'
p2992
I10358
sS'GCAAAC'
p2993
I9122
sS'CGGGGC'
p2994
I24948
sS'CGGGGA'
p2995
I14095
sS'CTGTGT'
p2996
I18436
sS'CGGGGG'
p2997
I15544
sS'GTATGC'
p2998
I3572
sS'AGTTCT'
p2999
I12306
sS'GCAAAT'
p3000
I10216
sS'TAGGAT'
p3001
I6510
sS'TAATTA'
p3002
I9804
sS'GCATAT'
p3003
I5350
sS'TGCTTT'
p3004
I18723
sS'GTCTAT'
p3005
I4232
sS'TGGGNC'
p3006
I1
sS'ACTAGG'
p3007
I7125
sS'GTTACC'
p3008
I5250
sS'GTTACA'
p3009
I6844
sS'TAATTC'
p3010
I8478
sS'GTTACG'
p3011
I1423
sS'TATCGC'
p3012
I1278
sS'TATAGT'
p3013
I4603
sS'GTCTAA'
p3014
I4883
sS'CAGGAC'
p3015
I15293
sS'GTCTAC'
p3016
I4068
sS'TGCTTC'
p3017
I14614
sS'TTCAAA'
p3018
I17400
sS'TTCAAC'
p3019
I7925
sS'GATGGA'
p3020
I10793
sS'TATAGC'
p3021
I3948
sS'TATCGT'
p3022
I1098
sS'TATAGA'
p3023
I5634
sS'AGCTCA'
p3024
I14604
sS'TATAGG'
p3025
I4500
sS'GTTACT'
p3026
I6701
sS'GGAAAA'
p3027
I23707
sS'GGAAAC'
p3028
I15607
sS'GGGCTA'
p3029
I6705
sS'GCTCTG'
p3030
I22688
sS'CCACGT'
p3031
I6488
sS'GGCGTT'
p3032
I4071
sS'AGGACC'
p3033
I10959
sS'GAATGG'
p3034
I11314
sS'GAATGA'
p3035
I13867
sS'ACTACT'
p3036
I5856
sS'GAATGC'
p3037
I8963
sS'CCACGA'
p3038
I4209
sS'AACCTG'
p3039
I12553
sS'CCACGC'
p3040
I10037
sS'GGCGTA'
p3041
I1931
sS'GGAAAT'
p3042
I16685
sS'CCACGG'
p3043
I7532
sS'AACCTA'
p3044
I6175
sS'GGCTTA'
p3045
I7094
sS'ACTACC'
p3046
I4635
sS'GGCTTC'
p3047
I16515
sS'ACTACA'
p3048
I8180
sS'ACTACG'
p3049
I1806
sS'GGCTTG'
p3050
I12493
sS'TCCTAG'
p3051
I9809
sS'AGTCAG'
p3052
I14954
sS'CGTTGC'
p3053
I3235
sS'TAACAC'
p3054
I6499
sS'TCCTAC'
p3055
I7505
sS'AGTCAC'
p3056
I14903
sS'TCCTAA'
p3057
I9575
sS'TAACAG'
p3058
I8537
sS'TCATCG'
p3059
I2627
sS'AAGCGT'
p3060
I3127
sS'TCATCC'
p3061
I11118
sS'AAAAAC'
p3062
I18697
sS'CTTTCT'
p3063
I24156
sS'AGTCAT'
p3064
I13280
sS'TCCTAT'
p3065
I6935
sS'TAACAT'
p3066
I7899
sS'CGTTGT'
p3067
I2325
sS'GAGCGA'
p3068
I5993
sS'TCCCTT'
p3069
I19012
sS'CTTTCA'
p3070
I15342
sS'CTTTCG'
p3071
I3548
sS'AGCCGT'
p3072
I4083
sS'GAGCGC'
p3073
I10560
sS'GTTGAT'
p3074
I5335
sS'CGACCA'
p3075
I2826
sS'CGACCC'
p3076
I5742
sS'GCATAC'
p3077
I3545
sS'CGACCG'
p3078
I2710
sS'CCTTAT'
p3079
I7042
sS'GTTGAC'
p3080
I4989
sS'GTTGAA'
p3081
I7947
sS'GTTGAG'
p3082
I8401
sS'CCTTAC'
p3083
I6408
sS'CCTTAA'
p3084
I8742
sS'CCTTAG'
p3085
I8451
sS'CGACCT'
p3086
I3829
sS'AATAGA'
p3087
I9080
sS'AATAGC'
p3088
I7009
sS'CAACTG'
p3089
I9577
sS'AATAGG'
p3090
I7254
sS'TCTCAA'
p3091
I13867
sS'GGGGTT'
p3092
I11536
sS'GTCCCT'
p3093
I14677
sS'ATTCNN'
p3094
I2
sS'GGATGT'
p3095
I8494
sS'AATAGT'
p3096
I6775
sS'TCTCAC'
p3097
I13011
sS'CAACTT'
p3098
I9522
sS'GGGGTG'
p3099
I20942
sS'GGATGA'
p3100
I10871
sS'GGGGTC'
p3101
I12386
sS'GGGGTA'
p3102
I6133
sS'TCTCCG'
p3103
I7627
sS'GAGTCC'
p3104
I11329
sS'AAACTG'
p3105
I15980
sS'TCTCCC'
p3106
I23734
sS'GAGTCG'
p3107
I4094
sS'TCTCCA'
p3108
I19626
sS'AAACTC'
p3109
I12082
sS'CTATGA'
p3110
I6711
sS'AGTACG'
p3111
I1537
sS'ACGCGC'
p3112
I5081
sS'AGTACC'
p3113
I4700
sS'CTATGG'
p3114
I5674
sS'AGTACA'
p3115
I6947
sS'AAACTT'
p3116
I13386
sS'CCCTTC'
p3117
I21083
sS'TCTCCT'
p3118
I23100
sS'GAGTCT'
p3119
I11332
sS'AGTACT'
p3120
I6074
sS'CTATGT'
p3121
I6597
sS'GCCGAA'
p3122
I3771
sS'GTGGAG'
p3123
I18287
sS'GCCGAC'
p3124
I4656
sS'GTGGAC'
p3125
I7865
sS'GCCGAG'
p3126
I12421
sS'GTGGAA'
p3127
I13403
sS'GTGGAT'
p3128
I8300
sS'GCCGAT'
p3129
I2205
sS'CCTATT'
p3130
I7015
sS'TATCTG'
p3131
I8601
sS'CACTGT'
p3132
I14287
sS'GTAGTC'
p3133
I4949
sS'AAATCG'
p3134
I2723
sS'GTAGTA'
p3135
I3988
sS'TTATCG'
p3136
I1307
sS'GTAGTG'
p3137
I5739
sS'AAATCC'
p3138
I11862
sS'ACCGAA'
p3139
I2618
sS'AAATCA'
p3140
I14693
sS'GGCTTT'
p3141
I15172
sS'AGATAC'
p3142
I5852
sS'CACGCT'
p3143
I5134
sS'AAATCT'
p3144
I13588
sS'ACCGAT'
p3145
I1471
sS'GTAGTT'
p3146
I6106
sS'ACCAGT'
p3147
I7950
sS'TGCCGT'
p3148
I3618
sS'CGTTAT'
p3149
I1597
sS'GATGAT'
p3150
I7497
sS'GGAGCA'
p3151
I16124
sS'GGAGCC'
p3152
I23934
sS'CCGGCT'
p3153
I11701
sS'CCAAAT'
p3154
I11922
sS'GGAGCG'
p3155
I12408
sS'AAAACT'
p3156
I15806
sS'GATGAC'
p3157
I8669
sS'TGTCCC'
p3158
I14748
sS'GATGAA'
p3159
I10743
sS'GATGAG'
p3160
I11689
sS'CCAAAA'
p3161
I14576
sS'AGAACA'
p3162
I14410
sS'CCAAAC'
p3163
I11151
sS'AAAACG'
p3164
I4989
sS'GGAGCT'
p3165
I19129
sS'CCAAAG'
p3166
I17369
sS'TCGCGG'
p3167
I5352
sS'CTAGAG'
p3168
I10353
sS'TCGCGC'
p3169
I5116
sS'GGGAGT'
p3170
I13576
sS'GCCACA'
p3171
I16190
sS'AGATCA'
p3172
I9657
sS'GCCACC'
p3173
I21108
sS'AGAAAT'
p3174
I19425
sS'CGACGG'
p3175
I3087
sS'GCCACG'
p3176
I8436
sS'AGATCG'
p3177
I2808
sS'TGCCTA'
p3178
I8048
sS'ACCAGC'
p3179
I14584
sS'TCGCGT'
p3180
I1955
sS'GTGCAA'
p3181
I7831
sS'ACCCGT'
p3182
I2729
sS'AGAAAG'
p3183
I24897
sS'CGACGA'
p3184
I1515
sS'TACCCG'
p3185
I2610
sS'AGAAAC'
p3186
I17001
sS'AGATAT'
p3187
I7231
sS'AGAAAA'
p3188
I32000
sS'TACCCC'
p3189
I6015
sS'ATGTAC'
p3190
I5083
sS'ACTTCG'
p3191
I2838
sS'ATGTAA'
p3192
I9410
sS'ATGTAG'
p3193
I6277
sS'GAGGAT'
p3194
I10905
sS'CTACCA'
p3195
I7306
sS'CCGGCA'
p3196
I7710
sS'GACGAC'
p3197
I2556
sS'ATGTCG'
p3198
I1782
sS'ATGTAT'
p3199
I8172
sS'ATTAGA'
p3200
I7638
sS'CACTGA'
p3201
I14035
sS'GTTCCC'
p3202
I12101
sS'AGCACT'
p3203
I14095
sS'TTAGAA'
p3204
I12187
sS'CGGCTG'
p3205
I11991
sS'TTAGAC'
p3206
I5075
sS'GGATAC'
p3207
I4006
sS'CGGCTC'
p3208
I12284
sS'TTAGAG'
p3209
I9181
sS'CGGCTA'
p3210
I3022
sS'AGCACC'
p3211
I12413
sS'AGCACA'
p3212
I13909
sS'AGCACG'
p3213
I4641
sS'CGGCTT'
p3214
I6216
sS'TTAGAT'
p3215
I6619
sS'ATATCG'
p3216
I956
sS'CGAAGC'
p3217
I4498
sS'AAAGAA'
p3218
I28786
sS'AAAGAG'
p3219
I19680
sS'AACTAC'
p3220
I6080
sS'ATATCA'
p3221
I6361
sS'CGACGT'
p3222
I1519
sS'TTATTT'
p3223
I25263
sS'TGTGAG'
p3224
I15487
sS'TGTGAA'
p3225
I13746
sS'GGGAGG'
p3226
I46874
sS'TGTGAC'
p3227
I11968
sS'ATATCT'
p3228
I7043
sS'CCAGCT'
p3229
I24065
sS'CACGGT'
p3230
I4386
sS'AAAGAT'
p3231
I12929
sS'TGTGAT'
p3232
I10731
sS'TTATTG'
p3233
I9370
sS'TTATTA'
p3234
I12251
sS'GAAAGC'
p3235
I13767
sS'TTATTC'
p3236
I9878
sS'AGACGG'
p3237
I6269
sS'TTTTAT'
p3238
I20833
sS'CTTACT'
p3239
I8233
sS'TCCACT'
p3240
I12951
sS'TACAAA'
p3241
I13399
sS'AGACGA'
p3242
I3082
sS'TACAAC'
p3243
I5293
sS'CCTCTG'
p3244
I26737
sS'AGGTGG'
p3245
I22468
sS'CCTCTC'
p3246
I25225
sS'AGGTGC'
p3247
I12309
sS'CCTCTA'
p3248
I10300
sS'AGGTGA'
p3249
I15926
sS'CTTACG'
p3250
I1925
sS'TCCACA'
p3251
I13560
sS'TTTTAG'
p3252
I13769
sS'TCCACC'
p3253
I16407
sS'CTTACC'
p3254
I6936
sS'ACATCA'
p3255
I9663
sS'TTTTAC'
p3256
I11658
sS'ACATCC'
p3257
I8418
sS'AGGTGT'
p3258
I11664
sS'CCTCTT'
p3259
I18751
sS'GCGTGA'
p3260
I5500
sS'TATGAG'
p3261
I7086
sS'CCCGGA'
p3262
I10858
sS'CCCAAT'
p3263
I7065
sS'CCCGGG'
p3264
I22662
sS'TATGAA'
p3265
I9034
sS'TGGAAT'
p3266
I14222
sS'TAGGTG'
p3267
I8345
sS'TTGTGC'
p3268
I8401
sS'TATGAT'
p3269
I6152
sS'TTGTGG'
p3270
I12466
sS'CCCGGT'
p3271
I6025
sS'GGCGTG'
p3272
I11063
sS'TGGAAG'
p3273
I18179
sS'TGGAAC'
p3274
I9916
sS'TGGAAA'
p3275
I21065
sS'ATTCTA'
p3276
I8924
sS'TGAGGA'
p3277
I17227
sS'AAGAGG'
p3278
I19085
sS'TGAGGC'
p3279
I18142
sS'AAGAGA'
p3280
I19176
sS'AAGAGC'
p3281
I13320
sS'TGAGGG'
p3282
I16667
sS'GCTTAG'
p3283
I7250
sS'GCTTAC'
p3284
I5014
sS'GCTTAA'
p3285
I6782
sS'TGATTC'
p3286
I10799
sS'AAGCGC'
p3287
I5327
sS'AAGAGT'
p3288
I10662
sS'AAGCGA'
p3289
I4201
sS'NGCGCC'
p3290
I1
sS'TGAGGT'
p3291
I13611
sS'CATGAG'
p3292
I11336
sS'GCTTAT'
p3293
I5819
sS'CTGCTA'
p3294
I8623
sS'GCGTGT'
p3295
I5022
sS'CTGCTC'
p3296
I20711
sS'ACTTCT'
p3297
I12938
sS'GACCGT'
p3298
I2560
sS'CTGCTG'
p3299
I28942
sS'CGGTCA'
p3300
I3311
sS'GGTCGT'
p3301
I2354
sS'CGGTCC'
p3302
I5907
sS'CTAGAA'
p3303
I10378
sS'CGGTCG'
p3304
I2686
sS'GACCGA'
p3305
I2999
sS'GACCGC'
p3306
I5249
sS'ACTTCC'
p3307
I15754
sS'CTGCTT'
p3308
I18325
sS'ACTTCA'
p3309
I11556
sS'CTAGAT'
p3310
I6200
sS'GGTCGG'
p3311
I5628
sS'CGGTCT'
p3312
I4044
sS'GGTCGC'
p3313
I5089
sS'GGTCGA'
p3314
I2021
sS'CGTCGC'
p3315
I3708
sS'GCGTGG'
p3316
I9847
sS'CGTCGG'
p3317
I3271
sS'GCGTGC'
p3318
I6392
sS'TGCTCA'
p3319
I13845
sS'TTCATC'
p3320
I10760
sS'TGCTCC'
p3321
I16004
sS'TTCATA'
p3322
I8927
sS'TTCATG'
p3323
I10978
sS'TGCTCG'
p3324
I4255
sS'GTACAA'
p3325
I5300
sS'CAGCAG'
p3326
I28878
sS'NTTGTG'
p3327
I1
sS'GCTTTG'
p3328
I14559
sS'CAGCAC'
p3329
I18254
sS'CGTCGT'
p3330
I1496
sS'ACGACT'
p3331
I2255
sS'TCTGAC'
p3332
I11091
sS'TTCATT'
p3333
I17990
sS'GCTTTA'
p3334
I8757
sS'GCTGCC'
p3335
I24762
sS'GCTGCA'
p3336
I18672
sS'AACTCT'
p3337
I11287
sS'TGGCCC'
p3338
I17816
sS'TGGCCA'
p3339
I20567
sS'GTAGCA'
p3340
I5949
sS'TGCTCT'
p3341
I16664
sS'AGCAAA'
p3342
I16448
sS'TGGCCT'
p3343
I18978
sS'AACTCC'
p3344
I13085
sS'GCTGCT'
p3345
I22187
sS'AACTCG'
p3346
I3029
sS'CAGTCG'
p3347
I3610
sS'GGATCC'
p3348
I8846
sS'AATATT'
p3349
I14859
sS'GTTCGA'
p3350
I2356
sS'CAACCT'
p3351
I10567
sS'CAGTTA'
p3352
I8228
sS'TGGCCG'
p3353
I9397
sS'GGCACG'
p3354
I6070
sS'GGCACA'
p3355
I13591
sS'GACAAT'
p3356
I6510
sS'GGCACC'
p3357
I13340
sS'CAACCG'
p3358
I3192
sS'ACGACC'
p3359
I2358
sS'AATATG'
p3360
I9027
sS'AATATA'
p3361
I10020
sS'AGCAAG'
p3362
I14467
sS'AATATC'
p3363
I7087
sS'CTTCGT'
p3364
I3257
sS'GACAAA'
p3365
I11799
sS'GGCACT'
p3366
I11974
sS'GACAAC'
p3367
I6120
sS'ACGACA'
p3368
I2209
sS'GACAAG'
p3369
I9558
sS'GCTGCG'
p3370
I12896
sS'GCAATC'
p3371
I5987
sS'GCAATA'
p3372
I5806
sS'GCAATG'
p3373
I8584
sS'TTGAAC'
p3374
I8871
sS'CGATGG'
p3375
I3008
sS'TCCCAT'
p3376
I11984
sS'CGATGC'
p3377
I2525
sS'GTAAAT'
p3378
I9068
sS'CGATGA'
p3379
I2490
sS'GAATTA'
p3380
I8491
sS'GAATTC'
p3381
I9964
sS'GAATTG'
p3382
I7970
sS'TCCCAA'
p3383
I16234
sS'CGATGT'
p3384
I2042
sS'GTAAAA'
p3385
I11904
sS'GTAAAG'
p3386
I7959
sS'TCCCAG'
p3387
I30985
sS'GGATTT'
p3388
I11942
sS'GTGCGT'
p3389
I4057
sS'CAAGTA'
p3390
I7356
sS'ACGCCG'
p3391
I4641
sS'GGATTC'
p3392
I8435
sS'GGATTA'
p3393
I9345
sS'AGGTCC'
p3394
I10208
sS'AGCGGC'
p3395
I10987
sS'ACGCCA'
p3396
I4728
sS'AAAGCC'
p3397
I14758
sS'TCTGTG'
p3398
I19280
sS'TCTGTC'
p3399
I15880
sS'TCTGTA'
p3400
I10621
sS'AACCGG'
p3401
I3795
sS'CTCCTT'
p3402
I20790
sS'GGCGGA'
p3403
I13117
sS'GGCGGG'
p3404
I34806
sS'AACCGA'
p3405
I2776
sS'TACCCA'
p3406
I7741
sS'TCTGTT'
p3407
I15375
sS'ATATAC'
p3408
I5398
sS'CTCCTG'
p3409
I29751
sS'AACCGT'
p3410
I2333
sS'CTCCTA'
p3411
I10197
sS'CTCCTC'
p3412
I30695
sS'GGCGGT'
p3413
I8089
sS'GACGCA'
p3414
I4123
sS'GACGCC'
p3415
I6908
sS'CCCACA'
p3416
I17693
sS'CCCACC'
p3417
I27566
sS'TACTTC'
p3418
I7678
sS'AGCCTT'
p3419
I14430
sS'CCGATT'
p3420
I2397
sS'CCCACT'
p3421
I15985
sS'GGTCTT'
p3422
I9648
sS'GACGCT'
p3423
I4480
sS'AGCGGT'
p3424
I3858
sS'CCGATA'
p3425
I1131
sS'AGCCTG'
p3426
I24836
sS'AGCCTA'
p3427
I7381
sS'CCGATG'
p3428
I2413
sS'GTACCC'
p3429
I4219
sS'GAGTTT'
p3430
I12440
sS'TGGTTA'
p3431
I7609
sS'CGCCTT'
p3432
I7152
sS'TGGTTC'
p3433
I9746
sS'TCNNNN'
p3434
I3
sS'CAGAGT'
p3435
I15190
sS'GCATCT'
p3436
I9514
sS'CTCCCA'
p3437
I27801
sS'TGGTTT'
p3438
I15318
sS'CGCCTC'
p3439
I16822
sS'GCGCCA'
p3440
I9246
sS'CGCCTA'
p3441
I3257
sS'GCGCCG'
p3442
I15119
sS'CGCCTG'
p3443
I13834
sS'GAGTTA'
p3444
I6800
sS'CAGAGG'
p3445
I26855
sS'GCATCC'
p3446
I8661
sS'CTCCCC'
p3447
I32125
sS'CAGAGC'
p3448
I22724
sS'GCATCG'
p3449
I2445
sS'CAGAGA'
p3450
I23162
sS'GCCTCT'
p3451
I20598
sS'CCGATC'
p3452
I2191
sS'AGACTC'
p3453
I11131
sS'CCTAGA'
p3454
I9272
sS'CCTAGC'
p3455
I8417
sS'TTTGCT'
p3456
I16607
sS'CGGGAG'
p3457
I16732
sS'TGCGGT'
p3458
I4342
sS'CCTAGG'
p3459
I10779
sS'TAAGCA'
p3460
I8765
sS'TGCGGC'
p3461
I8376
sS'TGCGGA'
p3462
I4985
sS'CCTAGT'
p3463
I6984
sS'TGCGGG'
p3464
I9353
sS'TTTGCG'
p3465
I3257
sS'TGAGTT'
p3466
I11390
sS'GGGACG'
p3467
I8599
sS'CGGGAC'
p3468
I8607
sS'ATCGCT'
p3469
I3094
sS'TAATCT'
p3470
I7655
sS'TCTCGT'
p3471
I2985
sS'ATCGCC'
p3472
I3139
sS'TGAGTG'
p3473
I13088
sS'ATCGCA'
p3474
I2120
sS'TGAGTA'
p3475
I8507
sS'ATCGCG'
p3476
I2149
sS'TGAGTC'
p3477
I18388
sS'AAGGTG'
p3478
I13325
sS'AAGGTC'
p3479
I9054
sS'CATCAT'
p3480
I9422
sS'AAGGTA'
p3481
I7705
sS'ATTTCG'
p3482
I2273
sS'AAGCGG'
p3483
I5964
sS'ACGGCA'
p3484
I3572
sS'CATCAC'
p3485
I10040
sS'AAGGTT'
p3486
I9298
sS'CATCAA'
p3487
I8122
sS'CATCAG'
p3488
I11106
sS'ACGGCG'
p3489
I4340
sS'TCACCT'
p3490
I16295
sS'TCTAAG'
p3491
I8455
sS'TCGTTT'
p3492
I3636
sS'CGGAAT'
p3493
I2930
sS'CAATTC'
p3494
I8243
sS'GTGGCT'
p3495
I18688
sS'ATCGAT'
p3496
I1225
sS'TCACCG'
p3497
I5481
sS'TCACCA'
p3498
I14296
sS'TCACCC'
p3499
I14399
sS'CGGAAG'
p3500
I8507
sS'CAACCC'
p3501
I10373
sS'AACTGG'
p3502
I11981
sS'AAAATA'
p3503
I26812
sS'CGGAAC'
p3504
I3986
sS'AGCTCG'
p3505
I5086
sS'CGGAAA'
p3506
I5298
sS'GCCTCA'
p3507
I18238
sS'TGTGTC'
p3508
I12589
sS'TGTGTA'
p3509
I10350
sS'ATGGCC'
p3510
I9352
sS'ATGGCA'
p3511
I11353
sS'TTGTNN'
p3512
I1
sS'TCGTCC'
p3513
I3735
sS'ATGGCT'
p3514
I10911
sS'TGTGTT'
p3515
I15042
sS'CCAAGT'
p3516
I12018
sS'AGATTA'
p3517
I7663
sS'GAAACG'
p3518
I4988
sS'GAAACA'
p3519
I15809
sS'AGATTG'
p3520
I7783
sS'CTGAGT'
p3521
I16728
sS'AGGTAC'
p3522
I5620
sS'GAAACT'
p3523
I13833
sS'AGAATG'
p3524
I14698
sS'AGATTT'
p3525
I13400
sS'ACATAC'
p3526
I6624
sS'CTGAGC'
p3527
I19372
sS'CTGAGA'
p3528
I19221
sS'CTGAGG'
p3529
I25101
sS'CATACC'
p3530
I4992
sS'CATACA'
p3531
I7741
sS'CATACG'
p3532
I1422
sS'TCAAAT'
p3533
I11916
sS'GTCCAT'
p3534
I6195
sS'AGGGGT'
p3535
I12684
sS'CATACT'
p3536
I5649
sS'GTCCAG'
p3537
I13042
sS'CAAGCT'
p3538
I10660
sS'TCAAAG'
p3539
I13818
sS'TCAAAA'
p3540
I16680
sS'CACTAA'
p3541
I6818
sS'TCAAAC'
p3542
I9512
sS'CGGCGG'
p3543
I19701
sS'TTGATG'
p3544
I8207
sS'CTCATT'
p3545
I14887
sS'CGGCGC'
p3546
I14979
sS'TTGATC'
p3547
I5608
sS'CGGCGA'
p3548
I5278
sS'TTGATA'
p3549
I6038
sS'CTATCT'
p3550
I6650
sS'ACCGTA'
p3551
I1597
sS'AACTGC'
p3552
I11099
sS'CGGCGT'
p3553
I4541
sS'GTACGC'
p3554
I1444
sS'ATCGAC'
p3555
I1153
sS'CCATTA'
p3556
I6691
sS'TCCAAC'
p3557
I8534
sS'CGGTTA'
p3558
I1768
sS'GGTTTA'
p3559
I6921
sS'CGGTTC'
p3560
I4023
sS'GCTGTT'
p3561
I12813
sS'TTTACA'
p3562
I13280
sS'CGGTTG'
p3563
I3027
sS'GGTTTG'
p3564
I10733
sS'CCATTG'
p3565
I8632
sS'CGAGTC'
p3566
I4381
sS'GCTGTG'
p3567
I20201
sS'GGTTTT'
p3568
I14022
sS'CGGTTT'
p3569
I3767
sS'GCTGTA'
p3570
I7894
sS'TATGCG'
p3571
I1243
sS'AGGTTG'
p3572
I10514
sS'AGGTTC'
p3573
I8951
sS'AGGTTA'
p3574
I7269
sS'CNNNNN'
p3575
I3
sS'GAGGGA'
p3576
I24941
sS'TTTTTC'
p3577
I25601
sS'GAGGGC'
p3578
I21998
sS'TTTTTA'
p3579
I26192
sS'TTTTTG'
p3580
I22156
sS'GAGGGG'
p3581
I27872
sS'TTAAAT'
p3582
I15872
sS'AGGTTT'
p3583
I12463
sS'TAAGCG'
p3584
I2082
sS'TATGCC'
p3585
I5030
sS'TTAAAC'
p3586
I9116
sS'ATACGT'
p3587
I1749
sS'TTAAAA'
p3588
I27435
sS'ACTCCG'
p3589
I5532
sS'TTAAAG'
p3590
I13523
sS'ACTCCA'
p3591
I14720
sS'TTTTTT'
p3592
I78567
sS'ACTCCC'
p3593
I13544
sS'CTGTAA'
p3594
I13897
sS'GTCACG'
p3595
I4401
sS'CTGTAC'
p3596
I6598
sS'GCAACT'
p3597
I7838
sS'GTCACC'
p3598
I12615
sS'CTGTAG'
p3599
I10059
sS'GTCACA'
p3600
I12136
sS'ACTTAT'
p3601
I6027
sS'GCAACG'
p3602
I3304
sS'GTCACT'
p3603
I12491
sS'TAGGCG'
p3604
I3172
sS'GCAACC'
p3605
I8294
sS'CTGTAT'
p3606
I8233
sS'GCAACA'
p3607
I10270
sS'TAGGCC'
p3608
I6701
sS'ATTCAT'
p3609
I12587
sS'TCCCAC'
p3610
I17428
sS'GCGATT'
p3611
I2691
sS'TCGTGT'
p3612
I2731
sS'TTCACT'
p3613
I13277
sS'GTCTCT'
p3614
I15076
sS'AACATT'
p3615
I12746
sS'ATTCAG'
p3616
I12096
sS'ATTCAA'
p3617
I10677
sS'ATTCAC'
p3618
I9035
sS'GTCTCC'
p3619
I15073
sS'TCGTGG'
p3620
I4195
sS'GCGATG'
p3621
I3496
sS'TTCACC'
p3622
I11317
sS'GCGATA'
p3623
I1199
sS'TCGTGC'
p3624
I2937
sS'GCGATC'
p3625
I3179
sS'GAAGGC'
p3626
I15477
sS'GAAGGA'
p3627
I20713
sS'GAAGGG'
p3628
I20925
sS'CGATTA'
p3629
I1349
sS'CAATCT'
p3630
I7730
sS'AGACTT'
p3631
I10746
sS'GGAACA'
p3632
I12193
sS'GGAACG'
p3633
I4659
sS'AGCCAC'
p3634
I18955
sS'TACTGC'
p3635
I7381
sS'CGATTT'
p3636
I2604
sS'AAAACA'
p3637
I25857
sS'GAAGGT'
p3638
I10989
sS'CTCGCT'
p3639
I7789
sS'TTGTAG'
p3640
I7790
sS'CAATCA'
p3641
I8954
sS'GGAACT'
p3642
I11383
sS'TCCTGA'
p3643
I17935
sS'AGTCCA'
p3644
I10389
sS'TCCTGC'
p3645
I22500
sS'AGTCCC'
p3646
I14177
sS'ACTAAA'
p3647
I10052
sS'TCCTGG'
p3648
I27172
sS'AGTCCG'
p3649
I3940
sS'TAACGC'
p3650
I1752
sS'CAGCTG'
p3651
I25291
sS'CAGCTA'
p3652
I10843
sS'CAGCTC'
p3653
I21916
sS'ACTAAT'
p3654
I6436
sS'AGTCCT'
p3655
I12166
sS'TCCTGT'
p3656
I16559
sS'CAGCTT'
p3657
I16128
sS'TAACGT'
p3658
I1928
sS'AGCCAG'
p3659
I23583
sS'GTACTT'
p3660
I6170
sS'CGACAT'
p3661
I1761
sS'TTGTTC'
p3662
I10644
sS'TTGTTA'
p3663
I9086
sS'TTGTTG'
p3664
I10991
sS'CAGGCC'
p3665
I24439
sS'CCGAGC'
p3666
I9564
sS'CCGCGT'
p3667
I4986
sS'CGACAC'
p3668
I2789
sS'CGACAA'
p3669
I2015
sS'CGACAG'
p3670
I4455
sS'GTACTA'
p3671
I3280
sS'CCGCGC'
p3672
I18399
sS'CCGAGT'
p3673
I5308
sS'CCGCGA'
p3674
I5346
sS'TACGCA'
p3675
I1809
sS'CCGCGG'
p3676
I16613
sS'TTGTTT'
p3677
I23132
sS'TCCGTT'
p3678
I3272
sS'AGCCAA'
p3679
I14823
sS'AATAAC'
p3680
I8455
sS'AATAAA'
p3681
I24516
sS'AATAAG'
p3682
I9992
sS'GGATTG'
p3683
I7368
sS'TACTAA'
p3684
I6826
sS'AATAAT'
p3685
I13877
sS'CCAACC'
p3686
I11165
sS'CCAACA'
p3687
I11683
sS'TTATGC'
p3688
I5462
sS'CCAACG'
p3689
I3397
sS'GGGATT'
p3690
I12905
sS'CGCCGC'
p3691
I23260
sS'GTGTAT'
p3692
I6736
sS'CGCCGA'
p3693
I5055
sS'AGTAAC'
p3694
I6866
sS'CGCCGG'
p3695
I12894
sS'GAGTAA'
p3696
I7780
sS'AGTAAG'
p3697
I8316
sS'CTCAGG'
p3698
I22746
sS'CTAAAA'
p3699
I13631
sS'CTCAGC'
p3700
I23593
sS'CTCAGA'
p3701
I18482
sS'GAGTAT'
p3702
I4681
sS'ATCGTC'
p3703
I1658
sS'GTGTAG'
p3704
I5961
sS'TCGAGC'
p3705
I2765
sS'GTGTAA'
p3706
I6570
sS'GTGTAC'
p3707
I4457
sS'CGCCGT'
p3708
I4389
sS'GTGGCA'
p3709
I14796
sS'CATATT'
p3710
I8917
sS'CTCGGA'
p3711
I5908
sS'GTGGCG'
p3712
I9767
sS'GCCGCC'
p3713
I26460
sS'GCCGCA'
p3714
I8507
sS'GCCGCG'
p3715
I16714
sS'ACACTT'
p3716
I10405
sS'CTCGGT'
p3717
I4840
sS'TCGCTC'
p3718
I6106
sS'CATATC'
p3719
I4834
sS'CATATA'
p3720
I6404
sS'TCAGCA'
p3721
I15494
sS'ACACTC'
p3722
I9345
sS'ACACTA'
p3723
I5932
sS'ACACTG'
p3724
I13360
sS'GCCGCT'
p3725
I11077
sS'ACCGGA'
p3726
I3835
sS'AAATAA'
p3727
I25392
sS'ACCGGC'
p3728
I5357
sS'AAATAC'
p3729
I13293
sS'CTTTAA'
p3730
I13340
sS'AATCCT'
p3731
I11435
sS'AAATAG'
p3732
I11988
sS'CACGAG'
p3733
I4290
sS'CAGGTA'
p3734
I9691
sS'AACTTC'
p3735
I10931
sS'CAGGTC'
p3736
I12271
sS'CACGAC'
p3737
I2795
sS'AACTTG'
p3738
I9954
sS'CAGGTG'
p3739
I21645
sS'CTTTAT'
p3740
I11583
sS'AATCCC'
p3741
I12537
sS'AATCCA'
p3742
I10470
sS'AAATAT'
p3743
I17931
sS'AATCCG'
p3744
I2727
sS'GATACA'
p3745
I5673
sS'CACGAT'
p3746
I2369
sS'CAGGTT'
p3747
I12340
sS'AACTTT'
p3748
I13305
sS'CCCGCA'
p3749
I9579
sS'GGGATA'
p3750
I5859
sS'GGGATC'
p3751
I8303
sS'GGGTGT'
p3752
I12302
sS'GGAGAT'
p3753
I11354
sS'GATGCT'
p3754
I8963
sS'CGCAGT'
p3755
I5391
sS'GAGCCT'
p3756
I16097
sS'GGAGAC'
p3757
I15017
sS'GGGTGA'
p3758
I14063
sS'GGAGAA'
p3759
I21786
sS'GGGTGC'
p3760
I12743
sS'GGAGAG'
p3761
I26275
sS'GGGTGG'
p3762
I26537
sS'GAGCCA'
p3763
I19349
sS'CGCAGG'
p3764
I11962
sS'GATGCG'
p3765
I2930
sS'CGCAGA'
p3766
I6695
sS'GATGCA'
p3767
I8037
sS'CGCAGC'
p3768
I13017
sS'GATGCC'
p3769
I8449
sS'CGGATT'
p3770
I2670
sS'GGTAGT'
p3771
I4856
sS'ACCCCT'
p3772
I12309
sS'GCCAAT'
p3773
I8655
sS'TTGCTC'
p3774
I11823
sS'AACCGC'
p3775
I3884
sS'AGAAGT'
p3776
I13487
sS'ACCCCA'
p3777
I15789
sS'GGTAGA'
p3778
I7208
sS'GCCAAA'
p3779
I11550
sS'GGTAGC'
p3780
I5746
sS'GCCAAG'
p3781
I15864
sS'CGGATA'
p3782
I1412
sS'ACCCCG'
p3783
I9122
sS'CGGATC'
p3784
I3640
sS'AGAAGA'
p3785
I18573
sS'AGAAGC'
p3786
I16357
sS'GCAAGA'
p3787
I11409
sS'AGAAGG'
p3788
I20527
sS'CACTCC'
p3789
I16451
sS'CACTCA'
p3790
I13487
sS'CACTCG'
p3791
I4295
sS'TGCGTT'
p3792
I3256
sS'GCAAGG'
p3793
I12632
sS'AGCTTT'
p3794
I13919
sS'CCCCGG'
p3795
I18240
sS'TGCGTA'
p3796
I1703
sS'TGCGTG'
p3797
I5660
sS'CACTCT'
p3798
I13494
sS'AGCTTC'
p3799
I13667
sS'AGCTTA'
p3800
I6773
sS'AGCTTG'
p3801
I10801
sS'AGACCA'
p3802
I12445
sS'CCACTT'
p3803
I13110
sS'CAAGAG'
p3804
I14148
sS'TTAGCT'
p3805
I8397
sS'ACTGTG'
p3806
I14260
sS'GTATAA'
p3807
I4865
sS'TTAGCC'
p3808
I7690
sS'TTAGCA'
p3809
I8511
sS'CTAGCA'
p3810
I7161
sS'TTAGCG'
p3811
I1964
sS'CTTCAT'
p3812
I12027
sS'AACTTA'
p3813
I7425
sS'ATAGGT'
p3814
I4833
sS'ATAAGG'
p3815
I6981
sS'TGTGCT'
p3816
I13711
sS'AAGGGC'
p3817
I14091
sS'ATAAGC'
p3818
I5818
sS'AAGGGA'
p3819
I18706
sS'ATAAGA'
p3820
I8277
sS'CCAGAC'
p3821
I13412
sS'CCAGAA'
p3822
I18735
sS'CCAGAG'
p3823
I23964
sS'GCAAGT'
p3824
I8604
sS'TGTGCG'
p3825
I5308
sS'ATAAGT'
p3826
I6214
sS'ATAGGG'
p3827
I5644
sS'TGTGCC'
p3828
I13630
sS'ATAGGA'
p3829
I7257
sS'TGTGCA'
p3830
I12668
sS'ATAGGC'
p3831
I5062
sS'GCTCGC'
p3832
I7847
sS'ATACGC'
p3833
I1266
sS'AGACCG'
p3834
I4033
sS'CCAGAT'
p3835
I11469
sS'AGACAA'
p3836
I12182
sS'AACAAG'
p3837
I11829
sS'AGACAC'
p3838
I12200
sS'TCCATT'
p3839
I13034
sS'AGACAG'
p3840
I18434
sS'GCTTTT'
p3841
I15686
sS'TTTTCT'
p3842
I31778
sS'CGCTGT'
p3843
I6225
sS'CCCACG'
p3844
I9017
sS'TCAAGA'
p3845
I10992
sS'CGTGGG'
p3846
I8979
sS'CGTGGC'
p3847
I8337
sS'CGTGGA'
p3848
I5452
sS'TTTTCG'
p3849
I3106
sS'CGCTGA'
p3850
I5867
sS'CGTCTT'
p3851
I3944
sS'TTTTCC'
p3852
I23868
sS'TTTTCA'
p3853
I20667
sS'CGCTGG'
p3854
I11249
sS'TATGGA'
p3855
I6149
sS'TATGGC'
p3856
I5083
sS'CGTAGG'
p3857
I2586
sS'CGTAGA'
p3858
I1819
sS'TATGGG'
p3859
I5865
sS'CGTAGC'
p3860
I2336
sS'TACCGT'
p3861
I1558
sS'TGGACT'
p3862
I10325
sS'CGTAGT'
p3863
I1839
sS'TATGGT'
p3864
I5147
sS'TGGACA'
p3865
I11499
sS'TGGACC'
p3866
I7853
sS'TGGACG'
p3867
I4170
sS'CCGGTT'
p3868
I3616
sS'GACCAA'
p3869
I7806
sS'GCTTGA'
p3870
I8956
sS'TGAGAC'
p3871
I12675
sS'GCTTGC'
p3872
I9085
sS'TGAGAA'
p3873
I17949
sS'GCCAAC'
p3874
I8719
sS'TGAGAG'
p3875
I15287
sS'GCTTGG'
p3876
I13249
sS'CCTGTT'
p3877
I13249
sS'CCGGTG'
p3878
I6291
sS'CCTTGC'
p3879
I12899
sS'CCGGTA'
p3880
I2152
sS'CCTGTC'
p3881
I15852
sS'CCTGTA'
p3882
I11882
sS'CCTGTG'
p3883
I19777
sS'GCTTGT'
p3884
I8800
sS'TGAGAT'
p3885
I11904
sS'TACCAA'
p3886
I6267
sS'GGTTGT'
p3887
I7332
sS'CCCAAC'
p3888
I11545
sS'TATCAG'
p3889
I6503
sS'AATTCN'
p3890
I2
sS'AATTCA'
p3891
I12300
sS'GGTTGG'
p3892
I11016
sS'CTGAAT'
p3893
I12224
sS'GGTTGA'
p3894
I6828
sS'TTCACG'
p3895
I3535
sS'GGTTGC'
p3896
I8168
sS'TCCCGC'
p3897
I13799
sS'GTAACG'
p3898
I1697
sS'TCCCGG'
p3899
I14322
sS'TGCTAT'
p3900
I7146
sS'CGTTTT'
p3901
I5042
sS'ATTCTC'
p3902
I12355
sS'CTATAC'
p3903
I3099
sS'GCCCTG'
p3904
I26318
sS'ATTCTG'
p3905
I13612
sS'TCATTT'
p3906
I20023
sS'CAGCGA'
p3907
I6106
sS'TGCTAA'
p3908
I8355
sS'TATACT'
p3909
I5157
sS'TGCTAG'
p3910
I7188
sS'CAGCGG'
p3911
I11548
sS'AGGATC'
p3912
I8606
sS'TCATTC'
p3913
I13943
sS'CGTTTG'
p3914
I3703
sS'TCATTG'
p3915
I9938
sS'ATTCTT'
p3916
I14206
sS'CGTTTC'
p3917
I4944
sS'ACCGGG'
p3918
I6024
sS'TGGCAA'
p3919
I12176
sS'TGGCAC'
p3920
I12012
sS'TGGCAG'
p3921
I20805
sS'GCTGAG'
p3922
I23909
sS'GCTGAA'
p3923
I13367
sS'GCTGAC'
p3924
I10993
sS'TGGCAT'
p3925
I11154
sS'GGCCGG'
p3926
I20144
sS'AGCCTC'
p3927
I22009
sS'GGCCGC'
p3928
I19480
sS'GAACTT'
p3929
I9632
sS'GGCCGA'
p3930
I8652
sS'GGCAAT'
p3931
I7139
sS'ATCNNN'
p3932
I1
sS'CTGATT'
p3933
I11770
sS'CCATCG'
p3934
I3082
sS'CTAAAT'
p3935
I9056
sS'CCATCC'
p3936
I13437
sS'CCATCA'
p3937
I9886
sS'GGCAAG'
p3938
I12985
sS'CTGATA'
p3939
I6639
sS'GTACCA'
p3940
I4487
sS'CTGATG'
p3941
I11003
sS'GGCAAA'
p3942
I12709
sS'CTAAAG'
p3943
I8904
sS'CCATCT'
p3944
I15579
sS'CTAAAC'
p3945
I6696
sS'ACGAAT'
p3946
I1943
sS'GACACC'
p3947
I9625
sS'TACGAT'
p3948
I1130
sS'GACACG'
p3949
I4231
sS'CTACAC'
p3950
I5978
sS'CCAAGA'
p3951
I14445
sS'AGGCAT'
p3952
I11850
sS'AATTCT'
p3953
I13778
sS'TACGAG'
p3954
I1506
sS'TACGAC'
p3955
I1082
sS'GGAAAG'
p3956
I22403
sS'TACGAA'
p3957
I1602
sS'CGTGAG'
p3958
I6249
sS'TGTTAC'
p3959
I6760
sS'CTATTG'
p3960
I5736
sS'GCATAA'
p3961
I5400
sS'CTATTC'
p3962
I6206
sS'TCGATG'
p3963
I1808
sS'TCGATA'
p3964
I918
sS'TCGATC'
p3965
I1544
sS'CTATTT'
p3966
I11775
sS'CGCGAA'
p3967
I2447
sS'GCATTG'
p3968
I7156
sS'CAGCCT'
p3969
I31126
sS'TCGATT'
p3970
I1805
sS'CTACCG'
p3971
I2692
sS'TCGGCA'
p3972
I3404
sS'ACGAAA'
p3973
I2974
sS'ACAATG'
p3974
I9619
sS'AACCAA'
p3975
I10940
sS'TGCCGG'
p3976
I7654
sS'AACCAC'
p3977
I11143
sS'TGCCGC'
p3978
I8331
sS'AACCAG'
p3979
I12590
sS'TGCCGA'
p3980
I3280
sS'TTGGAC'
p3981
I6880
sS'TCGGGC'
p3982
I6580
sS'CCGTGC'
p3983
I6013
sS'CGCGAG'
p3984
I6537
sS'ATGATC'
p3985
I6028
sS'AGGCAG'
p3986
I28055
sS'GGCGGC'
p3987
I25994
sS'NNCTGA'
p3988
I1
sS'AACCAT'
p3989
I7556
sS'AACAGA'
p3990
I15350
sS'ACGTCG'
p3991
I1525
sS'AACAGC'
p3992
I12674
sS'CATAAG'
p3993
I5957
sS'ACGTCC'
p3994
I3621
sS'AACAGG'
p3995
I13411
sS'ACGTCA'
p3996
I3932
sS'CCCAAG'
p3997
I16905
sS'TTGGAG'
p3998
I14445
sS'GACGAA'
p3999
I2391
sS'GACGAG'
p4000
I3957
sS'CCCAAA'
p4001
I17649
sS'ACGTCT'
p4002
I3375
sS'GGGAGA'
p4003
I23693
sS'AACAGT'
p4004
I10169
sS'GGGAGC'
p4005
I22623
sS'ACGAAG'
p4006
I3311
sS'TCAGAT'
p4007
I10903
sS'GACGAT'
p4008
I1610
sS'GGGCGC'
p4009
I19586
sS'GGGCGA'
p4010
I8382
sS'GCATCA'
p4011
I7772
sS'GGGCGG'
p4012
I33845
sS'TCTCTT'
p4013
I19136
sS'TGGGGG'
p4014
I22749
sS'GTACAG'
p4015
I6801
sS'TCATAC'
p4016
I5134
sS'CAGAAT'
p4017
I13754
sS'GTACAC'
p4018
I4510
sS'TCTCTC'
p4019
I24352
sS'TCTCTA'
p4020
I11803
sS'TCTCTG'
p4021
I23550
sS'GGGCGT'
p4022
I8400
sS'CAGAAA'
p4023
I23967
sS'CAGAAC'
p4024
I12621
sS'ACGACG'
p4025
I1595
sS'CAGAAG'
p4026
I20174
sS'CCTTCA'
p4027
I14527
sS'CACTTT'
p4028
I16324
sS'CCTAAT'
p4029
I6385
sS'TGCCCC'
p4030
I18688
sS'CACTTG'
p4031
I11840
sS'CCTAAC'
p4032
I6269
sS'CTACCC'
p4033
I7871
sS'CCTAAA'
p4034
I9556
sS'CACTTC'
p4035
I14255
sS'CCTAAG'
p4036
I8451
sS'CACTTA'
p4037
I8635
sS'GTCCCA'
p4038
I12812
sS'ACAGGA'
p4039
I16817
sS'CTGCGG'
p4040
I13040
sS'AAGATT'
p4041
I10130
sS'CTCATG'
p4042
I11407
sS'GACTCG'
p4043
I4291
sS'CTCATC'
p4044
I11751
sS'GACTCC'
p4045
I12436
sS'CTCATA'
p4046
I7036
sS'GACTCA'
p4047
I18316
sS'AAGATA'
p4048
I8687
sS'CTCCAA'
p4049
I14420
sS'AAGATG'
p4050
I12736
sS'GACTCT'
p4051
I10494
sS'GTCCCG'
p4052
I8777
sS'ATCGAA'
p4053
I1612
sS'AGTCGA'
p4054
I1852
sS'CAGGCA'
p4055
I23240
sS'ATATTT'
p4056
I18080
sS'ACGGTA'
p4057
I1609
sS'AACTAA'
p4058
I8003
sS'ATAGTT'
p4059
I6218
sS'TACTGT'
p4060
I8145
sS'ATATTC'
p4061
I7645
sS'ATATTA'
p4062
I8597
sS'ATATTG'
p4063
I6714
sS'ATAGTA'
p4064
I4955
sS'ATAGTC'
p4065
I4197
sS'TACTGG'
p4066
I7626
sS'ATAGTG'
p4067
I5578
sS'GATCGA'
p4068
I1466
sS'ACGGAC'
p4069
I2742
sS'AGGAAG'
p4070
I30479
sS'CATCCG'
p4071
I3598
sS'ACGGAG'
p4072
I5989
sS'CATCCA'
p4073
I11003
sS'CAGGCG'
p4074
I13672
sS'CATCCC'
p4075
I13304
sS'TTATGA'
p4076
I8699
sS'ACGGTG'
p4077
I4646
sS'CGGAGT'
p4078
I5464
sS'TTATGG'
p4079
I6653
sS'CATCCT'
p4080
I13713
sS'AGGAAT'
p4081
I14957
sS'CAGGCT'
p4082
I25034
sS'ACGGAT'
p4083
I2068
sS'CGGAGA'
p4084
I7516
sS'CGGAGC'
p4085
I12706
sS'TTATGT'
p4086
I8922
sS'CGGAGG'
p4087
I13610
sS'ATGGAA'
p4088
I13704
sS'ATGGAC'
p4089
I6124
sS'ATGGAG'
p4090
I13000
sS'CGCTTG'
p4091
I4741
sS'CGCTTA'
p4092
I2144
sS'CGCTTC'
p4093
I6924
sS'TGAACA'
p4094
I10767
sS'ATGGAT'
p4095
I7350
sS'GTGTGN'
p4096
I1
sS'TTTGCA'
p4097
I14659
sS'CGCTTT'
p4098
I5012
sS'GCCGTG'
p4099
I6935
sS'ATCCCC'
p4100
I10123
sS'CAAGCC'
p4101
I12658
sS'TTTGCC'
p4102
I12521
sS'GAAAAG'
p4103
I20389
sS'GAAAAC'
p4104
I15314
sS'ATAGAT'
p4105
I5981
sS'GAAAAA'
p4106
I25753
sS'TAAGTA'
p4107
I6959
sS'CTGAAC'
p4108
I9825
sS'CAAGCG'
p4109
I4822
sS'GAAAAT'
p4110
I17943
sS'CACGCA'
p4111
I5833
sS'ACAAGG'
p4112
I11576
sS'ACAAGA'
p4113
I11285
sS'AAAAAA'
p4114
I79965
sS'ACAAGC'
p4115
I8728
sS'ACACGT'
p4116
I3929
sS'CTGCGT'
p4117
I5941
sS'GCGGAG'
p4118
I15573
sS'TGCTGA'
p4119
I15616
sS'GCGGAA'
p4120
I6110
sS'CATAAA'
p4121
I11284
sS'GCGGAC'
p4122
I5710
sS'CATAAC'
p4123
I5123
sS'ACACGC'
p4124
I5185
sS'ACAAGT'
p4125
I8580
sS'ACACGA'
p4126
I2670
sS'ACACGG'
p4127
I4737
sS'CATAAT'
p4128
I7263
sS'GCGGAT'
p4129
I3612
sS'GCACAT'
p4130
I8670
sS'GTCCCC'
p4131
I15618
sS'ATCCCA'
p4132
I14186
sS'CTGCGA'
p4133
I5268
sS'CTGCGC'
p4134
I12761
sS'CGGCAA'
p4135
I3501
sS'CGGCAC'
p4136
I5436
sS'CGGCAG'
p4137
I11087
sS'GACGCG'
p4138
I5240
sS'CCTCCT'
p4139
I34124
sS'ATCAAA'
p4140
I10825
sS'AGCGCT'
p4141
I6593
sS'CGGCAT'
p4142
I2909
sS'CCTCCC'
p4143
I47185
sS'CCTCCA'
p4144
I23223
sS'CACGCC'
p4145
I11360
sS'CCTCCG'
p4146
I13710
s.