(dp0
S'GGGCTT'
p1
I6582
sS'GAACGT'
p2
I1266
sS'CTTCTT'
p3
I12007
sS'CACCCT'
p4
I23773
sS'ATTGAA'
p5
I8670
sS'GAACGG'
p6
I3014
sS'GAACGC'
p7
I2755
sS'GAACGA'
p8
I1911
sS'CACCCA'
p9
I39721
sS'CTTCTA'
p10
I27003
sS'CACCCC'
p11
I38060
sS'CTTCTC'
p12
I36485
sS'CACCCG'
p13
I13096
sS'CTTCTG'
p14
I48329
sS'CGTGTG'
p15
I9937
sS'TAAGGT'
p16
I3710
sS'CGTGTC'
p17
I4876
sS'CGTGTA'
p18
I4128
sS'AATGAC'
p19
I24028
sS'AGGCAA'
p20
I14104
sS'GGAAAT'
p21
I4476
sS'TAAGGG'
p22
I9710
sS'CGTGTT'
p23
I1681
sS'TAAGGC'
p24
I6963
sS'TAAGGA'
p25
I10239
sS'GTCAAA'
p26
I21158
sS'GTCAAC'
p27
I13897
sS'GTCAAG'
p28
I21909
sS'CTGTCC'
p29
I40048
sS'TCAGAG'
p30
I6579
sS'CTGTCA'
p31
I34117
sS'CTGTCG'
p32
I6747
sS'TCAGAC'
p33
I3345
sS'TCAGAA'
p34
I4515
sS'GTCAAT'
p35
I8094
sS'GTATCA'
p36
I11490
sS'GTATCC'
p37
I9288
sS'GTATCG'
p38
I1635
sS'CTGTCT'
p39
I32167
sS'GGTGTC'
p40
I10744
sS'GGTGTA'
p41
I10064
sS'GGTGTG'
p42
I28480
sS'TATCCT'
p43
I13185
sS'CCGGGG'
p44
I6581
sS'TTCTGT'
p45
I41668
sS'GTATTG'
p46
I13528
sS'CCGGGC'
p47
I5032
sS'CCGGGA'
p48
I3872
sS'TATCCA'
p49
I18692
sS'TATCCC'
p50
I14917
sS'TGGTTG'
p51
I20122
sS'TATCCG'
p52
I3033
sS'GGTGTT'
p53
I3874
sS'ATTCCG'
p54
I2695
sS'TTCTGG'
p55
I55573
sS'CCGGGT'
p56
I1478
sS'ATTCCC'
p57
I12476
sS'TTCTGC'
p58
I49425
sS'ATTCCA'
p59
I18220
sS'TTCTGA'
p60
I51971
sS'CTTGGA'
p61
I12852
sS'GGNCCC'
p62
I1
sS'CGTCAT'
p63
I1948
sS'GTTCTC'
p64
I19763
sS'CCCGCG'
p65
I11526
sS'ACGAAC'
p66
I1015
sS'CGCGGG'
p67
I14373
sS'NCCGCC'
p68
I1
sS'CGCGGC'
p69
I12373
sS'CGCGGA'
p70
I5281
sS'NCCCAC'
p71
I1
sS'ACCTGT'
p72
I11648
sS'TCATGT'
p73
I7026
sS'CTCCGA'
p74
I7269
sS'TTACAG'
p75
I8586
sS'CTCCGC'
p76
I19681
sS'TTACAA'
p77
I5973
sS'TTACAC'
p78
I3731
sS'CTCCGG'
p79
I16709
sS'TCATGC'
p80
I7430
sS'ACCTGG'
p81
I28418
sS'TCATGA'
p82
I7651
sS'GTAAGC'
p83
I6657
sS'TCATGG'
p84
I8498
sS'ACCTGC'
p85
I23324
sS'ACCTGA'
p86
I19220
sS'TTACAT'
p87
I3278
sS'CTCGAT'
p88
I1268
sS'CTCCGT'
p89
I5727
sS'GAATTT'
p90
I5829
sS'GCCTGA'
p91
I30448
sS'GCCTGC'
p92
I40096
sS'GCCTGG'
p93
I65249
sS'TAAAGG'
p94
I21748
sS'CAAATT'
p95
I3498
sS'TAAAGA'
p96
I21381
sS'TAAAGC'
p97
I13894
sS'GCCTGT'
p98
I22453
sS'TCCCCG'
p99
I14446
sS'TAAAGT'
p100
I10821
sS'CAAATA'
p101
I22411
sS'ACGTCC'
p102
I4239
sS'CAAATC'
p103
I9085
sS'CGTGCT'
p104
I3220
sS'CAAATG'
p105
I22136
sS'AATACT'
p106
I20048
sS'CGTCAC'
p107
I5324
sS'CGTCAA'
p108
I2761
sS'GGCATG'
p109
I32842
sS'GGCATA'
p110
I15886
sS'GGCATC'
p111
I15889
sS'AATACG'
p112
I4773
sS'AATACA'
p113
I36116
sS'CCACAC'
p114
I3195
sS'AATACC'
p115
I20682
sS'GGCATT'
p116
I9678
sS'TATCTG'
p117
I37820
sS'TGCACA'
p118
I36406
sS'GAGCAC'
p119
I17120
sS'GAGCAA'
p120
I21484
sS'CATATC'
p121
I14474
sS'GAGCAG'
p122
I35801
sS'AGTAGT'
p123
I9446
sS'TCTCGC'
p124
I4493
sS'TCTCGA'
p125
I2823
sS'GCAATT'
p126
I2394
sS'TCTCGG'
p127
I5760
sS'AGTAGC'
p128
I14238
sS'AGTAGA'
p129
I17500
sS'AGTAGG'
p130
I17287
sS'GAGCAT'
p131
I7340
sS'AGCCCG'
p132
I15757
sS'TCTCGT'
p133
I1447
sS'GTGTCG'
p134
I5565
sS'TCGAAC'
p135
I1055
sS'TCGAAA'
p136
I985
sS'GTGTCC'
p137
I30072
sS'TCGAAG'
p138
I1588
sS'GTGTCA'
p139
I29271
sS'CTTGCT'
p140
I12355
sS'TCGGTC'
p141
I1801
sS'GTGTCT'
p142
I24997
sS'TTGAAG'
p143
I16935
sS'TCGAAT'
p144
I455
sS'CTTGCG'
p145
I4429
sS'CTTGCA'
p146
I17245
sS'CTTGCC'
p147
I19765
sS'CGAAAG'
p148
I1953
sS'CGAAAA'
p149
I1007
sS'CGAAAC'
p150
I1191
sS'CACGGA'
p151
I5835
sS'ACAGTG'
p152
I13452
sS'CACGGC'
p153
I8088
sS'AAATGA'
p154
I18721
sS'AAATGG'
p155
I14521
sS'CACGGG'
p156
I9189
sS'ACAGTA'
p157
I8657
sS'CGAAAT'
p158
I541
sS'ACAGTT'
p159
I2360
sS'AATCAG'
p160
I27585
sS'AATCAA'
p161
I23549
sS'AAATGT'
p162
I11664
sS'AATCAC'
p163
I22899
sS'GGGTCT'
p164
I9183
sS'TCTAGT'
p165
I6004
sS'TTGCCG'
p166
I5688
sS'TTGCCA'
p167
I29034
sS'TTGCCC'
p168
I28081
sS'GGGTAC'
p169
I3566
sS'TCTAGG'
p170
I14527
sS'GGGTAA'
p171
I5926
sS'TCTAGA'
p172
I11362
sS'GGGTAG'
p173
I7270
sS'TCTAGC'
p174
I8626
sS'ATACGG'
p175
I936
sS'AATTGG'
p176
I18179
sS'AGATGT'
p177
I5710
sS'TCGCCC'
p178
I4651
sS'TCGCCA'
p179
I2475
sS'GGGTCG'
p180
I4426
sS'TCGCCG'
p181
I1721
sS'GGTAAT'
p182
I5129
sS'ACCCAT'
p183
I3921
sS'CGTCAG'
p184
I6101
sS'GTGTAT'
p185
I8236
sS'ACCCAC'
p186
I12170
sS'GGTAAC'
p187
I8385
sS'ACCCAA'
p188
I11220
sS'AGATGG'
p189
I10601
sS'ACCCAG'
p190
I21691
sS'GGTAAG'
p191
I12366
sS'TCGCCT'
p192
I2054
sS'AGATGC'
p193
I6347
sS'CCCCAT'
p194
I5350
sS'TTGGGT'
p195
I5204
sS'CACTAG'
p196
I21844
sS'CACTAA'
p197
I25369
sS'CACTAC'
p198
I17454
sS'CCCCAA'
p199
I13845
sS'CCCCAC'
p200
I20070
sS'CCCCAG'
p201
I25650
sS'CACTAT'
p202
I12081
sS'TTGGGG'
p203
I15720
sS'TCGGTT'
p204
I593
sS'TTGGGA'
p205
I12272
sS'TTGGGC'
p206
I9046
sS'TGCCTG'
p207
I66704
sS'TGCAGA'
p208
I36031
sS'TTTCTG'
p209
I54088
sS'TGCAGC'
p210
I36419
sS'TTTCTA'
p211
I38697
sS'TTTCTC'
p212
I41282
sS'TGCAGG'
p213
I45340
sS'GGGTCA'
p214
I15667
sS'GTATCT'
p215
I9731
sS'TTTCTT'
p216
I19509
sS'ACGTGC'
p217
I3258
sS'TGCCTT'
p218
I19166
sS'TGCAGT'
p219
I28819
sS'ACAATT'
p220
I2721
sS'AAGGAA'
p221
I32114
sS'AAGGAC'
p222
I15168
sS'AAGGAG'
p223
I31008
sS'ATATGC'
p224
I6801
sS'ATATGA'
p225
I9886
sS'TACGAA'
p226
I2970
sS'ATATGG'
p227
I8141
sS'AAGGAT'
p228
I6551
sS'ACATTT'
p229
I6147
sS'TGGTTT'
p230
I10041
sS'TGACTT'
p231
I2857
sS'ACTATT'
p232
I3977
sS'GGTCCC'
p233
I13612
sS'GCCCAG'
p234
I37081
sS'GGTCCA'
p235
I8496
sS'GCCCAA'
p236
I13431
sS'GGTCCG'
p237
I4183
sS'AGGTCT'
p238
I13852
sS'TGTGTC'
p239
I22951
sS'AGACCC'
p240
I4326
sS'CTTCGG'
p241
I5943
sS'CTTCGA'
p242
I2781
sS'CTTCGC'
p243
I4692
sS'CCACTA'
p244
I5092
sS'AGGTCC'
p245
I18387
sS'AGGTCA'
p246
I29875
sS'AAAGTT'
p247
I3882
sS'TCCGGC'
p248
I7899
sS'GGTCCT'
p249
I6510
sS'TCCGGA'
p250
I5090
sS'CTTAGC'
p251
I12311
sS'TCTTGA'
p252
I18453
sS'CTTAGA'
p253
I15338
sS'TCTTGC'
p254
I18624
sS'CTTAGG'
p255
I17134
sS'ATTGTC'
p256
I8548
sS'AGACCT'
p257
I3256
sS'CGCTAC'
p258
I4047
sS'ATTTTG'
p259
I39093
sS'GAGGTG'
p260
I42501
sS'ATTTTA'
p261
I55455
sS'GAGGTA'
p262
I20394
sS'ATTTTC'
p263
I27658
sS'GAGGTC'
p264
I19987
sS'TAGCAG'
p265
I15479
sS'GATACT'
p266
I13876
sS'TAGCAC'
p267
I10088
sS'TAGCAA'
p268
I13475
sS'TCCAGT'
p269
I17593
sS'ATTTTT'
p270
I13860
sS'GCCTTG'
p271
I49570
sS'GTGGGG'
p272
I27447
sS'GCCTTA'
p273
I28811
sS'TTGACA'
p274
I17122
sS'GCCTTC'
p275
I41337
sS'GATACG'
p276
I3864
sS'TAGCAT'
p277
I6199
sS'GATACC'
p278
I13751
sS'GTGGGA'
p279
I15305
sS'TGAGCT'
p280
I6009
sS'ACGGAC'
p281
I1022
sS'GATCAT'
p282
I9082
sS'AAGACA'
p283
I37713
sS'AAGACC'
p284
I21621
sS'ACAATG'
p285
I13606
sS'AAGACG'
p286
I7148
sS'GATCAG'
p287
I20540
sS'TGAGCG'
p288
I2564
sS'GATCAC'
p289
I17723
sS'TGAGCC'
p290
I14479
sS'CGGGGA'
p291
I5559
sS'AAGACT'
p292
I19330
sS'ACCACG'
p293
I9893
sS'GGCGTT'
p294
I2058
sS'GCGGTA'
p295
I2136
sS'CGTGCA'
p296
I5299
sS'GCGGTG'
p297
I7935
sS'CTATCG'
p298
I1838
sS'CGGTGT'
p299
I2749
sS'TCGTTA'
p300
I2690
sS'TCGTTC'
p301
I2571
sS'CTTCCC'
p302
I34399
sS'TCGTTG'
p303
I3220
sS'GCGGTT'
p304
I685
sS'ACTTGC'
p305
I11704
sS'ACCACC'
p306
I23728
sS'ACTTGA'
p307
I14547
sS'CGGTGG'
p308
I7303
sS'ACTTGG'
p309
I16398
sS'CGGTGA'
p310
I3985
sS'CGGTGC'
p311
I5116
sS'TTCCTA'
p312
I45506
sS'TAGACT'
p313
I11970
sS'ATTCCT'
p314
I10743
sS'ACTGAC'
p315
I8515
sS'ACCACA'
p316
I30906
sS'TGGGTT'
p317
I4198
sS'TTCCTG'
p318
I87389
sS'TCCTTT'
p319
I34626
sS'CAGTTG'
p320
I24775
sS'TAGACG'
p321
I3702
sS'TTCCTT'
p322
I34757
sS'TAGACC'
p323
I11822
sS'TAGACA'
p324
I20998
sS'TCCTTG'
p325
I62176
sS'TCCTTA'
p326
I49657
sS'TCCTTC'
p327
I63448
sS'ATCTCT'
p328
I29174
sS'ACCGTT'
p329
I1140
sS'TGGCGC'
p330
I4990
sS'TGGCGA'
p331
I2792
sS'TGGCGG'
p332
I7822
sS'AATGCA'
p333
I34473
sS'ATCTCG'
p334
I7615
sS'ANCTTA'
p335
I1
sS'ATCTCA'
p336
I42079
sS'ATCTCC'
p337
I33824
sS'GGCCAA'
p338
I18720
sS'GTAAAT'
p339
I5188
sS'GGCCAC'
p340
I19907
sS'ACCGTG'
p341
I7407
sS'ATGCAG'
p342
I14772
sS'GGCCAG'
p343
I32806
sS'ACCGTC'
p344
I3542
sS'ACCGAC'
p345
I2218
sS'AGAATT'
p346
I4946
sS'GGCAGT'
p347
I18364
sS'CCATAA'
p348
I3517
sS'CAAAGG'
p349
I21323
sS'CCATAC'
p350
I2204
sS'CTAACT'
p351
I7174
sS'AGATTC'
p352
I7752
sS'CAAAGC'
p353
I14219
sS'CCATAG'
p354
I3133
sS'GGCAGA'
p355
I34533
sS'GGCAGC'
p356
I38062
sS'AACGTA'
p357
I5602
sS'GGCAGG'
p358
I61723
sS'CAACGC'
p359
I1458
sS'CTAACA'
p360
I13326
sS'CAACGA'
p361
I1037
sS'CTAACC'
p362
I10490
sS'CAACGG'
p363
I1504
sS'CTAACG'
p364
I2415
sS'GGGGGT'
p365
I2993
sS'TACGCT'
p366
I2715
sS'AGATTG'
p367
I10560
sS'CGATCT'
p368
I935
sS'NNNNNC'
p369
I2
sS'CTCTAG'
p370
I29974
sS'CTCTAA'
p371
I31149
sS'CTCTAC'
p372
I25146
sS'GGGGGG'
p373
I6437
sS'CGATCC'
p374
I1696
sS'TACGCC'
p375
I4113
sS'GGGGGC'
p376
I7282
sS'CGATCG'
p377
I372
sS'GGGGGA'
p378
I7529
sS'TACGCG'
p379
I1992
sS'CTCTAT'
p380
I14246
sS'ACCGAA'
p381
I2034
sS'CAGACC'
p382
I21622
sS'CAGACA'
p383
I30572
sS'CAGACG'
p384
I7337
sS'CGCTAA'
p385
I3931
sS'TAGTTG'
p386
I19204
sS'GCTAAT'
p387
I3814
sS'TGGNGC'
p388
I1
sS'TAGTTC'
p389
I16288
sS'TAGTTA'
p390
I22353
sS'CAGACT'
p391
I15065
sS'GCTAAG'
p392
I11325
sS'TAGTTT'
p393
I11440
sS'GCTAAC'
p394
I5894
sS'GCTAAA'
p395
I9591
sS'CGAGTA'
p396
I1377
sS'TGCATT'
p397
I16509
sS'GCGAAA'
p398
I1360
sS'AACCCT'
p399
I19017
sS'AACCCC'
p400
I25030
sS'AACCCA'
p401
I29962
sS'AACCCG'
p402
I9094
sS'ATGCAC'
p403
I8472
sS'TGCATC'
p404
I19744
sS'TAACAT'
p405
I3340
sS'AGATTT'
p406
I3943
sS'AGTTTG'
p407
I38391
sS'CTACAC'
p408
I3003
sS'AGTTTC'
p409
I31546
sS'AACTGC'
p410
I32120
sS'CCCAGA'
p411
I31042
sS'CCCAGC'
p412
I46488
sS'CCCAGG'
p413
I57969
sS'AACTGT'
p414
I25669
sS'AGTTTT'
p415
I13710
sS'CTACAT'
p416
I2007
sS'CGAGTC'
p417
I1867
sS'CCCAGT'
p418
I16731
sS'TTGACG'
p419
I3286
sS'TATAAT'
p420
I15388
sS'CGCATA'
p421
I2914
sS'ATACTG'
p422
I10096
sS'CGCATC'
p423
I4340
sS'ATACTA'
p424
I7551
sS'ATACTC'
p425
I4731
sS'CGCATG'
p426
I6699
sS'GCGCAA'
p427
I1115
sS'GCGAAT'
p428
I461
sS'ATACTT'
p429
I2932
sS'CTTTTC'
p430
I45790
sS'AGGCCC'
p431
I28235
sS'GCTCCG'
p432
I7806
sS'TATTGT'
p433
I23050
sS'GCTCCC'
p434
I18385
sS'GCTCCA'
p435
I14782
sS'CCTACT'
p436
I7919
sS'TGTACT'
p437
I12904
sS'TTTAGT'
p438
I12261
sS'NTTGTG'
p439
I1
sS'TATTGG'
p440
I20607
sS'GCTCCT'
p441
I9228
sS'AGGCCG'
p442
I11460
sS'TATTGA'
p443
I25344
sS'TTTAGG'
p444
I18917
sS'TGTACG'
p445
I3363
sS'CCTACG'
p446
I2950
sS'TGTACA'
p447
I20327
sS'CCTACA'
p448
I10704
sS'TGTACC'
p449
I12918
sS'TTTAGA'
p450
I21036
sS'TTCGCG'
p451
I3010
sS'TTCGCA'
p452
I4278
sS'TTCGCC'
p453
I6683
sS'CGTACA'
p454
I2719
sS'GACTAA'
p455
I30830
sS'AGTATA'
p456
I16845
sS'GACTAC'
p457
I19357
sS'AGTATG'
p458
I17768
sS'TTTGGA'
p459
I14550
sS'GACTAG'
p460
I20420
sS'TTCGCT'
p461
I3936
sS'TTTGGT'
p462
I6442
sS'GACTAT'
p463
I13198
sS'AGTATT'
p464
I8012
sS'TTACTC'
p465
I9383
sS'TTACTA'
p466
I11751
sS'TTACTG'
p467
I15671
sS'ACCTTG'
p468
I38228
sS'ACCTTC'
p469
I28369
sS'ACCTTA'
p470
I26912
sS'TATATC'
p471
I15419
sS'TTACTT'
p472
I4432
sS'ACGCTT'
p473
I864
sS'ACCTTT'
p474
I14317
sS'ACAGGG'
p475
I7026
sS'CTGGGA'
p476
I23134
sS'CTGGGC'
p477
I20909
sS'ACAGGC'
p478
I4899
sS'TTATAT'
p479
I6371
sS'CTGGGG'
p480
I26120
sS'AGGACG'
p481
I7972
sS'GCAGCT'
p482
I5721
sS'CAGGAA'
p483
I22664
sS'TCGCTT'
p484
I1101
sS'CAGGAG'
p485
I26713
sS'AGGACA'
p486
I28474
sS'GCGCAT'
p487
I584
sS'TTATAC'
p488
I5435
sS'ACAGGT'
p489
I1843
sS'CTGGGT'
p490
I8357
sS'TTATAG'
p491
I7833
sS'TCGCTG'
p492
I5557
sS'GCAGCG'
p493
I3913
sS'AGGACT'
p494
I15654
sS'TCGCTC'
p495
I3816
sS'GCAGCC'
p496
I14177
sS'CAGGAT'
p497
I5050
sS'CCTCAG'
p498
I20708
sS'CCTCAA'
p499
I10752
sS'CCTCAC'
p500
I12027
sS'TATGTT'
p501
I11823
sS'ATGGGC'
p502
I6304
sS'TCTTTG'
p503
I49923
sS'ATGGGA'
p504
I9325
sS'TCTTTA'
p505
I45227
sS'ATGGGG'
p506
I12141
sS'TCTTTC'
p507
I42054
sS'CCTCAT'
p508
I4804
sS'TCTTTT'
p509
I18287
sS'TATGTG'
p510
I35320
sS'TATGTA'
p511
I33659
sS'ATGGGT'
p512
I3168
sS'TATGTC'
p513
I16636
sS'GAAAGA'
p514
I31287
sS'ATCAAG'
p515
I20039
sS'GAAAGC'
p516
I19938
sS'ATCAAC'
p517
I13321
sS'GAAAGG'
p518
I36048
sS'ATCAAA'
p519
I23414
sS'GGAACT'
p520
I6427
sS'GTCAGG'
p521
I37326
sS'ACGTGG'
p522
I5304
sS'CTATTC'
p523
I11752
sS'CATGAG'
p524
I24020
sS'ATCAAT'
p525
I7594
sS'TCAAAC'
p526
I5192
sS'CATGAC'
p527
I17244
sS'CATGAA'
p528
I18296
sS'TGACCT'
p529
I4425
sS'GTAGCG'
p530
I1864
sS'CAAGTT'
p531
I2844
sS'GCTTTG'
p532
I39919
sS'GCTTTA'
p533
I28663
sS'GCTTTC'
p534
I26648
sS'AAAGTA'
p535
I17434
sS'GCTTTT'
p536
I11145
sS'GCTAGT'
p537
I3813
sS'GTAGCT'
p538
I5344
sS'GCGGCC'
p539
I12466
sS'CAAGTC'
p540
I8001
sS'GCGGCA'
p541
I5334
sS'CAAGTA'
p542
I10658
sS'AACGGT'
p543
I2321
sS'ACCCTC'
p544
I19988
sS'TAATCG'
p545
I1803
sS'GGTCTT'
p546
I4876
sS'TAATCA'
p547
I16464
sS'TAATCC'
p548
I16028
sS'CTAAGC'
p549
I8057
sS'CGGCCC'
p550
I15138
sS'CGACTA'
p551
I876
sS'CGGCCA'
p552
I7702
sS'CGCTAT'
p553
I1796
sS'CGGCCG'
p554
I7368
sS'TCGTGA'
p555
I1920
sS'ATGAAG'
p556
I16511
sS'GGTCTG'
p557
I22674
sS'GAGTTC'
p558
I23488
sS'GGTCTC'
p559
I17881
sS'GGTCTA'
p560
I9639
sS'AAAATG'
p561
I29369
sS'AAAATC'
p562
I10450
sS'CGGCCT'
p563
I6451
sS'TTCAGC'
p564
I33090
sS'TTCAGA'
p565
I40712
sS'TTCAGG'
p566
I43187
sS'GAACAT'
p567
I2741
sS'TCGTCG'
p568
I1104
sS'TTTAGC'
p569
I13229
sS'TGTTTT'
p570
I28832
sS'GAACAA'
p571
I7938
sS'ATCCCG'
p572
I6054
sS'GAACAC'
p573
I6109
sS'ATCCCC'
p574
I17549
sS'GAACAG'
p575
I9740
sS'TTCAGT'
p576
I28118
sS'GCACTT'
p577
I2116
sS'ATTGCA'
p578
I13934
sS'CACCAC'
p579
I26611
sS'NNNCTG'
p580
I1
sS'CACCAA'
p581
I19890
sS'CACCAG'
p582
I28806
sS'TCCGTG'
p583
I9018
sS'ATTGCG'
p584
I2342
sS'TCCGTC'
p585
I6402
sS'TCCGTA'
p586
I3817
sS'ACCAGA'
p587
I17823
sS'ACGCGA'
p588
I893
sS'CACCAT'
p589
I10251
sS'AACATG'
p590
I42338
sS'AACATA'
p591
I39437
sS'AACATC'
p592
I25324
sS'GTCAGC'
p593
I26268
sS'GCACGG'
p594
I2014
sS'GTCAGA'
p595
I28836
sS'GCACGA'
p596
I859
sS'CAGTCC'
p597
I28108
sS'GCACGC'
p598
I1672
sS'TCAGCG'
p599
I2373
sS'GCACCA'
p600
I4624
sS'GCAAGC'
p601
I5570
sS'GCACGT'
p602
I842
sS'CAGTCT'
p603
I20038
sS'GCAAGG'
p604
I11112
sS'GTCAGT'
p605
I17359
sS'GTATAC'
p606
I4018
sS'TTCCGT'
p607
I4199
sS'ACGGCT'
p608
I1500
sS'GTATAG'
p609
I4498
sS'CCGGAA'
p610
I2242
sS'CCGGAC'
p611
I1618
sS'CCGGAG'
p612
I3339
sS'TATCAT'
p613
I11509
sS'TGACGT'
p614
I1150
sS'TTCCGG'
p615
I11871
sS'TTCCGA'
p616
I4839
sS'TTCCGC'
p617
I8770
sS'GTATAT'
p618
I4708
sS'TATCAC'
p619
I16103
sS'TATCAA'
p620
I19499
sS'CGTCTG'
p621
I9890
sS'CCGGAT'
p622
I457
sS'CTCTTC'
p623
I68469
sS'TGTTAT'
p624
I13409
sS'CTCTTA'
p625
I50412
sS'CTCTTG'
p626
I63888
sS'CCCGAT'
p627
I969
sS'TACGTA'
p628
I5882
sS'TACGTC'
p629
I3832
sS'TCTGGT'
p630
I4836
sS'CGCGAT'
p631
I947
sS'TACGTG'
p632
I7854
sS'TGTTAG'
p633
I19184
sS'GCTGTT'
p634
I5094
sS'TGTTAC'
p635
I16114
sS'CTCTTT'
p636
I37768
sS'TGTTAA'
p637
I24219
sS'CGCGAA'
p638
I2245
sS'CGCGAC'
p639
I3395
sS'GATATT'
p640
I9794
sS'TCTGGC'
p641
I11780
sS'TACGTT'
p642
I2606
sS'CGCGAG'
p643
I6823
sS'AGTCGT'
p644
I2091
sS'TTACCT'
p645
I4339
sS'CTCCAT'
p646
I11312
sS'TTACCG'
p647
I1258
sS'CTCCAC'
p648
I29092
sS'AGTCGG'
p649
I5538
sS'TTACCC'
p650
I5704
sS'CTCCAG'
p651
I47652
sS'TTACCA'
p652
I7101
sS'AGTCGC'
p653
I4420
sS'GTACCG'
p654
I1072
sS'CCGACT'
p655
I1751
sS'GCCTAC'
p656
I11954
sS'GCCTAA'
p657
I15352
sS'GCCTAG'
p658
I18823
sS'CCGACA'
p659
I2125
sS'GATATC'
p660
I12102
sS'CCGACC'
p661
I4094
sS'CCGACG'
p662
I1558
sS'GCCTAT'
p663
I7001
sS'TGACGG'
p664
I1483
sS'ACGCTC'
p665
I2833
sS'CCCGAG'
p666
I8964
sS'AAGCTG'
p667
I42806
sS'CTAAGT'
p668
I6164
sS'CCCGAA'
p669
I3282
sS'CGCACA'
p670
I8630
sS'ATACAC'
p671
I3358
sS'CGCACC'
p672
I11674
sS'ATACAA'
p673
I4609
sS'ACTGCT'
p674
I7734
sS'ATACAG'
p675
I4729
sS'CGCACG'
p676
I6031
sS'GGGTCC'
p677
I15545
sS'GAGCGT'
p678
I3695
sS'CTCACT'
p679
I36352
sS'TTTGTA'
p680
I32129
sS'ACTGCA'
p681
I19931
sS'TTTGTC'
p682
I18600
sS'ACTGCC'
p683
I14612
sS'CGCACT'
p684
I5469
sS'TTTGTG'
p685
I34458
sS'ACTGCG'
p686
I4883
sS'CTCACC'
p687
I46249
sS'CTCACA'
p688
I44530
sS'CTCACG'
p689
I12852
sS'TAGTGG'
p690
I17762
sS'GTGAGG'
p691
I27074
sS'GATTTT'
p692
I16813
sS'TAGTGC'
p693
I11609
sS'GTGAGC'
p694
I19012
sS'TAGTGA'
p695
I17298
sS'GTGAGA'
p696
I18001
sS'TCGACG'
p697
I681
sS'TCGACA'
p698
I1326
sS'TCGACC'
p699
I1787
sS'GATTTG'
p700
I42948
sS'GTGAGT'
p701
I13869
sS'TAGTGT'
p702
I12414
sS'GATTTC'
p703
I34043
sS'GATTTA'
p704
I43076
sS'TCGACT'
p705
I923
sS'GTGGGN'
p706
I1
sS'ACGTAA'
p707
I1669
sS'CTGGTT'
p708
I5462
sS'TTGAGT'
p709
I9963
sS'ATACAT'
p710
I2282
sS'TCAAAA'
p711
I7846
sS'CGAACG'
p712
I862
sS'GCGTCA'
p713
I4780
sS'CGAACC'
p714
I2319
sS'CGAACA'
p715
I1728
sS'CTGGTG'
p716
I27142
sS'CTGGTA'
p717
I14828
sS'CTGGTC'
p718
I15137
sS'CTGCAA'
p719
I15394
sS'CGAACT'
p720
I1354
sS'CGCTGA'
p721
I9665
sS'TTGCAT'
p722
I8102
sS'GACGAG'
p723
I7785
sS'NNGAAT'
p724
I2
sS'GCGGAA'
p725
I2038
sS'CGTCTT'
p726
I2359
sS'TTGCAG'
p727
I20182
sS'ACTCCT'
p728
I7456
sS'TTGCAC'
p729
I11162
sS'TTGCAA'
p730
I13992
sS'AAGATC'
p731
I14120
sS'ACGTAC'
p732
I1054
sS'GAGGGC'
p733
I27599
sS'TCGCAT'
p734
I345
sS'GTCGTG'
p735
I5720
sS'GTCGTA'
p736
I2748
sS'GTCGTC'
p737
I3904
sS'CCGTTT'
p738
I1475
sS'ACTGAT'
p739
I3367
sS'ATATCG'
p740
I1458
sS'GTCGTT'
p741
I1528
sS'TCAGAT'
p742
I2126
sS'TCGCAG'
p743
I1926
sS'TCCATG'
p744
I32359
sS'TCGCAC'
p745
I975
sS'CCGTTG'
p746
I3645
sS'CCGTTA'
p747
I2614
sS'CCGTTC'
p748
I3279
sS'AATGCT'
p749
I19253
sS'GGTACG'
p750
I2087
sS'GGTACA'
p751
I9365
sS'GGTACC'
p752
I7008
sS'TATTTG'
p753
I65592
sS'CCAGTT'
p754
I2176
sS'TATTTC'
p755
I51912
sS'TATTTA'
p756
I86870
sS'CCCCCT'
p757
I10168
sS'GGTACT'
p758
I5599
sS'AATGCG'
p759
I5158
sS'AATCTT'
p760
I11871
sS'AATGCC'
p761
I25781
sS'GCCGTG'
p762
I11217
sS'CCCCCC'
p763
I10914
sS'CCCCCA'
p764
I21121
sS'TATTTT'
p765
I38276
sS'CCCCCG'
p766
I10095
sS'GAGCGA'
p767
I7686
sS'CTTGAG'
p768
I17703
sS'ATGATG'
p769
I22107
sS'CTTGAC'
p770
I10112
sS'CTTGAA'
p771
I14532
sS'TGCAAC'
p772
I18802
sS'TGCAAA'
p773
I31668
sS'TGCAAG'
p774
I26322
sS'GCCGTC'
p775
I6375
sS'ATGATT'
p776
I6387
sS'CTTGAT'
p777
I4261
sS'ACGGGA'
p778
I2000
sS'CGAATC'
p779
I1135
sS'TTGAGG'
p780
I19885
sS'GCCATT'
p781
I8503
sS'CAATGT'
p782
I5461
sS'TTGAGC'
p783
I12670
sS'TGCAAT'
p784
I14448
sS'GAGAAT'
p785
I13251
sS'TGTCTT'
p786
I13262
sS'CGAATA'
p787
I1359
sS'ACTGAG'
p788
I14085
sS'AAGGCC'
p789
I31952
sS'ATAACC'
p790
I8897
sS'AAGGCA'
p791
I40131
sS'ATAACA'
p792
I15492
sS'AAGGCG'
p793
I10620
sS'TCCAGA'
p794
I30241
sS'ACTCCA'
p795
I13471
sS'TGTCTG'
p796
I44933
sS'GAGAAG'
p797
I45739
sS'GAGAAA'
p798
I41432
sS'TGTCTC'
p799
I35822
sS'GAGAAC'
p800
I21645
sS'TGTCTA'
p801
I23406
sS'TGTGGC'
p802
I17258
sS'TGTGGA'
p803
I15677
sS'TGTGGG'
p804
I23171
sS'ATAACT'
p805
I7427
sS'AAGGCT'
p806
I19413
sS'CTGTAA'
p807
I17285
sS'CAATTT'
p808
I3116
sS'GCCCCG'
p809
I21855
sS'ACCAAG'
p810
I17912
sS'GGTCAG'
p811
I17868
sS'GCCCCC'
p812
I24846
sS'ATCATC'
p813
I19402
sS'ACCAAC'
p814
I11320
sS'GGTCAC'
p815
I12275
sS'ACGCCT'
p816
I2240
sS'GGTCAT'
p817
I4714
sS'ACCAAT'
p818
I6727
sS'GCCCCT'
p819
I16176
sS'AGGTAA'
p820
I9685
sS'CAAACT'
p821
I8832
sS'TTTTGC'
p822
I24206
sS'TCTTAC'
p823
I11467
sS'TTTTGA'
p824
I30125
sS'TCTTAA'
p825
I18898
sS'AATTGA'
p826
I20634
sS'ATCATG'
p827
I28226
sS'AATTGC'
p828
I20084
sS'TAGCCA'
p829
I18878
sS'TGGGGT'
p830
I5703
sS'CGCTCG'
p831
I8885
sS'GATAAT'
p832
I12610
sS'CGCTCA'
p833
I10810
sS'CGCTCC'
p834
I22752
sS'AATTGT'
p835
I16276
sS'GCCATC'
p836
I17548
sS'TCTTAT'
p837
I8273
sS'GTTATG'
p838
I16540
sS'CGCTCT'
p839
I10189
sS'TGGGGG'
p840
I14386
sS'GATAAC'
p841
I15912
sS'TAGCCT'
p842
I11216
sS'TGGGGC'
p843
I13196
sS'GATAAG'
p844
I26635
sS'GATCCT'
p845
I13904
sS'AAGAAT'
p846
I14475
sS'CGAAGT'
p847
I1117
sS'GTTATC'
p848
I10018
sS'AAGAAC'
p849
I19780
sS'GATCCA'
p850
I19435
sS'AAGAAA'
p851
I44908
sS'GATCCC'
p852
I18658
sS'AAGAAG'
p853
I34738
sS'GATCCG'
p854
I6861
sS'GCCCCA'
p855
I31623
sS'ATGCCG'
p856
I4230
sS'AAGCAT'
p857
I8995
sS'CAAGGG'
p858
I9777
sS'CAAGGC'
p859
I7839
sS'GGTTCT'
p860
I12561
sS'CAAGGA'
p861
I8489
sS'GGTTCA'
p862
I18036
sS'GGTTCC'
p863
I19572
sS'CAAGGT'
p864
I3131
sS'GGTTCG'
p865
I4485
sS'TAGGCA'
p866
I22058
sS'ATTATA'
p867
I20287
sS'ATTATC'
p868
I10871
sS'TAGAAT'
p869
I9205
sS'CAAACG'
p870
I3179
sS'ATTATG'
p871
I18111
sS'AGTCTT'
p872
I9771
sS'TCCCAA'
p873
I21133
sS'TAGAAA'
p874
I23486
sS'TAGAAC'
p875
I11918
sS'ATTATT'
p876
I7317
sS'TAGAAG'
p877
I21124
sS'AGTCTA'
p878
I18016
sS'AGTCTC'
p879
I25075
sS'AGTCTG'
p880
I32588
sS'TAACTC'
p881
I7969
sS'TAACTA'
p882
I10470
sS'TAACTG'
p883
I13824
sS'ATCTAT'
p884
I9766
sS'ACGCGT'
p885
I427
sS'AGGTAT'
p886
I5123
sS'TAACTT'
p887
I3642
sS'ATCTAG'
p888
I17124
sS'ATCTAC'
p889
I14012
sS'ATCTAA'
p890
I21861
sS'CATAGC'
p891
I14566
sS'CCATGT'
p892
I5905
sS'ACCAAA'
p893
I16507
sS'TGGAGG'
p894
I31066
sS'TGGAGA'
p895
I21678
sS'GGTCAA'
p896
I8939
sS'CCATGC'
p897
I5859
sS'CCATGA'
p898
I5794
sS'CCATGG'
p899
I8361
sS'TGGAGT'
p900
I11649
sS'ATTACG'
p901
I2581
sS'TCAGTA'
p902
I9158
sS'TCAGTC'
p903
I6136
sS'CTCTCT'
p904
I58215
sS'GGGGAT'
p905
I2210
sS'TCAGTG'
p906
I14496
sS'CGATAT'
p907
I223
sS'GGGGAA'
p908
I8775
sS'GGGGAC'
p909
I6760
sS'CTCTCC'
p910
I78645
sS'TCAGTT'
p911
I2812
sS'CTCTCA'
p912
I53827
sS'CGATAG'
p913
I496
sS'CGATAA'
p914
I497
sS'CGATAC'
p915
I347
sS'CTAAGG'
p916
I12627
sS'GTGTTT'
p917
I17848
sS'GCTACT'
p918
I7738
sS'GTGGTT'
p919
I6168
sS'GTGTTC'
p920
I21721
sS'GTGTTA'
p921
I24325
sS'GTGTTG'
p922
I30352
sS'CGTGCC'
p923
I7013
sS'GTGGTA'
p924
I14643
sS'GCTACA'
p925
I10023
sS'GTGGTC'
p926
I9657
sS'GCTACC'
p927
I8492
sS'GTGGTG'
p928
I30398
sS'GCTACG'
p929
I2757
sS'AGGTAG'
p930
I9681
sS'TTTCGT'
p931
I1930
sS'TGCCCT'
p932
I25302
sS'AGCGTT'
p933
I2603
sS'CGTGCG'
p934
I4141
sS'TGCCCC'
p935
I32312
sS'TGCCCA'
p936
I35769
sS'TGCCCG'
p937
I12612
sS'TTTCGG'
p938
I3882
sS'AGCGTA'
p939
I3519
sS'AGCGTC'
p940
I7066
sS'AGCGTG'
p941
I10259
sS'GGCCCC'
p942
I31485
sS'AACGTT'
p943
I3104
sS'GGCCCA'
p944
I23967
sS'CACGTG'
p945
I17612
sS'GGCCCG'
p946
I15100
sS'CACGTA'
p947
I6990
sS'CACGTC'
p948
I8130
sS'CTACGC'
p949
I1260
sS'ACGTGA'
p950
I3520
sS'GGGACT'
p951
I12057
sS'ACAGTC'
p952
I5407
sS'CACGTT'
p953
I3380
sS'TTCACG'
p954
I8810
sS'GNCCCA'
p955
I1
sS'GGCCCT'
p956
I16374
sS'GGGACA'
p957
I19400
sS'TTTTGG'
p958
I25884
sS'GGGACC'
p959
I18107
sS'AGGGAC'
p960
I10486
sS'GTCTCA'
p961
I49475
sS'GGGACG'
p962
I8079
sS'TCTTAG'
p963
I15388
sS'TTTCCT'
p964
I21471
sS'AGAGAG'
p965
I12746
sS'AGAGAA'
p966
I9116
sS'AGAGAC'
p967
I6890
sS'TCTATA'
p968
I14408
sS'GTCTTT'
p969
I25324
sS'TCTATC'
p970
I8980
sS'TCTATG'
p971
I16326
sS'AGAGAT'
p972
I3237
sS'NNGTCA'
p973
I1
sS'TCGTGC'
p974
I2240
sS'GTCTTG'
p975
I47379
sS'TCTATT'
p976
I5810
sS'GTCTTC'
p977
I39797
sS'GTCTTA'
p978
I34733
sS'GCAGAG'
p979
I7780
sS'GCTCAA'
p980
I9855
sS'GCTCAC'
p981
I11126
sS'GCAGAC'
p982
I2889
sS'GCAGAA'
p983
I4038
sS'GCTCAG'
p984
I19550
sS'AGACGT'
p985
I950
sS'ATGCGT'
p986
I1162
sS'TTGCTG'
p987
I45515
sS'TTGCTA'
p988
I26244
sS'TTGCTC'
p989
I29744
sS'GCAGAT'
p990
I1646
sS'GCTCAT'
p991
I3805
sS'CGAATT'
p992
I413
sS'GTTTGC'
p993
I18889
sS'TTGCTT'
p994
I19268
sS'ATGCGG'
p995
I2548
sS'TAGCCG'
p996
I4210
sS'ATGCGC'
p997
I2174
sS'ATGCGA'
p998
I1444
sS'TGTAAG'
p999
I20834
sS'GGCTAG'
p1000
I16038
sS'TGTAAC'
p1001
I16387
sS'GGCTAC'
p1002
I12853
sS'TGTAAA'
p1003
I28443
sS'GGCTAA'
p1004
I17833
sS'TACAAG'
p1005
I26191
sS'TTGGTA'
p1006
I14003
sS'ACTGTC'
p1007
I10552
sS'TTGGTC'
p1008
I10205
sS'TTCGAC'
p1009
I2087
sS'TTCGAA'
p1010
I2844
sS'GTACGC'
p1011
I816
sS'GACTGC'
p1012
I33885
sS'GGCTAT'
p1013
I7051
sS'TGTAAT'
p1014
I15345
sS'GACTGG'
p1015
I44126
sS'TGTGGT'
p1016
I9762
sS'TTGGTT'
p1017
I5516
sS'ACTGTT'
p1018
I4716
sS'GTTTCT'
p1019
I22557
sS'TTTTGT'
p1020
I24751
sS'CCTTTT'
p1021
I13903
sS'GTTTCG'
p1022
I5674
sS'GTTTCC'
p1023
I32712
sS'GTTTCA'
p1024
I32955
sS'ATAATG'
p1025
I15742
sS'CCTTTA'
p1026
I34462
sS'CCTTTC'
p1027
I36980
sS'ATAATC'
p1028
I7276
sS'ATAATA'
p1029
I19107
sS'CCTTTG'
p1030
I44363
sS'CTCGAG'
p1031
I5842
sS'CTCTCG'
p1032
I14710
sS'ACAGAC'
p1033
I3593
sS'ACAGAG'
p1034
I7280
sS'TTATCT'
p1035
I17441
sS'CTGGAC'
p1036
I8911
sS'CTGGAA'
p1037
I12793
sS'CTGGAG'
p1038
I19918
sS'ATATAA'
p1039
I8303
sS'CGATTT'
p1040
I484
sS'ACAGAT'
p1041
I2136
sS'TGGGGA'
p1042
I13933
sS'TTATCA'
p1043
I19259
sS'CTGGAT'
p1044
I3430
sS'TTATCC'
p1045
I12725
sS'CCAATG'
p1046
I10079
sS'AAACCG'
p1047
I2104
sS'ATTTGT'
p1048
I14112
sS'CCAATC'
p1049
I5942
sS'AAACCC'
p1050
I9381
sS'CCAATA'
p1051
I7500
sS'TGTCGG'
p1052
I4260
sS'GAGATC'
p1053
I16495
sS'CCCTAT'
p1054
I6231
sS'GAGATA'
p1055
I26938
sS'TGTCGC'
p1056
I4275
sS'GAGATG'
p1057
I39327
sS'AACGAC'
p1058
I3325
sS'ATTTGA'
p1059
I21268
sS'CCAATT'
p1060
I2034
sS'ATTTGC'
p1061
I16826
sS'GGGTAT'
p1062
I2708
sS'ATTTGG'
p1063
I19021
sS'CCCTAG'
p1064
I17075
sS'TGTCGT'
p1065
I2101
sS'CCCTAC'
p1066
I13322
sS'GAGATT'
p1067
I8798
sS'CCCTAA'
p1068
I16420
sS'CATTAT'
p1069
I13940
sS'TGGATT'
p1070
I5061
sS'ATCACA'
p1071
I31669
sS'ATCACC'
p1072
I23220
sS'CATGCT'
p1073
I14746
sS'TGACAC'
p1074
I3258
sS'ATCACG'
p1075
I6607
sS'TGGATA'
p1076
I13996
sS'CATTAG'
p1077
I21590
sS'CATTAA'
p1078
I28097
sS'TGGATG'
p1079
I20315
sS'CATGCA'
p1080
I25565
sS'TGACAT'
p1081
I2281
sS'CATGCC'
p1082
I26737
sS'ATCACT'
p1083
I20557
sS'CATGCG'
p1084
I5931
sS'GTAGAA'
p1085
I4140
sS'GTAGAC'
p1086
I2738
sS'GTAGAG'
p1087
I5747
sS'GATTGG'
p1088
I23724
sS'ACAACC'
p1089
I7261
sS'GATTGC'
p1090
I19823
sS'ACAACG'
p1091
I1715
sS'TAAATT'
p1092
I6366
sS'ACTAAG'
p1093
I11491
sS'GTAGAT'
p1094
I1724
sS'TGCTAC'
p1095
I18135
sS'TTGCCT'
p1096
I23329
sS'TGATGC'
p1097
I5183
sS'GATTGT'
p1098
I15459
sS'ACAACT'
p1099
I4844
sS'AGGATT'
p1100
I6579
sS'ATACGC'
p1101
I661
sS'TAATAG'
p1102
I8315
sS'AGTCCG'
p1103
I4908
sS'TAATAC'
p1104
I7061
sS'GTCCGA'
p1105
I3763
sS'TAATAA'
p1106
I12194
sS'GTCCGC'
p1107
I7810
sS'TGCCAT'
p1108
I9900
sS'ACTCTT'
p1109
I5402
sS'GTCCGT'
p1110
I2906
sS'TAATAT'
p1111
I5685
sS'ATTCGC'
p1112
I1657
sS'TTCTCC'
p1113
I70849
sS'ATTCGA'
p1114
I1750
sS'TTCTCA'
p1115
I69000
sS'ATTCGG'
p1116
I2254
sS'TTCTCG'
p1117
I11772
sS'ATAGCA'
p1118
I9132
sS'TCGTAC'
p1119
I611
sS'TACCTT'
p1120
I13458
sS'TCGTAA'
p1121
I1019
sS'TCGTAG'
p1122
I1149
sS'TCGTCA'
p1123
I2786
sS'TAACGG'
p1124
I1551
sS'ATCCAA'
p1125
I13159
sS'ATCCAC'
p1126
I12685
sS'TGTTTG'
p1127
I60343
sS'TTCTCT'
p1128
I62168
sS'ATTCGT'
p1129
I1078
sS'GAACCC'
p1130
I8480
sS'TACCTG'
p1131
I30252
sS'TACCTA'
p1132
I23924
sS'TACCTC'
p1133
I23930
sS'TCGTAT'
p1134
I556
sS'ACCATC'
p1135
I13328
sS'ACCATA'
p1136
I16160
sS'ACCATG'
p1137
I26279
sS'ATGTTG'
p1138
I27993
sS'AGCTCT'
p1139
I37315
sS'TGTCCT'
p1140
I14913
sS'AGTGGT'
p1141
I6816
sS'CGTGGT'
p1142
I2595
sS'TGATGT'
p1143
I5809
sS'ATGTTT'
p1144
I13681
sS'ACCATT'
p1145
I6857
sS'AACCTC'
p1146
I29532
sS'AGTGGA'
p1147
I13713
sS'AGTGGC'
p1148
I15184
sS'AGCTCC'
p1149
I53613
sS'AGCTCA'
p1150
I50186
sS'CAGTAA'
p1151
I15092
sS'CAGTAC'
p1152
I8925
sS'CAGTAG'
p1153
I13407
sS'CGCGGT'
p1154
I2634
sS'TTTCAC'
p1155
I19142
sS'CAGTAT'
p1156
I6690
sS'ATTAGT'
p1157
I6934
sS'TTTCAA'
p1158
I23957
sS'AAAGTG'
p1159
I23454
sS'GATCTA'
p1160
I17374
sS'GATCTC'
p1161
I23266
sS'ATTGAC'
p1162
I5984
sS'GATCTG'
p1163
I33313
sS'TCCCTT'
p1164
I16340
sS'CCGGCC'
p1165
I12488
sS'CCGGCA'
p1166
I4514
sS'CCGGCG'
p1167
I3958
sS'CACATT'
p1168
I18568
sS'GTTCCC'
p1169
I15649
sS'TCCCTC'
p1170
I45099
sS'TGTCCG'
p1171
I5099
sS'TCCCTA'
p1172
I26540
sS'TGCCAC'
p1173
I23863
sS'TCCCTG'
p1174
I58976
sS'GATCTT'
p1175
I11025
sS'CTAGAC'
p1176
I3327
sS'ATAGAA'
p1177
I4529
sS'AAGTGA'
p1178
I30119
sS'AAGTGC'
p1179
I23287
sS'TGTTCT'
p1180
I26013
sS'AAGTGG'
p1181
I25622
sS'TGATTG'
p1182
I11717
sS'TCTGAT'
p1183
I4779
sS'TGTATT'
p1184
I10810
sS'AGACTC'
p1185
I7484
sS'TGTTCA'
p1186
I33095
sS'CACAAG'
p1187
I30136
sS'TGTTCC'
p1188
I30678
sS'CACAAA'
p1189
I35260
sS'CACAAC'
p1190
I20481
sS'TGTTCG'
p1191
I5020
sS'TCTGAA'
p1192
I12581
sS'TCTGAC'
p1193
I11910
sS'TCTGAG'
p1194
I19224
sS'CGCGCC'
p1195
I20154
sS'CGCGCA'
p1196
I8292
sS'GGTAAA'
p1197
I12708
sS'CGCGCG'
p1198
I12682
sS'CTCCCT'
p1199
I40580
sS'AGCGGG'
p1200
I12829
sS'AGCGGA'
p1201
I6153
sS'AGCGGC'
p1202
I10506
sS'AGATGA'
p1203
I9684
sS'GAAATA'
p1204
I27612
sS'GACATT'
p1205
I18399
sS'CGCGCT'
p1206
I6550
sS'ACCTCC'
p1207
I36027
sS'ACCTCA'
p1208
I34616
sS'CTCCCA'
p1209
I60909
sS'CTCCCC'
p1210
I57417
sS'GCCTCT'
p1211
I33223
sS'TAAGCC'
p1212
I12001
sS'CGGGAG'
p1213
I7661
sS'TAAGCA'
p1214
I16501
sS'CGGGAA'
p1215
I3380
sS'CCCATA'
p1216
I16845
sS'TAGCTG'
p1217
I30270
sS'CCCATC'
p1218
I20906
sS'CCGAGA'
p1219
I2961
sS'CCTGCT'
p1220
I11626
sS'CCGAAT'
p1221
I431
sS'CCCATT'
p1222
I8714
sS'CGGGAT'
p1223
I855
sS'GCCTCG'
p1224
I19007
sS'GCCTCA'
p1225
I43546
sS'TAAGCT'
p1226
I6375
sS'GCCTCC'
p1227
I72962
sS'CCGAAC'
p1228
I1191
sS'CCTGCG'
p1229
I8322
sS'CCGAAA'
p1230
I1077
sS'CCGAAG'
p1231
I2468
sS'CCTGCC'
p1232
I31818
sS'CCTGCA'
p1233
I20016
sS'CGACAC'
p1234
I570
sS'CCATTC'
p1235
I9358
sS'TATAAG'
p1236
I19767
sS'TATAAA'
p1237
I38049
sS'TATAAC'
p1238
I15142
sS'TAACGA'
p1239
I1178
sS'GTACTC'
p1240
I4624
sS'GTCGAA'
p1241
I1843
sS'GTTCTA'
p1242
I17222
sS'CCATTT'
p1243
I4688
sS'TCTACA'
p1244
I13584
sS'TCTACC'
p1245
I12386
sS'TCTACG'
p1246
I2732
sS'ACTTTC'
p1247
I20910
sS'CGCAAC'
p1248
I3611
sS'CGCAAA'
p1249
I4111
sS'ATACCG'
p1250
I819
sS'GACGCG'
p1251
I8864
sS'ATACCA'
p1252
I5958
sS'ATACCC'
p1253
I3345
sS'TCTACT'
p1254
I9551
sS'CCGAGT'
p1255
I1443
sS'ATACCT'
p1256
I3050
sS'CGCAAT'
p1257
I1794
sS'TAGTAA'
p1258
I14504
sS'ATTTCT'
p1259
I19227
sS'TAGTAC'
p1260
I7578
sS'CTCAAG'
p1261
I35471
sS'CTCAAA'
p1262
I37129
sS'TAGTAG'
p1263
I12500
sS'CTCAAC'
p1264
I19800
sS'GTGTGC'
p1265
I20166
sS'GTGTGA'
p1266
I23337
sS'GTGTGG'
p1267
I34112
sS'TTGCGT'
p1268
I1722
sS'CTCAAT'
p1269
I11367
sS'TAGTAT'
p1270
I7164
sS'GTGTGT'
p1271
I30373
sS'ATCTTT'
p1272
I21617
sS'GTTGGG'
p1273
I13777
sS'GTTGGA'
p1274
I8601
sS'GTTGGC'
p1275
I8615
sS'CCTTGG'
p1276
I25517
sS'CCTTGA'
p1277
I16856
sS'GCGTAT'
p1278
I583
sS'CCTTGC'
p1279
I17624
sS'GGACGT'
p1280
I654
sS'GTTGGT'
p1281
I4206
sS'ATCTTG'
p1282
I45408
sS'ATCTTA'
p1283
I40755
sS'ATCTTC'
p1284
I33974
sS'CCTTGT'
p1285
I10947
sS'AGGATA'
p1286
I16528
sS'AGGATG'
p1287
I26815
sS'GACATG'
p1288
I34493
sS'GACATC'
p1289
I23108
sS'GACATA'
p1290
I27381
sS'TCGGCG'
p1291
I2106
sS'GAATAT'
p1292
I4313
sS'TCGGCC'
p1293
I6541
sS'TCGGCA'
p1294
I2510
sS'TTGCGA'
p1295
I1747
sS'TTGCGC'
p1296
I2668
sS'TTGCGG'
p1297
I3269
sS'GAATAG'
p1298
I7288
sS'TCGGCT'
p1299
I2026
sS'ATCAGC'
p1300
I19008
sS'AGGAAG'
p1301
I41410
sS'GAATAA'
p1302
I10387
sS'ACTTTT'
p1303
I9054
sS'GGACGA'
p1304
I872
sS'AAAATT'
p1305
I5060
sS'TGCCTC'
p1306
I45797
sS'GGACGC'
p1307
I1661
sS'TTATAA'
p1308
I9903
sS'GAAATG'
p1309
I34033
sS'AATGAT'
p1310
I10347
sS'TGCCTA'
p1311
I28732
sS'GAAATC'
p1312
I12853
sS'GAAATT'
p1313
I5030
sS'AATGAA'
p1314
I32978
sS'ATGTCC'
p1315
I18839
sS'CAAAGT'
p1316
I8225
sS'AATGAG'
p1317
I31945
sS'TCATTG'
p1318
I17457
sS'TCAGCA'
p1319
I10603
sS'TGCACT'
p1320
I24987
sS'CTTGGC'
p1321
I14945
sS'GTCCTT'
p1322
I14200
sS'CTTGGG'
p1323
I19895
sS'AGCCCT'
p1324
I26881
sS'GCGTAA'
p1325
I1053
sS'TTGAAT'
p1326
I7375
sS'GTCCTA'
p1327
I20112
sS'GTCCTC'
p1328
I30973
sS'TGCACG'
p1329
I9174
sS'CTTGGT'
p1330
I5619
sS'GTCCTG'
p1331
I45193
sS'TGCACC'
p1332
I27246
sS'TTGAAA'
p1333
I18022
sS'TTGAAC'
p1334
I11450
sS'AGCCCA'
p1335
I38322
sS'AGCCCC'
p1336
I38425
sS'TTAACT'
p1337
I10123
sS'ATAAAT'
p1338
I7427
sS'TGGTCG'
p1339
I3270
sS'TGGTCA'
p1340
I19062
sS'TGGTCC'
p1341
I15645
sS'ACGATT'
p1342
I495
sS'GAGACT'
p1343
I24128
sS'ACGGGG'
p1344
I3645
sS'TGGTCT'
p1345
I15189
sS'ATAAAG'
p1346
I12648
sS'ATAAAA'
p1347
I14806
sS'TCAGCC'
p1348
I12134
sS'ATAAAC'
p1349
I10466
sS'GAGACG'
p1350
I12742
sS'ACGATG'
p1351
I2753
sS'CTACAG'
p1352
I5782
sS'GAGACC'
p1353
I29593
sS'ACGATC'
p1354
I1117
sS'GAGACA'
p1355
I43092
sS'ACGATA'
p1356
I1482
sS'GGTTAC'
p1357
I8875
sS'ATGTGT'
p1358
I15132
sS'GGTTAA'
p1359
I13076
sS'ACCACT'
p1360
I14890
sS'GGTTAG'
p1361
I10848
sS'CTTCCT'
p1362
I20961
sS'TCCATT'
p1363
I12378
sS'CGTGAA'
p1364
I3130
sS'CCAACA'
p1365
I8831
sS'TCCGCT'
p1366
I5452
sS'CTTCCA'
p1367
I23647
sS'ATGTGG'
p1368
I20881
sS'ATGTGA'
p1369
I19813
sS'CGTATG'
p1370
I2965
sS'ATGTGC'
p1371
I14067
sS'GGTTAT'
p1372
I5291
sS'TCCGCC'
p1373
I17824
sS'TCCGCA'
p1374
I6504
sS'TCCGCG'
p1375
I6750
sS'AACGTC'
p1376
I5558
sS'CGTGAG'
p1377
I7491
sS'AACGTG'
p1378
I10328
sS'CGTGAC'
p1379
I4631
sS'AGTGTG'
p1380
I30301
sS'TCTTCG'
p1381
I6035
sS'AGTGTA'
p1382
I18099
sS'TCTTCA'
p1383
I31275
sS'AGTGTC'
p1384
I15762
sS'TCTTCC'
p1385
I39557
sS'CGTGAT'
p1386
I1506
sS'ACTCAA'
p1387
I11250
sS'TAAGTC'
p1388
I8252
sS'TAAGTA'
p1389
I15821
sS'GGCGAT'
p1390
I1464
sS'TCTTCT'
p1391
I21420
sS'AGTGTT'
p1392
I7867
sS'GTGCGC'
p1393
I5295
sS'TTGGCA'
p1394
I21803
sS'AAAGGT'
p1395
I5139
sS'TTGGCC'
p1396
I24007
sS'AGTAAC'
p1397
I15328
sS'CTTATT'
p1398
I7597
sS'TTGGCG'
p1399
I4042
sS'GACTTC'
p1400
I43426
sS'TCGAGT'
p1401
I910
sS'GACTTA'
p1402
I35079
sS'GACTTG'
p1403
I48078
sS'ACGTAG'
p1404
I1567
sS'AAAGGG'
p1405
I17675
sS'AAAGGA'
p1406
I17413
sS'TTGGCT'
p1407
I12899
sS'AAAGGC'
p1408
I11907
sS'GAGTAC'
p1409
I9308
sS'GTCGAT'
p1410
I771
sS'GACTTT'
p1411
I25001
sS'TTCTTT'
p1412
I57334
sS'TGAAAA'
p1413
I10354
sS'CAAGAA'
p1414
I6683
sS'AGCGAG'
p1415
I10213
sS'CAAGAC'
p1416
I5613
sS'CAAGAG'
p1417
I8431
sS'TTCTTG'
p1418
I75854
sS'TTCTTC'
p1419
I75256
sS'TTCTTA'
p1420
I74799
sS'CAAGAT'
p1421
I2461
sS'AGGGCT'
p1422
I15213
sS'TACGGG'
p1423
I4040
sS'TACGGA'
p1424
I3068
sS'TACGGC'
p1425
I3060
sS'CCAACT'
p1426
I4709
sS'TAGAGT'
p1427
I10595
sS'TACGGT'
p1428
I2008
sS'GAGTAT'
p1429
I7102
sS'AGGGCG'
p1430
I11596
sS'AGGGCA'
p1431
I29138
sS'AGGGCC'
p1432
I27313
sS'TCGAGA'
p1433
I1736
sS'TAGAGC'
p1434
I13642
sS'TAGAGA'
p1435
I25879
sS'TAGAGG'
p1436
I23534
sS'CCGTGT'
p1437
I2302
sS'GTGCTG'
p1438
I56362
sS'GTGCTA'
p1439
I20850
sS'ATCTGT'
p1440
I20233
sS'GTGCTC'
p1441
I24803
sS'CAATTC'
p1442
I7774
sS'ATCTGA'
p1443
I29863
sS'GTGCTT'
p1444
I15161
sS'ATCTGC'
p1445
I27322
sS'CGCCGT'
p1446
I3279
sS'CGAATG'
p1447
I2452
sS'ATCTGG'
p1448
I29342
sS'CAATTA'
p1449
I12425
sS'ATCATA'
p1450
I25687
sS'GATAGC'
p1451
I11068
sS'AAGCAG'
p1452
I30516
sS'GATAGA'
p1453
I17542
sS'AAGCAA'
p1454
I25182
sS'GATAGG'
p1455
I17111
sS'AAGCAC'
p1456
I17118
sS'GGCTCA'
p1457
I43336
sS'CATTTC'
p1458
I53030
sS'CTAGGT'
p1459
I2456
sS'CATTTA'
p1460
I64576
sS'ACGCAT'
p1461
I504
sS'CATTTG'
p1462
I58827
sS'GTTATA'
p1463
I14103
sS'CAAACA'
p1464
I25172
sS'GGAGGA'
p1465
I8239
sS'CAAACC'
p1466
I14044
sS'GGCTCC'
p1467
I51618
sS'ATCATT'
p1468
I11415
sS'GATAGT'
p1469
I9532
sS'CTAGGG'
p1470
I7281
sS'GTTATT'
p1471
I7384
sS'TGGAGC'
p1472
I16812
sS'CTAGGC'
p1473
I4875
sS'CATTTT'
p1474
I25474
sS'CTAGGA'
p1475
I6147
sS'AAGTTT'
p1476
I10669
sS'TACAGT'
p1477
I26052
sS'GGCTCG'
p1478
I13391
sS'CTAAGA'
p1479
I10887
sS'GGGGCT'
p1480
I9940
sS'TACAGG'
p1481
I45202
sS'AAGTTG'
p1482
I25329
sS'GGATGC'
p1483
I3692
sS'AAGTTA'
p1484
I28986
sS'TACAGC'
p1485
I25708
sS'AAGTTC'
p1486
I19957
sS'TACAGA'
p1487
I37378
sS'GGGGCC'
p1488
I23634
sS'GTATGA'
p1489
I8846
sS'GGGGCA'
p1490
I16598
sS'ATATGT'
p1491
I7908
sS'GGGGCG'
p1492
I13257
sS'AGCGGT'
p1493
I2837
sS'TATATA'
p1494
I40976
sS'TATATG'
p1495
I27675
sS'TCCGGT'
p1496
I3069
sS'GCCCAT'
p1497
I5062
sS'TATATT'
p1498
I14707
sS'TGATGG'
p1499
I7231
sS'CTCGGT'
p1500
I3183
sS'ATGAGT'
p1501
I10792
sS'GCCCAC'
p1502
I14534
sS'TGATGA'
p1503
I7924
sS'AGCATG'
p1504
I37322
sS'TGTTTA'
p1505
I63135
sS'CACATC'
p1506
I26655
sS'TGTTTC'
p1507
I44394
sS'CACATA'
p1508
I38063
sS'TTAATT'
p1509
I5796
sS'CACATG'
p1510
I44205
sS'TTTCAT'
p1511
I11067
sS'ATGAGA'
p1512
I16166
sS'ATGAGC'
p1513
I11486
sS'ATGAGG'
p1514
I19263
sS'TTAATA'
p1515
I22172
sS'ACTCTG'
p1516
I28919
sS'TGCCAG'
p1517
I31790
sS'ACTCTA'
p1518
I14235
sS'TGCCAA'
p1519
I21785
sS'ACTCTC'
p1520
I13498
sS'TTAATG'
p1521
I20086
sS'AAATTC'
p1522
I12451
sS'GACTGA'
p1523
I38416
sS'AAATTA'
p1524
I20564
sS'AAATTG'
p1525
I14386
sS'GTATTT'
p1526
I10078
sS'CGTACC'
p1527
I2605
sS'TTAATC'
p1528
I10596
sS'NNNNTT'
p1529
I1
sS'AAATTT'
p1530
I4289
sS'CTTAGT'
p1531
I8780
sS'CGTCTA'
p1532
I3811
sS'GGGAAC'
p1533
I10714
sS'GGTGCG'
p1534
I5801
sS'GGGAAA'
p1535
I16446
sS'GGGAAG'
p1536
I28180
sS'GGTGCC'
p1537
I14062
sS'TCGTCC'
p1538
I4011
sS'GGTGCA'
p1539
I12168
sS'AGAGCG'
p1540
I4561
sS'GCGACT'
p1541
I1664
sS'AGCGAT'
p1542
I2083
sS'AGAGCC'
p1543
I15805
sS'AGAGCA'
p1544
I15020
sS'GCGTAG'
p1545
I1572
sS'GGTGCT'
p1546
I7628
sS'GCGTAC'
p1547
I854
sS'TAATTT'
p1548
I6749
sS'GGGAAT'
p1549
I5437
sS'GCGACG'
p1550
I2085
sS'AGAGCT'
p1551
I7808
sS'GCGACA'
p1552
I2812
sS'TATCGG'
p1553
I2136
sS'GCGACC'
p1554
I3679
sS'AGGTCG'
p1555
I4900
sS'GCAGGA'
p1556
I6498
sS'GCAGGC'
p1557
I5385
sS'GCAGGG'
p1558
I10485
sS'GCTCGC'
p1559
I5629
sS'GCACTA'
p1560
I4806
sS'CCGTGC'
p1561
I3636
sS'GCTCGG'
p1562
I7907
sS'TATTCT'
p1563
I29580
sS'CCGTGG'
p1564
I5126
sS'CTTTAG'
p1565
I19962
sS'GCAGGT'
p1566
I2174
sS'ATTGTG'
p1567
I18630
sS'CTATAC'
p1568
I3931
sS'TATTCC'
p1569
I28915
sS'GGCGAG'
p1570
I10913
sS'TATTCA'
p1571
I42802
sS'GGCGAA'
p1572
I3762
sS'TATTCG'
p1573
I4538
sS'GGCGAC'
p1574
I6261
sS'TGTAGA'
p1575
I17178
sS'TTTACC'
p1576
I17471
sS'TGTAGC'
p1577
I12814
sS'TTTACA'
p1578
I29738
sS'TTTACG'
p1579
I4140
sS'TGTAGG'
p1580
I17345
sS'TGCTTA'
p1581
I49871
sS'TTCGGA'
p1582
I3264
sS'TTCGGC'
p1583
I4242
sS'AAATAG'
p1584
I10143
sS'TTCAAG'
p1585
I37738
sS'TTCGGG'
p1586
I6435
sS'AACTTA'
p1587
I41592
sS'GGCTCT'
p1588
I27912
sS'TGTAGT'
p1589
I12864
sS'TTTACT'
p1590
I17777
sS'AGCATA'
p1591
I25473
sS'AACCTT'
p1592
I13747
sS'ATTGTA'
p1593
I15733
sS'TTCGGT'
p1594
I2002
sS'GTTTAT'
p1595
I13962
sS'GTCTAG'
p1596
I17411
sS'GCACTC'
p1597
I5533
sS'GCCTTT'
p1598
I19961
sS'GTTTAA'
p1599
I20252
sS'TCCAGG'
p1600
I46857
sS'CACGAA'
p1601
I4014
sS'CAATCT'
p1602
I5603
sS'GTTTAG'
p1603
I14889
sS'CGCTAG'
p1604
I4864
sS'CTGGCT'
p1605
I16905
sS'AGGCGG'
p1606
I15363
sS'GTCGGT'
p1607
I1848
sS'AGGCGC'
p1608
I8074
sS'AGGAGT'
p1609
I13378
sS'ACAGCC'
p1610
I10013
sS'GATAAA'
p1611
I32057
sS'ACAGCA'
p1612
I10586
sS'TCCAGC'
p1613
I36851
sS'ACAGCG'
p1614
I2439
sS'AGGAGC'
p1615
I22176
sS'GTCGGA'
p1616
I3238
sS'AGGAGA'
p1617
I28906
sS'GTCGGC'
p1618
I5041
sS'AGGAGG'
p1619
I51407
sS'CTGGCA'
p1620
I29145
sS'CTGGCC'
p1621
I38049
sS'ACCGGT'
p1622
I1001
sS'GGAAAA'
p1623
I9533
sS'ATTGGT'
p1624
I3644
sS'AATTTT'
p1625
I15657
sS'TGTCAA'
p1626
I15746
sS'TGTCAC'
p1627
I20157
sS'AAACAC'
p1628
I8985
sS'GCTCTA'
p1629
I15039
sS'AAACAA'
p1630
I17039
sS'AACGCG'
p1631
I3997
sS'AATTTA'
p1632
I52512
sS'AATTTC'
p1633
I31372
sS'AACGCC'
p1634
I8070
sS'AACGCA'
p1635
I6670
sS'AATTTG'
p1636
I43300
sS'CCCTCA'
p1637
I36150
sS'ATTTAA'
p1638
I25410
sS'TGTCAT'
p1639
I10896
sS'CCCTCG'
p1640
I13790
sS'ACCGAT'
p1641
I576
sS'GAGGTT'
p1642
I8081
sS'GGAAAG'
p1643
I13789
sS'TGACCA'
p1644
I4686
sS'TGACCC'
p1645
I4629
sS'TAAATC'
p1646
I12324
sS'GGGTTA'
p1647
I12289
sS'AAATGC'
p1648
I13458
sS'ATGGTT'
p1649
I3294
sS'TAGCGT'
p1650
I1528
sS'TATGGA'
p1651
I12685
sS'NGATCC'
p1652
I1
sS'CATTCG'
p1653
I6573
sS'CATTCC'
p1654
I49439
sS'CATTCA'
p1655
I46813
sS'TCCATA'
p1656
I22093
sS'GAATGG'
p1657
I15045
sS'ACGAAA'
p1658
I1349
sS'TAAATG'
p1659
I30201
sS'ACAAAT'
p1660
I3829
sS'GATTAA'
p1661
I27160
sS'GTAGGC'
p1662
I3495
sS'GATTAC'
p1663
I28891
sS'GTAGGA'
p1664
I5019
sS'GTAGGG'
p1665
I6610
sS'GATTAG'
p1666
I20051
sS'GAATGA'
p1667
I18402
sS'ACAAAC'
p1668
I6950
sS'ACAAAA'
p1669
I9645
sS'ACAAAG'
p1670
I9847
sS'GCGGGC'
p1671
I5398
sS'AGGCGA'
p1672
I4708
sS'GCGGGA'
p1673
I4905
sS'GCGGGG'
p1674
I13160
sS'GATTAT'
p1675
I13831
sS'GTAGGT'
p1676
I2320
sS'AACCTG'
p1677
I37837
sS'AAGGTT'
p1678
I6633
sS'GATGTT'
p1679
I10145
sS'TAATGC'
p1680
I9290
sS'GGAGAT'
p1681
I1711
sS'GCCCTT'
p1682
I11357
sS'CAATAA'
p1683
I6591
sS'CAATTG'
p1684
I8882
sS'GCCCTC'
p1685
I32742
sS'GATGTG'
p1686
I33899
sS'GCCCTA'
p1687
I17975
sS'GATGTA'
p1688
I21174
sS'GCCCTG'
p1689
I55773
sS'GATGTC'
p1690
I18196
sS'CAATAG'
p1691
I4874
sS'AAAGAG'
p1692
I15962
sS'TGAAAT'
p1693
I6189
sS'TTCTAG'
p1694
I34019
sS'TTTCAG'
p1695
I26701
sS'ATCCGT'
p1696
I1709
sS'TTCTAC'
p1697
I25773
sS'GAATGT'
p1698
I12667
sS'TTGGAT'
p1699
I3122
sS'TGAAAC'
p1700
I9013
sS'TGAAAG'
p1701
I13004
sS'TTCTAT'
p1702
I19929
sS'ATCCGC'
p1703
I4817
sS'AGTAAT'
p1704
I11834
sS'ATCCGA'
p1705
I2483
sS'ATCCGG'
p1706
I4754
sS'TGGCTC'
p1707
I28546
sS'TGGCTA'
p1708
I18957
sS'NNNNCT'
p1709
I1
sS'TGGCTG'
p1710
I44329
sS'AGGCGT'
p1711
I3686
sS'AGTTGT'
p1712
I13352
sS'AGCTAT'
p1713
I13370
sS'CTTACG'
p1714
I3753
sS'CTGGCG'
p1715
I8084
sS'TGGCTT'
p1716
I11356
sS'AGTTGG'
p1717
I19756
sS'GGGATT'
p1718
I5212
sS'AGCTAC'
p1719
I22985
sS'AGTTGC'
p1720
I16379
sS'AGTTGA'
p1721
I18382
sS'AGCTAG'
p1722
I21777
sS'CGTTGA'
p1723
I3470
sS'GCACCT'
p1724
I2685
sS'CAGTGT'
p1725
I17862
sS'AGTCAG'
p1726
I29173
sS'TCAGGT'
p1727
I2104
sS'TCAAGG'
p1728
I10362
sS'GTCGGG'
p1729
I8229
sS'TCAAGC'
p1730
I5502
sS'CATGGA'
p1731
I14878
sS'CTAATA'
p1732
I14510
sS'CAGTGC'
p1733
I22671
sS'GCACCC'
p1734
I4857
sS'CAGTGA'
p1735
I29428
sS'CAGTGG'
p1736
I31585
sS'CTAATG'
p1737
I15475
sS'TCAAGT'
p1738
I4961
sS'TCAGGG'
p1739
I7512
sS'GAGCCC'
p1740
I38793
sS'ACTAGT'
p1741
I3550
sS'TCAGGC'
p1742
I4472
sS'GTGGGT'
p1743
I6406
sS'TCCTAA'
p1744
I24717
sS'CAACCA'
p1745
I5860
sS'AGTCAA'
p1746
I16656
sS'TTCCCT'
p1747
I36133
sS'CGAGCG'
p1748
I1744
sS'GTTAGT'
p1749
I6377
sS'CGAGCA'
p1750
I2227
sS'CGCAGC'
p1751
I15567
sS'ACGCCA'
p1752
I2911
sS'TTCCCA'
p1753
I50417
sS'TTCCCC'
p1754
I44848
sS'ACAGCT'
p1755
I4905
sS'GTTCAC'
p1756
I9359
sS'TTCCCG'
p1757
I14660
sS'TGAGCA'
p1758
I11193
sS'GGACCT'
p1759
I1983
sS'TACATG'
p1760
I35201
sS'AAGTAC'
p1761
I11301
sS'CACACT'
p1762
I28588
sS'TACATC'
p1763
I19776
sS'AAGTAG'
p1764
I15619
sS'TACATA'
p1765
I41332
sS'GCACAC'
p1766
I2631
sS'GGACCG'
p1767
I1193
sS'AACGCT'
p1768
I5038
sS'GGACCA'
p1769
I2699
sS'TCATCA'
p1770
I13512
sS'GGACCC'
p1771
I3171
sS'CACACG'
p1772
I13860
sS'TACATT'
p1773
I21099
sS'CACACC'
p1774
I48269
sS'GCACAA'
p1775
I2545
sS'CACACA'
p1776
I84704
sS'TCTGCC'
p1777
I24022
sS'TCTGCA'
p1778
I21449
sS'TCTGCG'
p1779
I6093
sS'TTTCGA'
p1780
I2447
sS'ATTGCC'
p1781
I9569
sS'CCCGTC'
p1782
I7721
sS'TTAAGG'
p1783
I13826
sS'CCCGTA'
p1784
I3609
sS'CGTCGA'
p1785
I1158
sS'CCCGTG'
p1786
I9954
sS'TTAAGC'
p1787
I8618
sS'TTACGT'
p1788
I992
sS'TAGATC'
p1789
I9318
sS'AAACAG'
p1790
I13397
sS'ACGCCC'
p1791
I5406
sS'TTTCGC'
p1792
I3146
sS'TAGATG'
p1793
I21598
sS'TCTGCT'
p1794
I11917
sS'TTACGC'
p1795
I975
sS'TTAAGT'
p1796
I8822
sS'TTACGA'
p1797
I976
sS'TTACGG'
p1798
I1352
sS'CCCGTT'
p1799
I1782
sS'AGTGAC'
p1800
I19290
sS'AGTGAA'
p1801
I18254
sS'AGTGAG'
p1802
I28493
sS'GCGGTC'
p1803
I2544
sS'CGGGCG'
p1804
I7195
sS'CCCTCT'
p1805
I30465
sS'TAAGAG'
p1806
I10168
sS'CGGGCC'
p1807
I13519
sS'TAAGAA'
p1808
I9835
sS'CGGGCA'
p1809
I7247
sS'TAAGAC'
p1810
I6387
sS'TGTCAG'
p1811
I23503
sS'AGTGAT'
p1812
I7424
sS'GGGNCC'
p1813
I1
sS'TAAGAT'
p1814
I3393
sS'CCTGAA'
p1815
I9736
sS'CCTGAC'
p1816
I11570
sS'CCTGAG'
p1817
I17593
sS'GTTAGG'
p1818
I12878
sS'ACCCCA'
p1819
I19967
sS'TATACT'
p1820
I16061
sS'GTTAGC'
p1821
I7873
sS'GTTAGA'
p1822
I11330
sS'GCCAAA'
p1823
I18649
sS'TGAATT'
p1824
I4067
sS'TATACG'
p1825
I3414
sS'GGTAGC'
p1826
I7407
sS'TATACC'
p1827
I13905
sS'TATACA'
p1828
I27185
sS'ATTGGC'
p1829
I7867
sS'CGTATA'
p1830
I2423
sS'TCTTGT'
p1831
I11807
sS'TCCACG'
p1832
I9854
sS'GTAATG'
p1833
I14423
sS'TTTATT'
p1834
I15974
sS'GTAATA'
p1835
I14593
sS'ATTGGA'
p1836
I6881
sS'GTAATC'
p1837
I9456
sS'GTACAG'
p1838
I4409
sS'TCTAAC'
p1839
I8287
sS'CGTTCT'
p1840
I4587
sS'CCACCG'
p1841
I2023
sS'CGGATC'
p1842
I2479
sS'CCACCA'
p1843
I5552
sS'CCACCC'
p1844
I8997
sS'ATTACT'
p1845
I10753
sS'TTTATG'
p1846
I33874
sS'ACTAGG'
p1847
I9416
sS'CTACTG'
p1848
I13072
sS'ACTAGC'
p1849
I5209
sS'TTTATA'
p1850
I37441
sS'ATTTAC'
p1851
I14279
sS'CCACCT'
p1852
I4170
sS'CGTTCG'
p1853
I2301
sS'ACTTGT'
p1854
I7534
sS'CGTTCA'
p1855
I5373
sS'CGTTCC'
p1856
I8004
sS'TCTAAT'
p1857
I5482
sS'TCGTCT'
p1858
I2177
sS'CTTTGT'
p1859
I21677
sS'CCCTCC'
p1860
I71264
sS'ACTGGA'
p1861
I9253
sS'ACTGGC'
p1862
I8117
sS'TAGTCC'
p1863
I17716
sS'GTGACC'
p1864
I22408
sS'TAGTCA'
p1865
I28364
sS'GTGACA'
p1866
I25677
sS'TAGTCG'
p1867
I2709
sS'GTGACG'
p1868
I7136
sS'ATTTAG'
p1869
I15147
sS'ACTGGT'
p1870
I3228
sS'CTTTGG'
p1871
I34664
sS'CTTTGC'
p1872
I29673
sS'CTTTGA'
p1873
I30344
sS'GTGACT'
p1874
I23152
sS'TAGTCT'
p1875
I14891
sS'GTGCAC'
p1876
I11456
sS'GCGCTT'
p1877
I1269
sS'ACCTAG'
p1878
I13497
sS'CGACGA'
p1879
I383
sS'ACCTAA'
p1880
I14979
sS'CGACGC'
p1881
I850
sS'ACCTAC'
p1882
I10976
sS'CCGCAG'
p1883
I3524
sS'CCGCAA'
p1884
I977
sS'CCGCAC'
p1885
I1763
sS'CTACGG'
p1886
I1576
sS'CGAAGC'
p1887
I2277
sS'GCGCTG'
p1888
I10714
sS'CGAAGA'
p1889
I1925
sS'CCCCGT'
p1890
I3322
sS'CGAAGG'
p1891
I3657
sS'GCGCTC'
p1892
I6257
sS'GTGCAT'
p1893
I6377
sS'GCGCTA'
p1894
I2589
sS'NCTGAC'
p1895
I1
sS'CCGCAT'
p1896
I470
sS'ATTACC'
p1897
I10638
sS'NNNACA'
p1898
I1
sS'GAAGAT'
p1899
I3633
sS'GGATCT'
p1900
I3446
sS'CTTCCG'
p1901
I8277
sS'TCGGAA'
p1902
I1035
sS'TCGGAC'
p1903
I952
sS'GAATCT'
p1904
I9557
sS'CCTATA'
p1905
I9780
sS'TCGGAG'
p1906
I2169
sS'GGATCG'
p1907
I1303
sS'GAAGAG'
p1908
I19200
sS'GAAGAA'
p1909
I14316
sS'GGATCC'
p1910
I5901
sS'GAAGAC'
p1911
I9706
sS'GGATCA'
p1912
I5525
sS'GAATCA'
p1913
I20942
sS'GAATCC'
p1914
I13413
sS'TCGGAT'
p1915
I350
sS'GAATCG'
p1916
I3239
sS'ATGGTC'
p1917
I6831
sS'CAGATG'
p1918
I31523
sS'ACGCCG'
p1919
I1809
sS'CATTCT'
p1920
I34776
sS'ATGGTG'
p1921
I18466
sS'CAGATC'
p1922
I13292
sS'CTATCC'
p1923
I11069
sS'CAGATA'
p1924
I22371
sS'CTATCT'
p1925
I10685
sS'CAGATT'
p1926
I5832
sS'TTCCTC'
p1927
I62211
sS'CTCGAC'
p1928
I3259
sS'CTCGAA'
p1929
I3609
sS'TCGCAA'
p1930
I711
sS'TGACCG'
p1931
I999
sS'GCTATT'
p1932
I4030
sS'TGCGTC'
p1933
I6464
sS'NNNTTG'
p1934
I1
sS'AATGGT'
p1935
I7901
sS'ATGATA'
p1936
I16249
sS'GTTACG'
p1937
I2877
sS'ACGTGT'
p1938
I2241
sS'CCCCGC'
p1939
I22343
sS'AATGGA'
p1940
I19974
sS'AATGGG'
p1941
I20940
sS'CCCCGA'
p1942
I6230
sS'AATAGA'
p1943
I24075
sS'CAACTA'
p1944
I6840
sS'GTGAAT'
p1945
I6554
sS'TTGACC'
p1946
I14582
sS'GGAGGG'
p1947
I13290
sS'AAAAGT'
p1948
I9783
sS'AGCCAC'
p1949
I35151
sS'AGCCAA'
p1950
I29244
sS'TGGTAG'
p1951
I8436
sS'CGCCAT'
p1952
I2985
sS'GAGTGT'
p1953
I16781
sS'TGGTAC'
p1954
I4856
sS'TGGTAA'
p1955
I8582
sS'AAAAGG'
p1956
I27103
sS'GGAGGT'
p1957
I2869
sS'AGCCAT'
p1958
I11261
sS'AAAAGC'
p1959
I16954
sS'AAAAGA'
p1960
I28390
sS'TTGACT'
p1961
I12557
sS'GAGTGG'
p1962
I32019
sS'CGCCAG'
p1963
I11106
sS'TGGTAT'
p1964
I5624
sS'CGCCAA'
p1965
I4817
sS'GAGTGC'
p1966
I21871
sS'CGCCAC'
p1967
I10023
sS'GAGTGA'
p1968
I30193
sS'GCCAGG'
p1969
I52381
sS'GCCAGA'
p1970
I26104
sS'GCCAGC'
p1971
I29721
sS'GCCCGT'
p1972
I3381
sS'TACCGA'
p1973
I2859
sS'TACCGC'
p1974
I4039
sS'CTTCAT'
p1975
I7689
sS'GCCCGC'
p1976
I17704
sS'GCCAGT'
p1977
I14002
sS'GCCCGA'
p1978
I6511
sS'GCCCGG'
p1979
I21990
sS'TGCGAT'
p1980
I1425
sS'CTTCAC'
p1981
I14675
sS'CTTCAA'
p1982
I16029
sS'TACCGT'
p1983
I2436
sS'TCCGAG'
p1984
I5925
sS'GTGGGC'
p1985
I10718
sS'TCCGAC'
p1986
I2911
sS'AATTCA'
p1987
I38353
sS'AATTCC'
p1988
I35825
sS'ATTAGG'
p1989
I11873
sS'AATTCG'
p1990
I4786
sS'TCCGAT'
p1991
I933
sS'ACATAC'
p1992
I3966
sS'NNNGAT'
p1993
I1
sS'TAGCGG'
p1994
I3522
sS'AATTCT'
p1995
I26796
sS'TAGCGC'
p1996
I2787
sS'GTCATC'
p1997
I25008
sS'GTCATA'
p1998
I27638
sS'GTCATG'
p1999
I34223
sS'AGCAGG'
p2000
I55360
sS'CCAGGT'
p2001
I2319
sS'TTGGAA'
p2002
I10842
sS'AGCAGC'
p2003
I45912
sS'AGCAGA'
p2004
I41606
sS'GTCATT'
p2005
I16211
sS'ACGACC'
p2006
I1998
sS'CCAGGG'
p2007
I8646
sS'AGCAGT'
p2008
I24791
sS'CCAGGA'
p2009
I5932
sS'CCAGGC'
p2010
I6552
sS'AGCGCT'
p2011
I7290
sS'ATAGAG'
p2012
I4578
sS'CATCTG'
p2013
I46320
sS'GATCGG'
p2014
I3871
sS'CATCTA'
p2015
I26294
sS'GATCGA'
p2016
I2588
sS'CATCTC'
p2017
I34425
sS'GATCGC'
p2018
I4749
sS'ATTAGA'
p2019
I12568
sS'GGATGG'
p2020
I6519
sS'CAAGCC'
p2021
I13092
sS'CATCTT'
p2022
I13019
sS'CAAGCA'
p2023
I13448
sS'ACGGTT'
p2024
I500
sS'GTTCTT'
p2025
I7825
sS'ACATGA'
p2026
I6704
sS'CGTAAT'
p2027
I1420
sS'ACATGC'
p2028
I5606
sS'ACATGG'
p2029
I7532
sS'CCCGCT'
p2030
I7145
sS'GGCCAT'
p2031
I5963
sS'CGTAAG'
p2032
I3485
sS'GTTCTG'
p2033
I30254
sS'ACATGT'
p2034
I4917
sS'CGTAAC'
p2035
I2245
sS'CGTAAA'
p2036
I3149
sS'AGGGAG'
p2037
I25679
sS'GGATAC'
p2038
I1662
sS'CCCGCC'
p2039
I41380
sS'AGACGC'
p2040
I2023
sS'CCCGCA'
p2041
I10109
sS'CCCTTT'
p2042
I20163
sS'TGTTGT'
p2043
I19414
sS'GTTGTT'
p2044
I5951
sS'ATTAGC'
p2045
I8933
sS'TTCTNC'
p2046
I1
sS'ATCCTT'
p2047
I10708
sS'TTGTCG'
p2048
I3440
sS'TTGTCC'
p2049
I24503
sS'TTGTCA'
p2050
I26899
sS'ATCCTC'
p2051
I24591
sS'GTTGTA'
p2052
I13931
sS'ATCCTA'
p2053
I20472
sS'GTTGTC'
p2054
I9525
sS'ATCCTG'
p2055
I35598
sS'GTTGTG'
p2056
I19017
sS'TTGTCT'
p2057
I22306
sS'ACGCGC'
p2058
I1781
sS'TGACTA'
p2059
I9354
sS'TGGGCC'
p2060
I21867
sS'TGACTC'
p2061
I11983
sS'TGGGCA'
p2062
I23555
sS'TGGGCG'
p2063
I9034
sS'TGACTG'
p2064
I11434
sS'AAGCCG'
p2065
I8421
sS'AAGCCC'
p2066
I26819
sS'AAGCCA'
p2067
I33424
sS'CAAAAT'
p2068
I4999
sS'CTATGG'
p2069
I9781
sS'TGGGCT'
p2070
I12121
sS'CAAAAC'
p2071
I11600
sS'CAAAAA'
p2072
I11407
sS'AAGCCT'
p2073
I18126
sS'CAAAAG'
p2074
I13590
sS'TGATTT'
p2075
I4527
sS'TCAATG'
p2076
I10578
sS'AAACTT'
p2077
I3808
sS'TCAATC'
p2078
I4743
sS'TCAATA'
p2079
I10551
sS'CAGTTC'
p2080
I22356
sS'GACCCG'
p2081
I12845
sS'GACCCA'
p2082
I29084
sS'GACCCC'
p2083
I25058
sS'CTCTGT'
p2084
I42684
sS'TAATGA'
p2085
I13618
sS'TCAATT'
p2086
I2556
sS'TGGCGT'
p2087
I2141
sS'CTCTGC'
p2088
I66966
sS'GACCCT'
p2089
I17194
sS'CTCTGA'
p2090
I53031
sS'ACAATC'
p2091
I4888
sS'CTCTGG'
p2092
I65787
sS'CAGTTT'
p2093
I11172
sS'GCGAAG'
p2094
I2838
sS'ACGTTC'
p2095
I2859
sS'TGCTGG'
p2096
I61637
sS'CGAGGT'
p2097
I814
sS'TGCTGA'
p2098
I43530
sS'GAGTCT'
p2099
I23748
sS'TGCTGC'
p2100
I48141
sS'AGCTGC'
p2101
I47386
sS'GCTGGT'
p2102
I5435
sS'GTGATT'
p2103
I7542
sS'CTACTA'
p2104
I8942
sS'TGCTGT'
p2105
I33796
sS'TAGGGC'
p2106
I10625
sS'TAATGG'
p2107
I10948
sS'GTGATG'
p2108
I25110
sS'GCTGGG'
p2109
I33728
sS'GTGATC'
p2110
I12075
sS'GCTGGC'
p2111
I13324
sS'GTGATA'
p2112
I16058
sS'GCTGGA'
p2113
I14164
sS'TGATAA'
p2114
I5356
sS'TGATAC'
p2115
I2836
sS'TGATAG'
p2116
I3658
sS'CTTGTT'
p2117
I7201
sS'GACGGT'
p2118
I3691
sS'GCTAGG'
p2119
I11802
sS'GCTAGA'
p2120
I8596
sS'ATGAAT'
p2121
I7687
sS'GCTAGC'
p2122
I5494
sS'ATAGGG'
p2123
I4372
sS'TGATAT'
p2124
I2850
sS'TCTTGG'
p2125
I23582
sS'ATGAAC'
p2126
I8808
sS'GACGGG'
p2127
I13081
sS'CTTGTG'
p2128
I26530
sS'GACGGA'
p2129
I7217
sS'CTTGTA'
p2130
I18692
sS'GACGGC'
p2131
I8724
sS'CTTGTC'
p2132
I15286
sS'CAAAGA'
p2133
I16652
sS'ATAGGC'
p2134
I2999
sS'CTACTT'
p2135
I3528
sS'GNCCGC'
p2136
I1
sS'CAACGT'
p2137
I761
sS'GGTGAA'
p2138
I10517
sS'GGTGAC'
p2139
I14494
sS'GCGTCT'
p2140
I3649
sS'GACTGT'
p2141
I27757
sS'GGTGAG'
p2142
I19527
sS'GGAATG'
p2143
I19727
sS'CGTCCT'
p2144
I3956
sS'GGAATC'
p2145
I6148
sS'GGAATA'
p2146
I8782
sS'ACTGTA'
p2147
I18180
sS'GCGTCC'
p2148
I8191
sS'GGTGAT'
p2149
I4167
sS'GCGTCG'
p2150
I2443
sS'CGTCCG'
p2151
I3438
sS'GGAATT'
p2152
I3350
sS'CGTCCC'
p2153
I9197
sS'CGTCCA'
p2154
I4660
sS'CCGTAT'
p2155
I552
sS'GAAGTC'
p2156
I12263
sS'GAAGTA'
p2157
I15151
sS'GAAGTG'
p2158
I24166
sS'GCCGTA'
p2159
I3497
sS'CCGTAC'
p2160
I859
sS'CCGTAA'
p2161
I934
sS'CCGTAG'
p2162
I1422
sS'AGAGTC'
p2163
I7795
sS'GCCGTT'
p2164
I1711
sS'TTGGTG'
p2165
I20275
sS'GAAGTT'
p2166
I4017
sS'GGCGCG'
p2167
I14000
sS'ATGCCC'
p2168
I18478
sS'TTAGTT'
p2169
I3139
sS'TATTAG'
p2170
I23320
sS'GGCGCC'
p2171
I21205
sS'TATTAA'
p2172
I35908
sS'GGCGCA'
p2173
I9828
sS'TATTAC'
p2174
I22240
sS'ACTATG'
p2175
I13237
sS'CCATAT'
p2176
I2315
sS'TTTAAG'
p2177
I28463
sS'ACTATC'
p2178
I5892
sS'TTTAAA'
p2179
I48287
sS'ACTATA'
p2180
I11320
sS'TTTAAC'
p2181
I18189
sS'TATTAT'
p2182
I22051
sS'TTAGTG'
p2183
I11572
sS'GGCGCT'
p2184
I8189
sS'TTAGTC'
p2185
I7994
sS'ATGCCT'
p2186
I16125
sS'TTAGTA'
p2187
I11792
sS'TTTAAT'
p2188
I13657
sS'GCACTG'
p2189
I11509
sS'GGGCAT'
p2190
I3607
sS'TTTCCG'
p2191
I5518
sS'TTTCCA'
p2192
I27637
sS'TTTCCC'
p2193
I28827
sS'GTACGT'
p2194
I680
sS'GTTTGT'
p2195
I18483
sS'TTCTAA'
p2196
I43403
sS'GTAACG'
p2197
I2263
sS'GGGCAG'
p2198
I21757
sS'GTCTGT'
p2199
I24697
sS'GGGCAA'
p2200
I8600
sS'GGGCAC'
p2201
I9188
sS'GTACGG'
p2202
I1104
sS'GTTTGA'
p2203
I19763
sS'GTTTGG'
p2204
I22754
sS'GTACGA'
p2205
I616
sS'CCGCTC'
p2206
I5608
sS'GCATGT'
p2207
I5069
sS'CCGCTA'
p2208
I2475
sS'CCGCTG'
p2209
I8543
sS'AGCATT'
p2210
I16550
sS'GCGCGG'
p2211
I6677
sS'NGCANC'
p2212
I1
sS'GCGCGC'
p2213
I5070
sS'GCGCGA'
p2214
I1828
sS'GCATGG'
p2215
I7659
sS'TGGATC'
p2216
I8605
sS'GCATGC'
p2217
I5973
sS'CCGCTT'
p2218
I1262
sS'GCATGA'
p2219
I6676
sS'GTCGAC'
p2220
I1800
sS'GCGCGT'
p2221
I1054
sS'GTCGAG'
p2222
I3638
sS'AGACAT'
p2223
I2339
sS'GAGCTA'
p2224
I22809
sS'TGCGCT'
p2225
I4992
sS'GAGCTC'
p2226
I30741
sS'ATTGAT'
p2227
I2631
sS'GAGCTG'
p2228
I58823
sS'AAACGA'
p2229
I2144
sS'AAACGC'
p2230
I2436
sS'GTAACA'
p2231
I13055
sS'GTAGTA'
p2232
I7606
sS'AAACGG'
p2233
I2782
sS'TGTCCC'
p2234
I22689
sS'TGCGCG'
p2235
I6967
sS'TGTCCA'
p2236
I19912
sS'GAGCTT'
p2237
I11572
sS'TGCGCC'
p2238
I11707
sS'ATTGAG'
p2239
I9054
sS'TGCGCA'
p2240
I7706
sS'CACGCA'
p2241
I10117
sS'AAACGT'
p2242
I1511
sS'ATTTCG'
p2243
I3636
sS'ATTTCA'
p2244
I34350
sS'ATTTCC'
p2245
I28966
sS'ATCAGT'
p2246
I13141
sS'ATCGGG'
p2247
I2861
sS'CATAGT'
p2248
I11119
sS'ATCGGC'
p2249
I2063
sS'ATCGGA'
p2250
I1773
sS'TGGGTG'
p2251
I27862
sS'CGATCA'
p2252
I1059
sS'TGGGTC'
p2253
I9971
sS'TGGGTA'
p2254
I12457
sS'CATAGG'
p2255
I16217
sS'ATCGGT'
p2256
I793
sS'ATCAGG'
p2257
I22596
sS'ATCAGA'
p2258
I24209
sS'CATAGA'
p2259
I16788
sS'ACGGGT'
p2260
I602
sS'ATAATT'
p2261
I4370
sS'CCTGGT'
p2262
I4965
sS'GATTCT'
p2263
I26011
sS'CTTTTG'
p2264
I51514
sS'TACTAG'
p2265
I17951
sS'TACTAA'
p2266
I30732
sS'CAGCAA'
p2267
I16623
sS'CTTTTA'
p2268
I54903
sS'GATTCC'
p2269
I29882
sS'GATTCA'
p2270
I40317
sS'GATTCG'
p2271
I5747
sS'ACGGGC'
p2272
I1847
sS'TACTAT'
p2273
I16321
sS'CTTTTT'
p2274
I18504
sS'CGTAGA'
p2275
I2644
sS'TCACGA'
p2276
I761
sS'TCACGC'
p2277
I1481
sS'CGATTG'
p2278
I1949
sS'TCACGG'
p2279
I1559
sS'TCTCAT'
p2280
I6171
sS'TCACGT'
p2281
I904
sS'TTCCAC'
p2282
I24543
sS'TTCCAA'
p2283
I29541
sS'TTCCAG'
p2284
I42323
sS'ACCCTT'
p2285
I7170
sS'TGAAGT'
p2286
I7278
sS'ATGCTT'
p2287
I10575
sS'AGGCAC'
p2288
I14012
sS'TTCCAT'
p2289
I13684
sS'ACCCTA'
p2290
I14939
sS'TGAAGA'
p2291
I12513
sS'TGAAGG'
p2292
I15700
sS'ACCCTG'
p2293
I32653
sS'CTGACT'
p2294
I18461
sS'CCCCTT'
p2295
I9552
sS'AGTTAT'
p2296
I9537
sS'ACATAT'
p2297
I3154
sS'CTGACG'
p2298
I6214
sS'CTGACC'
p2299
I26791
sS'CTGACA'
p2300
I22024
sS'AGTTAA'
p2301
I21131
sS'CCCCTG'
p2302
I35492
sS'AGTTAC'
p2303
I14364
sS'CCCCTC'
p2304
I33932
sS'AGTTAG'
p2305
I15193
sS'CCCCTA'
p2306
I16538
sS'ACAGAA'
p2307
I4892
sS'ACACAG'
p2308
I6046
sS'ACACAA'
p2309
I3933
sS'ACACAC'
p2310
I5984
sS'AATGTT'
p2311
I13640
sS'CTGCAG'
p2312
I32379
sS'CATGGG'
p2313
I18397
sS'CTGCAC'
p2314
I18537
sS'CATGGC'
p2315
I15483
sS'AATGTC'
p2316
I22522
sS'ACACAT'
p2317
I2399
sS'AATGTA'
p2318
I34597
sS'AATGTG'
p2319
I41195
sS'AGCTAA'
p2320
I27230
sS'CATGGT'
p2321
I8168
sS'CTGCAT'
p2322
I8697
sS'GCACAG'
p2323
I5091
sS'CGATTC'
p2324
I1360
sS'CCACAG'
p2325
I4716
sS'ATGTTC'
p2326
I17102
sS'CGAGAT'
p2327
I413
sS'GTTCGT'
p2328
I1228
sS'CACAAT'
p2329
I14148
sS'ACATTG'
p2330
I11997
sS'GTACCA'
p2331
I4192
sS'ACATTA'
p2332
I13065
sS'ACATTC'
p2333
I12792
sS'ATTACA'
p2334
I24149
sS'GATACA'
p2335
I22403
sS'GTTCGC'
p2336
I2565
sS'CGAGAC'
p2337
I1262
sS'GTTCGG'
p2338
I3464
sS'AAGTCT'
p2339
I19780
sS'ATGCTA'
p2340
I18889
sS'GGACAT'
p2341
I1056
sS'GCTATA'
p2342
I9916
sS'GCTATC'
p2343
I5618
sS'AAGTCG'
p2344
I4955
sS'AAGTCA'
p2345
I35644
sS'GCTATG'
p2346
I14164
sS'AAGTCC'
p2347
I25365
sS'GGACAG'
p2348
I4198
sS'GGACAC'
p2349
I2329
sS'GGACAA'
p2350
I2323
sS'CTAATT'
p2351
I4495
sS'AGGGTT'
p2352
I4967
sS'GAGGCG'
p2353
I23759
sS'TGTTGG'
p2354
I26171
sS'GAGGCA'
p2355
I47807
sS'TGTTGA'
p2356
I26239
sS'GAGGCC'
p2357
I52115
sS'TGTTGC'
p2358
I24260
sS'ACTCGA'
p2359
I1966
sS'TAAAAT'
p2360
I10526
sS'ACTCGC'
p2361
I2936
sS'AAGCTT'
p2362
I10440
sS'ACTCGG'
p2363
I4433
sS'AGCGCA'
p2364
I8199
sS'GAGGCT'
p2365
I30364
sS'AGCGCC'
p2366
I16271
sS'AGGGTG'
p2367
I27232
sS'AGGGTA'
p2368
I11897
sS'AGCGCG'
p2369
I9630
sS'AGGGTC'
p2370
I8755
sS'TAAAAG'
p2371
I20044
sS'ACTCGT'
p2372
I1023
sS'TAAAAC'
p2373
I14663
sS'TAAAAA'
p2374
I20601
sS'CTACTC'
p2375
I7859
sS'TAGGGA'
p2376
I13881
sS'ACGTTA'
p2377
I3357
sS'AGCTGA'
p2378
I42217
sS'ACGTTG'
p2379
I3970
sS'AGCTGG'
p2380
I58868
sS'TAGGGG'
p2381
I13028
sS'AGTGCG'
p2382
I5407
sS'AGTGCA'
p2383
I20140
sS'AGAGTT'
p2384
I3080
sS'AGTGCC'
p2385
I19279
sS'CCAAAA'
p2386
I4489
sS'TAGGGT'
p2387
I5710
sS'GCATAG'
p2388
I3241
sS'AGCTGT'
p2389
I29723
sS'ACGTTT'
p2390
I1608
sS'AGTGCT'
p2391
I14691
sS'TCATAA'
p2392
I5596
sS'AGAGTA'
p2393
I9536
sS'AGAGTG'
p2394
I14981
sS'TAACCC'
p2395
I5992
sS'GTTAAA'
p2396
I17575
sS'CCTGGC'
p2397
I16246
sS'GTTAAC'
p2398
I9642
sS'CCTGGA'
p2399
I13250
sS'CCTGGG'
p2400
I28536
sS'GTTAAG'
p2401
I15553
sS'CCGGTG'
p2402
I4688
sS'TTCGTC'
p2403
I3937
sS'CTAATC'
p2404
I8011
sS'GTCTGG'
p2405
I39779
sS'GTCTGC'
p2406
I29410
sS'GTTAAT'
p2407
I6071
sS'GTCTGA'
p2408
I29938
sS'TCTAAA'
p2409
I14487
sS'GGAAGG'
p2410
I23208
sS'CCACAT'
p2411
I1866
sS'GGAAGC'
p2412
I11735
sS'GCACCG'
p2413
I1800
sS'GGAAGA'
p2414
I13582
sS'GCGTTA'
p2415
I2668
sS'CAATGA'
p2416
I9385
sS'GCGTTC'
p2417
I3669
sS'CAATGC'
p2418
I6686
sS'GCGTTG'
p2419
I4390
sS'CAATGG'
p2420
I8954
sS'ATGCTG'
p2421
I34683
sS'GGAAGT'
p2422
I7374
sS'ATGCTC'
p2423
I17079
sS'CCACAA'
p2424
I2538
sS'TATCGT'
p2425
I1729
sS'AAACCA'
p2426
I12147
sS'TCCTCG'
p2427
I13869
sS'TGTATG'
p2428
I23824
sS'TCCTCA'
p2429
I51462
sS'TGTATA'
p2430
I23200
sS'TCCTCC'
p2431
I76584
sS'TGTATC'
p2432
I13637
sS'CGTTAG'
p2433
I3289
sS'TAACCG'
p2434
I1275
sS'TCATAG'
p2435
I4859
sS'TTCGTG'
p2436
I6742
sS'CGTTAC'
p2437
I2607
sS'TTCGTA'
p2438
I4073
sS'CGTTAA'
p2439
I3136
sS'TAACCA'
p2440
I8141
sS'ACCGCT'
p2441
I3049
sS'TCGCGA'
p2442
I873
sS'TGCATG'
p2443
I35714
sS'TCAGGA'
p2444
I5361
sS'TTCGTT'
p2445
I2216
sS'TACCCT'
p2446
I14088
sS'TAACCT'
p2447
I4434
sS'GTGAAG'
p2448
I17685
sS'GTGAAA'
p2449
I15471
sS'GTGAAC'
p2450
I9441
sS'TGCATA'
p2451
I28163
sS'ACCGCG'
p2452
I5381
sS'ACCGCA'
p2453
I5461
sS'AACGAG'
p2454
I5260
sS'ACCGCC'
p2455
I9568
sS'AGTTCC'
p2456
I27020
sS'CCGCCT'
p2457
I4896
sS'AGGCTT'
p2458
I10822
sS'CCTTCT'
p2459
I20323
sS'CGAGCT'
p2460
I1355
sS'GTTGCA'
p2461
I13871
sS'AACGAA'
p2462
I4503
sS'GATCAA'
p2463
I15755
sS'GTGCCG'
p2464
I8853
sS'GTGCCA'
p2465
I29438
sS'GTTGCG'
p2466
I3129
sS'GTGCCC'
p2467
I31087
sS'CCGCCG'
p2468
I4797
sS'AGGCTA'
p2469
I18215
sS'CCTTCC'
p2470
I45447
sS'AGGCTC'
p2471
I25159
sS'CCGCCC'
p2472
I16084
sS'TGTCGA'
p2473
I2099
sS'CCGCCA'
p2474
I4995
sS'AGGCTG'
p2475
I59260
sS'GTGCCT'
p2476
I23445
sS'TCCAAA'
p2477
I24457
sS'GTTGCT'
p2478
I8340
sS'NNNGCG'
p2479
I1
sS'GGATAT'
p2480
I1572
sS'ATAGGT'
p2481
I1680
sS'TCGGGT'
p2482
I847
sS'AAACCT'
p2483
I5290
sS'GCAGTT'
p2484
I2184
sS'GAAGCT'
p2485
I11083
sS'TCGGGC'
p2486
I2332
sS'ATGCCA'
p2487
I24075
sS'TCGGGA'
p2488
I2198
sS'NNNNNG'
p2489
I3
sS'TCGGGG'
p2490
I4135
sS'GGATAG'
p2491
I2183
sS'GAAGCG'
p2492
I6484
sS'GCAGTG'
p2493
I15825
sS'GAAGCC'
p2494
I23410
sS'GCAGTA'
p2495
I6881
sS'GAAGCA'
p2496
I22961
sS'GCAGTC'
p2497
I5175
sS'CGCCCG'
p2498
I15714
sS'GAGAGA'
p2499
I50659
sS'GTTCAT'
p2500
I5012
sS'GAGAGG'
p2501
I58308
sS'CGCCCA'
p2502
I15803
sS'GGCGGC'
p2503
I17466
sS'ACGCAG'
p2504
I2551
sS'NNNNNN'
p2505
I7
sS'GCATTC'
p2506
I10774
sS'CTATAA'
p2507
I7666
sS'AACTCA'
p2508
I44049
sS'CGCCCT'
p2509
I11465
sS'GAGAGT'
p2510
I16028
sS'AAACAT'
p2511
I4864
sS'CTATAT'
p2512
I4187
sS'AACTGA'
p2513
I38816
sS'GCCGGG'
p2514
I22734
sS'AGCATC'
p2515
I22068
sS'GCCGGC'
p2516
I12341
sS'CATGTT'
p2517
I9701
sS'GCCGGA'
p2518
I7149
sS'AGATCT'
p2519
I5798
sS'AGTTTA'
p2520
I37597
sS'GCCACT'
p2521
I21915
sS'CATGTA'
p2522
I25588
sS'CATGTC'
p2523
I17683
sS'GCCGGT'
p2524
I2628
sS'CATGTG'
p2525
I37375
sS'AGTTCG'
p2526
I5895
sS'GTTGCC'
p2527
I13602
sS'GGCCTG'
p2528
I49630
sS'GGCCTC'
p2529
I40862
sS'NNGCGC'
p2530
I1
sS'GGCCTA'
p2531
I15530
sS'TTTGTT'
p2532
I13276
sS'AATCGG'
p2533
I3597
sS'AATCGC'
p2534
I4150
sS'AATCGA'
p2535
I2840
sS'GTTCAG'
p2536
I15201
sS'TCACTG'
p2537
I16532
sS'TCACTA'
p2538
I7745
sS'TCACTC'
p2539
I7522
sS'AATCGT'
p2540
I2092
sS'AGCCGA'
p2541
I8658
sS'CCTTCA'
p2542
I27003
sS'AGCCGC'
p2543
I15781
sS'TAATTG'
p2544
I15999
sS'TAATTA'
p2545
I21393
sS'AGCCGG'
p2546
I16946
sS'GTTTTT'
p2547
I15362
sS'TGGTGA'
p2548
I16821
sS'GATGGA'
p2549
I19543
sS'TGGTGC'
p2550
I13271
sS'GATGGC'
p2551
I16602
sS'GGGCTG'
p2552
I41995
sS'TGGTGG'
p2553
I22531
sS'GATGGG'
p2554
I26106
sS'AAAAAA'
p2555
I32532
sS'AAAAAC'
p2556
I15172
sS'GGGCTC'
p2557
I21187
sS'GTTTTG'
p2558
I47642
sS'AGCCGT'
p2559
I4378
sS'AAAAAG'
p2560
I21072
sS'TGACAG'
p2561
I4963
sS'CCAAGG'
p2562
I11468
sS'ACGTAT'
p2563
I802
sS'TCTCAG'
p2564
I20687
sS'GATGGT'
p2565
I9074
sS'TGGTGT'
p2566
I12307
sS'TCTCAC'
p2567
I12201
sS'AGAACT'
p2568
I10139
sS'GCGTTT'
p2569
I1525
sS'CCTTCG'
p2570
I7348
sS'TACCAT'
p2571
I9774
sS'AGATAG'
p2572
I4763
sS'ACCCGG'
p2573
I8661
sS'ACCCGA'
p2574
I3572
sS'ATGTCT'
p2575
I16899
sS'ACCCGC'
p2576
I7298
sS'AGATAA'
p2577
I7851
sS'TACCAC'
p2578
I16248
sS'AGAACG'
p2579
I3735
sS'TACCAA'
p2580
I17472
sS'AGAACA'
p2581
I19492
sS'TACCAG'
p2582
I19941
sS'AGAACC'
p2583
I13474
sS'ACCAGC'
p2584
I20182
sS'CACTGG'
p2585
I46905
sS'CCTATG'
p2586
I12377
sS'TGACAA'
p2587
I3468
sS'ACCAGG'
p2588
I26201
sS'CACTGC'
p2589
I55404
sS'CCTATC'
p2590
I7391
sS'CAGCGT'
p2591
I3084
sS'GAGTCA'
p2592
I61643
sS'TAGGTT'
p2593
I4825
sS'GTTTAC'
p2594
I15352
sS'AATTAT'
p2595
I14481
sS'CTGTTG'
p2596
I36005
sS'GTAACC'
p2597
I9539
sS'CTGTTC'
p2598
I26757
sS'CGGGTT'
p2599
I1115
sS'CTGTTA'
p2600
I29407
sS'AATTAC'
p2601
I20519
sS'TAGGTG'
p2602
I18319
sS'TAGGTA'
p2603
I14893
sS'TAGGTC'
p2604
I9820
sS'CGGGTC'
p2605
I4225
sS'CTGTTT'
p2606
I19055
sS'CGGGTA'
p2607
I2879
sS'CGGGTG'
p2608
I7951
sS'ATTGTT'
p2609
I5368
sS'AAGTAA'
p2610
I19937
sS'CATTAC'
p2611
I18603
sS'TTAGGG'
p2612
I6687
sS'ATATAT'
p2613
I5780
sS'AGCAAC'
p2614
I23927
sS'TTAGGC'
p2615
I3906
sS'AAAGCT'
p2616
I9488
sS'TTAGGA'
p2617
I6005
sS'AAAGCA'
p2618
I25998
sS'AAAGCC'
p2619
I19434
sS'TTAGGT'
p2620
I2679
sS'GAGTCG'
p2621
I8369
sS'AGCAAT'
p2622
I17426
sS'ATATAC'
p2623
I5240
sS'CAGCGA'
p2624
I4913
sS'ATAGCC'
p2625
I5877
sS'TACTTG'
p2626
I44060
sS'ATAGCG'
p2627
I1208
sS'TGCTAA'
p2628
I28788
sS'ATAGCT'
p2629
I4332
sS'TACTTT'
p2630
I29703
sS'GTTTTC'
p2631
I34388
sS'CGAGTT'
p2632
I433
sS'TCCAAT'
p2633
I8518
sS'CGTACT'
p2634
I1780
sS'TCCCGT'
p2635
I3445
sS'TATGCT'
p2636
I13110
sS'CTTAAG'
p2637
I17773
sS'ACATAA'
p2638
I5298
sS'CTTAAA'
p2639
I21700
sS'ACATAG'
p2640
I4277
sS'CTTAAC'
p2641
I12417
sS'TCCAAG'
p2642
I26548
sS'CGAGTG'
p2643
I2779
sS'TTGTTA'
p2644
I33291
sS'TCCAAC'
p2645
I15575
sS'CGTACG'
p2646
I1065
sS'AGGGGA'
p2647
I14786
sS'CTTAAT'
p2648
I7319
sS'AGGGGC'
p2649
I12733
sS'TATGCA'
p2650
I23876
sS'TATGCC'
p2651
I15840
sS'CGTTTG'
p2652
I8686
sS'CGACTT'
p2653
I365
sS'GGATAA'
p2654
I2458
sS'TTGTAA'
p2655
I14855
sS'TTGTAC'
p2656
I8213
sS'TTGTAG'
p2657
I12411
sS'TGAATC'
p2658
I10166
sS'ACAACA'
p2659
I11604
sS'TGAATA'
p2660
I15920
sS'CGACTC'
p2661
I1451
sS'TGAATG'
p2662
I20112
sS'AAGTAT'
p2663
I8840
sS'CGACTG'
p2664
I2063
sS'TTGTAT'
p2665
I9105
sS'ATCGTG'
p2666
I4801
sS'GCTTCG'
p2667
I6536
sS'GCTTCA'
p2668
I22703
sS'GCTTCC'
p2669
I32414
sS'TGGGAG'
p2670
I18614
sS'TGGGAA'
p2671
I11704
sS'GNGCAN'
p2672
I1
sS'TGGGAC'
p2673
I7999
sS'GCTTCT'
p2674
I16644
sS'ATCGTT'
p2675
I1134
sS'GATTGA'
p2676
I19194
sS'TGGGAT'
p2677
I4262
sS'CTAGCC'
p2678
I8741
sS'GACCAT'
p2679
I8412
sS'CTAGCG'
p2680
I2153
sS'CGCATT'
p2681
I1990
sS'ACTTAG'
p2682
I11450
sS'TAGATT'
p2683
I6356
sS'ACTTAA'
p2684
I14851
sS'CGGTAC'
p2685
I1245
sS'ACTTAC'
p2686
I8278
sS'CGGTAA'
p2687
I1331
sS'GACCAG'
p2688
I30090
sS'GACCAC'
p2689
I17808
sS'GACCAA'
p2690
I19959
sS'TTCGAG'
p2691
I4312
sS'TACACC'
p2692
I19326
sS'CGGTAT'
p2693
I751
sS'TACACA'
p2694
I44188
sS'TACACG'
p2695
I6955
sS'GCGAGA'
p2696
I3344
sS'GAGAGC'
p2697
I28155
sS'GCGAGC'
p2698
I3635
sS'GGCCGT'
p2699
I4115
sS'GCGAGG'
p2700
I7900
sS'TTAAGA'
p2701
I14538
sS'CAGCCG'
p2702
I10395
sS'CAGCCA'
p2703
I31726
sS'GGTATT'
p2704
I4073
sS'CAGCCC'
p2705
I38128
sS'GCTGAA'
p2706
I10660
sS'TCCGGG'
p2707
I12619
sS'GCGAGT'
p2708
I1322
sS'CAGCCT'
p2709
I23962
sS'GAACTC'
p2710
I10127
sS'GAACTA'
p2711
I10225
sS'GGACTT'
p2712
I1498
sS'CACCTA'
p2713
I25891
sS'AACTAT'
p2714
I14686
sS'CACCTC'
p2715
I41596
sS'CACCTG'
p2716
I48524
sS'TGATCC'
p2717
I7796
sS'AACACT'
p2718
I31383
sS'TGATCA'
p2719
I7388
sS'TGATCG'
p2720
I1152
sS'TAGATA'
p2721
I20629
sS'AACTAG'
p2722
I21005
sS'GGACTG'
p2723
I7824
sS'CACCTT'
p2724
I13929
sS'GGACTA'
p2725
I4250
sS'GGACTC'
p2726
I4133
sS'AACGAT'
p2727
I1791
sS'AACACG'
p2728
I9977
sS'AACACA'
p2729
I54896
sS'AACACC'
p2730
I30587
sS'TGATCT'
p2731
I5905
sS'AAAGAC'
p2732
I9499
sS'ACGCAC'
p2733
I1543
sS'CAACAG'
p2734
I6234
sS'GACAGT'
p2735
I24271
sS'CAACAA'
p2736
I5584
sS'AAAGAA'
p2737
I18155
sS'CAACAC'
p2738
I3817
sS'GCTGAT'
p2739
I3669
sS'ACGCAA'
p2740
I1081
sS'GACAGG'
p2741
I50770
sS'CAACAT'
p2742
I2227
sS'GACAGC'
p2743
I36258
sS'GACAGA'
p2744
I50371
sS'GTATTA'
p2745
I17969
sS'GTATTC'
p2746
I10341
sS'GTAAGT'
p2747
I5992
sS'ATATCA'
p2748
I13705
sS'AGAGGT'
p2749
I3847
sS'GGTGGC'
p2750
I13550
sS'TCCCCT'
p2751
I18523
sS'GGTGGA'
p2752
I12600
sS'TATCTT'
p2753
I16205
sS'GGTGGG'
p2754
I23097
sS'AGAGGC'
p2755
I9120
sS'GTAAGA'
p2756
I10124
sS'AGAGGA'
p2757
I10454
sS'CTCGCC'
p2758
I15969
sS'AGAGGG'
p2759
I13281
sS'ACCGAG'
p2760
I4478
sS'GTAAGG'
p2761
I10571
sS'TATCTA'
p2762
I28463
sS'TATCTC'
p2763
I27424
sS'TCCCCC'
p2764
I22880
sS'GGTGGT'
p2765
I5022
sS'TCCCCA'
p2766
I35601
sS'GTCCGG'
p2767
I8845
sS'GTCGCA'
p2768
I4245
sS'GTCGCC'
p2769
I9388
sS'CCGTCT'
p2770
I3673
sS'TCGGTA'
p2771
I1637
sS'CTCGCG'
p2772
I7495
sS'TCGGTG'
p2773
I3726
sS'GTCGCT'
p2774
I4164
sS'CCGTCG'
p2775
I1778
sS'ATTTAT'
p2776
I12672
sS'CCGTCA'
p2777
I3638
sS'CCGTCC'
p2778
I7211
sS'GGCTGT'
p2779
I23366
sS'CGCGTG'
p2780
I6878
sS'GCATTT'
p2781
I5126
sS'CGCGTC'
p2782
I6209
sS'CGCGTA'
p2783
I1901
sS'GTTTTA'
p2784
I45601
sS'CCACTG'
p2785
I11871
sS'ATGCAA'
p2786
I11460
sS'CCACTC'
p2787
I5712
sS'CGCGTT'
p2788
I1354
sS'GGCTGG'
p2789
I65630
sS'GGCTGA'
p2790
I36676
sS'GGCTGC'
p2791
I47236
sS'ATGCAT'
p2792
I5582
sS'CCTACC'
p2793
I13224
sS'ATGACG'
p2794
I4159
sS'GGAGTT'
p2795
I2003
sS'ATGACA'
p2796
I21402
sS'ATGACC'
p2797
I14971
sS'CCTGAT'
p2798
I3138
sS'GGGCCT'
p2799
I12698
sS'ATGACT'
p2800
I18290
sS'GGAGTA'
p2801
I5245
sS'GGAGTC'
p2802
I5347
sS'GGAGTG'
p2803
I11732
sS'GGGCCG'
p2804
I10832
sS'GGGCCC'
p2805
I22079
sS'GGGCCA'
p2806
I17280
sS'GGCAAG'
p2807
I27227
sS'ACGAGT'
p2808
I839
sS'AGGCCA'
p2809
I27135
sS'GCGCAC'
p2810
I2043
sS'GCGCAG'
p2811
I4561
sS'ACGAGG'
p2812
I3773
sS'AGTATC'
p2813
I10758
sS'ACGAGC'
p2814
I1681
sS'ACGAGA'
p2815
I1914
sS'GGCAAC'
p2816
I17702
sS'AGGCCT'
p2817
I17214
sS'ACATCT'
p2818
I6192
sS'GGGTTG'
p2819
I16876
sS'TTTGGG'
p2820
I19068
sS'CTTCGT'
p2821
I2073
sS'CTCGGG'
p2822
I14025
sS'GGGTTC'
p2823
I11082
sS'TTTGAT'
p2824
I6026
sS'TGAACT'
p2825
I8652
sS'CTACGA'
p2826
I964
sS'ATTGCT'
p2827
I7659
sS'GGGTTT'
p2828
I6541
sS'TGCGAC'
p2829
I3037
sS'AGATCC'
p2830
I8017
sS'TGCGAG'
p2831
I5642
sS'AACGGC'
p2832
I4512
sS'TTTGAG'
p2833
I21168
sS'AACGGA'
p2834
I4575
sS'TTTGGC'
p2835
I11444
sS'AACGGG'
p2836
I6424
sS'TTTGAC'
p2837
I11505
sS'TTTGAA'
p2838
I20125
sS'CGGGCT'
p2839
I4513
sS'CTCGTA'
p2840
I3885
sS'CTCGTC'
p2841
I6111
sS'CCCTGG'
p2842
I48269
sS'CCCTGA'
p2843
I29599
sS'CTCGTG'
p2844
I8962
sS'CCCTGC'
p2845
I46357
sS'CCCTGT'
p2846
I19562
sS'AAGCTC'
p2847
I22785
sS'GATATA'
p2848
I20583
sS'AAGCTA'
p2849
I22602
sS'GATATG'
p2850
I21741
sS'CTCGTT'
p2851
I2286
sS'TGACGC'
p2852
I1561
sS'CTCGGA'
p2853
I5877
sS'TACTCT'
p2854
I28298
sS'CATCGT'
p2855
I2404
sS'CCAGTA'
p2856
I6595
sS'CCAGTC'
p2857
I5905
sS'TACGAT'
p2858
I1411
sS'CCAGTG'
p2859
I12584
sS'TACTCG'
p2860
I7264
sS'CATCGA'
p2861
I2796
sS'CATCGC'
p2862
I4611
sS'TACTCC'
p2863
I27399
sS'NGAATT'
p2864
I1
sS'TACTCA'
p2865
I44558
sS'CATCGG'
p2866
I3698
sS'CAGGGG'
p2867
I21413
sS'GAACCT'
p2868
I4446
sS'CAGGGA'
p2869
I22924
sS'CAGGGC'
p2870
I23831
sS'AATCTG'
p2871
I34864
sS'CGGACT'
p2872
I2681
sS'AATCTC'
p2873
I24516
sS'AGTCGA'
p2874
I2544
sS'AATCTA'
p2875
I24654
sS'TGAACG'
p2876
I2415
sS'TCACAC'
p2877
I3119
sS'TCACAA'
p2878
I3423
sS'GTCTCG'
p2879
I14255
sS'GCCATA'
p2880
I16054
sS'CGGACG'
p2881
I2920
sS'ACATCG'
p2882
I1546
sS'CGGACA'
p2883
I3941
sS'CGGACC'
p2884
I5424
sS'GCCATG'
p2885
I30329
sS'TTTTAA'
p2886
I46610
sS'TCACAT'
p2887
I2307
sS'TGAACC'
p2888
I10806
sS'ATTAAC'
p2889
I10834
sS'ATTAAA'
p2890
I23925
sS'ATTAAG'
p2891
I16218
sS'CTTACA'
p2892
I17465
sS'TCACTT'
p2893
I3594
sS'TGAACA'
p2894
I13461
sS'CTATTA'
p2895
I19789
sS'GTGCAG'
p2896
I22541
sS'GAACCG'
p2897
I2525
sS'ATTAAT'
p2898
I7030
sS'GAACCA'
p2899
I9087
sS'GGTATG'
p2900
I12289
sS'GGTATA'
p2901
I8591
sS'GGTATC'
p2902
I5952
sS'CGAGAG'
p2903
I1878
sS'ACTGAA'
p2904
I10522
sS'NNNNGT'
p2905
I1
sS'CTGAAA'
p2906
I15749
sS'CTGAAC'
p2907
I10735
sS'CTGAAG'
p2908
I20647
sS'NNNNGC'
p2909
I1
sS'NNNNGA'
p2910
I3
sS'CATTGC'
p2911
I26048
sS'TATGAG'
p2912
I20230
sS'CATTGA'
p2913
I22401
sS'CTAGTT'
p2914
I2598
sS'CATTGG'
p2915
I22773
sS'TCAACT'
p2916
I4903
sS'ATGTTA'
p2917
I27446
sS'ACACCG'
p2918
I1244
sS'CTGCCA'
p2919
I43377
sS'CTGCCC'
p2920
I58895
sS'ACACCC'
p2921
I5963
sS'ACACCA'
p2922
I4952
sS'CTGCCG'
p2923
I14736
sS'CTAGTG'
p2924
I10492
sS'TCAACC'
p2925
I6977
sS'TCAACA'
p2926
I11134
sS'CTAGTC'
p2927
I5569
sS'TCAACG'
p2928
I1478
sS'CTAGTA'
p2929
I7505
sS'CATTGT'
p2930
I21883
sS'TATGAC'
p2931
I17102
sS'ACACCT'
p2932
I2704
sS'CTGCCT'
p2933
I41172
sS'CCTCGT'
p2934
I1782
sS'TATGAA'
p2935
I20869
sS'AGACTG'
p2936
I12389
sS'GGCCTT'
p2937
I10266
sS'AGACTA'
p2938
I6904
sS'CCTCGG'
p2939
I9208
sS'CCTCGC'
p2940
I7189
sS'CCCGAC'
p2941
I5075
sS'CCTCGA'
p2942
I2965
sS'CGAGGA'
p2943
I1816
sS'CGAGGC'
p2944
I2519
sS'CGAGGG'
p2945
I3288
sS'CACCGT'
p2946
I4441
sS'ACTTTA'
p2947
I29346
sS'ACTTTG'
p2948
I34290
sS'GAATAC'
p2949
I5858
sS'GACCTG'
p2950
I41826
sS'GTCGCG'
p2951
I4269
sS'GACCTA'
p2952
I20975
sS'GACCTC'
p2953
I34769
sS'CACCGG'
p2954
I8883
sS'CTATTG'
p2955
I16614
sS'CACCGA'
p2956
I5467
sS'CACCGC'
p2957
I13149
sS'GACCTT'
p2958
I16515
sS'CGCCCC'
p2959
I33230
sS'GGACGG'
p2960
I2208
sS'ACGCTA'
p2961
I1975
sS'CACAGC'
p2962
I45638
sS'CTTATC'
p2963
I15994
sS'CACAGA'
p2964
I46480
sS'CTTATA'
p2965
I17430
sS'CACAGG'
p2966
I50813
sS'CTTATG'
p2967
I18335
sS'ACTCAT'
p2968
I6175
sS'GAGGAG'
p2969
I48449
sS'GACGTA'
p2970
I4852
sS'CGTATC'
p2971
I2064
sS'GACGTC'
p2972
I8401
sS'GAGGAC'
p2973
I19019
sS'GAGGAA'
p2974
I33735
sS'GACGTG'
p2975
I12076
sS'TTAACA'
p2976
I17203
sS'ACTCAC'
p2977
I13003
sS'TTAACC'
p2978
I11773
sS'TTGTGA'
p2979
I19908
sS'ACTCAG'
p2980
I19499
sS'TTAACG'
p2981
I2364
sS'CACAGT'
p2982
I27735
sS'AGCGAC'
p2983
I4763
sS'TAAACA'
p2984
I34811
sS'AGCGAA'
p2985
I4374
sS'TAAACC'
p2986
I14344
sS'GACGTT'
p2987
I3566
sS'CGTATT'
p2988
I1237
sS'TAAACG'
p2989
I3513
sS'CTGTGG'
p2990
I37505
sS'GTATGT'
p2991
I9172
sS'AGTTCA'
p2992
I30903
sS'TACTTA'
p2993
I47923
sS'CTGTGC'
p2994
I27431
sS'TAGCCC'
p2995
I13484
sS'CTGTGA'
p2996
I28486
sS'CGGGGT'
p2997
I2306
sS'TAGGAC'
p2998
I8483
sS'GCAAAG'
p2999
I9190
sS'TAGGAA'
p3000
I15501
sS'GCAAAA'
p3001
I5962
sS'TAGGAG'
p3002
I15964
sS'GCAAAC'
p3003
I5235
sS'CGGGGC'
p3004
I8965
sS'GTATGG'
p3005
I7486
sS'CTGTGT'
p3006
I25708
sS'CGGGGG'
p3007
I7325
sS'GTATGC'
p3008
I6290
sS'AGTTCT'
p3009
I20663
sS'GCAAAT'
p3010
I3041
sS'CGAGAA'
p3011
I979
sS'TAGGAT'
p3012
I4505
sS'AAAAAT'
p3013
I8913
sS'TTCAAT'
p3014
I15062
sS'TGCTTT'
p3015
I34042
sS'GTCTAT'
p3016
I9287
sS'GTAATT'
p3017
I4493
sS'GTTACC'
p3018
I11064
sS'GTTACA'
p3019
I15551
sS'TAATTC'
p3020
I12216
sS'TATCGA'
p3021
I1855
sS'TATCGC'
p3022
I2243
sS'TATAGT'
p3023
I12695
sS'GTCTAA'
p3024
I18241
sS'CAGGAC'
p3025
I13564
sS'GTCTAC'
p3026
I12747
sS'TGCTTC'
p3027
I53701
sS'TTCAAA'
p3028
I44947
sS'TTCAAC'
p3029
I23021
sS'TGCTTG'
p3030
I54875
sS'TATAGC'
p3031
I12715
sS'TTTATC'
p3032
I20525
sS'TATAGA'
p3033
I18400
sS'AGTGGG'
p3034
I19152
sS'TATAGG'
p3035
I15817
sS'GTGGCG'
p3036
I9582
sS'GTTACT'
p3037
I10298
sS'GCTCTC'
p3038
I19047
sS'GGAAAC'
p3039
I8033
sS'GGGCTA'
p3040
I11055
sS'GCTCTG'
p3041
I41315
sS'CCACGT'
p3042
I950
sS'CAATAT'
p3043
I2698
sS'AGGACC'
p3044
I19237
sS'ACTAGA'
p3045
I8769
sS'GGCTTT'
p3046
I17863
sS'ACTACT'
p3047
I6290
sS'GAATGC'
p3048
I14223
sS'CCACGA'
p3049
I822
sS'CAATAC'
p3050
I3619
sS'CCACGC'
p3051
I1916
sS'GGCGTA'
p3052
I3389
sS'GTTCCG'
p3053
I4059
sS'GGCGTG'
p3054
I18161
sS'CCACGG'
p3055
I1783
sS'AACCTA'
p3056
I24090
sS'GGCTTA'
p3057
I29092
sS'ACTACC'
p3058
I7759
sS'GGCTTC'
p3059
I41244
sS'ACTACA'
p3060
I12704
sS'ACTACG'
p3061
I2437
sS'GGCTTG'
p3062
I41876
sS'TCCTAG'
p3063
I23368
sS'TAACAA'
p3064
I7583
sS'CGTTGC'
p3065
I5050
sS'TAACAC'
p3066
I4820
sS'TCCTAC'
p3067
I17273
sS'AGTCAC'
p3068
I26844
sS'CGTTGG'
p3069
I5292
sS'TAACAG'
p3070
I7803
sS'TCATCG'
p3071
I2244
sS'AAGCGT'
p3072
I2535
sS'TCATCC'
p3073
I12210
sS'GAGCGG'
p3074
I14786
sS'CTTTCT'
p3075
I32642
sS'AGTCAT'
p3076
I14724
sS'TCCTAT'
p3077
I11025
sS'TGCGAA'
p3078
I2731
sS'CGTTGT'
p3079
I2840
sS'TAAATA'
p3080
I37817
sS'CTTTCC'
p3081
I48975
sS'CTTTCA'
p3082
I40466
sS'CTTTCG'
p3083
I7176
sS'GCGGGT'
p3084
I1459
sS'GAGCGC'
p3085
I11917
sS'GTTGAT'
p3086
I3541
sS'CGACCA'
p3087
I874
sS'CGACCC'
p3088
I1363
sS'CGACCG'
p3089
I551
sS'CCTTAT'
p3090
I6316
sS'GTTGAC'
p3091
I7531
sS'GTTGAA'
p3092
I9842
sS'ACTGGG'
p3093
I14384
sS'GTTGAG'
p3094
I11752
sS'CCTTAC'
p3095
I8750
sS'TTCGAT'
p3096
I1139
sS'CCTTAA'
p3097
I13117
sS'CCTTAG'
p3098
I13082
sS'CGACCT'
p3099
I686
sS'CAACTC'
p3100
I6349
sS'AATAGC'
p3101
I17379
sS'CAACTG'
p3102
I10306
sS'AATAGG'
p3103
I19873
sS'GCAGCA'
p3104
I10567
sS'GGGGTT'
p3105
I2941
sS'GGATGT'
p3106
I3405
sS'AATAGT'
p3107
I13692
sS'TCGCTA'
p3108
I2006
sS'CAACTT'
p3109
I2138
sS'GGGGTG'
p3110
I21501
sS'GGATGA'
p3111
I4866
sS'GGGGTC'
p3112
I5767
sS'GGGGTA'
p3113
I6533
sS'TCTCCG'
p3114
I5599
sS'GAGTCC'
p3115
I30021
sS'AAACTG'
p3116
I18339
sS'TCTCCC'
p3117
I21636
sS'AAACTA'
p3118
I13159
sS'TCTCCA'
p3119
I19647
sS'AAACTC'
p3120
I10222
sS'CTATGA'
p3121
I11264
sS'AGTACG'
p3122
I2850
sS'CTATGC'
p3123
I7819
sS'AGTACC'
p3124
I11499
sS'ACGCGG'
p3125
I2197
sS'AGTACA'
p3126
I18012
sS'CCCTTA'
p3127
I29174
sS'CCCTTC'
p3128
I47630
sS'TCTCCT'
p3129
I11897
sS'CCCTTG'
p3130
I42723
sS'AGTACT'
p3131
I11464
sS'CTATGT'
p3132
I8981
sS'GCCGAA'
p3133
I3259
sS'GTGGAG'
p3134
I18341
sS'GCCGAC'
p3135
I4693
sS'GCTTAT'
p3136
I5233
sS'GTGGAC'
p3137
I6856
sS'GCCGAG'
p3138
I12168
sS'GTGGAA'
p3139
I10790
sS'GTGGAT'
p3140
I3224
sS'GCCGAT'
p3141
I1013
sS'CCTATT'
p3142
I4083
sS'CACTGT'
p3143
I33437
sS'GTAGTC'
p3144
I5435
sS'AAATCG'
p3145
I2082
sS'CACGCG'
p3146
I6223
sS'TTATCG'
p3147
I1945
sS'GTAGTG'
p3148
I8894
sS'AAATCC'
p3149
I13400
sS'CACGCC'
p3150
I19505
sS'AAATCA'
p3151
I18346
sS'CTACGT'
p3152
I861
sS'AGATAC'
p3153
I3681
sS'CACGCT'
p3154
I6196
sS'AAATCT'
p3155
I9383
sS'AAAGTC'
p3156
I10229
sS'GTAGTT'
p3157
I2716
sS'ACCAGT'
p3158
I9338
sS'CGTTAT'
p3159
I1532
sS'ATAGTC'
p3160
I4428
sS'GATGAT'
p3161
I10017
sS'GGAGCA'
p3162
I8444
sS'GGAGCC'
p3163
I12889
sS'CCGGCT'
p3164
I3229
sS'CCAAAT'
p3165
I2643
sS'GGAGCG'
p3166
I3775
sS'AAAACT'
p3167
I12397
sS'GATGAC'
p3168
I22403
sS'GATGAA'
p3169
I24609
sS'GCTCTT'
p3170
I6140
sS'GATGAG'
p3171
I28765
sS'AAAACC'
p3172
I19575
sS'CCAAAC'
p3173
I4500
sS'AAAACG'
p3174
I4610
sS'GGAGCT'
p3175
I5256
sS'CCAAAG'
p3176
I8010
sS'TCGCGG'
p3177
I2153
sS'CTAGAG'
p3178
I6052
sS'TCGCGC'
p3179
I1668
sS'GGGAGT'
p3180
I9473
sS'GCCACA'
p3181
I34944
sS'AGATCA'
p3182
I10869
sS'GCCACC'
p3183
I40080
sS'AGAAAT'
p3184
I7130
sS'CGACGG'
p3185
I903
sS'GCCACG'
p3186
I13094
sS'AGATCG'
p3187
I2284
sS'ATGTCA'
p3188
I27476
sS'TCGCGT'
p3189
I489
sS'GTGCAA'
p3190
I11374
sS'ACCCGT'
p3191
I1686
sS'AGAAAG'
p3192
I20438
sS'TACCCG'
p3193
I5188
sS'AGAAAC'
p3194
I12169
sS'TACCCA'
p3195
I22595
sS'AGAAAA'
p3196
I17233
sS'TACCCC'
p3197
I15131
sS'ATGTAC'
p3198
I7181
sS'ACTTCG'
p3199
I4324
sS'ATGTAA'
p3200
I13716
sS'ATGTAG'
p3201
I9439
sS'GAGGAT'
p3202
I7527
sS'CTACCA'
p3203
I6548
sS'ACGAAG'
p3204
I2063
sS'GACGAC'
p3205
I4793
sS'ATGTCG'
p3206
I3110
sS'ATGTAT'
p3207
I6854
sS'GTTCCA'
p3208
I13038
sS'CACTGA'
p3209
I43520
sS'GGCGTC'
p3210
I7968
sS'ACTTCA'
p3211
I22195
sS'ATCCAT'
p3212
I5535
sS'AGCACT'
p3213
I31597
sS'TTAGAA'
p3214
I5986
sS'CGGCTG'
p3215
I14764
sS'TTAGAC'
p3216
I3336
sS'CGGCTC'
p3217
I11292
sS'TTAGAG'
p3218
I6327
sS'CGGCTA'
p3219
I3864
sS'AGCACC'
p3220
I35276
sS'AGCACA'
p3221
I43788
sS'AGCACG'
p3222
I10785
sS'CGGCTT'
p3223
I2278
sS'TTAGAT'
p3224
I2198
sS'CCAGCA'
p3225
I10896
sS'ACCTAT'
p3226
I5403
sS'CCAGCC'
p3227
I17739
sS'ATATCC'
p3228
I10255
sS'AACTAC'
p3229
I20087
sS'CCAGCG'
p3230
I3196
sS'CGACGT'
p3231
I288
sS'TTATTT'
p3232
I14559
sS'TGTGAG'
p3233
I25428
sS'TGTGAA'
p3234
I18754
sS'ACGTCT'
p3235
I2614
sS'TGTGAC'
p3236
I19433
sS'ATATCT'
p3237
I9260
sS'CCAGCT'
p3238
I6026
sS'CACGGT'
p3239
I3311
sS'AAAGAT'
p3240
I4320
sS'TGTGAT'
p3241
I8118
sS'TTATTG'
p3242
I23626
sS'TTATTA'
p3243
I31436
sS'CATGAT'
p3244
I6927
sS'TTATTC'
p3245
I16535
sS'AGACGG'
p3246
I2473
sS'TTTTAT'
p3247
I17452
sS'GCGAAC'
p3248
I1263
sS'CTTACT'
p3249
I12498
sS'TCCACT'
p3250
I21017
sS'TACAAA'
p3251
I41146
sS'AGACGA'
p3252
I1184
sS'TACAAC'
p3253
I18815
sS'CCTCTG'
p3254
I45070
sS'AGGTGG'
p3255
I26511
sS'CCTCTC'
p3256
I29444
sS'AGGTGC'
p3257
I13595
sS'CCTCTA'
p3258
I19448
sS'AGGTGA'
p3259
I18388
sS'TACAAT'
p3260
I16623
sS'TCCACA'
p3261
I33796
sS'TTTTAG'
p3262
I23750
sS'TCCACC'
p3263
I38428
sS'CTTACC'
p3264
I14556
sS'ACATCA'
p3265
I10761
sS'TTTTAC'
p3266
I18563
sS'ACATCC'
p3267
I8483
sS'AGGTGT'
p3268
I11410
sS'CCTCTT'
p3269
I8214
sS'CGTCGG'
p3270
I3632
sS'CCCGGC'
p3271
I15700
sS'CCCGGA'
p3272
I7412
sS'NNCTGA'
p3273
I1
sS'CCCGGG'
p3274
I18938
sS'TTGTGT'
p3275
I18620
sS'TGGAAT'
p3276
I9416
sS'AATTAA'
p3277
I31479
sS'TTGTGC'
p3278
I15912
sS'TATGAT'
p3279
I8926
sS'TTGTGG'
p3280
I22833
sS'CCCGGT'
p3281
I2558
sS'TGGAAG'
p3282
I21954
sS'GGTTTT'
p3283
I9410
sS'TGGAAC'
p3284
I10420
sS'TGGAAA'
p3285
I17858
sS'TGAGGA'
p3286
I6657
sS'AAGAGG'
p3287
I41008
sS'TGAGGC'
p3288
I6685
sS'AAGAGA'
p3289
I37361
sS'AAGAGC'
p3290
I23357
sS'TGAGGG'
p3291
I8281
sS'GCTTAG'
p3292
I11736
sS'GCTTAC'
p3293
I7589
sS'GCTTAA'
p3294
I11788
sS'TGATTC'
p3295
I10494
sS'AAGCGC'
p3296
I5762
sS'AAGAGT'
p3297
I14478
sS'AAGCGA'
p3298
I4641
sS'NGCGCC'
p3299
I1
sS'AAGCGG'
p3300
I7414
sS'TGATTA'
p3301
I12790
sS'CTGCTA'
p3302
I25838
sS'GCGTGT'
p3303
I2749
sS'CTGCTC'
p3304
I42473
sS'ACTTCT'
p3305
I13151
sS'GACCGT'
p3306
I3726
sS'CTGCTG'
p3307
I69929
sS'CGGTCA'
p3308
I4011
sS'GGTCGT'
p3309
I1334
sS'CGGTCC'
p3310
I6862
sS'CTAGAA'
p3311
I4801
sS'CGGTCG'
p3312
I2107
sS'GACCGA'
p3313
I5599
sS'GACCGC'
p3314
I8675
sS'ACTTCC'
p3315
I25872
sS'CTGCTT'
p3316
I20121
sS'GACCGG'
p3317
I9577
sS'CTAGAT'
p3318
I1844
sS'GGTCGG'
p3319
I5559
sS'CGGTCT'
p3320
I3178
sS'GGTCGC'
p3321
I4337
sS'GGTCGA'
p3322
I2064
sS'CGTCGC'
p3323
I3832
sS'GCGTGG'
p3324
I7468
sS'TGAAGC'
p3325
I9652
sS'GCGTGA'
p3326
I3874
sS'GCGTGC'
p3327
I4167
sS'TGCTCA'
p3328
I46769
sS'TTCATC'
p3329
I32552
sS'TGCTCC'
p3330
I46154
sS'TTCATA'
p3331
I41550
sS'TTCATG'
p3332
I45550
sS'TGCTCG'
p3333
I9564
sS'GTACAA'
p3334
I3194
sS'CAGCAG'
p3335
I29140
sS'TACACT'
p3336
I22501
sS'GCGGCT'
p3337
I3560
sS'CAGCAC'
p3338
I17400
sS'CGTCGT'
p3339
I1048
sS'GTACAC'
p3340
I2666
sS'TGCTCT'
p3341
I36890
sS'TTCATT'
p3342
I26211
sS'GTAGCC'
p3343
I7279
sS'GCTGCC'
p3344
I23264
sS'GCTGCA'
p3345
I20270
sS'AACTCT'
p3346
I31558
sS'TGGCCC'
p3347
I23604
sS'TGGCCA'
p3348
I25112
sS'GTAGCA'
p3349
I8093
sS'TCATCT'
p3350
I9996
sS'AGCAAA'
p3351
I39519
sS'TGGCCT'
p3352
I17269
sS'AACTCC'
p3353
I45190
sS'GCTGCT'
p3354
I11645
sS'AACTCG'
p3355
I7996
sS'CTACAA'
p3356
I4305
sS'AATATT'
p3357
I14109
sS'GTTCGA'
p3358
I1934
sS'CAACCT'
p3359
I3239
sS'CAGTTA'
p3360
I25451
sS'TGGCCG'
p3361
I7982
sS'GGCACG'
p3362
I10402
sS'GGCACA'
p3363
I31441
sS'GACAAT'
p3364
I14793
sS'GGCACC'
p3365
I28207
sS'CAACCG'
p3366
I1250
sS'CAGAAA'
p3367
I23910
sS'AATATG'
p3368
I30226
sS'CAACCC'
p3369
I5771
sS'AGCAAG'
p3370
I39526
sS'AATATC'
p3371
I17550
sS'GACAAA'
p3372
I37610
sS'GGCACT'
p3373
I19426
sS'GACAAC'
p3374
I20149
sS'ACGACA'
p3375
I2063
sS'GACAAG'
p3376
I33674
sS'GCTGCG'
p3377
I9301
sS'GCGGCG'
p3378
I7158
sS'GCAATA'
p3379
I8975
sS'GCAATG'
p3380
I11798
sS'CAAGTG'
p3381
I15026
sS'CGATGG'
p3382
I1365
sS'TCCCAT'
p3383
I7374
sS'CGATGC'
p3384
I1011
sS'CAGCAT'
p3385
I7130
sS'CGATGA'
p3386
I1142
sS'GAATTA'
p3387
I17957
sS'GAATTC'
p3388
I14661
sS'GAATTG'
p3389
I15414
sS'GTAAAC'
p3390
I8485
sS'CGATGT'
p3391
I689
sS'TCCCAC'
p3392
I18589
sS'GTAAAG'
p3393
I9839
sS'TCCCAG'
p3394
I35415
sS'GGATTT'
p3395
I2327
sS'GTGCGT'
p3396
I2649
sS'ATGGTA'
p3397
I12304
sS'GGATTC'
p3398
I5003
sS'AATTAG'
p3399
I21748
sS'GGATTA'
p3400
I12430
sS'GGATTG'
p3401
I7208
sS'ACCTCT'
p3402
I20537
sS'CTATCA'
p3403
I12797
sS'ATATAG'
p3404
I5090
sS'TCTGTG'
p3405
I38619
sS'TCTGTC'
p3406
I20143
sS'ATAACG'
p3407
I1951
sS'TCTGTA'
p3408
I24063
sS'AACCGG'
p3409
I6092
sS'CTCCTT'
p3410
I25578
sS'GGCGGA'
p3411
I10148
sS'GGCGGG'
p3412
I33217
sS'AACCGA'
p3413
I4336
sS'TCTGTT'
p3414
I7327
sS'AAAGCG'
p3415
I4388
sS'CTCCTG'
p3416
I83923
sS'AACCGT'
p3417
I2945
sS'CTCCTA'
p3418
I35217
sS'CTCCTC'
p3419
I67677
sS'GGCGGT'
p3420
I4161
sS'GACGCA'
p3421
I9482
sS'GACGCC'
p3422
I14008
sS'AACAAC'
p3423
I28545
sS'CCCACC'
p3424
I49440
sS'TACTTC'
p3425
I38696
sS'AGCCTT'
p3426
I17677
sS'CCGATT'
p3427
I516
sS'CCCACT'
p3428
I19383
sS'AACAAT'
p3429
I20687
sS'GACGCT'
p3430
I7755
sS'GTGCGA'
p3431
I2525
sS'CCGATA'
p3432
I1114
sS'AGCCTG'
p3433
I69339
sS'AGCCTA'
p3434
I25068
sS'AGCCTC'
p3435
I51090
sS'GTACCC'
p3436
I3689
sS'CTCCCG'
p3437
I24049
sS'ACGAAT'
p3438
I498
sS'CGCCTT'
p3439
I5576
sS'TGGTTC'
p3440
I15115
sS'CAGAGT'
p3441
I14425
sS'CAGTCA'
p3442
I30653
sS'ACCTCG'
p3443
I9901
sS'GCGCCC'
p3444
I9573
sS'CGCCTC'
p3445
I24492
sS'GCGCCA'
p3446
I4916
sS'CGCCTA'
p3447
I6392
sS'AGGCAG'
p3448
I30765
sS'CGCCTG'
p3449
I23879
sS'GTACCT'
p3450
I2914
sS'CAGAGG'
p3451
I44111
sS'GCATCC'
p3452
I8553
sS'GTGCGG'
p3453
I7163
sS'CAGAGC'
p3454
I29424
sS'GCATCG'
p3455
I1777
sS'CAGAGA'
p3456
I32410
sS'AATCAT'
p3457
I14256
sS'TAGCTA'
p3458
I18122
sS'CCGATC'
p3459
I1147
sS'CCTAGA'
p3460
I9960
sS'CCTAGC'
p3461
I7902
sS'TTTGCT'
p3462
I14423
sS'TAGCTC'
p3463
I16221
sS'TGCGGT'
p3464
I2848
sS'CCTAGG'
p3465
I13471
sS'CCCATG'
p3466
I26874
sS'TTTGCA'
p3467
I23989
sS'TGCGGA'
p3468
I4544
sS'CCTAGT'
p3469
I4927
sS'TGCGGG'
p3470
I10155
sS'TTTGCG'
p3471
I3788
sS'TGAGTT'
p3472
I2667
sS'CGGGAC'
p3473
I3709
sS'ATCGCT'
p3474
I2834
sS'TAATCT'
p3475
I9936
sS'CAGGGT'
p3476
I8083
sS'ATCGCC'
p3477
I4279
sS'TGAGTG'
p3478
I13397
sS'ATCGCA'
p3479
I3301
sS'TGAGTA'
p3480
I11453
sS'ATCGCG'
p3481
I2475
sS'TGAGTC'
p3482
I13318
sS'AAGGTG'
p3483
I27615
sS'AAGGTC'
p3484
I17143
sS'CATCAT'
p3485
I11055
sS'AAGGTA'
p3486
I19467
sS'ACGGCA'
p3487
I2913
sS'CATCAC'
p3488
I19967
sS'ACGGCC'
p3489
I4386
sS'CATCAA'
p3490
I18304
sS'CATCAG'
p3491
I25119
sS'ACGGCG'
p3492
I1875
sS'TCACCT'
p3493
I3910
sS'TCTAAG'
p3494
I13966
sS'TCGTTT'
p3495
I1398
sS'CGGAAT'
p3496
I1126
sS'ATCGAT'
p3497
I646
sS'TCACCG'
p3498
I1632
sS'TCACCA'
p3499
I6647
sS'TCACCC'
p3500
I6473
sS'CGGAAG'
p3501
I8013
sS'AATATA'
p3502
I33819
sS'AACTGG'
p3503
I35497
sS'AAAATA'
p3504
I35035
sS'CGGAAC'
p3505
I3056
sS'AGCTCG'
p3506
I11095
sS'CGGAAA'
p3507
I3302
sS'TAGCTT'
p3508
I8116
sS'ATCCAG'
p3509
I17854
sS'ATGGCG'
p3510
I4400
sS'TGTGTA'
p3511
I29978
sS'TGTGTG'
p3512
I63803
sS'ATGGCA'
p3513
I18562
sS'ATCCCT'
p3514
I13484
sS'ATGGCT'
p3515
I8374
sS'TGTGTT'
p3516
I10310
sS'CCAAGT'
p3517
I4170
sS'AGATTA'
p3518
I12527
sS'GAAACG'
p3519
I6162
sS'GAAACA'
p3520
I30544
sS'GAAACC'
p3521
I22658
sS'CTGAGT'
p3522
I13807
sS'AGGTAC'
p3523
I5814
sS'GAAACT'
p3524
I15011
sS'AGAATG'
p3525
I24545
sS'AGAATA'
p3526
I16044
sS'AGAATC'
p3527
I9441
sS'CTGAGC'
p3528
I19264
sS'CTGAGA'
p3529
I21448
sS'CTGAGG'
p3530
I32935
sS'CATACC'
p3531
I16690
sS'CATACA'
p3532
I23826
sS'CATACG'
p3533
I3566
sS'GCAATC'
p3534
I4558
sS'TCAAAT'
p3535
I3707
sS'CGAGCC'
p3536
I4322
sS'GTCCAT'
p3537
I5924
sS'AGGGGT'
p3538
I4996
sS'CATACT'
p3539
I13556
sS'AATGGC'
p3540
I15149
sS'GTCCAG'
p3541
I23635
sS'TCAAAG'
p3542
I8483
sS'GTCCAC'
p3543
I12959
sS'GTCCAA'
p3544
I13258
sS'CGGCGG'
p3545
I10872
sS'TTGATG'
p3546
I20248
sS'ATCGAG'
p3547
I2281
sS'CGGCGC'
p3548
I6634
sS'TTGATC'
p3549
I9148
sS'CGGCGA'
p3550
I2708
sS'TTGATA'
p3551
I17518
sS'ACCGTA'
p3552
I2969
sS'TTGATT'
p3553
I6248
sS'CGGCGT'
p3554
I1528
sS'ATGGCC'
p3555
I15094
sS'CCATTA'
p3556
I10573
sS'TCACAG'
p3557
I5473
sS'CGGTTA'
p3558
I2852
sS'GGTTTA'
p3559
I22409
sS'CGGTTC'
p3560
I3932
sS'GGTTTC'
p3561
I25542
sS'CGGTTG'
p3562
I4272
sS'GGTTTG'
p3563
I28242
sS'CCATTG'
p3564
I12043
sS'ATCCCA'
p3565
I23519
sS'GCTGTG'
p3566
I35966
sS'GGGGAG'
p3567
I16260
sS'GCTGTC'
p3568
I14092
sS'CGGTTT'
p3569
I1632
sS'GCTGTA'
p3570
I16484
sS'TATGCG'
p3571
I3068
sS'TCTCAA'
p3572
I17738
sS'AGGTTG'
p3573
I22760
sS'AGGTTC'
p3574
I13424
sS'ATATTT'
p3575
I9692
sS'AGGTTA'
p3576
I19121
sS'ATGAAA'
p3577
I17263
sS'GAGGGA'
p3578
I36934
sS'TTTTTC'
p3579
I45064
sS'TCCATC'
p3580
I22914
sS'TTTTTA'
p3581
I75462
sS'TCCTCT'
p3582
I41782
sS'TTTTTG'
p3583
I55903
sS'GAGGGG'
p3584
I42034
sS'TTAAAT'
p3585
I7871
sS'AGGTTT'
p3586
I8522
sS'TAAGCG'
p3587
I2323
sS'AGGGGG'
p3588
I14482
sS'TTAAAC'
p3589
I9783
sS'ATACGT'
p3590
I645
sS'TTAAAA'
p3591
I20355
sS'ACTCCG'
p3592
I4070
sS'TTAAAG'
p3593
I15919
sS'GAGGGT'
p3594
I11075
sS'TTTTTT'
p3595
I28925
sS'ACTCCC'
p3596
I12573
sS'TAGGCT'
p3597
I11124
sS'GTCACG'
p3598
I10162
sS'CTGTAC'
p3599
I9919
sS'GCAACT'
p3600
I4525
sS'GTCACC'
p3601
I36081
sS'CTGTAG'
p3602
I14765
sS'GTCACA'
p3603
I38765
sS'ACTTAT'
p3604
I4720
sS'GCAACG'
p3605
I2118
sS'GTCACT'
p3606
I28833
sS'TAGGCG'
p3607
I5113
sS'GCAACC'
p3608
I7614
sS'CTGTAT'
p3609
I8518
sS'GCAACA'
p3610
I10073
sS'TAGGCC'
p3611
I15472
sS'ATTCAT'
p3612
I7611
sS'GTAAAA'
p3613
I9174
sS'GCGATT'
p3614
I558
sS'TCGTGT'
p3615
I1743
sS'TTCACT'
p3616
I32605
sS'GTCTCT'
p3617
I36223
sS'AACATT'
p3618
I21343
sS'ATTCAG'
p3619
I16940
sS'ATATTA'
p3620
I20809
sS'ATTCAA'
p3621
I14051
sS'ATTCAC'
p3622
I10866
sS'GTCTCC'
p3623
I47565
sS'TCGTGG'
p3624
I3356
sS'GCGATG'
p3625
I3439
sS'TTCACC'
p3626
I35256
sS'GCGATA'
p3627
I1406
sS'TTCACA'
p3628
I46237
sS'GCGATC'
p3629
I1645
sS'GAAGGC'
p3630
I14050
sS'GAAGGA'
p3631
I19647
sS'GAAGGG'
p3632
I23678
sS'CGATTA'
p3633
I1305
sS'GGAACC'
p3634
I9870
sS'AGACTT'
p3635
I2640
sS'GGAACA'
p3636
I10796
sS'GGAACG'
p3637
I2949
sS'TGACGA'
p3638
I870
sS'ATAGTA'
p3639
I8380
sS'TCATAC'
p3640
I3707
sS'AAAACA'
p3641
I45359
sS'GAAGGT'
p3642
I5340
sS'CTCGCT'
p3643
I7684
sS'CAATCG'
p3644
I1904
sS'CAATCA'
p3645
I11641
sS'CAATCC'
p3646
I8928
sS'TCCTGA'
p3647
I41642
sS'AGTCCA'
p3648
I17788
sS'TCCTGC'
p3649
I50341
sS'AGTCCC'
p3650
I20844
sS'ACTAAA'
p3651
I12412
sS'TCCTGG'
p3652
I62169
sS'ACTAAC'
p3653
I6926
sS'TAACGC'
p3654
I1274
sS'CAGCTG'
p3655
I47732
sS'CAGCTA'
p3656
I25206
sS'CAGCTC'
p3657
I31857
sS'ACTAAT'
p3658
I4754
sS'AGTCCT'
p3659
I12488
sS'TCCTGT'
p3660
I32312
sS'TAATGT'
p3661
I9287
sS'CAGCTT'
p3662
I9682
sS'TAACGT'
p3663
I1091
sS'AGCCAG'
p3664
I43153
sS'GTACTT'
p3665
I2780
sS'CGACAT'
p3666
I237
sS'TTGTTC'
p3667
I24528
sS'CGCAAG'
p3668
I5677
sS'CCGAGG'
p3669
I6768
sS'TTGTTG'
p3670
I34726
sS'CAGGCC'
p3671
I39524
sS'CCGAGC'
p3672
I3597
sS'CCGCGT'
p3673
I832
sS'GTACTG'
p3674
I9291
sS'CGACAA'
p3675
I427
sS'CGACAG'
p3676
I1057
sS'GTACTA'
p3677
I6220
sS'CCGCGC'
p3678
I4140
sS'ACGGAG'
p3679
I2319
sS'CCGCGA'
p3680
I1477
sS'TACGCA'
p3681
I4439
sS'CCGCGG'
p3682
I4739
sS'TTGTTT'
p3683
I24703
sS'GCATAT'
p3684
I2310
sS'TCCGTT'
p3685
I2090
sS'GGAGGC'
p3686
I7644
sS'AATAAC'
p3687
I22843
sS'AATAAA'
p3688
I56810
sS'AATAAG'
p3689
I28604
sS'CTGCGC'
p3690
I8034
sS'AATAAT'
p3691
I18748
sS'ACGGTG'
p3692
I3913
sS'CCAACC'
p3693
I9646
sS'CTCAGT'
p3694
I25215
sS'TTATGC'
p3695
I7995
sS'CCAACG'
p3696
I1977
sS'CGCCGC'
p3697
I24611
sS'AGTAAA'
p3698
I25454
sS'CGCCGA'
p3699
I5298
sS'GAGTAG'
p3700
I17209
sS'CGCCGG'
p3701
I14929
sS'GAGTAA'
p3702
I19728
sS'AGTAAG'
p3703
I20959
sS'CTCAGG'
p3704
I55521
sS'CTAAAA'
p3705
I9224
sS'CTCAGC'
p3706
I48762
sS'CTCAGA'
p3707
I41754
sS'TATTGC'
p3708
I22516
sS'ATCGTC'
p3709
I2411
sS'GTGTAG'
p3710
I11049
sS'TCGAGC'
p3711
I1542
sS'GTGTAA'
p3712
I11837
sS'GTGTAC'
p3713
I7999
sS'TCGAGG'
p3714
I3177
sS'GTGGCA'
p3715
I27951
sS'GTGGCC'
p3716
I29550
sS'ATCGTA'
p3717
I2689
sS'CTCGGC'
p3718
I12416
sS'GCCGCC'
p3719
I28588
sS'GCCGCA'
p3720
I10390
sS'GCCGCG'
p3721
I14475
sS'ACACTT'
p3722
I2435
sS'CATATG'
p3723
I22942
sS'AGATAT'
p3724
I3229
sS'GTGGCT'
p3725
I17341
sS'ATAAGT'
p3726
I4850
sS'CATATA'
p3727
I24370
sS'CAGTCG'
p3728
I5290
sS'TACTAC'
p3729
I17517
sS'ACACTC'
p3730
I5048
sS'ACACTA'
p3731
I5740
sS'ACACTG'
p3732
I11508
sS'GCCGCT'
p3733
I8436
sS'ACCGGA'
p3734
I3283
sS'AAATAA'
p3735
I17231
sS'ACCGGC'
p3736
I3962
sS'AAATAC'
p3737
I9898
sS'CTTTAA'
p3738
I28753
sS'ACCGGG'
p3739
I5667
sS'CTTTAC'
p3740
I15946
sS'CACGAG'
p3741
I6014
sS'CAGGTA'
p3742
I15174
sS'AACTTC'
p3743
I40114
sS'CAGGTC'
p3744
I14586
sS'CACGAC'
p3745
I3859
sS'AACTTG'
p3746
I48825
sS'CAGGTG'
p3747
I28027
sS'CTTTAT'
p3748
I12558
sS'AATCCC'
p3749
I22935
sS'GCTCGT'
p3750
I1366
sS'AATCCA'
p3751
I22456
sS'AAATAT'
p3752
I7366
sS'AATCCG'
p3753
I4281
sS'CACGAT'
p3754
I1713
sS'CAGGTT'
p3755
I4872
sS'AACTTT'
p3756
I21457
sS'GGCGGN'
p3757
I1
sS'GGGATA'
p3758
I9704
sS'GGGATC'
p3759
I7636
sS'GGGTGT'
p3760
I11215
sS'GGGATG'
p3761
I19204
sS'GATGCT'
p3762
I15371
sS'CGCAGT'
p3763
I5544
sS'ATTGGG'
p3764
I7250
sS'GAGCCT'
p3765
I22545
sS'GGAGAC'
p3766
I4347
sS'GGGTGA'
p3767
I14793
sS'GGAGAA'
p3768
I5008
sS'GGGTGC'
p3769
I11370
sS'GGAGAG'
p3770
I8428
sS'GGGTGG'
p3771
I27658
sS'GAGCCA'
p3772
I43394
sS'CGCAGG'
p3773
I17074
sS'GATGCG'
p3774
I6045
sS'CGCAGA'
p3775
I8617
sS'GATGCA'
p3776
I23650
sS'GAGCCG'
p3777
I18339
sS'GATGCC'
p3778
I22666
sS'CGGATT'
p3779
I744
sS'GGTAGT'
p3780
I5064
sS'ACCCCT'
p3781
I8939
sS'GCCAAT'
p3782
I9069
sS'AACCGC'
p3783
I5879
sS'AGAAGT'
p3784
I8699
sS'GCCAAC'
p3785
I14248
sS'GGTAGA'
p3786
I10566
sS'ACCCCC'
p3787
I13156
sS'CGGATG'
p3788
I4319
sS'GCCAAG'
p3789
I28836
sS'CGGATA'
p3790
I1822
sS'ACCCCG'
p3791
I8274
sS'GGTAGG'
p3792
I14009
sS'AGAAGA'
p3793
I17282
sS'AGAAGC'
p3794
I13981
sS'GCAAGA'
p3795
I8338
sS'AGAAGG'
p3796
I23673
sS'CACTCC'
p3797
I54309
sS'CACTCA'
p3798
I46953
sS'CACTCG'
p3799
I10401
sS'TGCGTT'
p3800
I2241
sS'TCAGCT'
p3801
I5497
sS'AGCTTT'
p3802
I24475
sS'CCCCGG'
p3803
I14424
sS'TGCGTA'
p3804
I3988
sS'TGCGTG'
p3805
I10495
sS'CACTCT'
p3806
I32571
sS'AGCTTC'
p3807
I46514
sS'AGCTTA'
p3808
I35286
sS'AGCTTG'
p3809
I46528
sS'ATACGA'
p3810
I692
sS'AGACCA'
p3811
I5347
sS'CCACTT'
p3812
I2222
sS'TTAGCT'
p3813
I5648
sS'GTATAA'
p3814
I6188
sS'TTAGCC'
p3815
I8560
sS'TTAGCA'
p3816
I10972
sS'CTAGCA'
p3817
I8879
sS'TTAGCG'
p3818
I1671
sS'TACCGG'
p3819
I4007
sS'TCATAT'
p3820
I3705
sS'AAGGGG'
p3821
I24985
sS'ATAAGG'
p3822
I11390
sS'TGTGCT'
p3823
I13559
sS'AAGGGC'
p3824
I19768
sS'ATAAGC'
p3825
I7164
sS'AAGGGA'
p3826
I26819
sS'ATAAGA'
p3827
I11329
sS'CCAGAC'
p3828
I3244
sS'CCAGAA'
p3829
I3577
sS'CCAGAG'
p3830
I5880
sS'GCAAGT'
p3831
I3947
sS'TGTGCG'
p3832
I6730
sS'CTACCT'
p3833
I4205
sS'ACTGTG'
p3834
I26773
sS'AAGGGT'
p3835
I8207
sS'TGTGCC'
p3836
I21459
sS'ATAGGA'
p3837
I4319
sS'TGTGCA'
p3838
I23244
sS'CGGTAG'
p3839
I1951
sS'TAAGTT'
p3840
I3509
sS'AGACCG'
p3841
I1489
sS'CCAGAT'
p3842
I1589
sS'AGACAA'
p3843
I4716
sS'AACAAG'
p3844
I36950
sS'AGACAC'
p3845
I4200
sS'AGACAG'
p3846
I7714
sS'TTTTCT'
p3847
I35546
sS'CGCTGT'
p3848
I7531
sS'CCCACG'
p3849
I11932
sS'TCAAGA'
p3850
I7857
sS'CGTGGG'
p3851
I7954
sS'CTATAG'
p3852
I5396
sS'CGTGGC'
p3853
I6085
sS'CGTGGA'
p3854
I4051
sS'TTTTCG'
p3855
I5124
sS'CCCACA'
p3856
I33348
sS'CGCTGC'
p3857
I19688
sS'TTTTCC'
p3858
I44748
sS'TTTTCA'
p3859
I44052
sS'CGCTGG'
p3860
I18048
sS'CTCGCA'
p3861
I7077
sS'TATGGC'
p3862
I10221
sS'CGTAGG'
p3863
I3855
sS'AACAAA'
p3864
I65975
sS'TATGGG'
p3865
I13956
sS'CGTAGC'
p3866
I2893
sS'CTTCAG'
p3867
I24349
sS'AAGTGT'
p3868
I15954
sS'TGGACT'
p3869
I11266
sS'CGTAGT'
p3870
I1932
sS'GCTCGA'
p3871
I2365
sS'TATGGT'
p3872
I7311
sS'TGGACA'
p3873
I18903
sS'TGGACC'
p3874
I12379
sS'TGGACG'
p3875
I4818
sS'CCGGTT'
p3876
I603
sS'CTAGCT'
p3877
I4963
sS'GCTTGA'
p3878
I13979
sS'TGAGAC'
p3879
I5221
sS'GCTTGC'
p3880
I13120
sS'TGAGAA'
p3881
I6132
sS'TGAGAG'
p3882
I6904
sS'GCTTGG'
p3883
I19958
sS'CCTGTT'
p3884
I5142
sS'CGTCTC'
p3885
I9965
sS'CCGGTC'
p3886
I2375
sS'CCGGTA'
p3887
I1825
sS'CCTGTC'
p3888
I16331
sS'CCTGTA'
p3889
I20116
sS'CCTGTG'
p3890
I32995
sS'GCTTGT'
p3891
I8653
sS'TGAGAT'
p3892
I2595
sS'TCCGAA'
p3893
I2480
sS'GGTTGT'
p3894
I8579
sS'AGGGAT'
p3895
I4075
sS'TAAACT'
p3896
I12856
sS'TATCAG'
p3897
I22380
sS'ACAATA'
p3898
I11344
sS'GGTTGG'
p3899
I18306
sS'CTGAAT'
p3900
I6620
sS'GGTTGA'
p3901
I12307
sS'GGTTGC'
p3902
I13812
sS'GAAAGT'
p3903
I11355
sS'TCCCGC'
p3904
I13661
sS'TCCCGA'
p3905
I5755
sS'TCCCGG'
p3906
I15079
sS'TGCTAT'
p3907
I15000
sS'CGTTTT'
p3908
I3403
sS'ATTCTC'
p3909
I18221
sS'AGGGAA'
p3910
I15382
sS'ATTCTA'
p3911
I20592
sS'ATTCTG'
p3912
I28065
sS'TCATTT'
p3913
I7836
sS'GTAACT'
p3914
I8344
sS'CAGCGC'
p3915
I8976
sS'TGCTAG'
p3916
I21741
sS'CAGCGG'
p3917
I9949
sS'AGGATC'
p3918
I11572
sS'TCATTC'
p3919
I15002
sS'TCATTA'
p3920
I17584
sS'CGTTTA'
p3921
I6918
sS'ATTCTT'
p3922
I8719
sS'CGTTTC'
p3923
I8638
sS'TGGCAA'
p3924
I10881
sS'TGGCAC'
p3925
I11216
sS'TGGCAG'
p3926
I19733
sS'GCTGAG'
p3927
I23263
sS'CCAAGC'
p3928
I6130
sS'GCTGAC'
p3929
I10932
sS'TGGCAT'
p3930
I6526
sS'GGCCGG'
p3931
I22088
sS'GTTCAA'
p3932
I11609
sS'NNGATC'
p3933
I1
sS'CCGATG'
p3934
I2314
sS'GGCCGC'
p3935
I19561
sS'GAACTT'
p3936
I3236
sS'GGCCGA'
p3937
I8151
sS'GGCAAT'
p3938
I8834
sS'CTGATT'
p3939
I6812
sS'CCATCG'
p3940
I1934
sS'CTAAAT'
p3941
I4437
sS'CCATCC'
p3942
I12072
sS'CCATCA'
p3943
I9082
sS'CTGATC'
p3944
I10707
sS'CTGATA'
p3945
I18484
sS'GAGTTT'
p3946
I12858
sS'CTGATG'
p3947
I25310
sS'GGCAAA'
p3948
I23105
sS'CTAAAG'
p3949
I9977
sS'CCATCT'
p3950
I8554
sS'CTAAAC'
p3951
I6528
sS'TGGTTA'
p3952
I18988
sS'GACACC'
p3953
I32920
sS'GACACA'
p3954
I50951
sS'GACACG'
p3955
I11752
sS'CCAAGA'
p3956
I7367
sS'GCGCCT'
p3957
I3791
sS'TAGCGA'
p3958
I2068
sS'TACGAG'
p3959
I3237
sS'TACGAC'
p3960
I2250
sS'GACACT'
p3961
I28745
sS'CCGTGA'
p3962
I2728
sS'ACGCTG'
p3963
I5807
sS'GCATAA'
p3964
I3282
sS'GCATAC'
p3965
I2399
sS'TCGATG'
p3966
I2097
sS'TCGATA'
p3967
I1190
sS'TCGATC'
p3968
I1004
sS'CTATTT'
p3969
I9284
sS'TCTGGG'
p3970
I22280
sS'GCATTG'
p3971
I11218
sS'GCATCT'
p3972
I6081
sS'GAACTG'
p3973
I17319
sS'TCGATT'
p3974
I482
sS'CTACCG'
p3975
I1589
sS'GAGTTG'
p3976
I29557
sS'AACCAA'
p3977
I24866
sS'TGCCGG'
p3978
I10607
sS'AACCAC'
p3979
I23305
sS'TGCCGC'
p3980
I10668
sS'AACCAG'
p3981
I27054
sS'TGCCGA'
p3982
I4432
sS'TTGGAC'
p3983
I6022
sS'TCTGGA'
p3984
I12345
sS'ATGATC'
p3985
I8699
sS'GCGCCG'
p3986
I4662
sS'TGCCGT'
p3987
I3587
sS'AACCAT'
p3988
I9828
sS'AACAGA'
p3989
I44943
sS'ACGTCG'
p3990
I1253
sS'AACAGC'
p3991
I33617
sS'GAGTTA'
p3992
I25600
sS'AACAGG'
p3993
I39899
sS'ACGTCA'
p3994
I5467
sS'CCCAAG'
p3995
I24697
sS'TTGGAG'
p3996
I12744
sS'GACGAA'
p3997
I4489
sS'CCCAAC'
p3998
I15419
sS'CCCAAA'
p3999
I19776
sS'GGGAGG'
p4000
I51829
sS'GGGAGA'
p4001
I21609
sS'AACAGT'
p4002
I24508
sS'GGGAGC'
p4003
I18112
sS'CCCAAT'
p4004
I5651
sS'GACGAT'
p4005
I2007
sS'GGGCGC'
p4006
I8727
sS'GGGCGA'
p4007
I4917
sS'GCATCA'
p4008
I8562
sS'GGGCGG'
p4009
I21661
sS'TCTCTT'
p4010
I10446
sS'AGGCAT'
p4011
I7704
sS'CAGAAT'
p4012
I8151
sS'ACGACT'
p4013
I1245
sS'TCTCTC'
p4014
I33609
sS'TCTCTA'
p4015
I28044
sS'TCTCTG'
p4016
I48255
sS'GGGCGT'
p4017
I3046
sS'GTACAT'
p4018
I1816
sS'CAGAAC'
p4019
I15569
sS'ACGACG'
p4020
I1001
sS'CAGAAG'
p4021
I28539
sS'TAAGTG'
p4022
I17197
sS'CACTTT'
p4023
I25742
sS'CATATT'
p4024
I9949
sS'CCTAAT'
p4025
I3719
sS'CACTTG'
p4026
I52996
sS'CCTAAC'
p4027
I6844
sS'CTACCC'
p4028
I6640
sS'CCTAAA'
p4029
I9304
sS'CACTTC'
p4030
I49800
sS'CCTAAG'
p4031
I10977
sS'CACTTA'
p4032
I47102
sS'GCGGAT'
p4033
I456
sS'ACAGGA'
p4034
I5790
sS'AATCCT'
p4035
I15183
sS'CTGCGG'
p4036
I9888
sS'AAGATT'
p4037
I7527
sS'CTCATG'
p4038
I42759
sS'GACTCG'
p4039
I12546
sS'CTCATC'
p4040
I30100
sS'GACTCC'
p4041
I45269
sS'CTCATA'
p4042
I31192
sS'GACTCA'
p4043
I75948
sS'AAGATA'
p4044
I28016
sS'CTCCAA'
p4045
I24947
sS'AAGATG'
p4046
I32055
sS'GACTCT'
p4047
I35457
sS'CTCATT'
p4048
I19966
sS'TTGAGA'
p4049
I18591
sS'ATCGAA'
p4050
I1586
sS'ATCGAC'
p4051
I1308
sS'GCATTA'
p4052
I10436
sS'ACGGTA'
p4053
I1687
sS'AACTAA'
p4054
I29978
sS'ATAGTT'
p4055
I2429
sS'TACTGT'
p4056
I28054
sS'ATATTC'
p4057
I11071
sS'ACGGTC'
p4058
I1529
sS'ATATTG'
p4059
I15127
sS'TACTGC'
p4060
I28194
sS'TACTGA'
p4061
I34246
sS'TACTGG'
p4062
I29880
sS'ATAGTG'
p4063
I8504
sS'ATAGAC'
p4064
I2660
sS'CAGGCA'
p4065
I40945
sS'ACGGAA'
p4066
I1338
sS'CATCCG'
p4067
I5661
sS'AGGAAA'
p4068
I29086
sS'CATCCA'
p4069
I21974
sS'AGGAAC'
p4070
I15030
sS'CATCCC'
p4071
I23575
sS'TTATGA'
p4072
I12596
sS'CAAGCT'
p4073
I5518
sS'CGGAGT'
p4074
I2709
sS'TTATGG'
p4075
I10806
sS'CATCCT'
p4076
I15663
sS'AGGAAT'
p4077
I11225
sS'CAGGCT'
p4078
I19665
sS'ACGGAT'
p4079
I348
sS'CGGAGA'
p4080
I5247
sS'CGGAGC'
p4081
I7993
sS'TTATGT'
p4082
I11008
sS'CGGAGG'
p4083
I12306
sS'ATGGAA'
p4084
I8768
sS'ATGGAC'
p4085
I4777
sS'ATGGAG'
p4086
I10059
sS'CGCTTG'
p4087
I11958
sS'CGCTTA'
p4088
I5933
sS'CGCTTC'
p4089
I13529
sS'ATGGAT'
p4090
I2424
sS'TGCGGC'
p4091
I7642
sS'CGCTTT'
p4092
I5236
sS'GATCGT'
p4093
I2046
sS'TTTGCC'
p4094
I19246
sS'GAAAAG'
p4095
I26364
sS'GAAAAC'
p4096
I17587
sS'ATAGAT'
p4097
I1804
sS'GAAAAA'
p4098
I20500
sS'GTTCCT'
p4099
I9603
sS'CAAGCG'
p4100
I3176
sS'GAAAAT'
p4101
I7937
sS'TGAGGT'
p4102
I3309
sS'CGGCAT'
p4103
I927
sS'ACAAGG'
p4104
I10055
sS'ACAAGA'
p4105
I7933
sS'ACAAGC'
p4106
I5738
sS'ACACGT'
p4107
I787
sS'CTGCGT'
p4108
I3053
sS'GCGGAG'
p4109
I5615
sS'CATAAG'
p4110
I17763
sS'GTCCCT'
p4111
I20925
sS'CATAAA'
p4112
I28181
sS'GCGGAC'
p4113
I1856
sS'CATAAC'
p4114
I14187
sS'ACACGC'
p4115
I1477
sS'ACAAGT'
p4116
I4015
sS'ACACGA'
p4117
I874
sS'ACACGG'
p4118
I1557
sS'CATAAT'
p4119
I10402
sS'GTCCCA'
p4120
I27285
sS'GCACAT'
p4121
I1523
sS'GTCCCC'
p4122
I29983
sS'CTGCGA'
p4123
I3749
sS'GTCCCG'
p4124
I13318
sS'CGGCAA'
p4125
I1961
sS'CGGCAC'
p4126
I3030
sS'CGGCAG'
p4127
I6399
sS'CCTCCT'
p4128
I14121
sS'NNNGAA'
p4129
I2
sS'CAGGCG'
p4130
I15277
sS'CCTCCC'
p4131
I35762
sS'CCTCCA'
p4132
I18198
sS'CCTCCG'
p4133
I7740
s.