(dp0
S'AAAAAC'
p1
I7553
sS'GAACGT'
p2
I647
sS'CTTCTT'
p3
I5919
sS'CACCCT'
p4
I12008
sS'ATTGAA'
p5
I4318
sS'GAACGG'
p6
I1485
sS'GAACGC'
p7
I1369
sS'GAACGA'
p8
I928
sS'CAACAT'
p9
I1113
sS'CACCCA'
p10
I19841
sS'CTTCTA'
p11
I13455
sS'CACCCC'
p12
I18930
sS'CTTCTC'
p13
I18370
sS'CACCCG'
p14
I6571
sS'CTTCTG'
p15
I24017
sS'CGTGTG'
p16
I4959
sS'TAAGGT'
p17
I1860
sS'CGTGTC'
p18
I2449
sS'CGTGTA'
p19
I2076
sS'AGGCAA'
p20
I7102
sS'GGAAAT'
p21
I2229
sS'TAAGGG'
p22
I4830
sS'CGTGTT'
p23
I842
sS'TAAGGC'
p24
I3528
sS'TAAGGA'
p25
I5069
sS'TCACTG'
p26
I8230
sS'GTCAAA'
p27
I10550
sS'AGGGAT'
p28
I2054
sS'GTCAAG'
p29
I10866
sS'CTGTCC'
p30
I20059
sS'TCAGAG'
p31
I3309
sS'CTGTCA'
p32
I17089
sS'CTGTCG'
p33
I3382
sS'TCAGAC'
p34
I1671
sS'TCAGAA'
p35
I2204
sS'GTCAAT'
p36
I3979
sS'GTATCA'
p37
I5779
sS'GTATCC'
p38
I4634
sS'GTATCG'
p39
I815
sS'CTGTCT'
p40
I15994
sS'GGTGTC'
p41
I5366
sS'GGTGTA'
p42
I5009
sS'GGTGTG'
p43
I14118
sS'TATCCT'
p44
I6635
sS'CCGGGG'
p45
I3259
sS'TTCTGT'
p46
I20657
sS'GTATTG'
p47
I6723
sS'CCGGGC'
p48
I2511
sS'CCGGGA'
p49
I1950
sS'TATCCA'
p50
I9385
sS'TATCCC'
p51
I7445
sS'TGGTTG'
p52
I9939
sS'TATCCG'
p53
I1537
sS'GGTGTT'
p54
I1929
sS'ATTCCG'
p55
I1346
sS'TTCTGG'
p56
I27562
sS'CCGGGT'
p57
I742
sS'ATTCCC'
p58
I6255
sS'TTCTGC'
p59
I24558
sS'ATTCCA'
p60
I9121
sS'TTCTGA'
p61
I25858
sS'CTTGGA'
p62
I6459
sS'CGTCAT'
p63
I983
sS'GTTCTC'
p64
I9849
sS'CCCGCG'
p65
I5744
sS'ACGAAC'
p66
I539
sS'CGCGGG'
p67
I7237
sS'NCCGCC'
p68
I1
sS'CGCGGC'
p69
I6274
sS'CGCGGA'
p70
I2650
sS'GTCCTT'
p71
I7017
sS'ACCTGT'
p72
I5748
sS'TCATGT'
p73
I3482
sS'CTCCGA'
p74
I3645
sS'TTACAG'
p75
I4353
sS'CTCCGC'
p76
I9978
sS'TTACAA'
p77
I2999
sS'TTACAC'
p78
I1847
sS'CTCCGG'
p79
I8397
sS'TCATGC'
p80
I3661
sS'ACCTGG'
p81
I14004
sS'TCATGA'
p82
I3865
sS'GTAAGC'
p83
I3290
sS'TCATGG'
p84
I4204
sS'ACCTGC'
p85
I11631
sS'ACCTGA'
p86
I9630
sS'TTACAT'
p87
I1659
sS'CTCGAT'
p88
I616
sS'CTCCGT'
p89
I2910
sS'GAATTT'
p90
I2929
sS'GCCTGA'
p91
I15152
sS'GCCTGC'
p92
I19955
sS'GCCTGG'
p93
I32657
sS'TAAAGG'
p94
I11008
sS'CAAATT'
p95
I1755
sS'TAAAGA'
p96
I10843
sS'TAAAGC'
p97
I6961
sS'GCCTGT'
p98
I11053
sS'TATCTA'
p99
I14331
sS'TAAAGT'
p100
I5377
sS'CAAATA'
p101
I11255
sS'CAAATC'
p102
I4542
sS'CAAATG'
p103
I11062
sS'AATACT'
p104
I10115
sS'TATCTC'
p105
I13756
sS'CGTCAA'
p106
I1368
sS'GGCATG'
p107
I16591
sS'GGCATA'
p108
I7892
sS'GGCATC'
p109
I7988
sS'AATACG'
p110
I2374
sS'AATACA'
p111
I18135
sS'AATACC'
p112
I10387
sS'GGCATT'
p113
I4833
sS'TCCCCA'
p114
I17850
sS'CTTGGT'
p115
I2763
sS'GAGCAC'
p116
I8500
sS'GAGCAA'
p117
I10723
sS'GAGCAG'
p118
I17868
sS'AGTAGT'
p119
I4716
sS'TCTCGC'
p120
I2277
sS'TCTCGA'
p121
I1410
sS'GCAATT'
p122
I1228
sS'TCTCGG'
p123
I2887
sS'AGTAGC'
p124
I7112
sS'AGTAGA'
p125
I8806
sS'AGTAGG'
p126
I8612
sS'GAGCAT'
p127
I3659
sS'AGCCCG'
p128
I7789
sS'TCTCGT'
p129
I703
sS'GTGTCG'
p130
I2774
sS'TCGAAC'
p131
I538
sS'TCGAAA'
p132
I502
sS'GTGTCC'
p133
I14855
sS'TCGAAG'
p134
I812
sS'GTGTCA'
p135
I14686
sS'CTTGCT'
p136
I6170
sS'TCGGTC'
p137
I924
sS'GTGTCT'
p138
I12506
sS'TTGAAG'
p139
I8433
sS'TCGAAT'
p140
I228
sS'CTTGCG'
p141
I2222
sS'CTTGCA'
p142
I8624
sS'CTTGCC'
p143
I9879
sS'CGAAAG'
p144
I994
sS'CGAAAA'
p145
I509
sS'CGAAAC'
p146
I596
sS'AAGGTT'
p147
I3309
sS'CACGGA'
p148
I2891
sS'ACAGTG'
p149
I6850
sS'CACGGC'
p150
I4037
sS'AAATGA'
p151
I9373
sS'AAATGG'
p152
I7295
sS'CACGGG'
p153
I4609
sS'ACAGTA'
p154
I4314
sS'TAGAGC'
p155
I6738
sS'CGAAAT'
p156
I277
sS'ACAGTT'
p157
I1213
sS'AATCAG'
p158
I13831
sS'AATCAA'
p159
I11858
sS'AAATGT'
p160
I5726
sS'AATCAC'
p161
I11507
sS'TTTGTA'
p162
I16027
sS'TCTAGT'
p163
I2987
sS'TTGCCG'
p164
I2854
sS'TTGCCA'
p165
I14430
sS'TTGCCC'
p166
I14078
sS'GGGTAC'
p167
I1768
sS'TCTAGG'
p168
I7319
sS'ATACGC'
p169
I330
sS'TCTAGA'
p170
I5610
sS'GGGTAG'
p171
I3668
sS'TCTAGC'
p172
I4247
sS'ATACGG'
p173
I461
sS'ATACAT'
p174
I1144
sS'AGATGT'
p175
I2754
sS'TCGCCC'
p176
I2343
sS'TCGCCA'
p177
I1224
sS'GGGTCG'
p178
I2207
sS'TCGCCG'
p179
I873
sS'GGTAAT'
p180
I2514
sS'ACCCAT'
p181
I1956
sS'CGTCAG'
p182
I3136
sS'GTGTAT'
p183
I4058
sS'ACCCAC'
p184
I6063
sS'GGTAAC'
p185
I4234
sS'ACCCAA'
p186
I5707
sS'AGATGG'
p187
I5352
sS'ACCCAG'
p188
I10901
sS'GGTAAG'
p189
I6110
sS'TCGCCT'
p190
I1066
sS'AGATGC'
p191
I3254
sS'CCCCAT'
p192
I2703
sS'TTGGGT'
p193
I2662
sS'CACTAG'
p194
I10884
sS'CACTAA'
p195
I12602
sS'CACTAC'
p196
I8637
sS'CCCCAA'
p197
I6963
sS'CCCCAC'
p198
I10132
sS'CCCCAG'
p199
I12855
sS'CACTAT'
p200
I6025
sS'TTGGGG'
p201
I7841
sS'CGCTAG'
p202
I2440
sS'TTGGGA'
p203
I6082
sS'TTGGGC'
p204
I4503
sS'ATAAAA'
p205
I7456
sS'TGCCTG'
p206
I33408
sS'TGCAGA'
p207
I17971
sS'TTTCTG'
p208
I26743
sS'TGCAGC'
p209
I18259
sS'TTTCTA'
p210
I19156
sS'TTTCTC'
p211
I20631
sS'TGCAGG'
p212
I22831
sS'GGGTCA'
p213
I7776
sS'GTATCT'
p214
I4932
sS'TTTCTT'
p215
I9669
sS'TGCCTT'
p216
I9587
sS'TGCAGT'
p217
I14249
sS'ACAATT'
p218
I1396
sS'AAGGAA'
p219
I16124
sS'TACAGT'
p220
I12991
sS'AAGGAC'
p221
I7621
sS'TCACAG'
p222
I2793
sS'AAGGAG'
p223
I15350
sS'ATATGC'
p224
I3391
sS'ATATGA'
p225
I4978
sS'TACGAA'
p226
I1470
sS'ATATGG'
p227
I4114
sS'ACGATC'
p228
I543
sS'AAGGAT'
p229
I3277
sS'CTATCA'
p230
I6455
sS'ACATTT'
p231
I3159
sS'TGGTTT'
p232
I5061
sS'TGACTT'
p233
I1372
sS'ACTATT'
p234
I1997
sS'GGTCCC'
p235
I6790
sS'GCCCAG'
p236
I18561
sS'ATGCAG'
p237
I7553
sS'GCCCAA'
p238
I6782
sS'GGTCCG'
p239
I2148
sS'AGGTCT'
p240
I6951
sS'ATGGCG'
p241
I2162
sS'AGACCC'
p242
I2114
sS'AGACCA'
p243
I2638
sS'CTTCGA'
p244
I1361
sS'CTTCGC'
p245
I2399
sS'CCACTA'
p246
I2475
sS'AGGTCC'
p247
I9212
sS'AGGTCA'
p248
I14840
sS'AAAGTT'
p249
I1963
sS'TCCGGC'
p250
I3965
sS'GGTCCT'
p251
I3314
sS'TCCGGA'
p252
I2566
sS'CTTAGC'
p253
I6136
sS'TCTTGA'
p254
I9196
sS'CTTAGA'
p255
I7636
sS'TCTTGC'
p256
I9228
sS'CTTAGG'
p257
I8587
sS'ATTGTC'
p258
I4122
sS'TCTTGG'
p259
I11660
sS'GCCTTT'
p260
I9939
sS'ATTTTG'
p261
I19510
sS'GAGGTG'
p262
I21184
sS'ATTTTA'
p263
I27749
sS'GAGGTA'
p264
I10152
sS'ATTTTC'
p265
I13797
sS'GAGGTC'
p266
I10033
sS'TAGCAG'
p267
I7671
sS'GATACT'
p268
I6857
sS'TAGCAC'
p269
I4922
sS'TAGCAA'
p270
I6751
sS'TCCAGT'
p271
I8897
sS'ATTTTT'
p272
I6985
sS'GCCTTG'
p273
I24828
sS'GTGGGG'
p274
I13739
sS'GCCTTA'
p275
I14355
sS'TTGACA'
p276
I8693
sS'GCCTTC'
p277
I20623
sS'GATACG'
p278
I1848
sS'TAGCAT'
p279
I3046
sS'GATACC'
p280
I6834
sS'GATACA'
p281
I11213
sS'TGAGCT'
p282
I3034
sS'ACGGAC'
p283
I503
sS'GATCAT'
p284
I4574
sS'AAGACA'
p285
I18929
sS'AAGACC'
p286
I10791
sS'GATTTA'
p287
I21587
sS'AAGACG'
p288
I3630
sS'GATCAG'
p289
I10238
sS'TGAGCG'
p290
I1270
sS'TGAGCA'
p291
I5597
sS'TGAGCC'
p292
I7323
sS'AAGACT'
p293
I9750
sS'CTTCCA'
p294
I11914
sS'GCGGTA'
p295
I1087
sS'CGTGCA'
p296
I2642
sS'GCGGTG'
p297
I3930
sS'CGGTGT'
p298
I1379
sS'TCGTTA'
p299
I1382
sS'TCGTTC'
p300
I1298
sS'ATGTGG'
p301
I10385
sS'TCGTTG'
p302
I1595
sS'GCGGTT'
p303
I342
sS'ACTTGC'
p304
I5932
sS'ATGTGA'
p305
I9948
sS'ACTTGA'
p306
I7214
sS'CGGTGG'
p307
I3688
sS'ACTTGG'
p308
I8232
sS'CGGTGA'
p309
I1991
sS'CGGTGC'
p310
I2553
sS'TTCCTA'
p311
I22563
sS'TAGACT'
p312
I5980
sS'TTCCTC'
p313
I31091
sS'ACCACA'
p314
I15402
sS'TTCCTG'
p315
I43551
sS'TCCTTT'
p316
I17163
sS'CAGTTG'
p317
I12351
sS'TAGACG'
p318
I1817
sS'TTCCTT'
p319
I17306
sS'TAGACC'
p320
I5882
sS'TAGACA'
p321
I10486
sS'TCCTTG'
p322
I31066
sS'TCCTTA'
p323
I24786
sS'TCCTTC'
p324
I31702
sS'ATCTCT'
p325
I14660
sS'ACCGTT'
p326
I591
sS'TGGCGC'
p327
I2562
sS'TGGCGA'
p328
I1412
sS'TGGCGG'
p329
I3883
sS'ATCTCG'
p330
I3810
sS'ATCTCA'
p331
I21101
sS'ATCTCC'
p332
I16863
sS'GGCCAA'
p333
I9261
sS'GGCCAC'
p334
I9945
sS'ACCGTG'
p335
I3670
sS'ACCGTA'
p336
I1515
sS'GGCCAG'
p337
I16271
sS'ACCGTC'
p338
I1775
sS'ACCGAC'
p339
I1076
sS'AGAATT'
p340
I2450
sS'GGCAGT'
p341
I9124
sS'CCATAA'
p342
I1772
sS'CAAAGG'
p343
I10771
sS'CCATAC'
p344
I1102
sS'ACGCTC'
p345
I1369
sS'AGATTC'
p346
I3935
sS'CAAAGC'
p347
I7156
sS'CCATAG'
p348
I1579
sS'GGCAGA'
p349
I17216
sS'GGCAGC'
p350
I18900
sS'AACGTA'
p351
I2832
sS'GGCAGG'
p352
I30866
sS'CAACGC'
p353
I731
sS'CTAACA'
p354
I6726
sS'CAACGA'
p355
I533
sS'CTAACC'
p356
I5212
sS'CAACGG'
p357
I716
sS'GCACTG'
p358
I5737
sS'GGGGGT'
p359
I1519
sS'TACGCT'
p360
I1331
sS'AGATTG'
p361
I5184
sS'CGATCT'
p362
I448
sS'NNNNNC'
p363
I1
sS'CTCTAG'
p364
I14986
sS'CTCTAA'
p365
I15699
sS'CTCTAC'
p366
I12658
sS'GGGGGG'
p367
I3260
sS'TACGCA'
p368
I2204
sS'TACGCC'
p369
I2077
sS'GGGGGC'
p370
I3677
sS'CGATCG'
p371
I177
sS'GGGGGA'
p372
I3821
sS'TACGCG'
p373
I1021
sS'CTCTAT'
p374
I7161
sS'ACCGAA'
p375
I983
sS'CAGACC'
p376
I10717
sS'CAGACA'
p377
I15371
sS'CAGACG'
p378
I3606
sS'CGCTAA'
p379
I2019
sS'TAGTTG'
p380
I9495
sS'GCTAAT'
p381
I1873
sS'TAGTTC'
p382
I8142
sS'TAGTTA'
p383
I11247
sS'CAGACT'
p384
I7562
sS'GCTAAG'
p385
I5648
sS'TAGTTT'
p386
I5701
sS'GCTAAC'
p387
I2974
sS'GCTAAA'
p388
I4757
sS'CGAGTA'
p389
I685
sS'TGCATT'
p390
I8163
sS'GCGAAA'
p391
I641
sS'AACCCT'
p392
I9440
sS'AACCCC'
p393
I12479
sS'AACCCA'
p394
I14911
sS'AACCCG'
p395
I4570
sS'ATGCAC'
p396
I4214
sS'TGCATC'
p397
I9834
sS'AGATTT'
p398
I1946
sS'AGTTTG'
p399
I19045
sS'ACGTAC'
p400
I529
sS'AGTTTC'
p401
I15796
sS'AACTGC'
p402
I16240
sS'CCCAGA'
p403
I15684
sS'CCCAGC'
p404
I23420
sS'AGAATC'
p405
I4659
sS'CCCAGG'
p406
I28974
sS'AACTGT'
p407
I12823
sS'AGTTTT'
p408
I6844
sS'CTACAT'
p409
I949
sS'CAATTT'
p410
I1557
sS'CCCAGT'
p411
I8320
sS'TTGACG'
p412
I1679
sS'GTTACG'
p413
I1462
sS'ATACTG'
p414
I5087
sS'CGCATC'
p415
I2222
sS'ATACTA'
p416
I3770
sS'ATACTC'
p417
I2355
sS'CGCATG'
p418
I3345
sS'GCGCAA'
p419
I564
sS'GCGAAT'
p420
I235
sS'ATACTT'
p421
I1464
sS'CGCATT'
p422
I990
sS'GCGCAC'
p423
I1029
sS'GCTCCG'
p424
I4004
sS'TATTGT'
p425
I11447
sS'GCTCCC'
p426
I9093
sS'GCTCCA'
p427
I7475
sS'CCTACT'
p428
I3974
sS'TGTACT'
p429
I6438
sS'TTTAGT'
p430
I6199
sS'TATTGG'
p431
I10144
sS'GCTCCT'
p432
I4588
sS'AGGCCG'
p433
I5767
sS'TATTGA'
p434
I12601
sS'TTTAGG'
p435
I9393
sS'TGTACG'
p436
I1657
sS'CCTACG'
p437
I1484
sS'TGTACA'
p438
I10229
sS'TTTAGC'
p439
I6597
sS'TGTACC'
p440
I6447
sS'TTTAGA'
p441
I10496
sS'TTCGCG'
p442
I1466
sS'TTCGCA'
p443
I2195
sS'TTCGCC'
p444
I3438
sS'CGTACA'
p445
I1363
sS'GACTAA'
p446
I15313
sS'AGTATA'
p447
I8352
sS'TTTGGG'
p448
I9513
sS'AGTATG'
p449
I8906
sS'TTTGGA'
p450
I7335
sS'GACTAG'
p451
I10186
sS'TTCGCT'
p452
I1978
sS'TTTGGT'
p453
I3238
sS'GACTAT'
p454
I6655
sS'AGTATT'
p455
I3978
sS'TTACTC'
p456
I4764
sS'TTACTA'
p457
I5821
sS'TTACTG'
p458
I7870
sS'ACCTTG'
p459
I19085
sS'ACCTTC'
p460
I14308
sS'ACCTTA'
p461
I13542
sS'CTAATA'
p462
I7231
sS'TTACTT'
p463
I2235
sS'ACGCTT'
p464
I468
sS'ACCTTT'
p465
I7170
sS'ACAGGG'
p466
I3435
sS'CTGGGA'
p467
I11505
sS'CTGGGC'
p468
I10468
sS'ACAGGC'
p469
I2444
sS'TTATAT'
p470
I3183
sS'CTGGGG'
p471
I13092
sS'AGGACG'
p472
I4015
sS'GCAGCT'
p473
I2858
sS'CAGGAA'
p474
I11354
sS'TCGCTT'
p475
I562
sS'CAGGAG'
p476
I13413
sS'AGGACA'
p477
I14299
sS'GCGCAT'
p478
I285
sS'TTATAC'
p479
I2700
sS'ACAGGT'
p480
I928
sS'CTGGGT'
p481
I4155
sS'TTATAG'
p482
I3958
sS'TCGCTG'
p483
I2777
sS'GCAGCG'
p484
I1906
sS'AGGACT'
p485
I7907
sS'TCGCTC'
p486
I1914
sS'GCAGCC'
p487
I7137
sS'CAGGAT'
p488
I2553
sS'CCTCAG'
p489
I10334
sS'CCTCAA'
p490
I5379
sS'CCTCAC'
p491
I6009
sS'TATGTT'
p492
I5837
sS'ATGGGC'
p493
I3057
sS'TCTTTG'
p494
I25008
sS'ATGGGA'
p495
I4670
sS'TCTTTA'
p496
I22382
sS'ATGGGG'
p497
I6016
sS'TCTTTC'
p498
I20830
sS'CCTCAT'
p499
I2293
sS'TCTTTT'
p500
I9173
sS'TATGTG'
p501
I17497
sS'TATGTA'
p502
I16925
sS'ATGGGT'
p503
I1575
sS'TATGTC'
p504
I8236
sS'GAAAGA'
p505
I15807
sS'ATCAAG'
p506
I10096
sS'GAAAGC'
p507
I9932
sS'ATCAAC'
p508
I6700
sS'GAAAGG'
p509
I18031
sS'ATCAAA'
p510
I11772
sS'GGAACT'
p511
I3261
sS'GTCAGG'
p512
I18802
sS'ACGTGG'
p513
I2650
sS'CTATTC'
p514
I5815
sS'CATGAG'
p515
I12010
sS'ATCAAT'
p516
I3829
sS'TCAAAC'
p517
I2599
sS'CATGAC'
p518
I8491
sS'CATGAA'
p519
I9089
sS'GTAGCG'
p520
I928
sS'CAAGTT'
p521
I1445
sS'GCTTTG'
p522
I19941
sS'GCTTTA'
p523
I14410
sS'GCTTTC'
p524
I13372
sS'AAAGTA'
p525
I8739
sS'GCGGCG'
p526
I3489
sS'CAAGTG'
p527
I7443
sS'GTAGCT'
p528
I2686
sS'GCGGCC'
p529
I6275
sS'CAAGTC'
p530
I4075
sS'GCGGCA'
p531
I2636
sS'CAAGTA'
p532
I5386
sS'AACGGT'
p533
I1185
sS'GGGGAA'
p534
I4347
sS'TAATCG'
p535
I907
sS'GGTCTT'
p536
I2412
sS'TAATCA'
p537
I8209
sS'TAATCC'
p538
I8075
sS'CTAAGC'
p539
I3978
sS'CGGCCC'
p540
I7739
sS'CGACTA'
p541
I443
sS'CGGCCA'
p542
I3901
sS'CGCTAT'
p543
I931
sS'CGGCCG'
p544
I3674
sS'TCGTGA'
p545
I938
sS'ATGAAG'
p546
I8259
sS'GGTCTG'
p547
I11408
sS'TAATCT'
p548
I4960
sS'GGTCTC'
p549
I9009
sS'GGTCTA'
p550
I4851
sS'AAAATG'
p551
I14662
sS'AAAATC'
p552
I5289
sS'CGGCCT'
p553
I3187
sS'TTCAGC'
p554
I16319
sS'TTCAGA'
p555
I20506
sS'TTCAGG'
p556
I21427
sS'GAACAT'
p557
I1377
sS'TCGTCG'
p558
I544
sS'TGTTTT'
p559
I14351
sS'GAACAA'
p560
I3975
sS'ATCCCG'
p561
I2994
sS'GAACAC'
p562
I3043
sS'ATCCCC'
p563
I8751
sS'GAACAG'
p564
I4893
sS'ATCCCA'
p565
I11740
sS'GCACTT'
p566
I1066
sS'ATTGCA'
p567
I6907
sS'CACCAC'
p568
I13366
sS'NNNCTG'
p569
I1
sS'CACCAA'
p570
I9987
sS'CACCAG'
p571
I14436
sS'TCCGTG'
p572
I4504
sS'ATTGCG'
p573
I1153
sS'AGGCGT'
p574
I1824
sS'TCCGTC'
p575
I3188
sS'GAGTTA'
p576
I12837
sS'TCCGTA'
p577
I1859
sS'ACCAGA'
p578
I9051
sS'ACGCGA'
p579
I444
sS'CACCAT'
p580
I5093
sS'AACATG'
p581
I21120
sS'AACATA'
p582
I19996
sS'AACATC'
p583
I12761
sS'GTCAGC'
p584
I13134
sS'GCACGG'
p585
I1023
sS'GTCAGA'
p586
I14490
sS'GCACGA'
p587
I418
sS'CAGTCC'
p588
I14136
sS'GCACGC'
p589
I866
sS'GCAAGT'
p590
I2030
sS'AACAAC'
p591
I14363
sS'GCAAGC'
p592
I2725
sS'GCACGT'
p593
I444
sS'CAGTCT'
p594
I10067
sS'GCAAGG'
p595
I5517
sS'GTCAGT'
p596
I8638
sS'GTATAC'
p597
I2062
sS'TTCCGT'
p598
I2095
sS'GTATAA'
p599
I3118
sS'GTATAG'
p600
I2305
sS'CCGGAA'
p601
I1131
sS'CCGGAC'
p602
I831
sS'CCGGAG'
p603
I1716
sS'CGTCTT'
p604
I1161
sS'TGACGT'
p605
I583
sS'TTCCGG'
p606
I5969
sS'TTCCGA'
p607
I2454
sS'TTCCGC'
p608
I4372
sS'GTATAT'
p609
I2323
sS'CGTCTC'
p610
I4967
sS'CGTCTA'
p611
I1942
sS'CGTCTG'
p612
I4958
sS'CCGGAT'
p613
I245
sS'CTCTTC'
p614
I34375
sS'TGTTAT'
p615
I6849
sS'CTCTTA'
p616
I25152
sS'CTCTTG'
p617
I31885
sS'CCCGAT'
p618
I477
sS'TACGTA'
p619
I2946
sS'TACGTC'
p620
I1901
sS'TCTGGT'
p621
I2404
sS'CGCGAT'
p622
I483
sS'TACGTG'
p623
I3921
sS'TGTTAG'
p624
I9597
sS'GCTGTT'
p625
I2490
sS'TGTTAC'
p626
I7958
sS'CTCTTT'
p627
I18850
sS'TGTTAA'
p628
I12061
sS'CGCGAA'
p629
I1149
sS'CGCGAC'
p630
I1683
sS'GATATT'
p631
I4901
sS'TCTGGC'
p632
I5831
sS'TACGTT'
p633
I1320
sS'CGCGAG'
p634
I3455
sS'AGTCGT'
p635
I1035
sS'TTACCT'
p636
I2190
sS'CTCCAT'
p637
I5550
sS'TTACCG'
p638
I596
sS'CTCCAC'
p639
I14602
sS'AGTCGG'
p640
I2805
sS'TTACCC'
p641
I2881
sS'CTCCAG'
p642
I23549
sS'TTACCA'
p643
I3542
sS'AGTCGC'
p644
I2275
sS'GTACCG'
p645
I515
sS'CCGACT'
p646
I851
sS'GCCTAC'
p647
I5953
sS'AATGCA'
p648
I17404
sS'GCCTAG'
p649
I9410
sS'CCGACA'
p650
I1057
sS'GATATC'
p651
I6097
sS'CCGACC'
p652
I2036
sS'CCGACG'
p653
I778
sS'AACTCA'
p654
I22043
sS'GCCTAT'
p655
I3478
sS'AAGCTA'
p656
I11394
sS'CCCGAG'
p657
I4576
sS'CTCGTT'
p658
I1176
sS'CTAAGT'
p659
I3145
sS'CCCGAA'
p660
I1637
sS'CGCACA'
p661
I4348
sS'ATACAC'
p662
I1740
sS'CGCACC'
p663
I5955
sS'ATACAA'
p664
I2335
sS'ACTGCT'
p665
I3831
sS'ATACAG'
p666
I2363
sS'CGCACG'
p667
I3041
sS'GGGTCC'
p668
I7785
sS'GAGCGT'
p669
I1889
sS'CTCACT'
p670
I18244
sS'GGGTCT'
p671
I4625
sS'ACTGCA'
p672
I9957
sS'TTTGTC'
p673
I9212
sS'ACTGCC'
p674
I7450
sS'CGCACT'
p675
I2774
sS'TTTGTG'
p676
I17175
sS'ACTGCG'
p677
I2464
sS'CTCACC'
p678
I23142
sS'CTCACA'
p679
I22358
sS'CTCACG'
p680
I6510
sS'TAGTGG'
p681
I8941
sS'GTGAGG'
p682
I13381
sS'GATTTT'
p683
I8334
sS'TAGTGC'
p684
I5816
sS'GTGAGC'
p685
I9438
sS'TAGTGA'
p686
I8731
sS'GTGAGA'
p687
I8871
sS'TCGACG'
p688
I351
sS'TCGACA'
p689
I682
sS'TCGACC'
p690
I886
sS'GATTTG'
p691
I21376
sS'GTGAGT'
p692
I6927
sS'TAGTGT'
p693
I6164
sS'GTGGGA'
p694
I7618
sS'GTGGGC'
p695
I5402
sS'TCGACT'
p696
I466
sS'GTGGGN'
p697
I1
sS'CTGGTT'
p698
I2769
sS'TTGAGT'
p699
I4928
sS'TCAAAA'
p700
I3844
sS'CGAACG'
p701
I436
sS'CGAACC'
p702
I1176
sS'CGAACA'
p703
I848
sS'CTGGTG'
p704
I13405
sS'CTGGTA'
p705
I7390
sS'CTGGTC'
p706
I7680
sS'CTGCAA'
p707
I7693
sS'CGAACT'
p708
I651
sS'TTGCAT'
p709
I4006
sS'GACGAG'
p710
I3874
sS'NNGAAT'
p711
I1
sS'GCGGAA'
p712
I1026
sS'TTGCAG'
p713
I9985
sS'ACTCCT'
p714
I3642
sS'TTGCAC'
p715
I5545
sS'TTGCAA'
p716
I7073
sS'AAGATC'
p717
I7060
sS'TCCATC'
p718
I11352
sS'TCGCAT'
p719
I173
sS'GTCGTG'
p720
I2857
sS'ATTGTT'
p721
I2613
sS'GTCGTA'
p722
I1387
sS'GTCGTC'
p723
I1941
sS'CCGTTT'
p724
I718
sS'ACTGAT'
p725
I1694
sS'ATATCG'
p726
I749
sS'GTCGTT'
p727
I751
sS'TCAGAT'
p728
I1076
sS'TCGCAG'
p729
I975
sS'TCCATG'
p730
I16374
sS'TCGCAC'
p731
I487
sS'CCGTTG'
p732
I1837
sS'CCGTTA'
p733
I1289
sS'CCGTTC'
p734
I1723
sS'AATGCT'
p735
I9599
sS'GGTACG'
p736
I1051
sS'GGTACA'
p737
I4714
sS'GGTACC'
p738
I3509
sS'TATTTG'
p739
I32547
sS'CAGGGA'
p740
I11406
sS'TATTTC'
p741
I26018
sS'TATTTA'
p742
I43468
sS'CCCCCT'
p743
I5068
sS'GGTACT'
p744
I2807
sS'AATGCG'
p745
I2551
sS'AATCTT'
p746
I5970
sS'AATGCC'
p747
I12946
sS'GCCGTG'
p748
I5592
sS'CCCCCC'
p749
I5395
sS'CCCCCA'
p750
I10474
sS'TATTTT'
p751
I19070
sS'CCCCCG'
p752
I5011
sS'GAGCGA'
p753
I3774
sS'CTTGAG'
p754
I8787
sS'ATGATG'
p755
I10979
sS'ATGATA'
p756
I8128
sS'CTTGAA'
p757
I7234
sS'TGCAAC'
p758
I9490
sS'TGCAAA'
p759
I15840
sS'TGCAAG'
p760
I13195
sS'GCCGTC'
p761
I3223
sS'ATGATT'
p762
I3204
sS'CTTGAT'
p763
I2094
sS'ACGGGA'
p764
I1017
sS'CGAATC'
p765
I553
sS'TTGAGG'
p766
I10036
sS'AATCTC'
p767
I12206
sS'CAATGT'
p768
I2698
sS'TTGAGC'
p769
I6293
sS'TGCAAT'
p770
I7227
sS'GAGAAT'
p771
I6620
sS'TGTCTT'
p772
I6535
sS'CGAATA'
p773
I663
sS'ACTGAG'
p774
I7097
sS'AAGGCC'
p775
I16053
sS'ATAACC'
p776
I4469
sS'AAGGCA'
p777
I20190
sS'ATAACA'
p778
I7706
sS'AAGGCG'
p779
I5330
sS'TCCAGA'
p780
I15067
sS'ACTCCA'
p781
I6696
sS'TGTCTG'
p782
I22146
sS'GAGAAG'
p783
I22804
sS'GAGAAA'
p784
I20811
sS'TGTCTC'
p785
I17890
sS'GAGAAC'
p786
I10903
sS'TGTCTA'
p787
I11613
sS'TGTGGC'
p788
I8594
sS'TGTGGA'
p789
I7748
sS'TGTGGG'
p790
I11629
sS'ATAACT'
p791
I3782
sS'ACTGAC'
p792
I4371
sS'CTGTAA'
p793
I8624
sS'GCCCCG'
p794
I11109
sS'ACCAAG'
p795
I9082
sS'GGTCAG'
p796
I8887
sS'GCCCCC'
p797
I12519
sS'GGTCAA'
p798
I4494
sS'GCCCCA'
p799
I15932
sS'GGTCAC'
p800
I6170
sS'AACAAT'
p801
I10377
sS'ACGCCT'
p802
I1112
sS'GGTCAT'
p803
I2363
sS'CGTGCC'
p804
I3567
sS'GCCCCT'
p805
I8161
sS'AGGTAA'
p806
I4828
sS'CAAACT'
p807
I4379
sS'TTTTGC'
p808
I12039
sS'TCTTAC'
p809
I5827
sS'AATTGG'
p810
I9206
sS'TCTTAA'
p811
I9548
sS'AATTGA'
p812
I10393
sS'AAGCAC'
p813
I8613
sS'AATTGC'
p814
I10008
sS'TAGCCA'
p815
I9438
sS'TGGGGT'
p816
I2814
sS'TAGCCC'
p817
I6802
sS'GATAAT'
p818
I6218
sS'CGCTCA'
p819
I5427
sS'CGCTCC'
p820
I11479
sS'AATTGT'
p821
I8161
sS'CGATCC'
p822
I821
sS'GCCATC'
p823
I8800
sS'TCTTAT'
p824
I4104
sS'GTTATG'
p825
I8324
sS'CGCTCT'
p826
I5106
sS'TGGGGG'
p827
I7238
sS'GATAAC'
p828
I7902
sS'TAGCCT'
p829
I5528
sS'TGGGGC'
p830
I6626
sS'GATAAG'
p831
I13321
sS'GATCCT'
p832
I7033
sS'AAGAAT'
p833
I7226
sS'CGAAGT'
p834
I601
sS'GTTATC'
p835
I5083
sS'AAGAAC'
p836
I9833
sS'GATCCA'
p837
I9733
sS'AAGAAA'
p838
I22643
sS'GATCCC'
p839
I9345
sS'AAGAAG'
p840
I17605
sS'GATCCG'
p841
I3431
sS'TATTAA'
p842
I17923
sS'AAGCAT'
p843
I4557
sS'CAAGGG'
p844
I4814
sS'ATCGAG'
p845
I1130
sS'CAAGGC'
p846
I3914
sS'GGTTCT'
p847
I6278
sS'CAAGGA'
p848
I4217
sS'GGTTCA'
p849
I9134
sS'GGTTCC'
p850
I9811
sS'CAAGGT'
p851
I1582
sS'GGTTCG'
p852
I2257
sS'TAGGCA'
p853
I11051
sS'ATTATA'
p854
I10039
sS'ATTATC'
p855
I5480
sS'TAGAAT'
p856
I4596
sS'CAAACG'
p857
I1580
sS'ATTATG'
p858
I9048
sS'AGTCTT'
p859
I4821
sS'TCCCAA'
p860
I10661
sS'TAGAAA'
p861
I11908
sS'TAGAAC'
p862
I5903
sS'ATTATT'
p863
I3627
sS'TAGAAG'
p864
I10540
sS'AGTCTA'
p865
I9019
sS'AGTCTC'
p866
I12524
sS'AGTCTG'
p867
I16339
sS'TAACTC'
p868
I3948
sS'CGAGTC'
p869
I917
sS'TAACTA'
p870
I5241
sS'TAACTG'
p871
I6960
sS'ATCTAT'
p872
I4812
sS'AGGTAT'
p873
I2511
sS'TAACTT'
p874
I1826
sS'ATCTAG'
p875
I8563
sS'ATCTAC'
p876
I6958
sS'ATCTAA'
p877
I10989
sS'CATAGC'
p878
I7269
sS'CCATGT'
p879
I2957
sS'ACCAAA'
p880
I8425
sS'TGGAGG'
p881
I15479
sS'TGGAGA'
p882
I10865
sS'TGGAGC'
p883
I8426
sS'CCATGC'
p884
I2966
sS'CCATGA'
p885
I2856
sS'CGTGCT'
p886
I1571
sS'TGGAGT'
p887
I5889
sS'ATTACG'
p888
I1322
sS'TCAGTA'
p889
I4549
sS'TCAGTC'
p890
I3064
sS'CTCTCT'
p891
I29112
sS'GGGGAT'
p892
I1150
sS'TCAGTG'
p893
I7175
sS'CGATAT'
p894
I120
sS'CTCTCG'
p895
I7344
sS'GGGGAC'
p896
I3363
sS'CTCTCC'
p897
I39623
sS'TCAGTT'
p898
I1405
sS'CTCTCA'
p899
I27005
sS'CGATAG'
p900
I245
sS'CGATAA'
p901
I236
sS'TATCAA'
p902
I9944
sS'CTAAGG'
p903
I6416
sS'GTGTTT'
p904
I8863
sS'GCTACT'
p905
I3891
sS'GTGGTT'
p906
I3051
sS'GTGTTC'
p907
I10932
sS'GTGTTA'
p908
I12182
sS'GTGTTG'
p909
I14926
sS'ACCAAT'
p910
I3446
sS'GTGGTA'
p911
I7350
sS'GCTACA'
p912
I4995
sS'GTGGTC'
p913
I4916
sS'GCTACC'
p914
I4250
sS'GTGGTG'
p915
I15088
sS'GCTACG'
p916
I1400
sS'AGGTAG'
p917
I4909
sS'TTTCGT'
p918
I953
sS'TGCCCT'
p919
I12617
sS'AGCGTT'
p920
I1293
sS'CGTGCG'
p921
I2061
sS'TGCCCC'
p922
I16136
sS'TGCCCA'
p923
I17851
sS'TGCCCG'
p924
I6196
sS'AAATGC'
p925
I6738
sS'AGCGTA'
p926
I1834
sS'AGCGTC'
p927
I3600
sS'AGCGTG'
p928
I5142
sS'GGCCCC'
p929
I15808
sS'GGCCCA'
p930
I12056
sS'CACGTG'
p931
I8820
sS'GGCCCG'
p932
I7636
sS'CACGTA'
p933
I3477
sS'CACGTC'
p934
I4060
sS'ACGTGC'
p935
I1630
sS'ACGTGA'
p936
I1816
sS'CTACGG'
p937
I801
sS'ACAGTC'
p938
I2732
sS'CACGTT'
p939
I1668
sS'TTCACG'
p940
I4451
sS'GGCCCT'
p941
I8179
sS'GGGACA'
p942
I9674
sS'TTTTGG'
p943
I12934
sS'GGGACC'
p944
I8938
sS'GTCTCA'
p945
I24858
sS'GGGACG'
p946
I4074
sS'TCTTAG'
p947
I7706
sS'AGAGAG'
p948
I6372
sS'AGAGAA'
p949
I4596
sS'AGAGAC'
p950
I3509
sS'TCTATA'
p951
I7147
sS'GTCTTT'
p952
I12670
sS'TCTATC'
p953
I4422
sS'TCTATG'
p954
I8091
sS'AGAGAT'
p955
I1593
sS'TCGTGC'
p956
I1165
sS'GTCTTG'
p957
I23558
sS'TCTATT'
p958
I2936
sS'GTCTTC'
p959
I19813
sS'GTCTTA'
p960
I17576
sS'GCAGAG'
p961
I3918
sS'GCTCAA'
p962
I5010
sS'GCTCAC'
p963
I5603
sS'GCAGAC'
p964
I1480
sS'GCAGAA'
p965
I2013
sS'GCTCAG'
p966
I9727
sS'AGACGT'
p967
I477
sS'ATGCGT'
p968
I593
sS'TTGCTG'
p969
I22820
sS'TTGCTA'
p970
I13048
sS'TTGCTC'
p971
I14704
sS'GCAGAT'
p972
I815
sS'GCTCAT'
p973
I1928
sS'CGAATT'
p974
I199
sS'GTTTGC'
p975
I9446
sS'TTGCTT'
p976
I9615
sS'ATGCGG'
p977
I1283
sS'TAGCCG'
p978
I2104
sS'ATGCGC'
p979
I1076
sS'ATGCGA'
p980
I690
sS'TGTAAG'
p981
I10448
sS'GGCTAG'
p982
I8077
sS'TGTAAC'
p983
I8093
sS'GGCTAC'
p984
I6393
sS'TGTAAA'
p985
I14214
sS'GGCTAA'
p986
I8912
sS'TTCGAG'
p987
I2121
sS'TTGGTA'
p988
I7049
sS'ACTGTC'
p989
I5341
sS'TTGGTC'
p990
I5089
sS'TTCGAC'
p991
I1071
sS'TTCGAA'
p992
I1451
sS'GTACGC'
p993
I414
sS'GACTGC'
p994
I17012
sS'GGCTAT'
p995
I3508
sS'GACTGA'
p996
I19056
sS'GACTGG'
p997
I21977
sS'TGTGGT'
p998
I4817
sS'TTGGTT'
p999
I2749
sS'ACTGTT'
p1000
I2372
sS'GTTTCT'
p1001
I11242
sS'TTTTGT'
p1002
I12385
sS'CCTTTT'
p1003
I6890
sS'GTTTCG'
p1004
I2858
sS'GTTTCC'
p1005
I16337
sS'GTTTCA'
p1006
I16359
sS'ATAATG'
p1007
I7894
sS'CCTTTA'
p1008
I17146
sS'CCTTTC'
p1009
I18404
sS'ATAATC'
p1010
I3603
sS'ATAATA'
p1011
I9498
sS'CCTTTG'
p1012
I21986
sS'ACAGAA'
p1013
I2459
sS'ACAGAC'
p1014
I1738
sS'ACAGAG'
p1015
I3671
sS'TTATCT'
p1016
I8604
sS'CTGGAC'
p1017
I4421
sS'CTGGAA'
p1018
I6438
sS'CTGGAG'
p1019
I9968
sS'ATATAA'
p1020
I4193
sS'CGATTT'
p1021
I216
sS'ACAGAT'
p1022
I1071
sS'CAAAGT'
p1023
I4176
sS'TGGGGA'
p1024
I6958
sS'TTATCA'
p1025
I9614
sS'CTGGAT'
p1026
I1774
sS'TTATCC'
p1027
I6305
sS'CCAATG'
p1028
I5062
sS'AAACCG'
p1029
I1058
sS'AAACCA'
p1030
I6095
sS'CCAATC'
p1031
I2920
sS'AAACCC'
p1032
I4740
sS'CCAATA'
p1033
I3771
sS'TGTCGG'
p1034
I2145
sS'GAGATC'
p1035
I8310
sS'AACGAG'
p1036
I2635
sS'GAGATA'
p1037
I13589
sS'TGTCGC'
p1038
I2129
sS'GAGATG'
p1039
I19533
sS'AACGAC'
p1040
I1630
sS'ATTTGA'
p1041
I10633
sS'CCAATT'
p1042
I997
sS'ATTTGC'
p1043
I8538
sS'GTCGAT'
p1044
I387
sS'ATTTGG'
p1045
I9380
sS'CCCTAG'
p1046
I8446
sS'TGTCGT'
p1047
I1074
sS'CCCTAC'
p1048
I6710
sS'GAGATT'
p1049
I4433
sS'CCCTAA'
p1050
I8346
sS'CATTAT'
p1051
I7070
sS'CTACAC'
p1052
I1509
sS'ACTTCA'
p1053
I11151
sS'ATCACA'
p1054
I15883
sS'ATCACC'
p1055
I11565
sS'CATGCT'
p1056
I7472
sS'TGACAC'
p1057
I1609
sS'ATCACG'
p1058
I3339
sS'TGGATA'
p1059
I6941
sS'CATTAG'
p1060
I10652
sS'CATTAA'
p1061
I14122
sS'TGGATG'
p1062
I10096
sS'CATGCA'
p1063
I12895
sS'TGACAT'
p1064
I1173
sS'CATGCC'
p1065
I13281
sS'ATCACT'
p1066
I10266
sS'CATGCG'
p1067
I2989
sS'GTAGAA'
p1068
I2093
sS'GTAGAC'
p1069
I1394
sS'GTAGAG'
p1070
I2862
sS'GATTGG'
p1071
I11877
sS'ACAACC'
p1072
I3682
sS'GCATGA'
p1073
I3327
sS'GATTGC'
p1074
I9922
sS'GATTGA'
p1075
I9608
sS'ACTAAG'
p1076
I5724
sS'GTAGAT'
p1077
I869
sS'TGCTAC'
p1078
I9127
sS'TTGCCT'
p1079
I11585
sS'TGATGC'
p1080
I2586
sS'GATTGT'
p1081
I7700
sS'ACAACT'
p1082
I2492
sS'AGGATT'
p1083
I3245
sS'GGGTAA'
p1084
I2924
sS'TAATAG'
p1085
I4216
sS'GTCCGG'
p1086
I4401
sS'TAATAC'
p1087
I3537
sS'GTCCGA'
p1088
I1900
sS'TAATAA'
p1089
I6156
sS'GTCCGC'
p1090
I3858
sS'TGCCAT'
p1091
I4978
sS'ACTCTT'
p1092
I2672
sS'GTCCGT'
p1093
I1450
sS'TAATAT'
p1094
I2843
sS'ATTCGC'
p1095
I801
sS'TTCTCC'
p1096
I35500
sS'ATTCGA'
p1097
I898
sS'TTCTCA'
p1098
I34616
sS'ATTCGG'
p1099
I1105
sS'TTCTCG'
p1100
I5864
sS'TCGTAC'
p1101
I302
sS'TACCTT'
p1102
I6829
sS'TCGTAA'
p1103
I545
sS'TCGTAG'
p1104
I555
sS'TCGTCA'
p1105
I1396
sS'CAGCTA'
p1106
I12652
sS'ATCCAA'
p1107
I6605
sS'ATCCAC'
p1108
I6286
sS'TGAACC'
p1109
I5392
sS'TTCTCT'
p1110
I31105
sS'ATTCGT'
p1111
I524
sS'GAACCC'
p1112
I4310
sS'GAACCA'
p1113
I4522
sS'TACCTA'
p1114
I12052
sS'TACCTC'
p1115
I11873
sS'TCGTAT'
p1116
I273
sS'ATGTTA'
p1117
I13716
sS'ACCATA'
p1118
I8153
sS'ACCATG'
p1119
I13205
sS'ATGTTG'
p1120
I13730
sS'AGCTCT'
p1121
I18754
sS'TGTCCT'
p1122
I7475
sS'AGTGGT'
p1123
I3394
sS'CGTGGT'
p1124
I1337
sS'ATGAGC'
p1125
I5748
sS'ATGTTT'
p1126
I6750
sS'ACCATT'
p1127
I3432
sS'AGCTCG'
p1128
I5545
sS'AGTGGC'
p1129
I7518
sS'AGCTCC'
p1130
I26919
sS'AGCTCA'
p1131
I25027
sS'TAAGAG'
p1132
I5065
sS'CAGTAA'
p1133
I7502
sS'CAGTAC'
p1134
I4428
sS'CAGTAG'
p1135
I6748
sS'GTTAAT'
p1136
I3075
sS'CGCGGT'
p1137
I1327
sS'TTTCAC'
p1138
I9629
sS'CAGTAT'
p1139
I3315
sS'ATTAGT'
p1140
I3449
sS'AAAGTC'
p1141
I5096
sS'AAAGTG'
p1142
I11707
sS'GATCTA'
p1143
I8612
sS'GATCTC'
p1144
I11728
sS'ATTGAC'
p1145
I3025
sS'GATCTG'
p1146
I16647
sS'TCCCTT'
p1147
I8080
sS'CCGGCC'
p1148
I6282
sS'CCGGCA'
p1149
I2257
sS'CCGGCG'
p1150
I2016
sS'CACATT'
p1151
I9335
sS'GTTCCC'
p1152
I7859
sS'TCCCTC'
p1153
I22800
sS'GAGCTT'
p1154
I5706
sS'TCCCTA'
p1155
I13307
sS'TGCCAC'
p1156
I11938
sS'TCCCTG'
p1157
I29711
sS'GATCTT'
p1158
I5543
sS'CTAGAC'
p1159
I1624
sS'ATAGAA'
p1160
I2295
sS'AAGTGA'
p1161
I14974
sS'AAGTGC'
p1162
I11556
sS'TGTTCT'
p1163
I13046
sS'AAGTGG'
p1164
I12835
sS'TGATTG'
p1165
I5889
sS'TCTGAT'
p1166
I2343
sS'TGTATT'
p1167
I5354
sS'TGATTA'
p1168
I6370
sS'TGTTCA'
p1169
I16597
sS'CACAAG'
p1170
I15176
sS'TGTTCC'
p1171
I15286
sS'CACAAA'
p1172
I17620
sS'CACAAC'
p1173
I10355
sS'TGTTCG'
p1174
I2568
sS'TCTGAA'
p1175
I6250
sS'TCTGAC'
p1176
I5941
sS'TCTGAG'
p1177
I9679
sS'CGCGCC'
p1178
I10109
sS'CGCGCA'
p1179
I4172
sS'GGTAAA'
p1180
I6277
sS'CGCGCG'
p1181
I6298
sS'CTCCCT'
p1182
I20469
sS'AGCGGG'
p1183
I6420
sS'AGCGGA'
p1184
I3061
sS'AGCGGC'
p1185
I5220
sS'AGATGA'
p1186
I4876
sS'GAAATA'
p1187
I13788
sS'CGCGCT'
p1188
I3264
sS'ACCTCC'
p1189
I18061
sS'GTGCGC'
p1190
I2640
sS'CTCCCA'
p1191
I30629
sS'CTCCCC'
p1192
I28624
sS'GCCTCT'
p1193
I16588
sS'TAAGCC'
p1194
I5963
sS'CGGGAG'
p1195
I3853
sS'CCCATG'
p1196
I13484
sS'CGGGAA'
p1197
I1697
sS'CCCATA'
p1198
I8367
sS'TAGCTG'
p1199
I15022
sS'CCCATC'
p1200
I10517
sS'CCGAGA'
p1201
I1480
sS'CCTGCT'
p1202
I5794
sS'CCGAAT'
p1203
I222
sS'CCCATT'
p1204
I4331
sS'CGGGAT'
p1205
I442
sS'GCCTCG'
p1206
I9555
sS'GCCTCA'
p1207
I21839
sS'TAAGCT'
p1208
I3224
sS'GCCTCC'
p1209
I36510
sS'CCGAAC'
p1210
I584
sS'CCTGCG'
p1211
I4222
sS'CCGAAA'
p1212
I570
sS'CCGAAG'
p1213
I1302
sS'CCTGCC'
p1214
I16064
sS'CCTGCA'
p1215
I9973
sS'CGACAC'
p1216
I274
sS'CCATTC'
p1217
I4687
sS'TATAAG'
p1218
I9811
sS'TATAAA'
p1219
I19124
sS'TATAAC'
p1220
I7585
sS'TAACGA'
p1221
I591
sS'TATAAT'
p1222
I7697
sS'GTCGAA'
p1223
I929
sS'GTTCTA'
p1224
I8601
sS'CCATTT'
p1225
I2304
sS'TCTACA'
p1226
I6784
sS'TCTACC'
p1227
I6148
sS'CTAACT'
p1228
I3616
sS'TCTACG'
p1229
I1319
sS'ACTTTC'
p1230
I10442
sS'CGCAAC'
p1231
I1858
sS'CGCAAA'
p1232
I2088
sS'ATACCG'
p1233
I418
sS'GACGCG'
p1234
I4494
sS'ATACCA'
p1235
I2960
sS'ATACCC'
p1236
I1654
sS'TCTACT'
p1237
I4739
sS'CCGAGT'
p1238
I727
sS'ATACCT'
p1239
I1519
sS'CGCAAT'
p1240
I915
sS'AAACTG'
p1241
I9269
sS'ATTTCT'
p1242
I9406
sS'TAGTAC'
p1243
I3703
sS'CTCAAG'
p1244
I17885
sS'CTCAAA'
p1245
I18586
sS'TAGTAG'
p1246
I6371
sS'CTCAAC'
p1247
I9846
sS'GTGTGC'
p1248
I10187
sS'GTGTGA'
p1249
I11676
sS'GTGTGG'
p1250
I16877
sS'CTCAAT'
p1251
I5662
sS'TAGTAT'
p1252
I3612
sS'GTGTGT'
p1253
I15145
sS'ATCTTT'
p1254
I10648
sS'GTTGGG'
p1255
I6841
sS'GTTGGA'
p1256
I4267
sS'GTTGGC'
p1257
I4350
sS'CCTTGG'
p1258
I12823
sS'CCTTGA'
p1259
I8443
sS'GCGTAT'
p1260
I288
sS'CCTTGC'
p1261
I8766
sS'GGACGT'
p1262
I320
sS'GTTGGT'
p1263
I2123
sS'ATCTTG'
p1264
I22776
sS'ATCTTA'
p1265
I20615
sS'ATCTTC'
p1266
I17090
sS'CCTTGT'
p1267
I5478
sS'AGGATA'
p1268
I8287
sS'AAACTA'
p1269
I6552
sS'AGGATG'
p1270
I13393
sS'GACATG'
p1271
I17278
sS'GACATC'
p1272
I11661
sS'GACATA'
p1273
I13762
sS'TCGGCG'
p1274
I1059
sS'GAATAT'
p1275
I2198
sS'GGTGCA'
p1276
I6110
sS'TCGGCC'
p1277
I3335
sS'TCGGCA'
p1278
I1305
sS'TTGCGA'
p1279
I858
sS'GACATT'
p1280
I9172
sS'TTGCGG'
p1281
I1642
sS'GAATAG'
p1282
I3635
sS'TCGGCT'
p1283
I991
sS'ATCAGC'
p1284
I9452
sS'GAATAC'
p1285
I2948
sS'GAATAA'
p1286
I5145
sS'ACTTTT'
p1287
I4571
sS'CGACAG'
p1288
I527
sS'GGACGA'
p1289
I429
sS'AAAATT'
p1290
I2525
sS'TGCCTC'
p1291
I22883
sS'GGACGC'
p1292
I848
sS'TTATAA'
p1293
I4923
sS'GAAATG'
p1294
I17109
sS'AATGAT'
p1295
I5139
sS'TGCCTA'
p1296
I14390
sS'GAAATC'
p1297
I6490
sS'GAAATT'
p1298
I2506
sS'AATGAA'
p1299
I16443
sS'ATGTCC'
p1300
I9460
sS'AATGAC'
p1301
I12065
sS'AATGAG'
p1302
I16010
sS'TCAGCA'
p1303
I5331
sS'GCGTAC'
p1304
I401
sS'TGCACT'
p1305
I12485
sS'CTTGGC'
p1306
I7502
sS'GTTTTC'
p1307
I17308
sS'CTTGGG'
p1308
I9879
sS'AGCCCT'
p1309
I13477
sS'GCGTAA'
p1310
I513
sS'TTGAAT'
p1311
I3695
sS'GTCCTA'
p1312
I10049
sS'GTCCTC'
p1313
I15269
sS'TGCACG'
p1314
I4674
sS'TGCACA'
p1315
I18080
sS'GTCCTG'
p1316
I22347
sS'TGCACC'
p1317
I13606
sS'TTGAAA'
p1318
I9074
sS'TTGAAC'
p1319
I5769
sS'AGCCCA'
p1320
I19061
sS'AGCCCC'
p1321
I19161
sS'CTTATG'
p1322
I9228
sS'ATAAAT'
p1323
I3704
sS'TGGTCG'
p1324
I1632
sS'TGGTCA'
p1325
I9583
sS'TGGTCC'
p1326
I7896
sS'ACGATT'
p1327
I244
sS'GAGACT'
p1328
I12012
sS'ACGGGG'
p1329
I1830
sS'TGGTCT'
p1330
I7598
sS'ATAAAG'
p1331
I6356
sS'AGGAAC'
p1332
I7531
sS'TCAGCC'
p1333
I6023
sS'ATAAAC'
p1334
I5252
sS'GAGACG'
p1335
I6384
sS'ACGATG'
p1336
I1347
sS'CTACAG'
p1337
I2850
sS'GAGACC'
p1338
I14654
sS'CGTATC'
p1339
I1099
sS'GAGACA'
p1340
I21582
sS'ACGATA'
p1341
I734
sS'GGTTAC'
p1342
I4471
sS'ATGTGT'
p1343
I7522
sS'GGTTAA'
p1344
I6510
sS'ACCACT'
p1345
I7440
sS'GGTTAG'
p1346
I5468
sS'CTTCCT'
p1347
I10505
sS'TAAACT'
p1348
I6460
sS'CGTGAA'
p1349
I1554
sS'CCAACA'
p1350
I4409
sS'TCCGCT'
p1351
I2756
sS'ACCACG'
p1352
I5008
sS'CTTCCC'
p1353
I17495
sS'ACCACC'
p1354
I11912
sS'CGTATG'
p1355
I1449
sS'ATGTGC'
p1356
I7084
sS'GGTTAT'
p1357
I2697
sS'TCCGCC'
p1358
I8975
sS'TCCGCA'
p1359
I3329
sS'TCCGCG'
p1360
I3416
sS'AACGTC'
p1361
I2777
sS'CGTGAG'
p1362
I3757
sS'AACGTG'
p1363
I5103
sS'CGTGAC'
p1364
I2288
sS'AGTGTG'
p1365
I15080
sS'TCTTCG'
p1366
I3029
sS'AGTGTA'
p1367
I8976
sS'TCTTCA'
p1368
I15562
sS'AGTGTC'
p1369
I7920
sS'TCTTCC'
p1370
I19772
sS'CGTGAT'
p1371
I720
sS'ACTCAA'
p1372
I5611
sS'TAAGTC'
p1373
I4188
sS'AACGTT'
p1374
I1523
sS'CCGTGA'
p1375
I1285
sS'TCTTCT'
p1376
I10671
sS'AGTGTT'
p1377
I3916
sS'TTGGCA'
p1378
I10873
sS'AAAGGT'
p1379
I2585
sS'TTGGCC'
p1380
I12017
sS'GCTCGA'
p1381
I1193
sS'CTTATT'
p1382
I3824
sS'TTGGCG'
p1383
I2034
sS'GACTTC'
p1384
I21631
sS'TCGAGT'
p1385
I478
sS'GACTTA'
p1386
I17575
sS'GACTTG'
p1387
I24089
sS'ACGTAG'
p1388
I792
sS'AAAGGG'
p1389
I8899
sS'AAAGGA'
p1390
I8757
sS'TTGGCT'
p1391
I6405
sS'AAAGGC'
p1392
I6008
sS'AGTAAG'
p1393
I10443
sS'GTATGG'
p1394
I3673
sS'GACTTT'
p1395
I12531
sS'TTCTTT'
p1396
I28458
sS'TGAAAA'
p1397
I5194
sS'CAAGAA'
p1398
I3404
sS'AGCGAG'
p1399
I5014
sS'CAAGAC'
p1400
I2817
sS'TCAGCG'
p1401
I1187
sS'TTCTTG'
p1402
I37803
sS'TTCTTC'
p1403
I37820
sS'TTCTTA'
p1404
I37211
sS'CAAGAT'
p1405
I1261
sS'AGGGCT'
p1406
I7584
sS'TACGGG'
p1407
I2054
sS'TACGGA'
p1408
I1546
sS'TACGGC'
p1409
I1520
sS'CCAACT'
p1410
I2375
sS'TAGAGT'
p1411
I5220
sS'TACGGT'
p1412
I980
sS'GAGTAT'
p1413
I3597
sS'AGGGCG'
p1414
I5785
sS'AGGGCA'
p1415
I14562
sS'AGGGCC'
p1416
I13652
sS'TCGAGA'
p1417
I898
sS'AGTTCG'
p1418
I2946
sS'TAGAGA'
p1419
I12858
sS'TAGAGG'
p1420
I11787
sS'CAATTA'
p1421
I6225
sS'GTGCTG'
p1422
I28108
sS'GTGCTA'
p1423
I10536
sS'ATCTGT'
p1424
I10156
sS'GTGCTC'
p1425
I12406
sS'GGCGAC'
p1426
I3148
sS'ATCTGA'
p1427
I14866
sS'GTGCTT'
p1428
I7437
sS'ATCTGC'
p1429
I13771
sS'CGCCGT'
p1430
I1645
sS'CGAATG'
p1431
I1253
sS'ATCTGG'
p1432
I14546
sS'ATCATA'
p1433
I12932
sS'GATAGC'
p1434
I5414
sS'AAGCAG'
p1435
I15255
sS'GATAGA'
p1436
I8883
sS'AAGCAA'
p1437
I12641
sS'GATAGG'
p1438
I8492
sS'ATCATG'
p1439
I14054
sS'GGCTCA'
p1440
I21768
sS'CATTTC'
p1441
I26473
sS'CTAGGT'
p1442
I1238
sS'CATTTA'
p1443
I32553
sS'ACGCAT'
p1444
I263
sS'CATTTG'
p1445
I29366
sS'GTTATA'
p1446
I7029
sS'CAAACA'
p1447
I12524
sS'GGAGGA'
p1448
I4121
sS'CAAACC'
p1449
I7035
sS'CTCGGG'
p1450
I6971
sS'ATCATT'
p1451
I5759
sS'GATAGT'
p1452
I4810
sS'CTAGGG'
p1453
I3644
sS'GTTATT'
p1454
I3690
sS'CTAGGC'
p1455
I2363
sS'CATTTT'
p1456
I12759
sS'CTAGGA'
p1457
I3028
sS'AAGTTT'
p1458
I5364
sS'AAGGTC'
p1459
I8619
sS'GGCTCG'
p1460
I6719
sS'CTAAGA'
p1461
I5368
sS'GGGGCT'
p1462
I4997
sS'TACAGG'
p1463
I22773
sS'AAGTTG'
p1464
I12464
sS'GGATGC'
p1465
I1857
sS'AAGTTA'
p1466
I14516
sS'TACAGC'
p1467
I12888
sS'AAGTTC'
p1468
I10023
sS'TACAGA'
p1469
I18817
sS'GGGGCC'
p1470
I11736
sS'GTATGA'
p1471
I4462
sS'GGGGCA'
p1472
I8205
sS'ATATGT'
p1473
I3925
sS'GGGGCG'
p1474
I6519
sS'CCATGG'
p1475
I4251
sS'TATATC'
p1476
I7804
sS'TATATA'
p1477
I20542
sS'TATATG'
p1478
I13636
sS'TCCGGT'
p1479
I1484
sS'GGTCCA'
p1480
I4233
sS'GCCCAT'
p1481
I2580
sS'TTAATA'
p1482
I11038
sS'TATATT'
p1483
I7379
sS'TAGTAA'
p1484
I7279
sS'TGATGG'
p1485
I3587
sS'CTCGGT'
p1486
I1594
sS'ATGAGT'
p1487
I5368
sS'GCCCAC'
p1488
I7253
sS'TGATGA'
p1489
I3954
sS'TGTTTA'
p1490
I31102
sS'CACATC'
p1491
I13369
sS'TGTTTC'
p1492
I22133
sS'CACATA'
p1493
I19173
sS'TTAATT'
p1494
I2923
sS'CACATG'
p1495
I22103
sS'TGTTTG'
p1496
I30241
sS'ATGAGA'
p1497
I8124
sS'TGATGT'
p1498
I2954
sS'AGTAAC'
p1499
I7720
sS'ATGAGG'
p1500
I9711
sS'CATATC'
p1501
I7260
sS'ACTCTG'
p1502
I14375
sS'TGCCAG'
p1503
I15888
sS'ACTCTA'
p1504
I7092
sS'TGCCAA'
p1505
I10939
sS'ACTCTC'
p1506
I6701
sS'TTAATG'
p1507
I9998
sS'TGTAAT'
p1508
I7645
sS'AAATTA'
p1509
I10123
sS'AAATTG'
p1510
I7237
sS'CCAGTA'
p1511
I3289
sS'TCTTGT'
p1512
I5931
sS'CGTACC'
p1513
I1310
sS'TTAATC'
p1514
I5306
sS'NNNNTT'
p1515
I1
sS'AAATTT'
p1516
I2137
sS'CTTAGT'
p1517
I4372
sS'GTCTAT'
p1518
I4605
sS'GGGAAC'
p1519
I5324
sS'GGTGCG'
p1520
I2883
sS'GGGAAA'
p1521
I8152
sS'GGGAAG'
p1522
I14016
sS'GGTGCC'
p1523
I7027
sS'TCGTCC'
p1524
I1983
sS'TCCGGG'
p1525
I6385
sS'AGAGCG'
p1526
I2327
sS'GCGACT'
p1527
I813
sS'AGCGAT'
p1528
I1047
sS'AGAGCC'
p1529
I7844
sS'AGAGCA'
p1530
I7453
sS'GCGTAG'
p1531
I772
sS'GGTGCT'
p1532
I3845
sS'CTTGTG'
p1533
I13256
sS'TAATTT'
p1534
I3402
sS'GGGAAT'
p1535
I2783
sS'GCGACG'
p1536
I1038
sS'AGAGCT'
p1537
I3858
sS'GCGACA'
p1538
I1424
sS'TATCGG'
p1539
I1074
sS'GCGACC'
p1540
I1821
sS'AGGTCG'
p1541
I2435
sS'GCAGGA'
p1542
I3320
sS'GCAGGC'
p1543
I2748
sS'GCAGGG'
p1544
I5176
sS'GGCGAT'
p1545
I732
sS'GCACTA'
p1546
I2367
sS'CCGTGC'
p1547
I1830
sS'GCTCGG'
p1548
I3933
sS'TATTCT'
p1549
I14771
sS'CCGTGG'
p1550
I2594
sS'ACTTAC'
p1551
I4259
sS'CTTTAG'
p1552
I9853
sS'GCAGGT'
p1553
I1063
sS'ATTGTG'
p1554
I9285
sS'ACGTCT'
p1555
I1272
sS'TATTCC'
p1556
I14470
sS'GGCGAG'
p1557
I5377
sS'TATTCA'
p1558
I21131
sS'CCGTGT'
p1559
I1143
sS'TATTCG'
p1560
I2321
sS'CAATTC'
p1561
I3857
sS'TGTAGA'
p1562
I8550
sS'TTTACC'
p1563
I8802
sS'TGTAGC'
p1564
I6418
sS'GGCTCC'
p1565
I25914
sS'TTTACG'
p1566
I2018
sS'TGTAGG'
p1567
I8674
sS'TGCTTA'
p1568
I24979
sS'TTCGGA'
p1569
I1628
sS'TTCGGC'
p1570
I2142
sS'AAATAG'
p1571
I5100
sS'GTCTAC'
p1572
I6396
sS'TTCGGG'
p1573
I3288
sS'AGCATG'
p1574
I18500
sS'GGCTCT'
p1575
I13950
sS'TGTAGT'
p1576
I6420
sS'TTTACT'
p1577
I8915
sS'AGCATA'
p1578
I12646
sS'AAATTC'
p1579
I6278
sS'ATTGTA'
p1580
I7816
sS'TTCGGT'
p1581
I978
sS'GTTTAT'
p1582
I6975
sS'GGGGAG'
p1583
I8134
sS'GCACTC'
p1584
I2712
sS'CGCTAC'
p1585
I2011
sS'TGCTTG'
p1586
I27235
sS'GTTTAA'
p1587
I10149
sS'TCCAGG'
p1588
I23376
sS'CACGAA'
p1589
I1997
sS'CAATCT'
p1590
I2763
sS'GTTTAG'
p1591
I7357
sS'TAAATT'
p1592
I3198
sS'CTGGCT'
p1593
I8420
sS'AGGCGG'
p1594
I7621
sS'GTCGGT'
p1595
I941
sS'AGGCGC'
p1596
I3994
sS'AGGAGT'
p1597
I6716
sS'ACAGCC'
p1598
I5051
sS'GATAAA'
p1599
I15996
sS'ACAGCA'
p1600
I5264
sS'TCCAGC'
p1601
I18283
sS'ACAGCG'
p1602
I1219
sS'AGGAGC'
p1603
I11151
sS'GTCGGA'
p1604
I1578
sS'AGGAGA'
p1605
I14398
sS'CTGGCG'
p1606
I4012
sS'AGGAGG'
p1607
I25637
sS'CTGGCA'
p1608
I14683
sS'CTGGCC'
p1609
I19112
sS'CGATAC'
p1610
I179
sS'ACCGGT'
p1611
I515
sS'GGAAAA'
p1612
I4734
sS'ATTGGT'
p1613
I1822
sS'AATTTT'
p1614
I7786
sS'TGTCAA'
p1615
I7842
sS'TGTCAC'
p1616
I10019
sS'AAACAC'
p1617
I4547
sS'AACCTT'
p1618
I6853
sS'TGTCAG'
p1619
I11659
sS'AACGCG'
p1620
I1964
sS'AATTTA'
p1621
I26210
sS'AATTTC'
p1622
I15808
sS'AACGCC'
p1623
I4029
sS'AACGCA'
p1624
I3277
sS'AATTTG'
p1625
I21827
sS'ATTTAC'
p1626
I7212
sS'ATTTAA'
p1627
I12740
sS'TGTCAT'
p1628
I5408
sS'CCCTCG'
p1629
I6879
sS'GAGGTT'
p1630
I4021
sS'GGCGTT'
p1631
I1051
sS'TGACCA'
p1632
I2355
sS'CATTCT'
p1633
I17495
sS'TAAATC'
p1634
I6090
sS'GGGTTA'
p1635
I6237
sS'TGACCG'
p1636
I513
sS'ATGGTT'
p1637
I1696
sS'CATTCG'
p1638
I3285
sS'CATTCC'
p1639
I24759
sS'CATTCA'
p1640
I23458
sS'TCCATA'
p1641
I11116
sS'GAATGG'
p1642
I7537
sS'ACGAAA'
p1643
I681
sS'TAAATG'
p1644
I15071
sS'ACAAAT'
p1645
I1908
sS'GATTAA'
p1646
I13565
sS'GTAGGC'
p1647
I1797
sS'GATTAC'
p1648
I14610
sS'GTAGGA'
p1649
I2562
sS'GTAGGG'
p1650
I3324
sS'GATTAG'
p1651
I9955
sS'GAATGA'
p1652
I9175
sS'ACAAAC'
p1653
I3412
sS'TTTCAA'
p1654
I12051
sS'CAATTG'
p1655
I4449
sS'ACAAAG'
p1656
I4944
sS'GCGGGC'
p1657
I2689
sS'AGGCGA'
p1658
I2325
sS'GCGGGA'
p1659
I2463
sS'GCGGGG'
p1660
I6474
sS'GATTAT'
p1661
I6889
sS'GTAGGT'
p1662
I1157
sS'CCACGA'
p1663
I407
sS'GGCGTC'
p1664
I3991
sS'TAATGA'
p1665
I6830
sS'GATGTT'
p1666
I4955
sS'TAATGC'
p1667
I4631
sS'GGAGAT'
p1668
I856
sS'GCCCTT'
p1669
I5660
sS'GCGCCG'
p1670
I2364
sS'CAATAA'
p1671
I3320
sS'GCCCTC'
p1672
I16473
sS'GATGTG'
p1673
I16947
sS'GCCCTA'
p1674
I9020
sS'GATGTA'
p1675
I10597
sS'GCCCTG'
p1676
I27954
sS'GATGTC'
p1677
I9099
sS'GGCGTG'
p1678
I9038
sS'TGAAAT'
p1679
I3106
sS'TTCTAG'
p1680
I16924
sS'TTTCAG'
p1681
I13356
sS'ATCCGT'
p1682
I865
sS'TTCTAC'
p1683
I12885
sS'GAATGT'
p1684
I6315
sS'TTGGAT'
p1685
I1522
sS'TGAAAC'
p1686
I4617
sS'TGAAAG'
p1687
I6537
sS'TTCTAT'
p1688
I9840
sS'ATCCGC'
p1689
I2482
sS'AGTAAT'
p1690
I5745
sS'ATCCGA'
p1691
I1254
sS'ATCCGG'
p1692
I2362
sS'TGGCTC'
p1693
I14212
sS'TGGCTA'
p1694
I9537
sS'NNNNCT'
p1695
I1
sS'TGGCTG'
p1696
I22193
sS'GGGTGA'
p1697
I7419
sS'AGTTGT'
p1698
I6703
sS'AGCTAT'
p1699
I6726
sS'GTCGGC'
p1700
I2513
sS'TGGCTT'
p1701
I5600
sS'AGTTGG'
p1702
I9690
sS'GGGATT'
p1703
I2640
sS'AGCTAC'
p1704
I11421
sS'AGTTGC'
p1705
I8144
sS'AGTTGA'
p1706
I9132
sS'AGCTAG'
p1707
I11013
sS'CGTTGA'
p1708
I1739
sS'CTAATT'
p1709
I2214
sS'CAGTGT'
p1710
I9038
sS'TAACAA'
p1711
I3840
sS'TCAGGT'
p1712
I1044
sS'TCAAGG'
p1713
I5228
sS'GTCGGG'
p1714
I4094
sS'TCAAGC'
p1715
I2745
sS'CATGGA'
p1716
I7401
sS'GCACCA'
p1717
I2352
sS'CAGTGC'
p1718
I11332
sS'GCACCC'
p1719
I2418
sS'CAGTGA'
p1720
I14799
sS'CAGTGG'
p1721
I15553
sS'CTAATG'
p1722
I7812
sS'TCAAGT'
p1723
I2493
sS'TCAGGG'
p1724
I3749
sS'CGCAGG'
p1725
I8491
sS'ACTAGT'
p1726
I1775
sS'TCAGGC'
p1727
I2236
sS'GTGGGT'
p1728
I3211
sS'TCCTAA'
p1729
I12436
sS'AGTCAA'
p1730
I8321
sS'TTCCCT'
p1731
I18135
sS'CGAGCG'
p1732
I873
sS'GTTAGT'
p1733
I3225
sS'CGAGCA'
p1734
I1063
sS'GAGCCG'
p1735
I9231
sS'CGAGCC'
p1736
I2174
sS'TTCCCA'
p1737
I25371
sS'TTCCCC'
p1738
I22516
sS'ACAGCT'
p1739
I2499
sS'GTTCAC'
p1740
I4718
sS'TTCCCG'
p1741
I7367
sS'GATCAC'
p1742
I8874
sS'GGACCT'
p1743
I961
sS'CTTACT'
p1744
I6297
sS'TACATG'
p1745
I17520
sS'AAGTAC'
p1746
I5645
sS'CACACT'
p1747
I14363
sS'TACATC'
p1748
I9874
sS'AAGTAG'
p1749
I7766
sS'TACATA'
p1750
I20656
sS'GCACAC'
p1751
I1287
sS'GGACCG'
p1752
I588
sS'AACGCT'
p1753
I2504
sS'GGACCA'
p1754
I1321
sS'TCATCA'
p1755
I6782
sS'GGACCC'
p1756
I1573
sS'CACACG'
p1757
I6968
sS'TACATT'
p1758
I10560
sS'CACACC'
p1759
I24027
sS'GCACAA'
p1760
I1269
sS'CACACA'
p1761
I42820
sS'ACGGTC'
p1762
I771
sS'TCTGCC'
p1763
I12005
sS'TCTGCA'
p1764
I10747
sS'TCTGCG'
p1765
I3009
sS'TTTCGA'
p1766
I1235
sS'ATTGCC'
p1767
I4776
sS'CCCGTC'
p1768
I3872
sS'TTAAGG'
p1769
I6801
sS'CCCGTA'
p1770
I1729
sS'CGTCGA'
p1771
I563
sS'CCCGTG'
p1772
I4947
sS'TTAAGC'
p1773
I4237
sS'TTACGT'
p1774
I489
sS'TAGATC'
p1775
I4698
sS'AAACAG'
p1776
I6646
sS'TAGATA'
p1777
I10296
sS'TTTCGC'
p1778
I1581
sS'TAGATG'
p1779
I10832
sS'TCTGCT'
p1780
I5989
sS'TTACGC'
p1781
I526
sS'TTAAGT'
p1782
I4372
sS'TTACGA'
p1783
I484
sS'TTACGG'
p1784
I673
sS'CCCGTT'
p1785
I950
sS'AGTGAC'
p1786
I9688
sS'AGTGAA'
p1787
I9073
sS'AGTGAG'
p1788
I14276
sS'GCGGTC'
p1789
I1241
sS'CGGGCG'
p1790
I3552
sS'CCCTCT'
p1791
I15216
sS'TTTCGG'
p1792
I1884
sS'CGGGCC'
p1793
I6709
sS'TAAGAA'
p1794
I4955
sS'CGGGCA'
p1795
I3624
sS'TAAGAC'
p1796
I3169
sS'AAACAA'
p1797
I8626
sS'AGTGAT'
p1798
I3713
sS'GGGNCC'
p1799
I1
sS'TAAGAT'
p1800
I1617
sS'CCTGAA'
p1801
I4937
sS'CCTGAC'
p1802
I5829
sS'CCTGAG'
p1803
I8821
sS'GTTAGG'
p1804
I6417
sS'GCCAAC'
p1805
I7090
sS'TATACT'
p1806
I7945
sS'GTTAGC'
p1807
I3900
sS'GTTAGA'
p1808
I5600
sS'ACCCCC'
p1809
I6521
sS'TATACG'
p1810
I1759
sS'GGTAGC'
p1811
I3765
sS'TATACC'
p1812
I6974
sS'TATACA'
p1813
I13579
sS'ATTGGC'
p1814
I3952
sS'CGTATA'
p1815
I1230
sS'GTAATG'
p1816
I7134
sS'TTTATT'
p1817
I7969
sS'GTAATA'
p1818
I7168
sS'ATTGGA'
p1819
I3469
sS'GTAATC'
p1820
I4702
sS'TCTAAC'
p1821
I4097
sS'CGTTCT'
p1822
I2317
sS'CCACCG'
p1823
I998
sS'CGGATC'
p1824
I1282
sS'CCACCA'
p1825
I2888
sS'CCACCC'
p1826
I4419
sS'GTTCGT'
p1827
I580
sS'TTTATG'
p1828
I16908
sS'GTAATT'
p1829
I2243
sS'GTAACG'
p1830
I1133
sS'TTTATC'
p1831
I10353
sS'ACTAGC'
p1832
I2528
sS'TTTATA'
p1833
I18771
sS'CCCTCA'
p1834
I18077
sS'CCACCT'
p1835
I2080
sS'CGTTCG'
p1836
I1144
sS'ACTTGT'
p1837
I3752
sS'CGTTCA'
p1838
I2716
sS'CGTTCC'
p1839
I4141
sS'TCTAAT'
p1840
I2758
sS'CTTTGT'
p1841
I10792
sS'CCCTCC'
p1842
I35737
sS'ACTGGA'
p1843
I4625
sS'ACTGGC'
p1844
I4111
sS'TAGTCC'
p1845
I8866
sS'GTGACC'
p1846
I11179
sS'TAGTCA'
p1847
I14259
sS'GTGACA'
p1848
I12766
sS'TAGTCG'
p1849
I1345
sS'GTGACG'
p1850
I3588
sS'ATTTAG'
p1851
I7651
sS'ACTGGT'
p1852
I1613
sS'CTTTGG'
p1853
I17369
sS'GGGTTT'
p1854
I3268
sS'CTTTGC'
p1855
I14747
sS'CTTTGA'
p1856
I15221
sS'GTGACT'
p1857
I11498
sS'TAGTCT'
p1858
I7482
sS'GTGCAC'
p1859
I5698
sS'GCGCTT'
p1860
I620
sS'ACCTAG'
p1861
I6675
sS'CGACGA'
p1862
I199
sS'ACCTAA'
p1863
I7515
sS'CGACGC'
p1864
I454
sS'ACCTAC'
p1865
I5510
sS'CCGCAG'
p1866
I1780
sS'CCGCAA'
p1867
I496
sS'CCGCAC'
p1868
I872
sS'GGGACT'
p1869
I5965
sS'CGAAGC'
p1870
I1097
sS'GCGCTG'
p1871
I5402
sS'CGAAGA'
p1872
I969
sS'CCCCGT'
p1873
I1604
sS'CGAAGG'
p1874
I1761
sS'GCGCTC'
p1875
I3128
sS'GTGCAT'
p1876
I3107
sS'GCGCTA'
p1877
I1307
sS'NCTGAC'
p1878
I1
sS'CCGCAT'
p1879
I223
sS'ATTACC'
p1880
I5318
sS'GAAGAT'
p1881
I1827
sS'GGATCT'
p1882
I1697
sS'CTTCCG'
p1883
I4086
sS'TCGGAA'
p1884
I537
sS'TCGGAC'
p1885
I491
sS'GAATCT'
p1886
I4748
sS'CCTATA'
p1887
I4859
sS'TCGGAG'
p1888
I1090
sS'GGATCG'
p1889
I669
sS'GAAGAG'
p1890
I9526
sS'GAAGAA'
p1891
I7205
sS'GGATCC'
p1892
I2942
sS'GAAGAC'
p1893
I4899
sS'GGATCA'
p1894
I2724
sS'GAATCA'
p1895
I10414
sS'GAATCC'
p1896
I6780
sS'TCGGAT'
p1897
I164
sS'GAATCG'
p1898
I1611
sS'ATGGTC'
p1899
I3437
sS'CAGATG'
p1900
I15874
sS'ACGCCG'
p1901
I892
sS'TGACCC'
p1902
I2347
sS'ATGGTG'
p1903
I9227
sS'CAGATC'
p1904
I6650
sS'ACGCCC'
p1905
I2742
sS'CAGATA'
p1906
I11219
sS'CTCGAG'
p1907
I2956
sS'CAGATT'
p1908
I2947
sS'CTCGAC'
p1909
I1643
sS'CTCGAA'
p1910
I1805
sS'TCGCAA'
p1911
I365
sS'TTGCGC'
p1912
I1350
sS'GCTATT'
p1913
I2015
sS'TGCGTC'
p1914
I3236
sS'NNNTTG'
p1915
I1
sS'AATGGT'
p1916
I4000
sS'GGATAA'
p1917
I1223
sS'ACGTGT'
p1918
I1110
sS'CCCCGC'
p1919
I11339
sS'AATGGA'
p1920
I9907
sS'AATGGG'
p1921
I10530
sS'CAATAC'
p1922
I1827
sS'CCCCGA'
p1923
I3055
sS'AATAGA'
p1924
I12212
sS'ACAATA'
p1925
I5715
sS'CAACTA'
p1926
I3457
sS'CGTTAG'
p1927
I1616
sS'AGCCAG'
p1928
I21458
sS'GGAGGG'
p1929
I6581
sS'AAAAGT'
p1930
I4777
sS'AGCCAC'
p1931
I17643
sS'GGAGGC'
p1932
I3839
sS'TGGTAG'
p1933
I4211
sS'CGCCAT'
p1934
I1516
sS'GAGTGT'
p1935
I8400
sS'TGGTAC'
p1936
I2412
sS'TGGTAA'
p1937
I4374
sS'AAAAGG'
p1938
I13701
sS'GGAGGT'
p1939
I1418
sS'AGCCAT'
p1940
I5595
sS'AAAAGC'
p1941
I8430
sS'AAAAGA'
p1942
I14073
sS'TTGACT'
p1943
I6246
sS'GAGTGG'
p1944
I15980
sS'CGCCAG'
p1945
I5638
sS'TGGTAT'
p1946
I2812
sS'CGCCAA'
p1947
I2403
sS'GAGTGC'
p1948
I10968
sS'CGCCAC'
p1949
I4944
sS'GAGTGA'
p1950
I15073
sS'GCCAGG'
p1951
I26204
sS'GCCAGA'
p1952
I13141
sS'GCCAGC'
p1953
I14968
sS'GCCCGT'
p1954
I1687
sS'TACCGA'
p1955
I1404
sS'TACCGC'
p1956
I1991
sS'TACCGG'
p1957
I2048
sS'GCCCGC'
p1958
I8775
sS'GCCAGT'
p1959
I6992
sS'GCCCGA'
p1960
I3257
sS'GCCCGG'
p1961
I11028
sS'TGCGAT'
p1962
I695
sS'CTTCAC'
p1963
I7343
sS'CTTCAA'
p1964
I7977
sS'CTTCAG'
p1965
I12275
sS'TCCGAG'
p1966
I2977
sS'TCCGAA'
p1967
I1227
sS'TCCGAC'
p1968
I1422
sS'TAGCGT'
p1969
I776
sS'TATTAG'
p1970
I11681
sS'AATTCC'
p1971
I17940
sS'AATTCG'
p1972
I2401
sS'TCCGAT'
p1973
I484
sS'GCATAG'
p1974
I1536
sS'GGACAA'
p1975
I1142
sS'TAGCGG'
p1976
I1722
sS'TAGCGA'
p1977
I1043
sS'TAGCGC'
p1978
I1372
sS'GTCATC'
p1979
I12423
sS'GTCATA'
p1980
I13761
sS'GTCATG'
p1981
I17116
sS'AGCAGG'
p1982
I27632
sS'CCAGGT'
p1983
I1164
sS'TTGGAA'
p1984
I5398
sS'AGCAGC'
p1985
I23038
sS'AGCAGA'
p1986
I20837
sS'GTCATT'
p1987
I8139
sS'CCAGGG'
p1988
I4317
sS'AGCAGT'
p1989
I12363
sS'CCAGGA'
p1990
I2982
sS'CCAGGC'
p1991
I3317
sS'AGCGCT'
p1992
I3641
sS'ATAGAG'
p1993
I2313
sS'CATCTG'
p1994
I23039
sS'GATCGG'
p1995
I1950
sS'CATCTA'
p1996
I12991
sS'GATCGA'
p1997
I1235
sS'CATCTC'
p1998
I17241
sS'GATCGC'
p1999
I2323
sS'ATTAGA'
p2000
I6219
sS'ACAAAA'
p2001
I4819
sS'GGATGG'
p2002
I3250
sS'CAAGCC'
p2003
I6629
sS'CATCTT'
p2004
I6463
sS'CAAGCA'
p2005
I6684
sS'ACGGTT'
p2006
I260
sS'GTTCTT'
p2007
I3965
sS'ACATGA'
p2008
I3400
sS'CGTAAT'
p2009
I714
sS'ACATGC'
p2010
I2785
sS'ACATGG'
p2011
I3718
sS'CCCGCT'
p2012
I3653
sS'GTACAT'
p2013
I918
sS'GGCCAT'
p2014
I3005
sS'CGTAAG'
p2015
I1722
sS'GTTCTG'
p2016
I15114
sS'ACATGT'
p2017
I2510
sS'CGTAAC'
p2018
I1112
sS'CGTAAA'
p2019
I1584
sS'AGGGAG'
p2020
I12630
sS'ACGGAA'
p2021
I647
sS'GGATAC'
p2022
I839
sS'CCCGCC'
p2023
I20816
sS'AGACGC'
p2024
I990
sS'CCCGCA'
p2025
I5147
sS'CCCTTT'
p2026
I9935
sS'TGTTGT'
p2027
I9506
sS'GTTGTT'
p2028
I2926
sS'ATCCTT'
p2029
I5280
sS'TTGTCG'
p2030
I1763
sS'TTGTCC'
p2031
I12222
sS'TTGTCA'
p2032
I13431
sS'ATCCTC'
p2033
I12340
sS'GTTGTA'
p2034
I7005
sS'ATCCTA'
p2035
I10249
sS'GTTGTC'
p2036
I4703
sS'ATCCTG'
p2037
I17834
sS'GTTGTG'
p2038
I9371
sS'TTGTCT'
p2039
I11019
sS'ACCTCA'
p2040
I17257
sS'TGACTA'
p2041
I4707
sS'TGGGCC'
p2042
I10835
sS'TGACTC'
p2043
I6055
sS'TGGGCA'
p2044
I11788
sS'TGGGCG'
p2045
I4570
sS'TGACTG'
p2046
I5761
sS'AAGCCG'
p2047
I4178
sS'AAGCCC'
p2048
I13424
sS'AAGCCA'
p2049
I16696
sS'CAAAAT'
p2050
I2496
sS'CTATGG'
p2051
I4891
sS'TGGGCT'
p2052
I6052
sS'CAAAAC'
p2053
I5851
sS'CAAAAA'
p2054
I5775
sS'AAGCCT'
p2055
I9034
sS'CAAAAG'
p2056
I6787
sS'TGATTT'
p2057
I2248
sS'TCAATG'
p2058
I5261
sS'AAACTT'
p2059
I1921
sS'TCAATC'
p2060
I2354
sS'TCAATA'
p2061
I5351
sS'CAGTTC'
p2062
I11090
sS'GACCCG'
p2063
I6448
sS'GTCAAC'
p2064
I6819
sS'GACCCA'
p2065
I14660
sS'GACCCC'
p2066
I12452
sS'CTCTGT'
p2067
I21268
sS'TCAATT'
p2068
I1286
sS'TGGCGT'
p2069
I1063
sS'CTCTGC'
p2070
I33763
sS'GACCCT'
p2071
I8552
sS'CTCTGA'
p2072
I26645
sS'CTCTGG'
p2073
I32875
sS'CAGTTT'
p2074
I5559
sS'GCGAAG'
p2075
I1426
sS'ACGTTC'
p2076
I1463
sS'TGCTGG'
p2077
I31307
sS'CGAGGT'
p2078
I411
sS'TGCTGA'
p2079
I21653
sS'CCCTTG'
p2080
I21344
sS'TGCTGC'
p2081
I24155
sS'AGCTGC'
p2082
I23585
sS'GCTGGT'
p2083
I2750
sS'GTGATT'
p2084
I3704
sS'CTACTA'
p2085
I4425
sS'TGCTGT'
p2086
I16947
sS'AGCTGA'
p2087
I21224
sS'TAATGG'
p2088
I5432
sS'TCGCTA'
p2089
I968
sS'GTGATG'
p2090
I12643
sS'GCTGGG'
p2091
I16870
sS'GTGATC'
p2092
I5979
sS'GCTGGC'
p2093
I6623
sS'GTGATA'
p2094
I8029
sS'GCTGGA'
p2095
I7178
sS'TGATAA'
p2096
I2650
sS'TGATAC'
p2097
I1393
sS'TGATAG'
p2098
I1805
sS'CTTGTT'
p2099
I3517
sS'GACGGT'
p2100
I1856
sS'GCTAGG'
p2101
I5899
sS'GCTAGA'
p2102
I4362
sS'ATGAAT'
p2103
I3791
sS'GCTAGC'
p2104
I2750
sS'AAGGGT'
p2105
I4141
sS'TGATAT'
p2106
I1411
sS'GCTAGT'
p2107
I1925
sS'ATGAAC'
p2108
I4385
sS'GACGGG'
p2109
I6531
sS'ATGAAA'
p2110
I8722
sS'GACGGA'
p2111
I3554
sS'CTTGTA'
p2112
I9406
sS'GACGGC'
p2113
I4275
sS'CTTGTC'
p2114
I7609
sS'CAAAGA'
p2115
I8345
sS'CTACTT'
p2116
I1751
sS'GNCCGC'
p2117
I1
sS'CAACGT'
p2118
I397
sS'GGTGAA'
p2119
I5352
sS'GGTGAC'
p2120
I7147
sS'GCGTCT'
p2121
I1764
sS'GACTGT'
p2122
I13904
sS'GGTGAG'
p2123
I9720
sS'GGAATG'
p2124
I9886
sS'CGTCCT'
p2125
I2001
sS'GGAATC'
p2126
I2995
sS'GGAATA'
p2127
I4411
sS'GCGTCA'
p2128
I2341
sS'GCGTCC'
p2129
I4089
sS'GGTGAT'
p2130
I2103
sS'GCGTCG'
p2131
I1211
sS'CGTCCG'
p2132
I1740
sS'GGAATT'
p2133
I1673
sS'CGTCCC'
p2134
I4581
sS'CGTCCA'
p2135
I2366
sS'CCGTAT'
p2136
I285
sS'GAAGTC'
p2137
I6149
sS'GAAGTA'
p2138
I7533
sS'GAAGTG'
p2139
I12037
sS'GCCGTA'
p2140
I1765
sS'CCGTAC'
p2141
I421
sS'CCGTAA'
p2142
I474
sS'CCGTAG'
p2143
I706
sS'AGAGTC'
p2144
I3904
sS'GCCGTT'
p2145
I867
sS'TTGGTG'
p2146
I10033
sS'GAAGTT'
p2147
I1969
sS'GGCGCG'
p2148
I6994
sS'ATGCCC'
p2149
I9262
sS'TTAGTT'
p2150
I1546
sS'ATGCCA'
p2151
I12012
sS'GGCGCC'
p2152
I10645
sS'ATGCCG'
p2153
I2100
sS'GGCGCA'
p2154
I4858
sS'TATTAC'
p2155
I11157
sS'ACTATG'
p2156
I6577
sS'CCTACA'
p2157
I5284
sS'TTTAAG'
p2158
I14016
sS'ACTATC'
p2159
I3040
sS'TTTAAA'
p2160
I24104
sS'ACTATA'
p2161
I5675
sS'TTTAAC'
p2162
I9116
sS'TATTAT'
p2163
I11060
sS'TTAGTG'
p2164
I5848
sS'GGCGCT'
p2165
I4126
sS'TTAGTC'
p2166
I3975
sS'ATGCCT'
p2167
I8068
sS'TTAGTA'
p2168
I5962
sS'TTTAAT'
p2169
I6820
sS'CTAACG'
p2170
I1219
sS'GGGCAT'
p2171
I1770
sS'TTTCCG'
p2172
I2795
sS'TTTCCA'
p2173
I13936
sS'TTTCCC'
p2174
I14459
sS'GTACGT'
p2175
I360
sS'GTTTGT'
p2176
I9306
sS'TTCTAA'
p2177
I21879
sS'TTTCCT'
p2178
I10671
sS'GGGCAG'
p2179
I10761
sS'GTCTGT'
p2180
I12311
sS'GGGCAA'
p2181
I4306
sS'GGGCAC'
p2182
I4540
sS'GTACGG'
p2183
I584
sS'GTTTGA'
p2184
I9936
sS'GTTTGG'
p2185
I11384
sS'GTACGA'
p2186
I287
sS'CCGCTC'
p2187
I2799
sS'GCATGT'
p2188
I2551
sS'CCGCTA'
p2189
I1245
sS'CCGCTG'
p2190
I4256
sS'AGCATT'
p2191
I8342
sS'GCGCGG'
p2192
I3325
sS'GCGCGC'
p2193
I2571
sS'GCGCGA'
p2194
I906
sS'GCATGG'
p2195
I3800
sS'TGGATC'
p2196
I4309
sS'GCATGC'
p2197
I3005
sS'CCGCTT'
p2198
I673
sS'TGACCT'
p2199
I2210
sS'GTCGAC'
p2200
I895
sS'GCGCGT'
p2201
I497
sS'GTCGAG'
p2202
I1827
sS'AGACAT'
p2203
I1176
sS'GAGCTA'
p2204
I11326
sS'TGCGCT'
p2205
I2509
sS'GAGCTC'
p2206
I15427
sS'ATTGAT'
p2207
I1342
sS'GAGCTG'
p2208
I29546
sS'AAACGA'
p2209
I1068
sS'AAACGC'
p2210
I1196
sS'GTAACA'
p2211
I6637
sS'GTAGTA'
p2212
I3838
sS'AAACGG'
p2213
I1401
sS'TGTCCC'
p2214
I11386
sS'TGCGCG'
p2215
I3434
sS'TGTCCA'
p2216
I9931
sS'TGTCCG'
p2217
I2540
sS'TGCGCC'
p2218
I5851
sS'ATTGAG'
p2219
I4485
sS'TGCGCA'
p2220
I3863
sS'CACGCA'
p2221
I5196
sS'AAACGT'
p2222
I787
sS'TGGGTT'
p2223
I2066
sS'ATTTCA'
p2224
I17304
sS'ATTTCC'
p2225
I14533
sS'ATCAGT'
p2226
I6625
sS'ATCGGG'
p2227
I1454
sS'CATAGT'
p2228
I5566
sS'ATCGGC'
p2229
I1047
sS'ATCGGA'
p2230
I859
sS'TGGGTG'
p2231
I13717
sS'CGATCA'
p2232
I558
sS'TGGGTC'
p2233
I4961
sS'TGGGTA'
p2234
I6223
sS'CATAGG'
p2235
I8074
sS'ATCGGT'
p2236
I402
sS'ATCAGG'
p2237
I11248
sS'ATCAGA'
p2238
I12258
sS'CATAGA'
p2239
I8392
sS'ACGGGT'
p2240
I293
sS'ATAATT'
p2241
I2252
sS'CCTGGT'
p2242
I2450
sS'GATTCT'
p2243
I12917
sS'CTTTTG'
p2244
I25700
sS'TACTAG'
p2245
I9016
sS'CTTTTC'
p2246
I22948
sS'CAGCAA'
p2247
I8332
sS'CTTTTA'
p2248
I27383
sS'GATTCC'
p2249
I14929
sS'GATTCA'
p2250
I20074
sS'GATTCG'
p2251
I2758
sS'ACGGGC'
p2252
I929
sS'TACTAT'
p2253
I8194
sS'CTTTTT'
p2254
I9314
sS'ACCAAC'
p2255
I5709
sS'CGTAGA'
p2256
I1285
sS'TCACGA'
p2257
I396
sS'TCACGC'
p2258
I774
sS'TCACGG'
p2259
I782
sS'TCTCAT'
p2260
I3080
sS'TCACGT'
p2261
I455
sS'AGTGGA'
p2262
I6833
sS'TTCCAC'
p2263
I12142
sS'TTCCAA'
p2264
I14742
sS'TTCCAG'
p2265
I21228
sS'ACCCTT'
p2266
I3617
sS'TGAAGT'
p2267
I3599
sS'CCACAT'
p2268
I949
sS'AGGCAC'
p2269
I7085
sS'TTCCAT'
p2270
I6868
sS'ACCCTA'
p2271
I7460
sS'TGAAGA'
p2272
I6341
sS'TGAAGG'
p2273
I7851
sS'ACCCTG'
p2274
I16504
sS'CTGACT'
p2275
I9147
sS'CCCCTT'
p2276
I4799
sS'AGTTAT'
p2277
I4768
sS'ACATAT'
p2278
I1620
sS'CTGACG'
p2279
I3095
sS'CTGACC'
p2280
I13434
sS'CTGACA'
p2281
I11042
sS'AGTTAA'
p2282
I10489
sS'CCCCTG'
p2283
I17720
sS'AGTTAC'
p2284
I7227
sS'CCCCTC'
p2285
I17104
sS'AGTTAG'
p2286
I7606
sS'CCCCTA'
p2287
I8219
sS'ACACAG'
p2288
I3005
sS'ACACAA'
p2289
I2035
sS'ACACAC'
p2290
I3026
sS'AATGTT'
p2291
I6772
sS'CTGCAG'
p2292
I16160
sS'CATGGG'
p2293
I9097
sS'CTGCAC'
p2294
I9267
sS'CATGGC'
p2295
I7759
sS'AATGTC'
p2296
I11118
sS'ACACAT'
p2297
I1216
sS'AATGTA'
p2298
I17193
sS'AATGTG'
p2299
I20576
sS'AGCTAA'
p2300
I13511
sS'CATGGT'
p2301
I4107
sS'CTGCAT'
p2302
I4359
sS'GCACAG'
p2303
I2575
sS'CGATTC'
p2304
I696
sS'CCACAG'
p2305
I2379
sS'ATGTTC'
p2306
I8554
sS'CGAGAT'
p2307
I197
sS'ATTACT'
p2308
I5420
sS'CACAAT'
p2309
I7103
sS'ACATTG'
p2310
I6050
sS'GTACCA'
p2311
I2089
sS'ACATTA'
p2312
I6603
sS'ACATTC'
p2313
I6378
sS'ATTACA'
p2314
I12139
sS'CCACAC'
p2315
I1635
sS'GTTCGC'
p2316
I1289
sS'CGAGAC'
p2317
I626
sS'GTTCGG'
p2318
I1741
sS'AAGTCT'
p2319
I9878
sS'ATGCTA'
p2320
I9446
sS'GGACAT'
p2321
I535
sS'CAGCGT'
p2322
I1574
sS'GCTATA'
p2323
I4877
sS'GCTATC'
p2324
I2826
sS'AAGTCG'
p2325
I2461
sS'AAGTCA'
p2326
I17924
sS'GCTATG'
p2327
I7165
sS'AAGTCC'
p2328
I12739
sS'GGACAG'
p2329
I2149
sS'GGACAC'
p2330
I1172
sS'CTATCG'
p2331
I903
sS'GCACCT'
p2332
I1330
sS'AGGGTT'
p2333
I2478
sS'GAGGCG'
p2334
I11798
sS'TGTTGG'
p2335
I12992
sS'GAGGCA'
p2336
I23894
sS'TGTTGA'
p2337
I13010
sS'GAGGCC'
p2338
I25967
sS'TGTTGC'
p2339
I12041
sS'ACTCGA'
p2340
I987
sS'TAAAAT'
p2341
I5271
sS'ACTCGC'
p2342
I1470
sS'AAGCTT'
p2343
I5227
sS'ACTCGG'
p2344
I2227
sS'AGCGCA'
p2345
I4151
sS'GAGGCT'
p2346
I15159
sS'AGCGCC'
p2347
I7978
sS'AGGGTG'
p2348
I13567
sS'AGGGTA'
p2349
I5923
sS'AGCGCG'
p2350
I4799
sS'AGGGTC'
p2351
I4399
sS'TAAAAG'
p2352
I10091
sS'ACTCGT'
p2353
I537
sS'TAAAAC'
p2354
I7439
sS'TAAAAA'
p2355
I10467
sS'ACCCTC'
p2356
I9873
sS'TAGGGA'
p2357
I6909
sS'ACGTTA'
p2358
I1693
sS'TAGGGC'
p2359
I5306
sS'ACGTTG'
p2360
I1950
sS'AGCTGG'
p2361
I29470
sS'TAGGGG'
p2362
I6478
sS'AGTGCG'
p2363
I2642
sS'AGTGCA'
p2364
I10003
sS'AGAGTT'
p2365
I1561
sS'AGTGCC'
p2366
I9519
sS'CCAAAA'
p2367
I2259
sS'ACAATG'
p2368
I6807
sS'TAGGGT'
p2369
I2856
sS'GCTTGG'
p2370
I9911
sS'AGCTGT'
p2371
I14702
sS'ACGTTT'
p2372
I792
sS'AGTGCT'
p2373
I7410
sS'TCATAA'
p2374
I2735
sS'TCAAGA'
p2375
I3976
sS'AGAGTG'
p2376
I7542
sS'TAACCC'
p2377
I2933
sS'GTTAAA'
p2378
I8829
sS'CCTGGC'
p2379
I8144
sS'GTTAAC'
p2380
I4832
sS'CCTGGA'
p2381
I6666
sS'CCTGGG'
p2382
I14305
sS'GTTAAG'
p2383
I7709
sS'TAACCA'
p2384
I4025
sS'CTAATC'
p2385
I4004
sS'GTCTGG'
p2386
I19795
sS'GTCTGC'
p2387
I14693
sS'GGGTAT'
p2388
I1379
sS'GTCTGA'
p2389
I14923
sS'GGAAGG'
p2390
I11572
sS'ATGCTT'
p2391
I5328
sS'GGAAGC'
p2392
I5808
sS'GCACCG'
p2393
I900
sS'GGAAGA'
p2394
I6787
sS'GCGTTA'
p2395
I1322
sS'TCCTCT'
p2396
I21079
sS'GCGTTC'
p2397
I1839
sS'CAATGC'
p2398
I3396
sS'GCGTTG'
p2399
I2156
sS'CAATGG'
p2400
I4491
sS'ATGCTG'
p2401
I17499
sS'GGAAGT'
p2402
I3678
sS'ATGCTC'
p2403
I8539
sS'CCACAA'
p2404
I1283
sS'ATTTGT'
p2405
I7073
sS'TCCTCG'
p2406
I6971
sS'TGTATG'
p2407
I11871
sS'TCCTCA'
p2408
I25827
sS'TGTATA'
p2409
I11548
sS'TCCTCC'
p2410
I38212
sS'TGTATC'
p2411
I6825
sS'GTGAAT'
p2412
I3237
sS'TAACCG'
p2413
I634
sS'TCATAG'
p2414
I2421
sS'TTCGTG'
p2415
I3341
sS'CGTTAC'
p2416
I1305
sS'TTCGTA'
p2417
I1992
sS'CGTTAA'
p2418
I1538
sS'TTCGTC'
p2419
I1981
sS'ACCGCT'
p2420
I1534
sS'TCGCGA'
p2421
I423
sS'TGCATG'
p2422
I17805
sS'TCAGGA'
p2423
I2688
sS'TTCGTT'
p2424
I1100
sS'TACCCT'
p2425
I7119
sS'TAACCT'
p2426
I2221
sS'GTGAAG'
p2427
I8812
sS'GTGAAA'
p2428
I7727
sS'GTGAAC'
p2429
I4701
sS'CAATAG'
p2430
I2506
sS'TGCATA'
p2431
I14036
sS'ACCGCG'
p2432
I2713
sS'ACCGCA'
p2433
I2752
sS'CCCTAT'
p2434
I3123
sS'ACCGCC'
p2435
I4828
sS'AGTTCC'
p2436
I13278
sS'CCGCCT'
p2437
I2459
sS'AGGCTT'
p2438
I5441
sS'CCTTCT'
p2439
I10165
sS'CGAGCT'
p2440
I680
sS'GTTGCA'
p2441
I6902
sS'AACGAA'
p2442
I2236
sS'GATCAA'
p2443
I7920
sS'GTGCCG'
p2444
I4346
sS'GTGCCA'
p2445
I14715
sS'GTTGCG'
p2446
I1529
sS'GTGCCC'
p2447
I15569
sS'CCTTCA'
p2448
I13420
sS'AGGCTA'
p2449
I9287
sS'CCTTCC'
p2450
I22888
sS'AGGCTC'
p2451
I12614
sS'CCGCCC'
p2452
I8147
sS'TGTCGA'
p2453
I1046
sS'CCGCCA'
p2454
I2502
sS'AGGCTG'
p2455
I29508
sS'GTGCCT'
p2456
I11587
sS'TCCAAA'
p2457
I12222
sS'GTTGCT'
p2458
I4133
sS'NNNGCG'
p2459
I1
sS'GGATAT'
p2460
I812
sS'ATAGGT'
p2461
I826
sS'TCGGGT'
p2462
I420
sS'AAACCT'
p2463
I2675
sS'GCAGTT'
p2464
I1061
sS'GAAGCT'
p2465
I5522
sS'TCGGGC'
p2466
I1160
sS'TCGGGA'
p2467
I1081
sS'NNNNNG'
p2468
I1
sS'TCGGGG'
p2469
I2083
sS'GGATAG'
p2470
I1079
sS'GAAGCG'
p2471
I3261
sS'GCAGTG'
p2472
I7857
sS'GAAGCC'
p2473
I11691
sS'GCAGTA'
p2474
I3399
sS'GAAGCA'
p2475
I11434
sS'GCAGTC'
p2476
I2605
sS'CGCCCG'
p2477
I7870
sS'GAGAGA'
p2478
I25196
sS'GTTCAT'
p2479
I2529
sS'GAGAGG'
p2480
I28979
sS'CGCCCA'
p2481
I7866
sS'ACGTAA'
p2482
I836
sS'ACGCAG'
p2483
I1280
sS'NNNNNN'
p2484
I6
sS'ACGCAC'
p2485
I806
sS'CTATAA'
p2486
I3862
sS'CTCGCA'
p2487
I3537
sS'CTCGCC'
p2488
I8043
sS'GAGAGT'
p2489
I7867
sS'AAACAT'
p2490
I2447
sS'CTATAT'
p2491
I2009
sS'AACTGA'
p2492
I19602
sS'GCCGGG'
p2493
I11318
sS'AGCATC'
p2494
I11012
sS'GCCGGC'
p2495
I6176
sS'CATGTT'
p2496
I4816
sS'GCCGGA'
p2497
I3596
sS'AGATCT'
p2498
I2892
sS'AGTTTA'
p2499
I18744
sS'GCCACT'
p2500
I10991
sS'CATGTA'
p2501
I12700
sS'CATGTC'
p2502
I8905
sS'GCCGGT'
p2503
I1301
sS'CATGTG'
p2504
I18708
sS'GTGCGA'
p2505
I1273
sS'GTTGCC'
p2506
I6840
sS'GGCCTG'
p2507
I24789
sS'GGCCTC'
p2508
I20651
sS'NNGCGC'
p2509
I1
sS'GGCCTA'
p2510
I7786
sS'TTTGTT'
p2511
I6622
sS'AATCGG'
p2512
I1767
sS'AATCGC'
p2513
I2087
sS'AATCGA'
p2514
I1452
sS'GTTCAG'
p2515
I7543
sS'GGCCTT'
p2516
I5153
sS'TCACTA'
p2517
I3861
sS'TCACTC'
p2518
I3792
sS'AATCGT'
p2519
I1063
sS'TGGATT'
p2520
I2480
sS'AGCCGA'
p2521
I4400
sS'CCGCCG'
p2522
I2380
sS'AGCCGC'
p2523
I7856
sS'TAATTG'
p2524
I7956
sS'TAATTA'
p2525
I10757
sS'AGCCGG'
p2526
I8493
sS'GTTTTT'
p2527
I7728
sS'TGGTGA'
p2528
I8474
sS'GATGGA'
p2529
I9755
sS'TGGTGC'
p2530
I6630
sS'GATGGC'
p2531
I8227
sS'GGGCTG'
p2532
I21118
sS'TGGTGG'
p2533
I11180
sS'GATGGG'
p2534
I13019
sS'AAAAAA'
p2535
I16406
sS'GAGCGG'
p2536
I7346
sS'GTTTTG'
p2537
I23629
sS'GTTCAA'
p2538
I5798
sS'GAGCGC'
p2539
I5959
sS'TGACAG'
p2540
I2542
sS'CCAAGG'
p2541
I5725
sS'ACGTAT'
p2542
I406
sS'TCTCAG'
p2543
I10445
sS'GATGGT'
p2544
I4574
sS'TGGTGT'
p2545
I6070
sS'GGGCTT'
p2546
I3306
sS'AGAACT'
p2547
I5129
sS'GCATTA'
p2548
I5293
sS'GCGTTT'
p2549
I807
sS'CCTTCG'
p2550
I3702
sS'TACCAT'
p2551
I4911
sS'GATTTC'
p2552
I16851
sS'AGATAG'
p2553
I2379
sS'ACCCGG'
p2554
I4358
sS'ACCCGA'
p2555
I1802
sS'ATGTCT'
p2556
I8364
sS'ACCCGC'
p2557
I3628
sS'AGATAA'
p2558
I3929
sS'TACCAC'
p2559
I8089
sS'AGAACG'
p2560
I1818
sS'TACCAA'
p2561
I8746
sS'AGAACA'
p2562
I9849
sS'TACCAG'
p2563
I9931
sS'AGAACC'
p2564
I6786
sS'ATGTCA'
p2565
I13636
sS'CACTGG'
p2566
I23549
sS'CCTATG'
p2567
I6154
sS'TGACAA'
p2568
I1738
sS'ACCAGG'
p2569
I13046
sS'CACTGC'
p2570
I27827
sS'ATGTCG'
p2571
I1583
sS'CACTGA'
p2572
I21779
sS'TAGGTT'
p2573
I2429
sS'CTATAC'
p2574
I1934
sS'GTTTAC'
p2575
I7684
sS'AATTAT'
p2576
I7165
sS'CTGTTG'
p2577
I18119
sS'GTAACC'
p2578
I4740
sS'CTGTTC'
p2579
I13140
sS'CGGGTT'
p2580
I558
sS'CTGTTA'
p2581
I14586
sS'AATTAC'
p2582
I10368
sS'TAGGTG'
p2583
I9041
sS'TAGGTA'
p2584
I7483
sS'TAGGTC'
p2585
I5000
sS'CGGGTC'
p2586
I2119
sS'CTGTTT'
p2587
I9515
sS'CGGGTA'
p2588
I1429
sS'CGGGTG'
p2589
I4003
sS'CTTCGG'
p2590
I2981
sS'AAGTAA'
p2591
I9923
sS'CATTAC'
p2592
I9283
sS'AGCAAA'
p2593
I19677
sS'ATATAT'
p2594
I2934
sS'AGCAAC'
p2595
I12103
sS'TTAGGC'
p2596
I1982
sS'AAAGCT'
p2597
I4714
sS'TTAGGA'
p2598
I2990
sS'AAAGCA'
p2599
I13048
sS'AAAGCC'
p2600
I9692
sS'TTAGGT'
p2601
I1353
sS'TCATTG'
p2602
I8681
sS'AGCAAT'
p2603
I8831
sS'ATATAC'
p2604
I2601
sS'TACTTC'
p2605
I19338
sS'ATAGCC'
p2606
I2956
sS'TACTTG'
p2607
I21879
sS'ATAGCG'
p2608
I617
sS'CAGCAT'
p2609
I3557
sS'TGCTAA'
p2610
I14474
sS'ATAGCT'
p2611
I2180
sS'TACTTT'
p2612
I14780
sS'CGCATA'
p2613
I1443
sS'CGAGTT'
p2614
I214
sS'TCCAAT'
p2615
I4295
sS'CGTACT'
p2616
I860
sS'CAGCGG'
p2617
I4943
sS'TATGCT'
p2618
I6637
sS'CTTAAG'
p2619
I8874
sS'ACATAA'
p2620
I2619
sS'CTTAAA'
p2621
I10919
sS'AGGGGT'
p2622
I2507
sS'CTTAAC'
p2623
I6217
sS'TCCAAG'
p2624
I13321
sS'CGAGTG'
p2625
I1379
sS'TTGTTA'
p2626
I16747
sS'TCCAAC'
p2627
I7889
sS'CGTACG'
p2628
I524
sS'AGGGGA'
p2629
I7322
sS'CTTAAT'
p2630
I3705
sS'AGGGGC'
p2631
I6293
sS'TATGCA'
p2632
I11888
sS'TATGCC'
p2633
I8019
sS'CGTTTG'
p2634
I4393
sS'CGACTT'
p2635
I195
sS'TGAATT'
p2636
I1970
sS'TTGTAA'
p2637
I7310
sS'TTGTAC'
p2638
I4186
sS'GTACCT'
p2639
I1470
sS'TTGTAG'
p2640
I6283
sS'TGAATC'
p2641
I4955
sS'ACAACA'
p2642
I5894
sS'TGAATA'
p2643
I8089
sS'CGACTC'
p2644
I711
sS'TGAATG'
p2645
I10050
sS'AAGTAT'
p2646
I4470
sS'CGACTG'
p2647
I1003
sS'TTGTAT'
p2648
I4500
sS'ATCGTG'
p2649
I2389
sS'GCTTCG'
p2650
I3291
sS'GCTTCA'
p2651
I11212
sS'GCTTCC'
p2652
I16291
sS'TGGGAG'
p2653
I9222
sS'TGGGAA'
p2654
I5742
sS'TGGGAC'
p2655
I4029
sS'GCTTCT'
p2656
I8311
sS'ATCGTT'
p2657
I560
sS'ACAACG'
p2658
I866
sS'TGGGAT'
p2659
I2158
sS'ACGCGC'
p2660
I896
sS'CTAGCC'
p2661
I4312
sS'GACCAT'
p2662
I4211
sS'CTAGCG'
p2663
I1103
sS'CGGTAG'
p2664
I954
sS'ACTTAG'
p2665
I5789
sS'TAGATT'
p2666
I3217
sS'ACTTAA'
p2667
I7429
sS'CGGTAC'
p2668
I631
sS'TACACT'
p2669
I11391
sS'CGGTAA'
p2670
I695
sS'GACCAG'
p2671
I14915
sS'GACCAC'
p2672
I8814
sS'GACCAA'
p2673
I10076
sS'TACACC'
p2674
I9765
sS'CGGTAT'
p2675
I344
sS'TACACA'
p2676
I22146
sS'TACACG'
p2677
I3492
sS'GCGAGA'
p2678
I1705
sS'GAGAGC'
p2679
I13911
sS'GCGAGC'
p2680
I1776
sS'GGCCGT'
p2681
I2049
sS'GCGAGG'
p2682
I3930
sS'TTAAGA'
p2683
I7312
sS'CAGCCG'
p2684
I5244
sS'CAGCCA'
p2685
I15949
sS'CAGCCC'
p2686
I18968
sS'GCTGAA'
p2687
I5367
sS'GCGAGT'
p2688
I616
sS'CAGCCT'
p2689
I12044
sS'GAACTC'
p2690
I5117
sS'GAACTA'
p2691
I5159
sS'GGACTT'
p2692
I739
sS'CACCTA'
p2693
I13068
sS'AACTAT'
p2694
I7317
sS'CACCTC'
p2695
I20778
sS'CACCTG'
p2696
I24133
sS'TGATCC'
p2697
I3887
sS'AACACT'
p2698
I15562
sS'TGATCA'
p2699
I3674
sS'TGATCG'
p2700
I528
sS'AACTAG'
p2701
I10492
sS'GGACTG'
p2702
I3854
sS'CACCTT'
p2703
I6995
sS'GGACTA'
p2704
I2169
sS'GGACTC'
p2705
I2073
sS'AACGAT'
p2706
I864
sS'AACACG'
p2707
I4972
sS'AACACA'
p2708
I27531
sS'AACACC'
p2709
I15510
sS'TGATCT'
p2710
I2914
sS'AAAGAC'
p2711
I4742
sS'GCATTC'
p2712
I5404
sS'CAACAG'
p2713
I3142
sS'GACAGT'
p2714
I12120
sS'CAACAA'
p2715
I2851
sS'AAAGAA'
p2716
I9178
sS'CAACAC'
p2717
I1964
sS'GCTGAT'
p2718
I1804
sS'ACGCAA'
p2719
I538
sS'GACAGG'
p2720
I25420
sS'AAAGAG'
p2721
I7950
sS'GACAGC'
p2722
I18043
sS'GACAGA'
p2723
I25103
sS'GTATTA'
p2724
I8917
sS'GTATTC'
p2725
I5039
sS'GTAAGT'
p2726
I2888
sS'ATATCA'
p2727
I7015
sS'AGAGGT'
p2728
I1909
sS'GGTGGC'
p2729
I6798
sS'TCCCCT'
p2730
I9112
sS'GGTGGA'
p2731
I6204
sS'TATCTT'
p2732
I8125
sS'GGTGGG'
p2733
I11579
sS'AGAGGC'
p2734
I4553
sS'GTAAGA'
p2735
I4980
sS'AGAGGA'
p2736
I5150
sS'CGCCCT'
p2737
I5723
sS'GTATTT'
p2738
I4981
sS'ACCGAG'
p2739
I2275
sS'GTAAGG'
p2740
I5343
sS'TCCCCG'
p2741
I7286
sS'CGTCAC'
p2742
I2644
sS'TCCCCC'
p2743
I11366
sS'GGTGGT'
p2744
I2477
sS'TATCTG'
p2745
I18860
sS'GTCGCG'
p2746
I2196
sS'GTCGCA'
p2747
I2127
sS'GTCGCC'
p2748
I4681
sS'CCGTCT'
p2749
I1822
sS'TCGGTA'
p2750
I853
sS'CTCGCG'
p2751
I3750
sS'TCGGTG'
p2752
I1862
sS'GTCGCT'
p2753
I2112
sS'GTAACT'
p2754
I4100
sS'CCGTCG'
p2755
I907
sS'ATTTAT'
p2756
I6377
sS'CCGTCA'
p2757
I1810
sS'CCGTCC'
p2758
I3563
sS'GGCTGT'
p2759
I11608
sS'CGCGTG'
p2760
I3322
sS'GCATTT'
p2761
I2581
sS'CGCGTC'
p2762
I3097
sS'CGCGTA'
p2763
I918
sS'CCACTG'
p2764
I5968
sS'ATGCAA'
p2765
I5792
sS'CCACTC'
p2766
I2876
sS'CGCGTT'
p2767
I682
sS'GGCTGG'
p2768
I32820
sS'GGCTGA'
p2769
I18329
sS'GGCTGC'
p2770
I23761
sS'ATGCAT'
p2771
I2825
sS'CCTACC'
p2772
I6642
sS'TTTCAT'
p2773
I5463
sS'ATGACG'
p2774
I2075
sS'GGAGTT'
p2775
I1013
sS'ATGACA'
p2776
I10671
sS'ATGACC'
p2777
I7486
sS'CCTGAT'
p2778
I1605
sS'GGGCCT'
p2779
I6310
sS'ATGACT'
p2780
I9168
sS'GGAGTA'
p2781
I2708
sS'CTACGC'
p2782
I641
sS'GGAGTC'
p2783
I2691
sS'GGAGTG'
p2784
I5912
sS'GGGCCG'
p2785
I5315
sS'GGGCCC'
p2786
I11030
sS'GGGCCA'
p2787
I8565
sS'CTGATC'
p2788
I5375
sS'ACGAGT'
p2789
I408
sS'AGGCCA'
p2790
I13532
sS'AGGCCC'
p2791
I14213
sS'GCGCAG'
p2792
I2345
sS'ACGAGG'
p2793
I1857
sS'AGTATC'
p2794
I5501
sS'ACGAGC'
p2795
I840
sS'ACGAGA'
p2796
I971
sS'CTGATG'
p2797
I12409
sS'AGGCCT'
p2798
I8612
sS'GCTCTA'
p2799
I7598
sS'ACATCT'
p2800
I3098
sS'GGGTTG'
p2801
I8478
sS'GACTAC'
p2802
I9559
sS'CTTCGT'
p2803
I1065
sS'GGGTTC'
p2804
I5521
sS'TTTGAT'
p2805
I2926
sS'TGAACT'
p2806
I4394
sS'CTACGA'
p2807
I481
sS'ATTGCT'
p2808
I3824
sS'TGCGAA'
p2809
I1311
sS'TGCGAC'
p2810
I1502
sS'AGAAAT'
p2811
I3535
sS'TGCGAG'
p2812
I2789
sS'AACGGC'
p2813
I2235
sS'TTTGAG'
p2814
I10534
sS'AACGGA'
p2815
I2292
sS'TTTGGC'
p2816
I5707
sS'AACGGG'
p2817
I3155
sS'TTTGAC'
p2818
I5772
sS'TTTGAA'
p2819
I10170
sS'ATCATC'
p2820
I9677
sS'CGGGCT'
p2821
I2269
sS'CTCGTA'
p2822
I1997
sS'CTCGTC'
p2823
I3046
sS'CCCTGG'
p2824
I24206
sS'CCCTGA'
p2825
I14922
sS'CTCGTG'
p2826
I4510
sS'CCCTGC'
p2827
I23200
sS'GCAGCA'
p2828
I5292
sS'CCCTGT'
p2829
I9817
sS'AAGCTC'
p2830
I11536
sS'GATATA'
p2831
I10173
sS'TGACGG'
p2832
I749
sS'GATATG'
p2833
I10821
sS'AAGCTG'
p2834
I21322
sS'TGACGC'
p2835
I763
sS'TACTCT'
p2836
I14238
sS'CATCGT'
p2837
I1255
sS'CAGGGT'
p2838
I3994
sS'CCAGTC'
p2839
I2936
sS'TACGAT'
p2840
I698
sS'CCAGTG'
p2841
I6176
sS'TACTCG'
p2842
I3621
sS'CATCGA'
p2843
I1382
sS'CATCGC'
p2844
I2248
sS'TACTCC'
p2845
I13797
sS'NGAATT'
p2846
I1
sS'TACTCA'
p2847
I22185
sS'CATCGG'
p2848
I1897
sS'CAGGGG'
p2849
I10731
sS'GAACCT'
p2850
I2264
sS'CCAGTT'
p2851
I1046
sS'CAGGGC'
p2852
I11966
sS'AATCTG'
p2853
I17435
sS'CGGACT'
p2854
I1315
sS'GCCATT'
p2855
I4304
sS'AATCTA'
p2856
I12389
sS'TGAACG'
p2857
I1156
sS'TCACAC'
p2858
I1566
sS'TCACAA'
p2859
I1758
sS'GTCTCG'
p2860
I7072
sS'GCCATA'
p2861
I8064
sS'CGGACG'
p2862
I1525
sS'TCCACC'
p2863
I19194
sS'CGGACA'
p2864
I2007
sS'CGGACC'
p2865
I2736
sS'GCCATG'
p2866
I15152
sS'TTTTAA'
p2867
I23180
sS'TCACAT'
p2868
I1163
sS'ATTAAC'
p2869
I5530
sS'ATTAAA'
p2870
I11931
sS'ATTAAG'
p2871
I8054
sS'CTTACA'
p2872
I8696
sS'TCACTT'
p2873
I1813
sS'TCCACG'
p2874
I4873
sS'GTGCAG'
p2875
I11296
sS'GAACCG'
p2876
I1268
sS'ATTAAT'
p2877
I3538
sS'TACCTG'
p2878
I15137
sS'GGTATG'
p2879
I6145
sS'GGTATA'
p2880
I4325
sS'GGTATC'
p2881
I2972
sS'CGAGAG'
p2882
I951
sS'ACTGAA'
p2883
I5264
sS'CAATGA'
p2884
I4723
sS'ACGAAT'
p2885
I226
sS'GGTATT'
p2886
I1962
sS'CTGAAC'
p2887
I5328
sS'CTGAAG'
p2888
I10241
sS'NNNNGC'
p2889
I1
sS'NNNNGA'
p2890
I1
sS'CATTGC'
p2891
I13080
sS'TATGAG'
p2892
I10172
sS'CATTGA'
p2893
I11113
sS'CTAGTT'
p2894
I1277
sS'CATTGG'
p2895
I11412
sS'TCAACT'
p2896
I2426
sS'ACCATC'
p2897
I6618
sS'ACACCG'
p2898
I619
sS'CTGCCA'
p2899
I21847
sS'CTGCCC'
p2900
I29744
sS'ACACCC'
p2901
I2983
sS'ACACCA'
p2902
I2448
sS'CTGCCG'
p2903
I7364
sS'CTAGTG'
p2904
I5234
sS'TCAACC'
p2905
I3429
sS'TCAACA'
p2906
I5590
sS'CTAGTC'
p2907
I2825
sS'TCAACG'
p2908
I749
sS'CTAGTA'
p2909
I3742
sS'CATTGT'
p2910
I10960
sS'TATGAC'
p2911
I8541
sS'ACACCT'
p2912
I1377
sS'CTGCCT'
p2913
I20713
sS'CCTCGT'
p2914
I901
sS'TATGAA'
p2915
I10525
sS'AGACTG'
p2916
I6205
sS'AGACTC'
p2917
I3683
sS'AGACTA'
p2918
I3444
sS'CCTCGG'
p2919
I4647
sS'CCTCGC'
p2920
I3619
sS'CCCGAC'
p2921
I2571
sS'CCTCGA'
p2922
I1459
sS'CGAGGA'
p2923
I892
sS'CGAGGC'
p2924
I1246
sS'CGAGGG'
p2925
I1621
sS'CACCGT'
p2926
I2189
sS'ACTTTA'
p2927
I14729
sS'ACTTTG'
p2928
I16997
sS'GACCTG'
p2929
I20953
sS'GACCTA'
p2930
I10345
sS'GACCTC'
p2931
I17399
sS'CACCGG'
p2932
I4462
sS'CTATTG'
p2933
I8099
sS'CACCGA'
p2934
I2751
sS'CACCGC'
p2935
I6602
sS'GACCTT'
p2936
I8337
sS'CGCCCC'
p2937
I16734
sS'GGACGG'
p2938
I1119
sS'ACGCTA'
p2939
I1001
sS'CACAGC'
p2940
I23079
sS'CTTATC'
p2941
I7972
sS'CACAGA'
p2942
I23235
sS'CTTATA'
p2943
I8718
sS'CACAGG'
p2944
I25318
sS'TTAACT'
p2945
I5038
sS'ACTCAT'
p2946
I3178
sS'GAGGAG'
p2947
I24096
sS'GACGTA'
p2948
I2400
sS'CTTGAC'
p2949
I5021
sS'GACGTC'
p2950
I4233
sS'GAGGAC'
p2951
I9615
sS'GAGGAA'
p2952
I16788
sS'GACGTG'
p2953
I6082
sS'TTAACA'
p2954
I8608
sS'ACTCAC'
p2955
I6551
sS'TTAACC'
p2956
I5865
sS'TTGTGA'
p2957
I9901
sS'ACTCAG'
p2958
I9702
sS'TTAACG'
p2959
I1193
sS'CACAGT'
p2960
I13880
sS'AGCGAC'
p2961
I2384
sS'TAAACA'
p2962
I17601
sS'AGCGAA'
p2963
I2179
sS'TAAACC'
p2964
I7184
sS'GACGTT'
p2965
I1833
sS'CGTATT'
p2966
I611
sS'TAAACG'
p2967
I1759
sS'CTGTGG'
p2968
I18614
sS'GTATGT'
p2969
I4538
sS'AGTTCA'
p2970
I15389
sS'CTGTGC'
p2971
I13686
sS'CTGTGA'
p2972
I14098
sS'CGGGGT'
p2973
I1185
sS'TAGGAC'
p2974
I4214
sS'GCAAAG'
p2975
I4616
sS'TAGGAA'
p2976
I7829
sS'GCAAAA'
p2977
I3027
sS'TAGGAG'
p2978
I8020
sS'GCAAAC'
p2979
I2611
sS'CGGGGC'
p2980
I4406
sS'CGGGGA'
p2981
I2702
sS'CTGTGT'
p2982
I12887
sS'CGGGGG'
p2983
I3623
sS'GTATGC'
p2984
I3226
sS'AGTTCT'
p2985
I10297
sS'GCAAAT'
p2986
I1480
sS'CGAGAA'
p2987
I495
sS'TAGGAT'
p2988
I2265
sS'AAAAAT'
p2989
I4415
sS'TTCAAT'
p2990
I7513
sS'TGCTTT'
p2991
I16873
sS'ACAGGA'
p2992
I2901
sS'ACTAGG'
p2993
I4811
sS'GTTACC'
p2994
I5574
sS'GTTACA'
p2995
I7847
sS'TAATTC'
p2996
I6057
sS'TATCGA'
p2997
I937
sS'TATCGC'
p2998
I1184
sS'TGGAAC'
p2999
I5248
sS'GTCTAA'
p3000
I9099
sS'CAGGAC'
p3001
I6889
sS'TTCAAG'
p3002
I18993
sS'TGCTTC'
p3003
I26966
sS'TTCAAA'
p3004
I22415
sS'TTCAAC'
p3005
I11555
sS'GGGCTC'
p3006
I10618
sS'TATAGC'
p3007
I6465
sS'TATCGT'
p3008
I858
sS'TATAGA'
p3009
I9306
sS'AGTGGG'
p3010
I9600
sS'TATAGG'
p3011
I8000
sS'GTGGCG'
p3012
I4858
sS'GTTACT'
p3013
I5133
sS'GCTCTC'
p3014
I9523
sS'GGAAAC'
p3015
I4032
sS'GGGCTA'
p3016
I5484
sS'GCTCTG'
p3017
I20690
sS'CCACGT'
p3018
I477
sS'CAATAT'
p3019
I1332
sS'AGGACC'
p3020
I9601
sS'ACTAGA'
p3021
I4425
sS'GGCTTT'
p3022
I9056
sS'ACTACT'
p3023
I3128
sS'GAATGC'
p3024
I7069
sS'GCATAA'
p3025
I1641
sS'AACCTG'
p3026
I18912
sS'CCACGC'
p3027
I956
sS'GGCGTA'
p3028
I1657
sS'GTTCCG'
p3029
I2119
sS'AACCTC'
p3030
I14803
sS'CCACGG'
p3031
I897
sS'AACCTA'
p3032
I12158
sS'GGCTTA'
p3033
I14542
sS'ACTACC'
p3034
I3919
sS'GGCTTC'
p3035
I20821
sS'ACTACA'
p3036
I6392
sS'ACTACG'
p3037
I1221
sS'GGCTTG'
p3038
I20700
sS'TCCTAG'
p3039
I11528
sS'AGTCAG'
p3040
I14593
sS'CGTTGC'
p3041
I2544
sS'TAACAC'
p3042
I2421
sS'TCCTAC'
p3043
I8589
sS'AGTCAC'
p3044
I13489
sS'CGTTGG'
p3045
I2645
sS'TAACAG'
p3046
I3899
sS'TCATCG'
p3047
I1129
sS'AAGCGT'
p3048
I1269
sS'TCATCC'
p3049
I6163
sS'GTTTTA'
p3050
I22781
sS'CTTTCT'
p3051
I16240
sS'AGTCAT'
p3052
I7384
sS'TCCTAT'
p3053
I5422
sS'TAACAT'
p3054
I1673
sS'CGTTGT'
p3055
I1411
sS'TAAATA'
p3056
I19033
sS'CTTTCC'
p3057
I24354
sS'CTTTCA'
p3058
I20081
sS'CTTTCG'
p3059
I3674
sS'GCGGGT'
p3060
I741
sS'AGCCGT'
p3061
I2229
sS'AAAAAG'
p3062
I10645
sS'GTTGAT'
p3063
I1774
sS'CGACCA'
p3064
I425
sS'CGACCC'
p3065
I706
sS'CGACCG'
p3066
I280
sS'CCTTAT'
p3067
I3202
sS'GTTGAC'
p3068
I3829
sS'GTTGAA'
p3069
I4960
sS'ACTGGG'
p3070
I7273
sS'GTTGAG'
p3071
I5847
sS'CCTTAC'
p3072
I4322
sS'TTCGAT'
p3073
I544
sS'CCTTAA'
p3074
I6606
sS'CCTTAG'
p3075
I6567
sS'CGACCT'
p3076
I338
sS'CAACTC'
p3077
I3218
sS'AATAGC'
p3078
I8789
sS'CAACTG'
p3079
I5225
sS'AATAGG'
p3080
I9963
sS'AATATC'
p3081
I8823
sS'CCAAGC'
p3082
I3072
sS'GGGGTT'
p3083
I1467
sS'GGATGT'
p3084
I1718
sS'AATAGT'
p3085
I6734
sS'TCTCAC'
p3086
I6147
sS'CAACTT'
p3087
I1086
sS'ACTGTA'
p3088
I9109
sS'GGGGTG'
p3089
I10848
sS'GGATGA'
p3090
I2443
sS'GGGGTC'
p3091
I2838
sS'GGGGTA'
p3092
I3256
sS'TCTCCG'
p3093
I2838
sS'GAGTCC'
p3094
I15153
sS'GAGTCA'
p3095
I30715
sS'TCTCCC'
p3096
I10916
sS'GAGTCG'
p3097
I4215
sS'TCTCCA'
p3098
I9862
sS'AAACTC'
p3099
I5063
sS'CTATGA'
p3100
I5645
sS'AGTACG'
p3101
I1444
sS'CTATGC'
p3102
I3952
sS'AGTACC'
p3103
I5681
sS'ACGCGG'
p3104
I1147
sS'AGTACA'
p3105
I8967
sS'CCCTTA'
p3106
I14640
sS'CCCTTC'
p3107
I24032
sS'TCTCCT'
p3108
I6030
sS'GAGTCT'
p3109
I11937
sS'AGTACT'
p3110
I5687
sS'ACGCGT'
p3111
I214
sS'GCCGAA'
p3112
I1657
sS'GTGGAG'
p3113
I9070
sS'GCCGAC'
p3114
I2395
sS'GTGGAC'
p3115
I3350
sS'GCCGAG'
p3116
I6088
sS'GTGGAA'
p3117
I5451
sS'TATCAT'
p3118
I5784
sS'GTGGAT'
p3119
I1607
sS'GCCGAT'
p3120
I510
sS'CCTATT'
p3121
I2057
sS'CACTGT'
p3122
I16647
sS'GTAGTC'
p3123
I2712
sS'AAATCG'
p3124
I1068
sS'CACGCG'
p3125
I3146
sS'TTATCG'
p3126
I973
sS'GTAGTG'
p3127
I4544
sS'AAATCC'
p3128
I6634
sS'CACGCC'
p3129
I9853
sS'AAATCA'
p3130
I9286
sS'CTACGT'
p3131
I416
sS'AGAGGG'
p3132
I6656
sS'AGATAC'
p3133
I1819
sS'CACGCT'
p3134
I3056
sS'AAATCT'
p3135
I4765
sS'ACCGAT'
p3136
I320
sS'GTAGTT'
p3137
I1365
sS'ACCAGT'
p3138
I4705
sS'CGTTAT'
p3139
I748
sS'ATAGTC'
p3140
I2224
sS'GATGAT'
p3141
I4996
sS'GGAGCA'
p3142
I4206
sS'GGAGCC'
p3143
I6426
sS'CCGGCT'
p3144
I1630
sS'CCAAAT'
p3145
I1324
sS'GGAGCG'
p3146
I1876
sS'AAAACT'
p3147
I6219
sS'GATGAC'
p3148
I11122
sS'GATGAA'
p3149
I12341
sS'GCTCTT'
p3150
I3040
sS'GATGAG'
p3151
I14449
sS'AAAACC'
p3152
I9839
sS'ACTAAC'
p3153
I3442
sS'CCAAAC'
p3154
I2302
sS'AAAACG'
p3155
I2300
sS'GGAGCT'
p3156
I2638
sS'CCAAAG'
p3157
I4056
sS'TCGCGG'
p3158
I1095
sS'CTAGAG'
p3159
I3026
sS'TCGCGC'
p3160
I844
sS'ACGTCG'
p3161
I594
sS'GCCACA'
p3162
I17482
sS'AGATCA'
p3163
I5491
sS'GCCACC'
p3164
I19914
sS'AGATCC'
p3165
I4004
sS'CGACGG'
p3166
I436
sS'GCCACG'
p3167
I6579
sS'AGATCG'
p3168
I1130
sS'ACCAGC'
p3169
I10084
sS'TCGCGT'
p3170
I237
sS'GTGCAA'
p3171
I5678
sS'ACCCGT'
p3172
I835
sS'AGAAAG'
p3173
I10323
sS'TACCCG'
p3174
I2581
sS'AGAAAC'
p3175
I6147
sS'TACCCA'
p3176
I11176
sS'AGAAAA'
p3177
I8644
sS'TACCCC'
p3178
I7513
sS'ATGTAC'
p3179
I3505
sS'ACTTCG'
p3180
I2125
sS'ATGTAA'
p3181
I6881
sS'ATGTAG'
p3182
I4761
sS'GAGGAT'
p3183
I3756
sS'ACTGTG'
p3184
I13308
sS'ATTAGG'
p3185
I5862
sS'GACGAC'
p3186
I2405
sS'CCTATC'
p3187
I3734
sS'ATGTAT'
p3188
I3409
sS'GTTCCA'
p3189
I6506
sS'ATTAGC'
p3190
I4470
sS'ATCCAT'
p3191
I2776
sS'AGCACT'
p3192
I15786
sS'TTAGAA'
p3193
I2999
sS'CGGCTG'
p3194
I7276
sS'TTAGAC'
p3195
I1679
sS'CGGCTC'
p3196
I5619
sS'TTAGAG'
p3197
I3131
sS'CGGCTA'
p3198
I1940
sS'AGCACC'
p3199
I17520
sS'AGCACA'
p3200
I21915
sS'AGCACG'
p3201
I5364
sS'CGGCTT'
p3202
I1134
sS'TTAGAT'
p3203
I1116
sS'CCAGCA'
p3204
I5415
sS'ACCTAT'
p3205
I2753
sS'CCAGCC'
p3206
I8920
sS'ATATCC'
p3207
I5199
sS'AACTAC'
p3208
I10058
sS'CCAGCG'
p3209
I1636
sS'CGACGT'
p3210
I137
sS'TTATTT'
p3211
I7266
sS'TGTGAG'
p3212
I12644
sS'TGTGAA'
p3213
I9308
sS'CTACCT'
p3214
I2097
sS'TGTGAC'
p3215
I9641
sS'ATATCT'
p3216
I4575
sS'CCAGCT'
p3217
I2970
sS'CACGGT'
p3218
I1662
sS'AAAGAT'
p3219
I2167
sS'TGTGAT'
p3220
I4066
sS'TTATTG'
p3221
I11745
sS'TTATTA'
p3222
I15801
sS'CATGAT'
p3223
I3491
sS'TTATTC'
p3224
I8274
sS'AGACGG'
p3225
I1241
sS'TTTTAT'
p3226
I8739
sS'GCGAAC'
p3227
I625
sS'TACAAG'
p3228
I13129
sS'TCCACT'
p3229
I10533
sS'TACAAA'
p3230
I20635
sS'AGACGA'
p3231
I587
sS'TACAAC'
p3232
I9390
sS'CCTCTG'
p3233
I22508
sS'AGGTGG'
p3234
I13358
sS'CCTCTC'
p3235
I14765
sS'AGGTGC'
p3236
I6758
sS'CCTCTA'
p3237
I9737
sS'AGGTGA'
p3238
I9116
sS'CTTACG'
p3239
I1868
sS'TCCACA'
p3240
I17013
sS'TTTTAG'
p3241
I11920
sS'ACATCG'
p3242
I772
sS'CTTACC'
p3243
I7324
sS'ACATCA'
p3244
I5279
sS'TTTTAC'
p3245
I9228
sS'ACATCC'
p3246
I4240
sS'AGGTGT'
p3247
I5685
sS'CCTCTT'
p3248
I4025
sS'CGTCGG'
p3249
I1853
sS'CCCGGC'
p3250
I7835
sS'CCCGGA'
p3251
I3672
sS'NNCTGA'
p3252
I1
sS'CCCGGG'
p3253
I9512
sS'TTGTGT'
p3254
I9205
sS'TGGAAT'
p3255
I4726
sS'AATTAA'
p3256
I15745
sS'TTGTGC'
p3257
I7858
sS'TATGAT'
p3258
I4498
sS'TTGTGG'
p3259
I11460
sS'CCCGGT'
p3260
I1298
sS'TGGAAG'
p3261
I10798
sS'GGTTTT'
p3262
I4697
sS'TATCAC'
p3263
I8039
sS'TGGAAA'
p3264
I8861
sS'TGAGGA'
p3265
I3318
sS'AAGAGG'
p3266
I20489
sS'TGAGGC'
p3267
I3330
sS'AAGAGA'
p3268
I18745
sS'AAGAGC'
p3269
I11695
sS'TGAGGG'
p3270
I4104
sS'GCTTAG'
p3271
I5873
sS'GCTTAC'
p3272
I3747
sS'GCTTAA'
p3273
I5912
sS'TGATTC'
p3274
I5230
sS'AAGCGC'
p3275
I2853
sS'AAGAGT'
p3276
I7210
sS'AAGCGA'
p3277
I2347
sS'NGCGCC'
p3278
I1
sS'AAGCGG'
p3279
I3727
sS'GCTTAT'
p3280
I2624
sS'CTGCTA'
p3281
I12996
sS'GCGTGT'
p3282
I1347
sS'CTGCTC'
p3283
I21291
sS'ACTTCT'
p3284
I6464
sS'GACCGT'
p3285
I1844
sS'CTGCTG'
p3286
I35008
sS'CGGTCA'
p3287
I2025
sS'GGTCGT'
p3288
I694
sS'CGGTCC'
p3289
I3512
sS'CTAGAA'
p3290
I2390
sS'CGGTCG'
p3291
I1029
sS'GACCGA'
p3292
I2815
sS'GACCGC'
p3293
I4470
sS'ACTTCC'
p3294
I12973
sS'CTGCTT'
p3295
I10037
sS'GACCGG'
p3296
I4723
sS'CTAGAT'
p3297
I911
sS'GGTCGG'
p3298
I2722
sS'CGGTCT'
p3299
I1583
sS'GGTCGC'
p3300
I2206
sS'GGTCGA'
p3301
I1052
sS'CGTCGC'
p3302
I1951
sS'GCGTGG'
p3303
I3683
sS'TGAAGC'
p3304
I4807
sS'GCGTGA'
p3305
I1928
sS'GCGTGC'
p3306
I2096
sS'TGCTCA'
p3307
I23295
sS'TTCATC'
p3308
I16188
sS'TGCTCC'
p3309
I23033
sS'TTCATA'
p3310
I20764
sS'TTCATG'
p3311
I22857
sS'TGCTCG'
p3312
I4816
sS'GTACAA'
p3313
I1595
sS'CAGCAG'
p3314
I14543
sS'NTTGTG'
p3315
I1
sS'GCGGCT'
p3316
I1803
sS'CAGCAC'
p3317
I8677
sS'CGTCGT'
p3318
I535
sS'GTACAC'
p3319
I1331
sS'TGCTCT'
p3320
I18433
sS'TTCATT'
p3321
I13122
sS'GTAGCC'
p3322
I3617
sS'TGGCCG'
p3323
I3936
sS'GCTGCA'
p3324
I10106
sS'AACTCT'
p3325
I15770
sS'TGGCCC'
p3326
I11796
sS'TGGCCA'
p3327
I12581
sS'GTAGCA'
p3328
I3998
sS'TCATCT'
p3329
I4997
sS'TTAGGG'
p3330
I3321
sS'TGGCCT'
p3331
I8620
sS'AACTCC'
p3332
I22631
sS'GCTGCT'
p3333
I5857
sS'AACTCG'
p3334
I3983
sS'CTACAA'
p3335
I2142
sS'AATATT'
p3336
I7111
sS'GTTCGA'
p3337
I953
sS'CAACCT'
p3338
I1620
sS'CAGTTA'
p3339
I12629
sS'GCTGCC'
p3340
I11663
sS'GGCACG'
p3341
I5235
sS'GGCACA'
p3342
I15756
sS'GACAAT'
p3343
I7443
sS'GGCACC'
p3344
I14260
sS'CAACCG'
p3345
I622
sS'ACGACC'
p3346
I1034
sS'AATATG'
p3347
I15132
sS'CAACCC'
p3348
I2875
sS'AGCAAG'
p3349
I19688
sS'CAACCA'
p3350
I2992
sS'GACAAA'
p3351
I19045
sS'GGCACT'
p3352
I9840
sS'GACAAC'
p3353
I10202
sS'ACGACA'
p3354
I1011
sS'GACAAG'
p3355
I16848
sS'GCTGCG'
p3356
I4548
sS'GCAATC'
p3357
I2299
sS'GCAATA'
p3358
I4502
sS'GCAATG'
p3359
I5920
sS'CGATGG'
p3360
I669
sS'TCCCAT'
p3361
I3668
sS'CGATGC'
p3362
I495
sS'GTAAAT'
p3363
I2603
sS'CGATGA'
p3364
I564
sS'GAATTA'
p3365
I8911
sS'GAATTC'
p3366
I7337
sS'GAATTG'
p3367
I7587
sS'GTAAAC'
p3368
I4220
sS'CGATGT'
p3369
I324
sS'TCCCAC'
p3370
I9411
sS'GTAAAG'
p3371
I4963
sS'TCCCAG'
p3372
I17876
sS'GGATTT'
p3373
I1152
sS'GTGCGT'
p3374
I1285
sS'ATGGTA'
p3375
I6160
sS'GGATTC'
p3376
I2481
sS'AATTAG'
p3377
I10694
sS'GGATTA'
p3378
I6258
sS'GGATTG'
p3379
I3670
sS'ACCTCT'
p3380
I10224
sS'ACGCCA'
p3381
I1485
sS'ATATAG'
p3382
I2577
sS'TCTGTG'
p3383
I19133
sS'TCTGTC'
p3384
I10006
sS'ATAACG'
p3385
I966
sS'TCTGTA'
p3386
I11915
sS'GGCGGC'
p3387
I8751
sS'CTCCTT'
p3388
I12854
sS'GGCGGA'
p3389
I5057
sS'GGCGGG'
p3390
I16600
sS'AACCGA'
p3391
I2170
sS'CTATCC'
p3392
I5513
sS'TCTGTT'
p3393
I3637
sS'AAAGCG'
p3394
I2146
sS'CTCCTG'
p3395
I41920
sS'AACCGT'
p3396
I1504
sS'CTCCTA'
p3397
I17562
sS'CTCCTC'
p3398
I33824
sS'GGCGGT'
p3399
I2063
sS'GACGCA'
p3400
I4742
sS'CCCACG'
p3401
I5992
sS'CCCACA'
p3402
I16691
sS'CCCACC'
p3403
I24726
sS'ATAGCA'
p3404
I4611
sS'AGCCTT'
p3405
I8868
sS'CCGATT'
p3406
I267
sS'CCCACT'
p3407
I9688
sS'TACTTA'
p3408
I24170
sS'GACGCT'
p3409
I3820
sS'AGCGGT'
p3410
I1381
sS'CCGATA'
p3411
I550
sS'AGCCTG'
p3412
I34614
sS'AGCCTA'
p3413
I12445
sS'AGCCTC'
p3414
I25565
sS'GTACCC'
p3415
I1831
sS'CTCCCG'
p3416
I11910
sS'TGGTTA'
p3417
I9488
sS'CGCCTT'
p3418
I2806
sS'GCGCCT'
p3419
I1890
sS'CAGAGT'
p3420
I7207
sS'CAGTCA'
p3421
I15273
sS'ACCTCG'
p3422
I4891
sS'GAGTTG'
p3423
I14684
sS'CGCCTC'
p3424
I12242
sS'GCGCCA'
p3425
I2419
sS'CGCCTA'
p3426
I3235
sS'AGGCAG'
p3427
I15289
sS'CGCCTG'
p3428
I11964
sS'ACGAAG'
p3429
I1048
sS'CAGAGG'
p3430
I22106
sS'GCATCC'
p3431
I4286
sS'GTGCGG'
p3432
I3538
sS'CAGAGC'
p3433
I14609
sS'GCATCG'
p3434
I901
sS'CAGAGA'
p3435
I16100
sS'AATCAT'
p3436
I7018
sS'TAGCTA'
p3437
I9028
sS'CCGATC'
p3438
I562
sS'CCTAGA'
p3439
I4957
sS'CCTAGC'
p3440
I3918
sS'TTTGCT'
p3441
I7187
sS'TAGCTC'
p3442
I8231
sS'TGCGGT'
p3443
I1414
sS'CCTAGG'
p3444
I6706
sS'TAAGCA'
p3445
I8244
sS'GTCTAG'
p3446
I8726
sS'TTTGCA'
p3447
I12018
sS'TGCGGA'
p3448
I2285
sS'CCTAGT'
p3449
I2400
sS'TGCGGG'
p3450
I5042
sS'TTTGCG'
p3451
I1862
sS'TGAGTT'
p3452
I1350
sS'CGGGAC'
p3453
I1823
sS'ATCGCT'
p3454
I1428
sS'GAAGGC'
p3455
I6885
sS'ATCGCC'
p3456
I2168
sS'TGAGTG'
p3457
I6633
sS'ATCGCA'
p3458
I1675
sS'TGAGTA'
p3459
I5691
sS'ATCGCG'
p3460
I1224
sS'TGAGTC'
p3461
I6680
sS'AAGGTG'
p3462
I13683
sS'ACGGCT'
p3463
I696
sS'CATCAT'
p3464
I5556
sS'AAGGTA'
p3465
I9694
sS'ATTTCG'
p3466
I1815
sS'ACGGCA'
p3467
I1415
sS'CATCAC'
p3468
I10018
sS'ACGGCC'
p3469
I2243
sS'CATCAA'
p3470
I9200
sS'CATCAG'
p3471
I12662
sS'ACGGCG'
p3472
I932
sS'TCACCT'
p3473
I1957
sS'TCTAAG'
p3474
I7007
sS'TCGTTT'
p3475
I694
sS'CGGAAT'
p3476
I581
sS'ATCGAT'
p3477
I329
sS'TCACCG'
p3478
I818
sS'TCACCA'
p3479
I3294
sS'TCACCC'
p3480
I3265
sS'CGGAAG'
p3481
I4060
sS'AATATA'
p3482
I16818
sS'AACTGG'
p3483
I17850
sS'AAAATA'
p3484
I17667
sS'CGGAAC'
p3485
I1473
sS'CGGAAA'
p3486
I1600
sS'TAGCTT'
p3487
I3979
sS'ATCCAG'
p3488
I8985
sS'TGTGTC'
p3489
I11385
sS'TGTGTA'
p3490
I14888
sS'TGTGTG'
p3491
I31835
sS'ATGGCA'
p3492
I9308
sS'ATCCCT'
p3493
I6751
sS'ATGGCT'
p3494
I4109
sS'TGTGTT'
p3495
I5094
sS'CCAAGT'
p3496
I2089
sS'AGATTA'
p3497
I6196
sS'GAAACG'
p3498
I3045
sS'GAAACA'
p3499
I15269
sS'GAAACC'
p3500
I11465
sS'CTATGT'
p3501
I4498
sS'CTGAGT'
p3502
I7006
sS'AGGTAC'
p3503
I2962
sS'GAAACT'
p3504
I7466
sS'AGAATG'
p3505
I12175
sS'AGAATA'
p3506
I8066
sS'ACATAC'
p3507
I2024
sS'CTGAGC'
p3508
I9653
sS'CTGAGA'
p3509
I10675
sS'CTGAGG'
p3510
I16568
sS'CATACC'
p3511
I8444
sS'CATACA'
p3512
I11921
sS'CATACG'
p3513
I1813
sS'TCAAAT'
p3514
I1871
sS'GTCCAT'
p3515
I2904
sS'ACATAG'
p3516
I2112
sS'TCGGTT'
p3517
I299
sS'CATACT'
p3518
I6676
sS'AATGGC'
p3519
I7579
sS'GTCCAG'
p3520
I11817
sS'TCAAAG'
p3521
I4225
sS'CACGAG'
p3522
I3003
sS'GTCCAC'
p3523
I6503
sS'GTCCAA'
p3524
I6654
sS'CGGCGG'
p3525
I5338
sS'TTGATG'
p3526
I10141
sS'CTCATT'
p3527
I9836
sS'CGGCGC'
p3528
I3341
sS'TTGATC'
p3529
I4475
sS'CGGCGA'
p3530
I1331
sS'TTGATA'
p3531
I8614
sS'CTATCT'
p3532
I5375
sS'TTGATT'
p3533
I3116
sS'CGGCGT'
p3534
I782
sS'ATGGCC'
p3535
I7426
sS'ATCGAC'
p3536
I652
sS'CCATTA'
p3537
I5358
sS'TCGTCT'
p3538
I1077
sS'CGGTTA'
p3539
I1413
sS'GGTTTA'
p3540
I11274
sS'CGGTTC'
p3541
I1965
sS'GGTTTC'
p3542
I12753
sS'TTTACA'
p3543
I14869
sS'CGGTTG'
p3544
I2110
sS'GGTTTG'
p3545
I14300
sS'CCATTG'
p3546
I5971
sS'TTCAGT'
p3547
I13938
sS'GCTGTG'
p3548
I17848
sS'GCTGTC'
p3549
I7018
sS'CGGTTT'
p3550
I799
sS'GCTGTA'
p3551
I8214
sS'TATGCG'
p3552
I1517
sS'TCTCAA'
p3553
I8815
sS'AGGTTG'
p3554
I11356
sS'AGGTTC'
p3555
I6720
sS'AGGTTA'
p3556
I9558
sS'GAGGGA'
p3557
I18486
sS'TTTTTC'
p3558
I22607
sS'GAGGGC'
p3559
I13791
sS'TTTTTA'
p3560
I37721
sS'TTTTTG'
p3561
I28104
sS'GAGGGG'
p3562
I21053
sS'TTAAAT'
p3563
I3960
sS'AGGTTT'
p3564
I4329
sS'TAAGCG'
p3565
I1165
sS'AGGGGG'
p3566
I7217
sS'TTAAAC'
p3567
I4838
sS'ATACGT'
p3568
I302
sS'TTAAAA'
p3569
I10362
sS'ACTCCG'
p3570
I2070
sS'TTAAAG'
p3571
I7951
sS'GAGGGT'
p3572
I5551
sS'TTTTTT'
p3573
I14427
sS'ACTCCC'
p3574
I6361
sS'TAGGCT'
p3575
I5627
sS'GTCACG'
p3576
I5055
sS'CTGTAC'
p3577
I4948
sS'GCAACT'
p3578
I2291
sS'GTCACC'
p3579
I18156
sS'CTGTAG'
p3580
I7355
sS'GTCACA'
p3581
I19605
sS'ACTTAT'
p3582
I2300
sS'GCAACG'
p3583
I1062
sS'GTCACT'
p3584
I14318
sS'TAGGCG'
p3585
I2592
sS'GCAACC'
p3586
I3788
sS'CTGTAT'
p3587
I4266
sS'GCAACA'
p3588
I5099
sS'TAGGCC'
p3589
I7660
sS'TGGTTC'
p3590
I7572
sS'ATTCAT'
p3591
I3856
sS'GTAAAA'
p3592
I4625
sS'GCGATT'
p3593
I294
sS'TCGTGT'
p3594
I866
sS'TTCACT'
p3595
I16355
sS'GTCTCT'
p3596
I18079
sS'AACATT'
p3597
I10760
sS'ATTCAG'
p3598
I8465
sS'ATTCAA'
p3599
I6988
sS'ATTCAC'
p3600
I5350
sS'GTCTCC'
p3601
I23887
sS'TCGTGG'
p3602
I1627
sS'GCGATG'
p3603
I1696
sS'TTCACC'
p3604
I17589
sS'GCGATA'
p3605
I698
sS'TTCACA'
p3606
I23111
sS'GCGATC'
p3607
I831
sS'CGATTG'
p3608
I995
sS'GAAGGA'
p3609
I9750
sS'GAAGGG'
p3610
I11722
sS'CGATTA'
p3611
I630
sS'GGAACC'
p3612
I4918
sS'AGACTT'
p3613
I1365
sS'GGAACA'
p3614
I5392
sS'GGAACG'
p3615
I1426
sS'TGACGA'
p3616
I434
sS'ATAGTA'
p3617
I4136
sS'TCATAC'
p3618
I1832
sS'AAAACA'
p3619
I22877
sS'GAAGGT'
p3620
I2638
sS'CTCGCT'
p3621
I3844
sS'CAATCG'
p3622
I941
sS'CAATCA'
p3623
I5796
sS'CAATCC'
p3624
I4446
sS'TCCTGA'
p3625
I20929
sS'AGTCCA'
p3626
I8943
sS'TCCTGC'
p3627
I25102
sS'AGTCCC'
p3628
I10660
sS'ACTAAA'
p3629
I6303
sS'TCCTGG'
p3630
I31083
sS'AGTCCG'
p3631
I2449
sS'TAACGC'
p3632
I637
sS'CAGCTG'
p3633
I23918
sS'TAACGG'
p3634
I810
sS'CAGCTC'
p3635
I15962
sS'ACTAAT'
p3636
I2366
sS'AGTCCT'
p3637
I6126
sS'TCCTGT'
p3638
I16128
sS'TAATGT'
p3639
I4585
sS'CAGCTT'
p3640
I4786
sS'TAACGT'
p3641
I526
sS'TTGACC'
p3642
I7303
sS'GTACTT'
p3643
I1353
sS'CGACAT'
p3644
I108
sS'TTGTTC'
p3645
I12274
sS'CGCAAG'
p3646
I2804
sS'CCGAGG'
p3647
I3372
sS'TTGTTG'
p3648
I17138
sS'AGGAAG'
p3649
I20689
sS'CCGAGC'
p3650
I1822
sS'CCGCGT'
p3651
I423
sS'GTACTG'
p3652
I4674
sS'CGACAA'
p3653
I209
sS'GTACTC'
p3654
I2258
sS'GTACTA'
p3655
I3196
sS'CCGCGC'
p3656
I2080
sS'ACGGAG'
p3657
I1127
sS'CCGCGA'
p3658
I730
sS'CCGCGG'
p3659
I2386
sS'TTGTTT'
p3660
I12330
sS'GCATAT'
p3661
I1161
sS'TCCGTT'
p3662
I1065
sS'AGCCAA'
p3663
I14669
sS'AATAAC'
p3664
I11386
sS'AATAAA'
p3665
I28495
sS'AATAAG'
p3666
I14284
sS'AAGGCT'
p3667
I9749
sS'TACAAT'
p3668
I8430
sS'TACTAA'
p3669
I15301
sS'AATAAT'
p3670
I9391
sS'ACGGTG'
p3671
I1986
sS'CCAACC'
p3672
I4942
sS'CTCAGT'
p3673
I12547
sS'TTATGC'
p3674
I4042
sS'CCAACG'
p3675
I981
sS'CGCCGC'
p3676
I12403
sS'AGTAAA'
p3677
I12795
sS'CGCCGA'
p3678
I2704
sS'GAGTAG'
p3679
I8593
sS'CGCCGG'
p3680
I7451
sS'GAGTAA'
p3681
I9798
sS'GAGTAC'
p3682
I4635
sS'CTCAGG'
p3683
I27697
sS'CTAAAA'
p3684
I4673
sS'CTCAGC'
p3685
I24347
sS'CTCAGA'
p3686
I20827
sS'GGCGAA'
p3687
I1805
sS'ATCGTC'
p3688
I1252
sS'GTGTAG'
p3689
I5403
sS'TCGAGC'
p3690
I783
sS'GTGTAA'
p3691
I5926
sS'GTGTAC'
p3692
I3917
sS'TCGAGG'
p3693
I1611
sS'GTGGCA'
p3694
I13916
sS'GTGGCC'
p3695
I14796
sS'CTCGGA'
p3696
I2908
sS'CTCGGC'
p3697
I6233
sS'GCCGCC'
p3698
I14248
sS'GCCGCA'
p3699
I5177
sS'GCCGCG'
p3700
I7215
sS'ACACTT'
p3701
I1236
sS'CATATG'
p3702
I11423
sS'AGATAT'
p3703
I1624
sS'GTGGCT'
p3704
I8692
sS'ATAAGT'
p3705
I2415
sS'CATATA'
p3706
I12370
sS'CAGTCG'
p3707
I2660
sS'TACTAC'
p3708
I8743
sS'ACACTC'
p3709
I2492
sS'ACACTA'
p3710
I2818
sS'ACACTG'
p3711
I5723
sS'GCCGCT'
p3712
I4207
sS'ACCGGA'
p3713
I1635
sS'AAATAA'
p3714
I8616
sS'ACCGGC'
p3715
I2019
sS'AAATAC'
p3716
I4998
sS'CTTTAA'
p3717
I14305
sS'ACCGGG'
p3718
I2788
sS'CTTTAC'
p3719
I8010
sS'AACTTA'
p3720
I20852
sS'CAGGTA'
p3721
I7548
sS'AACTTC'
p3722
I19989
sS'CAGGTC'
p3723
I7253
sS'CACGAC'
p3724
I1969
sS'AACTTG'
p3725
I24338
sS'CAGGTG'
p3726
I14061
sS'CTTTAT'
p3727
I6213
sS'AATCCC'
p3728
I11349
sS'GCTCGT'
p3729
I692
sS'AATCCA'
p3730
I11294
sS'AAATAT'
p3731
I3626
sS'AATCCG'
p3732
I2127
sS'CACGAT'
p3733
I851
sS'CAGGTT'
p3734
I2375
sS'AACTTT'
p3735
I10635
sS'GGGATA'
p3736
I4862
sS'GGGATC'
p3737
I3873
sS'GGGTGT'
p3738
I5578
sS'GGGATG'
p3739
I9655
sS'GATGCT'
p3740
I7741
sS'CGCAGT'
p3741
I2783
sS'ATTGGG'
p3742
I3594
sS'GAGCCT'
p3743
I11163
sS'GGAGAC'
p3744
I2161
sS'AACCGG'
p3745
I3086
sS'GGAGAA'
p3746
I2461
sS'GGGTGC'
p3747
I5701
sS'GGAGAG'
p3748
I4168
sS'GGGTGG'
p3749
I13961
sS'GAGCCA'
p3750
I21746
sS'GAGCCC'
p3751
I19332
sS'GATGCG'
p3752
I2961
sS'CGCAGA'
p3753
I4292
sS'GATGCA'
p3754
I11852
sS'CGCAGC'
p3755
I7865
sS'GATGCC'
p3756
I11159
sS'CGGATT'
p3757
I369
sS'GGTAGT'
p3758
I2513
sS'ACCCCT'
p3759
I4442
sS'GCCAAT'
p3760
I4515
sS'AACCGC'
p3761
I2899
sS'AGAAGT'
p3762
I4369
sS'ACCCCA'
p3763
I9985
sS'GGTAGA'
p3764
I5258
sS'GCCAAA'
p3765
I9346
sS'CGGATG'
p3766
I2179
sS'GCCAAG'
p3767
I14459
sS'CGGATA'
p3768
I896
sS'ACCCCG'
p3769
I4011
sS'GGTAGG'
p3770
I6969
sS'AGAAGA'
p3771
I8612
sS'AGAAGC'
p3772
I7029
sS'GCAAGA'
p3773
I4224
sS'AGAAGG'
p3774
I11871
sS'CACTCC'
p3775
I27187
sS'CACTCA'
p3776
I23514
sS'CACTCG'
p3777
I5254
sS'TGCGTT'
p3778
I1119
sS'TCAGCT'
p3779
I2760
sS'AGCTTT'
p3780
I12249
sS'CCCCGG'
p3781
I7205
sS'TGCGTA'
p3782
I1994
sS'TGCGTG'
p3783
I5143
sS'CACTCT'
p3784
I16243
sS'AGCTTC'
p3785
I23148
sS'AGCTTA'
p3786
I17668
sS'AGCTTG'
p3787
I23121
sS'ATACGA'
p3788
I350
sS'CCACTT'
p3789
I1092
sS'CAAGAG'
p3790
I4246
sS'AGAGTA'
p3791
I4759
sS'TTAGCT'
p3792
I2843
sS'TTAGCC'
p3793
I4262
sS'TTAGCA'
p3794
I5548
sS'CTAGCA'
p3795
I4392
sS'TTAGCG'
p3796
I841
sS'CTTCAT'
p3797
I3847
sS'TCATAT'
p3798
I1836
sS'AAGGGG'
p3799
I12489
sS'ATAAGG'
p3800
I5663
sS'TGTGCT'
p3801
I6829
sS'AAGGGC'
p3802
I9818
sS'ATAAGC'
p3803
I3530
sS'AAGGGA'
p3804
I13385
sS'ATAAGA'
p3805
I5705
sS'CCAGAC'
p3806
I1588
sS'CTACTC'
p3807
I3939
sS'CCAGAA'
p3808
I1798
sS'CCAGAG'
p3809
I2998
sS'TGTGCG'
p3810
I3271
sS'TCTAAA'
p3811
I7273
sS'ATAGGG'
p3812
I2216
sS'TGTGCC'
p3813
I10734
sS'ATAGGA'
p3814
I2207
sS'TGTGCA'
p3815
I11696
sS'ATAGGC'
p3816
I1477
sS'GCTCGC'
p3817
I2888
sS'TAAGTT'
p3818
I1709
sS'AGACCG'
p3819
I762
sS'CCAGAT'
p3820
I837
sS'AGACAA'
p3821
I2366
sS'AACAAG'
p3822
I18579
sS'AGACAC'
p3823
I2086
sS'TCCATT'
p3824
I6119
sS'AGACAG'
p3825
I3925
sS'GCTTTT'
p3826
I5515
sS'TTTTCT'
p3827
I17677
sS'CGCTGT'
p3828
I3731
sS'GACGCC'
p3829
I7079
sS'TATAGT'
p3830
I6357
sS'CGTGGG'
p3831
I3952
sS'CTATAG'
p3832
I2714
sS'CGTGGC'
p3833
I3012
sS'CGTGGA'
p3834
I2053
sS'TTTTCG'
p3835
I2599
sS'CGCTGA'
p3836
I4771
sS'CGCTGC'
p3837
I9925
sS'TTTTCC'
p3838
I22350
sS'TTTTCA'
p3839
I22127
sS'CGCTGG'
p3840
I9020
sS'TATGGA'
p3841
I6272
sS'TATGGC'
p3842
I5054
sS'CGTAGG'
p3843
I1921
sS'AACAAA'
p3844
I32773
sS'TATGGG'
p3845
I6996
sS'CGTAGC'
p3846
I1406
sS'TACCGT'
p3847
I1230
sS'AAGTGT'
p3848
I7916
sS'TGGACT'
p3849
I5681
sS'CGTAGT'
p3850
I959
sS'TATGGT'
p3851
I3715
sS'ATTCCT'
p3852
I5262
sS'TGGACA'
p3853
I9422
sS'TGGACC'
p3854
I6172
sS'TGGACG'
p3855
I2385
sS'CCGGTT'
p3856
I307
sS'CTAGCT'
p3857
I2490
sS'GCTTGA'
p3858
I7020
sS'TGAGAC'
p3859
I2581
sS'GCTTGC'
p3860
I6574
sS'TGAGAA'
p3861
I3065
sS'TGAGAG'
p3862
I3476
sS'AGGGAC'
p3863
I5178
sS'CCTGTT'
p3864
I2601
sS'CCGGTG'
p3865
I2322
sS'CCGGTC'
p3866
I1244
sS'CCGGTA'
p3867
I907
sS'CCTGTC'
p3868
I8170
sS'CCTGTA'
p3869
I9979
sS'CCTGTG'
p3870
I16617
sS'GCTTGT'
p3871
I4222
sS'TGAGAT'
p3872
I1303
sS'ATCGTA'
p3873
I1328
sS'GGTTGT'
p3874
I4266
sS'TATCAG'
p3875
I11295
sS'TATTGC'
p3876
I11194
sS'AATTCA'
p3877
I19263
sS'GGTTGG'
p3878
I9016
sS'CTGAAT'
p3879
I3297
sS'GGTTGA'
p3880
I6268
sS'GGTTGC'
p3881
I6907
sS'GAAAGT'
p3882
I5648
sS'TCCCGC'
p3883
I6838
sS'TCCCGA'
p3884
I2860
sS'TCCCGG'
p3885
I7597
sS'TGCTAT'
p3886
I7474
sS'CGTTTT'
p3887
I1718
sS'ATTCTC'
p3888
I9303
sS'AGGGAA'
p3889
I7682
sS'ATTCTA'
p3890
I10357
sS'ATTCTG'
p3891
I13852
sS'TCATTT'
p3892
I3877
sS'CAGCGA'
p3893
I2428
sS'CAGCGC'
p3894
I4469
sS'TGCTAG'
p3895
I11009
sS'TCCCGT'
p3896
I1719
sS'AGGATC'
p3897
I5654
sS'TCATTC'
p3898
I7618
sS'TCATTA'
p3899
I8697
sS'CGTTTA'
p3900
I3523
sS'ATTCTT'
p3901
I4306
sS'CGTTTC'
p3902
I4314
sS'TGGCAA'
p3903
I5522
sS'TGGCAC'
p3904
I5697
sS'TGGCAG'
p3905
I9834
sS'GCTGAG'
p3906
I11685
sS'ACAATC'
p3907
I2433
sS'GCTGAC'
p3908
I5369
sS'TGGCAT'
p3909
I3222
sS'GGCCGG'
p3910
I11097
sS'CCGATG'
p3911
I1154
sS'GGCCGC'
p3912
I9682
sS'GAACTT'
p3913
I1608
sS'GGCCGA'
p3914
I4063
sS'GGCAAT'
p3915
I4494
sS'CGCTCG'
p3916
I4500
sS'CTGATT'
p3917
I3436
sS'CCATCG'
p3918
I941
sS'CTAAAT'
p3919
I2189
sS'CCATCC'
p3920
I6015
sS'CCATCA'
p3921
I4600
sS'GGCAAG'
p3922
I13617
sS'CTGATA'
p3923
I9248
sS'GAGTTT'
p3924
I6455
sS'GGCAAC'
p3925
I8764
sS'CCATAT'
p3926
I1132
sS'GGCAAA'
p3927
I11593
sS'CTAAAG'
p3928
I5044
sS'CCATCT'
p3929
I4354
sS'CTAAAC'
p3930
I3270
sS'TTGCGT'
p3931
I870
sS'GACACC'
p3932
I16496
sS'GACACA'
p3933
I25564
sS'GACACG'
p3934
I5881
sS'CCAAGA'
p3935
I3745
sS'AGGCAT'
p3936
I3830
sS'AATTCT'
p3937
I13459
sS'TACGAG'
p3938
I1597
sS'TACGAC'
p3939
I1107
sS'GGAAAG'
p3940
I6774
sS'GACACT'
p3941
I14365
sS'ACGCTG'
p3942
I2916
sS'CTATTA'
p3943
I9994
sS'GCATAC'
p3944
I1240
sS'TCGATG'
p3945
I1051
sS'TCGATA'
p3946
I580
sS'TCGATC'
p3947
I520
sS'CTATTT'
p3948
I4615
sS'TCTGGG'
p3949
I11136
sS'GCATTG'
p3950
I5613
sS'GCATCT'
p3951
I3044
sS'GAACTG'
p3952
I8722
sS'TCGATT'
p3953
I229
sS'CTACCG'
p3954
I803
sS'GCGCCC'
p3955
I4853
sS'TTTTGA'
p3956
I14929
sS'AACCAA'
p3957
I12467
sS'TGCCGG'
p3958
I5315
sS'AACCAC'
p3959
I11657
sS'TGCCGC'
p3960
I5342
sS'AACCAG'
p3961
I13576
sS'TGCCGA'
p3962
I2179
sS'TTGGAC'
p3963
I3017
sS'TCTGGA'
p3964
I6178
sS'ATGATC'
p3965
I4425
sS'GAGTTC'
p3966
I11619
sS'TGCCGT'
p3967
I1798
sS'AACCAT'
p3968
I4889
sS'AACAGA'
p3969
I22585
sS'GGGAGT'
p3970
I4764
sS'AACAGC'
p3971
I16862
sS'ACGTCC'
p3972
I2109
sS'AACAGG'
p3973
I20082
sS'ACGTCA'
p3974
I2720
sS'CCCAAG'
p3975
I12320
sS'TTGGAG'
p3976
I6319
sS'GACGAA'
p3977
I2259
sS'CCCAAC'
p3978
I7845
sS'CCCAAA'
p3979
I9989
sS'GGGAGG'
p3980
I25790
sS'GGGAGA'
p3981
I10726
sS'AACAGT'
p3982
I12380
sS'GGGAGC'
p3983
I9099
sS'CCCAAT'
p3984
I2873
sS'GACGAT'
p3985
I958
sS'GGGCGC'
p3986
I4358
sS'GGGCGA'
p3987
I2424
sS'GCATCA'
p3988
I4323
sS'GGGCGG'
p3989
I10845
sS'TCTCTT'
p3990
I5258
sS'GTACAG'
p3991
I2182
sS'CAGAAT'
p3992
I4109
sS'ACGACT'
p3993
I605
sS'TCTCTC'
p3994
I16966
sS'TCTCTA'
p3995
I14038
sS'TCTCTG'
p3996
I24120
sS'GGGCGT'
p3997
I1507
sS'CAGAAA'
p3998
I12070
sS'CAGAAC'
p3999
I7919
sS'ACGACG'
p4000
I512
sS'CAGAAG'
p4001
I14370
sS'TAAGTG'
p4002
I8458
sS'CACTTT'
p4003
I12821
sS'CATATT'
p4004
I4953
sS'CCTAAT'
p4005
I1853
sS'CACTTG'
p4006
I26569
sS'CCTAAC'
p4007
I3419
sS'CTACCC'
p4008
I3284
sS'CCTAAA'
p4009
I4727
sS'CACTTC'
p4010
I25058
sS'CCTAAG'
p4011
I5416
sS'CACTTA'
p4012
I23645
sS'GCGGAT'
p4013
I221
sS'AATCCT'
p4014
I7604
sS'GTCCCC'
p4015
I14939
sS'AAGATT'
p4016
I3708
sS'CTCATG'
p4017
I21490
sS'GACTCG'
p4018
I6176
sS'CTCATC'
p4019
I14998
sS'GACTCC'
p4020
I22395
sS'CTCATA'
p4021
I15493
sS'GACTCA'
p4022
I37978
sS'AAGATA'
p4023
I13948
sS'CTCCAA'
p4024
I12570
sS'AAGATG'
p4025
I16003
sS'GACTCT'
p4026
I17759
sS'CTGCGC'
p4027
I4065
sS'TTGAGA'
p4028
I9235
sS'ATCGAA'
p4029
I775
sS'AGTCGA'
p4030
I1262
sS'ATATTT'
p4031
I4806
sS'ACGGTA'
p4032
I852
sS'AACTAA'
p4033
I15053
sS'ATAGTT'
p4034
I1242
sS'CTACCA'
p4035
I3259
sS'TACTGT'
p4036
I13925
sS'ATATTC'
p4037
I5478
sS'ATATTA'
p4038
I10498
sS'ATATTG'
p4039
I7437
sS'TACTGC'
p4040
I14086
sS'TACTGA'
p4041
I17296
sS'TACTGG'
p4042
I14965
sS'ATAGTG'
p4043
I4160
sS'ATAGAC'
p4044
I1379
sS'CAGGCA'
p4045
I20443
sS'CAGGCC'
p4046
I19793
sS'CATCCG'
p4047
I2834
sS'AGGAAA'
p4048
I14448
sS'CATCCA'
p4049
I11113
sS'CAGGCG'
p4050
I7605
sS'CATCCC'
p4051
I11783
sS'TTATGA'
p4052
I6380
sS'CAAGCT'
p4053
I2730
sS'CGGAGT'
p4054
I1400
sS'TTATGG'
p4055
I5305
sS'CATCCT'
p4056
I7871
sS'AGGAAT'
p4057
I5616
sS'CAGGCT'
p4058
I9984
sS'ACGGAT'
p4059
I185
sS'CGGAGA'
p4060
I2572
sS'CTGAAA'
p4061
I7947
sS'CGGAGC'
p4062
I4013
sS'TTATGT'
p4063
I5534
sS'CGGAGG'
p4064
I6122
sS'ATGGAA'
p4065
I4421
sS'ATGGAC'
p4066
I2422
sS'ATGGAG'
p4067
I5050
sS'CGCTTG'
p4068
I5908
sS'CGCTTA'
p4069
I2979
sS'CGCTTC'
p4070
I6780
sS'TGAACA'
p4071
I6752
sS'ATGGAT'
p4072
I1206
sS'TGCGGC'
p4073
I3843
sS'CGCTTT'
p4074
I2651
sS'GATCGT'
p4075
I1020
sS'TTTGCC'
p4076
I9521
sS'GAAAAG'
p4077
I13139
sS'GAAAAC'
p4078
I8820
sS'ATAGAT'
p4079
I906
sS'GAAAAA'
p4080
I10261
sS'GTTCCT'
p4081
I4730
sS'TAAGTA'
p4082
I7893
sS'AGACCT'
p4083
I1600
sS'CAAGCG'
p4084
I1600
sS'GAAAAT'
p4085
I4006
sS'TGAGGT'
p4086
I1602
sS'CTACTG'
p4087
I6435
sS'ACAAGG'
p4088
I5039
sS'GCCTAA'
p4089
I7636
sS'ACAAGA'
p4090
I3970
sS'ACAAGC'
p4091
I2880
sS'ACACGT'
p4092
I394
sS'CTGCGT'
p4093
I1525
sS'GCGGAG'
p4094
I2814
sS'CATAAG'
p4095
I8911
sS'GTCCCT'
p4096
I10572
sS'CATAAA'
p4097
I14126
sS'GCGGAC'
p4098
I932
sS'CATAAC'
p4099
I7056
sS'ACACGC'
p4100
I793
sS'ACAAGT'
p4101
I1980
sS'ACACGA'
p4102
I428
sS'ACACGG'
p4103
I790
sS'CATAAT'
p4104
I5128
sS'GTCCCA'
p4105
I13536
sS'GCACAT'
p4106
I734
sS'CTGCGG'
p4107
I4910
sS'CTGCGA'
p4108
I1872
sS'GTCCCG'
p4109
I6696
sS'CGGCAA'
p4110
I986
sS'CGGCAC'
p4111
I1514
sS'CGGCAG'
p4112
I3211
sS'CCTCCT'
p4113
I7106
sS'NNNGAA'
p4114
I2
sS'CGGCAT'
p4115
I457
sS'CCTCCC'
p4116
I17887
sS'CCTCCA'
p4117
I9047
sS'CCTCCG'
p4118
I3849
s.