(dp0
S'GGGCTT'
p1
I52910
sS'GAACGT'
p2
I9183
sS'CTTCTT'
p3
I58405
sS'CACCCT'
p4
I60613
sS'GAACGG'
p5
I11890
sS'GAACGC'
p6
I11850
sS'GAACGA'
p7
I8211
sS'CACCCA'
p8
I68258
sS'CTTCTA'
p9
I32183
sS'CACCCC'
p10
I76688
sS'CTTCTC'
p11
I72614
sS'CACCCG'
p12
I27693
sS'CTTCTG'
p13
I72301
sS'CGTGTG'
p14
I21998
sS'TAAGGT'
p15
I20775
sS'CGTGTC'
p16
I13821
sS'CGTGTA'
p17
I7343
sS'GGAAAT'
p18
I53759
sS'TAAGGG'
p19
I26059
sS'CGTGTT'
p20
I12751
sS'TAAGGC'
p21
I23324
sS'TAAGGA'
p22
I31331
sS'TCACTG'
p23
I66552
sS'GTCAAA'
p24
I29862
sS'GTCAAC'
p25
I19914
sS'GTCAAG'
p26
I28270
sS'CTGTCC'
p27
I65969
sS'TCAGAG'
p28
I69346
sS'CTGTCA'
p29
I52378
sS'CTCGCC'
p30
I30669
sS'CTGTCG'
p31
I14492
sS'TCAGAC'
p32
I36101
sS'TCAGAA'
p33
I58145
sS'GTCAAT'
p34
I18514
sS'GTATCA'
p35
I15357
sS'GTATCC'
p36
I14111
sS'GTATCG'
p37
I3105
sS'GCCCTG'
p38
I100734
sS'GGTGTC'
p39
I34081
sS'GGTGTA'
p40
I16801
sS'GGTGTG'
p41
I52944
sS'TATCCT'
p42
I24045
sS'CCGGGG'
p43
I60719
sS'TTCTGT'
p44
I67350
sS'ATTCCT'
p45
I51136
sS'CCGGGC'
p46
I65852
sS'CCGGGA'
p47
I44821
sS'TATCCA'
p48
I22301
sS'TATCCC'
p49
I20359
sS'GTTCTG'
p50
I46967
sS'GGCGAG'
p51
I30676
sS'GGTGTT'
p52
I32277
sS'ATTCCG'
p53
I8817
sS'TTCTGG'
p54
I65678
sS'CCGGGT'
p55
I28201
sS'ATTCCC'
p56
I38908
sS'TTCTGC'
p57
I58818
sS'ATTCCA'
p58
I49960
sS'TTCTGA'
p59
I58139
sS'TGCACT'
p60
I44336
sS'GGNCCC'
p61
I1
sS'GGNCCG'
p62
I1
sS'CGTCAT'
p63
I8103
sS'CGCGGT'
p64
I15639
sS'CCCGCG'
p65
I45810
sS'ACGAAC'
p66
I5982
sS'CGCGGG'
p67
I45807
sS'NCCGCC'
p68
I1
sS'CGCGGC'
p69
I46796
sS'CGCGGA'
p70
I19508
sS'NCCCAC'
p71
I1
sS'ACCTGT'
p72
I40370
sS'TCATGT'
p73
I34258
sS'CTCCGA'
p74
I17688
sS'TTACAG'
p75
I49470
sS'CTCCGC'
p76
I44837
sS'TTACAA'
p77
I34676
sS'TTACAC'
p78
I24638
sS'CTCCGG'
p79
I37271
sS'TCATGC'
p80
I31835
sS'ACCTGG'
p81
I65221
sS'TCATGA'
p82
I32443
sS'TCATGG'
p83
I36688
sS'ACCTGC'
p84
I52846
sS'GCGCNN'
p85
I1
sS'ACCTGA'
p86
I40850
sS'GTATTT'
p87
I44333
sS'CTCCGT'
p88
I19755
sS'GCCTGA'
p89
I55204
sS'GCCTGC'
p90
I77056
sS'GCCTGG'
p91
I126532
sS'TCTTGC'
p92
I40190
sS'TAAAGG'
p93
I35985
sS'CAAATT'
p94
I37886
sS'TAAAGA'
p95
I41436
sS'TAAAGC'
p96
I29984
sS'GCCTGT'
p97
I64085
sS'TCCCCG'
p98
I45265
sS'TAAAGT'
p99
I33709
sS'CAAATA'
p100
I48235
sS'ACGTCC'
p101
I12331
sS'CAAATC'
p102
I32686
sS'CGTGCT'
p103
I15926
sS'CAAATG'
p104
I48402
sS'AATACT'
p105
I27810
sS'TATCTC'
p106
I26733
sS'GGCATG'
p107
I42927
sS'GGCATA'
p108
I17310
sS'GGCATC'
p109
I30275
sS'AATACG'
p110
I6149
sS'AATACA'
p111
I40306
sS'AATACC'
p112
I21006
sS'GGCATT'
p113
I34609
sS'TATCTG'
p114
I31418
sS'TGCACA'
p115
I51882
sS'GAGCAC'
p116
I37847
sS'ACTGAT'
p117
I27710
sS'GAGCAG'
p118
I77546
sS'AGTAGT'
p119
I19432
sS'TCTCGC'
p120
I17867
sS'TCTCGA'
p121
I10469
sS'TCTCGG'
p122
I21947
sS'ACTGAG'
p123
I54846
sS'AGTAGA'
p124
I29757
sS'AGTAGG'
p125
I28285
sS'ACTGAA'
p126
I47486
sS'TCAGAT'
p127
I37343
sS'TTTGTT'
p128
I87515
sS'GTGTCG'
p129
I9037
sS'TCGAAC'
p130
I7170
sS'TCGAAA'
p131
I7007
sS'GTGTCC'
p132
I42519
sS'TCGAAG'
p133
I8161
sS'GTGTCA'
p134
I34270
sS'ATTTGC'
p135
I38667
sS'CTTGCT'
p136
I53464
sS'CCGTCT'
p137
I19794
sS'GTGTCT'
p138
I43922
sS'TTGAAG'
p139
I39298
sS'TCGAAT'
p140
I5668
sS'CTTGCG'
p141
I11364
sS'CTTGCA'
p142
I38713
sS'CTTGCC'
p143
I45954
sS'CGAAAG'
p144
I11352
sS'CGAAAA'
p145
I9465
sS'CGAAAC'
p146
I8829
sS'AATCAT'
p147
I31523
sS'AAATGC'
p148
I48944
sS'CACGGC'
p149
I23381
sS'AAATGA'
p150
I64560
sS'AAATGG'
p151
I52140
sS'CACGGG'
p152
I22978
sS'ACAGTA'
p153
I29857
sS'TAGAGC'
p154
I24264
sS'CGAAAT'
p155
I7259
sS'ACAGTT'
p156
I38200
sS'AATCAG'
p157
I39223
sS'AATCAA'
p158
I33219
sS'AAATGT'
p159
I61199
sS'AATCAC'
p160
I31855
sS'GGGTCT'
p161
I46319
sS'GCTCAA'
p162
I35997
sS'TCTAGT'
p163
I23865
sS'TTGCCG'
p164
I11226
sS'TTGCCA'
p165
I41548
sS'TTGCCC'
p166
I46446
sS'TTGCCT'
p167
I49228
sS'TCTAGG'
p168
I32159
sS'GGGTAA'
p169
I23545
sS'TCTAGA'
p170
I29623
sS'GGGTAG'
p171
I27599
sS'TCTAGC'
p172
I23555
sS'ATACGG'
p173
I4887
sS'ATACAT'
p174
I26659
sS'AGATGT'
p175
I35183
sS'TCGCCC'
p176
I25150
sS'AGNNNN'
p177
I1
sS'TCGCCA'
p178
I13687
sS'ATAGTC'
p179
I14851
sS'TCGCCG'
p180
I14744
sS'GGTAAT'
p181
I17945
sS'ACCCAT'
p182
I26454
sS'CGTCAG'
p183
I14035
sS'CTCACC'
p184
I60287
sS'ACCCAC'
p185
I45803
sS'GGTAAC'
p186
I17278
sS'ACCCAA'
p187
I34757
sS'AGATGG'
p188
I53157
sS'ACCCAG'
p189
I74669
sS'GGTAAG'
p190
I23514
sS'TCGCCT'
p191
I17385
sS'AGATGC'
p192
I33899
sS'TTTGAG'
p193
I57303
sS'CCCCAT'
p194
I50270
sS'TTGGGT'
p195
I34740
sS'CACTAG'
p196
I24804
sS'CACTAA'
p197
I23554
sS'CACTAC'
p198
I19047
sS'CCCCAA'
p199
I59117
sS'CCCCAC'
p200
I91793
sS'CCCCAG'
p201
I119915
sS'CACTAT'
p202
I19985
sS'TTGGGG'
p203
I59102
sS'TCGGTT'
p204
I8602
sS'TTGGGA'
p205
I57238
sS'TTGGGC'
p206
I38995
sS'TGCCTG'
p207
I90359
sS'TAGTGG'
p208
I25441
sS'TTTCTG'
p209
I83238
sS'TGCAGC'
p210
I70163
sS'TTTCTA'
p211
I48462
sS'TTTCTC'
p212
I79732
sS'TGCAGG'
p213
I76591
sS'GGGTCA'
p214
I42920
sS'TGNNNN'
p215
I1
sS'GTATCT'
p216
I20897
sS'TTTCTT'
p217
I96986
sS'ACGTGC'
p218
I14810
sS'TGCCTT'
p219
I59453
sS'TGCAGT'
p220
I61234
sS'ACGATG'
p221
I8099
sS'TAGTGC'
p222
I16947
sS'AAGGAA'
p223
I79987
sS'AAGGAC'
p224
I40178
sS'AAGGAG'
p225
I68062
sS'ATATGC'
p226
I18088
sS'GTTCCA'
p227
I35185
sS'ATATGA'
p228
I22771
sS'CGCGTA'
p229
I3127
sS'ATATGG'
p230
I19435
sS'GAGTTC'
p231
I37292
sS'AAGGAT'
p232
I34059
sS'CTATCA'
p233
I18447
sS'TGACTT'
p234
I45125
sS'GGTCCC'
p235
I52634
sS'GCCCAG'
p236
I119238
sS'ATGCAG'
p237
I45007
sS'GCCCAA'
p238
I39006
sS'GGTCCG'
p239
I16326
sS'AGGTCT'
p240
I40694
sS'ATGGCG'
p241
I15232
sS'AGACCC'
p242
I46321
sS'AGACCA'
p243
I45385
sS'CTTCGA'
p244
I8162
sS'CTTCGC'
p245
I14707
sS'ATGCAA'
p246
I34315
sS'GCCCAT'
p247
I32348
sS'AGGTCA'
p248
I58837
sS'AAAGTT'
p249
I47796
sS'TCCGGC'
p250
I25156
sS'GGTCCT'
p251
I40743
sS'TCCGGA'
p252
I17172
sS'CTTAGC'
p253
I25585
sS'ATTGTG'
p254
I32478
sS'CTTAGA'
p255
I28089
sS'CCACTC'
p256
I51276
sS'CTTAGG'
p257
I28638
sS'ATTGTC'
p258
I23026
sS'TCTTGG'
p259
I48421
sS'CGCTAC'
p260
I7025
sS'ATTTTG'
p261
I51158
sS'CGCTAA'
p262
I6181
sS'ATTTTA'
p263
I61293
sS'TAAATT'
p264
I39306
sS'ATTTTC'
p265
I57128
sS'TCCAGC'
p266
I80163
sS'TAGCAG'
p267
I31596
sS'GATACT'
p268
I16202
sS'TAGCAC'
p269
I21147
sS'TAGCAA'
p270
I27375
sS'GAGGTT'
p271
I40300
sS'ATTTTT'
p272
I95128
sS'GCCTTG'
p273
I55048
sS'GTGGGG'
p274
I91761
sS'GCCTTA'
p275
I23317
sS'TTGACA'
p276
I31347
sS'GCCTTC'
p277
I54851
sS'GATACG'
p278
I4275
sS'TAGCAT'
p279
I20828
sS'CTGTCT'
p280
I70857
sS'GATACC'
p281
I12856
sS'GATACA'
p282
I20106
sS'TGAGCT'
p283
I57426
sS'ACGGAC'
p284
I9067
sS'GATCAT'
p285
I21260
sS'TGGCAC'
p286
I41965
sS'AAGACA'
p287
I49229
sS'AAGACC'
p288
I34697
sS'ACAATG'
p289
I36879
sS'AAGACG'
p290
I11720
sS'GATCAG'
p291
I27726
sS'TGAGCG'
p292
I17756
sS'CTCGAG'
p293
I14596
sS'TGAGCA'
p294
I52859
sS'TGAGCC'
p295
I67946
sS'AAGACT'
p296
I36197
sS'GCGGTC'
p297
I15421
sS'GCGGTA'
p298
I6897
sS'CGTGCA'
p299
I15508
sS'GCGGTG'
p300
I31396
sS'CGGTGT'
p301
I12940
sS'TCGTTA'
p302
I4901
sS'TCGTTC'
p303
I8209
sS'CTTCCC'
p304
I96867
sS'TCGTTG'
p305
I6928
sS'TGTGTG'
p306
I118742
sS'GCGGTT'
p307
I11449
sS'ACTTGC'
p308
I30394
sS'ACCACC'
p309
I43711
sS'ACTTGA'
p310
I33753
sS'CGGTGG'
p311
I30507
sS'ACTTGG'
p312
I41972
sS'ACGGAA'
p313
I12087
sS'CGGTGC'
p314
I21331
sS'TTCCTA'
p315
I39974
sS'TAGACT'
p316
I20223
sS'TTCCTC'
p317
I78897
sS'ACTGAC'
p318
I32057
sS'ATGTGC'
p319
I32147
sS'TTCCTG'
p320
I94231
sS'TCCTTT'
p321
I72041
sS'GACCCA'
p322
I41545
sS'ACGCTA'
p323
I5326
sS'TAGACG'
p324
I5541
sS'TTCCTT'
p325
I79978
sS'TAGACC'
p326
I15604
sS'TAGACA'
p327
I25276
sS'TCCTTG'
p328
I51287
sS'TCCTTA'
p329
I31309
sS'TCCTTC'
p330
I67620
sS'ATCTCT'
p331
I47170
sS'ACCGTT'
p332
I7093
sS'TGGCGC'
p333
I26756
sS'TGGCGA'
p334
I13692
sS'GGCCAT'
p335
I35347
sS'ATCTCG'
p336
I10560
sS'ATCTCA'
p337
I41824
sS'ATCTCC'
p338
I40248
sS'GGCCAA'
p339
I48612
sS'GGCCAC'
p340
I62131
sS'ACCGTG'
p341
I15234
sS'ACCGTA'
p342
I5036
sS'GGCCAG'
p343
I97656
sS'ACCGTC'
p344
I9359
sS'ACCGAC'
p345
I7906
sS'AGATTA'
p346
I25819
sS'NGATCC'
p347
I1
sS'GGCAGT'
p348
I48271
sS'CCATAA'
p349
I21604
sS'CAAAGG'
p350
I64992
sS'CCATAC'
p351
I15355
sS'CTAACT'
p352
I22917
sS'AGATTC'
p353
I31368
sS'CAAAGC'
p354
I55099
sS'CAACGT'
p355
I8998
sS'GGCAGA'
p356
I76360
sS'GGCAGC'
p357
I88107
sS'AACGTA'
p358
I6057
sS'GGCAGG'
p359
I117052
sS'CAACGC'
p360
I10079
sS'CTAACA'
p361
I26265
sS'CAACGA'
p362
I6926
sS'CTAACC'
p363
I19918
sS'CCATAT'
p364
I19437
sS'CTAACG'
p365
I5988
sS'GGGGGT'
p366
I51391
sS'TACGCT'
p367
I4982
sS'GAAACC'
p368
I43738
sS'CGATCT'
p369
I8945
sS'NNNNNC'
p370
I2
sS'CTCTAG'
p371
I34888
sS'CTCTAA'
p372
I32055
sS'CTCTAC'
p373
I31117
sS'GGGGGG'
p374
I51855
sS'TACGCA'
p375
I5790
sS'TACGCC'
p376
I5586
sS'GGGGGC'
p377
I89444
sS'CGATCG'
p378
I2816
sS'GGGGGA'
p379
I68504
sS'TACGCG'
p380
I3128
sS'CTCTAT'
p381
I24891
sS'CAGACC'
p382
I46849
sS'CAGACA'
p383
I61234
sS'CAGACG'
p384
I17738
sS'TGCGTG'
p385
I19324
sS'ACGTGA'
p386
I14198
sS'TAGTTG'
p387
I18377
sS'GCTAAT'
p388
I22969
sS'TAGTTC'
p389
I20418
sS'TAGTTA'
p390
I18696
sS'CAGACT'
p391
I45937
sS'GCTAAG'
p392
I25594
sS'TAGTTT'
p393
I32163
sS'GCTAAC'
p394
I16270
sS'GCTAAA'
p395
I25679
sS'TGCATT'
p396
I44069
sS'GCGAAA'
p397
I9555
sS'AACCCT'
p398
I39401
sS'GTCCAC'
p399
I31638
sS'AACCCC'
p400
I41060
sS'AACCCA'
p401
I43893
sS'TGCATA'
p402
I24686
sS'TGCATC'
p403
I27971
sS'AGAATA'
p404
I33634
sS'ACGTAA'
p405
I6965
sS'AACTGG'
p406
I42391
sS'GTCAGC'
p407
I40225
sS'TAAGTA'
p408
I23177
sS'AGTTTA'
p409
I32681
sS'CCCAGA'
p410
I86107
sS'CCCAGC'
p411
I136752
sS'AGAATC'
p412
I35388
sS'CCCAGG'
p413
I144750
sS'AACTGT'
p414
I38182
sS'AGTTTT'
p415
I52280
sS'CTACAT'
p416
I21555
sS'CGAGTC'
p417
I13037
sS'CCCAGT'
p418
I59926
sS'CGCATA'
p419
I4082
sS'ATACTG'
p420
I23869
sS'CGCATC'
p421
I9626
sS'ATACTA'
p422
I14556
sS'ATACTC'
p423
I16157
sS'CGCATG'
p424
I11206
sS'GCGCAA'
p425
I9989
sS'ATACTT'
p426
I24956
sS'CGCATT'
p427
I8226
sS'AGGCCC'
p428
I76037
sS'GCTCCG'
p429
I37516
sS'TATTGT'
p430
I26776
sS'GCTCCC'
p431
I79442
sS'GCTCCA'
p432
I60180
sS'CCTACT'
p433
I28296
sS'TGTACT'
p434
I26554
sS'TTTAGT'
p435
I32657
sS'TATTGG'
p436
I19354
sS'GCTCCT'
p437
I68441
sS'TATTGC'
p438
I19659
sS'GCTGGG'
p439
I136717
sS'TTTAGG'
p440
I32070
sS'TGTACG'
p441
I5512
sS'CCTACG'
p442
I7889
sS'TGTACA'
p443
I30152
sS'CCTACA'
p444
I27103
sS'ACAGTG'
p445
I56986
sS'CCTACC'
p446
I30659
sS'TTCGCG'
p447
I6415
sS'TTCGCA'
p448
I7844
sS'TTCGCC'
p449
I12262
sS'AGTATC'
p450
I16203
sS'GACTAA'
p451
I18790
sS'AGTATA'
p452
I16330
sS'TTTGGG'
p453
I62036
sS'AGTATG'
p454
I19223
sS'TTTGGA'
p455
I53619
sS'TTTGGC'
p456
I40008
sS'TTCGCT'
p457
I10837
sS'GATCNN'
p458
I1
sS'TTTGGT'
p459
I40095
sS'GCCACA'
p460
I57501
sS'GACTAT'
p461
I14844
sS'AGTATT'
p462
I27813
sS'CAAGTC'
p463
I33943
sS'TTACTC'
p464
I26313
sS'TTACTA'
p465
I21123
sS'TTACTG'
p466
I34401
sS'ACCTTG'
p467
I44533
sS'ACCTTC'
p468
I39623
sS'ACCTTA'
p469
I20748
sS'TTACTT'
p470
I37515
sS'ACGCTT'
p471
I9565
sS'ACCTTT'
p472
I43489
sS'ACAGGG'
p473
I64487
sS'CTGGGA'
p474
I113591
sS'CTGGGC'
p475
I119226
sS'ACAGGC'
p476
I64149
sS'TTATAT'
p477
I27181
sS'CTGGGG'
p478
I119884
sS'AGGACG'
p479
I19621
sS'GCAGCT'
p480
I73900
sS'CAGGAA'
p481
I94262
sS'TCGCTT'
p482
I13369
sS'CAGGAG'
p483
I110923
sS'AGGACA'
p484
I59215
sS'GCGCAT'
p485
I9796
sS'TTATAC'
p486
I15599
sS'ACAGGT'
p487
I40373
sS'CTGGGT'
p488
I74675
sS'TTATAG'
p489
I20359
sS'TCGCTG'
p490
I19682
sS'GAGTTG'
p491
I33439
sS'GCAGCG'
p492
I39795
sS'AGGACT'
p493
I45926
sS'GCAGCA'
p494
I71866
sS'GCAGCC'
p495
I94496
sS'CAGGAT'
p496
I47013
sS'CCTCAG'
p497
I92314
sS'CCTCAA'
p498
I42860
sS'CCTCAC'
p499
I59859
sS'TATGTT'
p500
I29609
sS'ATGGGC'
p501
I32341
sS'TCTTTG'
p502
I60627
sS'ATGGGA'
p503
I44095
sS'TCTTTA'
p504
I41418
sS'ATGGGG'
p505
I50232
sS'TCTTTC'
p506
I68150
sS'CCTCAT'
p507
I45032
sS'TCTTTT'
p508
I80366
sS'TATGTG'
p509
I31582
sS'TATGTA'
p510
I25355
sS'ATGGGT'
p511
I26453
sS'TATGTC'
p512
I18290
sS'GAAAGA'
p513
I68156
sS'ATCAAG'
p514
I25794
sS'CATGAT'
p515
I26603
sS'ATCAAC'
p516
I18673
sS'GAAAGG'
p517
I68318
sS'ATCAAA'
p518
I36632
sS'CGCTAG'
p519
I8477
sS'ACGTGG'
p520
I21715
sS'AGTTTC'
p521
I46876
sS'CATGAG'
p522
I40940
sS'ATCAAT'
p523
I21395
sS'GTCCAA'
p524
I27751
sS'CATGAC'
p525
I28990
sS'CATGAA'
p526
I38760
sS'GTAGCG'
p527
I7019
sS'CAAGTT'
p528
I34973
sS'GCTTTG'
p529
I55063
sS'GTAGCC'
p530
I20887
sS'GCTTTC'
p531
I48951
sS'AGCGGT'
p532
I12266
sS'GAGGAT'
p533
I39857
sS'AAAGTA'
p534
I39286
sS'GCTTTT'
p535
I54336
sS'TGCCAG'
p536
I66602
sS'GTAGCT'
p537
I28024
sS'GCGGCC'
p538
I58586
sS'TAAGCG'
p539
I6575
sS'GCGGCA'
p540
I25181
sS'TTACAT'
p541
I32448
sS'AACGGT'
p542
I7094
sS'CGTACG'
p543
I2203
sS'TAATCG'
p544
I3957
sS'CTTGTG'
p545
I42136
sS'TAATCA'
p546
I25299
sS'TAATCC'
p547
I31190
sS'TGCGAA'
p548
I7849
sS'CGGCCC'
p549
I56737
sS'CGGCCA'
p550
I29816
sS'CGCTAT'
p551
I5031
sS'CGGCCG'
p552
I42847
sS'TCGTGA'
p553
I8717
sS'CTTGTA'
p554
I24044
sS'GGTCTG'
p555
I46836
sS'TAATCT'
p556
I25838
sS'GGTCTC'
p557
I47941
sS'GGTCTA'
p558
I15601
sS'CAGTCA'
p559
I45394
sS'AAAATG'
p560
I74598
sS'AAAATC'
p561
I45617
sS'TCAATA'
p562
I24752
sS'CGGCCT'
p563
I38916
sS'TCGTCA'
p564
I7196
sS'ATCCCT'
p565
I39210
sS'TTCAGG'
p566
I54751
sS'ATATCC'
p567
I17627
sS'TCGTCG'
p568
I4260
sS'TTTAGC'
p569
I25669
sS'TGCCAA'
p570
I39689
sS'TCGGGA'
p571
I18374
sS'GAACAA'
p572
I40492
sS'ATCCCG'
p573
I14030
sS'GAACAC'
p574
I31359
sS'ATCCCC'
p575
I37289
sS'GAACAG'
p576
I45980
sS'TTCAGT'
p577
I47491
sS'GCACTT'
p578
I42822
sS'AACGGA'
p579
I10265
sS'CACCAC'
p580
I57641
sS'NNNCTG'
p581
I1
sS'CACCAA'
p582
I38645
sS'CACCAG'
p583
I63867
sS'AACATT'
p584
I46231
sS'CCGTTA'
p585
I5726
sS'TCCGTC'
p586
I14286
sS'GAGTTA'
p587
I23433
sS'TCCGTA'
p588
I6037
sS'ACCAGA'
p589
I42910
sS'CGGCGT'
p590
I12620
sS'ACGCGA'
p591
I5272
sS'CACCAT'
p592
I40675
sS'AACATG'
p593
I39841
sS'AACATA'
p594
I29594
sS'AACATC'
p595
I29427
sS'GTCAGN'
p596
I1
sS'TCAGCA'
p597
I58033
sS'GCACGG'
p598
I20456
sS'GTCAGA'
p599
I39907
sS'GCACGA'
p600
I9892
sS'CAGTCC'
p601
I48414
sS'GCACGC'
p602
I19097
sS'GCAAGT'
p603
I30391
sS'GCAAGC'
p604
I32581
sS'GCACGT'
p605
I14808
sS'CAGTCT'
p606
I47748
sS'TCAGCT'
p607
I59960
sS'GTCAGT'
p608
I32051
sS'GTATAC'
p609
I9935
sS'TTCCGT'
p610
I12085
sS'GTATAA'
p611
I15617
sS'GTATAG'
p612
I10893
sS'CCGGAA'
p613
I20843
sS'CCGGAC'
p614
I18691
sS'CCGGAG'
p615
I37273
sS'TATCAT'
p616
I19925
sS'CTCGTA'
p617
I5034
sS'TTCCGG'
p618
I20844
sS'TTCCGA'
p619
I10439
sS'TTCCGC'
p620
I17144
sS'GTATAT'
p621
I17005
sS'TATCAC'
p622
I18422
sS'CGTCTA'
p623
I5541
sS'CGTCTG'
p624
I17748
sS'CCGGAT'
p625
I10714
sS'CTCTTC'
p626
I67006
sS'TGTTAT'
p627
I28822
sS'CTCTTA'
p628
I31244
sS'CTCTTG'
p629
I50600
sS'CCCGAT'
p630
I8473
sS'CAAGAA'
p631
I47441
sS'TACGTC'
p632
I4607
sS'TCTGGT'
p633
I42908
sS'AACAAA'
p634
I87570
sS'CGCGAT'
p635
I5714
sS'TACGTG'
p636
I8514
sS'TGTTAG'
p637
I26294
sS'GGTTTC'
p638
I43763
sS'AAGCTT'
p639
I37741
sS'CTCTTT'
p640
I68865
sS'TGTTAA'
p641
I33994
sS'TCTGGG'
p642
I86062
sS'CGCGAC'
p643
I9622
sS'GATATT'
p644
I22388
sS'TCTGGC'
p645
I58991
sS'TACGTT'
p646
I6060
sS'TCTGGA'
p647
I62233
sS'AGTCGT'
p648
I6808
sS'TTACCT'
p649
I31422
sS'CTCCAT'
p650
I48313
sS'ACTAGA'
p651
I23866
sS'TATGCC'
p652
I17311
sS'TTACCG'
p653
I6490
sS'CTCCAC'
p654
I64393
sS'AGTCGG'
p655
I12937
sS'TTACCC'
p656
I23531
sS'CTCCAG'
p657
I105322
sS'TTACCA'
p658
I26966
sS'AGTCGC'
p659
I10445
sS'AATGCC'
p660
I34612
sS'GTACCG'
p661
I5137
sS'CCGACT'
p662
I12936
sS'GCCTAC'
p663
I19481
sS'GCCTAA'
p664
I21095
sS'CCGAGG'
p665
I41550
sS'GCCTAG'
p666
I30201
sS'GTGCGG'
p667
I22723
sS'CCGACA'
p668
I10984
sS'CCCTGT'
p669
I64522
sS'CCGACC'
p670
I18345
sS'CCGACG'
p671
I9126
sS'AAGCTC'
p672
I40551
sS'GCCTAT'
p673
I17676
sS'TGACGG'
p674
I11640
sS'CCCGAG'
p675
I36862
sS'AAGCTG'
p676
I60024
sS'TCAGCG'
p677
I18593
sS'CTAAGT'
p678
I23990
sS'GCTGTC'
p679
I47218
sS'CGCACA'
p680
I17356
sS'ATACAC'
p681
I23365
sS'CGCACC'
p682
I21005
sS'GGGTCG'
p683
I18902
sS'ACTGCT'
p684
I47048
sS'ATACAG'
p685
I29409
sS'CGCACG'
p686
I12795
sS'GGGTCC'
p687
I49803
sS'CTCACT'
p688
I63512
sS'TTTGTA'
p689
I47773
sS'ACTGCA'
p690
I61200
sS'TTTGTC'
p691
I44004
sS'ACTGCC'
p692
I48265
sS'CGCACT'
p693
I13090
sS'TTTGTG'
p694
I58161
sS'ACTGCG'
p695
I16644
sS'CTTGAC'
p696
I28263
sS'CTCACA'
p697
I56278
sS'GTCAGG'
p698
I53703
sS'CTCACG'
p699
I20379
sS'GTGGGT'
p700
I45795
sS'GTGAGG'
p701
I59822
sS'GATTTT'
p702
I45597
sS'ACAATT'
p703
I29417
sS'GTGAGC'
p704
I52970
sS'TAGTGA'
p705
I24255
sS'GTGAGA'
p706
I46536
sS'TCGACG'
p707
I2947
sS'TCGACA'
p708
I5101
sS'TCGACC'
p709
I6883
sS'ACAATA'
p710
I26763
sS'GTGAGT'
p711
I41262
sS'TAGTGT'
p712
I20639
sS'GTGGGA'
p713
I63817
sS'GTGGGC'
p714
I55661
sS'TCGACT'
p715
I5825
sS'GTGGGN'
p716
I1
sS'CTGGTT'
p717
I45124
sS'TGCAAA'
p718
I57189
sS'CGAACG'
p719
I4431
sS'GCGTCA'
p720
I11279
sS'CGAACC'
p721
I8662
sS'CGAACA'
p722
I7314
sS'CGGNCC'
p723
I1
sS'CTGGTG'
p724
I63830
sS'CTGGTA'
p725
I26589
sS'CTGGTC'
p726
I47411
sS'CTGCAA'
p727
I53622
sS'CGAACT'
p728
I9253
sS'TTGCAT'
p729
I34332
sS'GACGAG'
p730
I12682
sS'NNGAAT'
p731
I2
sS'TTGCAG'
p732
I53624
sS'ACTCCT'
p733
I50935
sS'TTGCAC'
p734
I31364
sS'TTGCAA'
p735
I38824
sS'AAGATC'
p736
I26534
sS'ACGTAC'
p737
I5147
sS'TCCATC'
p738
I38910
sS'TCGCAT'
p739
I5531
sS'GAGCGG'
p740
I33460
sS'GTCGTG'
p741
I9051
sS'GTCGTA'
p742
I3402
sS'GTCGTC'
p743
I7809
sS'CCGTTT'
p744
I13821
sS'GAGCAA'
p745
I44875
sS'GTCGTT'
p746
I6274
sS'TCGCAG'
p747
I16310
sS'CGAATT'
p748
I6174
sS'CCAAGC'
p749
I48023
sS'TCGCAC'
p750
I8676
sS'CCGTTG'
p751
I9247
sS'CGCTGC'
p752
I39800
sS'CCGTTC'
p753
I11890
sS'GATCGG'
p754
I6929
sS'AATGCT'
p755
I39672
sS'GGTACG'
p756
I5146
sS'GGTACA'
p757
I19885
sS'TCCAGG'
p758
I89665
sS'GGTACC'
p759
I15029
sS'TATTTG'
p760
I48221
sS'CCAGTT'
p761
I42405
sS'TTCAGC'
p762
I48614
sS'TATTTC'
p763
I43916
sS'TATTTA'
p764
I54231
sS'CCCCCT'
p765
I68933
sS'GGTACT'
p766
I16460
sS'AATGCG'
p767
I8222
sS'TTGAGA'
p768
I48187
sS'AATGCA'
p769
I44055
sS'CCCCCC'
p770
I51854
sS'CCCCCA'
p771
I88753
sS'TATTTT'
p772
I81969
sS'CCCCCG'
p773
I51628
sS'CTTGAG'
p774
I46700
sS'ATGATG'
p775
I30917
sS'ATGATA'
p776
I19917
sS'GCGTTA'
p777
I5356
sS'ATGATC'
p778
I21256
sS'CGGACT'
p779
I12470
sS'TGCAAC'
p780
I29669
sS'TTGAGT'
p781
I32847
sS'TGCAAG'
p782
I38733
sS'GCCGTC'
p783
I17311
sS'ATGATT'
p784
I31517
sS'CTTGAT'
p785
I25805
sS'CGAATC'
p786
I6326
sS'TTGAGG'
p787
I42837
sS'AATCTC'
p788
I33730
sS'CAATGT'
p789
I29859
sS'TTGAGC'
p790
I35999
sS'TGCAAT'
p791
I32619
sS'GAGAAT'
p792
I41811
sS'TGTCTT'
p793
I49268
sS'AGTAGC'
p794
I26940
sS'AAGGCC'
p795
I55614
sS'ATAACC'
p796
I18066
sS'AAGGCA'
p797
I59422
sS'ATAACA'
p798
I28795
sS'AAGGCG'
p799
I20727
sS'ATAACG'
p800
I5159
sS'GAGGGT'
p801
I48518
sS'TGTCTG'
p802
I61244
sS'GAGAAG'
p803
I72624
sS'GAGAAA'
p804
I79734
sS'TGTCTC'
p805
I58200
sS'GAGAAC'
p806
I39073
sS'TGTCTA'
p807
I25277
sS'TGTGGC'
p808
I57517
sS'TGTGGA'
p809
I51909
sS'TGTGGG'
p810
I67491
sS'TGACAC'
p811
I34280
sS'ATAACT'
p812
I23807
sS'AAGGCT'
p813
I52630
sS'TAGGCT'
p814
I26496
sS'GATAGC'
p815
I12943
sS'AGGTAT'
p816
I21156
sS'ACCAAG'
p817
I38239
sS'GAGCAT'
p818
I28733
sS'GCCCCC'
p819
I89455
sS'AAGCAG'
p820
I67544
sS'ACCAAC'
p821
I25222
sS'GGTCAC'
p822
I40331
sS'GATCGC'
p823
I9378
sS'GGTCAT'
p824
I27113
sS'ACCAAT'
p825
I21812
sS'TGTGGT'
p826
I48688
sS'AGGTAA'
p827
I31436
sS'CAAACT'
p828
I43413
sS'TTTTGC'
p829
I47092
sS'TCTTAC'
p830
I23713
sS'AATTGG'
p831
I23595
sS'TCTTAA'
p832
I32625
sS'AATTGA'
p833
I24866
sS'TCTTAG'
p834
I27777
sS'AATTGC'
p835
I24891
sS'TAGCCA'
p836
I29690
sS'TGGGGT'
p837
I59881
sS'TAGCCC'
p838
I23582
sS'GATAAT'
p839
I21402
sS'CGCTCA'
p840
I17753
sS'TAGCCG'
p841
I8829
sS'AATTGT'
p842
I29410
sS'CGAGAG'
p843
I19670
sS'AATCTT'
p844
I32603
sS'TCTTAT'
p845
I26928
sS'TTTTGT'
p846
I77855
sS'CGCTCT'
p847
I23566
sS'GATAAA'
p848
I32837
sS'GATAAC'
p849
I15782
sS'TAGCCT'
p850
I27484
sS'TGGGGC'
p851
I82727
sS'GATAAG'
p852
I23195
sS'GATCCT'
p853
I31386
sS'AAGAAT'
p854
I46663
sS'CGAAGT'
p855
I9349
sS'CATTTG'
p856
I48384
sS'AAGAAC'
p857
I38790
sS'GATCCA'
p858
I26172
sS'AAGAAA'
p859
I97020
sS'ATGCCA'
p860
I38389
sS'AAGAAG'
p861
I58416
sS'GATCCG'
p862
I10947
sS'GCCCCA'
p863
I82703
sS'ATGCCG'
p864
I9476
sS'GCAACG'
p865
I9796
sS'CAAGGG'
p866
I50266
sS'CAAGGC'
p867
I55052
sS'GGTTCT'
p868
I36824
sS'CAAGGA'
p869
I51309
sS'GGCGCN'
p870
I1
sS'GGTTCA'
p871
I32172
sS'GGTTCC'
p872
I36627
sS'CAAGGT'
p873
I44540
sS'AACGGG'
p874
I12928
sS'TAGGCA'
p875
I29139
sS'ATTATA'
p876
I24555
sS'ATTATC'
p877
I21398
sS'TAGAAT'
p878
I28735
sS'CAAACG'
p879
I12228
sS'ATTATG'
p880
I22863
sS'AGTCTT'
p881
I36190
sS'TAGAAA'
p882
I48515
sS'TAGAAC'
p883
I21611
sS'ATTATT'
p884
I42926
sS'TAGAAG'
p885
I32185
sS'AGTCTA'
p886
I20228
sS'AGTCTC'
p887
I42969
sS'AGTCTG'
p888
I45938
sS'TAACTC'
p889
I23451
sS'TAACTA'
p890
I18702
sS'TAACTG'
p891
I29189
sS'ATCTAT'
p892
I19950
sS'ACGCGT'
p893
I4922
sS'GCCCCG'
p894
I73858
sS'TAACTT'
p895
I31069
sS'ATCTAG'
p896
I20562
sS'ATCTAC'
p897
I17250
sS'ATCTAA'
p898
I21853
sS'GGTCAG'
p899
I55885
sS'CCATGT'
p900
I41130
sS'ACCAAA'
p901
I40119
sS'TGGAGG'
p902
I84051
sS'TGGAGA'
p903
I70864
sS'TGGAGC'
p904
I60215
sS'CCATGC'
p905
I38039
sS'TCCAGA'
p906
I62216
sS'CCATGA'
p907
I36715
sS'CCATGG'
p908
I47991
sS'TGGAGT'
p909
I53665
sS'ATTACG'
p910
I4779
sS'TCAGTA'
p911
I28780
sS'TCAGTC'
p912
I36685
sS'CTCTCT'
p913
I94863
sS'GGGGAT'
p914
I37290
sS'TCAGTG'
p915
I52953
sS'CGATAT'
p916
I3054
sS'GGGGAA'
p917
I72796
sS'GGGGAC'
p918
I58030
sS'CTCTCC'
p919
I93815
sS'TCAGTT'
p920
I43633
sS'GGGGAG'
p921
I113678
sS'ATGTTT'
p922
I54359
sS'CGATAG'
p923
I3572
sS'CGATAA'
p924
I4102
sS'CGATAC'
p925
I3109
sS'CTAAGG'
p926
I28198
sS'GTGTTT'
p927
I54384
sS'GCTACT'
p928
I26950
sS'GTGGTT'
p929
I36662
sS'GTGTTC'
p930
I31347
sS'GTGTTA'
p931
I22384
sS'GTGTTG'
p932
I34203
sS'CGTGCC'
p933
I20047
sS'GTGGTA'
p934
I21519
sS'GCTACA'
p935
I23557
sS'GTGGTC'
p936
I30985
sS'GCTACC'
p937
I19478
sS'GTGGTG'
p938
I57603
sS'GCTACG'
p939
I7165
sS'AGGTAG'
p940
I30042
sS'TTTCGT'
p941
I9246
sS'TGCCCT'
p942
I73207
sS'AGCGTT'
p943
I10699
sS'CGTGCG'
p944
I12789
sS'TGCCCC'
p945
I69331
sS'TGCCCA'
p946
I70959
sS'TGCCCG'
p947
I29173
sS'TTTCGG'
p948
I11078
sS'AGCGTA'
p949
I4980
sS'AGCGTC'
p950
I14037
sS'AGCGTG'
p951
I17298
sS'GGCCCC'
p952
I93912
sS'GGCCCA'
p953
I67506
sS'CACGTG'
p954
I27724
sS'GGCCCG'
p955
I49522
sS'CACGTA'
p956
I8512
sS'CACGTC'
p957
I14472
sS'CTACGC'
p958
I6693
sS'CTACGA'
p959
I5337
sS'GGGACT'
p960
I49877
sS'ACAGTC'
p961
I34374
sS'CACGTT'
p962
I13521
sS'GGGGCC'
p963
I93904
sS'GNCCCA'
p964
I1
sS'GGCCCT'
p965
I71337
sS'GGGACA'
p966
I57211
sS'CTGAAT'
p967
I42772
sS'GGGACC'
p968
I52623
sS'AGGGAC'
p969
I53595
sS'GTCTCA'
p970
I45772
sS'CTACGT'
p971
I6898
sS'AGAGAG'
p972
I94857
sS'AGAGAA'
p973
I83674
sS'AGAGAC'
p974
I54922
sS'TCTATA'
p975
I18540
sS'GTCTTT'
p976
I42840
sS'TCTATC'
p977
I18732
sS'TCTATG'
p978
I22889
sS'AGAGAT'
p979
I47192
sS'TCGTGC'
p980
I9890
sS'GTCTTG'
p981
I33803
sS'TCTATT'
p982
I30707
sS'GTCTTC'
p983
I35652
sS'GTCTTA'
p984
I19523
sS'GCAGAG'
p985
I94491
sS'CGATTG'
p986
I5890
sS'GCTCAC'
p987
I52916
sS'GCAGAC'
p988
I39717
sS'GCAGAA'
p989
I58842
sS'GCTCAG'
p990
I74000
sS'AGACGT'
p991
I10506
sS'ATGCGT'
p992
I7443
sS'TTGCTG'
p993
I57884
sS'TTGCTA'
p994
I27368
sS'TTGCTC'
p995
I44826
sS'GCAGAT'
p996
I38299
sS'GCTCAT'
p997
I32863
sS'GTTTGC'
p998
I38707
sS'TTGCTT'
p999
I55815
sS'ATGCGG'
p1000
I10350
sS'CGCTCC'
p1001
I36959
sS'ATGCGC'
p1002
I9793
sS'TATATG'
p1003
I19958
sS'TGTAAG'
p1004
I27751
sS'GGCTAG'
p1005
I25311
sS'TGTAAC'
p1006
I24566
sS'GGCTAC'
p1007
I20891
sS'TGTAAA'
p1008
I48893
sS'GGTATT'
p1009
I21011
sS'TTCGAG'
p1010
I11110
sS'TTGGTA'
p1011
I21635
sS'ACTGTC'
p1012
I34591
sS'TTGGTC'
p1013
I27438
sS'TTCGAC'
p1014
I4663
sS'ACTGTG'
p1015
I55612
sS'GTACGC'
p1016
I4112
sS'GACTGC'
p1017
I35860
sS'GGCTAT'
p1018
I17708
sS'TGTAAT'
p1019
I40025
sS'GACTGG'
p1020
I46031
sS'TTCGAT'
p1021
I4811
sS'TTGGTT'
p1022
I37583
sS'ACTGTT'
p1023
I38642
sS'GTTTCT'
p1024
I57331
sS'GAATGA'
p1025
I46220
sS'ATAATT'
p1026
I34175
sS'CCTTTT'
p1027
I65013
sS'GTTTCG'
p1028
I8825
sS'GTTTCC'
p1029
I53169
sS'GTTTCA'
p1030
I43310
sS'ATAATG'
p1031
I26664
sS'CCTTTA'
p1032
I35974
sS'CCTTTC'
p1033
I68335
sS'ATAATC'
p1034
I20361
sS'NNNNGA'
p1035
I3
sS'ATAATA'
p1036
I30551
sS'CCTTTG'
p1037
I64958
sS'ACAGAA'
p1038
I67343
sS'CTCTCG'
p1039
I19673
sS'ACAGAC'
p1040
I44625
sS'GCCCCT'
p1041
I80470
sS'ACAGAG'
p1042
I82567
sS'TTATCT'
p1043
I39445
sS'CTGGAC'
p1044
I52010
sS'CTGGAA'
p1045
I78698
sS'CTGGAG'
p1046
I105277
sS'ACAGAT'
p1047
I41965
sS'TTATCG'
p1048
I4099
sS'TTATCA'
p1049
I27746
sS'CTGGAT'
p1050
I42072
sS'TTATCC'
p1051
I21940
sS'CCAATG'
p1052
I27263
sS'AAACCG'
p1053
I11819
sS'ATTTGT'
p1054
I47800
sS'CCAATC'
p1055
I25523
sS'AAACCC'
p1056
I45631
sS'CCAATA'
p1057
I19355
sS'TGTCGG'
p1058
I10992
sS'GAGATC'
p1059
I29468
sS'CCCTAT'
p1060
I20001
sS'GAGATA'
p1061
I26709
sS'TGTCGC'
p1062
I12128
sS'GAGATG'
p1063
I49905
sS'AACGAC'
p1064
I6273
sS'ATTTGA'
p1065
I40094
sS'CCAATT'
p1066
I23604
sS'CTAGTT'
p1067
I21327
sS'GGGTAT'
p1068
I15831
sS'ATTTGG'
p1069
I40503
sS'CCCTAG'
p1070
I33951
sS'TGTCGT'
p1071
I7522
sS'CCCTAC'
p1072
I27990
sS'GAGATT'
p1073
I33749
sS'CCCTAA'
p1074
I28295
sS'CATTAT'
p1075
I26690
sS'TGTTTG'
p1076
I68074
sS'TGGATT'
p1077
I36312
sS'ATCACA'
p1078
I38271
sS'ATCACC'
p1079
I29787
sS'CATGCT'
p1080
I38630
sS'GTAAAC'
p1081
I28038
sS'TGACAA'
p1082
I36217
sS'TGGATA'
p1083
I22304
sS'CATTAG'
p1084
I22618
sS'CATTAA'
p1085
I29649
sS'TGGATG'
p1086
I39666
sS'CATGCA'
p1087
I38926
sS'TGACAT'
p1088
I35927
sS'CATGCC'
p1089
I42902
sS'ATCACT'
p1090
I34763
sS'AATTAG'
p1091
I28626
sS'GTAGAA'
p1092
I26675
sS'GTAGAC'
p1093
I14596
sS'GTAGAG'
p1094
I31129
sS'ACAACA'
p1095
I39606
sS'ACAACC'
p1096
I26039
sS'GCATGA'
p1097
I31837
sS'GATTGC'
p1098
I21797
sS'GATTGA'
p1099
I18965
sS'ACTAAG'
p1100
I22423
sS'GTAGAT'
p1101
I17259
sS'TGCTAC'
p1102
I21191
sS'ATACGA'
p1103
I3926
sS'TGATGC'
p1104
I26373
sS'GATTGT'
p1105
I21921
sS'ACAACT'
p1106
I29574
sS'GCGCGT'
p1107
I13497
sS'TAATAG'
p1108
I19460
sS'AGTCCG'
p1109
I12479
sS'TAATAC'
p1110
I17181
sS'GTCCGA'
p1111
I8492
sS'TAATAA'
p1112
I36251
sS'GTCCGC'
p1113
I16909
sS'TGTTTA'
p1114
I52957
sS'GATCCC'
p1115
I29962
sS'ACTCTT'
p1116
I37614
sS'GTCCGT'
p1117
I9070
sS'TAATAT'
p1118
I25488
sS'CGTAAC'
p1119
I4745
sS'GGGNCC'
p1120
I1
sS'ATTCGC'
p1121
I5678
sS'TTCTCC'
p1122
I74123
sS'ATTCGA'
p1123
I5670
sS'TTCTCA'
p1124
I61697
sS'ATCCAT'
p1125
I25589
sS'TTCTCG'
p1126
I13643
sS'TCGTAC'
p1127
I3289
sS'TACCTT'
p1128
I27140
sS'TCGTAA'
p1129
I4695
sS'TCGTAG'
p1130
I5331
sS'GAACCT'
p1131
I32366
sS'ATCCAA'
p1132
I27426
sS'ATCCAC'
p1133
I29365
sS'TGAACC'
p1134
I32205
sS'TTCTCT'
p1135
I83667
sS'TGAACA'
p1136
I41399
sS'GAACCC'
p1137
I35858
sS'TACCTG'
p1138
I31975
sS'TACCTA'
p1139
I17957
sS'TACCTC'
p1140
I25398
sS'TCGTAT'
p1141
I3925
sS'ATGTTA'
p1142
I27210
sS'ACCATA'
p1143
I17482
sS'ACCATG'
p1144
I36318
sS'ATGTTG'
p1145
I35531
sS'AGCTCT'
p1146
I61305
sS'TGTCCT'
p1147
I59233
sS'AGTGGT'
p1148
I37142
sS'CGTGGT'
p1149
I17328
sS'AAACGA'
p1150
I11404
sS'ATGAGC'
p1151
I32875
sS'CTGTGG'
p1152
I82409
sS'ACCATT'
p1153
I27658
sS'AGTGGA'
p1154
I45564
sS'AGTGGC'
p1155
I53712
sS'AGCTCC'
p1156
I67649
sS'AGCTCA'
p1157
I57401
sS'TCCATG'
p1158
I40723
sS'CAGTAA'
p1159
I34410
sS'CAGTAC'
p1160
I20747
sS'CAGTAG'
p1161
I30912
sS'TTAATA'
p1162
I31030
sS'CAGTAT'
p1163
I23889
sS'ATGGNA'
p1164
I1
sS'GTTCCT'
p1165
I43584
sS'GATGGN'
p1166
I1
sS'TTAATC'
p1167
I23446
sS'CCGGCT'
p1168
I36914
sS'GATCTA'
p1169
I13953
sS'GATCTC'
p1170
I29465
sS'ATTGAC'
p1171
I18507
sS'GATCTG'
p1172
I34240
sS'TTTCAG'
p1173
I64171
sS'CCGGCC'
p1174
I63733
sS'ATTAGG'
p1175
I21453
sS'AACCTA'
p1176
I21131
sS'CACATT'
p1177
I45571
sS'ATTAGC'
p1178
I22957
sS'TCCCTC'
p1179
I86445
sS'TGTCCG'
p1180
I13082
sS'TCCCTA'
p1181
I32803
sS'TGCCAC'
p1182
I50807
sS'TCCCTG'
p1183
I96359
sS'GATCTT'
p1184
I26529
sS'CTAGAC'
p1185
I19091
sS'AAGTGA'
p1186
I51334
sS'AAGTGC'
p1187
I42869
sS'TGTTCT'
p1188
I53722
sS'AAGTGG'
p1189
I46231
sS'TGATTG'
p1190
I29718
sS'TGCGCA'
p1191
I15712
sS'TCTGAT'
p1192
I37495
sS'TGATTA'
p1193
I25315
sS'TGTTCA'
p1194
I41416
sS'CACAAG'
p1195
I42161
sS'TGTTCC'
p1196
I43370
sS'CACAAA'
p1197
I58225
sS'CACAAC'
p1198
I30262
sS'TGTTCG'
p1199
I7316
sS'TCTGAA'
p1200
I56482
sS'TCTGAC'
p1201
I39909
sS'TCTGAG'
p1202
I66996
sS'CGCGCC'
p1203
I46784
sS'CGCGCA'
p1204
I18277
sS'GGTAAA'
p1205
I29726
sS'CGCGCG'
p1206
I38290
sS'CTCCCT'
p1207
I107813
sS'AGCGGG'
p1208
I33969
sS'AGCGGA'
p1209
I18122
sS'ACCTCT'
p1210
I50397
sS'AGATGA'
p1211
I47798
sS'GACGTG'
p1212
I14467
sS'GACATT'
p1213
I33096
sS'CGCGCT'
p1214
I21928
sS'GTGCGA'
p1215
I8669
sS'ACCTCA'
p1216
I49244
sS'CTCCCA'
p1217
I101953
sS'CTCCCC'
p1218
I113650
sS'GCCTCT'
p1219
I76583
sS'TAAGCC'
p1220
I24710
sS'TAGCTC'
p1221
I25663
sS'CCCATG'
p1222
I43135
sS'CGGGAA'
p1223
I26701
sS'CCCATA'
p1224
I20612
sS'TAGCTG'
p1225
I38568
sS'CCCATC'
p1226
I48409
sS'CCGAGA'
p1227
I21962
sS'CCTGCT'
p1228
I86407
sS'CCGAAT'
p1229
I7241
sS'CCCATT'
p1230
I41132
sS'CGGGAT'
p1231
I14034
sS'GCCTCG'
p1232
I34394
sS'TAGCTT'
p1233
I25511
sS'TAAGCT'
p1234
I23815
sS'GCCTCC'
p1235
I109748
sS'CCGAAC'
p1236
I9052
sS'CCTGCG'
p1237
I36399
sS'CCGAAA'
p1238
I11076
sS'CCGAAG'
p1239
I16559
sS'CCTGCC'
p1240
I117090
sS'CCTGCA'
p1241
I76548
sS'CGACAC'
p1242
I9039
sS'CCATTC'
p1243
I39246
sS'TATAAG'
p1244
I16721
sS'ATTTCC'
p1245
I53743
sS'TATAAA'
p1246
I37651
sS'TATAAC'
p1247
I14666
sS'GCNNNN'
p1248
I1
sS'GATTTG'
p1249
I32672
sS'CATTTC'
p1250
I58941
sS'GGTTCG'
p1251
I8663
sS'TATAAT'
p1252
I24582
sS'CCATTT'
p1253
I52151
sS'TCTACA'
p1254
I28815
sS'TCTACC'
p1255
I24928
sS'CTNCCA'
p1256
I1
sS'TCTACG'
p1257
I6099
sS'CACCGT'
p1258
I15686
sS'CGCAAC'
p1259
I8011
sS'TGCTTA'
p1260
I31483
sS'CGCAAA'
p1261
I10057
sS'ATACCG'
p1262
I4169
sS'CGCAAG'
p1263
I11380
sS'ATACCA'
p1264
I21763
sS'ATACCC'
p1265
I15827
sS'TCTACT'
p1266
I29756
sS'CCGAGT'
p1267
I17156
sS'ATACCT'
p1268
I21148
sS'CGCAAT'
p1269
I6451
sS'TAGTAA'
p1270
I21148
sS'TGGGTG'
p1271
I68250
sS'TAGTAC'
p1272
I10791
sS'CTCAAG'
p1273
I46717
sS'CTCAAA'
p1274
I57400
sS'TAGTAG'
p1275
I18197
sS'CTCAAC'
p1276
I29604
sS'GTGTGC'
p1277
I43301
sS'GTGTGA'
p1278
I43764
sS'GTGTGG'
p1279
I57185
sS'TAACGG'
p1280
I5723
sS'CTCAAT'
p1281
I26418
sS'TAGTAT'
p1282
I14573
sS'GTTCTC'
p1283
I39077
sS'CTCCCG'
p1284
I51687
sS'GTGTGT'
p1285
I97585
sS'ATCTTT'
p1286
I44532
sS'GTTGGG'
p1287
I42149
sS'GTTGGA'
p1288
I30175
sS'GTTGGC'
p1289
I29378
sS'CCTTGG'
p1290
I66298
sS'CCTTGA'
p1291
I44551
sS'GCGTAT'
p1292
I3924
sS'AGGATT'
p1293
I38858
sS'GGACGT'
p1294
I12334
sS'CTAAGC'
p1295
I24802
sS'GTTGGT'
p1296
I25218
sS'ATCTTG'
p1297
I31151
sS'GAGAGT'
p1298
I37226
sS'ATCTTA'
p1299
I22016
sS'ATCTTC'
p1300
I32226
sS'CCTTGT'
p1301
I43867
sS'AGGATA'
p1302
I24028
sS'AGGATG'
p1303
I48573
sS'GACATG'
p1304
I29756
sS'TTGCGT'
p1305
I8127
sS'GACATA'
p1306
I18275
sS'GATTTC'
p1307
I35009
sS'GAATAT'
p1308
I24291
sS'GGTGCA'
p1309
I38956
sS'TCGGCC'
p1310
I27123
sS'ATCAGA'
p1311
I37493
sS'TTGCGA'
p1312
I6145
sS'TTGCGC'
p1313
I9991
sS'TTGCGG'
p1314
I11603
sS'GAATAG'
p1315
I21400
sS'TCGGCT'
p1316
I18841
sS'ATCAGC'
p1317
I31999
sS'GAATAC'
p1318
I17479
sS'GAATAA'
p1319
I32752
sS'ACTTTT'
p1320
I52870
sS'TGCAGA'
p1321
I64596
sS'CGACAG'
p1322
I14513
sS'ATACAA'
p1323
I30639
sS'GGACGA'
p1324
I11889
sS'TACAAG'
p1325
I24049
sS'TGCCTC'
p1326
I71461
sS'ACGTCG'
p1327
I4355
sS'GGACGC'
p1328
I24229
sS'TTATAA'
p1329
I30348
sS'GAAATG'
p1330
I58911
sS'AATGAT'
p1331
I32639
sS'GAAATA'
p1332
I43874
sS'GAAATC'
p1333
I35029
sS'ACCGGT'
p1334
I6656
sS'GAAATT'
p1335
I41383
sS'AATGAA'
p1336
I58869
sS'ATGTCC'
p1337
I29625
sS'AATGAC'
p1338
I34526
sS'AATGAG'
p1339
I48563
sS'TCATTG'
p1340
I33891
sS'CTTGGA'
p1341
I48165
sS'CTTGGC'
p1342
I56037
sS'GTCCTT'
p1343
I40168
sS'CTTGGG'
p1344
I62151
sS'AGCCCT'
p1345
I70805
sS'GCGTAA'
p1346
I4754
sS'TTGAAT'
p1347
I34939
sS'GTCCTA'
p1348
I19832
sS'GTCCTC'
p1349
I46992
sS'TGCACG'
p1350
I15509
sS'CTTGGT'
p1351
I38228
sS'GTCCTG'
p1352
I58490
sS'TGCACC'
p1353
I38991
sS'TTGAAA'
p1354
I54786
sS'TTGAAC'
p1355
I34403
sS'AGCCCA'
p1356
I71695
sS'AGCCCC'
p1357
I83944
sS'CTTATG'
p1358
I19982
sS'ATAAAT'
p1359
I50588
sS'TGGTCG'
p1360
I8841
sS'TGGTCA'
p1361
I38026
sS'TGGTCC'
p1362
I34578
sS'ACGATT'
p1363
I5813
sS'GAGACT'
p1364
I42951
sS'GATTCA'
p1365
I28959
sS'TGGTCT'
p1366
I45413
sS'ATAAAG'
p1367
I38930
sS'ATAAAA'
p1368
I62450
sS'TCAGCC'
p1369
I70302
sS'ATAAAC'
p1370
I33048
sS'GAGACG'
p1371
I21213
sS'GATTCG'
p1372
I6322
sS'CTACAG'
p1373
I36386
sS'GAGACC'
p1374
I47917
sS'ACGATC'
p1375
I5228
sS'GAGACA'
p1376
I58145
sS'ACGATA'
p1377
I3545
sS'GGTTAC'
p1378
I17280
sS'ATGTGT'
p1379
I43792
sS'GGTTAA'
p1380
I24072
sS'GACGTC'
p1381
I10988
sS'GGTTAG'
p1382
I19927
sS'CTTCCT'
p1383
I102033
sS'GAATGT'
p1384
I39665
sS'GAGGAC'
p1385
I47002
sS'CGTGAA'
p1386
I11434
sS'CCAACA'
p1387
I41956
sS'TCCGCT'
p1388
I18130
sS'CTTCCA'
p1389
I64354
sS'ATGTGG'
p1390
I43100
sS'ATGTGA'
p1391
I40493
sS'CGTATG'
p1392
I4535
sS'ACCACA'
p1393
I48651
sS'GGTTAT'
p1394
I18073
sS'TCCGCC'
p1395
I36475
sS'TCCGCA'
p1396
I15925
sS'TCCGCG'
p1397
I19510
sS'AACGTC'
p1398
I8383
sS'TAAGTT'
p1399
I24099
sS'AACGTG'
p1400
I13513
sS'CGTGAC'
p1401
I13454
sS'GGTAGC'
p1402
I19474
sS'AGTGTG'
p1403
I48205
sS'TCTTCG'
p1404
I10910
sS'AGTGTA'
p1405
I22881
sS'TCTTCA'
p1406
I49437
sS'AGTGTC'
p1407
I33654
sS'TCTTCC'
p1408
I71927
sS'CGTGAT'
p1409
I9878
sS'TAAGTC'
p1410
I19579
sS'AACGTT'
p1411
I9681
sS'CAATTT'
p1412
I35075
sS'TCTTCT'
p1413
I63116
sS'AGTGTT'
p1414
I39553
sS'GTGCGC'
p1415
I19639
sS'TTGGCA'
p1416
I39656
sS'AAAGGT'
p1417
I43481
sS'TTGGCC'
p1418
I48616
sS'CCGTGC'
p1419
I20462
sS'CTTATT'
p1420
I32248
sS'TTGGCG'
p1421
I12816
sS'GACTTC'
p1422
I35606
sS'TCGAGT'
p1423
I7302
sS'GACTTA'
p1424
I19561
sS'GACTTG'
p1425
I33944
sS'ACGTAG'
p1426
I6893
sS'AAAGGG'
p1427
I63523
sS'AAAGGA'
p1428
I72018
sS'TTGGCT'
p1429
I49353
sS'AAAGGC'
p1430
I55232
sS'GAGTAC'
p1431
I14844
sS'GTATGG'
p1432
I15345
sS'GTCGAT'
p1433
I3649
sS'GACTTT'
p1434
I43851
sS'TTCTTT'
p1435
I94416
sS'CGTGGC'
p1436
I26217
sS'AGCGAG'
p1437
I23814
sS'CAAGAC'
p1438
I33823
sS'CAAGAG'
p1439
I50631
sS'CGTATT'
p1440
I6150
sS'TTCTTG'
p1441
I47409
sS'TTCTTC'
p1442
I60526
sS'TTCTTA'
p1443
I38250
sS'CAAGAT'
p1444
I31172
sS'AGGGCT'
p1445
I70806
sS'TACGGG'
p1446
I6819
sS'TACGGA'
p1447
I6042
sS'TACGGC'
p1448
I5834
sS'CCAACT'
p1449
I34733
sS'TAGAGT'
p1450
I22953
sS'TACGGT'
p1451
I5034
sS'AGGGCG'
p1452
I37564
sS'AGGGCA'
p1453
I73199
sS'AGGGCC'
p1454
I71333
sS'TCGAGA'
p1455
I10459
sS'CTGTGC'
p1456
I65748
sS'TAGAGA'
p1457
I41276
sS'TAGAGG'
p1458
I34511
sS'GTGTAA'
p1459
I24641
sS'GTGCTG'
p1460
I68234
sS'CGGGGT'
p1461
I29799
sS'GTGCTA'
p1462
I21137
sS'ATCTGT'
p1463
I41961
sS'GTGCTC'
p1464
I37834
sS'GGCGAC'
p1465
I18672
sS'ACCACT'
p1466
I37159
sS'GTGCTT'
p1467
I39224
sS'ATCTGC'
p1468
I38303
sS'CGAATA'
p1469
I4221
sS'CGAATG'
p1470
I7991
sS'ATCTGG'
p1471
I41502
sS'ATCATA'
p1472
I19562
sS'TGCCTA'
p1473
I29137
sS'ATCATC'
p1474
I24803
sS'GATAGA'
p1475
I18727
sS'AAGCAA'
p1476
I55807
sS'GATAGG'
p1477
I18266
sS'ATCATG'
p1478
I26612
sS'GGCTCA'
p1479
I67851
sS'GTTATG'
p1480
I17631
sS'CTAGGT'
p1481
I24097
sS'CATTTA'
p1482
I44918
sS'ACGCAT'
p1483
I7445
sS'GTTATC'
p1484
I15785
sS'GTTATA'
p1485
I14655
sS'CAAACA'
p1486
I68063
sS'AAGCAT'
p1487
I34608
sS'CAAACC'
p1488
I38341
sS'TTTACA'
p1489
I48865
sS'ATCATT'
p1490
I32637
sS'GATAGT'
p1491
I13396
sS'ACGCAG'
p1492
I19181
sS'CTAGGG'
p1493
I33931
sS'GTTATT'
p1494
I27774
sS'CTAGGC'
p1495
I30206
sS'CATTTT'
p1496
I74628
sS'CTAGGA'
p1497
I34414
sS'AAGTTT'
p1498
I44828
sS'TACAGT'
p1499
I30574
sS'CTCGAA'
p1500
I11125
sS'CTCGGC'
p1501
I38566
sS'CTAAGA'
p1502
I27778
sS'GGGGCT'
p1503
I83939
sS'TACAGG'
p1504
I42108
sS'AAGTTG'
p1505
I31899
sS'GGATGC'
p1506
I30727
sS'AAGTTA'
p1507
I31051
sS'CAGTTA'
p1508
I29174
sS'AAGTTC'
p1509
I36170
sS'TACAGA'
p1510
I39930
sS'AGTAAA'
p1511
I43927
sS'GTATGA'
p1512
I16960
sS'GGGGCA'
p1513
I69338
sS'ATATGT'
p1514
I26391
sS'GGGGCG'
p1515
I79312
sS'TATATC'
p1516
I13236
sS'TATATA'
p1517
I30438
sS'TGTATA'
p1518
I22420
sS'CTTTTA'
p1519
I46903
sS'ACATCG'
p1520
I6701
sS'TCCGGT'
p1521
I11426
sS'GGTCCA'
p1522
I31892
sS'TATATT'
p1523
I30122
sS'TGATGG'
p1524
I36374
sS'CATATG'
p1525
I21616
sS'ATGAGT'
p1526
I32844
sS'GCCCAC'
p1527
I55669
sS'TGATGA'
p1528
I37035
sS'AGCATG'
p1529
I38623
sS'TGCCAT'
p1530
I39681
sS'CACATC'
p1531
I35792
sS'TGTTTC'
p1532
I56633
sS'CACATA'
p1533
I31605
sS'TTAATT'
p1534
I39182
sS'CACATG'
p1535
I46657
sS'TTTCAT'
p1536
I55375
sS'ATGAGA'
p1537
I42052
sS'TGATGT'
p1538
I33924
sS'AGTAAC'
p1539
I23119
sS'ATGAGG'
p1540
I45010
sS'TTTCAC'
p1541
I48721
sS'ACTCTG'
p1542
I59957
sS'TTTCAA'
p1543
I54791
sS'ACTCTA'
p1544
I22951
sS'TGTTTT'
p1545
I90080
sS'ACTCTC'
p1546
I37244
sS'TTAATG'
p1547
I29617
sS'AAATTC'
p1548
I44158
sS'GACTGA'
p1549
I36696
sS'AAATTA'
p1550
I49485
sS'AAATTG'
p1551
I35070
sS'CCAGTA'
p1552
I26388
sS'AGACCG'
p1553
I12636
sS'AAATTT'
p1554
I52494
sS'TTCGAA'
p1555
I7393
sS'CTTAGT'
p1556
I22425
sS'GGGAAC'
p1557
I43203
sS'GGTGCG'
p1558
I20994
sS'GGGAAA'
p1559
I77914
sS'GGGAAG'
p1560
I96889
sS'GGTGCC'
p1561
I46493
sS'TCGTCC'
p1562
I11891
sS'TCCGGG'
p1563
I33773
sS'AGAGCG'
p1564
I23564
sS'GCGACT'
p1565
I10443
sS'AGAGCC'
p1566
I64132
sS'AGAGCA'
p1567
I63844
sS'GCGTAG'
p1568
I6689
sS'GGTGCT'
p1569
I45192
sS'GCGTAC'
p1570
I4111
sS'GGGAAT'
p1571
I38923
sS'GCGACG'
p1572
I10189
sS'AGAGCT'
p1573
I61307
sS'GCGACA'
p1574
I12125
sS'TATCGG'
p1575
I3547
sS'GCGACC'
p1576
I15276
sS'AGGTCG'
p1577
I13024
sS'GCAGGA'
p1578
I82103
sS'GCAGGC'
p1579
I77040
sS'GCAGGG'
p1580
I104390
sS'GGCGAT'
p1581
I9402
sS'GCACTA'
p1582
I16949
sS'GCTCGA'
p1583
I8797
sS'GCTCGG'
p1584
I29515
sS'TATTCT'
p1585
I33639
sS'CCGTGG'
p1586
I26603
sS'CTTTAG'
p1587
I31104
sS'GCAGGT'
p1588
I52849
sS'TGAAGC'
p1589
I41998
sS'TATTCC'
p1590
I26021
sS'CAATTG'
p1591
I18372
sS'TATTCA'
p1592
I32031
sS'CAATTA'
p1593
I22091
sS'TATTCG'
p1594
I4222
sS'GCTCGT'
p1595
I9487
sS'TGTAGA'
p1596
I28819
sS'TTTACC'
p1597
I29718
sS'TGTAGC'
p1598
I23559
sS'GGCTCC'
p1599
I82311
sS'TTTACG'
p1600
I6761
sS'TGTAGG'
p1601
I27095
sS'GGCTCG'
p1602
I24317
sS'TTCGGA'
p1603
I9454
sS'TTCGGC'
p1604
I11320
sS'CTTTAC'
p1605
I28260
sS'TTCAAG'
p1606
I45246
sS'TTCGGG'
p1607
I14829
sS'CACGAG'
p1608
I14780
sS'GGCTCT'
p1609
I64135
sS'TGTAGT'
p1610
I27225
sS'TTTACT'
p1611
I43904
sS'AGCATA'
p1612
I21479
sS'AGACCT'
p1613
I40688
sS'TTCGGT'
p1614
I8307
sS'GTTTAT'
p1615
I33051
sS'CTCTCA'
p1616
I56435
sS'GCACTC'
p1617
I38190
sS'GCCTTT'
p1618
I55250
sS'AGGCAT'
p1619
I42777
sS'GTTTAA'
p1620
I33105
sS'GAGGTG'
p1621
I66968
sS'AACTTG'
p1622
I34939
sS'GTTTAG'
p1623
I23334
sS'GAGGTA'
p1624
I25393
sS'CTGGCT'
p1625
I89692
sS'AGGCGG'
p1626
I50556
sS'GTCGGT'
p1627
I7909
sS'AGGCGC'
p1628
I32969
sS'AGGAGT'
p1629
I50892
sS'ACAGCC'
p1630
I62177
sS'ACAGCA'
p1631
I62957
sS'GAGGTC'
p1632
I45298
sS'ACAGCG'
p1633
I20201
sS'AGGAGC'
p1634
I68444
sS'AGGCGT'
p1635
I19186
sS'AGGAGA'
p1636
I81532
sS'CTGGCG'
p1637
I31819
sS'AGGAGG'
p1638
I116687
sS'CTGGCA'
p1639
I66579
sS'CTGGCC'
p1640
I97623
sS'GCGCCC'
p1641
I57151
sS'GCATCG'
p1642
I8128
sS'ACAGCT'
p1643
I56692
sS'GCTCTC'
p1644
I54110
sS'ATTGGT'
p1645
I21801
sS'AATTTT'
p1646
I62684
sS'TGTCAA'
p1647
I31376
sS'TGTCAC'
p1648
I43664
sS'CCCTCT'
p1649
I85484
sS'GGAAAC'
p1650
I53187
sS'ATTTAT'
p1651
I50566
sS'ATTGGG'
p1652
I23872
sS'AATTTA'
p1653
I39278
sS'AATTTC'
p1654
I41365
sS'AACGCC'
p1655
I12246
sS'ATTGGA'
p1656
I24949
sS'AATTTG'
p1657
I37868
sS'CCCTCA'
p1658
I62508
sS'CCCTCC'
p1659
I129972
sS'TGTCAT'
p1660
I37529
sS'CCCTCG'
p1661
I31438
sS'TAAATA'
p1662
I54266
sS'GGCGTT'
p1663
I12251
sS'TGACCA'
p1664
I38008
sS'CATTCT'
p1665
I51111
sS'TAAATC'
p1666
I26216
sS'TGACCG'
p1667
I11093
sS'ACCACG'
p1668
I17340
sS'CATTCG'
p1669
I7988
sS'CATTCC'
p1670
I51043
sS'GCACTG'
p1671
I52565
sS'TCCATA'
p1672
I22014
sS'ACGAAA'
p1673
I9249
sS'TAAATG'
p1674
I44927
sS'ACAAAT'
p1675
I47802
sS'GATTAA'
p1676
I23465
sS'GTAGGC'
p1677
I19485
sS'GATTAC'
p1678
I24797
sS'GTAGGA'
p1679
I25577
sS'GTAGGG'
p1680
I27987
sS'GATTAG'
p1681
I17720
sS'GCGGGT'
p1682
I24157
sS'ACAAAC'
p1683
I47217
sS'ACAAAA'
p1684
I77899
sS'ACAAAG'
p1685
I64740
sS'GCGGGC'
p1686
I55589
sS'AGGCGA'
p1687
I17396
sS'GCGGGA'
p1688
I40196
sS'GCGGGG'
p1689
I87397
sS'GATTAT'
p1690
I20361
sS'GTAGGT'
p1691
I20875
sS'AACCTG'
p1692
I43842
sS'TAATGA'
p1693
I29943
sS'GATGTT'
p1694
I29414
sS'TAATGC'
p1695
I19545
sS'GGAGAT'
p1696
I40253
sS'GCCCTT'
p1697
I52267
sS'CAATAA'
p1698
I30588
sS'CGCAGT'
p1699
I16637
sS'GCCCTC'
p1700
I74819
sS'GATGTG'
p1701
I35797
sS'GCCCTA'
p1702
I25141
sS'GATGTA'
p1703
I17023
sS'TAATGT'
p1704
I26600
sS'GATGTC'
p1705
I24485
sS'CAATAG'
p1706
I20420
sS'TGAAAT'
p1707
I55678
sS'TTCTAG'
p1708
I34660
sS'TTCTAA'
p1709
I39154
sS'ATCCGT'
p1710
I6712
sS'TTCTAC'
p1711
I26665
sS'TGAAAA'
p1712
I68238
sS'TGAAAC'
p1713
I43315
sS'TGAAAG'
p1714
I56038
sS'TTCTAT'
p1715
I30484
sS'ATCCGC'
p1716
I11138
sS'ATCCGA'
p1717
I6399
sS'ATCCGG'
p1718
I10715
sS'TGGCTC'
p1719
I69427
sS'TGGCTA'
p1720
I29700
sS'NNNNCT'
p1721
I1
sS'TGGCTG'
p1722
I86783
sS'GACCGG'
p1723
I15826
sS'GTCGGA'
p1724
I8995
sS'AGTTGT'
p1725
I29576
sS'AGCTAT'
p1726
I23960
sS'ATTAGT'
p1727
I19171
sS'GTCGGC'
p1728
I14190
sS'CGTCGA'
p1729
I2950
sS'NNNNCA'
p1730
I1
sS'TGGCTT'
p1731
I59824
sS'AGTTGG'
p1732
I34731
sS'AGCTAA'
p1733
I29247
sS'ACGCCG'
p1734
I12615
sS'AGCTAC'
p1735
I28037
sS'AGTTGC'
p1736
I26919
sS'AGTTGA'
p1737
I27716
sS'AGCTAG'
p1738
I26651
sS'CGTTGA'
p1739
I6699
sS'TCCAGT'
p1740
I46053
sS'GCACCT'
p1741
I43503
sS'CAGTGT'
p1742
I52573
sS'AGTCAG'
p1743
I49770
sS'TCAGGT'
p1744
I40862
sS'TCAAGG'
p1745
I44558
sS'ACGCAC'
p1746
I13186
sS'TCAAGC'
p1747
I32295
sS'TCAAGA'
p1748
I35406
sS'CTAATA'
p1749
I18724
sS'CAGTGC'
p1750
I52570
sS'CTAATC'
p1751
I17727
sS'CAGTGA'
p1752
I66552
sS'CAGTGG'
p1753
I73318
sS'GCACCG'
p1754
I21336
sS'TCAAGT'
p1755
I33758
sS'TCAGGG'
p1756
I65809
sS'TCAGGA'
p1757
I64552
sS'TCAGGC'
p1758
I55210
sS'CGAGCT'
p1759
I16338
sS'CGTTGG'
p1760
I10875
sS'CTGTTG'
p1761
I47290
sS'CAACCA'
p1762
I33658
sS'AGTCAA'
p1763
I31659
sS'TTCCCT'
p1764
I80071
sS'CGAGCG'
p1765
I16250
sS'CGAGCA'
p1766
I13574
sS'CGCAGC'
p1767
I39462
sS'CGAGCC'
p1768
I24326
sS'GTTCAG'
p1769
I39129
sS'TTCCCC'
p1770
I72788
sS'GTTCAC'
p1771
I27297
sS'TTCCCG'
p1772
I26704
sS'GATCAC'
p1773
I28073
sS'GGACCT'
p1774
I39041
sS'TACATG'
p1775
I24332
sS'AAGTAC'
p1776
I22062
sS'CACACT'
p1777
I48220
sS'TACATC'
p1778
I17052
sS'AAGTAG'
p1779
I28188
sS'TACATA'
p1780
I25351
sS'CATGGT'
p1781
I36301
sS'GGACCG'
p1782
I18164
sS'AACGCT'
p1783
I10698
sS'GGACCA'
p1784
I34560
sS'CTTTCT'
p1785
I83945
sS'GGACCC'
p1786
I49798
sS'CACACG'
p1787
I22003
sS'TACATT'
p1788
I32425
sS'CACACC'
p1789
I52939
sS'CTGCAT'
p1790
I45017
sS'CACACA'
p1791
I118797
sS'TCTGCC'
p1792
I76326
sS'TCTGCA'
p1793
I64560
sS'TCTGCG'
p1794
I21108
sS'TAGATT'
p1795
I22237
sS'CCCGTC'
p1796
I22735
sS'TTAAGG'
p1797
I26897
sS'CCCGTA'
p1798
I6814
sS'TTAAGA'
p1799
I32608
sS'CCCGTG'
p1800
I22977
sS'TTAAGC'
p1801
I23301
sS'TTACGT'
p1802
I6957
sS'TAGATC'
p1803
I13960
sS'AAACAG'
p1804
I71413
sS'TAGATA'
p1805
I19315
sS'TTTCGC'
p1806
I9549
sS'TAGATG'
p1807
I24103
sS'TCTGCT'
p1808
I69215
sS'TTACGC'
p1809
I4756
sS'TTAAGT'
p1810
I30224
sS'TTACGA'
p1811
I4695
sS'TTACGG'
p1812
I6098
sS'CCCGTT'
p1813
I12921
sS'AGTGAC'
p1814
I42129
sS'AGTGAA'
p1815
I47216
sS'AGTGAG'
p1816
I63551
sS'ACATTT'
p1817
I61200
sS'CGGGCG'
p1818
I46029
sS'AAACAC'
p1819
I54386
sS'TAAGAG'
p1820
I31256
sS'CGGGCC'
p1821
I49525
sS'TAAGAA'
p1822
I38299
sS'CGGGCA'
p1823
I29165
sS'TAAGAC'
p1824
I19543
sS'TGTCAG'
p1825
I46256
sS'AGTGAT'
p1826
I34777
sS'CTTTCC'
p1827
I77046
sS'TAAGAT'
p1828
I22023
sS'CCTGAA'
p1829
I54774
sS'CCTGAC'
p1830
I53757
sS'CCTGAG'
p1831
I84040
sS'GTTAGG'
p1832
I22389
sS'GCCAAC'
p1833
I29364
sS'TATACT'
p1834
I16343
sS'GTTAGC'
p1835
I16275
sS'GTTAGA'
p1836
I20372
sS'GNNNNN'
p1837
I2
sS'GCCAAA'
p1838
I40023
sS'TATACG'
p1839
I3147
sS'GTTAGT'
p1840
I16060
sS'TATACC'
p1841
I11556
sS'TATACA'
p1842
I22414
sS'ATTGGC'
p1843
I25086
sS'TCTTGT'
p1844
I38875
sS'TCCACG'
p1845
I18577
sS'ACTAGT'
p1846
I14253
sS'TTTATT'
p1847
I78659
sS'GTAATA'
p1848
I17953
sS'AACGCA'
p1849
I10369
sS'GTAATC'
p1850
I24775
sS'TCTAAC'
p1851
I20384
sS'CGTTCT'
p1852
I12582
sS'GTGAAG'
p1853
I41913
sS'CGGATC'
p1854
I10928
sS'CCACCA'
p1855
I69761
sS'CCACCC'
p1856
I93172
sS'GTTCGT'
p1857
I5983
sS'TTTATG'
p1858
I35811
sS'GTAATT'
p1859
I25192
sS'TTTATC'
p1860
I32849
sS'ACTAGC'
p1861
I16063
sS'TTTATA'
p1862
I37601
sS'ATTTAC'
p1863
I34761
sS'CCACCT'
p1864
I77609
sS'CGTTCG'
p1865
I4430
sS'ACTTGT'
p1866
I30280
sS'CGTTCA'
p1867
I9450
sS'CGTTCC'
p1868
I14653
sS'TCTAAT'
p1869
I24062
sS'CTTTGT'
p1870
I64743
sS'ATTTAA'
p1871
I49198
sS'ACTGGA'
p1872
I46046
sS'ACTGGC'
p1873
I41780
sS'TAGTCC'
p1874
I20511
sS'GTGACC'
p1875
I40322
sS'TAGTCA'
p1876
I22223
sS'GTGACA'
p1877
I43662
sS'TAGTCG'
p1878
I3832
sS'GTGACG'
p1879
I13304
sS'ATTTAG'
p1880
I30053
sS'ACTGGT'
p1881
I28433
sS'CTTTGG'
p1882
I65931
sS'CCTATG'
p1883
I21208
sS'CTTTGC'
p1884
I54214
sS'CTTTGA'
p1885
I54208
sS'ACATTA'
p1886
I26574
sS'GTGACT'
p1887
I43869
sS'TAGTCT'
p1888
I20811
sS'GTGCAC'
p1889
I31204
sS'GCGCTT'
p1890
I15898
sS'ACCTAG'
p1891
I24092
sS'GCAATT'
p1892
I24900
sS'ACCTAA'
p1893
I22400
sS'CGACGC'
p1894
I9344
sS'ACCTAC'
p1895
I20878
sS'CCGCAG'
p1896
I41763
sS'CCGCAA'
p1897
I11608
sS'CCGCAC'
p1898
I22728
sS'CTACGG'
p1899
I7796
sS'ACCTAT'
p1900
I16698
sS'GCGCTG'
p1901
I38338
sS'CGAAGA'
p1902
I10910
sS'CCCCGT'
p1903
I23921
sS'CGAAGG'
p1904
I16099
sS'GCGCTC'
p1905
I30340
sS'GTGCAT'
p1906
I27490
sS'GCGCTA'
p1907
I7380
sS'NCTGAC'
p1908
I1
sS'CCGCAT'
p1909
I10351
sS'GTTCGC'
p1910
I7432
sS'GAAGAT'
p1911
I32234
sS'GGATCT'
p1912
I28461
sS'CTTCCG'
p1913
I23846
sS'TCGGAA'
p1914
I10439
sS'TCGGAC'
p1915
I8492
sS'GAATCT'
p1916
I31382
sS'TCGGAG'
p1917
I17682
sS'GGATCG'
p1918
I9065
sS'GAAGAG'
p1919
I67011
sS'GAAGAA'
p1920
I60559
sS'CGAGAA'
p1921
I13654
sS'GAAGAC'
p1922
I35668
sS'GGATCA'
p1923
I29943
sS'GGATCN'
p1924
I1
sS'GAATCA'
p1925
I32554
sS'GAATCC'
p1926
I29662
sS'TCGGAT'
p1927
I6399
sS'NNNCAG'
p1928
I1
sS'GAATCG'
p1929
I8489
sS'ATGGTC'
p1930
I20962
sS'CAGATG'
p1931
I54928
sS'CTCGAT'
p1932
I6589
sS'TGACCC'
p1933
I42934
sS'ATGGTG'
p1934
I40626
sS'CAGATC'
p1935
I34229
sS'ACGCCC'
p1936
I24001
sS'CAGATA'
p1937
I31413
sS'CTATCT'
p1938
I23845
sS'CAGATT'
p1939
I38535
sS'CTCGAC'
p1940
I8333
sS'ATGGTT'
p1941
I26379
sS'TCGCAA'
p1942
I6147
sS'TGCGTC'
p1943
I12456
sS'CCGGTA'
p1944
I6730
sS'GCGTGG'
p1945
I29750
sS'AATGGT'
p1946
I27638
sS'GTTACG'
p1947
I4745
sS'GGGACG'
p1948
I27059
sS'AATGGC'
p1949
I33867
sS'AATGGA'
p1950
I42959
sS'AATGGG'
p1951
I41087
sS'GATCAA'
p1952
I22024
sS'CCCCGA'
p1953
I28528
sS'CAACTC'
p1954
I33462
sS'AACGCG'
p1955
I7006
sS'CAACTA'
p1956
I18389
sS'CGTTAG'
p1957
I5986
sS'AGCCAG'
p1958
I89677
sS'GGAGGG'
p1959
I129978
sS'AAAAGT'
p1960
I52904
sS'GGAGGA'
p1961
I104554
sS'GGAGGC'
p1962
I109763
sS'TGGTAG'
p1963
I25249
sS'CGCCAT'
p1964
I15237
sS'GAGTGT'
p1965
I34559
sS'TGGTAC'
p1966
I15857
sS'TGGTAA'
p1967
I26972
sS'AAAAGG'
p1968
I65003
sS'GGAGGT'
p1969
I60718
sS'AGCCAT'
p1970
I39444
sS'AAAAGC'
p1971
I54346
sS'CATTCA'
p1972
I47196
sS'AAAAGA'
p1973
I80401
sS'TTGACT'
p1974
I31660
sS'GAGTGG'
p1975
I51275
sS'CGCCAG'
p1976
I31834
sS'TGGTAT'
p1977
I21784
sS'ACGCCT'
p1978
I19166
sS'GAGTGC'
p1979
I38153
sS'CGCCAC'
p1980
I28312
sS'GAGTGA'
p1981
I45446
sS'GCCAGG'
p1982
I111562
sS'GCCAGA'
p1983
I59014
sS'GCCAGC'
p1984
I73426
sS'GCCCGT'
p1985
I16709
sS'CAATCC'
p1986
I25726
sS'TACCGA'
p1987
I4874
sS'TACCGC'
p1988
I6902
sS'CTTCAT'
p1989
I41535
sS'GCCCGC'
p1990
I55589
sS'GCCAGT'
p1991
I41794
sS'GCCCGA'
p1992
I21332
sS'GCCCGG'
p1993
I65870
sS'TGCGAT'
p1994
I6774
sS'CTTCAC'
p1995
I41924
sS'CTTCAA'
p1996
I39301
sS'TACCGT'
p1997
I5270
sS'TCCGAG'
p1998
I18673
sS'TCCGAA'
p1999
I9458
sS'TCCGAC'
p2000
I8992
sS'AATTCA'
p2001
I39948
sS'TAGCGA'
p2002
I5439
sS'AATTCC'
p2003
I40445
sS'AATTCG'
p2004
I6170
sS'TCCGAT'
p2005
I5898
sS'GGACAA'
p2006
I37088
sS'NNNGAT'
p2007
I1
sS'TAGCGG'
p2008
I8548
sS'AATTCT'
p2009
I44646
sS'TAGCGC'
p2010
I7376
sS'GTCATC'
p2011
I27766
sS'GTCATA'
p2012
I17650
sS'GTCATG'
p2013
I28990
sS'AGCAGG'
p2014
I86382
sS'CCAGGT'
p2015
I65190
sS'TTGGAA'
p2016
I50895
sS'AGCAGC'
p2017
I82366
sS'AGCAGA'
p2018
I69231
sS'GTCATT'
p2019
I34531
sS'CCAGGG'
p2020
I111296
sS'AGCAGT'
p2021
I47019
sS'CCAGGA'
p2022
I101842
sS'CCAGGC'
p2023
I126551
sS'TTGGAT'
p2024
I27423
sS'ACGGTA'
p2025
I5268
sS'CATCTG'
p2026
I54947
sS'ACGGTC'
p2027
I8350
sS'CATCTA'
p2028
I24103
sS'ATAGAC'
p2029
I15581
sS'CATCTC'
p2030
I49940
sS'ATAGAA'
p2031
I30495
sS'ATGCGA'
p2032
I5530
sS'ATTAGA'
p2033
I24041
sS'TCCAAC'
p2034
I30192
sS'GGGGTC'
p2035
I49155
sS'GATCGT'
p2036
I5226
sS'CATCTT'
p2037
I41141
sS'CAAGCA'
p2038
I44600
sS'ACGGTT'
p2039
I7408
sS'CCTGGC'
p2040
I111578
sS'GTTCTT'
p2041
I38790
sS'ACATGA'
p2042
I34265
sS'CGTAAT'
p2043
I4784
sS'ACATGC'
p2044
I31854
sS'TCTTGA'
p2045
I35413
sS'ACATGG'
p2046
I41094
sS'CCCGCT'
p2047
I33974
sS'GTACAT'
p2048
I18455
sS'TGGCGG'
p2049
I33317
sS'CGTAAG'
p2050
I6225
sS'GAGTCA'
p2051
I48742
sS'ACATGT'
p2052
I33337
sS'GTTCTA'
p2053
I21603
sS'CGTAAA'
p2054
I6762
sS'AGGGAG'
p2055
I107825
sS'CTCGTT'
p2056
I10027
sS'CCCGCC'
p2057
I96955
sS'CCCGCA'
p2058
I30665
sS'AAACTA'
p2059
I32156
sS'AGCGCA'
p2060
I16486
sS'GTTGTT'
p2061
I32702
sS'ATCCTT'
p2062
I34066
sS'TTGTCG'
p2063
I6366
sS'TTGTCC'
p2064
I37085
sS'TTGTCA'
p2065
I36186
sS'ATCCTC'
p2066
I39848
sS'GTTGTA'
p2067
I18186
sS'ATCCTA'
p2068
I21917
sS'GTTGTC'
p2069
I21894
sS'ATCCTG'
p2070
I47006
sS'GTTGTG'
p2071
I30248
sS'TTGTCT'
p2072
I44878
sS'CTATGC'
p2073
I17897
sS'TGACTA'
p2074
I22225
sS'TGGGCC'
p2075
I67500
sS'TGACTC'
p2076
I48746
sS'TGGGCA'
p2077
I70962
sS'TGGGCG'
p2078
I36075
sS'TGACTG'
p2079
I45412
sS'AAGCCG'
p2080
I19083
sS'NNNNGC'
p2081
I1
sS'AAGCCC'
p2082
I52903
sS'AAGCCA'
p2083
I59806
sS'CAAAAT'
p2084
I51180
sS'ACGCGG'
p2085
I14470
sS'TGGGCT'
p2086
I71716
sS'CAAAAC'
p2087
I49965
sS'CAAAAA'
p2088
I74257
sS'AAGCCT'
p2089
I50282
sS'CAAAAG'
p2090
I54527
sS'TCAATG'
p2091
I26032
sS'AAACTT'
p2092
I44841
sS'TCAATC'
p2093
I18965
sS'CGTCGT'
p2094
I4425
sS'CAGTTC'
p2095
I42906
sS'GACCCG'
p2096
I22343
sS'CAGTTG'
p2097
I35230
sS'GACCCC'
p2098
I49147
sS'CTCTGT'
p2099
I82554
sS'TCAATT'
p2100
I24894
sS'TGGCGT'
p2101
I14412
sS'CTCTGC'
p2102
I94475
sS'GACCCT'
p2103
I44886
sS'CTCTGA'
p2104
I69341
sS'CTCTGG'
p2105
I91772
sS'CAGTTT'
p2106
I55459
sS'GCGAAG'
p2107
I14707
sS'ACGTTC'
p2108
I9183
sS'TGCTGG'
p2109
I88515
sS'TGCTGA'
p2110
I58068
sS'GAGTCT'
p2111
I39369
sS'TGCTGC'
p2112
I71879
sS'AGCTGC'
p2113
I73911
sS'GCTGGT'
p2114
I52798
sS'GTGATT'
p2115
I31845
sS'CTACTA'
p2116
I18178
sS'TGCTGT'
p2117
I62964
sS'GCGAAT'
p2118
I5678
sS'TAATGG'
p2119
I22625
sS'TCGCTA'
p2120
I5440
sS'TGTACC'
p2121
I19893
sS'GTGATG'
p2122
I34437
sS'CTACTG'
p2123
I30912
sS'GTGATC'
p2124
I28093
sS'GCTGGC'
p2125
I73420
sS'GTGATA'
p2126
I18410
sS'GCTGGA'
p2127
I80113
sS'TGATAA'
p2128
I27762
sS'TGATAC'
p2129
I15367
sS'TGATAG'
p2130
I18448
sS'CTTGTT'
p2131
I43936
sS'GACGGT'
p2132
I9357
sS'GCTAGG'
p2133
I29024
sS'GCTAGA'
p2134
I23552
sS'ATGAAT'
p2135
I39832
sS'GCTAGC'
p2136
I17068
sS'ATAGGG'
p2137
I19983
sS'TGATAT'
p2138
I19986
sS'GCTAGT'
p2139
I16067
sS'ATGAAC'
p2140
I27118
sS'GACGGG'
p2141
I22737
sS'ATGAAA'
p2142
I55394
sS'GACGGA'
p2143
I14271
sS'ATGAAG'
p2144
I41509
sS'GACGGC'
p2145
I17309
sS'CTTGTC'
p2146
I35646
sS'CAAAGA'
p2147
I60660
sS'GNCCGC'
p2148
I1
sS'CCATAG'
p2149
I21345
sS'GGTGAA'
p2150
I39391
sS'GGTGAC'
p2151
I42607
sS'GCGTCT'
p2152
I16101
sS'GACTGT'
p2153
I34380
sS'GGTGAG'
p2154
I60291
sS'GGAATG'
p2155
I51034
sS'CGTCCT'
p2156
I19619
sS'GGCTAA'
p2157
I25675
sS'GGAATC'
p2158
I31360
sS'GGAATA'
p2159
I26013
sS'ACTGTA'
p2160
I30579
sS'GCGTCC'
p2161
I24228
sS'GGTGAT'
p2162
I29815
sS'GCGTCG'
p2163
I9346
sS'CGTCCG'
p2164
I11271
sS'GGAATT'
p2165
I40467
sS'CGTCCC'
p2166
I27055
sS'CGTCCA'
p2167
I14047
sS'TTTCGA'
p2168
I7007
sS'CCGTAT'
p2169
I4884
sS'GAAGTC'
p2170
I35608
sS'GAAGTA'
p2171
I25363
sS'GAAGTG'
p2172
I48051
sS'GCCGTA'
p2173
I5837
sS'CCGTAC'
p2174
I4943
sS'CCGTAA'
p2175
I6096
sS'CCGTAG'
p2176
I7797
sS'CAAAGT'
p2177
I58584
sS'GCCGTT'
p2178
I10411
sS'TTGGTG'
p2179
I38625
sS'GAAGTT'
p2180
I37148
sS'GGCGCG'
p2181
I46774
sS'ATGCCC'
p2182
I34470
sS'TTAGTT'
p2183
I26775
sS'TATTAG'
p2184
I18712
sS'GGCGCC'
p2185
I53661
sS'TATTAA'
p2186
I31062
sS'GGCGCA'
p2187
I25302
sS'TATTAC'
p2188
I17954
sS'ACTATG'
p2189
I21136
sS'CAACGG'
p2190
I9254
sS'TTTAAG'
p2191
I40318
sS'ACTATC'
p2192
I13401
sS'TTTAAA'
p2193
I90753
sS'ACTATA'
p2194
I15408
sS'TTTAAC'
p2195
I32700
sS'TATTAT'
p2196
I30580
sS'TTAGTG'
p2197
I23522
sS'GGCGCT'
p2198
I32970
sS'TTAGTC'
p2199
I18775
sS'ATGCCT'
p2200
I42754
sS'TTAGTA'
p2201
I21161
sS'TTTAAT'
p2202
I45900
sS'ACTATT'
p2203
I23450
sS'GGGCAT'
p2204
I34464
sS'AAAGAC'
p2205
I42848
sS'TTTCCG'
p2206
I15968
sS'TTTCCA'
p2207
I73211
sS'TTTCCC'
p2208
I77924
sS'GTACGT'
p2209
I5144
sS'GTTTGT'
p2210
I47201
sS'TCAGNN'
p2211
I1
sS'TTTCCT'
p2212
I96414
sS'GGGCAG'
p2213
I111261
sS'CCTGGA'
p2214
I89674
sS'GGGCAA'
p2215
I46468
sS'GGGCAC'
p2216
I50498
sS'GTACGG'
p2217
I4943
sS'GTTTGA'
p2218
I35218
sS'GTTTGG'
p2219
I40867
sS'GTACGA'
p2220
I3283
sS'CCGCTC'
p2221
I33456
sS'GCATGT'
p2222
I31861
sS'CCGCTA'
p2223
I8547
sS'CCGCTG'
p2224
I37075
sS'AGCATT'
p2225
I39674
sS'GCGCGG'
p2226
I50779
sS'GCGCGC'
p2227
I47429
sS'GCGCGA'
p2228
I13531
sS'GCATGG'
p2229
I38042
sS'TGGATC'
p2230
I26178
sS'GCATGC'
p2231
I29963
sS'CCGCTT'
p2232
I18551
sS'TGACCT'
p2233
I58882
sS'GTCGAC'
p2234
I4109
sS'GTCGAA'
p2235
I4663
sS'GTCGAG'
p2236
I8329
sS'AGACAT'
p2237
I34232
sS'GAGCTA'
p2238
I25662
sS'TGCGCT'
p2239
I16490
sS'GAGCTC'
p2240
I53115
sS'ATTGAT'
p2241
I21390
sS'GAGCTG'
p2242
I83395
sS'AGTACA'
p2243
I26549
sS'AAACGC'
p2244
I13039
sS'CACGCG'
p2245
I13805
sS'AAACGG'
p2246
I13823
sS'ATTGAA'
p2247
I28315
sS'TGCGCG'
p2248
I18279
sS'TGTCCA'
p2249
I45688
sS'GAGCTT'
p2250
I40560
sS'TGCGCC'
p2251
I25311
sS'ATTGAG'
p2252
I26394
sS'CGCTGA'
p2253
I18588
sS'GCGCAG'
p2254
I36348
sS'AAACGT'
p2255
I13218
sS'TGGGTT'
p2256
I43885
sS'ATTTCA'
p2257
I55637
sS'CGATCC'
p2258
I9070
sS'ATCAGT'
p2259
I27696
sS'ATCGGG'
p2260
I8467
sS'CATAGT'
p2261
I21155
sS'ATCGGC'
p2262
I7016
sS'CCGTGT'
p2263
I16520
sS'ATCGGA'
p2264
I5896
sS'ATTTCT'
p2265
I62492
sS'CGATCA'
p2266
I5540
sS'TGGGTC'
p2267
I41567
sS'TTTTCA'
p2268
I68185
sS'TGGGTA'
p2269
I27973
sS'CATAGG'
p2270
I21225
sS'ATCGGT'
p2271
I4714
sS'ATCAGG'
p2272
I33992
sS'CATAGC'
p2273
I22363
sS'CATAGA'
p2274
I22894
sS'GGTCAA'
p2275
I27578
sS'ACGGGT'
p2276
I9162
sS'GTCTGA'
p2277
I36094
sS'ATTCGG'
p2278
I7238
sS'GATTCT'
p2279
I35371
sS'CTTTTG'
p2280
I54494
sS'TACTAG'
p2281
I13723
sS'CTTTTC'
p2282
I68418
sS'TACTAC'
p2283
I12822
sS'GATTCC'
p2284
I31354
sS'ACGGGG'
p2285
I23912
sS'ACGGGA'
p2286
I15666
sS'ACGGGC'
p2287
I16702
sS'GTCCGG'
p2288
I18696
sS'TACTAT'
p2289
I16984
sS'CTTTTT'
p2290
I82646
sS'TCACGA'
p2291
I8713
sS'TCACGC'
p2292
I17126
sS'TCACGG'
p2293
I15062
sS'TCTCAT'
p2294
I42062
sS'TCACGT'
p2295
I14196
sS'TTCCAC'
p2296
I46944
sS'TTCCAA'
p2297
I50895
sS'TTCCAG'
p2298
I78664
sS'CGAGGC'
p2299
I34393
sS'ACCCTT'
p2300
I35102
sS'TGAAGT'
p2301
I41024
sS'AAACAA'
p2302
I87644
sS'ATGCTT'
p2303
I34609
sS'TTCCAT'
p2304
I46161
sS'ACCCTA'
p2305
I21733
sS'ACCCTC'
p2306
I48518
sS'TGAAGG'
p2307
I51600
sS'ACCCTG'
p2308
I64354
sS'CTGACT'
p2309
I49749
sS'CCCCTT'
p2310
I60675
sS'AGTTAT'
p2311
I23805
sS'CTGACG'
p2312
I14038
sS'CTGACC'
p2313
I55898
sS'CTGACA'
p2314
I46241
sS'AGTTAA'
p2315
I32323
sS'CCCCTG'
p2316
I84535
sS'AGTTAC'
p2317
I23313
sS'CCCCTC'
p2318
I99616
sS'AGTTAG'
p2319
I22923
sS'CCCCTA'
p2320
I30493
sS'ACACAG'
p2321
I75362
sS'ACACAA'
p2322
I47893
sS'ACACAC'
p2323
I97619
sS'AATGTT'
p2324
I46214
sS'CTGCAG'
p2325
I113271
sS'CATGGG'
p2326
I43111
sS'CTGCAC'
p2327
I60570
sS'CATGGC'
p2328
I43650
sS'AATGTC'
p2329
I33103
sS'ACACAT'
p2330
I43797
sS'AATGTA'
p2331
I32413
sS'AATGTG'
p2332
I45544
sS'GCACAC'
p2333
I43320
sS'GCACAA'
p2334
I33038
sS'GCACAG'
p2335
I65736
sS'CGATTC'
p2336
I8483
sS'CCACAG'
p2337
I82417
sS'ATGTTC'
p2338
I27961
sS'CGAGAT'
p2339
I10575
sS'ATTACT'
p2340
I24987
sS'CACAAT'
p2341
I32506
sS'ACATTG'
p2342
I29848
sS'ACGCTC'
p2343
I12671
sS'ACATTC'
p2344
I39644
sS'ATTACA'
p2345
I40028
sS'ATGCTC'
p2346
I28736
sS'ATTACC'
p2347
I17938
sS'CGAGAC'
p2348
I16060
sS'GTTCGG'
p2349
I9050
sS'AAGTCT'
p2350
I37380
sS'GCTATT'
p2351
I23537
sS'GGACAT'
p2352
I29642
sS'CAGCGT'
p2353
I19464
sS'GCTATA'
p2354
I12988
sS'GCTATC'
p2355
I12940
sS'AAGTCG'
p2356
I8692
sS'AAGTCA'
p2357
I45115
sS'GCTATG'
p2358
I22357
sS'AAGTCC'
p2359
I41792
sS'GGACAG'
p2360
I65989
sS'GGACAC'
p2361
I42522
sS'CTATCG'
p2362
I3571
sS'CTAATT'
p2363
I28645
sS'AGGGTT'
p2364
I39394
sS'GAGGCG'
p2365
I47572
sS'TGTTGG'
p2366
I41994
sS'GAGGCA'
p2367
I71462
sS'TGTTGA'
p2368
I38152
sS'GAGGCC'
p2369
I89005
sS'TGTTGC'
p2370
I37492
sS'TCCAAG'
p2371
I48195
sS'ACTCGA'
p2372
I7306
sS'TAAAAT'
p2373
I61383
sS'ACTCGC'
p2374
I11700
sS'ACTCGG'
p2375
I17151
sS'TGTTGT'
p2376
I39607
sS'GAGGCT'
p2377
I79109
sS'AGCGCC'
p2378
I32974
sS'AGGGTG'
p2379
I60610
sS'AGGGTA'
p2380
I24804
sS'AGCGCG'
p2381
I21932
sS'AGGGTC'
p2382
I44882
sS'TAAAAG'
p2383
I46932
sS'ACTCGT'
p2384
I6797
sS'TAAAAC'
p2385
I39738
sS'TAAAAA'
p2386
I81448
sS'CTACTC'
p2387
I27135
sS'TAGGGA'
p2388
I32781
sS'ACGTTA'
p2389
I6241
sS'AGCTGA'
p2390
I59964
sS'ACGTTG'
p2391
I8997
sS'AGCTGG'
p2392
I90896
sS'TAGGGG'
p2393
I30488
sS'AGTGCG'
p2394
I13089
sS'AGTGCA'
p2395
I44276
sS'AGAGTT'
p2396
I41494
sS'AGTGCC'
p2397
I42063
sS'CCAAAA'
p2398
I48663
sS'TAGGGT'
p2399
I21726
sS'GCATAG'
p2400
I17895
sS'AGCTGT'
p2401
I56704
sS'CTACTT'
p2402
I28183
sS'AGTGCT'
p2403
I51089
sS'AGAGTC'
p2404
I39684
sS'AGAGTA'
p2405
I26959
sS'AGAGTG'
p2406
I49615
sS'TTCGTA'
p2407
I5143
sS'GTTAAA'
p2408
I32704
sS'GCACCA'
p2409
I40786
sS'GTTAAC'
p2410
I17321
sS'GTCTGT'
p2411
I44619
sS'CCTGGG'
p2412
I144746
sS'GTTAAG'
p2413
I22662
sS'AGCCCG'
p2414
I34742
sS'TTCGTC'
p2415
I7414
sS'GCACCC'
p2416
I46090
sS'GTCTGG'
p2417
I51295
sS'ATCTGA'
p2418
I37333
sS'GTCTGC'
p2419
I39716
sS'GTTAAT'
p2420
I23727
sS'CCTGGT'
p2421
I58857
sS'GCGGNC'
p2422
I1
sS'TCTAAA'
p2423
I37961
sS'CCGGTC'
p2424
I15827
sS'GGAAGG'
p2425
I97038
sS'CCACAT'
p2426
I43113
sS'GGAAGC'
p2427
I67266
sS'CTAATG'
p2428
I22614
sS'GGAAGA'
p2429
I71923
sS'TGTATT'
p2430
I40328
sS'TCCTCT'
p2431
I80188
sS'GCGTTC'
p2432
I11842
sS'CAATGC'
p2433
I25827
sS'GCGTTG'
p2434
I10074
sS'CAATGG'
p2435
I31642
sS'ATGCTG'
p2436
I46872
sS'GGAAGT'
p2437
I50959
sS'CCACAC'
p2438
I57194
sS'CCACAA'
p2439
I42846
sS'AAACCA'
p2440
I51969
sS'TCCTCG'
p2441
I22351
sS'TGTATG'
p2442
I27238
sS'TCCTCA'
p2443
I61752
sS'GCGTTT'
p2444
I13035
sS'TCCTCC'
p2445
I104543
sS'TGTATC'
p2446
I20137
sS'GTGAAT'
p2447
I30591
sS'TAACCG'
p2448
I5311
sS'TCATAG'
p2449
I23417
sS'TTCGTG'
p2450
I10078
sS'TCATAA'
p2451
I25790
sS'TAACCC'
p2452
I21430
sS'TCATAC'
p2453
I16950
sS'TAACCA'
p2454
I26149
sS'ACCGCT'
p2455
I12268
sS'TCGCGA'
p2456
I5427
sS'TGCATG'
p2457
I38935
sS'TTCGTT'
p2458
I9380
sS'TCATAT'
p2459
I22784
sS'TAACCT'
p2460
I26455
sS'CGTTAT'
p2461
I5164
sS'GTGAAA'
p2462
I48716
sS'GTGAAC'
p2463
I27294
sS'AACCCG'
p2464
I15457
sS'ACCGCG'
p2465
I15641
sS'ACCGCA'
p2466
I14037
sS'AACGAG'
p2467
I10032
sS'ACCGCC'
p2468
I23264
sS'CCGCCT'
p2469
I50559
sS'AGGCTT'
p2470
I50285
sS'CCTTCT'
p2471
I70710
sS'GTTGCA'
p2472
I29682
sS'AACGAA'
p2473
I9384
sS'GTTGCC'
p2474
I31468
sS'GTGCCG'
p2475
I16889
sS'GTGCCA'
p2476
I41965
sS'GTTGCG'
p2477
I8007
sS'GTGCCC'
p2478
I50480
sS'CCTTCA'
p2479
I51584
sS'AGGCTA'
p2480
I27466
sS'CCTTCC'
p2481
I97016
sS'AGGCTC'
p2482
I58410
sS'CCGCCC'
p2483
I92678
sS'TGTCGA'
p2484
I5097
sS'CCGCCA'
p2485
I33310
sS'AGGCTG'
p2486
I117375
sS'GTGCCT'
p2487
I50039
sS'GGCGAA'
p2488
I12263
sS'GTTGCT'
p2489
I33839
sS'NNNGCG'
p2490
I1
sS'GGATAT'
p2491
I17621
sS'TCGGGT'
p2492
I12211
sS'AAACCT'
p2493
I43213
sS'GCAGTT'
p2494
I38569
sS'GAAGCT'
p2495
I49301
sS'GGATAA'
p2496
I21947
sS'GGATAC'
p2497
I14117
sS'NNNNNG'
p2498
I4
sS'TCGGGG'
p2499
I28521
sS'GGATAG'
p2500
I17475
sS'GAAGCG'
p2501
I20437
sS'GCAGTG'
p2502
I73746
sS'GAAGCC'
p2503
I57679
sS'GCAGTA'
p2504
I24915
sS'GAAGCA'
p2505
I52482
sS'GCAGTC'
p2506
I35861
sS'CGCCCG'
p2507
I46039
sS'GAGAGA'
p2508
I83145
sS'GTTCAT'
p2509
I27126
sS'GAGAGG'
p2510
I90344
sS'CGCCCA'
p2511
I36063
sS'AGTTTG'
p2512
I43389
sS'CTATAG'
p2513
I14824
sS'NNNNNN'
p2514
I736
sS'GCATTC'
p2515
I32261
sS'CTATAA'
p2516
I20363
sS'CTCGCA'
p2517
I14049
sS'CGCCCT'
p2518
I37570
sS'AACGAT'
p2519
I5766
sS'AAACAT'
p2520
I54379
sS'CTATAT'
p2521
I15898
sS'AACTGA'
p2522
I43637
sS'GCCGGG'
p2523
I71491
sS'AGCATC'
p2524
I31257
sS'TACCCG'
p2525
I8238
sS'GCCGGC'
p2526
I48176
sS'CATGTT'
p2527
I39871
sS'GCCGGA'
p2528
I25159
sS'AGATCT'
p2529
I30830
sS'AACTGC'
p2530
I38571
sS'GCCACT'
p2531
I53728
sS'CATGTA'
p2532
I24326
sS'CATGTC'
p2533
I29762
sS'GCCGGT'
p2534
I16642
sS'CATGTG'
p2535
I46647
sS'GATTGG'
p2536
I25527
sS'GGCCTG'
p2537
I94625
sS'GGCCTC'
p2538
I89035
sS'NNGCGC'
p2539
I1
sS'CAAGCT'
p2540
I40055
sS'CTCTGN'
p2541
I1
sS'AATCGG'
p2542
I7195
sS'AATCGC'
p2543
I8157
sS'AATCGA'
p2544
I5481
sS'TTCCCA'
p2545
I77275
sS'GGCCTT'
p2546
I55617
sS'TCACTA'
p2547
I24284
sS'TCACTC'
p2548
I45451
sS'AATCGT'
p2549
I5814
sS'TCGAGG'
p2550
I14053
sS'AGCCGA'
p2551
I18852
sS'CCGCCG'
p2552
I57325
sS'AGCCGC'
p2553
I35342
sS'TAATTG'
p2554
I22093
sS'AAAAAT'
p2555
I95169
sS'AGCCGG'
p2556
I36904
sS'GTTTTT'
p2557
I62638
sS'TGGTGA'
p2558
I49050
sS'GATGGA'
p2559
I38888
sS'TGGTGC'
p2560
I40766
sS'GGGCTA'
p2561
I23575
sS'GGGCTG'
p2562
I111728
sS'TGGTGG'
p2563
I69744
sS'GATGGG'
p2564
I48387
sS'TAATTT'
p2565
I49546
sS'CAGCTG'
p2566
I99467
sS'AAAAAC'
p2567
I62682
sS'GGGCTC'
p2568
I73002
sS'GTTTTG'
p2569
I49919
sS'GTTCAA'
p2570
I34382
sS'AAAAAG'
p2571
I82690
sS'TGACAG'
p2572
I52384
sS'CCAAGG'
p2573
I66302
sS'ACGTAT'
p2574
I5375
sS'TCTCAG'
p2575
I68942
sS'TCTCAA'
p2576
I48282
sS'TGGTGT'
p2577
I41101
sS'TCTCAC'
p2578
I46526
sS'AGAACT'
p2579
I43348
sS'GCATTA'
p2580
I19537
sS'CCTTCG'
p2581
I16088
sS'TACCAT'
p2582
I20121
sS'AGATAG'
p2583
I23842
sS'CACTGT'
p2584
I57012
sS'ACCCGA'
p2585
I12213
sS'AGATAC'
p2586
I20896
sS'ACCCGC'
p2587
I24162
sS'AGATAA'
p2588
I39426
sS'TACCAC'
p2589
I21550
sS'AGAACG'
p2590
I12583
sS'TACCAA'
p2591
I21648
sS'ATTGCC'
p2592
I24108
sS'TACCAG'
p2593
I26599
sS'AGAACC'
p2594
I36824
sS'ATGTCA'
p2595
I35916
sS'CACTGG'
p2596
I61397
sS'AGATAT'
p2597
I22916
sS'ATCACG'
p2598
I9862
sS'CCTATA'
p2599
I15035
sS'CACTGC'
p2600
I73798
sS'CCTATC'
p2601
I18264
sS'GTAACA'
p2602
I24040
sS'TAGGTT'
p2603
I21125
sS'GTTTAC'
p2604
I28053
sS'AATTAT'
p2605
I34160
sS'AGCCAC'
p2606
I67258
sS'TGCTAT'
p2607
I25130
sS'CTGTTC'
p2608
I45979
sS'CGGGTT'
p2609
I15449
sS'CTGTTA'
p2610
I31371
sS'AATTAC'
p2611
I25204
sS'AATTAA'
p2612
I39182
sS'CATGGA'
p2613
I40725
sS'TAGGTA'
p2614
I17942
sS'TAGGTC'
p2615
I17689
sS'CGGGTC'
p2616
I22349
sS'CTGTTT'
p2617
I71397
sS'CGGGTA'
p2618
I8241
sS'CGGGTG'
p2619
I27676
sS'GGGTAC'
p2620
I15740
sS'ATTGTT'
p2621
I36310
sS'AAGTAA'
p2622
I37520
sS'CATTAC'
p2623
I19788
sS'GCAATG'
p2624
I31033
sS'TTAGGG'
p2625
I28269
sS'ATATAT'
p2626
I33619
sS'AGCAAC'
p2627
I33831
sS'TTAGGC'
p2628
I21086
sS'AAAGCT'
p2629
I50687
sS'TTAGGA'
p2630
I32754
sS'ATGCTA'
p2631
I20821
sS'AAAGCA'
p2632
I68613
sS'ATATAG'
p2633
I15895
sS'TTAGGT'
p2634
I22402
sS'ATATAA'
p2635
I27167
sS'AGCAAT'
p2636
I34219
sS'ATATAC'
p2637
I17002
sS'TACTTC'
p2638
I25388
sS'ATAGCC'
p2639
I17701
sS'TACTTG'
p2640
I24892
sS'ATAGCG'
p2641
I5028
sS'CAGCGC'
p2642
I38335
sS'ACGGCT'
p2643
I13591
sS'ATAGCT'
p2644
I23959
sS'TACTTT'
p2645
I39295
sS'CATGCG'
p2646
I11203
sS'GTTTTC'
p2647
I52494
sS'CGAGTT'
p2648
I9669
sS'TCCAAT'
p2649
I24967
sS'CGTACT'
p2650
I4633
sS'TCCCGT'
p2651
I15670
sS'TATGCT'
p2652
I21486
sS'CTTAAG'
p2653
I25194
sS'ACATAA'
p2654
I30172
sS'CTTAAA'
p2655
I40324
sS'AGGGGT'
p2656
I47523
sS'CTTAAC'
p2657
I22661
sS'CGTACA'
p2658
I5510
sS'CGTACC'
p2659
I5150
sS'CGAGTA'
p2660
I6285
sS'TCCAAA'
p2661
I53656
sS'AGGGGA'
p2662
I78323
sS'CTTAAT'
p2663
I24879
sS'AGGGGC'
p2664
I80462
sS'TATGCA'
p2665
I24704
sS'AGGGGG'
p2666
I68936
sS'CGTTTG'
p2667
I12230
sS'CGACTT'
p2668
I8697
sS'TGAATT'
p2669
I39985
sS'TTGTAA'
p2670
I34680
sS'TTGTAC'
p2671
I20137
sS'GTACCT'
p2672
I19796
sS'NNCAGA'
p2673
I1
sS'TTGTAG'
p2674
I27619
sS'TGAATC'
p2675
I28990
sS'CGACTA'
p2676
I3832
sS'TGAATA'
p2677
I32044
sS'CGACTC'
p2678
I12095
sS'TGAATG'
p2679
I47208
sS'AAGTAT'
p2680
I24974
sS'CGACTG'
p2681
I11407
sS'TTGTAT'
p2682
I30628
sS'ATCGTG'
p2683
I8012
sS'GCTTCG'
p2684
I13776
sS'ATCGTC'
p2685
I5246
sS'GCTTCC'
p2686
I67256
sS'TGGGAG'
p2687
I101972
sS'TGGGAA'
p2688
I77320
sS'TGGGAC'
p2689
I48533
sS'GCTTCT'
p2690
I56887
sS'ATCGTT'
p2691
I5763
sS'ACAACG'
p2692
I7882
sS'TGGGAT'
p2693
I51086
sS'CTAGCC'
p2694
I25302
sS'GACCAT'
p2695
I20965
sS'CTAGCG'
p2696
I8478
sS'CGGTGA'
p2697
I16599
sS'CGGTAG'
p2698
I7975
sS'ACTTAG'
p2699
I23986
sS'ACTTAA'
p2700
I30221
sS'CGGTAC'
p2701
I5135
sS'ACTTAC'
p2702
I21552
sS'CGGTAA'
p2703
I6489
sS'GACCAG'
p2704
I47401
sS'GACCAC'
p2705
I30999
sS'CACGGA'
p2706
I17044
sS'GACCAA'
p2707
I27446
sS'TACACC'
p2708
I16817
sS'CGGTAT'
p2709
I4170
sS'TACACA'
p2710
I39854
sS'TACACG'
p2711
I7346
sS'GCGAGA'
p2712
I17881
sS'GAGAGC'
p2713
I54111
sS'GCGAGC'
p2714
I22657
sS'CTTCGG'
p2715
I16558
sS'GCGAGG'
p2716
I33601
sS'CAGCCG'
p2717
I38863
sS'CAGCCA'
p2718
I86756
sS'CAGCCC'
p2719
I111731
sS'GCTGAA'
p2720
I48620
sS'GCGAGT'
p2721
I11700
sS'GAACTG'
p2722
I42891
sS'GAACTC'
p2723
I37317
sS'GAACTA'
p2724
I20413
sS'GGACTT'
p2725
I41797
sS'CACCTA'
p2726
I27297
sS'AACTAT'
p2727
I21583
sS'CACCTC'
p2728
I66987
sS'CACCTG'
p2729
I75696
sS'TGATCC'
p2730
I29977
sS'AACACT'
p2731
I39579
sS'TGATCA'
p2732
I27682
sS'TGATCG'
p2733
I5537
sS'AACTAG'
p2734
I21337
sS'GGACTG'
p2735
I48417
sS'CACCTT'
p2736
I45610
sS'AACTAC'
p2737
I19980
sS'GGACTC'
p2738
I41853
sS'AACACG'
p2739
I12747
sS'AACACA'
p2740
I57750
sS'CGTCTC'
p2741
I21214
sS'AACACC'
p2742
I32258
sS'TGATCT'
p2743
I35955
sS'ATATCG'
p2744
I3052
sS'CTATAC'
p2745
I10896
sS'CAACAG'
p2746
I47317
sS'GACAGT'
p2747
I34585
sS'CAACAA'
p2748
I40199
sS'AAAGAA'
p2749
I94506
sS'CAACAC'
p2750
I34213
sS'GCTGAT'
p2751
I31993
sS'ACGCAA'
p2752
I8126
sS'GACAGG'
p2753
I60631
sS'CAACAT'
p2754
I35525
sS'GACAGC'
p2755
I47210
sS'GACAGA'
p2756
I61316
sS'GTATTA'
p2757
I17169
sS'GTATTC'
p2758
I17470
sS'GTAAGT'
p2759
I21549
sS'CCAGCG'
p2760
I35965
sS'TCTGNN'
p2761
I1
sS'GTATTG'
p2762
I16291
sS'GGTGGC'
p2763
I71062
sS'TCCCCT'
p2764
I78352
sS'GGTGGA'
p2765
I56282
sS'TATCTT'
p2766
I29695
sS'GGTGGG'
p2767
I99896
sS'NNNGAA'
p2768
I2
sS'AGAGGC'
p2769
I76578
sS'GTAAGA'
p2770
I23716
sS'AGAGGA'
p2771
I80161
sS'GTAAGC'
p2772
I17670
sS'AGAGGG'
p2773
I85475
sS'ACCGAG'
p2774
I16095
sS'GTAAGG'
p2775
I21948
sS'TATCTA'
p2776
I19334
sS'CGTCAC'
p2777
I13301
sS'TCCCCC'
p2778
I68515
sS'GGTGGT'
p2779
I43714
sS'TCCCCA'
p2780
I89664
sS'GTCGCG'
p2781
I9621
sS'GTCGCA'
p2782
I7982
sS'GTCGCC'
p2783
I18662
sS'TCGGTC'
p2784
I9815
sS'TCGGTA'
p2785
I4870
sS'CTCGCG'
p2786
I17295
sS'TCGGTG'
p2787
I13734
sS'GTCGCT'
p2788
I11762
sS'CCGTCG'
p2789
I8723
sS'CCGTCA'
p2790
I11641
sS'CCGTCC'
p2791
I23545
sS'GGCTGT'
p2792
I62177
sS'CGCGTG'
p2793
I13804
sS'GCATTT'
p2794
I48939
sS'CGCGTC'
p2795
I14225
sS'TCGGCG'
p2796
I13982
sS'CCACTG'
p2797
I73377
sS'CCACTA'
p2798
I25452
sS'ATGCAC'
p2799
I27487
sS'CGCGTT'
p2800
I7010
sS'GGCTGG'
p2801
I127746
sS'GGCTGA'
p2802
I70327
sS'GGCTGC'
p2803
I94508
sS'ATGCAT'
p2804
I28818
sS'TTTAGA'
p2805
I37945
sS'ATGACG'
p2806
I8098
sS'GGAGTT'
p2807
I46125
sS'ATGACA'
p2808
I37500
sS'ATGACC'
p2809
I27092
sS'CCTGAT'
p2810
I34007
sS'GGGCCT'
p2811
I76040
sS'ATGACT'
p2812
I36196
sS'GGAGTA'
p2813
I22097
sS'TATCCG'
p2814
I4459
sS'GGAGTC'
p2815
I42704
sS'GGAGTG'
p2816
I57762
sS'GGGCCG'
p2817
I56729
sS'GGGCCC'
p2818
I82960
sS'GGGCCA'
p2819
I66531
sS'GGCAAG'
p2820
I45957
sS'ACGAGT'
p2821
I6799
sS'TTCNNN'
p2822
I2
sS'AGGCCA'
p2823
I75705
sS'GCGCAC'
p2824
I19634
sS'AAAGTC'
p2825
I43863
sS'AGGCCG'
p2826
I38899
sS'ACGAGG'
p2827
I16608
sS'ACGAGC'
p2828
I9485
sS'ACGAGA'
p2829
I9627
sS'CTGATG'
p2830
I40533
sS'AGGCCT'
p2831
I72217
sS'GCTCTA'
p2832
I24251
sS'GATTTA'
p2833
I26216
sS'AGACGG'
p2834
I19787
sS'GGGTTG'
p2835
I36882
sS'GACTAC'
p2836
I16186
sS'GGGTTA'
p2837
I21424
sS'CTCGGG'
p2838
I36853
sS'GGGTTC'
p2839
I35847
sS'TTTGAT'
p2840
I36627
sS'TGAACT'
p2841
I44948
sS'ATTGCT'
p2842
I34204
sS'GGGTTT'
p2843
I45643
sS'TGCGAC'
p2844
I7980
sS'AGATCC'
p2845
I28452
sS'TGCGAG'
p2846
I14049
sS'AACGGC'
p2847
I10418
sS'AGACGC'
p2848
I16096
sS'ATTGCA'
p2849
I32605
sS'GACTAG'
p2850
I17549
sS'ATTGCG'
p2851
I6451
sS'TTTGAC'
p2852
I29863
sS'TTTGAA'
p2853
I61560
sS'CGGGCT'
p2854
I34747
sS'TGACGT'
p2855
I11254
sS'CTCGTC'
p2856
I12677
sS'CCCTGG'
p2857
I111286
sS'CCCTGA'
p2858
I65827
sS'CTCGTG'
p2859
I14772
sS'CCCTGC'
p2860
I104412
sS'GATATC'
p2861
I11417
sS'TTGACG'
p2862
I5921
sS'GATATA'
p2863
I13238
sS'AAGCTA'
p2864
I25488
sS'GATATG'
p2865
I16540
sS'TGACGA'
p2866
I7191
sS'TGACGC'
p2867
I11282
sS'TACTCT'
p2868
I26981
sS'CATCGT'
p2869
I8105
sS'CAGGGT'
p2870
I64352
sS'CCAGTC'
p2871
I46044
sS'TACGAT'
p2872
I3663
sS'CCAGTG'
p2873
I61393
sS'TACTCG'
p2874
I6293
sS'CATCGA'
p2875
I6039
sS'CATCGC'
p2876
I10758
sS'TACTCC'
p2877
I22098
sS'NGAATT'
p2878
I3
sS'TACTCA'
p2879
I29111
sS'CATCGG'
p2880
I8434
sS'CAGGGG'
p2881
I84545
sS'CAGGGA'
p2882
I96358
sS'CAGGGC'
p2883
I100715
sS'AATCTG'
p2884
I38516
sS'TACAAT'
p2885
I23132
sS'GCCATT'
p2886
I33889
sS'AGTCGA'
p2887
I5826
sS'AATCTA'
p2888
I22232
sS'TGAACG'
p2889
I9455
sS'TCACAC'
p2890
I43756
sS'TCACAA'
p2891
I39246
sS'TCACAG'
p2892
I64501
sS'GCCATA'
p2893
I17623
sS'CGGACG'
p2894
I11271
sS'GCCATC'
p2895
I34568
sS'CGGACA'
p2896
I13087
sS'CGGACC'
p2897
I16320
sS'GCCATG'
p2898
I43639
sS'TTTTAA'
p2899
I84641
sS'CGCNNN'
p2900
I1
sS'TCACAT'
p2901
I40506
sS'ATTAAC'
p2902
I23733
sS'ATTAAA'
p2903
I45897
sS'ATTAAG'
p2904
I24872
sS'CTTACA'
p2905
I27751
sS'TCACTT'
p2906
I51345
sS'ATTCGT'
p2907
I6114
sS'CAGNNN'
p2908
I1
sS'GTGCAG'
p2909
I60544
sS'ATTAAT'
p2910
I28852
sS'AAGCAC'
p2911
I39235
sS'GAACCA'
p2912
I33972
sS'GGTATG'
p2913
I17518
sS'GGTATA'
p2914
I11531
sS'GGTATC'
p2915
I12857
sS'GAACCG'
p2916
I12125
sS'GGCCTA'
p2917
I23638
sS'CAATGA'
p2918
I33898
sS'ACGAAT'
p2919
I6115
sS'CTGAAA'
p2920
I64221
sS'CTGAAC'
p2921
I39134
sS'GGAACC'
p2922
I36616
sS'CTGAAG'
p2923
I61305
sS'ATTGTA'
p2924
I23097
sS'CCCGAA'
p2925
I14834
sS'CATTGC'
p2926
I31040
sS'CCCGGC'
p2927
I71508
sS'CATTGA'
p2928
I26045
sS'AGAGGT'
p2929
I50411
sS'CATTGG'
p2930
I27275
sS'TCAACT'
p2931
I27721
sS'ACCATC'
p2932
I26732
sS'ACACCG'
p2933
I12937
sS'CTGCCA'
p2934
I74756
sS'CTGCCC'
p2935
I111268
sS'ACACCC'
p2936
I42538
sS'ACACCA'
p2937
I41085
sS'CTGCCG'
p2938
I35379
sS'CTAGTG'
p2939
I24792
sS'TCAACC'
p2940
I23853
sS'TCAACA'
p2941
I38137
sS'CTAGTC'
p2942
I17551
sS'TCAACG'
p2943
I6697
sS'CTAGTA'
p2944
I13719
sS'CATTGT'
p2945
I36900
sS'TATGAC'
p2946
I17666
sS'GTAATG'
p2947
I19783
sS'ACACCT'
p2948
I39501
sS'CTGCCT'
p2949
I108333
sS'CCTCGT'
p2950
I16621
sS'TATGAA'
p2951
I28907
sS'AGACTG'
p2952
I47728
sS'CGAGGT'
p2953
I17625
sS'AGACTA'
p2954
I20807
sS'CCTCGG'
p2955
I41582
sS'CCTCGC'
p2956
I33610
sS'CCCGAC'
p2957
I20312
sS'CCTCGA'
p2958
I14051
sS'CGAGGA'
p2959
I22355
sS'AGACTT'
p2960
I37374
sS'CGAGGG'
p2961
I31426
sS'ACTTTC'
p2962
I42937
sS'ACTTTA'
p2963
I33682
sS'GTGGCC'
p2964
I62122
sS'GACCTG'
p2965
I47761
sS'GACCTA'
p2966
I17679
sS'GACCTC'
p2967
I45330
sS'CACCGG'
p2968
I20591
sS'ACGCTG'
p2969
I19459
sS'CACCGA'
p2970
I13739
sS'CACCGC'
p2971
I31412
sS'GACCTT'
p2972
I40890
sS'CGCCCC'
p2973
I79312
sS'GGACGG'
p2974
I23544
sS'CTATTA'
p2975
I19453
sS'CACAGC'
p2976
I78899
sS'CTTATC'
p2977
I23205
sS'CACAGA'
p2978
I75884
sS'CTTATA'
p2979
I16684
sS'CACAGG'
p2980
I77693
sS'TTAACT'
p2981
I32327
sS'ACTCAT'
p2982
I32840
sS'GAGGAG'
p2983
I103063
sS'GACGTA'
p2984
I4604
sS'CGTATC'
p2985
I4292
sS'GCATAC'
p2986
I12866
sS'TAAACT'
p2987
I32688
sS'GAGGAA'
p2988
I78922
sS'AGCGAT'
p2989
I10148
sS'TTAACA'
p2990
I33957
sS'ACTCAC'
p2991
I41253
sS'TTAACC'
p2992
I24057
sS'ACTCAA'
p2993
I32862
sS'ACTCAG'
p2994
I56720
sS'TTAACG'
p2995
I6015
sS'CACAGT'
p2996
I55619
sS'AGCGAC'
p2997
I11764
sS'TAAACA'
p2998
I52970
sS'AGCGAA'
p2999
I10836
sS'TAAACC'
p3000
I23759
sS'GACGTT'
p3001
I8378
sS'CCACCG'
p3002
I30520
sS'TAAACG'
p3003
I8106
sS'AGTTCC'
p3004
I39234
sS'GTATGT'
p3005
I23337
sS'AGTTCA'
p3006
I44911
sS'TACTTA'
p3007
I23176
sS'AGTTCG'
p3008
I9227
sS'CTGTGA'
p3009
I64493
sS'GAGCGT'
p3010
I12672
sS'TAGGAC'
p3011
I19841
sS'GCAAAG'
p3012
I54213
sS'TAGGAA'
p3013
I39996
sS'GCAAAA'
p3014
I47107
sS'TAGGAG'
p3015
I35548
sS'GCAAAC'
p3016
I38715
sS'CGGGGC'
p3017
I73866
sS'CGGGGA'
p3018
I45261
sS'CTGTGT'
p3019
I75351
sS'CGGGGG'
p3020
I51631
sS'GTATGC'
p3021
I12866
sS'AGTTCT'
p3022
I43327
sS'GCAAAT'
p3023
I38669
sS'TAGGAT'
p3024
I21931
sS'TAATTA'
p3025
I29574
sS'TTCAAT'
p3026
I28308
sS'TGCTTT'
p3027
I68648
sS'GTCTAT'
p3028
I15572
sS'TGGGNC'
p3029
I1
sS'ACTAGG'
p3030
I23217
sS'GTTACC'
p3031
I17272
sS'GTTACA'
p3032
I24556
sS'TAATTC'
p3033
I26059
sS'TATCGA'
p3034
I2988
sS'TATCGC'
p3035
I3745
sS'TATAGT'
p3036
I15416
sS'GTCTAA'
p3037
I17385
sS'CAGGAC'
p3038
I58507
sS'GTCTAC'
p3039
I14589
sS'TGCTTC'
p3040
I52496
sS'TTCAAA'
p3041
I61580
sS'TTCAAC'
p3042
I28245
sS'TGCTTG'
p3043
I44608
sS'TATAGC'
p3044
I12993
sS'TATCGT'
p3045
I3546
sS'TATAGA'
p3046
I18561
sS'AGTGGG'
p3047
I59763
sS'TATAGG'
p3048
I15042
sS'GTTACT'
p3049
I23115
sS'GGAAAA'
p3050
I79679
sS'AACCTT'
p3051
I34773
sS'GATGGC'
p3052
I34559
sS'GCTCTG'
p3053
I86843
sS'CCACGT'
p3054
I21718
sS'CAATAT'
p3055
I23253
sS'AGGACC'
p3056
I40748
sS'GAATGG'
p3057
I39249
sS'GGCTTT'
p3058
I53936
sS'ACTACT'
p3059
I19427
sS'GAATGC'
p3060
I32262
sS'CCACGA'
p3061
I14032
sS'CAATAC'
p3062
I16305
sS'CCACGC'
p3063
I29755
sS'GGCGTA'
p3064
I5587
sS'GTTCCG'
p3065
I11892
sS'AACCTC'
p3066
I40287
sS'CCACGG'
p3067
I26605
sS'GCTCTT'
p3068
I47585
sS'GGCTTA'
p3069
I24692
sS'ACTACC'
p3070
I15800
sS'GGCTTC'
p3071
I57693
sS'ACTACA'
p3072
I27207
sS'ACTACG'
p3073
I5557
sS'GGCTTG'
p3074
I45784
sS'TCCTAG'
p3075
I34412
sS'TAACAA'
p3076
I32128
sS'CGTTGC'
p3077
I9807
sS'TAACAC'
p3078
I22388
sS'TCCTAC'
p3079
I25576
sS'AGTCAC'
p3080
I43882
sS'TCCTAA'
p3081
I32760
sS'TAACAG'
p3082
I31400
sS'TCATCG'
p3083
I8155
sS'AAGCGT'
p3084
I9566
sS'TCATCC'
p3085
I37418
sS'GTTTTA'
p3086
I39707
sS'TCATCA'
p3087
I37021
sS'AGTCAT'
p3088
I36201
sS'TCCTAT'
p3089
I24525
sS'TAACAT'
p3090
I27235
sS'CGTTGT'
p3091
I7875
sS'GAGCGA'
p3092
I18068
sS'CTTTCA'
p3093
I55985
sS'CTTTCG'
p3094
I11344
sS'AGCCGT'
p3095
I13591
sS'GAGCGC'
p3096
I30333
sS'GTTGAT'
p3097
I18669
sS'CGACCA'
p3098
I8843
sS'CGACCC'
p3099
I18900
sS'CGACCG'
p3100
I7520
sS'CCTTAT'
p3101
I24396
sS'GTTGAC'
p3102
I19911
sS'GTTGAA'
p3103
I28259
sS'ACTGGG'
p3104
I59891
sS'GTTGAG'
p3105
I29604
sS'CCTTAC'
p3106
I21954
sS'CCTTAA'
p3107
I26891
sS'CCTTAG'
p3108
I28198
sS'CGACCT'
p3109
I13025
sS'AATAGA'
p3110
I30715
sS'AATAGC'
p3111
I23530
sS'CAACTG'
p3112
I35262
sS'AATAGG'
p3113
I24367
sS'GATGGT'
p3114
I26732
sS'GGGGTT'
p3115
I41083
sS'GTCCCT'
p3116
I53589
sS'ATTCNN'
p3117
I2
sS'GGATGT'
p3118
I30941
sS'AATAGT'
p3119
I23429
sS'CCAAGA'
p3120
I48464
sS'CAACTT'
p3121
I31924
sS'GGGGTG'
p3122
I76692
sS'GGATGA'
p3123
I37406
sS'GGATGG'
p3124
I48748
sS'GGGGTA'
p3125
I21686
sS'TCTCCG'
p3126
I23474
sS'GAGTCC'
p3127
I41849
sS'AAACTG'
p3128
I55465
sS'TCTCCC'
p3129
I85850
sS'CCCTTT'
p3130
I63518
sS'TCTCCA'
p3131
I70855
sS'AAACTC'
p3132
I42833
sS'CTATGA'
p3133
I23418
sS'AGTACG'
p3134
I4629
sS'ACGCGC'
p3135
I13500
sS'AGTACC'
p3136
I16465
sS'CTATGG'
p3137
I21349
sS'TGCCGC'
p3138
I25177
sS'CCCTTA'
p3139
I26067
sS'CCCTTC'
p3140
I73343
sS'TCTCCT'
p3141
I81523
sS'CCCTTG'
p3142
I50257
sS'AGCAAA'
p3143
I64450
sS'AGTACT'
p3144
I20797
sS'CTATGT'
p3145
I24932
sS'GCCGAA'
p3146
I11325
sS'GTGGAG'
p3147
I64388
sS'GCCGAC'
p3148
I14190
sS'GTGGAC'
p3149
I31643
sS'GCCGAG'
p3150
I38565
sS'GTGGAA'
p3151
I46948
sS'GTGGAT'
p3152
I29354
sS'GCCGAT'
p3153
I7019
sS'CCTATT'
p3154
I24371
sS'ACCCGG'
p3155
I28213
sS'GTAGTC'
p3156
I16200
sS'AAATCG'
p3157
I8318
sS'GTAGTA'
p3158
I12805
sS'GTAGTG'
p3159
I19028
sS'AAATCC'
p3160
I39932
sS'ACCGAA'
p3161
I8307
sS'AAATCA'
p3162
I48225
sS'NCCATC'
p3163
I1
sS'ATGTCT'
p3164
I34227
sS'TCCCGA'
p3165
I18378
sS'CACGCT'
p3166
I17304
sS'AAATCT'
p3167
I43039
sS'ACCGAT'
p3168
I4715
sS'ACTTTG'
p3169
I58500
sS'CTTGAA'
p3170
I45274
sS'GTAGTT'
p3171
I19981
sS'ACCAGT'
p3172
I28435
sS'TGCCGT'
p3173
I12139
sS'GATGAT'
p3174
I24808
sS'GGAGCA'
p3175
I58671
sS'GGAGCC'
p3176
I82323
sS'AAAGTG'
p3177
I57296
sS'CCAAAT'
p3178
I40545
sS'GGAGCG'
p3179
I36949
sS'AAAACT'
p3180
I52294
sS'GATGAC'
p3181
I27764
sS'TGTCCC'
p3182
I57214
sS'GATGAA'
p3183
I37337
sS'GATGAG'
p3184
I40469
sS'AAAACC'
p3185
I46786
sS'AGAACA'
p3186
I53694
sS'CCAAAC'
p3187
I40883
sS'AAAACG'
p3188
I15757
sS'GGAGCT'
p3189
I67663
sS'CCAAAG'
p3190
I65975
sS'TCGCGG'
p3191
I14822
sS'CTAGAG'
p3192
I34892
sS'TCGCGC'
p3193
I13543
sS'GGGAGT'
p3194
I47526
sS'TACCCT'
p3195
I24809
sS'AGATCA'
p3196
I35948
sS'GCCACC'
p3197
I71079
sS'AGAAAT'
p3198
I62535
sS'CGACGG'
p3199
I8720
sS'GCCACG'
p3200
I26212
sS'AGATCG'
p3201
I8938
sS'ACCAGC'
p3202
I52780
sS'TCGCGT'
p3203
I5272
sS'GTGCAA'
p3204
I31357
sS'ACCCGT'
p3205
I9162
sS'AGAAAG'
p3206
I83939
sS'CGACGA'
p3207
I4260
sS'TCCCTT'
p3208
I65132
sS'AGAAAC'
p3209
I57320
sS'TACCCA'
p3210
I27967
sS'AGAAAA'
p3211
I104837
sS'TACCCC'
p3212
I21699
sS'ATGTAC'
p3213
I18455
sS'ACTTCG'
p3214
I9344
sS'ATGTAA'
p3215
I32434
sS'ATGTAG'
p3216
I21554
sS'ACCAGG'
p3217
I58853
sS'ACGTCA'
p3218
I11245
sS'CCGGCA'
p3219
I24524
sS'GACGAC'
p3220
I7806
sS'ATGTCG'
p3221
I5835
sS'ATGTAT'
p3222
I26678
sS'CCGGCG'
p3223
I36322
sS'CACTGA'
p3224
I52967
sS'GGCGTC'
p3225
I20233
sS'GTTCCC'
p3226
I43200
sS'AGCACT'
p3227
I51052
sS'TTAGAA'
p3228
I39138
sS'CGGCTG'
p3229
I38864
sS'TTAGAC'
p3230
I17379
sS'CGGCTC'
p3231
I37888
sS'TTAGAG'
p3232
I32037
sS'CGGCTA'
p3233
I8832
sS'AGCACC'
p3234
I45199
sS'AGCACA'
p3235
I54235
sS'AGCACG'
p3236
I15918
sS'GTCGGG'
p3237
I20302
sS'GGTCGG'
p3238
I18344
sS'CGGCTT'
p3239
I19083
sS'TTAGAT'
p3240
I21845
sS'CCAGCA'
p3241
I88490
sS'CGAAGC'
p3242
I13779
sS'CCAGCC'
p3243
I127775
sS'AAAGAG'
p3244
I68865
sS'ATATCA'
p3245
I19966
sS'CGACGT'
p3246
I4356
sS'TTATTT'
p3247
I81981
sS'TGTGAG'
p3248
I56299
sS'TGTGAA'
p3249
I50491
sS'CTACCT'
p3250
I30049
sS'TGTGAC'
p3251
I42988
sS'ATATCT'
p3252
I22910
sS'CCAGCT'
p3253
I90902
sS'CACGGT'
p3254
I15230
sS'AAAGAT'
p3255
I44539
sS'TGTGAT'
p3256
I38305
sS'TTATTG'
p3257
I30567
sS'TTATTA'
p3258
I36166
sS'GAAAGC'
p3259
I48945
sS'TTATTC'
p3260
I32741
sS'ACATCT'
p3261
I35190
sS'TTTTAT'
p3262
I62436
sS'GCGAAC'
p3263
I7432
sS'CTTACT'
p3264
I27398
sS'TCCACT'
p3265
I45581
sS'TACAAA'
p3266
I47793
sS'AGACGA'
p3267
I9806
sS'TACAAC'
p3268
I18211
sS'CCTCTG'
p3269
I102313
sS'AGGTGG'
p3270
I77585
sS'CCTCTC'
p3271
I90339
sS'AGGTGC'
p3272
I43492
sS'CCTCTA'
p3273
I34478
sS'AGGTGA'
p3274
I54953
sS'CTTACG'
p3275
I6225
sS'TCCACA'
p3276
I51886
sS'TTTTAG'
p3277
I43895
sS'TCCACC'
p3278
I56294
sS'CTTACC'
p3279
I23514
sS'ACATCA'
p3280
I33898
sS'TTTTAC'
p3281
I38234
sS'ACATCC'
p3282
I30928
sS'AGGTGT'
p3283
I39506
sS'CCTCTT'
p3284
I65490
sS'CGTCGG'
p3285
I9127
sS'TATGAG'
p3286
I22825
sS'CCCGGA'
p3287
I33777
sS'NNCTGA'
p3288
I1
sS'CCCGGG'
p3289
I74714
sS'TTGTGT'
p3290
I47869
sS'TGGAAT'
p3291
I49988
sS'TAGGTG'
p3292
I27295
sS'NCAGAG'
p3293
I1
sS'TTGTGC'
p3294
I33029
sS'TATGAT'
p3295
I19583
sS'TTGTGG'
p3296
I42819
sS'CCCGGT'
p3297
I19653
sS'GGCGTG'
p3298
I32179
sS'TGGAAG'
p3299
I64362
sS'TGGAAC'
p3300
I35199
sS'TGGAAA'
p3301
I73260
sS'TGAGGA'
p3302
I61759
sS'AAGAGG'
p3303
I65478
sS'TGAGGC'
p3304
I66471
sS'AAGAGA'
p3305
I67064
sS'AAGAGC'
p3306
I47607
sS'TGAGGG'
p3307
I62519
sS'GCTTAG'
p3308
I24805
sS'TNCCAT'
p3309
I1
sS'GCTTAC'
p3310
I17669
sS'GCTTAA'
p3311
I23309
sS'TGATTC'
p3312
I32564
sS'AAGCGC'
p3313
I15892
sS'AAGAGT'
p3314
I37623
sS'AAGCGA'
p3315
I13365
sS'TGAGGT'
p3316
I49248
sS'GCTTAT'
p3317
I20779
sS'CTGCTA'
p3318
I31584
sS'GCGTGT'
p3319
I16622
sS'CTGCTC'
p3320
I77552
sS'ACTTCT'
p3321
I44845
sS'GACCGT'
p3322
I8350
sS'CTGCTG'
p3323
I108356
sS'CGGTCA'
p3324
I11091
sS'GGTCGT'
p3325
I7782
sS'CGGTCC'
p3326
I18161
sS'CTAGAA'
p3327
I34675
sS'GAAAGT'
p3328
I42970
sS'GACCGA'
p3329
I9812
sS'GACCGC'
p3330
I15429
sS'TTTTGG'
p3331
I48622
sS'ACTTCC'
p3332
I50941
sS'CTGCTT'
p3333
I67543
sS'ACTTCA'
p3334
I41023
sS'CTAGAT'
p3335
I20562
sS'TATCAA'
p3336
I19484
sS'CGGTCT'
p3337
I12641
sS'GGTCGC'
p3338
I15277
sS'GGTCGA'
p3339
I6885
sS'CGTCGC'
p3340
I10188
sS'CAGCAT'
p3341
I46878
sS'GCGTGA'
p3342
I17148
sS'TGGTTG'
p3343
I33656
sS'GCGTGC'
p3344
I19093
sS'TGCTCA'
p3345
I52846
sS'TTCATC'
p3346
I37349
sS'TGCTCC'
p3347
I58700
sS'TTCATA'
p3348
I28889
sS'TTCATG'
p3349
I38737
sS'TGCTCG'
p3350
I13566
sS'CAGAAT'
p3351
I47558
sS'CAGCAG'
p3352
I108358
sS'GCGGCT'
p3353
I35335
sS'CAGCAC'
p3354
I68235
sS'CAGCAA'
p3355
I57893
sS'GTACAC'
p3356
I17737
sS'TGATTT'
p3357
I48235
sS'TTCATT'
p3358
I58883
sS'GCTTTA'
p3359
I29954
sS'GCTGCC'
p3360
I88095
sS'GCTGCA'
p3361
I70138
sS'AACTCT'
p3362
I41498
sS'TGGCCC'
p3363
I66528
sS'TGGCCA'
p3364
I71656
sS'AAGGTC'
p3365
I40888
sS'GTAGCA'
p3366
I21191
sS'TCATCT'
p3367
I47789
sS'TGCTCT'
p3368
I63838
sS'AACTCA'
p3369
I39763
sS'TGGCCT'
p3370
I75721
sS'AACTCC'
p3371
I46134
sS'GCTGCT'
p3372
I82374
sS'AACTCG'
p3373
I9657
sS'CTACAA'
p3374
I27639
sS'GGATCC'
p3375
I30956
sS'TGAAGA'
p3376
I49469
sS'AATATT'
p3377
I53097
sS'GTTCGA'
p3378
I7151
sS'CAACCT'
p3379
I38010
sS'TGGCCG'
p3380
I29817
sS'GGCACG'
p3381
I20033
sS'GGCACA'
p3382
I50752
sS'GACAAT'
p3383
I23034
sS'GGCACC'
p3384
I46487
sS'CAACCG'
p3385
I9438
sS'CAGAAA'
p3386
I83282
sS'AATATG'
p3387
I28612
sS'CGGTCG'
p3388
I7520
sS'CAACCC'
p3389
I36892
sS'AGCAAG'
p3390
I53481
sS'AATATC'
p3391
I22371
sS'CTTCGT'
p3392
I10698
sS'GACAAA'
p3393
I44011
sS'GGCACT'
p3394
I42061
sS'GACAAC'
p3395
I21895
sS'CAGAAC'
p3396
I46981
sS'GACAAG'
p3397
I35661
sS'GCTGCG'
p3398
I39451
sS'GCGGCG'
p3399
I63892
sS'GCAATA'
p3400
I19653
sS'GAATTT'
p3401
I44152
sS'CAAGTG'
p3402
I42663
sS'CGATGG'
p3403
I10341
sS'GACACT'
p3404
I33659
sS'TCCCAT'
p3405
I44114
sS'CGATGC'
p3406
I8130
sS'GTAAAT'
p3407
I34771
sS'CGATGA'
p3408
I8159
sS'GAATTA'
p3409
I26044
sS'GAATTC'
p3410
I33797
sS'GAATTG'
p3411
I27280
sS'TCCCAA'
p3412
I57328
sS'CTACAC'
p3413
I21142
sS'GTAAAA'
p3414
I38263
sS'GTAAAG'
p3415
I28262
sS'TCCCAG'
p3416
I113594
sS'GGATTT'
p3417
I39941
sS'GTGCGT'
p3418
I13189
sS'CAAGTA'
p3419
I24892
sS'ATGGTA'
p3420
I20094
sS'GGATTC'
p3421
I29649
sS'GGATTA'
p3422
I31215
sS'AGGTCC'
p3423
I39036
sS'AGCGGC'
p3424
I33264
sS'ACGCCA'
p3425
I14402
sS'AAAGCC'
p3426
I53924
sS'TCTGTG'
p3427
I75834
sS'CTATCC'
p3428
I17470
sS'GTCCCG'
p3429
I26636
sS'TCTGTA'
p3430
I39914
sS'AACCGG'
p3431
I11234
sS'CTCCTT'
p3432
I68064
sS'GGCGGA'
p3433
I36467
sS'GGCGGG'
p3434
I96938
sS'AACCGA'
p3435
I8608
sS'TCTGTT'
p3436
I59352
sS'AAAGCG'
p3437
I15114
sS'CTCCTG'
p3438
I110908
sS'AACCGT'
p3439
I7409
sS'CTCCTA'
p3440
I35543
sS'CTCCTC'
p3441
I103092
sS'GGCGGT'
p3442
I23260
sS'AACAAG'
p3443
I43947
sS'CCCACG'
p3444
I29960
sS'CCCACA'
p3445
I67475
sS'CCCACC'
p3446
I99923
sS'ATAGCA'
p3447
I25111
sS'AGCCTT'
p3448
I52636
sS'CCGATT'
p3449
I7197
sS'CCCACT'
p3450
I59797
sS'AACAAT'
p3451
I36335
sS'GACGCT'
p3452
I14046
sS'ACCTCC'
p3453
I60707
sS'CCGATA'
p3454
I3546
sS'AGCCTG'
p3455
I95340
sS'AGCCTA'
p3456
I26499
sS'AGCCTC'
p3457
I79105
sS'GTACCC'
p3458
I15742
sS'GAGTTT'
p3459
I42822
sS'TGGTTA'
p3460
I26132
sS'CGCCTT'
p3461
I20743
sS'TGGTTC'
p3462
I33983
sS'TCNNNN'
p3463
I3
sS'CAGAGT'
p3464
I59973
sS'GCATCT'
p3465
I33906
sS'ACCTCG'
p3466
I17629
sS'AGGCAC'
p3467
I50027
sS'CGCCTC'
p3468
I47604
sS'AGGCAA'
p3469
I49231
sS'CGCCTA'
p3470
I9178
sS'AGGCAG'
p3471
I108359
sS'CGCCTG'
p3472
I42626
sS'ACGAAG'
p3473
I10691
sS'CAGAGG'
p3474
I102319
sS'GCATCC'
p3475
I30718
sS'GCATCA'
p3476
I26349
sS'CAGAGC'
p3477
I86862
sS'AAAATT'
p3478
I62692
sS'CAGAGA'
p3479
I89086
sS'TAGCTA'
p3480
I18202
sS'AGACTC'
p3481
I39411
sS'CCTAGA'
p3482
I32162
sS'CCTAGC'
p3483
I29015
sS'TTTGCT'
p3484
I64443
sS'CGGGAG'
p3485
I51705
sS'TGCGGT'
p3486
I14029
sS'CCTAGG'
p3487
I38256
sS'TAAGCA'
p3488
I31496
sS'GTCTAG'
p3489
I19093
sS'TGCGGC'
p3490
I25805
sS'TTTGCC'
p3491
I46961
sS'CCTAGT'
p3492
I23228
sS'TGCGGG'
p3493
I30658
sS'TTTGCG'
p3494
I10048
sS'TGAGTT'
p3495
I39775
sS'CGGGAC'
p3496
I26632
sS'ATCGCT'
p3497
I10151
sS'TCTCGT'
p3498
I9627
sS'ATCGCC'
p3499
I9405
sS'TGAGTG'
p3500
I48143
sS'ATCGCA'
p3501
I6786
sS'TGAGTA'
p3502
I29114
sS'ATCGCG'
p3503
I5725
sS'TGAGTC'
p3504
I46680
sS'AAGGTG'
p3505
I45605
sS'CGTCAA'
p3506
I5931
sS'CATCAT'
p3507
I30925
sS'AAGGTA'
p3508
I27123
sS'ATTTCG'
p3509
I7260
sS'AAGCGG'
p3510
I18550
sS'ACGGCA'
p3511
I12127
sS'CATCAC'
p3512
I34425
sS'AAGGTT'
p3513
I34776
sS'CATCAA'
p3514
I27764
sS'CATCAG'
p3515
I40534
sS'ACGGCG'
p3516
I12354
sS'TCACCT'
p3517
I54936
sS'TCTAAG'
p3518
I28093
sS'TCGTTT'
p3519
I11403
sS'CGGAAT'
p3520
I8819
sS'CAATTC'
p3521
I27281
sS'GTGGCT'
p3522
I67226
sS'ATCGAT'
p3523
I4281
sS'TCACCG'
p3524
I16602
sS'TCACCA'
p3525
I49052
sS'TCACCC'
p3526
I51428
sS'CGGAAG'
p3527
I23861
sS'AATATA'
p3528
I30082
sS'AAAATA'
p3529
I81913
sS'CGGAAC'
p3530
I11893
sS'AGCTCG'
p3531
I16328
sS'CGGAAA'
p3532
I15979
sS'GCCTCA'
p3533
I66459
sS'ATCCAG'
p3534
I42077
sS'TGTGTC'
p3535
I48212
sS'TGTGTA'
p3536
I39857
sS'ATGGCC'
p3537
I35347
sS'ATGGCA'
p3538
I39642
sS'TTCAGA'
p3539
I56475
sS'ATGGCT'
p3540
I39435
sS'TGTGTT'
p3541
I57765
sS'CCAAGT'
p3542
I41998
sS'GAACAT'
p3543
I27969
sS'AGAATT'
p3544
I44666
sS'GAAACG'
p3545
I15379
sS'GAAACA'
p3546
I56623
sS'AGATTG'
p3547
I26858
sS'AAGATA'
p3548
I29660
sS'CTGAGT'
p3549
I56719
sS'AGGTAC'
p3550
I19805
sS'GAAACT'
p3551
I46877
sS'AGAATG'
p3552
I51125
sS'AGATTT'
p3553
I43047
sS'ACATAC'
p3554
I23343
sS'CTGAGC'
p3555
I74007
sS'CTGAGA'
p3556
I68953
sS'CTGAGG'
p3557
I92294
sS'CATACC'
p3558
I17523
sS'CATACA'
p3559
I27249
sS'CATACG'
p3560
I4537
sS'GCAATC'
p3561
I21782
sS'TCAAAT'
p3562
I40129
sS'GTCCAT'
p3563
I24528
sS'ACATAG'
p3564
I24933
sS'CATACT'
p3565
I19224
sS'GTCCAG'
p3566
I52003
sS'TCAAAG'
p3567
I54220
sS'TCAAAA'
p3568
I56037
sS'TCAAAC'
p3569
I35229
sS'CGGCGG'
p3570
I57321
sS'TTGATG'
p3571
I27743
sS'ATCGAG'
p3572
I6588
sS'CGGCGC'
p3573
I41866
sS'TTGATC'
p3574
I22032
sS'CGGCGA'
p3575
I14744
sS'TTGATA'
p3576
I19468
sS'TTGATT'
p3577
I33208
sS'CGAGTG'
p3578
I13957
sS'ATCGAC'
p3579
I3653
sS'CCATTA'
p3580
I22629
sS'TCGTCT'
p3581
I9810
sS'CGGTTA'
p3582
I5316
sS'GGTTTA'
p3583
I23765
sS'CGGTTC'
p3584
I12124
sS'GCTGTT'
p3585
I47420
sS'CGGTTG'
p3586
I9442
sS'GGTTTG'
p3587
I38351
sS'CCATTG'
p3588
I31637
sS'ATCCCA'
p3589
I51011
sS'GCTGTG'
p3590
I78885
sS'GGTTTT'
p3591
I46782
sS'CGGTTT'
p3592
I11817
sS'GCTGTA'
p3593
I28492
sS'GGGAGG'
p3594
I162352
sS'ACGTGT'
p3595
I13498
sS'TATGCG'
p3596
I4081
sS'AGGTTG'
p3597
I38017
sS'AGGTTC'
p3598
I32353
sS'AGGTTA'
p3599
I26443
sS'CNNNNN'
p3600
I4
sS'GAGGGA'
p3601
I86445
sS'TTTTTC'
p3602
I84179
sS'GAGGGC'
p3603
I74786
sS'TTTTTA'
p3604
I81341
sS'TTTTTG'
p3605
I74135
sS'GAGGGG'
p3606
I99602
sS'TTAAAT'
p3607
I49200
sS'AGGTTT'
p3608
I43203
sS'ACATAT'
p3609
I26403
sS'TTAAAC'
p3610
I33091
sS'ATACGT'
p3611
I5377
sS'TTAAAA'
p3612
I84642
sS'ACTCCG'
p3613
I16670
sS'TTAAAG'
p3614
I42727
sS'ACTCCA'
p3615
I53704
sS'TTTTTT'
p3616
I257654
sS'ACTCCC'
p3617
I47530
sS'CTGTAA'
p3618
I49445
sS'GTCACG'
p3619
I13453
sS'CTGTAC'
p3620
I25773
sS'GCAACT'
p3621
I26917
sS'GTCACC'
p3622
I42592
sS'CTGTAG'
p3623
I36376
sS'GTCACA'
p3624
I42979
sS'AGGGAT'
p3625
I39224
sS'GGTCTT'
p3626
I34703
sS'GTCACT'
p3627
I42112
sS'TAGGCG'
p3628
I9180
sS'GCAACC'
p3629
I28760
sS'CTGTAT'
p3630
I29408
sS'GCAACA'
p3631
I37491
sS'TAGGCC'
p3632
I23634
sS'CGATGT'
p3633
I6707
sS'ATTCAT'
p3634
I39837
sS'TCCCAC'
p3635
I63837
sS'GCGATT'
p3636
I8149
sS'TCGTGT'
p3637
I9268
sS'TTCACT'
p3638
I47200
sS'GTCTCT'
p3639
I54871
sS'TCCGTG'
p3640
I17039
sS'ATTCAG'
p3641
I42745
sS'ATTCAA'
p3642
I34934
sS'ATTCAC'
p3643
I30590
sS'GTCTCC'
p3644
I53551
sS'TCGTGG'
p3645
I14021
sS'GCGATG'
p3646
I10754
sS'GTCTCG'
p3647
I16053
sS'GCGATA'
p3648
I3743
sS'TTCACA'
p3649
I50447
sS'GCGATC'
p3650
I9371
sS'GAAGGC'
p3651
I54841
sS'GAAGGA'
p3652
I67618
sS'GAAGGG'
p3653
I73328
sS'CGATTA'
p3654
I3960
sS'CAATCT'
p3655
I26863
sS'GGAACA'
p3656
I43353
sS'GGAACG'
p3657
I14655
sS'ACGGCC'
p3658
I18850
sS'CACGAA'
p3659
I10090
sS'TACTGC'
p3660
I24932
sS'CGATTT'
p3661
I8325
sS'AAAACA'
p3662
I90065
sS'GAAGGT'
p3663
I39617
sS'CTCGCT'
p3664
I23807
sS'CAATCG'
p3665
I5884
sS'CAATCA'
p3666
I29723
sS'GGAACT'
p3667
I39237
sS'TCCTGA'
p3668
I64570
sS'AGTCCA'
p3669
I44285
sS'TCCTGC'
p3670
I82117
sS'AGTCCC'
p3671
I49887
sS'ACTAAA'
p3672
I32641
sS'TCCTGG'
p3673
I101791
sS'ACTAAC'
p3674
I16073
sS'TAACGC'
p3675
I5361
sS'TAACGA'
p3676
I4903
sS'CAGCTA'
p3677
I38544
sS'CAGCTC'
p3678
I83405
sS'ACTAAT'
p3679
I19186
sS'AGTCCT'
p3680
I45933
sS'TCCTGT'
p3681
I62149
sS'CAGCTT'
p3682
I60046
sS'TAACGT'
p3683
I6241
sS'TTGACC'
p3684
I27562
sS'GTACTT'
p3685
I22064
sS'CGACAT'
p3686
I5839
sS'TTGTTC'
p3687
I40473
sS'TTGTTA'
p3688
I32092
sS'TTGTTG'
p3689
I40166
sS'CAGGCC'
p3690
I94641
sS'CCGAGC'
p3691
I29518
sS'CCGCGT'
p3692
I14471
sS'GTACTG'
p3693
I20758
sS'CGACAA'
p3694
I6371
sS'GTACTC'
p3695
I14850
sS'GTACTA'
p3696
I10787
sS'CCGCGC'
p3697
I50803
sS'AGGAAA'
p3698
I96436
sS'CCGCGA'
p3699
I14826
sS'CCGCGG'
p3700
I47696
sS'TTGTTT'
p3701
I87581
sS'GCATAT'
p3702
I18102
sS'TCCGTT'
p3703
I10265
sS'AGCCAA'
p3704
I49385
sS'AATAAC'
p3705
I27766
sS'AATAAA'
p3706
I78672
sS'AATAAG'
p3707
I32240
sS'GGATTG'
p3708
I25718
sS'TACTAA'
p3709
I21181
sS'AATAAT'
p3710
I42946
sS'ACGGTG'
p3711
I15668
sS'CCAACC'
p3712
I39345
sS'CTCAGT'
p3713
I54851
sS'CCAACG'
p3714
I10871
sS'GGGATT'
p3715
I43218
sS'CGCCGC'
p3716
I63900
sS'GTGTAT'
p3717
I23361
sS'CGCCGA'
p3718
I13980
sS'GAGTAG'
p3719
I27132
sS'CGCCGG'
p3720
I36330
sS'GAGTAA'
p3721
I26326
sS'AGTAAG'
p3722
I27398
sS'CTCAGG'
p3723
I84005
sS'CTAAAA'
p3724
I43889
sS'CTCAGC'
p3725
I86109
sS'CTCAGA'
p3726
I67032
sS'GAGTAT'
p3727
I16143
sS'GCTTCA'
p3728
I41981
sS'GTGTAG'
p3729
I21133
sS'TCGAGC'
p3730
I8797
sS'AGTAAT'
p3731
I24989
sS'GTGTAC'
p3732
I17731
sS'CGCCGT'
p3733
I12357
sS'GTGGCA'
p3734
I50781
sS'CATATT'
p3735
I28624
sS'CTCGGA'
p3736
I18673
sS'GTGGCG'
p3737
I28292
sS'GCCGCC'
p3738
I77149
sS'GCCGCA'
p3739
I25810
sS'GCCGCG'
p3740
I46806
sS'TATTGA'
p3741
I24759
sS'ACACTT'
p3742
I36590
sS'GGCCGT'
p3743
I18855
sS'CTCGGT'
p3744
I16103
sS'TCGCTC'
p3745
I18052
sS'CATATC'
p3746
I16553
sS'CATATA'
p3747
I19945
sS'CAGTCG'
p3748
I11404
sS'ACACTC'
p3749
I34560
sS'ACACTA'
p3750
I20629
sS'ACACTG'
p3751
I52584
sS'GCCGCT'
p3752
I33268
sS'ACCGGA'
p3753
I11418
sS'AAATAA'
p3754
I82016
sS'ACCGGC'
p3755
I16643
sS'AAATAC'
p3756
I44337
sS'CTTTAA'
p3757
I42734
sS'ACCGGG'
p3758
I19650
sS'AAATAG'
p3759
I40785
sS'AACTTA'
p3760
I24097
sS'CAGGTA'
p3761
I31957
sS'AACTTC'
p3762
I37151
sS'CAGGTC'
p3763
I47761
sS'CACGAC'
p3764
I9055
sS'ACGTTT'
p3765
I13211
sS'CAGGTG'
p3766
I75681
sS'CTTTAT'
p3767
I38929
sS'AATCCC'
p3768
I43161
sS'AATCCA'
p3769
I36305
sS'AAATAT'
p3770
I61199
sS'AATCCG'
p3771
I8125
sS'CACGAT'
p3772
I8012
sS'CAGGTT'
p3773
I43843
sS'AACTTT'
p3774
I47762
sS'TCTGTC'
p3775
I61306
sS'GGGATA'
p3776
I20356
sS'GGGATC'
p3777
I29973
sS'GGGTGT'
p3778
I42538
sS'GGGATG'
p3779
I48156
sS'GATGCT'
p3780
I31259
sS'CGCCAA'
p3781
I12823
sS'GAGTCG'
p3782
I12087
sS'GAGCCT'
p3783
I58432
sS'GGAGAC'
p3784
I53554
sS'GGGTGA'
p3785
I51456
sS'GGAGAA'
p3786
I74159
sS'GGGTGC'
p3787
I46093
sS'GGAGAG'
p3788
I93817
sS'GGGTGG'
p3789
I93171
sS'GAGCCA'
p3790
I69454
sS'CGCAGG'
p3791
I36406
sS'GATGCG'
p3792
I9617
sS'CGCAGA'
p3793
I21125
sS'GATGCA'
p3794
I27972
sS'GAGCCG'
p3795
I37906
sS'GATGCC'
p3796
I30282
sS'CGGATT'
p3797
I8122
sS'GGTAGT'
p3798
I15816
sS'ACCCCT'
p3799
I47518
sS'GCCAAT'
p3800
I25086
sS'AACCGC'
p3801
I11451
sS'AGAAGT'
p3802
I44875
sS'ACCCCA'
p3803
I59859
sS'GGTAGA'
p3804
I24943
sS'ACCCCC'
p3805
I51381
sS'CGGATG'
p3806
I11423
sS'GCCAAG'
p3807
I56055
sS'CGGATA'
p3808
I4460
sS'ACCCCG'
p3809
I29798
sS'GGTAGG'
p3810
I30653
sS'AGAAGA'
p3811
I63108
sS'AGAAGC'
p3812
I56885
sS'GCAAGA'
p3813
I40205
sS'AGAAGG'
p3814
I70700
sS'CACTCC'
p3815
I57799
sS'CACTCA'
p3816
I48145
sS'CACTCG'
p3817
I13973
sS'TGCGTT'
p3818
I10369
sS'GCAAGG'
p3819
I46408
sS'AGCTTT'
p3820
I50678
sS'CCCCGG'
p3821
I60726
sS'TGCGTA'
p3822
I5791
sS'CCCCGC'
p3823
I87422
sS'CACTCT'
p3824
I49610
sS'AGCTTC'
p3825
I49301
sS'GAGCCC'
p3826
I72992
sS'AGCTTA'
p3827
I23796
sS'AGCTTG'
p3828
I40048
sS'CCACTT'
p3829
I46236
sS'TTAGCT'
p3830
I29254
sS'TTAGCC'
p3831
I25683
sS'TTAGCA'
p3832
I29361
sS'CTAGCA'
p3833
I25247
sS'TTAGCG'
p3834
I6168
sS'TACCGG'
p3835
I6726
sS'AAGGGG'
p3836
I60638
sS'ATAAGG'
p3837
I24398
sS'TGTGCT'
p3838
I54257
sS'AAGGGC'
p3839
I52272
sS'ATAAGC'
p3840
I20772
sS'AAGGGA'
p3841
I65099
sS'ATAAGA'
p3842
I26931
sS'CCAGAC'
p3843
I51323
sS'CCAGAA'
p3844
I65719
sS'CCAGAG'
p3845
I91795
sS'TGTGCG'
p3846
I17352
sS'ATAAGT'
p3847
I20044
sS'AAGGGT'
p3848
I35113
sS'TGTGCC'
p3849
I50782
sS'ATAGGA'
p3850
I24521
sS'TGTGCA'
p3851
I51885
sS'ATAGGC'
p3852
I17675
sS'GCTCGC'
p3853
I22657
sS'ATACGC'
p3854
I3924
sS'CCAGAT'
p3855
I41514
sS'AGACAA'
p3856
I44894
sS'GACGCA'
p3857
I12457
sS'AGACAC'
p3858
I43927
sS'TCCATT'
p3859
I42977
sS'AGACAG'
p3860
I70848
sS'TTTTCT'
p3861
I104783
sS'CGCTGT'
p3862
I20204
sS'GACGCC'
p3863
I20229
sS'CGTGGG'
p3864
I29953
sS'TACACT'
p3865
I22905
sS'CGTGGA'
p3866
I18585
sS'TTTTCG'
p3867
I9458
sS'AACAAC'
p3868
I32733
sS'CGTCTT'
p3869
I11721
sS'TTTTCC'
p3870
I79631
sS'CAGCGA'
p3871
I19685
sS'CGCTGG'
p3872
I35964
sS'TATGGA'
p3873
I22019
sS'TATGGC'
p3874
I17633
sS'CGTAGG'
p3875
I7892
sS'CGTAGA'
p3876
I6102
sS'TATGGG'
p3877
I20601
sS'CGTAGC'
p3878
I7171
sS'CTTCAG'
p3879
I61317
sS'AAGTGT'
p3880
I36592
sS'TGGACT'
p3881
I44293
sS'CGTAGT'
p3882
I5562
sS'TATGGT'
p3883
I17473
sS'TGGACA'
p3884
I45685
sS'TGGACC'
p3885
I31887
sS'TGGACG'
p3886
I14044
sS'CGTTAC'
p3887
I5061
sS'GGCGGN'
p3888
I1
sS'CCGGTT'
p3889
I11234
sS'CTAGCT'
p3890
I26659
sS'GCTTGA'
p3891
I32310
sS'TGAGAC'
p3892
I45788
sS'GCTTGC'
p3893
I32565
sS'TGAGAA'
p3894
I61734
sS'TGAGAG'
p3895
I56471
sS'GCTTGG'
p3896
I48003
sS'CCTGTT'
p3897
I50696
sS'CCGGTG'
p3898
I20597
sS'CCTTGC'
p3899
I46402
sS'ACTTAT'
p3900
I20029
sS'CCTGTC'
p3901
I60619
sS'CCTGTA'
p3902
I42056
sS'CCTGTG'
p3903
I77685
sS'GCTTGT'
p3904
I32796
sS'TGAGAT'
p3905
I41848
sS'ATCGTA'
p3906
I3662
sS'GGTTGT'
p3907
I26043
sS'TATCAG'
p3908
I23722
sS'AATTCN'
p3909
I2
sS'TAGCGT'
p3910
I5328
sS'GGTTGG'
p3911
I39344
sS'GGTTGA'
p3912
I23869
sS'TTCACG'
p3913
I11425
sS'GGTTGC'
p3914
I28779
sS'CTGNNN'
p3915
I1
sS'TCCCGC'
p3916
I40199
sS'GTAACG'
p3917
I5062
sS'TCCCGG'
p3918
I44819
sS'GTAACC'
p3919
I17274
sS'CGTTTT'
p3920
I15752
sS'ATTCTC'
p3921
I41798
sS'AGGGAA'
p3922
I80082
sS'ATTCTA'
p3923
I28735
sS'ATTCTG'
p3924
I47543
sS'TCATTT'
p3925
I64548
sS'GTAACT'
p3926
I23303
sS'TGCTAA'
p3927
I29383
sS'TGCTAG'
p3928
I25262
sS'CAGCGG'
p3929
I37082
sS'AGGATC'
p3930
I31377
sS'TCATTC'
p3931
I46207
sS'TCATTA'
p3932
I29938
sS'CGTTTA'
p3933
I8109
sS'ATTCTT'
p3934
I46624
sS'CGTTTC'
p3935
I15379
sS'TGGCAA'
p3936
I41565
sS'CCGATC'
p3937
I6931
sS'TGGCAG'
p3938
I74773
sS'GCTGAG'
p3939
I86094
sS'ACAATC'
p3940
I21914
sS'GCTGAC'
p3941
I40222
sS'TACGTA'
p3942
I5203
sS'TGGCAT'
p3943
I38391
sS'GGCCGG'
p3944
I63723
sS'NNGATC'
p3945
I1
sS'CCGATG'
p3946
I8434
sS'GGCCGC'
p3947
I58585
sS'GAACTT'
p3948
I36182
sS'GGCCGA'
p3949
I27115
sS'GGCAAT'
p3950
I24098
sS'CGCTCG'
p3951
I16246
sS'ATCNNN'
p3952
I1
sS'CTGATT'
p3953
I39231
sS'CCATCG'
p3954
I10341
sS'CTAAAT'
p3955
I30084
sS'CCATCC'
p3956
I48754
sS'CCATCA'
p3957
I36362
sS'CTGATC'
p3958
I27732
sS'CTGATA'
p3959
I23721
sS'GTACCA'
p3960
I15847
sS'GGCAAC'
p3961
I31486
sS'GGCAAA'
p3962
I46984
sS'CTAAAG'
p3963
I31109
sS'CCATCT'
p3964
I53183
sS'CTAAAC'
p3965
I23335
sS'GACATC'
p3966
I24484
sS'GACACC'
p3967
I34071
sS'GACACA'
p3968
I48196
sS'GACACG'
p3969
I13812
sS'GCGCCT'
p3970
I32979
sS'TTCACC'
p3971
I39392
sS'CGTATA'
p3972
I3151
sS'TACGAG'
p3973
I5038
sS'TACGAC'
p3974
I3403
sS'GGAAAG'
p3975
I77044
sS'TACGAA'
p3976
I5147
sS'CCGTGA'
p3977
I15056
sS'CGTGAG'
p3978
I20413
sS'TGTTAC'
p3979
I24054
sS'CTATTG'
p3980
I20421
sS'GCATAA'
p3981
I18721
sS'CTATTC'
p3982
I21410
sS'TCGATG'
p3983
I6038
sS'TCGATA'
p3984
I2993
sS'TCGATC'
p3985
I4826
sS'CTATTT'
p3986
I40787
sS'CGCGAA'
p3987
I6418
sS'GCATTG'
p3988
I25831
sS'CAGCCT'
p3989
I117387
sS'TCGATT'
p3990
I5489
sS'TCGGCA'
p3991
I11138
sS'TGGTTT'
p3992
I51961
sS'TTTTGA'
p3993
I55954
sS'AACCAA'
p3994
I37603
sS'TGCCGG'
p3995
I24526
sS'AACCAC'
p3996
I36682
sS'GCGCCA'
p3997
I26760
sS'AACCAG'
p3998
I45129
sS'TGCCGA'
p3999
I11145
sS'TTGGAC'
p4000
I27741
sS'TCGGGC'
p4001
I21333
sS'CGCGAG'
p4002
I17295
sS'GCGCCG'
p4003
I41866
sS'GGCGGC'
p4004
I77139
sS'AACCAT'
p4005
I26383
sS'AACAGA'
p4006
I59354
sS'CTACCG'
p4007
I7969
sS'AACAGC'
p4008
I47433
sS'CTACCC'
p4009
I27604
sS'AACAGG'
p4010
I50694
sS'CTACCA'
p4011
I25261
sS'CCCAAG'
p4012
I62205
sS'TTGGAG'
p4013
I50817
sS'GACGAA'
p4014
I7420
sS'CCCAAC'
p4015
I42166
sS'CCCAAA'
p4016
I62125
sS'ACGTCT'
p4017
I10507
sS'GGGAGA'
p4018
I85865
sS'AACAGT'
p4019
I38665
sS'GGGAGC'
p4020
I79436
sS'CCCAAT'
p4021
I23886
sS'GACGAT'
p4022
I5250
sS'GGGCGC'
p4023
I57140
sS'GGGCGA'
p4024
I25166
sS'NGCGCC'
p4025
I1
sS'GGGCGG'
p4026
I92650
sS'TCTCTT'
p4027
I67074
sS'TGGGGG'
p4028
I88783
sS'GTACAG'
p4029
I25776
sS'CGTTAA'
p4030
I6026
sS'GTACAA'
p4031
I20146
sS'ACGACT'
p4032
I6811
sS'TCTCTC'
p4033
I83122
sS'TCTCTA'
p4034
I41251
sS'TCTCTG'
p4035
I89087
sS'GGGCGT'
p4036
I23988
sS'ACGACC'
p4037
I7783
sS'ACGACA'
p4038
I7520
sS'ACGACG'
p4039
I4422
sS'CAGAAG'
p4040
I72333
sS'TAAGTG'
p4041
I28983
sS'CACTTT'
p4042
I57259
sS'CCTAAT'
p4043
I21459
sS'CACTTG'
p4044
I42637
sS'CCTAAC'
p4045
I22403
sS'CCTAAA'
p4046
I32105
sS'CACTTC'
p4047
I48062
sS'CCTAAG'
p4048
I28656
sS'CACTTA'
p4049
I28973
sS'GCGGAT'
p4050
I11131
sS'ACAGGA'
p4051
I62138
sS'AATCCT'
p4052
I38867
sS'CTGCGG'
p4053
I41761
sS'AAGATT'
p4054
I32601
sS'CTCATG'
p4055
I40921
sS'GACTCG'
p4056
I13034
sS'CTCATC'
p4057
I40480
sS'GACTCC'
p4058
I42715
sS'CTCATA'
p4059
I22814
sS'GACTCA'
p4060
I46653
sS'ATAGGT'
p4061
I16690
sS'CTCCAA'
p4062
I50836
sS'AAGATG'
p4063
I41132
sS'GACTCT'
p4064
I39686
sS'CTCATT'
p4065
I48570
sS'ATCGAA'
p4066
I4809
sS'GGACTA'
p4067
I20513
sS'ATATTT'
p4068
I61187
sS'ATAGAG'
p4069
I24873
sS'AACTAA'
p4070
I26788
sS'ATAGTT'
p4071
I21577
sS'TACTGT'
p4072
I29869
sS'ATATTC'
p4073
I24291
sS'ATATTA'
p4074
I25470
sS'ATATTG'
p4075
I23244
sS'ATAGTA'
p4076
I16959
sS'TACTGA'
p4077
I28789
sS'TACTGG'
p4078
I26389
sS'ATAGTG'
p4079
I19972
sS'GATCGA'
p4080
I4822
sS'CAGGCA'
p4081
I90331
sS'AGGAAG'
p4082
I102028
sS'CATCCG'
p4083
I11425
sS'ACGGAG'
p4084
I19728
sS'CATCCA'
p4085
I39655
sS'AGGAAC'
p4086
I43589
sS'CATCCC'
p4087
I48152
sS'TTATGA'
p4088
I25766
sS'TTATGC'
p4089
I18706
sS'CGGAGT'
p4090
I16663
sS'TTATGG'
p4091
I21602
sS'CATCCT'
p4092
I48562
sS'AGGAAT'
p4093
I51133
sS'TACAGC'
p4094
I28507
sS'CAGGCT'
p4095
I95350
sS'ACGGAT'
p4096
I6712
sS'CGGAGA'
p4097
I23476
sS'CGGAGC'
p4098
I37524
sS'TTATGT'
p4099
I30165
sS'CGGAGG'
p4100
I41880
sS'ATGGAA'
p4101
I46169
sS'ATGGAC'
p4102
I24518
sS'ATGGAG'
p4103
I48287
sS'CGCTTG'
p4104
I15260
sS'CGCTTA'
p4105
I6574
sS'CGCTTC'
p4106
I20438
sS'ATGGAT'
p4107
I25584
sS'TTTGCA'
p4108
I57118
sS'CGCTTT'
p4109
I15112
sS'GCCGTG'
p4110
I23382
sS'TGGGGA'
p4111
I89658
sS'CAAGCC'
p4112
I45789
sS'TGCGGA'
p4113
I15931
sS'TTGTGA'
p4114
I39225
sS'GAAAAG'
p4115
I68436
sS'GAAAAC'
p4116
I52509
sS'ATAGAT'
p4117
I19956
sS'GAAAAA'
p4118
I84266
sS'TAGGGC'
p4119
I25146
sS'CAAGCG'
p4120
I15257
sS'GAAAAT'
p4121
I57146
sS'CGGCAT'
p4122
I9475
sS'CACGCA'
p4123
I19323
sS'ACAAGG'
p4124
I43857
sS'ACAAGA'
p4125
I38888
sS'AAAAAA'
p4126
I258095
sS'ACAAGC'
p4127
I32801
sS'ACACGT'
p4128
I13496
sS'CTGCGT'
p4129
I19180
sS'GCGGAG'
p4130
I44847
sS'CATAAG'
p4131
I19976
sS'GCGGAA'
p4132
I17154
sS'CATAAA'
p4133
I35822
sS'GCGGAC'
p4134
I16908
sS'CATAAC'
p4135
I17650
sS'ACACGC'
p4136
I16627
sS'ACAAGT'
p4137
I30265
sS'ACACGA'
p4138
I9276
sS'ACACGG'
p4139
I16509
sS'CATAAT'
p4140
I22861
sS'GTCCCA'
p4141
I48502
sS'GCACAT'
p4142
I32154
sS'GTCCCC'
p4143
I58019
sS'CTGCGA'
p4144
I16317
sS'CTGCGC'
p4145
I36354
sS'CGGCAA'
p4146
I11227
sS'CGGCAC'
p4147
I16895
sS'CGGCAG'
p4148
I35383
sS'GACGCG'
p4149
I14223
sS'CCTCCT'
p4150
I116697
sS'AGCGCT'
p4151
I20548
sS'CAGGCG'
p4152
I42610
sS'CCTCCC'
p4153
I162358
sS'CCTCCA'
p4154
I84030
sS'CACGCC'
p4155
I32145
sS'CCTCCG'
p4156
I41870
s.