(dp0
S'GAACGT'
p1
I699
sS'CGTCGT'
p2
I518
sS'CTTCTT'
p3
I3335
sS'CACCCT'
p4
I4863
sS'GAACGG'
p5
I1797
sS'GAACGC'
p6
I1927
sS'GAACGA'
p7
I1111
sS'CACCCA'
p8
I12471
sS'CTTCTA'
p9
I11849
sS'CACCCC'
p10
I11495
sS'CTTCTC'
p11
I11519
sS'CACCCG'
p12
I4249
sS'CTTCTG'
p13
I26400
sS'CGTGTG'
p14
I6137
sS'TAAGGT'
p15
I1783
sS'CGTGTC'
p16
I1368
sS'CGTGTA'
p17
I1963
sS'AGGCAA'
p18
I5413
sS'GGAAAT'
p19
I1552
sS'TAAGGG'
p20
I5491
sS'CGTGTT'
p21
I480
sS'TAAGGC'
p22
I4385
sS'TAAGGA'
p23
I7325
sS'TCACTG'
p24
I6579
sS'GTCAAA'
p25
I11204
sS'GTCAAC'
p26
I7968
sS'GTCAAG'
p27
I11545
sS'CTGTCC'
p28
I12232
sS'TCAGAG'
p29
I3615
sS'CTGTCA'
p30
I11034
sS'CTGTCG'
p31
I2562
sS'GTATCT'
p32
I2812
sS'TCAGAA'
p33
I3614
sS'TCATAA'
p34
I2201
sS'GTCAAT'
p35
I3001
sS'GTATCA'
p36
I4444
sS'GTATCC'
p37
I3565
sS'GTATCG'
p38
I702
sS'CTGTCT'
p39
I8487
sS'GGTGTC'
p40
I2131
sS'TACCCT'
p41
I3307
sS'GGTGTA'
p42
I3663
sS'GGTGTG'
p43
I10312
sS'TATCCT'
p44
I3004
sS'CCGGGG'
p45
I3872
sS'TTCTGT'
p46
I24334
sS'GTATTG'
p47
I7154
sS'CCGGGC'
p48
I2873
sS'CCGGGA'
p49
I2616
sS'TATCCA'
p50
I6519
sS'AGGCAG'
p51
I12476
sS'TATCCC'
p52
I4513
sS'TATCCG'
p53
I1165
sS'GGTGTT'
p54
I817
sS'ATTCCG'
p55
I1069
sS'TTCTGG'
p56
I39474
sS'CCGGGT'
p57
I636
sS'ATTCCC'
p58
I3936
sS'TTCTGC'
p59
I35991
sS'ATTCCA'
p60
I7310
sS'TTCTGA'
p61
I37248
sS'CTTGGA'
p62
I9997
sS'GGNCCC'
p63
I1
sS'TATCTT'
p64
I4125
sS'CGCGGT'
p65
I1332
sS'AGGGAG'
p66
I10808
sS'ACGAAC'
p67
I470
sS'CGCGGG'
p68
I10051
sS'CGCGGC'
p69
I8979
sS'CGCGGA'
p70
I3639
sS'ACAGGT'
p71
I1374
sS'ACCTGT'
p72
I3298
sS'TCATGT'
p73
I3389
sS'CTCCGA'
p74
I5158
sS'TTACAG'
p75
I3256
sS'CTCCGC'
p76
I15340
sS'TTACAA'
p77
I2975
sS'TTACAC'
p78
I1764
sS'CTCCGG'
p79
I11440
sS'TCATGC'
p80
I4264
sS'ACCTGG'
p81
I12266
sS'TCATGA'
p82
I4345
sS'GTAAGC'
p83
I4036
sS'TCATGG'
p84
I4945
sS'CCCGCA'
p85
I4327
sS'ACCTGA'
p86
I8441
sS'TCACTC'
p87
I1498
sS'TTACAT'
p88
I1193
sS'CTCGAT'
p89
I446
sS'CTCCGT'
p90
I2814
sS'GAATTT'
p91
I1412
sS'GCCTGA'
p92
I21218
sS'GCCTGC'
p93
I29741
sS'GCCTGG'
p94
I40551
sS'TAAAGG'
p95
I10350
sS'CAAATT'
p96
I864
sS'TAAAGA'
p97
I11020
sS'AAGGTC'
p98
I3327
sS'GCCTGT'
p99
I12009
sS'TATCTA'
p100
I12626
sS'TAAAGT'
p101
I4337
sS'CAAATA'
p102
I7306
sS'CAAATC'
p103
I2092
sS'CGTGCT'
p104
I903
sS'CAAATG'
p105
I9726
sS'AATACT'
p106
I5153
sS'TATCTC'
p107
I9279
sS'CCGGCG'
p108
I1644
sS'GGCATG'
p109
I15962
sS'GGCATA'
p110
I6608
sS'GGCATC'
p111
I4670
sS'AATACG'
p112
I1895
sS'AATACA'
p113
I12347
sS'AATACC'
p114
I6178
sS'GGCATT'
p115
I2342
sS'TATCTG'
p116
I21078
sS'TGCACA'
p117
I16133
sS'GAGCAC'
p118
I9094
sS'GAGCAA'
p119
I10306
sS'CATATC'
p120
I4294
sS'GAGCAG'
p121
I18082
sS'AGTAGT'
p122
I4374
sS'TCTCGC'
p123
I2904
sS'TCTCGA'
p124
I1404
sS'TCTCGG'
p125
I3452
sS'ACTGAG'
p126
I7435
sS'AGTAGA'
p127
I8912
sS'AGTAGG'
p128
I8923
sS'ACTGAA'
p129
I5376
sS'AGCCCG'
p130
I6570
sS'TCTCGT'
p131
I700
sS'GTGTCG'
p132
I2153
sS'TCGAAC'
p133
I364
sS'TCGAAA'
p134
I411
sS'GTGTCC'
p135
I9331
sS'TCGAAG'
p136
I664
sS'GTGTCA'
p137
I10648
sS'CTTGCT'
p138
I4831
sS'TCGGTC'
p139
I337
sS'GTGTCT'
p140
I6864
sS'AGCCCC'
p141
I12983
sS'TCGAAT'
p142
I170
sS'CTTGCG'
p143
I2338
sS'CTTGCA'
p144
I8145
sS'CTTGCC'
p145
I6766
sS'CGAAAG'
p146
I881
sS'CGAAAA'
p147
I469
sS'CGAAAC'
p148
I635
sS'AAGGTT'
p149
I1223
sS'CACGGA'
p150
I3909
sS'AAATGC'
p151
I7750
sS'CACGGC'
p152
I5407
sS'AAATGA'
p153
I10172
sS'ACAGTC'
p154
I1240
sS'CACGGG'
p155
I5766
sS'ACAGTA'
p156
I3345
sS'CGAAAT'
p157
I196
sS'ACAGTT'
p158
I682
sS'AATCAG'
p159
I15446
sS'CACGGT'
p160
I1501
sS'AAATGT'
p161
I4894
sS'AATCAC'
p162
I13520
sS'TTTGTA'
p163
I13620
sS'TCTAGT'
p164
I3008
sS'TTGCCG'
p165
I2174
sS'TTGCCA'
p166
I9121
sS'GGGTAT'
p167
I824
sS'GGGTAC'
p168
I1520
sS'TCTAGG'
p169
I6992
sS'GGGTAA'
p170
I2401
sS'TCTAGA'
p171
I6110
sS'GGGTAG'
p172
I2726
sS'TCTAGC'
p173
I4826
sS'ATACGG'
p174
I560
sS'GGCTCC'
p175
I21277
sS'AGATGT'
p176
I2872
sS'TCGCCC'
p177
I1135
sS'TCGCCA'
p178
I680
sS'ATAGTC'
p179
I1044
sS'TCGCCG'
p180
I582
sS'GGTAAT'
p181
I1468
sS'ACCCAT'
p182
I1151
sS'CGTCAG'
p183
I3706
sS'GTGTAT'
p184
I3162
sS'ACCCAC'
p185
I6649
sS'GGTAAC'
p186
I4004
sS'ACCCAA'
p187
I4871
sS'AGATGG'
p188
I5827
sS'ACCCAG'
p189
I8893
sS'AGATGA'
p190
I5828
sS'TCGCCT'
p191
I423
sS'AGATGC'
p192
I4047
sS'TTTGAG'
p193
I9948
sS'CCCCAT'
p194
I1769
sS'TTGGGT'
p195
I2310
sS'CACTAG'
p196
I13362
sS'CACTAA'
p197
I15599
sS'CACTAC'
p198
I10644
sS'CCCCAA'
p199
I6076
sS'CCCCAC'
p200
I10017
sS'CCCCAG'
p201
I11574
sS'CACTAT'
p202
I5258
sS'TTGGGG'
p203
I7729
sS'TCGGTT'
p204
I125
sS'TTGGGA'
p205
I7024
sS'TTGGGC'
p206
I4303
sS'TGCCTG'
p207
I37277
sS'TAGTGG'
p208
I10192
sS'TTTCTG'
p209
I30149
sS'TGCAGC'
p210
I26219
sS'TTTCTA'
p211
I17291
sS'TGCCTA'
p212
I13511
sS'TGCAGG'
p213
I26218
sS'GGGTCA'
p214
I4326
sS'TCAGAC'
p215
I1796
sS'CCCACA'
p216
I15497
sS'TTTCTT'
p217
I4555
sS'ACGTGC'
p218
I1819
sS'TGCCTT'
p219
I5676
sS'TGCAGT'
p220
I14114
sS'ACAATT'
p221
I623
sS'AAGGAA'
p222
I13694
sS'AAGGAC'
p223
I7213
sS'TCACAG'
p224
I2304
sS'AAGGAG'
p225
I13721
sS'ATATGC'
p226
I4188
sS'CTCATT'
p227
I7371
sS'ATATGA'
p228
I5641
sS'TACGAA'
p229
I1687
sS'ATATGG'
p230
I4719
sS'AAGGAT'
p231
I2195
sS'AGGGCC'
p232
I6824
sS'TGGTTT'
p233
I2905
sS'TGTGTC'
p234
I6145
sS'ATATGT'
p235
I3721
sS'GGTCCC'
p236
I3194
sS'GCCCAG'
p237
I18060
sS'GGTCCA'
p238
I2497
sS'GCCCAA'
p239
I6407
sS'GGTCCG'
p240
I1304
sS'AGGTCT'
p241
I2970
sS'ATGTGT'
p242
I7108
sS'AGACCC'
p243
I1196
sS'AGACCA'
p244
I1800
sS'CTTCGA'
p245
I1895
sS'CTTCGC'
p246
I3458
sS'CCACTA'
p247
I1791
sS'TCCGGG'
p248
I7657
sS'AGGTCA'
p249
I7627
sS'TCCGGC'
p250
I5133
sS'GGTCCT'
p251
I1348
sS'TCCGGA'
p252
I3194
sS'CTTAGC'
p253
I7941
sS'ATTGTG'
p254
I9363
sS'CTTAGA'
p255
I9573
sS'TCTTGC'
p256
I10527
sS'CTTAGG'
p257
I9059
sS'ATTGTC'
p258
I1815
sS'TCTTGG'
p259
I13998
sS'CGCTAC'
p260
I2847
sS'ATTTTG'
p261
I22293
sS'GAGGTG'
p262
I16218
sS'ATTTTA'
p263
I24737
sS'CGCTAG'
p264
I3292
sS'ATTTTC'
p265
I9175
sS'TCCAGC'
p266
I23980
sS'TAGCAG'
p267
I7223
sS'GATACT'
p268
I4141
sS'TAGCAC'
p269
I4677
sS'TAGCAA'
p270
I6085
sS'TAAATA'
p271
I12913
sS'CGCTAA'
p272
I2657
sS'GCCTTG'
p273
I33313
sS'TAGTGT'
p274
I5710
sS'GCCTTA'
p275
I17543
sS'TTGACA'
p276
I4912
sS'TAAATG'
p277
I13364
sS'GATACG'
p278
I1751
sS'TAGCAT'
p279
I2064
sS'GATACC'
p280
I4349
sS'GATACA'
p281
I9096
sS'TGAGCT'
p282
I2155
sS'ACGGAC'
p283
I500
sS'GATCAT'
p284
I3334
sS'AAGACA'
p285
I11786
sS'AAGACC'
p286
I5813
sS'ACAATG'
p287
I5764
sS'AAGACG'
p288
I2656
sS'GATCAG'
p289
I10577
sS'TGAGCG'
p290
I1175
sS'GATCAC'
p291
I8846
sS'GATCAA'
p292
I7236
sS'CGGGGA'
p293
I3457
sS'AAGACT'
p294
I4242
sS'GCGGTC'
p295
I561
sS'GCGGTA'
p296
I805
sS'GCGGTG'
p297
I3487
sS'CGGTGT'
p298
I1150
sS'TCGTTA'
p299
I1040
sS'TCGTTC'
p300
I765
sS'ATGTGG'
p301
I13534
sS'TCGTTG'
p302
I1687
sS'TTGGAG'
p303
I5464
sS'GAGTTT'
p304
I3981
sS'GCGGTT'
p305
I168
sS'ACTTGC'
p306
I6762
sS'ATGTGA'
p307
I11373
sS'ACTTGA'
p308
I7942
sS'CGGTGG'
p309
I3964
sS'ACTTGG'
p310
I9675
sS'CGGTGA'
p311
I2290
sS'CGGTGC'
p312
I2967
sS'TTCCTA'
p313
I24994
sS'TAGACT'
p314
I2846
sS'TTCCTC'
p315
I27136
sS'ACCACA'
p316
I15946
sS'TGGGTT'
p317
I775
sS'TTCCTG'
p318
I56229
sS'TCCTTT'
p319
I12973
sS'GACCCA'
p320
I10760
sS'ACGCTA'
p321
I834
sS'TAGACG'
p322
I1333
sS'TTCCTT'
p323
I11189
sS'TAGACC'
p324
I3516
sS'TAGACA'
p325
I6965
sS'TCCTTG'
p326
I40187
sS'TCCTTA'
p327
I28467
sS'TCCTTC'
p328
I29024
sS'ATCTCT'
p329
I8900
sS'ACCGTT'
p330
I346
sS'TGGCGC'
p331
I2610
sS'TGGCGA'
p332
I1371
sS'TGGCGG'
p333
I4008
sS'ATCTCG'
p334
I3490
sS'ATCTCA'
p335
I18752
sS'ATCTCC'
p336
I13778
sS'GGCCAA'
p337
I9617
sS'ACGGAG'
p338
I975
sS'GGCCAC'
p339
I10314
sS'ACCGTG'
p340
I4341
sS'ACCGTA'
p341
I1608
sS'GGCCAG'
p342
I15731
sS'ACCGTC'
p343
I1179
sS'ACCGAC'
p344
I1440
sS'AGAATT'
p345
I1052
sS'NGATCC'
p346
I1
sS'GGCAGT'
p347
I8387
sS'CCATAA'
p348
I1409
sS'CAAAGG'
p349
I10322
sS'CCATAC'
p350
I1034
sS'CAAAGA'
p351
I9408
sS'AGATTC'
p352
I2102
sS'CAAAGC'
p353
I7982
sS'CCATAG'
p354
I1355
sS'GGCAGA'
p355
I19471
sS'GGCAGC'
p356
I24788
sS'AACGTA'
p357
I3326
sS'GGCAGG'
p358
I30930
sS'CAACGC'
p359
I895
sS'CTAACA'
p360
I6155
sS'CAACGA'
p361
I684
sS'CTAACC'
p362
I3786
sS'CCATAT'
p363
I941
sS'CTAACG'
p364
I1092
sS'GGGGGT'
p365
I1389
sS'TACGCT'
p366
I897
sS'AGATTG'
p367
I5036
sS'CGATCT'
p368
I172
sS'CTCTAG'
p369
I17452
sS'CTCTAA'
p370
I18975
sS'CTCTAC'
p371
I13270
sS'GGGGGG'
p372
I3943
sS'CGATCC'
p373
I503
sS'TACGCC'
p374
I1797
sS'GGGGGC'
p375
I4681
sS'CGATCG'
p376
I114
sS'GGGGGA'
p377
I4774
sS'TACGCG'
p378
I1088
sS'CTCTAT'
p379
I6230
sS'ACCGAA'
p380
I1119
sS'CAGACC'
p381
I6530
sS'CAGACA'
p382
I10475
sS'CAGACG'
p383
I2728
sS'ACGTGA'
p384
I2137
sS'TAGTTG'
p385
I11464
sS'ACTAGT'
p386
I1664
sS'TAGTTC'
p387
I6274
sS'TAGTTA'
p388
I11406
sS'CAGACT'
p389
I3690
sS'GCTAAG'
p390
I5817
sS'TAGTTT'
p391
I3365
sS'GCTAAC'
p392
I3200
sS'GCTAAA'
p393
I4940
sS'TGCATT'
p394
I5246
sS'GCGAAA'
p395
I542
sS'AACCCT'
p396
I4491
sS'AACCCC'
p397
I7956
sS'AACCCA'
p398
I10684
sS'TGCATA'
p399
I15384
sS'TGCATC'
p400
I7958
sS'AGATTT'
p401
I897
sS'ACGTAA'
p402
I761
sS'ACGTAC'
p403
I511
sS'AACTGA'
p404
I26660
sS'AACTGC'
p405
I23615
sS'CCCAGA'
p406
I18315
sS'CCCAGC'
p407
I27560
sS'CCCAGG'
p408
I28829
sS'AACTGT'
p409
I13793
sS'AGTTTT'
p410
I4336
sS'CTACAT'
p411
I972
sS'CGAGTC'
p412
I429
sS'CCCAGT'
p413
I7893
sS'TTGACG'
p414
I1191
sS'CGCATA'
p415
I1692
sS'ATACTG'
p416
I4481
sS'CGCATC'
p417
I1726
sS'ATACTA'
p418
I2573
sS'ATACTC'
p419
I1162
sS'CGCATG'
p420
I4876
sS'GCGCAA'
p421
I533
sS'GCGAAT'
p422
I155
sS'ATACTT'
p423
I663
sS'CGCATT'
p424
I734
sS'AGGCCC'
p425
I7692
sS'GCTCCG'
p426
I3216
sS'TATTGT'
p427
I9777
sS'GCTCCC'
p428
I5637
sS'GCTCCA'
p429
I5779
sS'CCTACT'
p430
I2257
sS'TGTACT'
p431
I3490
sS'TTTAGT'
p432
I6089
sS'TATTGG'
p433
I11843
sS'GCTCCT'
p434
I2957
sS'TATTGC'
p435
I13872
sS'TATTGA'
p436
I13236
sS'TTTAGG'
p437
I9936
sS'TGTACG'
p438
I1362
sS'CCTACG'
p439
I1216
sS'TGTACA'
p440
I7964
sS'CCTACA'
p441
I3987
sS'TGTACC'
p442
I3410
sS'TTTAGA'
p443
I12712
sS'TTCGCG'
p444
I1505
sS'TTCGCA'
p445
I2037
sS'TTCGCC'
p446
I2651
sS'CGTACA'
p447
I1204
sS'GACTAA'
p448
I23404
sS'AGTATA'
p449
I7376
sS'GACTAC'
p450
I12026
sS'AGTATG'
p451
I10253
sS'TTTGGA'
p452
I10090
sS'TTTGGC'
p453
I7123
sS'TTCGCT'
p454
I1249
sS'TTTGGT'
p455
I3625
sS'GACTAT'
p456
I6069
sS'AGTATT'
p457
I1856
sS'TTACTC'
p458
I2335
sS'TTACTA'
p459
I4098
sS'TTACTG'
p460
I6548
sS'ACCTTG'
p461
I19915
sS'ACCTTC'
p462
I10389
sS'ACCTTA'
p463
I12265
sS'TATATC'
p464
I4571
sS'GTAAAC'
p465
I4408
sS'ACGCTT'
p466
I191
sS'ACCTTT'
p467
I3676
sS'ACAGGG'
p468
I4803
sS'CTGGGA'
p469
I16129
sS'CTGGGC'
p470
I11738
sS'ACAGGC'
p471
I3360
sS'ACAGGA'
p472
I6499
sS'CTGGGG'
p473
I15518
sS'AGGACG'
p474
I2764
sS'GCAGCT'
p475
I3887
sS'CAGGAA'
p476
I9803
sS'TCGCTT'
p477
I206
sS'CAGGAG'
p478
I10605
sS'AGGACA'
p479
I7628
sS'GCGCAT'
p480
I219
sS'CGATTT'
p481
I108
sS'TTATAC'
p482
I2829
sS'TTATAA'
p483
I4656
sS'CTGGGT'
p484
I4965
sS'TTATAG'
p485
I3034
sS'TCGCTG'
p486
I2471
sS'GCAGCG'
p487
I2709
sS'AGGACT'
p488
I3317
sS'GCAGCA'
p489
I7683
sS'GCAGCC'
p490
I5786
sS'CAGGAT'
p491
I1789
sS'CCTCAG'
p492
I9230
sS'CCTCAA'
p493
I5253
sS'CCTCAC'
p494
I5980
sS'TATGTT'
p495
I3365
sS'ATGGGC'
p496
I3421
sS'TCTTTG'
p497
I31559
sS'ATGGGA'
p498
I6625
sS'TCTTTA'
p499
I23050
sS'ATGGGG'
p500
I6407
sS'TCTTTC'
p501
I16104
sS'CCTCAT'
p502
I1835
sS'TCTTTT'
p503
I5749
sS'TATGTG'
p504
I21977
sS'TATGTA'
p505
I16029
sS'ATGGGT'
p506
I1732
sS'TATGTC'
p507
I5154
sS'GAAAGA'
p508
I17677
sS'ATCAAG'
p509
I9887
sS'GAAAGC'
p510
I12600
sS'GATGGT'
p511
I4172
sS'GAAAGG'
p512
I18961
sS'ATCAAA'
p513
I11235
sS'GGAACT'
p514
I1532
sS'GTCAGG'
p515
I22442
sS'ACGTGG'
p516
I3197
sS'CATGAG'
p517
I13602
sS'ATCAAT'
p518
I2345
sS'TCAAAC'
p519
I2246
sS'GAAAGT'
p520
I5160
sS'ACCTGC'
p521
I10519
sS'TGACCT'
p522
I859
sS'GTAGCG'
p523
I1087
sS'CAAGTT'
p524
I845
sS'GCTTTG'
p525
I26551
sS'GCTTTA'
p526
I15599
sS'GCTTTC'
p527
I11020
sS'AAAGTA'
p528
I6421
sS'GCGGCG'
p529
I2923
sS'TGCCAG'
p530
I15012
sS'GTAGCT'
p531
I2654
sS'GCGGCC'
p532
I3638
sS'CAAGTC'
p533
I1964
sS'GCGGCA'
p534
I1877
sS'CAAGTA'
p535
I4043
sS'AACGGT'
p536
I1062
sS'CCCTTT'
p537
I7398
sS'GGGGAA'
p538
I4004
sS'TAATCG'
p539
I666
sS'GGTCTT'
p540
I986
sS'TAATCA'
p541
I5290
sS'TAATCC'
p542
I3913
sS'TGCGAA'
p543
I1633
sS'CGGCCC'
p544
I4236
sS'CGACTA'
p545
I271
sS'CGGCCA'
p546
I2518
sS'CGCTAT'
p547
I911
sS'CGGCCG'
p548
I2638
sS'TCGTGA'
p549
I1045
sS'CTTGTA'
p550
I8331
sS'GGTCTG'
p551
I11596
sS'TAATCT'
p552
I2022
sS'GGTCTC'
p553
I4453
sS'GGTCTA'
p554
I3908
sS'AAAATG'
p555
I12418
sS'AAAATC'
p556
I1919
sS'AAAATA'
p557
I10197
sS'TTCAGC'
p558
I24212
sS'ATCCCT'
p559
I3318
sS'TTCAGG'
p560
I25950
sS'GAACAT'
p561
I985
sS'TCGTCG'
p562
I358
sS'TTTAGC'
p563
I8047
sS'TGTTTT'
p564
I8814
sS'GAACAA'
p565
I3576
sS'ATCCCG'
p566
I2526
sS'GAACAC'
p567
I3320
sS'ATCCCC'
p568
I6230
sS'GAACAG'
p569
I4609
sS'ATCCCA'
p570
I8187
sS'AGGCCG'
p571
I3481
sS'ATTGCA'
p572
I5199
sS'CGGCTT'
p573
I574
sS'CACCAC'
p574
I14218
sS'CACCAA'
p575
I10173
sS'CACCAG'
p576
I14853
sS'TCCGTG'
p577
I5867
sS'ATTGCG'
p578
I878
sS'TCCGTC'
p579
I2067
sS'TCCGTA'
p580
I2079
sS'ACCAGA'
p581
I11504
sS'CGGCGT'
p582
I690
sS'CACCAT'
p583
I3624
sS'AACATG'
p584
I26914
sS'AACATA'
p585
I21028
sS'AACATC'
p586
I10537
sS'GTCAGC'
p587
I20465
sS'GCACGG'
p588
I1183
sS'GTCAGA'
p589
I20251
sS'GCACGA'
p590
I661
sS'CAGTCC'
p591
I9299
sS'GCACGC'
p592
I1123
sS'TCAGCG'
p593
I1324
sS'GCACCA'
p594
I2217
sS'GCAAGC'
p595
I3225
sS'GCACGT'
p596
I509
sS'CAGTCT'
p597
I5137
sS'TAAAGC'
p598
I7822
sS'GCAAGG'
p599
I5318
sS'GTCAGT'
p600
I10161
sS'GTATAC'
p601
I2308
sS'TTCCGT'
p602
I2281
sS'GTATAA'
p603
I3139
sS'GTATAG'
p604
I1979
sS'CCGGAA'
p605
I1025
sS'CCGGAC'
p606
I789
sS'CCGGAG'
p607
I1506
sS'TATCAT'
p608
I3719
sS'CTCGTA'
p609
I2179
sS'TTCCGG'
p610
I8822
sS'TTCCGA'
p611
I3378
sS'TTCCGC'
p612
I6833
sS'GTATAT'
p613
I1897
sS'TATCAC'
p614
I7780
sS'TATCAA'
p615
I8253
sS'CGTCTG'
p616
I5819
sS'CCGGAT'
p617
I162
sS'CTCTTC'
p618
I34606
sS'TGTTAT'
p619
I5087
sS'CTCTTA'
p620
I31613
sS'CTCTTG'
p621
I44773
sS'CCCGAT'
p622
I318
sS'TACGTA'
p623
I3557
sS'TACGTC'
p624
I1859
sS'TCTGGT'
p625
I2339
sS'CGCGAT'
p626
I441
sS'TACGTG'
p627
I5540
sS'TGTTAG'
p628
I11296
sS'GCTGTT'
p629
I1633
sS'TGTTAC'
p630
I9726
sS'CTCTTT'
p631
I16632
sS'TGTTAA'
p632
I13202
sS'TCTGGG'
p633
I11774
sS'CGCGAC'
p634
I2192
sS'GATATT'
p635
I2450
sS'TCTGGC'
p636
I6695
sS'TACGTT'
p637
I848
sS'CGCGAG'
p638
I4529
sS'AGTCGT'
p639
I972
sS'TTACCT'
p640
I1271
sS'CTCCAT'
p641
I4516
sS'TATGCC'
p642
I4411
sS'TTACCG'
p643
I570
sS'CTCCAC'
p644
I15883
sS'CTCCAA'
p645
I13334
sS'TTACCC'
p646
I1759
sS'CTCCAG'
p647
I24121
sS'TTACCA'
p648
I3098
sS'AGTCGC'
p649
I2907
sS'AATGCC'
p650
I7247
sS'GTACCG'
p651
I531
sS'CCGACT'
p652
I368
sS'GCCTAC'
p653
I7585
sS'GCCTAA'
p654
I8978
sS'GCCTAG'
p655
I10906
sS'CCGACA'
p656
I677
sS'GATATC'
p657
I3654
sS'CCGACC'
p658
I1169
sS'CCGACG'
p659
I588
sS'GCCTAT'
p660
I2974
sS'TGACGG'
p661
I801
sS'ACGCTC'
p662
I703
sS'CCCGAG'
p663
I4695
sS'TGACGA'
p664
I511
sS'CTAAGT'
p665
I3632
sS'GCTGTC'
p666
I3742
sS'CGTCCT'
p667
I930
sS'CGCACA'
p668
I4681
sS'ATACAC'
p669
I1788
sS'CGCACC'
p670
I4328
sS'GGGTCG'
p671
I1458
sS'ACTGCT'
p672
I2143
sS'ATACAG'
p673
I2292
sS'CGCACG'
p674
I3540
sS'GGGTCC'
p675
I4128
sS'CTCACT'
p676
I13587
sS'GGGTCT'
p677
I1935
sS'ACTGCA'
p678
I6495
sS'TTTGTC'
p679
I4772
sS'ACTGCC'
p680
I4034
sS'CGCACT'
p681
I2076
sS'TTTGTG'
p682
I19732
sS'ACTGCG'
p683
I1945
sS'CTCACC'
p684
I17376
sS'CTCACA'
p685
I23239
sS'CTCACG'
p686
I6437
sS'GTGGGT'
p687
I3889
sS'GTGAGG'
p688
I13284
sS'GATTTT'
p689
I5532
sS'TAGTGC'
p690
I6573
sS'GTGAGC'
p691
I9039
sS'TAGTGA'
p692
I10023
sS'GTGAGA'
p693
I9307
sS'TCGACG'
p694
I273
sS'TCGACA'
p695
I388
sS'TCGACC'
p696
I474
sS'GATTTG'
p697
I28379
sS'GTGAGT'
p698
I7217
sS'GTGGGG'
p699
I15245
sS'GTGGGA'
p700
I11377
sS'GATTTA'
p701
I23009
sS'TCGACT'
p702
I213
sS'GTGGGN'
p703
I1
sS'CTGGTT'
p704
I1478
sS'TTGAGT'
p705
I4558
sS'TCAAAA'
p706
I2750
sS'CGAACG'
p707
I357
sS'CGAACC'
p708
I660
sS'CGAACA'
p709
I774
sS'CTGGTG'
p710
I11837
sS'CTGGTA'
p711
I5338
sS'CTGGTC'
p712
I2988
sS'CTGCAA'
p713
I7238
sS'CGAACT'
p714
I328
sS'TTGCAT'
p715
I2496
sS'GACGAG'
p716
I4893
sS'NNGAAT'
p717
I2
sS'CGTCTT'
p718
I567
sS'TTGCAG'
p719
I7865
sS'ACTCCT'
p720
I1793
sS'TTGCAC'
p721
I4769
sS'TTGCAA'
p722
I5824
sS'AAGATC'
p723
I3076
sS'TCCATC'
p724
I7980
sS'TCGCAT'
p725
I97
sS'GTCGTG'
p726
I3614
sS'ATTGTT'
p727
I1225
sS'GTCGTA'
p728
I1458
sS'GTCGTC'
p729
I1498
sS'CCGTTT'
p730
I328
sS'ACTGAT'
p731
I1107
sS'ATATCG'
p732
I491
sS'GTCGTT'
p733
I463
sS'TCAGAT'
p734
I851
sS'TCGCAG'
p735
I751
sS'GAGGGG'
p736
I24858
sS'CCAAGC'
p737
I3354
sS'TCGCAC'
p738
I410
sS'CCGTTG'
p739
I1914
sS'CCGTTA'
p740
I1149
sS'CCGTTC'
p741
I884
sS'AATGCT'
p742
I4764
sS'GGTACG'
p743
I666
sS'GGTACA'
p744
I2710
sS'GGTACC'
p745
I1650
sS'TATTTG'
p746
I40161
sS'CCAGTT'
p747
I785
sS'TATTTC'
p748
I22771
sS'TATTTA'
p749
I45850
sS'CCCCCT'
p750
I2697
sS'GGTACT'
p751
I1257
sS'AATGCG'
p752
I2454
sS'TTGAGA'
p753
I8636
sS'AATGCA'
p754
I13387
sS'CCCCCC'
p755
I3718
sS'CCCCCA'
p756
I7505
sS'TATTTT'
p757
I12187
sS'CCCCCG'
p758
I4097
sS'GAGCGA'
p759
I4780
sS'CTTGAG'
p760
I9022
sS'ATGATG'
p761
I11501
sS'CTTGAC'
p762
I5218
sS'GCGTTA'
p763
I1242
sS'ATGATC'
p764
I1874
sS'CGGACT'
p765
I666
sS'TGCAAC'
p766
I11405
sS'TGCAAA'
p767
I17970
sS'TGCAAG'
p768
I15658
sS'GCCGTC'
p769
I2273
sS'ATGATT'
p770
I1589
sS'CTTGAT'
p771
I1619
sS'CGAATC'
p772
I288
sS'TTGAGG'
p773
I9259
sS'GCCATT'
p774
I2531
sS'CAATGT'
p775
I2338
sS'TTGAGC'
p776
I6091
sS'TGCAAT'
p777
I5881
sS'GAGAAT'
p778
I4453
sS'TGTCTT'
p779
I3182
sS'CGAATA'
p780
I540
sS'AGTAGC'
p781
I7311
sS'AAGGCC'
p782
I9471
sS'ATAACC'
p783
I2642
sS'AAGGCA'
p784
I13082
sS'ATAACA'
p785
I5664
sS'AAGGCG'
p786
I3831
sS'ATAACG'
p787
I730
sS'TATGCT'
p788
I3509
sS'GAGGGT'
p789
I4333
sS'TGTCTG'
p790
I25604
sS'GAGAAG'
p791
I22822
sS'GAGAAA'
p792
I20031
sS'TGTCTC'
p793
I10698
sS'GAGAAC'
p794
I12049
sS'TGTCTA'
p795
I10430
sS'TGTGGC'
p796
I9555
sS'TGTGGA'
p797
I9176
sS'TGTGGG'
p798
I14217
sS'ATAACT'
p799
I2065
sS'ACTGAC'
p800
I4856
sS'CTGTAA'
p801
I7546
sS'CAATTT'
p802
I598
sS'GCCCCG'
p803
I9420
sS'ACCAAG'
p804
I9704
sS'GGTCAG'
p805
I7656
sS'GCCCCC'
p806
I9225
sS'ATCATC'
p807
I7999
sS'ACCAAC'
p808
I6499
sS'GGTCAC'
p809
I5452
sS'GATCGC'
p810
I2906
sS'GGTCAT'
p811
I1385
sS'ACCAAT'
p812
I2984
sS'CGTGCA'
p813
I2281
sS'CGTGCG'
p814
I2069
sS'AGGTAC'
p815
I2068
sS'TTTTGC'
p816
I15155
sS'TCTTAC'
p817
I5845
sS'AATTGG'
p818
I10442
sS'TCTTAA'
p819
I9134
sS'AATTGA'
p820
I11295
sS'TCTTAG'
p821
I8403
sS'TTGGAT'
p822
I1015
sS'TAGCCA'
p823
I5977
sS'TGGGGT'
p824
I1964
sS'CGCTCG'
p825
I5437
sS'GATAAT'
p826
I3883
sS'CGCTCA'
p827
I6105
sS'CGCTCC'
p828
I11846
sS'AATTGT'
p829
I6965
sS'CGAGAG'
p830
I1179
sS'AATCTT'
p831
I3058
sS'TCTTAT'
p832
I2743
sS'GTTATG'
p833
I8945
sS'CGCTCT'
p834
I4152
sS'TGGGGG'
p835
I7629
sS'GATAAC'
p836
I8194
sS'TAGCCT'
p837
I2230
sS'TGGGGC'
p838
I6046
sS'GATAAG'
p839
I11672
sS'CTCTCA'
p840
I27786
sS'GATCCT'
p841
I3138
sS'AAGAAT'
p842
I4438
sS'GGGGCT'
p843
I2107
sS'GTTATC'
p844
I2755
sS'AAGAAC'
p845
I9728
sS'GATCCA'
p846
I6188
sS'AAGAAA'
p847
I18367
sS'GATCCC'
p848
I6120
sS'AAGAAG'
p849
I15597
sS'GATCCG'
p850
I2404
sS'GCCCCA'
p851
I9963
sS'TATTAA'
p852
I17291
sS'CAAGGG'
p853
I7496
sS'CAAGGC'
p854
I6173
sS'GGTTCT'
p855
I3184
sS'CAAGGA'
p856
I8791
sS'GGTTCA'
p857
I6080
sS'GCAACC'
p858
I2311
sS'GGTTCC'
p859
I6644
sS'AAGGCT'
p860
I4222
sS'GGTTCG'
p861
I1923
sS'CTGTAT'
p862
I3281
sS'ATTATA'
p863
I6997
sS'ATTATC'
p864
I2395
sS'TAGAAT'
p865
I3130
sS'CAAACG'
p866
I1267
sS'ATTATG'
p867
I8407
sS'AGTCTT'
p868
I2475
sS'TAGAAA'
p869
I10146
sS'TAGAAC'
p870
I5970
sS'ATTATT'
p871
I1670
sS'TAGAAG'
p872
I9414
sS'AGTCTA'
p873
I8449
sS'AGTCTC'
p874
I7997
sS'AGTCTG'
p875
I19262
sS'TAACTC'
p876
I1853
sS'TAACTA'
p877
I3666
sS'TAACTG'
p878
I6416
sS'ATCTAT'
p879
I3590
sS'AGGTAT'
p880
I1340
sS'GGCGCT'
p881
I2102
sS'TAACTT'
p882
I654
sS'ATCTAG'
p883
I9608
sS'ATCTAC'
p884
I7811
sS'ATCTAA'
p885
I12628
sS'CATAGC'
p886
I9378
sS'CCATGT'
p887
I2938
sS'ACCAAA'
p888
I8832
sS'TGGAGG'
p889
I14679
sS'TGGAGA'
p890
I10611
sS'GGTCAA'
p891
I3816
sS'CCATGC'
p892
I3094
sS'CCATGA'
p893
I3680
sS'CCATGG'
p894
I4590
sS'TGGAGT'
p895
I4743
sS'ATTACG'
p896
I1095
sS'TCAGTA'
p897
I3333
sS'TCAGTC'
p898
I1313
sS'CTCTCT'
p899
I21890
sS'GGGGAT'
p900
I706
sS'TCAGTG'
p901
I6715
sS'CGATAT'
p902
I71
sS'CTCTCG'
p903
I8618
sS'GGGGAC'
p904
I2935
sS'CTCTCC'
p905
I37166
sS'TCAGTT'
p906
I762
sS'GGGGAG'
p907
I7038
sS'ATGCAG'
p908
I6735
sS'CGATAG'
p909
I196
sS'CGATAA'
p910
I199
sS'CGATAC'
p911
I187
sS'CTAAGG'
p912
I6772
sS'GTGTTT'
p913
I5692
sS'GCTACT'
p914
I2116
sS'GTGGTT'
p915
I1913
sS'GTGTTC'
p916
I7667
sS'GTGTTA'
p917
I11354
sS'GTGTTG'
p918
I17168
sS'CGTGCC'
p919
I2056
sS'GTGGTA'
p920
I5691
sS'GCTACA'
p921
I4116
sS'GTGGTC'
p922
I2829
sS'GCTACC'
p923
I2608
sS'GTGGTG'
p924
I12877
sS'GCTACG'
p925
I1223
sS'GCCCCT'
p926
I4026
sS'TTTCGT'
p927
I977
sS'GATCGT'
p928
I968
sS'TGCCCT'
p929
I4748
sS'AGCGTT'
p930
I921
sS'AGGTAA'
p931
I2930
sS'TGCCCC'
p932
I9131
sS'TTTCGC'
p933
I2043
sS'TGCCCG'
p934
I4196
sS'TTTCGG'
p935
I2367
sS'AGCGTA'
p936
I2194
sS'AGCGTC'
p937
I2785
sS'AGCGTG'
p938
I7453
sS'GGCCCC'
p939
I9264
sS'GGCCCA'
p940
I7681
sS'CACGTG'
p941
I12577
sS'GGCCCG'
p942
I5554
sS'CACGTA'
p943
I4245
sS'CACGTC'
p944
I3418
sS'CTACGC'
p945
I847
sS'CTACGT'
p946
I521
sS'CTACGA'
p947
I759
sS'GGGACT'
p948
I2345
sS'AAATGG'
p949
I7699
sS'CACGTT'
p950
I1122
sS'GTCTCC'
p951
I21675
sS'GNCCCA'
p952
I1
sS'GGCCCT'
p953
I3443
sS'GGGACA'
p954
I4587
sS'TTTTGG'
p955
I16151
sS'GGGACC'
p956
I4354
sS'AGGGAC'
p957
I4547
sS'TCGTGG'
p958
I1921
sS'GGGACG'
p959
I2708
sS'CTATAT'
p960
I1551
sS'TTTCCT'
p961
I6346
sS'AGAGAG'
p962
I6395
sS'AGAGAA'
p963
I6304
sS'AATTGC'
p964
I12250
sS'AGAGAC'
p965
I3625
sS'TCTATA'
p966
I5353
sS'GTCTTT'
p967
I10896
sS'TCTATC'
p968
I2235
sS'TCTATG'
p969
I8136
sS'AGAGAT'
p970
I1232
sS'TCGTGC'
p971
I1171
sS'GTCTTG'
p972
I30407
sS'TCTATT'
p973
I1542
sS'GTCTTC'
p974
I20469
sS'GTCTTA'
p975
I21396
sS'GCAGAG'
p976
I5546
sS'GCTCAA'
p977
I4914
sS'GCTCAC'
p978
I5813
sS'GCAGAC'
p979
I2157
sS'GCAGAA'
p980
I4936
sS'GCTCAG'
p981
I10091
sS'AGACGT'
p982
I394
sS'ATGCGT'
p983
I630
sS'TTGCTG'
p984
I24298
sS'TTGCTA'
p985
I11652
sS'TTGCTC'
p986
I10044
sS'GCAGAT'
p987
I1172
sS'GCTCAT'
p988
I1565
sS'CGAATT'
p989
I110
sS'GTTTGC'
p990
I12877
sS'TTGCTT'
p991
I4789
sS'ATGCGG'
p992
I1594
sS'TAGCCG'
p993
I1425
sS'ATGCGC'
p994
I1446
sS'ATGCGA'
p995
I892
sS'TGTAAG'
p996
I11025
sS'GGCTAG'
p997
I9178
sS'TGTAAC'
p998
I9072
sS'GGCTAC'
p999
I7871
sS'TGTAAA'
p1000
I14240
sS'GGCTAA'
p1001
I10320
sS'ACTGTA'
p1002
I8253
sS'TTGGTA'
p1003
I4679
sS'ACTGTC'
p1004
I2507
sS'TTGGTC'
p1005
I2225
sS'TTCGAC'
p1006
I1257
sS'ACTGTG'
p1007
I14791
sS'TTGGTG'
p1008
I8164
sS'GACTGC'
p1009
I26137
sS'GGCTAT'
p1010
I2885
sS'TGTAAT'
p1011
I4872
sS'GACTGG'
p1012
I30398
sS'TTCGAT'
p1013
I448
sS'TTGGTT'
p1014
I1217
sS'ACTGTT'
p1015
I1235
sS'GTTTCT'
p1016
I7404
sS'TTTTGT'
p1017
I10980
sS'CCTTTT'
p1018
I4070
sS'GTTTCG'
p1019
I2569
sS'GTTTCC'
p1020
I13911
sS'GTTTCA'
p1021
I13678
sS'ATAATG'
p1022
I6726
sS'CCTTTA'
p1023
I16255
sS'CCTTTC'
p1024
I12827
sS'ATAATC'
p1025
I1534
sS'NNNNGA'
p1026
I5
sS'ATAATA'
p1027
I6218
sS'CCTTTG'
p1028
I25768
sS'ACAGAA'
p1029
I4838
sS'ACAGAC'
p1030
I2200
sS'ACAGAG'
p1031
I4101
sS'TTATCT'
p1032
I3688
sS'CTGGAC'
p1033
I4353
sS'CTGGAA'
p1034
I7824
sS'CTGGAG'
p1035
I9346
sS'ATATAA'
p1036
I3617
sS'GTAAAT'
p1037
I1938
sS'GTCGAT'
p1038
I295
sS'TGGGGA'
p1039
I6668
sS'TTATCA'
p1040
I5454
sS'CTGGAT'
p1041
I1439
sS'TTATCC'
p1042
I4123
sS'CCAATG'
p1043
I4995
sS'GGCGAG'
p1044
I6352
sS'ATTTGT'
p1045
I5917
sS'CCAATC'
p1046
I1615
sS'AAACCC'
p1047
I2446
sS'CCAATA'
p1048
I2659
sS'TGTCGG'
p1049
I2664
sS'ATACGT'
p1050
I359
sS'CCCTAT'
p1051
I2290
sS'GAGATA'
p1052
I10291
sS'AACGAA'
p1053
I2542
sS'GAGATG'
p1054
I19941
sS'AACGAC'
p1055
I1985
sS'ATTTGA'
p1056
I12112
sS'CCAATT'
p1057
I555
sS'ATTTGC'
p1058
I10233
sS'TTGCCC'
p1059
I7057
sS'ATTTGG'
p1060
I11428
sS'CCCTAG'
p1061
I8432
sS'TGTCGT'
p1062
I924
sS'CCCTAC'
p1063
I7086
sS'GAGATT'
p1064
I1968
sS'CCCTAA'
p1065
I8295
sS'CATTAT'
p1066
I5236
sS'TGGATT'
p1067
I1133
sS'ATCACA'
p1068
I13870
sS'ATCACC'
p1069
I8226
sS'CATGCT'
p1070
I4377
sS'TGACAC'
p1071
I1352
sS'TGACAA'
p1072
I1324
sS'TGGATA'
p1073
I5098
sS'CATTAG'
p1074
I12749
sS'CATTAA'
p1075
I14554
sS'TGGATG'
p1076
I9518
sS'AGCATT'
p1077
I5549
sS'CATGCA'
p1078
I11043
sS'TGACAT'
p1079
I672
sS'CATGCC'
p1080
I7567
sS'ATCACT'
p1081
I6664
sS'CATGCG'
p1082
I2965
sS'GTAGAA'
p1083
I4480
sS'GTAGAC'
p1084
I1814
sS'GTAGAG'
p1085
I3744
sS'ACAACA'
p1086
I3761
sS'ACAACC'
p1087
I1941
sS'GATTGC'
p1088
I12843
sS'GATTGA'
p1089
I11117
sS'TAAATT'
p1090
I1338
sS'ACTAAG'
p1091
I6433
sS'GTAGAT'
p1092
I1159
sS'TTGCCT'
p1093
I5384
sS'TGATGC'
p1094
I3252
sS'GATTGT'
p1095
I7839
sS'TTCAGT'
p1096
I15857
sS'ACAACT'
p1097
I1267
sS'GTCGAA'
p1098
I1025
sS'TAATAG'
p1099
I3462
sS'GTCCGG'
p1100
I6041
sS'TAATAC'
p1101
I3466
sS'GTCCGA'
p1102
I2485
sS'TAATAA'
p1103
I4596
sS'GTCCGC'
p1104
I6010
sS'TGCCAT'
p1105
I3165
sS'ACTCTT'
p1106
I1461
sS'GTCCGT'
p1107
I1653
sS'TAATAT'
p1108
I1746
sS'ATTCGC'
p1109
I1124
sS'TTCTCC'
p1110
I32520
sS'ATTCGA'
p1111
I1142
sS'TTCTCA'
p1112
I36006
sS'ATTCGG'
p1113
I1389
sS'TTCTCG'
p1114
I6714
sS'GAGCTA'
p1115
I11112
sS'TCGTAC'
p1116
I294
sS'TACCTT'
p1117
I2937
sS'TCGTAA'
p1118
I453
sS'TCGTAG'
p1119
I496
sS'TCGTCA'
p1120
I1027
sS'GAACCT'
p1121
I1143
sS'ATCCAA'
p1122
I7101
sS'ATCCAC'
p1123
I6776
sS'TGAACC'
p1124
I2395
sS'TTCTCT'
p1125
I22891
sS'TGAACA'
p1126
I4715
sS'GAACCC'
p1127
I2150
sS'TTATAT'
p1128
I2132
sS'GAACCA'
p1129
I3281
sS'TACCTA'
p1130
I9388
sS'TACCTC'
p1131
I8486
sS'TCGTAT'
p1132
I187
sS'ATGTTA'
p1133
I12856
sS'ACCATA'
p1134
I8307
sS'ACCATG'
p1135
I15050
sS'ATGTTG'
p1136
I15025
sS'AGCTCT'
p1137
I13011
sS'TGTCCT'
p1138
I2763
sS'AGTGGT'
p1139
I3239
sS'CGTGGT'
p1140
I1395
sS'ATGAGC'
p1141
I6341
sS'ATGTTT'
p1142
I3870
sS'ACCATT'
p1143
I1975
sS'AACCTC'
p1144
I11693
sS'AGTGGA'
p1145
I8122
sS'AGTGGC'
p1146
I7255
sS'AGCTCC'
p1147
I23828
sS'AGCTCA'
p1148
I25368
sS'ATAGCC'
p1149
I2199
sS'CAGTAA'
p1150
I7438
sS'CAGTAC'
p1151
I4613
sS'CAGTAG'
p1152
I6164
sS'TTTCAC'
p1153
I9171
sS'CAGTAT'
p1154
I2465
sS'ATTAGT'
p1155
I3318
sS'AAAGTC'
p1156
I2187
sS'AAAGTG'
p1157
I8578
sS'GATCTA'
p1158
I8859
sS'GATCTC'
p1159
I8521
sS'ATTGAC'
p1160
I2802
sS'GATCTG'
p1161
I19738
sS'TGCCAA'
p1162
I10710
sS'CCGGCC'
p1163
I3415
sS'ATTAGG'
p1164
I5548
sS'GTTCCA'
p1165
I5137
sS'ACGCCA'
p1166
I853
sS'ATTAGC'
p1167
I4632
sS'TCCCTC'
p1168
I16180
sS'TGTCCG'
p1169
I1631
sS'TCCCTA'
p1170
I12261
sS'TGCCAC'
p1171
I10484
sS'TCCCTG'
p1172
I32112
sS'GATCTT'
p1173
I2947
sS'CTAGAC'
p1174
I2267
sS'AAGTGA'
p1175
I16606
sS'AAGTGC'
p1176
I10891
sS'TGTTCT'
p1177
I7695
sS'AAGTGG'
p1178
I14602
sS'TGATTG'
p1179
I5521
sS'TCTGAT'
p1180
I1567
sS'TGATTA'
p1181
I4820
sS'TGTTCA'
p1182
I14401
sS'CACAAG'
p1183
I18054
sS'TGTTCC'
p1184
I11447
sS'CACAAA'
p1185
I20365
sS'CACAAC'
p1186
I12869
sS'TGTTCG'
p1187
I2508
sS'TCTGAA'
p1188
I6086
sS'TCTGAC'
p1189
I6640
sS'GAAGTC'
p1190
I3208
sS'TCTGAG'
p1191
I10068
sS'CGCGCC'
p1192
I7905
sS'CGCGCA'
p1193
I4458
sS'GGTAAA'
p1194
I5147
sS'CGCGCG'
p1195
I6719
sS'CTCCCT'
p1196
I11254
sS'AGCGGG'
p1197
I8499
sS'AGCGGA'
p1198
I4215
sS'AGCGGC'
p1199
I7108
sS'GGTAAG'
p1200
I5222
sS'GACATT'
p1201
I5321
sS'CGCGCT'
p1202
I2115
sS'GTGCGA'
p1203
I1486
sS'CTCCCG'
p1204
I9981
sS'CTCCCA'
p1205
I20743
sS'CTCCCC'
p1206
I21270
sS'GCCTCT'
p1207
I11465
sS'TAAGCC'
p1208
I4036
sS'CGGGAG'
p1209
I3475
sS'CCCATG'
p1210
I15143
sS'CGGGAA'
p1211
I1590
sS'CCCATA'
p1212
I7668
sS'CGGGAC'
p1213
I1982
sS'CCCATC'
p1214
I6248
sS'CCGAGA'
p1215
I1445
sS'CCTGCT'
p1216
I3560
sS'CCGAAT'
p1217
I142
sS'CCCATT'
p1218
I2677
sS'CGGGAT'
p1219
I301
sS'GCCTCG'
p1220
I9711
sS'GCCTCA'
p1221
I19749
sS'TAAGCT'
p1222
I2241
sS'GCCTCC'
p1223
I28982
sS'CCGAAC'
p1224
I557
sS'CCTGCG'
p1225
I3589
sS'CCGAAA'
p1226
I465
sS'CCGAAG'
p1227
I1024
sS'CCTGCC'
p1228
I8375
sS'CCTGCA'
p1229
I7448
sS'CGACAC'
p1230
I253
sS'CAAGGT'
p1231
I2893
sS'CCATTC'
p1232
I2698
sS'CCATTA'
p1233
I4130
sS'CCATTG'
p1234
I5941
sS'TATAAC'
p1235
I8033
sS'TAACGA'
p1236
I604
sS'TATAAT'
p1237
I4865
sS'GTTCTA'
p1238
I7624
sS'CCATTT'
p1239
I1166
sS'TCTACA'
p1240
I4862
sS'TCTACC'
p1241
I3389
sS'TCTACG'
p1242
I1085
sS'CACCGT'
p1243
I2047
sS'CGCAAC'
p1244
I2452
sS'ACTCCA'
p1245
I4613
sS'CGCAAA'
p1246
I2554
sS'ATACCG'
p1247
I361
sS'GACGCG'
p1248
I4981
sS'ATACCA'
p1249
I2550
sS'ATACCC'
p1250
I1033
sS'TCTACT'
p1251
I2439
sS'CCGAGT'
p1252
I651
sS'ATACCT'
p1253
I978
sS'CGCAAT'
p1254
I828
sS'TAGTAA'
p1255
I7281
sS'TGGGTG'
p1256
I9114
sS'TAGTAC'
p1257
I3965
sS'CTCAAG'
p1258
I18056
sS'CTCAAA'
p1259
I17975
sS'TAGTAG'
p1260
I4944
sS'CTCAAC'
p1261
I12125
sS'GTGTGC'
p1262
I11650
sS'GTGTGA'
p1263
I12696
sS'GTGTGG'
p1264
I18370
sS'TAACGG'
p1265
I945
sS'CTCAAT'
p1266
I4632
sS'TAGTAT'
p1267
I2627
sS'GTTCTC'
p1268
I6324
sS'GTGTGT'
p1269
I15218
sS'ATCTTT'
p1270
I8226
sS'GTTGGG'
p1271
I8169
sS'GTTGGA'
p1272
I6393
sS'GTTGGC'
p1273
I5092
sS'CCTTGG'
p1274
I13510
sS'CCTTGA'
p1275
I9241
sS'GCGTAT'
p1276
I202
sS'CCTTGC'
p1277
I10160
sS'GGACGT'
p1278
I271
sS'GTTGGT'
p1279
I2539
sS'ATCTTG'
p1280
I29510
sS'ATCTTA'
p1281
I22554
sS'ATCTTC'
p1282
I16164
sS'CCTTGT'
p1283
I5360
sS'AGGATA'
p1284
I6241
sS'AGGATG'
p1285
I14470
sS'GACATG'
p1286
I21476
sS'GACATC'
p1287
I9827
sS'GACATA'
p1288
I14260
sS'TCGGCG'
p1289
I724
sS'GAATAT'
p1290
I1345
sS'GGTGCA'
p1291
I3486
sS'TCGGCC'
p1292
I1567
sS'TCGGCA'
p1293
I837
sS'TTGCGA'
p1294
I925
sS'TTGCGC'
p1295
I1572
sS'TTGCGG'
p1296
I1916
sS'GAATAG'
p1297
I3327
sS'TCGGCT'
p1298
I429
sS'ATCAGC'
p1299
I13815
sS'GAATAC'
p1300
I3187
sS'GAATAA'
p1301
I4672
sS'CACCGC'
p1302
I9013
sS'TGCAGA'
p1303
I23610
sS'ATACAA'
p1304
I2352
sS'GGACGA'
p1305
I523
sS'TGAGGT'
p1306
I2117
sS'TGCCTC'
p1307
I16715
sS'ACGTCG'
p1308
I504
sS'GGACGC'
p1309
I962
sS'GAAATG'
p1310
I17476
sS'AATGAT'
p1311
I3586
sS'TTTCTC'
p1312
I13045
sS'GAAATC'
p1313
I3240
sS'NNNCCA'
p1314
I1
sS'ACCGGT'
p1315
I394
sS'GAAATT'
p1316
I1144
sS'AATGAA'
p1317
I16623
sS'ATGTCC'
p1318
I5443
sS'AATGAC'
p1319
I13852
sS'AATGAG'
p1320
I18124
sS'TCAGCA'
p1321
I5909
sS'GCGTAC'
p1322
I487
sS'TGCACT'
p1323
I7019
sS'CTTGGC'
p1324
I9338
sS'GTCCTT'
p1325
I4175
sS'CTTGGG'
p1326
I11835
sS'CTTTTC'
p1327
I17829
sS'GCGTAA'
p1328
I465
sS'TTGAAT'
p1329
I2374
sS'GTCCTA'
p1330
I9945
sS'GTCCTC'
p1331
I11944
sS'TGCACG'
p1332
I4487
sS'CTTGGT'
p1333
I3799
sS'GTCCTG'
p1334
I26088
sS'TGCACC'
p1335
I8253
sS'TTGAAA'
p1336
I7082
sS'TTGAAC'
p1337
I4245
sS'AGCCCA'
p1338
I13903
sS'TTGAAG'
p1339
I6557
sS'TTAACT'
p1340
I3293
sS'ATAAAT'
p1341
I2154
sS'TGGTCG'
p1342
I1198
sS'TGGTCA'
p1343
I6721
sS'TGGTCC'
p1344
I4746
sS'ACGATT'
p1345
I109
sS'GAGACT'
p1346
I5759
sS'GATTCA'
p1347
I23831
sS'TGGTCT'
p1348
I3172
sS'ATAAAG'
p1349
I4987
sS'ATAAAA'
p1350
I6151
sS'TCAGCC'
p1351
I3870
sS'ATAAAC'
p1352
I5685
sS'GAGACG'
p1353
I4740
sS'ACGATG'
p1354
I1375
sS'CTACAG'
p1355
I2750
sS'GAGACC'
p1356
I8694
sS'ACGATC'
p1357
I210
sS'GAGACA'
p1358
I14467
sS'ACGATA'
p1359
I560
sS'GGTTAC'
p1360
I5062
sS'GTTTTA'
p1361
I23814
sS'GGTTAA'
p1362
I7012
sS'ACCACT'
p1363
I4393
sS'GGTTAG'
p1364
I5892
sS'CTTCCT'
p1365
I7760
sS'TAAACT'
p1366
I3256
sS'CCAACA'
p1367
I3526
sS'TCCGCT'
p1368
I1660
sS'CTTCCA'
p1369
I10140
sS'CTTCCC'
p1370
I12555
sS'ACCACC'
p1371
I7968
sS'CGTATG'
p1372
I1748
sS'ATGTGC'
p1373
I8103
sS'GGTTAT'
p1374
I1898
sS'TCCGCC'
p1375
I7527
sS'TCCGCA'
p1376
I2883
sS'TCCGCG'
p1377
I3165
sS'AACGTC'
p1378
I2491
sS'CGTGAG'
p1379
I3641
sS'CGTGAA'
p1380
I1627
sS'CGTGAC'
p1381
I3124
sS'GGTAGC'
p1382
I3837
sS'AGTGTG'
p1383
I17635
sS'TCTTCG'
p1384
I2739
sS'AGTGTA'
p1385
I8805
sS'TCTTCA'
p1386
I11927
sS'AGTGTC'
p1387
I3904
sS'TCTTCC'
p1388
I13730
sS'CGTGAT'
p1389
I561
sS'ACTCAA'
p1390
I6284
sS'TAAGTC'
p1391
I2114
sS'AACGTT'
p1392
I1107
sS'GCTCGC'
p1393
I4178
sS'TCTTCT'
p1394
I5986
sS'AGTGTT'
p1395
I1946
sS'AACCGG'
p1396
I4174
sS'GTGCGC'
p1397
I3576
sS'TTGGCA'
p1398
I7014
sS'AAAGGT'
p1399
I2150
sS'TTGGCC'
p1400
I6433
sS'AGTAAC'
p1401
I8958
sS'CTTATT'
p1402
I2666
sS'TTGGCG'
p1403
I1562
sS'GACTTC'
p1404
I24437
sS'TCGAGT'
p1405
I398
sS'GACTTA'
p1406
I23318
sS'GACTTG'
p1407
I34969
sS'ACGTAG'
p1408
I745
sS'AAAGGG'
p1409
I9984
sS'AAAGGA'
p1410
I12093
sS'TTGGCT'
p1411
I3490
sS'AAAGGC'
p1412
I7096
sS'AGTAAG'
p1413
I11512
sS'GACTTT'
p1414
I11343
sS'TTCTTT'
p1415
I24607
sS'CAAGAA'
p1416
I6667
sS'AGCGAG'
p1417
I6228
sS'CAAGAC'
p1418
I3237
sS'CAAGAG'
p1419
I5576
sS'CGTATT'
p1420
I358
sS'TTCTTG'
p1421
I53420
sS'TTCTTC'
p1422
I38254
sS'TTCTTA'
p1423
I46310
sS'CAAGAT'
p1424
I1387
sS'AGGGCT'
p1425
I2901
sS'TACGGG'
p1426
I2471
sS'TACGGA'
p1427
I1937
sS'TACGGC'
p1428
I2068
sS'CCAACT'
p1429
I1406
sS'TAGAGT'
p1430
I4369
sS'TACGGT'
p1431
I923
sS'GAGTAT'
p1432
I2844
sS'AGGGCG'
p1433
I3614
sS'AGGGCA'
p1434
I7219
sS'CCCGAC'
p1435
I2872
sS'TAGAGC'
p1436
I7832
sS'TAGAGA'
p1437
I11994
sS'TAGAGG'
p1438
I11631
sS'GGCGAA'
p1439
I2183
sS'GTGCTG'
p1440
I27835
sS'CGGGGT'
p1441
I935
sS'GTGCTA'
p1442
I8973
sS'ATCTGT'
p1443
I11403
sS'GTGCTC'
p1444
I8626
sS'GTGCGG'
p1445
I3981
sS'ATCTGA'
p1446
I19759
sS'GTGCTT'
p1447
I4420
sS'ATCTGC'
p1448
I19430
sS'TCGAGG'
p1449
I1573
sS'CGAATG'
p1450
I1176
sS'ATCTGG'
p1451
I21962
sS'ATCATA'
p1452
I12715
sS'GATAGC'
p1453
I6312
sS'AAGCAG'
p1454
I15034
sS'GATAGA'
p1455
I9372
sS'AAGCAA'
p1456
I11066
sS'GATAGG'
p1457
I8691
sS'AAGCAC'
p1458
I9177
sS'TTTACC'
p1459
I5290
sS'CATTTC'
p1460
I24948
sS'CTAGGT'
p1461
I2475
sS'CATTTA'
p1462
I34535
sS'ACGCAT'
p1463
I181
sS'CATTTG'
p1464
I39090
sS'GTTATA'
p1465
I6103
sS'CAAACA'
p1466
I8568
sS'AAGCAT'
p1467
I3498
sS'CAAACC'
p1468
I4418
sS'TTTACA'
p1469
I12667
sS'ATCATT'
p1470
I3410
sS'GATAGT'
p1471
I4251
sS'CTAGGG'
p1472
I5727
sS'GTTATT'
p1473
I2084
sS'TGGAGC'
p1474
I8809
sS'CTAGGC'
p1475
I3966
sS'CATTTT'
p1476
I8396
sS'CTAGGA'
p1477
I6661
sS'AAGTTT'
p1478
I2894
sS'TACAGT'
p1479
I14603
sS'GTGGCG'
p1480
I3536
sS'CTAAGA'
p1481
I7297
sS'CTAAGC'
p1482
I5078
sS'TACAGG'
p1483
I22669
sS'AAGTTG'
p1484
I14678
sS'AAGTTA'
p1485
I14104
sS'TACAGC'
p1486
I18717
sS'AAGTTC'
p1487
I6777
sS'TACAGA'
p1488
I24051
sS'GGGGCC'
p1489
I6162
sS'GTATGA'
p1490
I5958
sS'GGGGCA'
p1491
I4430
sS'GGGGCG'
p1492
I5307
sS'ACAGTG'
p1493
I6063
sS'AGCGGT'
p1494
I1382
sS'TATATA'
p1495
I17542
sS'CTTTTA'
p1496
I28258
sS'ACATCG'
p1497
I595
sS'TCCGGT'
p1498
I1369
sS'GCCCAT'
p1499
I1800
sS'TATATT'
p1500
I3670
sS'TGATGG'
p1501
I3722
sS'CATATG'
p1502
I14023
sS'ATGAGT'
p1503
I5304
sS'GCCCAC'
p1504
I9599
sS'TGATGA'
p1505
I4820
sS'AGCATG'
p1506
I25561
sS'TGTTTA'
p1507
I41366
sS'CACATC'
p1508
I11368
sS'TGTTTC'
p1509
I19584
sS'CACATA'
p1510
I21026
sS'TTAATT'
p1511
I1609
sS'CACATG'
p1512
I29954
sS'TGTTTG'
p1513
I38980
sS'ATGAGA'
p1514
I8661
sS'TGATGT'
p1515
I2783
sS'ATGAGG'
p1516
I9685
sS'TTAATA'
p1517
I7587
sS'ACTCTG'
p1518
I14976
sS'TTTCAA'
p1519
I11933
sS'ACTCTA'
p1520
I6160
sS'TTTCAG'
p1521
I13780
sS'ACTCTC'
p1522
I4170
sS'TTAATG'
p1523
I8603
sS'AAATTC'
p1524
I3268
sS'CCCGGT'
p1525
I1055
sS'AAATTA'
p1526
I7124
sS'AAATTG'
p1527
I6907
sS'CCAGTA'
p1528
I2562
sS'GTATTT'
p1529
I2819
sS'TTAATC'
p1530
I2158
sS'AAATTT'
p1531
I781
sS'TTCGAA'
p1532
I1476
sS'CTTAGT'
p1533
I5412
sS'CGTCTA'
p1534
I1869
sS'GGGAAC'
p1535
I5130
sS'GGTGCG'
p1536
I1856
sS'GGGAAA'
p1537
I6995
sS'GGGAAG'
p1538
I12388
sS'GGTGCC'
p1539
I2911
sS'TCGTCC'
p1540
I1200
sS'AGGTCC'
p1541
I4823
sS'AGAGCG'
p1542
I1843
sS'GCGACT'
p1543
I315
sS'AGCGAT'
p1544
I741
sS'AGAGCC'
p1545
I4767
sS'AGAGCA'
p1546
I6479
sS'GCGTAG'
p1547
I801
sS'GGTGCT'
p1548
I1499
sS'CTTGTG'
p1549
I15335
sS'TAATTT'
p1550
I1389
sS'GGGAAT'
p1551
I1911
sS'GCGACG'
p1552
I783
sS'AGAGCT'
p1553
I2658
sS'GCGACA'
p1554
I706
sS'TATCGG'
p1555
I1224
sS'GCGACC'
p1556
I1055
sS'AGGTCG'
p1557
I1488
sS'GCAGGA'
p1558
I8595
sS'GCAGGC'
p1559
I4635
sS'GCAGGG'
p1560
I8664
sS'GTTACG'
p1561
I1473
sS'GCACTA'
p1562
I1484
sS'CCGTGC'
p1563
I1915
sS'GCTCGG'
p1564
I5359
sS'TATTCT'
p1565
I8917
sS'CCGTGG'
p1566
I2845
sS'ACTTAC'
p1567
I4409
sS'CTTTAG'
p1568
I10990
sS'GCAGGT'
p1569
I2273
sS'TCTTGA'
p1570
I9784
sS'ACGTCT'
p1571
I612
sS'TATTCC'
p1572
I11774
sS'CAATTG'
p1573
I4194
sS'TATTCA'
p1574
I20389
sS'CCGTGT'
p1575
I955
sS'TATTCG'
p1576
I2338
sS'GGCGAC'
p1577
I3089
sS'TGTAGA'
p1578
I9055
sS'GGCTCA'
p1579
I17021
sS'TGTAGC'
p1580
I7819
sS'ACCCTC'
p1581
I6022
sS'TTTACG'
p1582
I1736
sS'TGTAGG'
p1583
I8916
sS'GGCTCG'
p1584
I6866
sS'TTCGGA'
p1585
I2030
sS'TTCGGC'
p1586
I2703
sS'AAATAG'
p1587
I4262
sS'TTCAAG'
p1588
I20120
sS'TTCGGG'
p1589
I3724
sS'AACTTA'
p1590
I24686
sS'GGCTCT'
p1591
I8813
sS'TGTAGT'
p1592
I5892
sS'TTTACT'
p1593
I5734
sS'AGCATA'
p1594
I14231
sS'AACCTT'
p1595
I3801
sS'ATTGTA'
p1596
I6213
sS'TTCGGT'
p1597
I939
sS'GAGCAT'
p1598
I2815
sS'GTTTAT'
p1599
I6402
sS'GTCTAG'
p1600
I10106
sS'GCACTC'
p1601
I933
sS'GCCTTT'
p1602
I8499
sS'GTTTAA'
p1603
I12610
sS'TCCAGG'
p1604
I26624
sS'CACGAA'
p1605
I2304
sS'CAATCT'
p1606
I1125
sS'GTTTAG'
p1607
I9285
sS'TCCAGA'
p1608
I19747
sS'CTGGCT'
p1609
I6162
sS'AGGCGG'
p1610
I8802
sS'AGGCGA'
p1611
I2460
sS'AGGCGC'
p1612
I4974
sS'AGGAGT'
p1613
I5089
sS'ACAGCC'
p1614
I3607
sS'GATAAA'
p1615
I15400
sS'ACAGCA'
p1616
I6454
sS'GAGGTC'
p1617
I4898
sS'ACAGCG'
p1618
I1374
sS'AGGAGC'
p1619
I11744
sS'AGGCGT'
p1620
I1285
sS'AGGAGA'
p1621
I13955
sS'CTGGCG'
p1622
I3579
sS'AGGAGG'
p1623
I26151
sS'CTGGCA'
p1624
I10664
sS'GTCGGG'
p1625
I5044
sS'GCGCCC'
p1626
I2620
sS'ACAGCT'
p1627
I2734
sS'GCTCTC'
p1628
I6023
sS'AACGCT'
p1629
I1676
sS'AATTTT'
p1630
I3939
sS'TGTCAA'
p1631
I6357
sS'TGTCAC'
p1632
I7977
sS'CCCTCT'
p1633
I9184
sS'GGAAAC'
p1634
I4213
sS'TGTCAG'
p1635
I11849
sS'ATTGGG'
p1636
I4226
sS'AATTTA'
p1637
I24766
sS'AATTTC'
p1638
I12451
sS'ATTGGC'
p1639
I5337
sS'AACGCA'
p1640
I3321
sS'AATTTG'
p1641
I25937
sS'CCCTCA'
p1642
I15311
sS'ATTTAA'
p1643
I12255
sS'TGTCAT'
p1644
I3548
sS'CCCTCG'
p1645
I6883
sS'TCCAGT'
p1646
I9400
sS'CACGAT'
p1647
I743
sS'GGCGTT'
p1648
I661
sS'ATTTTT'
p1649
I3247
sS'TGACCA'
p1650
I1626
sS'CATTCT'
p1651
I11522
sS'TAAATC'
p1652
I2727
sS'TGACCG'
p1653
I356
sS'ATGGTT'
p1654
I793
sS'TAGCGT'
p1655
I733
sS'ACCACG'
p1656
I4051
sS'CATTCG'
p1657
I3616
sS'CATTCC'
p1658
I23203
sS'CATTCA'
p1659
I22184
sS'TCCATA'
p1660
I11364
sS'GCAATT'
p1661
I630
sS'GCCTTC'
p1662
I20375
sS'ACAAAT'
p1663
I1227
sS'GATTAA'
p1664
I13893
sS'GTAGGC'
p1665
I2827
sS'GATTAC'
p1666
I14016
sS'GTAGGA'
p1667
I5459
sS'GTAGGG'
p1668
I4985
sS'GATTAG'
p1669
I10869
sS'GCGGGT'
p1670
I753
sS'ACAAAC'
p1671
I2983
sS'ACAAAA'
p1672
I3716
sS'ACAAAG'
p1673
I4030
sS'GCGGGC'
p1674
I3394
sS'GTCGGT'
p1675
I899
sS'GCGGGA'
p1676
I3527
sS'GCGGGG'
p1677
I9420
sS'GATTAT'
p1678
I4946
sS'GTAGGT'
p1679
I2224
sS'CGAAGT'
p1680
I555
sS'AACCTG'
p1681
I18461
sS'TAATGA'
p1682
I7079
sS'GATGTT'
p1683
I3321
sS'TAATGC'
p1684
I5504
sS'GGAGAT'
p1685
I870
sS'GCCCTT'
p1686
I3201
sS'CAATAA'
p1687
I2492
sS'GCCCTC'
p1688
I11527
sS'GATGTG'
p1689
I23047
sS'GCCCTA'
p1690
I8219
sS'GATGTA'
p1691
I12020
sS'GCCCTG'
p1692
I30235
sS'GATGTC'
p1693
I6568
sS'CAATAG'
p1694
I1969
sS'TGAAAT'
p1695
I1977
sS'TTCTAG'
p1696
I20158
sS'TTCTAA'
p1697
I27420
sS'ATCCGT'
p1698
I930
sS'TTCTAC'
p1699
I15359
sS'GAATGT'
p1700
I6085
sS'TGAAAC'
p1701
I4190
sS'TGAAAG'
p1702
I5267
sS'TTCTAT'
p1703
I8528
sS'ATCCGC'
p1704
I2918
sS'AGTAAT'
p1705
I4129
sS'ATCCGA'
p1706
I1713
sS'ATCCGG'
p1707
I3308
sS'TGGCTC'
p1708
I7407
sS'TGGCTA'
p1709
I7283
sS'TGGCTG'
p1710
I21759
sS'GTCGGA'
p1711
I2076
sS'AGTTGT'
p1712
I6528
sS'AGCTAT'
p1713
I5886
sS'GTCGGC'
p1714
I3464
sS'CGTCGA'
p1715
I791
sS'TGGCTT'
p1716
I2531
sS'AGTTGG'
p1717
I12113
sS'AGCTAA'
p1718
I17088
sS'AGCTAC'
p1719
I12385
sS'AGTTGC'
p1720
I10876
sS'AGTTGA'
p1721
I11650
sS'AGCTAG'
p1722
I13241
sS'CGTTGA'
p1723
I2355
sS'CTAATT'
p1724
I1351
sS'CAGTGT'
p1725
I8399
sS'TAACAA'
p1726
I3147
sS'TCAGGT'
p1727
I1326
sS'TCAAGG'
p1728
I4611
sS'CTGGCC'
p1729
I11865
sS'TCAAGC'
p1730
I2810
sS'CATGGA'
p1731
I9410
sS'CTAATA'
p1732
I5682
sS'CAGTGC'
p1733
I12720
sS'GCACCC'
p1734
I1387
sS'CAGTGA'
p1735
I17192
sS'CAGTGG'
p1736
I17219
sS'CTAATG'
p1737
I7812
sS'TCAAGT'
p1738
I2115
sS'GCACAT'
p1739
I641
sS'TCAGGA'
p1740
I5548
sS'TCAGGC'
p1741
I2883
sS'CGAGCT'
p1742
I623
sS'TCCTAA'
p1743
I13506
sS'CAACCA'
p1744
I2681
sS'TAACAG'
p1745
I3545
sS'TTCCCT'
p1746
I9663
sS'CGAGCG'
p1747
I990
sS'CGAGCA'
p1748
I1269
sS'GAGCCG'
p1749
I6767
sS'CGAGCC'
p1750
I1571
sS'TTCCCA'
p1751
I20654
sS'TTCCCC'
p1752
I16641
sS'GTTCAC'
p1753
I5187
sS'GTTCAA'
p1754
I5861
sS'TGAGCA'
p1755
I5325
sS'GGACCT'
p1756
I591
sS'CTTACT'
p1757
I5179
sS'TACATG'
p1758
I22262
sS'AAGTAC'
p1759
I5850
sS'CACACT'
p1760
I10225
sS'TACATC'
p1761
I8915
sS'AAGTAG'
p1762
I6934
sS'TACATA'
p1763
I21613
sS'CATGGT'
p1764
I3743
sS'GGACCG'
p1765
I471
sS'ATTGGT'
p1766
I2083
sS'GGACCA'
p1767
I1160
sS'TCATCA'
p1768
I4800
sS'GGACCC'
p1769
I869
sS'CACACG'
p1770
I7205
sS'TACATT'
p1771
I7402
sS'CACACC'
p1772
I13338
sS'CTGCAT'
p1773
I3118
sS'CACACA'
p1774
I42113
sS'ACGGTC'
p1775
I324
sS'TCTGCC'
p1776
I6409
sS'TCTGCA'
p1777
I8139
sS'TCTGCG'
p1778
I2631
sS'TTTCGA'
p1779
I1615
sS'ATTGCC'
p1780
I2693
sS'CCCGTC'
p1781
I2341
sS'TTAAGG'
p1782
I6933
sS'CCCGTA'
p1783
I1912
sS'TTAAGA'
p1784
I8619
sS'CCCGTG'
p1785
I5936
sS'TTAAGC'
p1786
I4912
sS'ACGCAC'
p1787
I810
sS'TAGATC'
p1788
I2310
sS'AAACAG'
p1789
I6679
sS'TAGATA'
p1790
I7158
sS'TGCCCA'
p1791
I10299
sS'TAGATG'
p1792
I10468
sS'TCTGCT'
p1793
I3139
sS'TTACGC'
p1794
I590
sS'TTAAGT'
p1795
I4648
sS'TTACGA'
p1796
I635
sS'TTACGG'
p1797
I751
sS'CCCGTT'
p1798
I485
sS'AGTGAC'
p1799
I10284
sS'AGTGAA'
p1800
I9265
sS'AGTGAG'
p1801
I14565
sS'ACATTT'
p1802
I1449
sS'CGGGCG'
p1803
I2512
sS'AAACAC'
p1804
I5247
sS'TAAGAG'
p1805
I5126
sS'CGGGCC'
p1806
I3872
sS'TAAGAA'
p1807
I5980
sS'CGGGCA'
p1808
I2313
sS'TAAGAC'
p1809
I3380
sS'AAACAA'
p1810
I6541
sS'AGTGAT'
p1811
I2625
sS'TAAGAT'
p1812
I1266
sS'CCTGAA'
p1813
I4564
sS'CCTGAC'
p1814
I5446
sS'CCTGAG'
p1815
I8193
sS'GTTAGG'
p1816
I7168
sS'ACCCCA'
p1817
I5410
sS'TATACT'
p1818
I4763
sS'GTTAGC'
p1819
I5054
sS'GTTAGA'
p1820
I7061
sS'GCCAAA'
p1821
I10082
sS'TGAATT'
p1822
I902
sS'TATACG'
p1823
I1427
sS'GTTAGT'
p1824
I3882
sS'TATACC'
p1825
I4194
sS'TATACA'
p1826
I11514
sS'AACGCC'
p1827
I3452
sS'CAATTA'
p1828
I3918
sS'TCCACG'
p1829
I4706
sS'GTAATG'
p1830
I7642
sS'TTTATT'
p1831
I4457
sS'GTAATA'
p1832
I5615
sS'ATTGGA'
p1833
I4791
sS'GTAATC'
p1834
I2022
sS'GTACAG'
p1835
I2119
sS'TCTAAC'
p1836
I4350
sS'CGTTCT'
p1837
I1596
sS'CCACCG'
p1838
I1180
sS'GGTAGG'
p1839
I6335
sS'CCACCA'
p1840
I3400
sS'CCACCC'
p1841
I2892
sS'GTTCGT'
p1842
I754
sS'TTTATG'
p1843
I16565
sS'GTAATT'
p1844
I1320
sS'TTTATC'
p1845
I5452
sS'ACTAGC'
p1846
I3181
sS'TTTATA'
p1847
I17076
sS'ACTAGA'
p1848
I4973
sS'CCACCT'
p1849
I2076
sS'CGTTCG'
p1850
I1196
sS'ACTTGT'
p1851
I3311
sS'CGTTCA'
p1852
I2573
sS'CGTTCC'
p1853
I3577
sS'TCTAAT'
p1854
I1823
sS'TCGTCT'
p1855
I468
sS'CTTTGT'
p1856
I12221
sS'CCCTCC'
p1857
I29032
sS'ACTGGA'
p1858
I5696
sS'ACTGGC'
p1859
I4621
sS'TAGTCC'
p1860
I5838
sS'GTGACC'
p1861
I5964
sS'TAGTCA'
p1862
I14347
sS'GTGACA'
p1863
I6715
sS'TAGTCG'
p1864
I1184
sS'GTGACG'
p1865
I3323
sS'ATTTAG'
p1866
I7674
sS'ACTGGT'
p1867
I1482
sS'CTTTGG'
p1868
I21804
sS'AACGTG'
p1869
I7218
sS'CTTTGA'
p1870
I19115
sS'GTGACT'
p1871
I6420
sS'TAGTCT'
p1872
I4115
sS'GTGCAC'
p1873
I5300
sS'CGACGG'
p1874
I459
sS'ACCTAG'
p1875
I5859
sS'CGACGA'
p1876
I212
sS'ACCTAA'
p1877
I7152
sS'CGACGC'
p1878
I496
sS'ACCTAC'
p1879
I5075
sS'CCGCAG'
p1880
I1502
sS'CCGCAA'
p1881
I450
sS'CCGCAC'
p1882
I815
sS'CTACGG'
p1883
I1051
sS'ACCTAT'
p1884
I1443
sS'GCGCTG'
p1885
I4925
sS'CGAAGA'
p1886
I1213
sS'CCCCGT'
p1887
I1459
sS'CGAAGG'
p1888
I2061
sS'GCGCTC'
p1889
I1523
sS'GTGCAT'
p1890
I2194
sS'GCGCTA'
p1891
I1052
sS'CCGCAT'
p1892
I157
sS'ATTACC'
p1893
I2956
sS'GAAGAT'
p1894
I1547
sS'GGATCT'
p1895
I693
sS'CTTCCG'
p1896
I3831
sS'TCGTTT'
p1897
I359
sS'TCGGAC'
p1898
I420
sS'GAATCT'
p1899
I2380
sS'CCTATA'
p1900
I3262
sS'TCGGAG'
p1901
I929
sS'GGATCG'
p1902
I397
sS'GAAGAG'
p1903
I10378
sS'GAAGAA'
p1904
I9752
sS'GGATCC'
p1905
I1638
sS'GAAGAC'
p1906
I5586
sS'GGATCA'
p1907
I1419
sS'GAATCA'
p1908
I8820
sS'GAATCC'
p1909
I4800
sS'TCGGAT'
p1910
I86
sS'GAATCG'
p1911
I1168
sS'ATGGTC'
p1912
I1364
sS'CAGATG'
p1913
I17336
sS'ATGGTA'
p1914
I4232
sS'TGACCC'
p1915
I1099
sS'CTATCA'
p1916
I4535
sS'CAGATC'
p1917
I3015
sS'CTATCC'
p1918
I3866
sS'CAGATA'
p1919
I7617
sS'CTCGAG'
p1920
I3331
sS'CAGATT'
p1921
I1313
sS'CTCGAC'
p1922
I1906
sS'CTCGAA'
p1923
I1683
sS'TCGCAA'
p1924
I288
sS'TGCGTC'
p1925
I2789
sS'AATGGT'
p1926
I3515
sS'ATGATA'
p1927
I5511
sS'ACGTGT'
p1928
I949
sS'TGCGTG'
p1929
I8106
sS'AATGGA'
p1930
I11908
sS'AATGGG'
p1931
I10959
sS'CAATAC'
p1932
I1571
sS'CCCCGA'
p1933
I3665
sS'CAACTC'
p1934
I1327
sS'AACGCG'
p1935
I2081
sS'CAACTA'
p1936
I2283
sS'GAGATC'
p1937
I4207
sS'ATTTAC'
p1938
I6974
sS'CGTTAG'
p1939
I2024
sS'TTGACC'
p1940
I3656
sS'GGAGGG'
p1941
I9996
sS'AAAAGT'
p1942
I3590
sS'AGCCAC'
p1943
I18620
sS'GGAGGC'
p1944
I5356
sS'TGGTAG'
p1945
I3509
sS'CGCCAT'
p1946
I1273
sS'GAGTGT'
p1947
I8203
sS'TGGTAC'
p1948
I2227
sS'GAGGTA'
p1949
I7282
sS'TGGTAA'
p1950
I3871
sS'AAAAGG'
p1951
I13139
sS'GGAGGT'
p1952
I2175
sS'AGCCAT'
p1953
I4438
sS'AAAAGC'
p1954
I9358
sS'AAAAGA'
p1955
I13606
sS'TTGACT'
p1956
I3202
sS'GAGTGG'
p1957
I19382
sS'CGCCAG'
p1958
I6666
sS'TGGTAT'
p1959
I1880
sS'CGCCAA'
p1960
I2881
sS'GAGTGC'
p1961
I12308
sS'CGCCAC'
p1962
I5711
sS'GAGTGA'
p1963
I18273
sS'GCCAGG'
p1964
I27613
sS'GCCAGA'
p1965
I16644
sS'GCCAGC'
p1966
I20153
sS'GCCCGT'
p1967
I1669
sS'TACCGA'
p1968
I1828
sS'TACCGC'
p1969
I2934
sS'TACCGG'
p1970
I2508
sS'GCCCGC'
p1971
I13563
sS'GCCAGT'
p1972
I6943
sS'GCCCGA'
p1973
I4365
sS'GCCCGG'
p1974
I14290
sS'TGCGAT'
p1975
I532
sS'CTTCAC'
p1976
I7839
sS'CTTCAA'
p1977
I8496
sS'CTTCAG'
p1978
I12569
sS'TCCGAG'
p1979
I3352
sS'TCCGAA'
p1980
I1367
sS'TCCGAC'
p1981
I1799
sS'AATTCA'
p1982
I16186
sS'AATTCC'
p1983
I14538
sS'AATTCG'
p1984
I2225
sS'TCCGAT'
p1985
I346
sS'GGACAA'
p1986
I923
sS'NNNGAT'
p1987
I1
sS'TAGCGG'
p1988
I2067
sS'TAGCGA'
p1989
I1241
sS'TAGCGC'
p1990
I1826
sS'GTCATC'
p1991
I11308
sS'GTCATA'
p1992
I15408
sS'GTCATG'
p1993
I23420
sS'AGCAGG'
p1994
I33444
sS'CCAGGT'
p1995
I2519
sS'TTGGAA'
p1996
I5029
sS'AGCAGC'
p1997
I34586
sS'AGCAGA'
p1998
I27920
sS'GGATGC'
p1999
I2304
sS'CCAGGG'
p2000
I8013
sS'AGCAGT'
p2001
I13488
sS'CCAGGA'
p2002
I8874
sS'CCAGGC'
p2003
I5931
sS'AGCGCT'
p2004
I2263
sS'ATAGAG'
p2005
I2851
sS'CATCTG'
p2006
I32308
sS'GATCGG'
p2007
I2539
sS'CATCTA'
p2008
I12671
sS'GATCGA'
p2009
I1497
sS'CATCTC'
p2010
I12302
sS'ATAGAA'
p2011
I4635
sS'GGGGTC'
p2012
I989
sS'CAAGCC'
p2013
I5174
sS'CATCTT'
p2014
I3964
sS'CAAGCA'
p2015
I7830
sS'CAAGCG'
p2016
I1794
sS'TATATG'
p2017
I14134
sS'GTTCTT'
p2018
I2045
sS'ACATGA'
p2019
I3874
sS'CGTAAT'
p2020
I561
sS'ACATGC'
p2021
I3322
sS'ACATGG'
p2022
I4196
sS'AGGGAT'
p2023
I1238
sS'GTACAT'
p2024
I760
sS'GGCCAT'
p2025
I1913
sS'CGTAAG'
p2026
I1861
sS'GTTCTG'
p2027
I16952
sS'ACATGT'
p2028
I2344
sS'CGTAAC'
p2029
I1387
sS'CGTAAA'
p2030
I1555
sS'CCCGCG'
p2031
I5346
sS'ACGGAA'
p2032
I720
sS'CCCGCC'
p2033
I17644
sS'AGGGAA'
p2034
I6381
sS'AAACTA'
p2035
I4763
sS'AGCGCA'
p2036
I4092
sS'GTTGTT'
p2037
I1565
sS'ATCCTT'
p2038
I3350
sS'TTGTCG'
p2039
I1236
sS'TTGTCC'
p2040
I6836
sS'CCGTGA'
p2041
I1524
sS'TTGTCA'
p2042
I8145
sS'ATCCTC'
p2043
I9192
sS'GTTGTA'
p2044
I6310
sS'ATCCTA'
p2045
I10285
sS'GTTGTC'
p2046
I2582
sS'ATCCTG'
p2047
I22035
sS'GTTGTG'
p2048
I10856
sS'TTGTCT'
p2049
I5317
sS'ACCTCA'
p2050
I13550
sS'TGACTA'
p2051
I3445
sS'TGGGCC'
p2052
I5219
sS'TGACTC'
p2053
I2718
sS'TGGGCA'
p2054
I5355
sS'TGGGCG'
p2055
I2549
sS'TGACTG'
p2056
I4605
sS'AAGCCG'
p2057
I3062
sS'AAGCCC'
p2058
I8263
sS'AAGCCA'
p2059
I10978
sS'CAAAAT'
p2060
I1526
sS'ACGCGG'
p2061
I1280
sS'TGGGCT'
p2062
I2309
sS'CAAAAC'
p2063
I5088
sS'CAAAAA'
p2064
I4354
sS'AAGCCT'
p2065
I4134
sS'CAAAAG'
p2066
I5610
sS'TGATTT'
p2067
I937
sS'TCAATG'
p2068
I4513
sS'AAACTT'
p2069
I706
sS'TCAATC'
p2070
I913
sS'TCAATA'
p2071
I3007
sS'CAGTTC'
p2072
I7629
sS'GACCCG'
p2073
I5402
sS'CAGTTG'
p2074
I14727
sS'GACCCC'
p2075
I8087
sS'CTCTGT'
p2076
I24000
sS'TCAATT'
p2077
I590
sS'TGGCGT'
p2078
I814
sS'CTCTGC'
p2079
I47831
sS'GACCCT'
p2080
I4078
sS'CTCTGA'
p2081
I38951
sS'CTCTGG'
p2082
I45086
sS'CAGTTT'
p2083
I2981
sS'GCGAAG'
p2084
I1333
sS'ACGTTC'
p2085
I942
sS'TGCTGG'
p2086
I39665
sS'CGAGGT'
p2087
I667
sS'TGCTGA'
p2088
I32823
sS'GAGTCT'
p2089
I6786
sS'TGCTGC'
p2090
I36275
sS'AGCTGC'
p2091
I38783
sS'GCTGGT'
p2092
I2784
sS'GTGATT'
p2093
I1958
sS'CTACTA'
p2094
I3061
sS'TGCTGT'
p2095
I19504
sS'TAGGGC'
p2096
I4937
sS'TAATGG'
p2097
I5904
sS'TCGCTA'
p2098
I749
sS'GTGATG'
p2099
I13175
sS'GCTGGG'
p2100
I17940
sS'GTGATC'
p2101
I2409
sS'GCTGGC'
p2102
I8165
sS'GTGATA'
p2103
I5382
sS'GCTGGA'
p2104
I9839
sS'TGATAA'
p2105
I1996
sS'TGATAC'
p2106
I1346
sS'TGATAG'
p2107
I1439
sS'CTTGTT'
p2108
I2226
sS'GACGGT'
p2109
I1877
sS'GCTAGG'
p2110
I6040
sS'GCTAGA'
p2111
I4863
sS'ATGAAT'
p2112
I2699
sS'GCTAGC'
p2113
I3633
sS'ATAGGG'
p2114
I3036
sS'TGATAT'
p2115
I854
sS'GAGGTT'
p2116
I1768
sS'GCTAGT'
p2117
I1996
sS'ATGAAC'
p2118
I4118
sS'GACGGG'
p2119
I8329
sS'ATGAAA'
p2120
I6982
sS'GACGGA'
p2121
I4721
sS'ATGAAG'
p2122
I6871
sS'GACGGC'
p2123
I6396
sS'CTTGTC'
p2124
I4004
sS'TGTGCA'
p2125
I8600
sS'CTAACT'
p2126
I2707
sS'CCCGCT'
p2127
I1904
sS'GNCCGC'
p2128
I1
sS'CAACGT'
p2129
I376
sS'GGTGAA'
p2130
I4492
sS'GGTGAC'
p2131
I6348
sS'GCGTCT'
p2132
I857
sS'GACTGT'
p2133
I16711
sS'GGTGAG'
p2134
I8844
sS'GGAATG'
p2135
I9081
sS'AGCCCT'
p2136
I6303
sS'GGAATC'
p2137
I1407
sS'GGAATA'
p2138
I2841
sS'GCGTCA'
p2139
I1977
sS'GCGTCC'
p2140
I2562
sS'GGTGAT'
p2141
I1302
sS'GCGTCG'
p2142
I900
sS'CAAACT'
p2143
I2351
sS'CGTCCG'
p2144
I1404
sS'GGAATT'
p2145
I759
sS'CGTCCC'
p2146
I2764
sS'CGTCCA'
p2147
I1682
sS'CCGTAT'
p2148
I194
sS'GCCGTG'
p2149
I7486
sS'GAAGTA'
p2150
I6008
sS'GAAGTG'
p2151
I12309
sS'GCCGTA'
p2152
I2028
sS'CCGTAC'
p2153
I431
sS'CCGTAA'
p2154
I400
sS'CCGTAG'
p2155
I622
sS'CAAAGT'
p2156
I3412
sS'GCCGTT'
p2157
I605
sS'GAAGTT'
p2158
I1087
sS'GGCGCG'
p2159
I6232
sS'ATGCCC'
p2160
I4424
sS'TTAGTT'
p2161
I1084
sS'TATTAG'
p2162
I12117
sS'GGCGCC'
p2163
I7096
sS'ATGCCG'
p2164
I1590
sS'GGCGCA'
p2165
I4166
sS'TATTAC'
p2166
I12454
sS'ACTATG'
p2167
I6801
sS'CAACGG'
p2168
I868
sS'TTTAAG'
p2169
I14054
sS'ACTATC'
p2170
I1505
sS'TTTAAA'
p2171
I25002
sS'ACTATA'
p2172
I4331
sS'TTTAAC'
p2173
I9593
sS'TATTAT'
p2174
I7394
sS'TTAGTG'
p2175
I5755
sS'GACTGA'
p2176
I27880
sS'TTAGTC'
p2177
I2192
sS'ATGCCT'
p2178
I3838
sS'TTAGTA'
p2179
I4406
sS'TTTAAT'
p2180
I4597
sS'GCACTG'
p2181
I4480
sS'GGGCAT'
p2182
I833
sS'TTTCCG'
p2183
I2205
sS'TTTCCA'
p2184
I10256
sS'TTTCCC'
p2185
I9481
sS'GTACGT'
p2186
I394
sS'GTTTGT'
p2187
I8883
sS'GTAACG'
p2188
I1005
sS'GGGCAG'
p2189
I7288
sS'CCTGGA'
p2190
I8229
sS'GGGCAA'
p2191
I2625
sS'GGGCAC'
p2192
I3237
sS'GTACGG'
p2193
I681
sS'GTTTGA'
p2194
I13204
sS'GTTTGG'
p2195
I15575
sS'GTACGA'
p2196
I482
sS'CCGCTC'
p2197
I1230
sS'GCATGT'
p2198
I2620
sS'CCGCTA'
p2199
I949
sS'CCGCTG'
p2200
I3642
sS'TGAAAA'
p2201
I4317
sS'GCGCGG'
p2202
I3872
sS'GCGCGC'
p2203
I3519
sS'GCGCGA'
p2204
I1158
sS'GCATGG'
p2205
I3929
sS'TGGATC'
p2206
I1816
sS'GCATGC'
p2207
I3747
sS'CCGCTT'
p2208
I278
sS'GCATGA'
p2209
I3848
sS'GTCGAC'
p2210
I1161
sS'GCGCGT'
p2211
I433
sS'GTCGAG'
p2212
I1944
sS'AGACAT'
p2213
I867
sS'ACCGAG'
p2214
I2380
sS'TGCGCT'
p2215
I1553
sS'GAGCTC'
p2216
I10967
sS'ATTGAT'
p2217
I800
sS'GAGCTG'
p2218
I34089
sS'AAACGA'
p2219
I1222
sS'AAACGC'
p2220
I1604
sS'GTAACA'
p2221
I5693
sS'CACGCG'
p2222
I3375
sS'AAACGG'
p2223
I1547
sS'ATTGAA'
p2224
I4298
sS'TGCGCG'
p2225
I3759
sS'TGTCCA'
p2226
I6031
sS'GAGCTT'
p2227
I3191
sS'TGCGCC'
p2228
I4450
sS'ATTGAG'
p2229
I4386
sS'TGCGCA'
p2230
I4046
sS'CACGCA'
p2231
I5542
sS'AAACGT'
p2232
I690
sS'ATTTCG'
p2233
I1551
sS'ATTTCA'
p2234
I13122
sS'ATTTCC'
p2235
I10974
sS'ATCAGT'
p2236
I6721
sS'ATCGGG'
p2237
I1721
sS'CATAGT'
p2238
I5377
sS'AAATCA'
p2239
I5253
sS'ATCGGC'
p2240
I1347
sS'ATCGGA'
p2241
I1150
sS'ATTTCT'
p2242
I5292
sS'CGATCA'
p2243
I327
sS'TGGGTC'
p2244
I1883
sS'TGGGTA'
p2245
I3917
sS'CATAGG'
p2246
I8343
sS'ATCGGT'
p2247
I381
sS'ATCAGG'
p2248
I13357
sS'ATCAGA'
p2249
I14951
sS'CATAGA'
p2250
I9628
sS'ACGGGT'
p2251
I279
sS'ATAATT'
p2252
I1203
sS'CCTGGT'
p2253
I2433
sS'GATTCT'
p2254
I8286
sS'CTTTTG'
p2255
I32299
sS'TACTAG'
p2256
I10611
sS'TACTAA'
p2257
I17395
sS'TACTAC'
p2258
I10399
sS'GATTCC'
p2259
I14494
sS'ACGGGG'
p2260
I1820
sS'GATTCG'
p2261
I3242
sS'ACGGGC'
p2262
I973
sS'TACTAT'
p2263
I6819
sS'CTTTTT'
p2264
I5723
sS'CGTAGA'
p2265
I1582
sS'TCACGA'
p2266
I468
sS'TCACGC'
p2267
I727
sS'AGAGTG'
p2268
I6480
sS'CGATTG'
p2269
I1046
sS'TCACGG'
p2270
I878
sS'TCTCAT'
p2271
I2200
sS'TCACGT'
p2272
I457
sS'TTCCAC'
p2273
I14796
sS'TTCCAA'
p2274
I16168
sS'TTCCAG'
p2275
I23521
sS'CGAGGC'
p2276
I1958
sS'ACCCTT'
p2277
I1730
sS'TGAAGT'
p2278
I3299
sS'CCACAT'
p2279
I842
sS'TTCCAT'
p2280
I5624
sS'TGAAGC'
p2281
I5063
sS'TGAAGA'
p2282
I6557
sS'TGAAGG'
p2283
I7176
sS'ACCCTG'
p2284
I15898
sS'CTGACT'
p2285
I5947
sS'CCCCTT'
p2286
I2758
sS'AGTTAT'
p2287
I3612
sS'CTGACG'
p2288
I2816
sS'CTGACC'
p2289
I7267
sS'CTGACA'
p2290
I8040
sS'AGTTAA'
p2291
I11598
sS'CCCCTG'
p2292
I18663
sS'AGTTAC'
p2293
I8264
sS'CCCCTC'
p2294
I11243
sS'AGTTAG'
p2295
I8831
sS'CCCCTA'
p2296
I7547
sS'ACACAG'
p2297
I2757
sS'ACACAA'
p2298
I2042
sS'ACACAC'
p2299
I3037
sS'AATGTT'
p2300
I3721
sS'CTGCAG'
p2301
I14654
sS'CATGGG'
p2302
I10020
sS'CTGCAC'
p2303
I8275
sS'CATGGC'
p2304
I8727
sS'AATGTC'
p2305
I6368
sS'ACACAT'
p2306
I852
sS'AATGTA'
p2307
I17868
sS'AATGTG'
p2308
I25111
sS'GCACAC'
p2309
I1366
sS'GCACAA'
p2310
I1440
sS'GCACAG'
p2311
I2279
sS'CGATTC'
p2312
I348
sS'CCACAG'
p2313
I2409
sS'ATGTTC'
p2314
I5780
sS'CGAGAT'
p2315
I201
sS'ATTACT'
p2316
I3331
sS'CACAAT'
p2317
I5791
sS'ACATTG'
p2318
I6405
sS'ACATTA'
p2319
I5578
sS'ACATTC'
p2320
I3669
sS'ATTACA'
p2321
I8421
sS'ATGCTC'
p2322
I5927
sS'GTTCGC'
p2323
I1812
sS'CGAGAC'
p2324
I694
sS'GTTCGG'
p2325
I2169
sS'AAGTCT'
p2326
I5010
sS'ACCCTA'
p2327
I6086
sS'GCTATT'
p2328
I1106
sS'GGACAT'
p2329
I357
sS'CAGCGT'
p2330
I1428
sS'GCTATA'
p2331
I3943
sS'GCTATC'
p2332
I1365
sS'AAGTCG'
p2333
I1976
sS'AAGTCA'
p2334
I13280
sS'GCTATG'
p2335
I7633
sS'AGTCAG'
p2336
I18429
sS'GGACAG'
p2337
I1365
sS'GGACAC'
p2338
I1080
sS'CTATCG'
p2339
I807
sS'GCACCT'
p2340
I1141
sS'AGGGTT'
p2341
I925
sS'GAGGCG'
p2342
I9824
sS'TGTTGG'
p2343
I15355
sS'GAGGCA'
p2344
I16589
sS'TGTTGA'
p2345
I16714
sS'GAGGCC'
p2346
I17007
sS'TGTTGC'
p2347
I15267
sS'ACTCGA'
p2348
I1175
sS'TAAAAT'
p2349
I3057
sS'ACTCGC'
p2350
I1903
sS'AAGCTT'
p2351
I2561
sS'ACTCGG'
p2352
I2665
sS'TGTTGT'
p2353
I9305
sS'GAGGCT'
p2354
I6782
sS'AGCGCC'
p2355
I6350
sS'AGGGTG'
p2356
I9261
sS'AGGGTA'
p2357
I3638
sS'AGCGCG'
p2358
I5045
sS'AGGGTC'
p2359
I1667
sS'TAAAAG'
p2360
I8362
sS'ACTCGT'
p2361
I484
sS'TAAAAC'
p2362
I6994
sS'TAAAAA'
p2363
I7803
sS'CTACTC'
p2364
I1871
sS'TAGGGA'
p2365
I6713
sS'ACGTTA'
p2366
I1569
sS'AGCTGA'
p2367
I31923
sS'CTACTG'
p2368
I5872
sS'AGCTGG'
p2369
I41348
sS'TAGGGG'
p2370
I6462
sS'AGTGCG'
p2371
I2361
sS'AGTGCA'
p2372
I6569
sS'AGAGTT'
p2373
I677
sS'AGTGCC'
p2374
I4517
sS'CCAAAA'
p2375
I2203
sS'TTCGTG'
p2376
I4627
sS'TAGGGT'
p2377
I1788
sS'GCATAG'
p2378
I1437
sS'AGCTGT'
p2379
I19026
sS'CTACTT'
p2380
I864
sS'AGTGCT'
p2381
I3011
sS'AGAGTC'
p2382
I1622
sS'TCAAGA'
p2383
I3966
sS'AAAACA'
p2384
I11558
sS'TAACCC'
p2385
I1569
sS'GTTAAA'
p2386
I9321
sS'CCTGGC'
p2387
I8164
sS'GTTAAC'
p2388
I5494
sS'GTCTGT'
p2389
I14843
sS'CCTGGG'
p2390
I13581
sS'GTTAAG'
p2391
I7899
sS'CCGGTG'
p2392
I1807
sS'TTCGTC'
p2393
I1596
sS'CTAATC'
p2394
I2001
sS'GTCTGG'
p2395
I27758
sS'GTCTGC'
p2396
I22504
sS'GTTAAT'
p2397
I2259
sS'GTCTGA'
p2398
I22185
sS'CCGGTC'
p2399
I452
sS'GGAAGG'
p2400
I11435
sS'ATGCTT'
p2401
I2843
sS'GGAAGC'
p2402
I6821
sS'GCACCG'
p2403
I877
sS'GGAAGA'
p2404
I7580
sS'TGTATT'
p2405
I2552
sS'CAATGA'
p2406
I5530
sS'GCGTTC'
p2407
I1190
sS'CAATGC'
p2408
I3684
sS'AAACCG'
p2409
I744
sS'GCGTTG'
p2410
I2403
sS'CAATGG'
p2411
I4809
sS'ATGCTG'
p2412
I19265
sS'GGAAGT'
p2413
I3428
sS'CCACAC'
p2414
I1460
sS'CCACAA'
p2415
I1908
sS'AAACCA'
p2416
I4333
sS'TCCTCG'
p2417
I6876
sS'TGTATG'
p2418
I13111
sS'TCCTCA'
p2419
I22732
sS'TGTATA'
p2420
I10770
sS'TCCTCC'
p2421
I32278
sS'TGTATC'
p2422
I3961
sS'GTGAAT'
p2423
I2432
sS'TAACCG'
p2424
I468
sS'TCATAG'
p2425
I2189
sS'TCAGGG'
p2426
I4863
sS'CGTTAC'
p2427
I1656
sS'TTCGTA'
p2428
I2299
sS'CGTTAA'
p2429
I1730
sS'TAACCA'
p2430
I3022
sS'ACCGCT'
p2431
I784
sS'TCGCGA'
p2432
I496
sS'TGCATG'
p2433
I23437
sS'TTCGTT'
p2434
I723
sS'TCATAT'
p2435
I1182
sS'TAACCT'
p2436
I918
sS'GTGAAG'
p2437
I7298
sS'GTGAAA'
p2438
I6335
sS'GTGAAC'
p2439
I4324
sS'AACCCG'
p2440
I3436
sS'ACCGCG'
p2441
I2110
sS'ACCGCA'
p2442
I2373
sS'AACGAG'
p2443
I3125
sS'ACCGCC'
p2444
I3882
sS'AGTTCC'
p2445
I10324
sS'CCGCCT'
p2446
I1168
sS'AGGCTT'
p2447
I2656
sS'CCTTCT'
p2448
I6151
sS'GTTGCA'
p2449
I5829
sS'TGTCGC'
p2450
I2254
sS'GTTGCC'
p2451
I4478
sS'GTGCCG'
p2452
I3573
sS'GTGCCA'
p2453
I7765
sS'GTTGCG'
p2454
I1498
sS'GTGCCC'
p2455
I7913
sS'CCGCCG'
p2456
I1879
sS'AGGCTA'
p2457
I6940
sS'CCTTCC'
p2458
I15726
sS'AGGCTC'
p2459
I7150
sS'CCGCCC'
p2460
I5015
sS'TGTCGA'
p2461
I1294
sS'CCTTCG'
p2462
I3281
sS'AGGCTG'
p2463
I26685
sS'GTGCCT'
p2464
I5579
sS'GTTGCT'
p2465
I3096
sS'GGATAT'
p2466
I514
sS'ATAGGT'
p2467
I1452
sS'TCGGGT'
p2468
I335
sS'AAACCT'
p2469
I1196
sS'GCAGTT'
p2470
I902
sS'GAAGCT'
p2471
I4055
sS'TCGGGC'
p2472
I1213
sS'ATGCCA'
p2473
I6502
sS'TCGGGA'
p2474
I1193
sS'NNNNNG'
p2475
I2
sS'TCGGGG'
p2476
I2191
sS'GGATAG'
p2477
I860
sS'GAAGCG'
p2478
I3343
sS'GCAGTG'
p2479
I7133
sS'GAAGCC'
p2480
I8613
sS'GCAGTA'
p2481
I2711
sS'GAAGCA'
p2482
I10735
sS'GCAGTC'
p2483
I1265
sS'CGCCCG'
p2484
I6457
sS'GAGAGA'
p2485
I29673
sS'GTTCAT'
p2486
I2255
sS'GAGAGG'
p2487
I33123
sS'CGCCCA'
p2488
I6484
sS'AGTTTG'
p2489
I25062
sS'ACGCAG'
p2490
I1253
sS'NNNNNN'
p2491
I8
sS'CTATAC'
p2492
I1885
sS'CTATAA'
p2493
I3510
sS'CTCGCA'
p2494
I3525
sS'CTACAC'
p2495
I1699
sS'CTCGCG'
p2496
I4128
sS'AAACAT'
p2497
I1853
sS'GCATTT'
p2498
I1260
sS'AGTTTC'
p2499
I13090
sS'GCCGGG'
p2500
I15069
sS'AGCATC'
p2501
I9436
sS'GCCGGC'
p2502
I8956
sS'CATGTT'
p2503
I2738
sS'GCCGGA'
p2504
I5071
sS'AGATCT'
p2505
I1181
sS'AGTTTA'
p2506
I21520
sS'GCCACT'
p2507
I5447
sS'CATGTA'
p2508
I12468
sS'CATGTC'
p2509
I5306
sS'GCCGGT'
p2510
I1292
sS'CATGTG'
p2511
I23486
sS'AGTTCG'
p2512
I2388
sS'TACCCC'
p2513
I4689
sS'GTACTC'
p2514
I1145
sS'GGCCTG'
p2515
I26493
sS'GGCCTC'
p2516
I12058
sS'GGCCTA'
p2517
I7135
sS'TTTGTT'
p2518
I3147
sS'AATCGG'
p2519
I2475
sS'AATCGC'
p2520
I2488
sS'AATCGA'
p2521
I1688
sS'GTTCAG'
p2522
I7948
sS'GGCCTT'
p2523
I2634
sS'TCACTA'
p2524
I2465
sS'CAGCGA'
p2525
I2927
sS'AATCGT'
p2526
I1056
sS'CGTCAA'
p2527
I1412
sS'AGCCGA'
p2528
I5571
sS'CCTTCA'
p2529
I10159
sS'AGCCGC'
p2530
I12546
sS'TAATTG'
p2531
I7158
sS'TAATTA'
p2532
I6485
sS'AGCCGG'
p2533
I11751
sS'GTTTTT'
p2534
I4204
sS'TGGTGA'
p2535
I9055
sS'GATGGA'
p2536
I12257
sS'TGGTGC'
p2537
I6517
sS'GATGGC'
p2538
I9646
sS'GGGCTG'
p2539
I18761
sS'TGGTGG'
p2540
I11033
sS'GATGGG'
p2541
I14652
sS'AAAAAA'
p2542
I9646
sS'GAGCGG'
p2543
I9834
sS'GGGCTC'
p2544
I5017
sS'GTTTTG'
p2545
I29052
sS'TTCCCG'
p2546
I6516
sS'GAGCGC'
p2547
I8804
sS'TGACAG'
p2548
I1767
sS'CCAAGG'
p2549
I5394
sS'ACGTAT'
p2550
I260
sS'TCTCAG'
p2551
I10073
sS'TCTCAA'
p2552
I6852
sS'TGGTGT'
p2553
I5143
sS'CCAAGA'
p2554
I4502
sS'ATTCGT'
p2555
I588
sS'AGAACT'
p2556
I2369
sS'GCGTTT'
p2557
I408
sS'CCGCCA'
p2558
I1625
sS'TACCAT'
p2559
I3585
sS'GATTTC'
p2560
I16247
sS'CCTATT'
p2561
I1077
sS'ACCCGG'
p2562
I4918
sS'ACCCGA'
p2563
I2112
sS'ATGTCT'
p2564
I4292
sS'ACCCGC'
p2565
I4513
sS'AGATAA'
p2566
I2912
sS'TACCAC'
p2567
I9520
sS'AGAACG'
p2568
I1268
sS'TACCAA'
p2569
I8771
sS'AGAACA'
p2570
I6440
sS'TACCAG'
p2571
I10162
sS'AGAACC'
p2572
I3542
sS'ACCAGC'
p2573
I12835
sS'CACTGG'
p2574
I31821
sS'CCTATG'
p2575
I5675
sS'ATCACG'
p2576
I3166
sS'ACCAGG'
p2577
I14615
sS'CACTGC'
p2578
I35344
sS'CCTATC'
p2579
I1770
sS'CACTGA'
p2580
I31916
sS'GAGTCA'
p2581
I33180
sS'TAGGTT'
p2582
I885
sS'GTTTAC'
p2583
I9363
sS'AATTAT'
p2584
I4312
sS'CTGTTG'
p2585
I20996
sS'GTAACC'
p2586
I3311
sS'CTGTTC'
p2587
I9232
sS'CGGGTT'
p2588
I257
sS'CTGTTA'
p2589
I14588
sS'AATTAC'
p2590
I10638
sS'TAGGTG'
p2591
I5724
sS'AATTAG'
p2592
I9954
sS'TAGGTC'
p2593
I2267
sS'CGGGTC'
p2594
I733
sS'CTGTTT'
p2595
I5825
sS'CGGGTA'
p2596
I965
sS'CGGGTG'
p2597
I2901
sS'CTTCGG'
p2598
I3934
sS'AAGTAA'
p2599
I9021
sS'CATTAC'
p2600
I11888
sS'TTAGGG'
p2601
I4723
sS'ATATAT'
p2602
I1803
sS'AGCAAC'
p2603
I15519
sS'AAGTCC'
p2604
I8424
sS'AAAGCT'
p2605
I2899
sS'TTAGGA'
p2606
I6139
sS'ATGCTA'
p2607
I8410
sS'AAAGCA'
p2608
I10662
sS'AAAGCC'
p2609
I6132
sS'TTAGGT'
p2610
I2263
sS'TCATTG'
p2611
I9353
sS'AGCAAT'
p2612
I7148
sS'ATATAC'
p2613
I2750
sS'TACTTC'
p2614
I20164
sS'TACTTA'
p2615
I28671
sS'TACTTG'
p2616
I29467
sS'ATAGCG'
p2617
I740
sS'TCTCAC'
p2618
I5921
sS'CAGCGC'
p2619
I5822
sS'ATAGCT'
p2620
I2227
sS'TACTTT'
p2621
I12463
sS'CGAGTT'
p2622
I138
sS'TCCAAT'
p2623
I3635
sS'CGTACT'
p2624
I587
sS'TCCCGT'
p2625
I1627
sS'ACATAC'
p2626
I1946
sS'CTTAAG'
p2627
I8634
sS'ACATAA'
p2628
I2203
sS'CTTAAA'
p2629
I10933
sS'ACATAG'
p2630
I1767
sS'CTTAAC'
p2631
I6731
sS'TCCAAG'
p2632
I15247
sS'CGAGTG'
p2633
I1420
sS'TTGTTA'
p2634
I14525
sS'TCCAAC'
p2635
I9215
sS'CGTACG'
p2636
I520
sS'AGGGGA'
p2637
I7715
sS'CTTAAT'
p2638
I2754
sS'AGGGGC'
p2639
I7100
sS'TATGCA'
p2640
I9869
sS'ACATAT'
p2641
I1079
sS'TCATTA'
p2642
I6834
sS'CGACTT'
p2643
I85
sS'GGATAA'
p2644
I1039
sS'TTGTAA'
p2645
I6450
sS'TTGTAC'
p2646
I3880
sS'GTACCT'
p2647
I1057
sS'TTGTAG'
p2648
I5191
sS'TGAATC'
p2649
I2549
sS'GATTGG'
p2650
I15916
sS'TGAATA'
p2651
I5739
sS'GGATAC'
p2652
I930
sS'TGAATG'
p2653
I9038
sS'AAGTAT'
p2654
I3230
sS'CGACTG'
p2655
I780
sS'TTGTAT'
p2656
I2842
sS'ATCGTG'
p2657
I3001
sS'GCTTCG'
p2658
I2990
sS'GCTTCA'
p2659
I9433
sS'ATCGTA'
p2660
I1378
sS'TGGGAG'
p2661
I7217
sS'TGTGGT'
p2662
I5699
sS'TGGGAA'
p2663
I5188
sS'TGGGAC'
p2664
I3346
sS'GCTTCT'
p2665
I5252
sS'ATCGTT'
p2666
I318
sS'ACAACG'
p2667
I614
sS'TGGGAT'
p2668
I1272
sS'ACGCGC'
p2669
I1142
sS'GGGCTA'
p2670
I3958
sS'CTAGCC'
p2671
I3676
sS'GACCAT'
p2672
I3219
sS'CTAGCG'
p2673
I1291
sS'CGGTAG'
p2674
I868
sS'ACTTAG'
p2675
I6467
sS'TAGATT'
p2676
I1302
sS'ACTTAA'
p2677
I7422
sS'CGGTAC'
p2678
I628
sS'TACACT'
p2679
I8207
sS'CGGTAA'
p2680
I689
sS'GACCAG'
p2681
I15762
sS'GACCAC'
p2682
I12465
sS'GACCAA'
p2683
I11096
sS'TTCGAG'
p2684
I2198
sS'TACACC'
p2685
I7042
sS'CGGTAT'
p2686
I234
sS'TACACA'
p2687
I21696
sS'TACACG'
p2688
I3550
sS'GCGAGA'
p2689
I1706
sS'GAGAGC'
p2690
I18220
sS'GCGAGC'
p2691
I2341
sS'GGCCGT'
p2692
I2075
sS'GCGAGG'
p2693
I4417
sS'CAGCCG'
p2694
I3749
sS'CAGCCA'
p2695
I10795
sS'GGTATT'
p2696
I889
sS'CAGCCC'
p2697
I10859
sS'GCTGAA'
p2698
I6231
sS'GCGAGT'
p2699
I639
sS'GAACTG'
p2700
I8162
sS'TTACGT'
p2701
I502
sS'GAACTC'
p2702
I2317
sS'GAACTA'
p2703
I4130
sS'GGACTT'
p2704
I294
sS'CACCTA'
p2705
I9538
sS'AACTAT'
p2706
I6127
sS'CACCTC'
p2707
I12064
sS'CACCTG'
p2708
I15936
sS'TGATCC'
p2709
I1761
sS'AACACT'
p2710
I10260
sS'TGATCA'
p2711
I2004
sS'TGATCG'
p2712
I354
sS'AACTAG'
p2713
I12292
sS'GGACTG'
p2714
I2536
sS'CACCTT'
p2715
I2689
sS'GGACTA'
p2716
I1156
sS'AACTAA'
p2717
I18011
sS'AACGAT'
p2718
I698
sS'AACACG'
p2719
I4860
sS'AACACA'
p2720
I24936
sS'AACACC'
p2721
I10297
sS'TGATCT'
p2722
I1128
sS'CCAGCA'
p2723
I7993
sS'GCATTC'
p2724
I3073
sS'TGAGCC'
p2725
I3805
sS'GACAGT'
p2726
I11977
sS'CAACAA'
p2727
I2480
sS'CCAGCC'
p2728
I6738
sS'CAACAC'
p2729
I1894
sS'GCTGAT'
p2730
I1439
sS'ACGCAA'
p2731
I550
sS'GACAGG'
p2732
I28672
sS'CAACAT'
p2733
I754
sS'GACAGC'
p2734
I25792
sS'GACAGA'
p2735
I29944
sS'GTATTA'
p2736
I8218
sS'GTATTC'
p2737
I3722
sS'GTAAGT'
p2738
I3383
sS'CCAGCG'
p2739
I2443
sS'AGAGGT'
p2740
I2210
sS'GGTGGC'
p2741
I5803
sS'TCCCCT'
p2742
I4231
sS'GGTGGA'
p2743
I6507
sS'CGTCAT'
p2744
I824
sS'GGTGGG'
p2745
I12189
sS'AGAGGC'
p2746
I5678
sS'GTAAGA'
p2747
I6790
sS'AGAGGA'
p2748
I8716
sS'CTCGCC'
p2749
I6685
sS'AGAGGG'
p2750
I8130
sS'GTAAGG'
p2751
I5766
sS'TCCCCG'
p2752
I5383
sS'CGTCAC'
p2753
I3590
sS'TCCCCC'
p2754
I7551
sS'GGTGGT'
p2755
I2240
sS'TCCCCA'
p2756
I11024
sS'GTCGCG'
p2757
I2067
sS'GTCGCA'
p2758
I1822
sS'GTCGCC'
p2759
I3444
sS'CCGTCT'
p2760
I759
sS'TCGGTA'
p2761
I574
sS'GAGAGT'
p2762
I7544
sS'TCGGTG'
p2763
I1499
sS'GTCGCT'
p2764
I1296
sS'GTAACT'
p2765
I2754
sS'CCGTCG'
p2766
I689
sS'ATTTAT'
p2767
I3735
sS'CCGTCA'
p2768
I1358
sS'CCGTCC'
p2769
I2175
sS'GGCTGT'
p2770
I12306
sS'CGCGTG'
p2771
I5065
sS'ATACAT'
p2772
I884
sS'CGCGTC'
p2773
I2280
sS'CGCGTA'
p2774
I1221
sS'CCACTG'
p2775
I4473
sS'ATGCAA'
p2776
I5271
sS'ATGCAC'
p2777
I4272
sS'CGCGTT'
p2778
I488
sS'GGCTGG'
p2779
I38957
sS'GGCTGA'
p2780
I24938
sS'GGCTGC'
p2781
I34440
sS'ATGCAT'
p2782
I1860
sS'CCTACC'
p2783
I3716
sS'TTTCAT'
p2784
I3940
sS'ATGACG'
p2785
I1846
sS'GGAGTT'
p2786
I530
sS'ATGACA'
p2787
I6722
sS'ATGACC'
p2788
I3965
sS'CCTGAT'
p2789
I1030
sS'GGGCCT'
p2790
I2309
sS'ATGACT'
p2791
I5153
sS'GGAGTA'
p2792
I1773
sS'GGAGTC'
p2793
I1146
sS'GGAGTG'
p2794
I4495
sS'GGGCCG'
p2795
I3448
sS'GGGCCC'
p2796
I5187
sS'GGGCCA'
p2797
I4411
sS'CTGATC'
p2798
I2350
sS'ACGAGT'
p2799
I391
sS'AGGCCA'
p2800
I7363
sS'GCGCAC'
p2801
I1158
sS'GCGCAG'
p2802
I2098
sS'ACGAGG'
p2803
I1917
sS'AGTATC'
p2804
I2929
sS'ACGAGC'
p2805
I984
sS'ACGAGA'
p2806
I1021
sS'GGCAAC'
p2807
I8865
sS'AGGCCT'
p2808
I3356
sS'ACATCT'
p2809
I1608
sS'GGGTTG'
p2810
I8663
sS'TTTGGG'
p2811
I10256
sS'GGGTTA'
p2812
I5362
sS'CTCGGG'
p2813
I8858
sS'GGGTTC'
p2814
I2575
sS'TTTGAT'
p2815
I2006
sS'TGAACT'
p2816
I1950
sS'ATTGCT'
p2817
I2342
sS'GGGTTT'
p2818
I1510
sS'TGCGAC'
p2819
I1719
sS'AGAAAT'
p2820
I2121
sS'TGCGAG'
p2821
I3495
sS'AACGGC'
p2822
I3119
sS'TCCACT'
p2823
I6852
sS'AACGGA'
p2824
I3007
sS'GACTAG'
p2825
I13216
sS'AACGGG'
p2826
I3999
sS'TTTGAC'
p2827
I5819
sS'TTTGAA'
p2828
I10248
sS'CGGGCT'
p2829
I998
sS'TGACGT'
p2830
I461
sS'CTCGTC'
p2831
I2248
sS'CCCTGG'
p2832
I28314
sS'CCCTGA'
p2833
I18065
sS'CTCGTG'
p2834
I5752
sS'CCCTGC'
p2835
I28630
sS'GTGGGC'
p2836
I7006
sS'CCCTGT'
p2837
I8963
sS'AAGCTC'
p2838
I7185
sS'GATATA'
p2839
I8637
sS'CTAAAA'
p2840
I5273
sS'GATATG'
p2841
I11545
sS'AAGCTG'
p2842
I23692
sS'TGACGC'
p2843
I973
sS'CTCGGA'
p2844
I3868
sS'TACTCT'
p2845
I10251
sS'CATCGT'
p2846
I1292
sS'CAGGGT'
p2847
I3241
sS'GCTAAT'
p2848
I1336
sS'CCAGTC'
p2849
I1387
sS'TACGAT'
p2850
I526
sS'CCAGTG'
p2851
I5904
sS'TACTCG'
p2852
I3332
sS'CATCGA'
p2853
I1828
sS'CATCGC'
p2854
I3356
sS'TACTCC'
p2855
I12833
sS'NGAATT'
p2856
I1
sS'TACTCA'
p2857
I26619
sS'CATCGG'
p2858
I2486
sS'CAGGGG'
p2859
I11251
sS'AGGTGA'
p2860
I6236
sS'CAGGGA'
p2861
I12833
sS'CAGGGC'
p2862
I11946
sS'AATCTG'
p2863
I21371
sS'CTTACG'
p2864
I1878
sS'AATCTC'
p2865
I8341
sS'AGTCGA'
p2866
I1604
sS'AATCTA'
p2867
I11531
sS'TGAACG'
p2868
I870
sS'TCACAC'
p2869
I1338
sS'TCACAA'
p2870
I1516
sS'GTCTCG'
p2871
I6102
sS'GCCATA'
p2872
I7795
sS'CGGACG'
p2873
I1139
sS'GCCATC'
p2874
I5617
sS'CGGACA'
p2875
I1306
sS'CGGACC'
p2876
I1651
sS'GCCATG'
p2877
I17280
sS'CTTACC'
p2878
I4843
sS'TCACAT'
p2879
I737
sS'ATTAAC'
p2880
I5003
sS'ATTAAA'
p2881
I10046
sS'ATTAAG'
p2882
I7015
sS'TTTTAC'
p2883
I9667
sS'TCACTT'
p2884
I647
sS'ATCCAG'
p2885
I9722
sS'ATTAAT'
p2886
I2005
sS'ATCATG'
p2887
I17827
sS'TACCTG'
p2888
I9795
sS'GGTATG'
p2889
I5750
sS'GGTATA'
p2890
I2919
sS'GGTATC'
p2891
I1287
sS'GAACCG'
p2892
I951
sS'ACGAAT'
p2893
I188
sS'CTGAAA'
p2894
I7185
sS'CTGAAC'
p2895
I4995
sS'CTGAAG'
p2896
I8550
sS'CCCGAA'
p2897
I1717
sS'TAGGTA'
p2898
I3993
sS'CATTGC'
p2899
I17550
sS'TATGAG'
p2900
I11484
sS'CATTGA'
p2901
I13770
sS'CTAGTT'
p2902
I995
sS'CATTGG'
p2903
I15179
sS'TCAACT'
p2904
I1362
sS'ACCATC'
p2905
I4590
sS'ACACCG'
p2906
I509
sS'CTGCCA'
p2907
I15471
sS'CTGCCC'
p2908
I17539
sS'ACACCC'
p2909
I1279
sS'ACACCA'
p2910
I2224
sS'CTGCCG'
p2911
I6450
sS'CTAGTG'
p2912
I5541
sS'TCAACC'
p2913
I2007
sS'TCAACA'
p2914
I3877
sS'CTAGTC'
p2915
I1584
sS'TCAACG'
p2916
I579
sS'CTAGTA'
p2917
I3203
sS'CATTGT'
p2918
I10908
sS'TATGAC'
p2919
I10155
sS'ACACCT'
p2920
I796
sS'CTGCCT'
p2921
I11207
sS'CCTCGT'
p2922
I966
sS'TTGTGT'
p2923
I8338
sS'AGACTG'
p2924
I4853
sS'AGACTC'
p2925
I1339
sS'AGACTA'
p2926
I2254
sS'CCTCGG'
p2927
I5303
sS'CCTCGC'
p2928
I4616
sS'CCTCGA'
p2929
I1882
sS'CGAGGA'
p2930
I2009
sS'AGACTT'
p2931
I480
sS'CGAGGG'
p2932
I2750
sS'ACTTTC'
p2933
I7967
sS'ACTTTA'
p2934
I14859
sS'ACTTTG'
p2935
I19967
sS'GACCTG'
p2936
I22276
sS'GACCTA'
p2937
I11043
sS'GACCTC'
p2938
I13110
sS'CACCGG'
p2939
I5518
sS'CTATTG'
p2940
I8776
sS'CACCGA'
p2941
I3538
sS'ACTTTT'
p2942
I2766
sS'GACCTT'
p2943
I4454
sS'CGCCCC'
p2944
I14140
sS'CACATT'
p2945
I6107
sS'GGACGG'
p2946
I1151
sS'GCATAA'
p2947
I1461
sS'CACAGC'
p2948
I33403
sS'CTTATC'
p2949
I3903
sS'CACAGA'
p2950
I32398
sS'CTTATA'
p2951
I7545
sS'CACAGG'
p2952
I30937
sS'CTTATG'
p2953
I10134
sS'ACTCAT'
p2954
I2792
sS'GAGGAG'
p2955
I24791
sS'GACGTA'
p2956
I3319
sS'CGTATC'
p2957
I615
sS'GACGTC'
p2958
I4518
sS'GAGGAC'
p2959
I9631
sS'GAGGAA'
p2960
I16425
sS'GACGTG'
p2961
I9124
sS'TTAACA'
p2962
I7187
sS'ACTCAC'
p2963
I8455
sS'TTAACC'
p2964
I3828
sS'TTGTGA'
p2965
I10710
sS'ACTCAG'
p2966
I11866
sS'TTAACG'
p2967
I929
sS'CACAGT'
p2968
I15343
sS'AGCGAC'
p2969
I2820
sS'TAAACA'
p2970
I13609
sS'AGCGAA'
p2971
I2500
sS'TAAACC'
p2972
I4586
sS'GACGTT'
p2973
I1350
sS'TCTAAA'
p2974
I6829
sS'TAAACG'
p2975
I1350
sS'CTGTGG'
p2976
I24473
sS'GTATGT'
p2977
I5122
sS'AGTTCA'
p2978
I12503
sS'CTGTGC'
p2979
I15624
sS'TAGCCC'
p2980
I4002
sS'CTGTGA'
p2981
I17044
sS'GAGCGT'
p2982
I1852
sS'TAGGAC'
p2983
I3825
sS'GCAAAG'
p2984
I3797
sS'TAGGAA'
p2985
I6433
sS'GCAAAA'
p2986
I2807
sS'TAGGAG'
p2987
I6711
sS'GCAAAC'
p2988
I2444
sS'CGGGGC'
p2989
I5934
sS'GTATGG'
p2990
I4341
sS'CTGTGT'
p2991
I12896
sS'CGGGGG'
p2992
I4741
sS'GTATGC'
p2993
I4132
sS'AGTTCT'
p2994
I5943
sS'GCAAAT'
p2995
I1071
sS'CGAGAA'
p2996
I883
sS'TAGGAT'
p2997
I1385
sS'AAAAAT'
p2998
I2128
sS'TTCAAT'
p2999
I5599
sS'TGCTTT'
p3000
I15065
sS'GTCTAT'
p3001
I4111
sS'ACTAGG'
p3002
I4814
sS'GTTACC'
p3003
I3703
sS'GTTACA'
p3004
I6988
sS'TAATTC'
p3005
I3677
sS'TATCGA'
p3006
I1007
sS'TATCGC'
p3007
I1420
sS'TATAGT'
p3008
I5645
sS'GTCTAA'
p3009
I11548
sS'TGCTTA'
p3010
I32595
sS'GTCTAC'
p3011
I7825
sS'TGCTTC'
p3012
I28619
sS'TTCAAA'
p3013
I24799
sS'TTCAAC'
p3014
I14182
sS'TGCTTG'
p3015
I38846
sS'TATAGC'
p3016
I7011
sS'TATCGT'
p3017
I797
sS'TATAGA'
p3018
I9408
sS'AGTGGG'
p3019
I11434
sS'TATAGG'
p3020
I7410
sS'GTTACT'
p3021
I3954
sS'GGAAAA'
p3022
I4044
sS'GCTCTA'
p3023
I6596
sS'CCAAGT'
p3024
I2283
sS'GCTCTG'
p3025
I22289
sS'CCACGT'
p3026
I606
sS'GGAAAG'
p3027
I5835
sS'AGGACC'
p3028
I4924
sS'GAATGG'
p3029
I9285
sS'GAATGA'
p3030
I11361
sS'ACTACT'
p3031
I1726
sS'GAATGC'
p3032
I9135
sS'CCACGA'
p3033
I732
sS'GGCGTC'
p3034
I2687
sS'CCACGC'
p3035
I1103
sS'GGCGTA'
p3036
I1791
sS'GTTCCG'
p3037
I1757
sS'GGCGTG'
p3038
I9061
sS'CCACGG'
p3039
I1174
sS'AACCTA'
p3040
I11720
sS'GGCTTA'
p3041
I17937
sS'ACTACC'
p3042
I2088
sS'GGCTTC'
p3043
I20003
sS'ACTACA'
p3044
I4881
sS'ACTACG'
p3045
I984
sS'GGCTTG'
p3046
I29027
sS'TCCTAG'
p3047
I12213
sS'GTTTTC'
p3048
I13526
sS'CGTTGC'
p3049
I3603
sS'TAACAC'
p3050
I2211
sS'TCCTAC'
p3051
I9793
sS'AGTCAC'
p3052
I16485
sS'CGTTGG'
p3053
I3420
sS'AGTCAA'
p3054
I8881
sS'TCATCG'
p3055
I960
sS'AAGCGT'
p3056
I1276
sS'TCATCC'
p3057
I4265
sS'AAAAAC'
p3058
I6022
sS'CTTTCT'
p3059
I11128
sS'AGTCAT'
p3060
I6198
sS'TCCTAT'
p3061
I4284
sS'TAACAT'
p3062
I1061
sS'CGTTGT'
p3063
I1560
sS'CTTTCC'
p3064
I19967
sS'TCCCTT'
p3065
I4550
sS'CTTTCA'
p3066
I18059
sS'CTTTCG'
p3067
I3615
sS'AGCCGT'
p3068
I2396
sS'AAAAAG'
p3069
I8109
sS'GTTGAT'
p3070
I1366
sS'CGACCA'
p3071
I350
sS'CGACCC'
p3072
I419
sS'GCATAC'
p3073
I1187
sS'CGACCG'
p3074
I216
sS'CCTTAT'
p3075
I2204
sS'GTTGAC'
p3076
I3983
sS'GTTGAA'
p3077
I5892
sS'ACTGGG'
p3078
I7464
sS'GTTGAG'
p3079
I6606
sS'CCTTAC'
p3080
I4410
sS'CCTTAA'
p3081
I6313
sS'CCTTAG'
p3082
I6513
sS'CGACCT'
p3083
I210
sS'AATAGA'
p3084
I12820
sS'AATAGC'
p3085
I10004
sS'CAACTG'
p3086
I4061
sS'AATAGG'
p3087
I9938
sS'AAAGTT'
p3088
I849
sS'GGGGTT'
p3089
I564
sS'GGATGT'
p3090
I1736
sS'AATAGT'
p3091
I5707
sS'GGGCTT'
p3092
I1483
sS'CAACTT'
p3093
I414
sS'GGGGTG'
p3094
I7579
sS'GGATGA'
p3095
I3096
sS'GGATGG'
p3096
I3345
sS'GGGGTA'
p3097
I1947
sS'TCTCCG'
p3098
I2071
sS'GAGTCC'
p3099
I11577
sS'AAACTG'
p3100
I8206
sS'TCTCCC'
p3101
I6011
sS'GAGTCG'
p3102
I4129
sS'TCTCCA'
p3103
I6577
sS'AAACTC'
p3104
I2235
sS'ACGCGA'
p3105
I556
sS'AGTACG'
p3106
I1268
sS'CTATGC'
p3107
I4704
sS'AGTACC'
p3108
I3087
sS'CTATGG'
p3109
I5799
sS'AGTACA'
p3110
I6582
sS'CCCTTA'
p3111
I16243
sS'CCCTTC'
p3112
I20438
sS'TCTCCT'
p3113
I2977
sS'CCCTTG'
p3114
I27072
sS'AGCAAA'
p3115
I22390
sS'AGTACT'
p3116
I2956
sS'ACGCGT'
p3117
I178
sS'GCCGAA'
p3118
I1861
sS'GTGGAG'
p3119
I7833
sS'GCCGAC'
p3120
I3375
sS'GTGGAC'
p3121
I3328
sS'GCCGAG'
p3122
I7303
sS'GTGGAA'
p3123
I6035
sS'GTGGAT'
p3124
I1249
sS'GCCGAT'
p3125
I417
sS'AGATAG'
p3126
I1903
sS'CACTGT'
p3127
I18580
sS'CTTTGC'
p3128
I19537
sS'GTAGTC'
p3129
I1495
sS'AAATCG'
p3130
I715
sS'GTAGTA'
p3131
I3033
sS'TTATCG'
p3132
I731
sS'GTAGTG'
p3133
I4605
sS'AAATCC'
p3134
I3892
sS'CACGCC'
p3135
I6418
sS'GTTCCT'
p3136
I3074
sS'GGCTTT'
p3137
I7315
sS'CTCGTT'
p3138
I768
sS'CACGCT'
p3139
I2141
sS'AAATCT'
p3140
I1957
sS'ACCGAT'
p3141
I224
sS'CTTGAA'
p3142
I7707
sS'GTAGTT'
p3143
I993
sS'ACCAGT'
p3144
I4586
sS'CGTTAT'
p3145
I673
sS'GATGAT'
p3146
I4342
sS'GGAGCA'
p3147
I4469
sS'GGAGCC'
p3148
I4061
sS'CCGGCT'
p3149
I837
sS'CCAAAT'
p3150
I951
sS'GGAGCG'
p3151
I2001
sS'AAAACT'
p3152
I2541
sS'GATGAC'
p3153
I16146
sS'TGTCCC'
p3154
I4730
sS'GATGAA'
p3155
I14092
sS'GCTCTT'
p3156
I1662
sS'GATGAG'
p3157
I18910
sS'AAAACC'
p3158
I5338
sS'CCAAAC'
p3159
I2249
sS'AAAACG'
p3160
I1441
sS'GGAGCT'
p3161
I2162
sS'CCAAAG'
p3162
I2991
sS'TCGCGG'
p3163
I1198
sS'CGGTCC'
p3164
I2222
sS'TCGCGC'
p3165
I934
sS'GGGAGT'
p3166
I3855
sS'GCCACA'
p3167
I14528
sS'AGATCA'
p3168
I2963
sS'GCCACC'
p3169
I11101
sS'AGATCC'
p3170
I2117
sS'GCGCTT'
p3171
I308
sS'GCCACG'
p3172
I6283
sS'AGATCG'
p3173
I536
sS'ATGTCA'
p3174
I8530
sS'TCGCGT'
p3175
I204
sS'GTGCAA'
p3176
I4932
sS'TCCCAT'
p3177
I2517
sS'ACCCGT'
p3178
I724
sS'AGAAAG'
p3179
I8796
sS'TACCCG'
p3180
I2072
sS'AGAAAC'
p3181
I6065
sS'TACCCA'
p3182
I7949
sS'AGAAAA'
p3183
I6873
sS'GTGCAG'
p3184
I9291
sS'ATGTAC'
p3185
I3486
sS'ACTTCG'
p3186
I1877
sS'ATGTAA'
p3187
I6621
sS'ATGTAG'
p3188
I4434
sS'GAGGAT'
p3189
I2566
sS'CTACCA'
p3190
I3176
sS'CCGGCA'
p3191
I1654
sS'GACGAC'
p3192
I3268
sS'ATGTCG'
p3193
I1237
sS'CTATGA'
p3194
I7274
sS'ATGTAT'
p3195
I2323
sS'ATTAGA'
p3196
I6636
sS'GACCGG'
p3197
I6591
sS'ATCCAT'
p3198
I2076
sS'AGCACT'
p3199
I9415
sS'TTAGAA'
p3200
I5735
sS'CGGCTG'
p3201
I7304
sS'TTAGAC'
p3202
I1988
sS'CGGCTC'
p3203
I2946
sS'TTAGAG'
p3204
I3817
sS'CGGCTA'
p3205
I1467
sS'AGCACC'
p3206
I11641
sS'AGCACA'
p3207
I20260
sS'AGCACG'
p3208
I5451
sS'GGTCGG'
p3209
I3242
sS'GCATAT'
p3210
I828
sS'CGCCCT'
p3211
I3094
sS'TTAGAT'
p3212
I1229
sS'AAAGAC'
p3213
I4914
sS'CGAAGC'
p3214
I1383
sS'AAAGAA'
p3215
I9879
sS'ATATCC'
p3216
I3298
sS'AACTAC'
p3217
I12395
sS'ATATCA'
p3218
I4176
sS'CGACGT'
p3219
I123
sS'TTATTT'
p3220
I3339
sS'TGTGAG'
p3221
I14086
sS'TGTGAA'
p3222
I9362
sS'CTACCT'
p3223
I1626
sS'TGTGAC'
p3224
I9897
sS'ATATCT'
p3225
I2156
sS'CCAGCT'
p3226
I4296
sS'AAAGAT'
p3227
I1459
sS'TGTGAT'
p3228
I2812
sS'TTATTG'
p3229
I10662
sS'TTATTA'
p3230
I11771
sS'CATGAT'
p3231
I2614
sS'TTATTC'
p3232
I4850
sS'AGACGG'
p3233
I1280
sS'TTTTAT'
p3234
I5547
sS'GCGAAC'
p3235
I670
sS'TACAAG'
p3236
I15083
sS'AGACGC'
p3237
I1203
sS'TACAAA'
p3238
I21744
sS'AGACGA'
p3239
I657
sS'TACAAC'
p3240
I11511
sS'CCTCTG'
p3241
I21873
sS'AGGTGG'
p3242
I10669
sS'CCTCTC'
p3243
I7737
sS'AGGTGC'
p3244
I5076
sS'CCTCTA'
p3245
I7612
sS'ATCAAC'
p3246
I7579
sS'TACAAT'
p3247
I6647
sS'TCCACA'
p3248
I15431
sS'TTTTAG'
p3249
I12104
sS'TCCACC'
p3250
I12441
sS'TTTTAA'
p3251
I24149
sS'ACATCA'
p3252
I3769
sS'CTTACA'
p3253
I8476
sS'ACATCC'
p3254
I2810
sS'AGGTGT'
p3255
I2918
sS'CCTCTT'
p3256
I2002
sS'CGTCGG'
p3257
I2343
sS'CCCGGC'
p3258
I9541
sS'CCCGGA'
p3259
I4689
sS'CCCGGG'
p3260
I10965
sS'TATGAA'
p3261
I10487
sS'TGGAAT'
p3262
I3251
sS'AATTAA'
p3263
I13103
sS'TTGTGC'
p3264
I8355
sS'TATGAT'
p3265
I2965
sS'TTGTGG'
p3266
I15045
sS'TTTTGA'
p3267
I17929
sS'TGGAAG'
p3268
I9542
sS'TGGAAC'
p3269
I4921
sS'TGGAAA'
p3270
I7729
sS'TGAGGA'
p3271
I6437
sS'AAGAGG'
p3272
I21349
sS'TGAGGC'
p3273
I4223
sS'AAGAGA'
p3274
I19341
sS'AAGAGC'
p3275
I13149
sS'TGAGGG'
p3276
I5311
sS'GCTTAG'
p3277
I6943
sS'GCTTAC'
p3278
I4395
sS'GCTTAA'
p3279
I6410
sS'TGATTC'
p3280
I3163
sS'AAGCGC'
p3281
I3930
sS'AAGAGT'
p3282
I6004
sS'AAGCGA'
p3283
I2644
sS'AAGCGG'
p3284
I4652
sS'GCTTAT'
p3285
I1996
sS'CTGCTA'
p3286
I11944
sS'GCGTGT'
p3287
I1294
sS'CTGCTC'
p3288
I14412
sS'ACTTCT'
p3289
I3611
sS'GACCGT'
p3290
I1965
sS'CTGCTG'
p3291
I39565
sS'CGGTCA'
p3292
I1463
sS'GGTCGT'
p3293
I608
sS'CTAGAG'
p3294
I4446
sS'CTAGAA'
p3295
I5596
sS'CATGAC'
p3296
I10951
sS'GACCGA'
p3297
I3807
sS'GACCGC'
p3298
I6942
sS'ACTTCC'
p3299
I9554
sS'CTGCTT'
p3300
I6044
sS'ACTTCA'
p3301
I8647
sS'TCGGAA'
p3302
I456
sS'CTAGAT'
p3303
I1351
sS'AAGTGT'
p3304
I6790
sS'CATGAA'
p3305
I9651
sS'CGGTCT'
p3306
I706
sS'GGTCGC'
p3307
I2660
sS'GGTCGA'
p3308
I1188
sS'CGTCGC'
p3309
I2622
sS'GCGTGG'
p3310
I4087
sS'ACGTTT'
p3311
I386
sS'GCGTGA'
p3312
I1894
sS'GCGTGC'
p3313
I2633
sS'TGCTCA'
p3314
I24320
sS'TTCATC'
p3315
I13308
sS'TGCTCC'
p3316
I19937
sS'TTCATA'
p3317
I22747
sS'TTCATG'
p3318
I29936
sS'TGCTCG'
p3319
I5359
sS'GTACAA'
p3320
I1893
sS'CAGCAG'
p3321
I13932
sS'GCGGCT'
p3322
I948
sS'CAGCAC'
p3323
I8522
sS'CAGCAA'
p3324
I7552
sS'ACGACT'
p3325
I267
sS'TGCTCT'
p3326
I13178
sS'TTCATT'
p3327
I9012
sS'GTAGCC'
p3328
I3028
sS'GCTGCC'
p3329
I7655
sS'GCTGCA'
p3330
I8765
sS'AACTCT'
p3331
I10295
sS'GCTGCG'
p3332
I4263
sS'TGGCCA'
p3333
I6549
sS'GTAGCA'
p3334
I4617
sS'TCATCT'
p3335
I2541
sS'AACTCA'
p3336
I22391
sS'TGGCCT'
p3337
I2872
sS'AACTCC'
p3338
I17641
sS'GCTGCT'
p3339
I4047
sS'AACTCG'
p3340
I4464
sS'CTACAA'
p3341
I2736
sS'AATATT'
p3342
I3028
sS'GTTCGA'
p3343
I1268
sS'CAACCT'
p3344
I1112
sS'CAGTTA'
p3345
I12868
sS'TGGCCG'
p3346
I2542
sS'TTAGGC'
p3347
I2746
sS'GGCACG'
p3348
I4006
sS'GGCACA'
p3349
I9507
sS'GACAAT'
p3350
I5147
sS'GGCACC'
p3351
I7185
sS'CAACCG'
p3352
I568
sS'CAGAAA'
p3353
I10420
sS'AATATG'
p3354
I15517
sS'CGGTCG'
p3355
I768
sS'AATATA'
p3356
I13198
sS'AGCAAG'
p3357
I22829
sS'AATATC'
p3358
I4417
sS'CTTCGT'
p3359
I1319
sS'GACAAA'
p3360
I20085
sS'GGCACT'
p3361
I4587
sS'GACAAC'
p3362
I11714
sS'ACGACA'
p3363
I608
sS'GACAAG'
p3364
I18409
sS'TGGCCC'
p3365
I5754
sS'ACGGGA'
p3366
I1265
sS'GCAATA'
p3367
I2844
sS'GCAATG'
p3368
I5388
sS'CAAGTG'
p3369
I6440
sS'CGATGG'
p3370
I812
sS'GTTCCC'
p3371
I5118
sS'CGATGC'
p3372
I586
sS'CAGCAT'
p3373
I2476
sS'CGATGA'
p3374
I691
sS'GAATTA'
p3375
I7820
sS'GAATTC'
p3376
I4930
sS'GAATTG'
p3377
I9026
sS'TCCCAA'
p3378
I7960
sS'CGATGT'
p3379
I327
sS'GTAAAA'
p3380
I4806
sS'GTAAAG'
p3381
I4265
sS'TCCCAG'
p3382
I16723
sS'GGATTT'
p3383
I514
sS'GTGCGT'
p3384
I1399
sS'ACGCCG'
p3385
I653
sS'GGATTC'
p3386
I1228
sS'GGATTA'
p3387
I3593
sS'GGATTG'
p3388
I3570
sS'ACCTCT'
p3389
I4892
sS'ATGGTG'
p3390
I7226
sS'ATATAG'
p3391
I2038
sS'TCTGTG'
p3392
I22207
sS'TCTGTC'
p3393
I4772
sS'TCTGTA'
p3394
I10684
sS'GGCGGC'
p3395
I11746
sS'CTCCTT'
p3396
I8051
sS'GGCGGA'
p3397
I6894
sS'GGCGGG'
p3398
I23699
sS'AACCGA'
p3399
I3031
sS'TCTGTT'
p3400
I1890
sS'AAAGCG'
p3401
I1784
sS'CTCCTG'
p3402
I43374
sS'AACCGT'
p3403
I1560
sS'CTCCTA'
p3404
I17787
sS'CTCCTC'
p3405
I28098
sS'GGCGGT'
p3406
I2057
sS'AACAAG'
p3407
I20792
sS'ACGCCT'
p3408
I415
sS'GACGCC'
p3409
I6656
sS'GCACTT'
p3410
I440
sS'AACAAC'
p3411
I16137
sS'CCCACC'
p3412
I16306
sS'ATAGCA'
p3413
I4999
sS'AGCCTT'
p3414
I5614
sS'CCGATT'
p3415
I118
sS'CCCACT'
p3416
I6374
sS'AACAAT'
p3417
I7407
sS'GACGCT'
p3418
I2738
sS'ACCTCC'
p3419
I12334
sS'CCGATA'
p3420
I365
sS'AGCCTG'
p3421
I38838
sS'TCTTGT'
p3422
I5353
sS'AGCCTA'
p3423
I12790
sS'AGCCTC'
p3424
I18365
sS'GTACCC'
p3425
I1121
sS'TGGTTG'
p3426
I11912
sS'TGGTTA'
p3427
I10168
sS'CGCCTT'
p3428
I1822
sS'TGGTTC'
p3429
I4670
sS'CAGAGT'
p3430
I6197
sS'GCATCT'
p3431
I1617
sS'ACCTCG'
p3432
I3810
sS'AGGCAC'
p3433
I5893
sS'CGCCTC'
p3434
I10195
sS'GCGCCA'
p3435
I1445
sS'CGCCTA'
p3436
I3508
sS'GAGTTC'
p3437
I9015
sS'CGCCTG'
p3438
I13789
sS'GAGTTA'
p3439
I14064
sS'CAGAGG'
p3440
I22178
sS'GCATCC'
p3441
I2725
sS'GCATCA'
p3442
I3132
sS'CAGAGC'
p3443
I16747
sS'GCATCG'
p3444
I722
sS'CAGAGA'
p3445
I17303
sS'AATCAT'
p3446
I5585
sS'TAGCTA'
p3447
I7627
sS'CCGATC'
p3448
I222
sS'CCTAGA'
p3449
I4980
sS'CCTAGC'
p3450
I4192
sS'TTTGCT'
p3451
I4325
sS'TAGCTC'
p3452
I5196
sS'TGCGGT'
p3453
I1439
sS'CCTAGG'
p3454
I6076
sS'TAAGCA'
p3455
I7365
sS'ACGTTG'
p3456
I2285
sS'TGCGGC'
p3457
I5227
sS'TGCGGA'
p3458
I2891
sS'CCTAGT'
p3459
I2318
sS'TGCGGG'
p3460
I6492
sS'TTTGCG'
p3461
I1816
sS'TGAGTT'
p3462
I628
sS'TAGCTG'
p3463
I14448
sS'ATCGCT'
p3464
I695
sS'ATCGCC'
p3465
I1583
sS'TGAGTG'
p3466
I6192
sS'ATCGCA'
p3467
I1332
sS'TGAGTA'
p3468
I4443
sS'ATCGCG'
p3469
I948
sS'TGAGTC'
p3470
I3212
sS'AAAATT'
p3471
I775
sS'AAGGTG'
p3472
I8139
sS'ACGGCT'
p3473
I355
sS'CATCAT'
p3474
I4440
sS'AAGGTA'
p3475
I5131
sS'ACGGCA'
p3476
I1057
sS'CATCAC'
p3477
I12493
sS'ACGGCC'
p3478
I1207
sS'CATCAA'
p3479
I9322
sS'CATCAG'
p3480
I14353
sS'ACGGCG'
p3481
I702
sS'TCACCT'
p3482
I949
sS'TCTAAG'
p3483
I6612
sS'AGATAC'
p3484
I1854
sS'CGGAAT'
p3485
I418
sS'CAATTC'
p3486
I2016
sS'ATCGAT'
p3487
I185
sS'TCACCG'
p3488
I647
sS'TCACCA'
p3489
I2546
sS'TCACCC'
p3490
I1712
sS'CGGAAG'
p3491
I4166
sS'CAACCC'
p3492
I1808
sS'AACTGG'
p3493
I23696
sS'CGGCCT'
p3494
I1141
sS'CGGAAC'
p3495
I1669
sS'AGCTCG'
p3496
I6264
sS'CGGAAA'
p3497
I1663
sS'TAGCTT'
p3498
I1887
sS'ATGGCG'
p3499
I1566
sS'TGTGTA'
p3500
I14714
sS'TGTGTG'
p3501
I40604
sS'ATGGCA'
p3502
I6099
sS'TTACTT'
p3503
I917
sS'TTCAGA'
p3504
I27577
sS'ATGGCT'
p3505
I2430
sS'TGTGTT'
p3506
I2575
sS'AGATTA'
p3507
I4573
sS'GAAACG'
p3508
I2395
sS'GAAACA'
p3509
I11318
sS'GAAACC'
p3510
I7256
sS'CTATGT'
p3511
I4775
sS'CTGAGT'
p3512
I7408
sS'GAAACT'
p3513
I3801
sS'AGAATG'
p3514
I11651
sS'AGAATA'
p3515
I5797
sS'AGAATC'
p3516
I2107
sS'CTGAGC'
p3517
I11034
sS'CTGAGA'
p3518
I11871
sS'CTGAGG'
p3519
I15676
sS'CATACC'
p3520
I5752
sS'CATACA'
p3521
I9897
sS'CATACG'
p3522
I1641
sS'GCAATC'
p3523
I928
sS'TCAAAT'
p3524
I1182
sS'GTCCAT'
p3525
I2264
sS'AGGGGT'
p3526
I1871
sS'CAGGAC'
p3527
I6333
sS'ACGCCC'
p3528
I1406
sS'AATGGC'
p3529
I8295
sS'GTCCAG'
p3530
I12415
sS'CAAGCT'
p3531
I3307
sS'TCAAAG'
p3532
I3287
sS'GTCCAC'
p3533
I7413
sS'GTCCAA'
p3534
I7186
sS'CGGCGG'
p3535
I5918
sS'TTGATG'
p3536
I8726
sS'ATCGAG'
p3537
I1229
sS'CGGCGC'
p3538
I4263
sS'TTGATC'
p3539
I1721
sS'CGGCGA'
p3540
I1461
sS'TTGATA'
p3541
I5221
sS'CTATCT'
p3542
I2872
sS'TTGATT'
p3543
I1399
sS'CGTACC'
p3544
I883
sS'ATGGCC'
p3545
I4077
sS'GTACGC'
p3546
I553
sS'TATAAG'
p3547
I9742
sS'TGACTT'
p3548
I548
sS'CGAGTA'
p3549
I498
sS'CGGTTA'
p3550
I1375
sS'GGTTTA'
p3551
I12556
sS'CGGTTC'
p3552
I1145
sS'GGTTTC'
p3553
I9733
sS'CGGTTG'
p3554
I2462
sS'GGTTTG'
p3555
I18728
sS'TATAAA'
p3556
I19691
sS'TCCAAA'
p3557
I13269
sS'GCTGTG'
p3558
I20297
sS'GGTTTT'
p3559
I2971
sS'CGGTTT'
p3560
I388
sS'GCTGTA'
p3561
I7739
sS'TATGCG'
p3562
I1502
sS'AGGTTG'
p3563
I10100
sS'AGGTTC'
p3564
I3688
sS'ATATTT'
p3565
I2278
sS'AGGTTA'
p3566
I7599
sS'GAGGGA'
p3567
I22233
sS'TTTTTC'
p3568
I15577
sS'GAGGGC'
p3569
I15557
sS'TTTTTA'
p3570
I35163
sS'TCCTCT'
p3571
I12995
sS'TTTTTG'
p3572
I31130
sS'TCCATG'
p3573
I20456
sS'TTAAAT'
p3574
I2918
sS'AGGTTT'
p3575
I2061
sS'TAAGCG'
p3576
I1080
sS'AGGGGG'
p3577
I8370
sS'TTAAAC'
p3578
I4935
sS'TTAAAA'
p3579
I9955
sS'ACTCCG'
p3580
I1339
sS'TTAAAG'
p3581
I6807
sS'TCCATT'
p3582
I4148
sS'TTTTTT'
p3583
I6536
sS'ACTCCC'
p3584
I3348
sS'TAGGCT'
p3585
I2313
sS'GTCACG'
p3586
I5846
sS'CTGTAC'
p3587
I4921
sS'GCAACT'
p3588
I1301
sS'GTCACC'
p3589
I12900
sS'CTGTAG'
p3590
I6407
sS'GTCACA'
p3591
I17205
sS'ACTTAT'
p3592
I1795
sS'GCAACG'
p3593
I918
sS'GTCACT'
p3594
I9785
sS'TAGGCG'
p3595
I1739
sS'ACGAAA'
p3596
I556
sS'TAGGCA'
p3597
I6897
sS'GCAACA'
p3598
I3576
sS'TAGGCC'
p3599
I4592
sS'ATTCAT'
p3600
I3038
sS'TCCCAC'
p3601
I10726
sS'GCGATT'
p3602
I123
sS'TCGTGT'
p3603
I749
sS'TTCACT'
p3604
I11982
sS'ACAGAT'
p3605
I1083
sS'GTCTCT'
p3606
I12808
sS'AACATT'
p3607
I6775
sS'ATTCAG'
p3608
I9186
sS'ATTCAA'
p3609
I7427
sS'ATTCAC'
p3610
I6570
sS'TTCACG'
p3611
I4216
sS'GTCTCA'
p3612
I21639
sS'GCGATG'
p3613
I1604
sS'TTCACC'
p3614
I12046
sS'GCGATA'
p3615
I515
sS'TTCACA'
p3616
I22499
sS'GCGATC'
p3617
I294
sS'GAAGGC'
p3618
I9434
sS'GAAGGA'
p3619
I14839
sS'GAAGGG'
p3620
I14973
sS'CGATTA'
p3621
I418
sS'GGAACC'
p3622
I2605
sS'GGAACA'
p3623
I3671
sS'GGAACG'
p3624
I1126
sS'TACTGC'
p3625
I19947
sS'TCATAC'
p3626
I1790
sS'GAAGGT'
p3627
I2972
sS'CTCGCT'
p3628
I2612
sS'CAATCG'
p3629
I817
sS'CAATCA'
p3630
I3696
sS'CAATCC'
p3631
I2698
sS'TCCTGA'
p3632
I23898
sS'AGTCCA'
p3633
I5614
sS'TCCTGC'
p3634
I31889
sS'AGTCCC'
p3635
I5691
sS'ACTAAA'
p3636
I5694
sS'TCCTGG'
p3637
I35718
sS'ACTAAC'
p3638
I4031
sS'TAACGC'
p3639
I767
sS'CAGCTG'
p3640
I30893
sS'CAGCTA'
p3641
I9332
sS'CAGCTC'
p3642
I8823
sS'ACTAAT'
p3643
I1714
sS'CGACTC'
p3644
I283
sS'AGTCCT'
p3645
I2600
sS'TCCTGT'
p3646
I15297
sS'TAATGT'
p3647
I4068
sS'CAGCTT'
p3648
I2146
sS'AATTCT'
p3649
I7157
sS'TAACGT'
p3650
I453
sS'AGCCAG'
p3651
I23940
sS'GTACTT'
p3652
I636
sS'CGACAT'
p3653
I74
sS'TTGTTC'
p3654
I7423
sS'CGCAAG'
p3655
I3748
sS'CCGAGG'
p3656
I3451
sS'TTGTTG'
p3657
I17333
sS'CAGGCC'
p3658
I11763
sS'CCGAGC'
p3659
I2160
sS'CCGCGT'
p3660
I371
sS'GTACTG'
p3661
I4213
sS'CGACAA'
p3662
I192
sS'CGACAG'
p3663
I397
sS'GTACTA'
p3664
I2177
sS'CCGCGC'
p3665
I2366
sS'GGAGGA'
p3666
I9054
sS'CCGCGA'
p3667
I865
sS'TACGCA'
p3668
I2414
sS'CCGCGG'
p3669
I2654
sS'TTGTTT'
p3670
I5778
sS'TCCGTT'
p3671
I654
sS'AGCCAA'
p3672
I17012
sS'AATAAC'
p3673
I11618
sS'AATAAA'
p3674
I23990
sS'AATAAG'
p3675
I13774
sS'CTGCGC'
p3676
I5423
sS'AATAAT'
p3677
I5221
sS'ACGGTG'
p3678
I1536
sS'CCAACC'
p3679
I2712
sS'CTCAGT'
p3680
I15009
sS'CCAACG'
p3681
I778
sS'GGGATT'
p3682
I983
sS'CGCCGC'
p3683
I19515
sS'AGTAAA'
p3684
I11789
sS'CGCCGA'
p3685
I3963
sS'GAGTAG'
p3686
I8197
sS'CGCCGG'
p3687
I10915
sS'GAGTAA'
p3688
I11560
sS'GAGTAC'
p3689
I5122
sS'CTCAGG'
p3690
I31765
sS'CTCAGC'
p3691
I33625
sS'CTCAGA'
p3692
I28898
sS'AAAGAG'
p3693
I7835
sS'TCGAGA'
p3694
I790
sS'GTGTAG'
p3695
I5161
sS'TCGAGC'
p3696
I855
sS'GTGTAA'
p3697
I6001
sS'GTGTAC'
p3698
I4108
sS'CGCCGT'
p3699
I1814
sS'GTGGCA'
p3700
I8319
sS'GTGGCC'
p3701
I8720
sS'GCTTCC'
p3702
I12501
sS'CTCGGC'
p3703
I7803
sS'GCCGCC'
p3704
I11137
sS'GCCGCA'
p3705
I4819
sS'GCCGCG'
p3706
I7128
sS'ACACTT'
p3707
I448
sS'CTCGGT'
p3708
I1682
sS'AGATAT'
p3709
I1067
sS'TCGCTC'
p3710
I917
sS'GTGGCT'
p3711
I4769
sS'CATATA'
p3712
I10273
sS'CAGTCG'
p3713
I2154
sS'ACACTC'
p3714
I1022
sS'ACACTA'
p3715
I1927
sS'ACACTG'
p3716
I4932
sS'GCCGCT'
p3717
I2411
sS'ACCGGA'
p3718
I2153
sS'AAATAA'
p3719
I6528
sS'ACCGGC'
p3720
I2504
sS'AAATAC'
p3721
I4650
sS'CTTTAA'
p3722
I16134
sS'ACCGGG'
p3723
I3215
sS'CTTTAC'
p3724
I8537
sS'CACGAG'
p3725
I3778
sS'CAGGTA'
p3726
I2428
sS'AACTTC'
p3727
I20419
sS'CAGGTC'
p3728
I2512
sS'CACGAC'
p3729
I2390
sS'AACTTG'
p3730
I33702
sS'CAGGTG'
p3731
I6135
sS'CTTTAT'
p3732
I4921
sS'AATCCC'
p3733
I6688
sS'GCTCGT'
p3734
I780
sS'AATCCA'
p3735
I7579
sS'AAATAT'
p3736
I2271
sS'AATCCG'
p3737
I1783
sS'CAGTCA'
p3738
I12222
sS'CAGGTT'
p3739
I756
sS'AACTTT'
p3740
I8380
sS'GGGATA'
p3741
I3269
sS'GGGATC'
p3742
I1542
sS'GGGTGT'
p3743
I3569
sS'GGGATG'
p3744
I9185
sS'GATGCT'
p3745
I4889
sS'CGCAGT'
p3746
I3383
sS'GAGCCT'
p3747
I5351
sS'GGAGAC'
p3748
I2522
sS'GGGTGA'
p3749
I6841
sS'GGAGAA'
p3750
I4690
sS'GGGTGC'
p3751
I4963
sS'GGAGAG'
p3752
I4862
sS'AATCAA'
p3753
I10750
sS'GGGTGG'
p3754
I13188
sS'GAGCCA'
p3755
I13669
sS'CGCAGG'
p3756
I11945
sS'GATGCG'
p3757
I3018
sS'CGCAGA'
p3758
I6294
sS'GATGCA'
p3759
I10814
sS'CGCAGC'
p3760
I12191
sS'GATGCC'
p3761
I7320
sS'CGGATT'
p3762
I186
sS'GGTAGT'
p3763
I2080
sS'ACCCCT'
p3764
I1685
sS'GCCAAT'
p3765
I4379
sS'AACCGC'
p3766
I4676
sS'AGAAGT'
p3767
I3735
sS'GCCAAC'
p3768
I7719
sS'GGTAGA'
p3769
I4914
sS'ACCCCC'
p3770
I4047
sS'CGGATG'
p3771
I2228
sS'GCCAAG'
p3772
I15275
sS'CGGATA'
p3773
I740
sS'ACCCCG'
p3774
I2719
sS'CGGATC'
p3775
I539
sS'AGAAGA'
p3776
I8997
sS'AGAAGC'
p3777
I7783
sS'GCAAGA'
p3778
I4658
sS'AGAAGG'
p3779
I11725
sS'CACTCC'
p3780
I21085
sS'CACTCA'
p3781
I25800
sS'CACTCG'
p3782
I5971
sS'TGCGTT'
p3783
I753
sS'TCAGCT'
p3784
I2458
sS'AGCTTT'
p3785
I10495
sS'CCCCGG'
p3786
I8927
sS'TGCGTA'
p3787
I2535
sS'CCCCGC'
p3788
I16826
sS'CACTCT'
p3789
I11559
sS'AGCTTC'
p3790
I23987
sS'GAGCCC'
p3791
I12165
sS'AGCTTA'
p3792
I22780
sS'AGCTTG'
p3793
I33479
sS'ATACGA'
p3794
I500
sS'CCACTT'
p3795
I534
sS'AGAGTA'
p3796
I3399
sS'TTAGCT'
p3797
I2826
sS'TTAGCC'
p3798
I3026
sS'TTAGCA'
p3799
I6040
sS'CTAGCA'
p3800
I5332
sS'TTAGCG'
p3801
I942
sS'CTTCAT'
p3802
I3287
sS'AAGGGG'
p3803
I13205
sS'ATAAGG'
p3804
I5197
sS'TGTGCT'
p3805
I3361
sS'AAGGGC'
p3806
I9826
sS'ATAAGC'
p3807
I3862
sS'AAGGGA'
p3808
I13740
sS'ATAAGA'
p3809
I6060
sS'CCAGAC'
p3810
I2154
sS'CCAGAA'
p3811
I4988
sS'CCAGAG'
p3812
I4700
sS'GCAAGT'
p3813
I1973
sS'TGTGCG'
p3814
I2955
sS'ATAAGT'
p3815
I2267
sS'AAGGGT'
p3816
I2893
sS'TGTGCC'
p3817
I4802
sS'ATAGGA'
p3818
I4523
sS'AGGTAG'
p3819
I3008
sS'ATAGGC'
p3820
I2182
sS'TAAGTT'
p3821
I828
sS'ATACGC'
p3822
I442
sS'AGACCG'
p3823
I506
sS'CCAGAT'
p3824
I1119
sS'AGACAA'
p3825
I2072
sS'GACGCA'
p3826
I5462
sS'AGACAC'
p3827
I2187
sS'AGACAG'
p3828
I3301
sS'GCTTTT'
p3829
I3554
sS'TTTTCT'
p3830
I9822
sS'CGCTGT'
p3831
I4493
sS'CCCACG'
p3832
I6040
sS'CGTGGG'
p3833
I5332
sS'CTATAG'
p3834
I2266
sS'CGTGGC'
p3835
I4070
sS'CGTGGA'
p3836
I2652
sS'TTTTCG'
p3837
I2338
sS'CGCTGA'
p3838
I7649
sS'CGCTGC'
p3839
I15771
sS'TTTTCC'
p3840
I15930
sS'TTTTCA'
p3841
I17233
sS'CGCTGG'
p3842
I13219
sS'TATGGA'
p3843
I7086
sS'TATGGC'
p3844
I5696
sS'CGTAGG'
p3845
I2272
sS'ATCGTC'
p3846
I880
sS'AACAAA'
p3847
I31497
sS'TATGGG'
p3848
I7052
sS'CGTAGC'
p3849
I1983
sS'TACCGT'
p3850
I1237
sS'TGGACT'
p3851
I2405
sS'CGTAGT'
p3852
I1073
sS'GCTCGA'
p3853
I1664
sS'TATGGT'
p3854
I3105
sS'ATTCCT'
p3855
I3171
sS'TGGACA'
p3856
I5512
sS'TGGACC'
p3857
I3197
sS'TGGACG'
p3858
I1550
sS'CCGGTT'
p3859
I121
sS'CTAGCT'
p3860
I2766
sS'GCTTGA'
p3861
I7913
sS'TGAGAC'
p3862
I2498
sS'GCTTGC'
p3863
I8826
sS'TGAGAA'
p3864
I4751
sS'TGAGAG'
p3865
I3676
sS'GCTTGG'
p3866
I12159
sS'CCTGTT'
p3867
I1288
sS'CGTCTC'
p3868
I2960
sS'AGGATT'
p3869
I1465
sS'CCGGTA'
p3870
I609
sS'CCTGTC'
p3871
I3397
sS'CCTGTA'
p3872
I6539
sS'CCTGTG'
p3873
I16200
sS'GCTTGT'
p3874
I4476
sS'TGAGAT'
p3875
I1088
sS'GGTTGT'
p3876
I4137
sS'TATCAG'
p3877
I10221
sS'ACAATA'
p3878
I3361
sS'GGTTGG'
p3879
I10177
sS'CTGAAT'
p3880
I2468
sS'GGTTGA'
p3881
I7459
sS'GGTTGC'
p3882
I8398
sS'ACTATT'
p3883
I1009
sS'TCCCGC'
p3884
I9783
sS'TCCCGA'
p3885
I3326
sS'TCCCGG'
p3886
I9592
sS'TGCTAT'
p3887
I6875
sS'CGTTTT'
p3888
I1150
sS'ATTCTC'
p3889
I5279
sS'ATTCTA'
p3890
I8676
sS'ATTCTG'
p3891
I15145
sS'TCATTT'
p3892
I1874
sS'TGCTAC'
p3893
I11346
sS'TGCTAA'
p3894
I18535
sS'TGCTAG'
p3895
I13320
sS'CAGCGG'
p3896
I5855
sS'AGGATC'
p3897
I2609
sS'TCATTC'
p3898
I4416
sS'CGTTTG'
p3899
I6119
sS'CGTTTA'
p3900
I4119
sS'ATTCTT'
p3901
I2132
sS'CGTTTC'
p3902
I3858
sS'CCACTC'
p3903
I1133
sS'TGGCAA'
p3904
I3843
sS'TGGCAC'
p3905
I3430
sS'TGGCAG'
p3906
I6994
sS'GCTGAG'
p3907
I12499
sS'ACAATC'
p3908
I966
sS'GCTGAC'
p3909
I7001
sS'TGGCAT'
p3910
I1424
sS'GGCCGG'
p3911
I14289
sS'NNGATC'
p3912
I1
sS'CCGATG'
p3913
I1081
sS'GGCCGC'
p3914
I14564
sS'GAACTT'
p3915
I616
sS'GGCCGA'
p3916
I5199
sS'GGCAAT'
p3917
I2905
sS'CTGATT'
p3918
I1973
sS'NCCCAC'
p3919
I1
sS'CCATCG'
p3920
I713
sS'CTAAAT'
p3921
I1925
sS'CCATCC'
p3922
I3534
sS'CCATCA'
p3923
I3078
sS'GGCAAG'
p3924
I13477
sS'CTGATA'
p3925
I5915
sS'GTACCA'
p3926
I1984
sS'CTGATG'
p3927
I12984
sS'GGCAAA'
p3928
I10841
sS'CTAAAG'
p3929
I4642
sS'CCATCT'
p3930
I2266
sS'CTAAAC'
p3931
I3758
sS'TTGCGT'
p3932
I746
sS'GACACC'
p3933
I11628
sS'GACACA'
p3934
I23292
sS'GACACG'
p3935
I5984
sS'GCGCCT'
p3936
I873
sS'CGTATA'
p3937
I1067
sS'TACGAG'
p3938
I1947
sS'TACGAC'
p3939
I1413
sS'GACACT'
p3940
I9015
sS'GGCGAT'
p3941
I558
sS'AGTCCG'
p3942
I1843
sS'ACGCTG'
p3943
I2707
sS'CTATTA'
p3944
I8764
sS'CTATTC'
p3945
I3978
sS'TCGATG'
p3946
I943
sS'TCGATA'
p3947
I335
sS'NCCACC'
p3948
I1
sS'TCGATC'
p3949
I146
sS'CTATTT'
p3950
I2786
sS'CGCGAA'
p3951
I1382
sS'GCATTG'
p3952
I5847
sS'CAGCCT'
p3953
I4931
sS'TCGATT'
p3954
I107
sS'GAGTTG'
p3955
I18747
sS'AACCAA'
p3956
I13843
sS'TGCCGG'
p3957
I7349
sS'AACCAC'
p3958
I17123
sS'TGCCGC'
p3959
I7665
sS'AACCAG'
p3960
I15036
sS'TGCCGA'
p3961
I3039
sS'TTGGAC'
p3962
I2745
sS'TCTGGA'
p3963
I7108
sS'GCGCCG'
p3964
I1779
sS'TGCCGT'
p3965
I1900
sS'AACCAT'
p3966
I3990
sS'AACAGA'
p3967
I29919
sS'CTACCG'
p3968
I805
sS'AACAGC'
p3969
I25254
sS'ACGTCC'
p3970
I1285
sS'AACAGG'
p3971
I24323
sS'ACGTCA'
p3972
I2199
sS'CCCAAG'
p3973
I11659
sS'GCGGAA'
p3974
I1071
sS'GACGAA'
p3975
I2729
sS'CCCAAC'
p3976
I8120
sS'CCCAAA'
p3977
I8375
sS'CAATAT'
p3978
I773
sS'GGGAGG'
p3979
I26009
sS'GGGAGA'
p3980
I10779
sS'AACAGT'
p3981
I13182
sS'GGGAGC'
p3982
I9989
sS'ACGAAG'
p3983
I938
sS'CCCAAT'
p3984
I2187
sS'GACGAT'
p3985
I869
sS'GGGCGC'
p3986
I5003
sS'GGGCGA'
p3987
I2486
sS'NGCGCC'
p3988
I1
sS'GGGCGG'
p3989
I13486
sS'TCTCTT'
p3990
I2507
sS'AGGCAT'
p3991
I2284
sS'CAGAAT'
p3992
I2623
sS'GTACAC'
p3993
I1325
sS'TCTCTC'
p3994
I9670
sS'TCTCTA'
p3995
I10756
sS'TCTCTG'
p3996
I25067
sS'GGGCGT'
p3997
I1169
sS'ACGACC'
p3998
I547
sS'CAGAAC'
p3999
I7798
sS'ACGACG'
p4000
I369
sS'CAGAAG'
p4001
I12902
sS'TAAGTG'
p4002
I8140
sS'CACTTT'
p4003
I9715
sS'CATATT'
p4004
I2618
sS'CCTAAT'
p4005
I1204
sS'GTCATT'
p4006
I5484
sS'CACTTG'
p4007
I34294
sS'CCTAAC'
p4008
I3299
sS'CTACCC'
p4009
I2389
sS'CCTAAA'
p4010
I4014
sS'CACTTC'
p4011
I25933
sS'CCTAAG'
p4012
I4569
sS'CACTTA'
p4013
I28622
sS'GCGGAT'
p4014
I158
sS'AATCCT'
p4015
I3404
sS'GTCCCC'
p4016
I9295
sS'AAGATT'
p4017
I1574
sS'CTCATG'
p4018
I28283
sS'GACTCG'
p4019
I8409
sS'CTCATC'
p4020
I13347
sS'GACTCC'
p4021
I22434
sS'CTCATA'
p4022
I17985
sS'GACTCA'
p4023
I54277
sS'AAGATA'
p4024
I9907
sS'AGTCGG'
p4025
I3494
sS'AAGATG'
p4026
I16197
sS'GACTCT'
p4027
I13754
sS'GTCCCG'
p4028
I5858
sS'ATCGAA'
p4029
I854
sS'ATCGAC'
p4030
I818
sS'GCATTA'
p4031
I4417
sS'ACGGTA'
p4032
I594
sS'GGACTC'
p4033
I737
sS'ATAGTT'
p4034
I791
sS'TACTGT'
p4035
I15517
sS'ATATTC'
p4036
I3198
sS'ATATTA'
p4037
I8043
sS'ATATTG'
p4038
I7244
sS'ATAGTA'
p4039
I3253
sS'TACTGA'
p4040
I23243
sS'TACTGG'
p4041
I19722
sS'ATAGTG'
p4042
I3956
sS'ATAGAC'
p4043
I1627
sS'CAGGCA'
p4044
I13653
sS'AGGAAG'
p4045
I18071
sS'CATCCG'
p4046
I2285
sS'AGGAAA'
p4047
I11978
sS'CATCCA'
p4048
I8220
sS'AGGAAC'
p4049
I6891
sS'CATCCC'
p4050
I7975
sS'TTATGA'
p4051
I6909
sS'TTATGC'
p4052
I4613
sS'CGGAGT'
p4053
I1275
sS'TTATGG'
p4054
I5600
sS'CATCCT'
p4055
I4197
sS'AGGAAT'
p4056
I3721
sS'CAGGCT'
p4057
I4701
sS'ACGGAT'
p4058
I116
sS'CGGAGA'
p4059
I2982
sS'CGGAGC'
p4060
I5187
sS'TTATGT'
p4061
I5195
sS'CGGAGG'
p4062
I6861
sS'ATGGAA'
p4063
I5180
sS'ATGGAC'
p4064
I2188
sS'ATGGAG'
p4065
I4483
sS'CGCTTG'
p4066
I8377
sS'CGCTTA'
p4067
I4279
sS'CGCTTC'
p4068
I7777
sS'ATGGAT'
p4069
I867
sS'TTTGCA'
p4070
I9993
sS'CGCTTT'
p4071
I2404
sS'AAGCTA'
p4072
I10168
sS'TTTGCC'
p4073
I5582
sS'GAAAAG'
p4074
I11931
sS'CATACT'
p4075
I4517
sS'GAAAAC'
p4076
I8748
sS'ATAGAT'
p4077
I1033
sS'GAAAAA'
p4078
I8466
sS'TAAGTA'
p4079
I5933
sS'AGACCT'
p4080
I759
sS'ACGGTT'
p4081
I121
sS'GAAAAT'
p4082
I2444
sS'CAACAG'
p4083
I2703
sS'CGGCAT'
p4084
I320
sS'ACAAGG'
p4085
I4720
sS'ACAAGA'
p4086
I4226
sS'ACAAGC'
p4087
I3130
sS'ACACGT'
p4088
I383
sS'CTGCGT'
p4089
I1582
sS'GCGGAG'
p4090
I2823
sS'CATAAG'
p4091
I9243
sS'GTCCCT'
p4092
I5147
sS'CATAAA'
p4093
I13434
sS'GCGGAC'
p4094
I987
sS'CATAAC'
p4095
I7864
sS'ACACGC'
p4096
I827
sS'ACAAGT'
p4097
I1682
sS'ACACGA'
p4098
I587
sS'ACACGG'
p4099
I841
sS'CATAAT'
p4100
I3476
sS'GTCCCA'
p4101
I9700
sS'CTGCGG'
p4102
I6309
sS'CTGCGA'
p4103
I2326
sS'GAAATA'
p4104
I10426
sS'CGGCAA'
p4105
I831
sS'CGGCAC'
p4106
I1459
sS'CGGCAG'
p4107
I2870
sS'CCTCCT'
p4108
I4502
sS'NNNGAA'
p4109
I3
sS'CAGGCG'
p4110
I4920
sS'CCTCCC'
p4111
I10024
sS'CCTCCA'
p4112
I6856
sS'CCTCCG'
p4113
I3042
s.