(dp0
S'GAACGT'
p1
I12339
sS'CTTCTT'
p2
I85011
sS'CACCCT'
p3
I83172
sS'ATTGAA'
p4
I36115
sS'GAACGG'
p5
I17616
sS'GAACGC'
p6
I17884
sS'GAACGA'
p7
I11823
sS'CACCCA'
p8
I87048
sS'CTTCTA'
p9
I42780
sS'CACCCC'
p10
I119428
sS'CTTCTC'
p11
I106753
sS'CACCCG'
p12
I41968
sS'CTTCTG'
p13
I94175
sS'GTCTCG'
p14
I22519
sS'CGTGTG'
p15
I29681
sS'TAAGGT'
p16
I26562
sS'CGTGTC'
p17
I19176
sS'CGTGTA'
p18
I9289
sS'AGGCAA'
p19
I65974
sS'TAAGGG'
p20
I36558
sS'CGTGTT'
p21
I16668
sS'TAAGGC'
p22
I31403
sS'TAAGGA'
p23
I45112
sS'GTCAAA'
p24
I33998
sS'GTCAAC'
p25
I20281
sS'GTCAAG'
p26
I33221
sS'CTGTCC'
p27
I84955
sS'TCAGAG'
p28
I88517
sS'CTGTCA'
p29
I61831
sS'CTGTCG'
p30
I21365
sS'TCAGAC'
p31
I45797
sS'TCAGAA'
p32
I73380
sS'GTCAAT'
p33
I20292
sS'GTATCA'
p34
I18203
sS'TCAGAT'
p35
I46261
sS'GTATCG'
p36
I4129
sS'CTGTCT'
p37
I90177
sS'GGTGTC'
p38
I45985
sS'GGTGTA'
p39
I21533
sS'GGTGTG'
p40
I69001
sS'TATCCT'
p41
I31019
sS'CCGGGG'
p42
I96584
sS'TTCTGT'
p43
I80086
sS'AGAGGT'
p44
I65825
sS'CCGGGC'
p45
I101462
sS'CCGGGA'
p46
I69832
sS'TATCCA'
p47
I26704
sS'TATCCC'
p48
I27634
sS'GTTCTG'
p49
I58403
sS'TATCCG'
p50
I6515
sS'GGTGTT'
p51
I42557
sS'ATTCCG'
p52
I13368
sS'TTCTGG'
p53
I86379
sS'CCGGGT'
p54
I42514
sS'ATTCCC'
p55
I56631
sS'TTCTGC'
p56
I80561
sS'ATTCCA'
p57
I64371
sS'TTCTGA'
p58
I73339
sS'TGCACT'
p59
I52729
sS'GGNCCC'
p60
I1
sS'GGNCCG'
p61
I1
sS'CGTCAT'
p62
I10457
sS'CGCGGT'
p63
I24580
sS'AGGGAG'
p64
I168950
sS'ACGAAC'
p65
I8301
sS'CGCGGG'
p66
I75638
sS'NCCGCC'
p67
I1
sS'CGCGGC'
p68
I73995
sS'CGCGGA'
p69
I31563
sS'GTCCTT'
p70
I51686
sS'ACCTGT'
p71
I51659
sS'TCATGT'
p72
I35685
sS'CTCCGA'
p73
I28512
sS'TTACAG'
p74
I58139
sS'CTCCGC'
p75
I71161
sS'TTACAA'
p76
I43702
sS'TTACAC'
p77
I27410
sS'CTCCGG'
p78
I58278
sS'TCATGC'
p79
I36414
sS'ACCTGG'
p80
I91199
sS'GGCGAA'
p81
I19358
sS'GTAAGC'
p82
I21873
sS'TCATGG'
p83
I41746
sS'ACCTGC'
p84
I76983
sS'GCGCNN'
p85
I1
sS'ACCTGA'
p86
I54003
sS'TCACTC'
p87
I57668
sS'TTACAT'
p88
I40578
sS'CTCGAT'
p89
I9692
sS'CTCCGT'
p90
I30306
sS'GCCTGA'
p91
I74572
sS'GCCTGC'
p92
I111351
sS'GCCTGG'
p93
I169023
sS'TCTTGC'
p94
I53861
sS'TAAAGG'
p95
I48984
sS'CAAATT'
p96
I52388
sS'TAAAGA'
p97
I55214
sS'TAAAGC'
p98
I40169
sS'GCCTGT'
p99
I79189
sS'TCCCCG'
p100
I73221
sS'TAAAGT'
p101
I39793
sS'CAAATA'
p102
I49764
sS'ACGTCC'
p103
I17253
sS'CAAATC'
p104
I44550
sS'TGCAAT'
p105
I38383
sS'CAAATG'
p106
I62256
sS'AATACT'
p107
I32446
sS'CGTCAC'
p108
I17218
sS'TCGATT'
p109
I7852
sS'GGCATG'
p110
I48862
sS'GGCATA'
p111
I21387
sS'GGCATC'
p112
I42749
sS'AATACG'
p113
I8306
sS'AATACA'
p114
I46183
sS'AATACC'
p115
I26940
sS'GGCATT'
p116
I47501
sS'CGTCAG'
p117
I19835
sS'CTTGGT'
p118
I49586
sS'GAGCAC'
p119
I51280
sS'ACTGAT'
p120
I32450
sS'CATATC'
p121
I18889
sS'GAGCAG'
p122
I110344
sS'AGTAGT'
p123
I23262
sS'TCTCGC'
p124
I27424
sS'TCTCGA'
p125
I14921
sS'TCTCGG'
p126
I33610
sS'ACTGAG'
p127
I68366
sS'ATACAA'
p128
I34078
sS'ACTGAC'
p129
I37663
sS'GAGCAT'
p130
I37726
sS'ACGGCC'
p131
I27372
sS'TCTCGT'
p132
I13786
sS'GTGTCG'
p133
I13191
sS'TCGAAC'
p134
I9548
sS'TCTNCC'
p135
I1
sS'TCGAAA'
p136
I9967
sS'GTGTCC'
p137
I52564
sS'TCGAAG'
p138
I12735
sS'GTGTCA'
p139
I39610
sS'CTTGCT'
p140
I71054
sS'CCGTCT'
p141
I29452
sS'GTGTCT'
p142
I56256
sS'TTGAAG'
p143
I50422
sS'TCGAAT'
p144
I8337
sS'CTTGCG'
p145
I17680
sS'CTTGCA'
p146
I52597
sS'CTTGCC'
p147
I63328
sS'CGAAAG'
p148
I16778
sS'CGAAAA'
p149
I14675
sS'CGAAAC'
p150
I12464
sS'CACGGA'
p151
I25383
sS'ACAGTG'
p152
I61041
sS'CACGGC'
p153
I33710
sS'AAATGA'
p154
I79360
sS'AAATGG'
p155
I69498
sS'CACGGG'
p156
I33687
sS'ACAGTA'
p157
I32388
sS'TAGAGC'
p158
I33174
sS'CGAAAT'
p159
I10603
sS'ACAGTT'
p160
I43191
sS'AATCAG'
p161
I51778
sS'CGTCGT'
p162
I7112
sS'AAATGT'
p163
I73212
sS'AATCAC'
p164
I41063
sS'TTTGTA'
p165
I53157
sS'TCTAGT'
p166
I29448
sS'TTGCCG'
p167
I17006
sS'TTGCCA'
p168
I53291
sS'TTGCCC'
p169
I59262
sS'GGGTAC'
p170
I21405
sS'TCTAGG'
p171
I43874
sS'GGGTAA'
p172
I31068
sS'TCTAGA'
p173
I37533
sS'GGGTAG'
p174
I40015
sS'TCTAGC'
p175
I31168
sS'ATACGG'
p176
I6582
sS'ATACAT'
p177
I30188
sS'TGGGCC'
p178
I91528
sS'AGATGT'
p179
I44198
sS'TCGCCC'
p180
I40324
sS'AGNNNN'
p181
I1
sS'TCGCCA'
p182
I20886
sS'TCGCCG'
p183
I23269
sS'GGTAAT'
p184
I23975
sS'ACCCAT'
p185
I33077
sS'CTCACC'
p186
I83218
sS'ACCCAC'
p187
I60417
sS'GGTAAC'
p188
I23149
sS'ACCCAA'
p189
I45567
sS'AGATGG'
p190
I72006
sS'ACCCAG'
p191
I96623
sS'AGATGA'
p192
I56375
sS'TCGCCT'
p193
I27801
sS'AGATGC'
p194
I49612
sS'GCTCAC'
p195
I67185
sS'CCCCAT'
p196
I72013
sS'TTGGGT'
p197
I45561
sS'CACTAG'
p198
I32403
sS'CACTAA'
p199
I29184
sS'CACTAC'
p200
I23316
sS'CCCCAA'
p201
I90004
sS'CCCCAC'
p202
I140835
sS'ATAAAG'
p203
I48061
sS'CCCCAG'
p204
I177264
sS'CACTAT'
p205
I22130
sS'TTGGGG'
p206
I89952
sS'TCGGTT'
p207
I12743
sS'TTGGGA'
p208
I74658
sS'TTGGGC'
p209
I52549
sS'TGCCTG'
p210
I117251
sS'TGCAGA'
p211
I89715
sS'TTTCTG'
p212
I107825
sS'TGCAGC'
p213
I101247
sS'TTTCTA'
p214
I64097
sS'TTTCTC'
p215
I115933
sS'TGCAGG'
p216
I112081
sS'GGGTCA'
p217
I52325
sS'TTTCTN'
p218
I1
sS'GTATCT'
p219
I25573
sS'TTTCTT'
p220
I142043
sS'ACGTGC'
p221
I19996
sS'TGCCTT'
p222
I81993
sS'TGCAGT'
p223
I73799
sS'TAGTGC'
p224
I21582
sS'AAGGAA'
p225
I120582
sS'AAGGAC'
p226
I51703
sS'AAGGAG'
p227
I107131
sS'ATATGC'
p228
I23356
sS'GTTCCA'
p229
I43692
sS'ATATGA'
p230
I24399
sS'GTGAGA'
p231
I61108
sS'ATATGG'
p232
I22410
sS'TGTCGA'
p233
I7175
sS'GATGGA'
p234
I53459
sS'AAGGAT'
p235
I46660
sS'AGGGCC'
p236
I98909
sS'TGGTTT'
p237
I67052
sS'ATATGT'
p238
I28456
sS'GGTCCC'
p239
I78478
sS'GCCCAG'
p240
I160401
sS'GGTCCA'
p241
I39489
sS'GCCCAA'
p242
I52567
sS'GGTCCG'
p243
I25159
sS'GCCCAC'
p244
I78120
sS'TGTGTC'
p245
I55164
sS'AGACCC'
p246
I66609
sS'ATTGTT'
p247
I43014
sS'AGACCG'
p248
I18744
sS'CTTCGC'
p249
I23731
sS'CTTAGT'
p250
I27547
sS'TCCGGG'
p251
I51925
sS'AGGTCA'
p252
I59435
sS'TCCGGC'
p253
I37232
sS'GGTCCT'
p254
I57307
sS'TCCGGA'
p255
I25980
sS'CTTAGC'
p256
I35230
sS'ATTGTG'
p257
I36632
sS'CTTAGA'
p258
I37582
sS'CCACTC'
p259
I70160
sS'CTTAGG'
p260
I39804
sS'GTATCC'
p261
I18616
sS'AGACCT'
p262
I52811
sS'GCCTTT'
p263
I76240
sS'ATTTTG'
p264
I63970
sS'TCCAGG'
p265
I122465
sS'ATTTTA'
p266
I79504
sS'GAGGTA'
p267
I34259
sS'ATTTTC'
p268
I75719
sS'GAGGTC'
p269
I55708
sS'TAGCAG'
p270
I42706
sS'GATACT'
p271
I19820
sS'TAGCAC'
p272
I26917
sS'TAGCAA'
p273
I35133
sS'GAGGTT'
p274
I53040
sS'ATTTTT'
p275
I115576
sS'TAAATC'
p276
I35506
sS'GTGGGG'
p277
I140799
sS'GCCTTA'
p278
I31397
sS'TTGACA'
p279
I34919
sS'GCCTTC'
p280
I78265
sS'GATACG'
p281
I5774
sS'TAGCAT'
p282
I28183
sS'CATTGC'
p283
I37693
sS'GATACC'
p284
I17336
sS'GATTTC'
p285
I47574
sS'TGAGCT'
p286
I72158
sS'ACGGAC'
p287
I13300
sS'GATCAT'
p288
I23154
sS'ACCGAG'
p289
I24063
sS'AAGACC'
p290
I45383
sS'GATTTA'
p291
I35484
sS'AAGACG'
p292
I18767
sS'GATCAG'
p293
I35041
sS'TGAGCG'
p294
I27985
sS'CTCGAG'
p295
I21801
sS'TGAGCA'
p296
I65153
sS'TGAGCC'
p297
I86756
sS'AAGACT'
p298
I47203
sS'ACCACG'
p299
I23466
sS'GCGGTA'
p300
I10796
sS'GCGGTG'
p301
I47990
sS'CGGTGT'
p302
I18937
sS'TCGTTA'
p303
I7118
sS'TCGTTC'
p304
I11818
sS'CTTCCC'
p305
I149619
sS'ACTTGT'
p306
I34597
sS'GCGGTT'
p307
I17607
sS'ACTTGC'
p308
I39365
sS'ATGTGA'
p309
I47601
sS'ACTTGA'
p310
I40720
sS'CGGTGG'
p311
I45686
sS'ACTTGG'
p312
I53059
sS'CGGTGA'
p313
I23920
sS'CGGTGC'
p314
I32892
sS'TTCCTA'
p315
I54263
sS'TAGACT'
p316
I23261
sS'ATTCCT'
p317
I73879
sS'CTTCCG'
p318
I33831
sS'TTCCTG'
p319
I128459
sS'TCCTTT'
p320
I104647
sS'CAGTTG'
p321
I42650
sS'ACGCTA'
p322
I7734
sS'TAGACG'
p323
I7970
sS'TTCCTT'
p324
I120514
sS'TAGACC'
p325
I19836
sS'TAGACA'
p326
I27874
sS'AAGNTG'
p327
I1
sS'TCCTTG'
p328
I71844
sS'TCCTTA'
p329
I45081
sS'TCCTTC'
p330
I104334
sS'ATCTCT'
p331
I59977
sS'ACCGTT'
p332
I9854
sS'TGGCGC'
p333
I41946
sS'TGGCGA'
p334
I20886
sS'GGCCAT'
p335
I45363
sS'ATCTCG'
p336
I15262
sS'ANCTTA'
p337
I1
sS'ATCTCA'
p338
I52000
sS'ATCTCC'
p339
I56156
sS'GGCCAA'
p340
I60221
sS'ACGGAG'
p341
I30294
sS'GGCCAC'
p342
I83002
sS'AGGTAG'
p343
I41978
sS'ACCGTA'
p344
I6450
sS'TGGCGT'
p345
I20622
sS'ACCGTC'
p346
I13756
sS'ACTGAA'
p347
I56711
sS'AGAATT'
p348
I60076
sS'GGCAGT'
p349
I64489
sS'CCATAA'
p350
I26122
sS'CAAAGG'
p351
I80445
sS'CCATAC'
p352
I18686
sS'CTAACT'
p353
I29287
sS'AGATTC'
p354
I43817
sS'CAAAGC'
p355
I71663
sS'CAACGT'
p356
I11841
sS'GGCAGA'
p357
I102929
sS'GGCAGC'
p358
I129324
sS'TAAGTT'
p359
I28808
sS'GGCAGG'
p360
I165731
sS'CAACGC'
p361
I15295
sS'CTAACA'
p362
I32619
sS'CAACGA'
p363
I9988
sS'CTAACC'
p364
I26640
sS'CCATAT'
p365
I22417
sS'GCACTG'
p366
I66766
sS'GGGGGT'
p367
I83327
sS'CGAGTG'
p368
I20742
sS'AGATTG'
p369
I32877
sS'CGATCT'
p370
I13161
sS'NNNNNC'
p371
I1
sS'CTCTAG'
p372
I48394
sS'CTCTAA'
p373
I43076
sS'CTCTAC'
p374
I39927
sS'GGGGGG'
p375
I88215
sS'CGATCC'
p376
I13608
sS'TACGCC'
p377
I8117
sS'GGGGGC'
p378
I143636
sS'CGATCG'
p379
I4562
sS'GGGGGA'
p380
I114725
sS'TACGCG'
p381
I4969
sS'CTCTAT'
p382
I31159
sS'CAGACC'
p383
I63748
sS'CAGACA'
p384
I74898
sS'CAGACG'
p385
I26295
sS'CGCTAA'
p386
I9640
sS'TAGTTG'
p387
I22092
sS'GCTAAT'
p388
I31342
sS'TGGNGC'
p389
I1
sS'TAGTTC'
p390
I24397
sS'TAGTTA'
p391
I22042
sS'CAGACT'
p392
I57126
sS'GCTAAG'
p393
I35230
sS'TAGTTT'
p394
I39387
sS'GCTAAC'
p395
I20829
sS'GCTAAA'
p396
I34777
sS'TGCATT'
p397
I61871
sS'TGCTGC'
p398
I105526
sS'AACCCT'
p399
I52344
sS'ATCNNN'
p400
I2
sS'GTCCAC'
p401
I36047
sS'AACCCC'
p402
I60591
sS'AACCCA'
p403
I57776
sS'TGCATA'
p404
I32786
sS'ATGCAC'
p405
I33144
sS'TGCATC'
p406
I40429
sS'AGAATA'
p407
I42595
sS'CTACAA'
p408
I32646
sS'CTACAC'
p409
I26004
sS'AGTTTC'
p410
I60866
sS'ACGTAG'
p411
I8974
sS'CCCAGA'
p412
I119282
sS'CCCAGC'
p413
I190531
sS'CCCAGG'
p414
I199343
sS'AACTGT'
p415
I43182
sS'AGTTTT'
p416
I66698
sS'CTACAT'
p417
I26753
sS'CCCAGT'
p418
I79283
sS'TATAAT'
p419
I29615
sS'CGCATA'
p420
I6232
sS'ATACTG'
p421
I27422
sS'CGCATC'
p422
I16507
sS'ATACTA'
p423
I16541
sS'ATACTC'
p424
I19543
sS'CGCATG'
p425
I15732
sS'GCGCAA'
p426
I14765
sS'GCGAAT'
p427
I9134
sS'ATACTT'
p428
I28912
sS'CGCATT'
p429
I13446
sS'AGGCCC'
p430
I104912
sS'GCTCCG'
p431
I59256
sS'TATTGT'
p432
I30697
sS'GCTCCC'
p433
I124278
sS'GCTCCA'
p434
I84621
sS'CCTACT'
p435
I37896
sS'TGTACT'
p436
I26476
sS'TTTAGT'
p437
I39117
sS'TATTGG'
p438
I23893
sS'GCTCCT'
p439
I103779
sS'GCGCAG'
p440
I60138
sS'TATTGA'
p441
I26560
sS'TTTAGG'
p442
I44311
sS'TGTACG'
p443
I6524
sS'CCTACG'
p444
I11561
sS'TGTACA'
p445
I25844
sS'TTTAGC'
p446
I34767
sS'TGTACC'
p447
I22807
sS'CCTACC'
p448
I43930
sS'TTCGCG'
p449
I10282
sS'TTCGCA'
p450
I12285
sS'TTCGCC'
p451
I19354
sS'CGTACA'
p452
I6521
sS'GACTAA'
p453
I21868
sS'AGTATA'
p454
I18434
sS'GACTAC'
p455
I18723
sS'AGTATG'
p456
I21724
sS'TTTGGA'
p457
I65713
sS'TTTGGC'
p458
I50915
sS'TTCGCT'
p459
I16899
sS'GATCNN'
p460
I2
sS'TTTGGT'
p461
I50280
sS'GCCACA'
p462
I73447
sS'GACTAT'
p463
I15946
sS'AGTATT'
p464
I32456
sS'TTACTC'
p465
I30995
sS'TTACTA'
p466
I25049
sS'TTACTG'
p467
I40741
sS'ACCTTG'
p468
I49942
sS'ACCTTC'
p469
I53076
sS'ACCTTA'
p470
I26541
sS'TTACTT'
p471
I45004
sS'ACCTTT'
p472
I51399
sS'ACAGGG'
p473
I82847
sS'CTGGGA'
p474
I154095
sS'CTGGGC'
p475
I160386
sS'ACAGGC'
p476
I79259
sS'CTTTTA'
p477
I63997
sS'TTATAT'
p478
I32115
sS'CTGGGG'
p479
I177229
sS'AGGACG'
p480
I29929
sS'GCAGCT'
p481
I106958
sS'CAGGAA'
p482
I128507
sS'TCGCTT'
p483
I19620
sS'AGGACC'
p484
I57301
sS'AGGACA'
p485
I72118
sS'GCGCAT'
p486
I15732
sS'TTATAC'
p487
I18617
sS'ACAGGT'
p488
I51684
sS'CTGGGT'
p489
I96623
sS'TTATAG'
p490
I24000
sS'TCGCTG'
p491
I30901
sS'GCAGCG'
p492
I65414
sS'AGGACT'
p493
I58039
sS'GCAGCA'
p494
I105508
sS'TCGCTA'
p495
I7991
sS'CAGGAT'
p496
I62478
sS'CCTCAG'
p497
I122647
sS'CCTCAA'
p498
I56855
sS'CCTCAC'
p499
I82904
sS'TATGTT'
p500
I31268
sS'ATGGGC'
p501
I42852
sS'TCTTTG'
p502
I76175
sS'ATGGGA'
p503
I59025
sS'TCTTTA'
p504
I55181
sS'ATGGGG'
p505
I71970
sS'TCTTTC'
p506
I99273
sS'GCTAGA'
p507
I31159
sS'CCTCAT'
p508
I57227
sS'TCTTTT'
p509
I114061
sS'TATGTG'
p510
I33923
sS'TATGTA'
p511
I27688
sS'ATGGGT'
p512
I33071
sS'TATGTC'
p513
I20198
sS'GAAAGA'
p514
I99301
sS'ATCAAG'
p515
I32664
sS'GAAAGC'
p516
I69099
sS'ATCAAC'
p517
I22465
sS'GAAAGG'
p518
I101866
sS'ATCAAA'
p519
I42097
sS'CGCTAG'
p520
I12782
sS'ACGTGG'
p521
I28614
sS'CATGAG'
p522
I44771
sS'ATCAAT'
p523
I25473
sS'TCAAAC'
p524
I40966
sS'GAAAGT'
p525
I55638
sS'CATGAA'
p526
I44077
sS'GTAGCG'
p527
I10511
sS'CAAGTT'
p528
I43357
sS'GCGGCT'
p529
I56239
sS'GTAGCC'
p530
I28757
sS'GCTTTC'
p531
I69104
sS'AGCGGT'
p532
I18930
sS'GAGGAT'
p533
I53627
sS'GCGGCG'
p534
I101512
sS'CAAGTG'
p535
I51875
sS'GTAGCT'
p536
I34676
sS'GCGGCC'
p537
I91374
sS'CAAGTC'
p538
I42600
sS'GCGGCA'
p539
I39917
sS'CAAGTA'
p540
I30045
sS'AACGGT'
p541
I9858
sS'TAATCG'
p542
I5719
sS'CTTGTG'
p543
I51466
sS'TAATCA'
p544
I30358
sS'TAATCC'
p545
I36410
sS'TGCGAA'
p546
I12297
sS'CGGCCC'
p547
I87759
sS'CGACTA'
p548
I5427
sS'AAAATT'
p549
I77902
sS'CGGCCG'
p550
I65819
sS'TCGTGA'
p551
I11563
sS'CTTGTA'
p552
I29199
sS'GGTCTG'
p553
I63764
sS'TAATCT'
p554
I31195
sS'TGCGAC'
p555
I12183
sS'GGTCTC'
p556
I65294
sS'GGTCTA'
p557
I19840
sS'AAAATG'
p558
I94860
sS'AAAATC'
p559
I61097
sS'CGGCCT'
p560
I56407
sS'TTCAGC'
p561
I65466
sS'TTCAGA'
p562
I72109
sS'TTCAGG'
p563
I74934
sS'GAACAT'
p564
I31812
sS'TCGTCG'
p565
I6993
sS'TGCCAA'
p566
I49662
sS'GAACAA'
p567
I47513
sS'ATCCCG'
p568
I22055
sS'GAACAC'
p569
I37881
sS'TCGTCT'
p570
I14532
sS'GAACAG'
p571
I58432
sS'ATCCCA'
p572
I65028
sS'ATTGCA'
p573
I38366
sS'CACCAC'
p574
I73584
sS'NNNCTG'
p575
I1
sS'CACCAA'
p576
I49983
sS'CACCAG'
p577
I85119
sS'TCCGTG'
p578
I25373
sS'TCGTGC'
p579
I14287
sS'TCCGTC'
p580
I21507
sS'TTGATT'
p581
I42070
sS'TCCGTA'
p582
I8508
sS'ACCAGA'
p583
I54716
sS'AAATGC'
p584
I68462
sS'ACGCGA'
p585
I8083
sS'CACCAT'
p586
I47989
sS'TCCGTT'
p587
I15108
sS'AACATA'
p588
I31260
sS'AACATC'
p589
I35755
sS'GTCAGN'
p590
I1
sS'TCAGCA'
p591
I76715
sS'GCACGG'
p592
I30408
sS'TCAGCC'
p593
I92105
sS'GCACGA'
p594
I14281
sS'CAGTCC'
p595
I62723
sS'GCACGC'
p596
I28819
sS'CAGTCA'
p597
I53594
sS'GCACCA'
p598
I55020
sS'GCAAGC'
p599
I45751
sS'GCACGT'
p600
I19999
sS'CAGTCT'
p601
I60500
sS'TCAGCT'
p602
I77114
sS'GTCAGT'
p603
I37659
sS'TATCTA'
p604
I21539
sS'GTATAC'
p605
I10709
sS'TTCCGT'
p606
I17257
sS'ACGGCT'
p607
I19717
sS'GTATAG'
p608
I12627
sS'CCGGAA'
p609
I29246
sS'CCGGAC'
p610
I27493
sS'CCGGAG'
p611
I58270
sS'TATCAT'
p612
I22404
sS'CTCGTA'
p613
I6999
sS'TTCCGG'
p614
I29235
sS'TTCCGA'
p615
I15837
sS'TTCCGC'
p616
I26259
sS'GTATAT'
p617
I18563
sS'TATCAC'
p618
I21805
sS'TATCAA'
p619
I23263
sS'CGTCTG'
p620
I26301
sS'CCGGAT'
p621
I16305
sS'CTCTTC'
p622
I97396
sS'TGTTAT'
p623
I34585
sS'CTCTTA'
p624
I41698
sS'CTCTTG'
p625
I66313
sS'AGGGCT'
p626
I99236
sS'TACGTA'
p627
I5879
sS'CTGACA'
p628
I58538
sS'TACGTC'
p629
I5899
sS'TCTGGT'
p630
I54720
sS'AACAAA'
p631
I104798
sS'CGCGAT'
p632
I9195
sS'TACGTG'
p633
I10588
sS'TGTTAG'
p634
I32647
sS'GGTTTC'
p635
I59278
sS'TGTTAC'
p636
I29147
sS'CTCTTT'
p637
I97421
sS'TGTTAA'
p638
I44474
sS'CGCGAA'
p639
I10284
sS'CGCGAC'
p640
I14904
sS'CCCTGC'
p641
I155373
sS'TCTGGC'
p642
I78648
sS'TACGTT'
p643
I7851
sS'CGCGAG'
p644
I26911
sS'AGTCGT'
p645
I9737
sS'TTACCT'
p646
I40959
sS'CTCCAT'
p647
I65687
sS'TTACCG'
p648
I9398
sS'CTCCAC'
p649
I91291
sS'AGTCGG'
p650
I19320
sS'TTACCC'
p651
I31056
sS'CTCCAG'
p652
I146885
sS'TTACCA'
p653
I34020
sS'AGTCGC'
p654
I16378
sS'CCGACT'
p655
I19316
sS'GCCTAC'
p656
I25501
sS'AATGCA'
p657
I61864
sS'GCCTAG'
p658
I39962
sS'CCGACA'
p659
I16379
sS'GATATC'
p660
I13840
sS'CCGACC'
p661
I28252
sS'CCGACG'
p662
I14517
sS'AAGCTC'
p663
I54593
sS'NCTTAA'
p664
I1
sS'GCCTAT'
p665
I21824
sS'AAGCTA'
p666
I32735
sS'ACGCGG'
p667
I23416
sS'CCCGAG'
p668
I56652
sS'TGACGA'
p669
I9718
sS'TCAGCG'
p670
I28789
sS'CTAAGT'
p671
I29542
sS'GCTGTC'
p672
I63871
sS'CGCACA'
p673
I26887
sS'ATACAC'
p674
I25432
sS'CGCACC'
p675
I34425
sS'GGGTCG'
p676
I29825
sS'ACTGCT'
p677
I59961
sS'ATACAG'
p678
I33976
sS'CGCACG'
p679
I20155
sS'GGGTCC'
p680
I74273
sS'CTCACT'
p681
I78324
sS'GGGTCT'
p682
I66613
sS'ACTGCA'
p683
I73736
sS'TTTGTC'
p684
I53300
sS'ACTGCC'
p685
I64467
sS'CGCACT'
p686
I20398
sS'TTTGTG'
p687
I68366
sS'ACTGCG'
p688
I24899
sS'CTTGAC'
p689
I33226
sS'CTCACA'
p690
I70807
sS'CTCACG'
p691
I27154
sS'TAGTGG'
p692
I32811
sS'GTGAGG'
p693
I82870
sS'GATTTT'
p694
I61094
sS'ACAATT'
p695
I36337
sS'GTGAGC'
p696
I67258
sS'TAGTGA'
p697
I29048
sS'GCACTT'
p698
I53081
sS'TCGACG'
p699
I4850
sS'TCGACA'
p700
I7176
sS'TCGACC'
p701
I9999
sS'ACAATA'
p702
I30696
sS'GTGAGT'
p703
I48433
sS'TAGTGT'
p704
I23501
sS'GTGGGA'
p705
I88826
sS'GTGGGC'
p706
I78106
sS'TCGACT'
p707
I8458
sS'GTGGGN'
p708
I1
sS'ACGTAA'
p709
I8467
sS'CTGGTT'
p710
I59239
sS'TTGAGT'
p711
I38764
sS'CGAACG'
p712
I6661
sS'TAAGNT'
p713
I1
sS'CGAACC'
p714
I13003
sS'CGAACA'
p715
I10324
sS'CGGNCC'
p716
I1
sS'CTGGTG'
p717
I85123
sS'CTGGTA'
p718
I34154
sS'CTGGTC'
p719
I60704
sS'CTGCAA'
p720
I71610
sS'CGAACT'
p721
I12858
sS'TTGCAT'
p722
I48215
sS'GACGAG'
p723
I18991
sS'NNGAAT'
p724
I4
sS'CGTCTT'
p725
I18777
sS'TTGCAG'
p726
I71633
sS'TCCATA'
p727
I26016
sS'TTGCAC'
p728
I35189
sS'TTGCAA'
p729
I48572
sS'AAGATC'
p730
I33349
sS'ACGTAC'
p731
I6083
sS'TCCATC'
p732
I53471
sS'ATTGCG'
p733
I8299
sS'TCGCAT'
p734
I8817
sS'GAGCGG'
p735
I53417
sS'GTCGTG'
p736
I12778
sS'GTCGTA'
p737
I4707
sS'GTCGTC'
p738
I11806
sS'GGNAGA'
p739
I1
sS'CCGTTT'
p740
I20610
sS'GAGCAA'
p741
I55654
sS'GCCTCG'
p742
I51901
sS'ATATCG'
p743
I4083
sS'GTCGTT'
p744
I9418
sS'TCGCAG'
p745
I26110
sS'TCCATG'
p746
I47736
sS'TCGCAC'
p747
I13442
sS'CCGTTG'
p748
I13373
sS'CCGTTA'
p749
I7842
sS'CCGTTC'
p750
I17618
sS'GATCGG'
p751
I10687
sS'AATGCT'
p752
I51893
sS'GGTACG'
p753
I7057
sS'GGTACA'
p754
I22830
sS'GGTACC'
p755
I21793
sS'TATTTG'
p756
I49777
sS'CCAGTT'
p757
I54180
sS'TATTTC'
p758
I54933
sS'TATTTA'
p759
I60551
sS'CCCCCT'
p760
I114603
sS'GGTACT'
p761
I21716
sS'AATGCG'
p762
I13444
sS'AATGCC'
p763
I47509
sS'GCCGTG'
p764
I33706
sS'CCCCCC'
p765
I88223
sS'CCCCCA'
p766
I142093
sS'TATTTT'
p767
I101048
sS'CCCCCG'
p768
I85035
sS'CTTGAG'
p769
I59560
sS'ATGATG'
p770
I35254
sS'ATGATA'
p771
I22384
sS'GCGTTA'
p772
I7761
sS'ATGATC'
p773
I23162
sS'TGCAAC'
p774
I36096
sS'TGCAAA'
p775
I76567
sS'TGCAAG'
p776
I52607
sS'GCCGTC'
p777
I26641
sS'ATGATT'
p778
I34170
sS'CTTGAT'
p779
I32657
sS'CGAATC'
p780
I9805
sS'TTGAGG'
p781
I56846
sS'GCCATT'
p782
I45900
sS'CAATGT'
p783
I31960
sS'TTGAGC'
p784
I43572
sS'TTGAGA'
p785
I60641
sS'GAGAAT'
p786
I58096
sS'TGTCTT'
p787
I66522
sS'CGAATA'
p788
I6336
sS'AGTAGC'
p789
I33877
sS'AAGGCC'
p790
I69497
sS'ATAACC'
p791
I21118
sS'AAGGCA'
p792
I81961
sS'ATAACA'
p793
I34548
sS'AAGGCG'
p794
I33419
sS'ATAACG'
p795
I6817
sS'TATGCT'
p796
I26044
sS'TGTGGT'
p797
I56861
sS'TGTCTG'
p798
I74921
sS'GAGAAG'
p799
I106779
sS'AGTAGA'
p800
I35723
sS'GAGAAA'
p801
I115960
sS'TGTCTC'
p802
I75184
sS'GAGAAC'
p803
I52978
sS'TGTCTA'
p804
I27879
sS'TGTGGC'
p805
I73463
sS'TGTGGA'
p806
I63441
sS'TGTGGG'
p807
I90194
sS'ATAACT'
p808
I26508
sS'AAGGCT'
p809
I70275
sS'CTGTAA'
p810
I58081
sS'AGGTAT'
p811
I27103
sS'ACCAAG'
p812
I49585
sS'GGTCAG'
p813
I65758
sS'ACCAAA'
p814
I50302
sS'GGTCAA'
p815
I28350
sS'ACCAAC'
p816
I31555
sS'GGTCAC'
p817
I46959
sS'TAACGA'
p818
I7124
sS'GATCGC'
p819
I14150
sS'GGTCAT'
p820
I29598
sS'ACCAAT'
p821
I27268
sS'GCCCCT'
p822
I121798
sS'AGGTAA'
p823
I40981
sS'GATAGG'
p824
I24010
sS'TTTTGC'
p825
I61245
sS'TCTTAC'
p826
I30923
sS'TTTTGA'
p827
I67043
sS'TCTTAA'
p828
I46695
sS'TTTTGG'
p829
I64874
sS'TCTTAG'
p830
I38077
sS'AATTGC'
p831
I33610
sS'TAGCCA'
p832
I37239
sS'TGGGGT'
p833
I85391
sS'TAGCCC'
p834
I33428
sS'GATAAT'
p835
I25972
sS'CGCTCA'
p836
I27992
sS'TAGCCG'
p837
I12943
sS'AATTGT'
p838
I36342
sS'CGAGAG'
p839
I30613
sS'AATCTT'
p840
I42840
sS'TCTTAT'
p841
I33835
sS'GTTATG'
p842
I20067
sS'CGCTCT'
p843
I37189
sS'TGGGGG'
p844
I142099
sS'GATAAC'
p845
I18122
sS'TAGCCT'
p846
I35070
sS'TGGGGC'
p847
I119458
sS'GATAAG'
p848
I25704
sS'GATCCT'
p849
I41291
sS'AAGAAT'
p850
I62936
sS'CGAAGT'
p851
I13563
sS'CATTTG'
p852
I62232
sS'AAGAAC'
p853
I50265
sS'GATCCA'
p854
I33717
sS'AAGAAA'
p855
I142133
sS'TATTAG'
p856
I22429
sS'AAGAAG'
p857
I85028
sS'GATCCG'
p858
I16675
sS'NGATCT'
p859
I1
sS'GCCCCA'
p860
I119451
sS'ATGCCG'
p861
I14154
sS'AAGCAT'
p862
I43882
sS'CAAGGG'
p863
I68312
sS'CAAGGC'
p864
I69269
sS'GGTTCT'
p865
I49649
sS'CAAGGA'
p866
I71847
sS'GGCGCN'
p867
I1
sS'GGTTCA'
p868
I37895
sS'GGTTCC'
p869
I53389
sS'CAAGGT'
p870
I49932
sS'GGTTCG'
p871
I13001
sS'TAGGCA'
p872
I37173
sS'ATTATA'
p873
I29588
sS'ATTATC'
p874
I25966
sS'TAGAAT'
p875
I36707
sS'GATAGT'
p876
I15576
sS'ATTATG'
p877
I25866
sS'AGTCTT'
p878
I47186
sS'TAGAAA'
p879
I64130
sS'TAGAAC'
p880
I25896
sS'ATTATT'
p881
I51803
sS'TAGAAG'
p882
I42822
sS'AGTCTA'
p883
I23267
sS'AGTCTC'
p884
I57379
sS'AGTCTG'
p885
I57121
sS'TAACTC'
p886
I29172
sS'TAACTA'
p887
I22054
sS'TAACTG'
p888
I34912
sS'ATCTAT'
p889
I23017
sS'ACGCGT'
p890
I7534
sS'GCCCCG'
p891
I114426
sS'TAACTT'
p892
I37363
sS'ATCTAG'
p893
I25280
sS'ATCTAC'
p894
I21354
sS'ATCTAA'
p895
I27086
sS'CATAGC'
p896
I25678
sS'CCATGT'
p897
I45525
sS'GCCCCC'
p898
I143651
sS'TGGAGG'
p899
I123049
sS'TGGAGA'
p900
I99610
sS'TGGAGC'
p901
I84635
sS'CCATGC'
p902
I46723
sS'CCATGA'
p903
I41761
sS'CCATGG'
p904
I60853
sS'TGGAGT'
p905
I66883
sS'ATTACG'
p906
I6189
sS'TCAGTA'
p907
I33423
sS'TCAGTC'
p908
I46038
sS'CTCTCT'
p909
I143151
sS'GGGGAT'
p910
I58148
sS'TCAGTG'
p911
I62483
sS'CGATAT'
p912
I4090
sS'GGGGAA'
p913
I112841
sS'GGGGAC'
p914
I86727
sS'CTCTCC'
p915
I146637
sS'TCAGTT'
p916
I53170
sS'CTCTCA'
p917
I76887
sS'ATGCAG'
p918
I63765
sS'CGATAG'
p919
I5036
sS'CGATAA'
p920
I5572
sS'ATGCTG'
p921
I61724
sS'CGATAC'
p922
I4134
sS'CTAAGG'
p923
I39678
sS'GTGTTT'
p924
I63159
sS'GCTACT'
p925
I33870
sS'GTGGTT'
p926
I45622
sS'TGGNAG'
p927
I1
sS'GTGTTC'
p928
I37889
sS'GTGTTA'
p929
I27393
sS'GTGTTG'
p930
I41349
sS'CGTGCC'
p931
I28584
sS'GTGGTA'
p932
I26743
sS'GCTACA'
p933
I29818
sS'GTGGTC'
p934
I40286
sS'GCTACC'
p935
I27799
sS'GTGGTG'
p936
I73524
sS'GCTACG'
p937
I10265
sS'CGTGCA'
p938
I21762
sS'TTTCGT'
p939
I13043
sS'TGCCCT'
p940
I97225
sS'AGCGTT'
p941
I15766
sS'CGTGCG'
p942
I20151
sS'TGCCCC'
p943
I102717
sS'TTTCGC'
p944
I14389
sS'TGCCCG'
p945
I44302
sS'TTTCGG'
p946
I17084
sS'GAGTTA'
p947
I29156
sS'AGCGTA'
p948
I7054
sS'AGCGTC'
p949
I21463
sS'AGCGTG'
p950
I25291
sS'GGCCCC'
p951
I138337
sS'GGCCCA'
p952
I91527
sS'CACGTG'
p953
I34129
sS'GGCCCG'
p954
I76316
sS'CACGTA'
p955
I10582
sS'CACGTC'
p956
I19665
sS'CTACGC'
p957
I10014
sS'ACGTGA'
p958
I17739
sS'CTACGG'
p959
I11336
sS'ACAGTC'
p960
I38860
sS'CACGTT'
p961
I18228
sS'TTCACG'
p962
I16311
sS'GNCCCA'
p963
I1
sS'GGCCCT'
p964
I98909
sS'GGGACA'
p965
I76318
sS'AATTGA'
p966
I33668
sS'GGGACC'
p967
I78484
sS'AGGGAC'
p968
I73962
sS'GTCTCA'
p969
I55936
sS'CTACGT'
p970
I8970
sS'GCTTCC'
p971
I98156
sS'AGAGAG'
p972
I143160
sS'AGAGAA'
p973
I119316
sS'AGAGAC'
p974
I74314
sS'TCTATA'
p975
I21588
sS'GTCTTT'
p976
I58486
sS'TCTATC'
p977
I24118
sS'TCTATG'
p978
I25695
sS'AGAGAT'
p979
I60018
sS'ATGTGC'
p980
I38580
sS'GTCTTG'
p981
I43979
sS'TCTATT'
p982
I37942
sS'GTCTTC'
p983
I49923
sS'GTCTTA'
p984
I25415
sS'GCAGAG'
p985
I132400
sS'GCTCAA'
p986
I43567
sS'CGCTCG'
p987
I26004
sS'GCAGAC'
p988
I54821
sS'GCAGAA'
p989
I80583
sS'GCTCAG'
p990
I101098
sS'AGACGT'
p991
I14827
sS'ATGCGT'
p992
I10189
sS'TTGCTG'
p993
I74469
sS'TTGCTA'
p994
I35126
sS'TTGCTC'
p995
I55621
sS'GCAGAT'
p996
I51797
sS'GCTCAT'
p997
I39957
sS'CGAATT'
p998
I9866
sS'GTACGG'
p999
I6654
sS'TTGCTT'
p1000
I69036
sS'CGATTC'
p1001
I12333
sS'CGCTCC'
p1002
I60407
sS'ATGCGC'
p1003
I15733
sS'ATGCGA'
p1004
I8821
sS'TGTAAG'
p1005
I34852
sS'GGCTAG'
p1006
I34279
sS'TGTAAC'
p1007
I29049
sS'GGCTAC'
p1008
I28774
sS'TGTAAA'
p1009
I59987
sS'CTGAAA'
p1010
I85379
sS'ACTGTA'
p1011
I32060
sS'TTGGTA'
p1012
I26336
sS'ACTGTC'
p1013
I40093
sS'TTGGTC'
p1014
I33891
sS'TTCGAC'
p1015
I6834
sS'ACTGTG'
p1016
I61022
sS'GACATC'
p1017
I30722
sS'GACTGC'
p1018
I48404
sS'GGCTAT'
p1019
I22397
sS'TGTAAT'
p1020
I45932
sS'GACTGG'
p1021
I60214
sS'GAGTCG'
p1022
I18220
sS'TTCGAT'
p1023
I6955
sS'TTGGTT'
p1024
I48418
sS'ACTGTT'
p1025
I42250
sS'GTTTCT'
p1026
I77395
sS'ATAATT'
p1027
I41425
sS'CCTTTT'
p1028
I93184
sS'GTTTCG'
p1029
I12449
sS'GTTTCC'
p1030
I73257
sS'GTTTCA'
p1031
I52235
sS'ATAATG'
p1032
I31342
sS'CCTTTA'
p1033
I48968
sS'CCTTTC'
p1034
I101865
sS'ATAATC'
p1035
I23887
sS'NNNNGA'
p1036
I6
sS'ATAATA'
p1037
I36581
sS'CCTTTG'
p1038
I80421
sS'ACAGAA'
p1039
I80122
sS'CTCTCG'
p1040
I30606
sS'ACAGAC'
p1041
I53656
sS'ACAGAG'
p1042
I99104
sS'TTATCT'
p1043
I44050
sS'CTGGAC'
p1044
I59850
sS'CTGGAA'
p1045
I104628
sS'CTGGAG'
p1046
I146852
sS'ACAGAT'
p1047
I48672
sS'TGGGGA'
p1048
I133043
sS'TTATCA'
p1049
I31557
sS'CTGGAT'
p1050
I54010
sS'TTATCC'
p1051
I28175
sS'CCAATG'
p1052
I33713
sS'AAACCG'
p1053
I17661
sS'AGTAGG'
p1054
I37889
sS'CCAATC'
p1055
I35252
sS'AAACCC'
p1056
I63131
sS'CCAATA'
p1057
I23890
sS'TGTCGG'
p1058
I16388
sS'GAGATC'
p1059
I39218
sS'CCCTAT'
p1060
I27573
sS'GAGATA'
p1061
I31932
sS'TGTCGC'
p1062
I18175
sS'GAGATG'
p1063
I66902
sS'AACGAC'
p1064
I9419
sS'AAACCT'
p1065
I58289
sS'CCAATT'
p1066
I32755
sS'ATTTGC'
p1067
I51283
sS'GTCGAT'
p1068
I5332
sS'ATTTGG'
p1069
I53885
sS'CCCTAG'
p1070
I49308
sS'TGTCGT'
p1071
I10364
sS'CCCTAC'
p1072
I41379
sS'GAGATT'
p1073
I45504
sS'CCCTAA'
p1074
I41557
sS'CATTAT'
p1075
I31359
sS'ATGCAA'
p1076
I48217
sS'TGGATT'
p1077
I46060
sS'ATCACA'
p1078
I46351
sS'ATCACC'
p1079
I39032
sS'CATGCT'
p1080
I46975
sS'TGACAC'
p1081
I39623
sS'CAATCA'
p1082
I36821
sS'TGGATA'
p1083
I26692
sS'AGGAAC'
p1084
I60256
sS'CATTAG'
p1085
I29725
sS'CATTAA'
p1086
I37883
sS'TGGATG'
p1087
I50354
sS'CATGCA'
p1088
I47562
sS'TGACAT'
p1089
I40402
sS'CATGCC'
p1090
I48849
sS'ATCACT'
p1091
I40663
sS'CATGCG'
p1092
I15719
sS'AACCTG'
p1093
I58648
sS'GTAGAA'
p1094
I33644
sS'GTAGAC'
p1095
I17338
sS'GTAGAG'
p1096
I39954
sS'ACAACA'
p1097
I47729
sS'ACAACC'
p1098
I33335
sS'GATTGC'
p1099
I25584
sS'ACAACG'
p1100
I10939
sS'TAAATT'
p1101
I53929
sS'ACTAAG'
p1102
I27546
sS'GTAGAT'
p1103
I21351
sS'TGCTAC'
p1104
I27805
sS'TTGCCT'
p1105
I65947
sS'ATGAGT'
p1106
I33217
sS'GATCAA'
p1107
I23922
sS'TTCAGT'
p1108
I56707
sS'ACAACT'
p1109
I35058
sS'GCGCGT'
p1110
I22080
sS'TAATAG'
p1111
I23799
sS'AGTCCG'
p1112
I17797
sS'TAATAC'
p1113
I19933
sS'GTCCGA'
p1114
I12405
sS'TAATAA'
p1115
I44389
sS'GTCCGC'
p1116
I25901
sS'TGTTTA'
p1117
I53855
sS'GATCCC'
p1118
I43532
sS'CACATC'
p1119
I44548
sS'GTCCGT'
p1120
I13301
sS'TAATAT'
p1121
I28616
sS'ATTCGC'
p1122
I9144
sS'TTCTCC'
p1123
I109473
sS'ATTCGA'
p1124
I8344
sS'TTCTCA'
p1125
I83473
sS'ATCCAT'
p1126
I31477
sS'TTCTCG'
p1127
I21350
sS'TCGTAC'
p1128
I4321
sS'TACCTT'
p1129
I34406
sS'TCGTAA'
p1130
I6194
sS'TCGTAG'
p1131
I7460
sS'TCGTCA'
p1132
I9710
sS'GAACCT'
p1133
I41741
sS'ATCCAA'
p1134
I34308
sS'ATCCAC'
p1135
I37065
sS'TGTTTG'
p1136
I70829
sS'TTCTCT'
p1137
I119260
sS'TGAACA'
p1138
I44109
sS'GAACCC'
p1139
I49934
sS'TACCTG'
p1140
I44786
sS'TACCTA'
p1141
I21714
sS'TACCTC'
p1142
I34279
sS'TCGTAT'
p1143
I5154
sS'ACCATC'
p1144
I34817
sS'ACCATA'
p1145
I19879
sS'ACCATG'
p1146
I40081
sS'ATGTTG'
p1147
I38861
sS'AGCTCT'
p1148
I82677
sS'TGTCCT'
p1149
I72136
sS'AGTGGT'
p1150
I45093
sS'CGTGGT'
p1151
I23459
sS'AAACGA'
p1152
I16755
sS'TGATGT'
p1153
I38602
sS'ATGTTT'
p1154
I57034
sS'ACCATT'
p1155
I33854
sS'CGTAAA'
p1156
I9398
sS'AGTGGA'
p1157
I57494
sS'AGTGGC'
p1158
I68598
sS'AGCTCC'
p1159
I100061
sS'AGTGGG'
p1160
I82493
sS'ATAGCC'
p1161
I22396
sS'CAGTAA'
p1162
I40747
sS'CAGTAC'
p1163
I24195
sS'CAGTAG'
p1164
I38957
sS'AACGTT'
p1165
I12560
sS'TTTCAC'
p1166
I61179
sS'CAGTAT'
p1167
I27427
sS'ATGGNA'
p1168
I1
sS'AAAGTA'
p1169
I46392
sS'GATGGN'
p1170
I1
sS'TTAATC'
p1171
I29349
sS'AAAGTG'
p1172
I70029
sS'GATCTA'
p1173
I17241
sS'GATCTC'
p1174
I39204
sS'ATTGAC'
p1175
I20284
sS'GATCTG'
p1176
I44413
sS'TGTTTT'
p1177
I112671
sS'CCGGCC'
p1178
I96271
sS'ATTAGG'
p1179
I29294
sS'AAAGTT'
p1180
I56159
sS'ACTCTC'
p1181
I50737
sS'ATTAGC'
p1182
I31320
sS'TCCCTC'
p1183
I138643
sS'TGTCCG'
p1184
I18740
sS'TCCCTA'
p1185
I47359
sS'TGCCAC'
p1186
I64423
sS'TCCCTG'
p1187
I135086
sS'GATCTT'
p1188
I33336
sS'CACAAT'
p1189
I36649
sS'AAGTGC'
p1190
I53099
sS'TGTTCT'
p1191
I64803
sS'AAGTGG'
p1192
I61322
sS'TGATTG'
p1193
I36810
sS'TGCGCA'
p1194
I24310
sS'TCTGAT'
p1195
I46772
sS'TGATTA'
p1196
I30350
sS'TGTTCA'
p1197
I44100
sS'CACAAG'
p1198
I51483
sS'TGTTCC'
p1199
I56380
sS'AAGTGT'
p1200
I44451
sS'CACAAC'
p1201
I36459
sS'TGTTCG'
p1202
I10317
sS'TCTGAA'
p1203
I72109
sS'TGATTT'
p1204
I62225
sS'TCTGAG'
p1205
I87007
sS'CGCGCC'
p1206
I75768
sS'CGCGCA'
p1207
I30576
sS'GGTAAA'
p1208
I36667
sS'CGCGCG'
p1209
I60989
sS'CTCCCT'
p1210
I168942
sS'AGCGGG'
p1211
I54552
sS'AGCGGA'
p1212
I28093
sS'AGCGGC'
p1213
I52402
sS'GGTAAG'
p1214
I31696
sS'GACGTG'
p1215
I19663
sS'CGCGCT'
p1216
I37037
sS'ACCTCC'
p1217
I86284
sS'ACCTCA'
p1218
I59547
sS'CTCCCA'
p1219
I140351
sS'GTGCGG'
p1220
I36229
sS'GCCTCT'
p1221
I107335
sS'TAAGCC'
p1222
I32354
sS'TAGCTC'
p1223
I33977
sS'CCCATG'
p1224
I52796
sS'CGGGAA'
p1225
I42551
sS'CCCATA'
p1226
I25988
sS'TAGCTG'
p1227
I46920
sS'CCCATC'
p1228
I70930
sS'TTGTTG'
p1229
I49005
sS'CCTGCT'
p1230
I124937
sS'CCGAAT'
p1231
I11295
sS'CCCATT'
p1232
I57309
sS'CGGGAT'
p1233
I22052
sS'TGGGTT'
p1234
I57741
sS'GCCTCA'
p1235
I86308
sS'TAAGCT'
p1236
I29664
sS'GCCTCC'
p1237
I157724
sS'CCGAAC'
p1238
I13387
sS'CCTGCG'
p1239
I59424
sS'CCGAAA'
p1240
I17091
sS'CCGAAG'
p1241
I25497
sS'CCTGCC'
p1242
I165745
sS'CCTGCA'
p1243
I112045
sS'GTACTG'
p1244
I24194
sS'CCATTC'
p1245
I54289
sS'TATAAG'
p1246
I20706
sS'TATAAA'
p1247
I46766
sS'CTTTAG'
p1248
I40973
sS'GCNNNN'
p1249
I1
sS'GATTTG'
p1250
I44516
sS'CGACAG'
p1251
I21382
sS'GTTCTA'
p1252
I25905
sS'CCATTT'
p1253
I69509
sS'TCTACA'
p1254
I34566
sS'TCTACC'
p1255
I33400
sS'CTNCCA'
p1256
I1
sS'TCTACG'
p1257
I8546
sS'ACTTTC'
p1258
I55612
sS'CGCAAC'
p1259
I11788
sS'ACTCCA'
p1260
I66927
sS'ACGCAC'
p1261
I19060
sS'ATACCG'
p1262
I5705
sS'GACGCG'
p1263
I22962
sS'ATACCA'
p1264
I25505
sS'ATACCC'
p1265
I20940
sS'TCTACT'
p1266
I35713
sS'ATACCT'
p1267
I27085
sS'CGCAAT'
p1268
I8303
sS'TAGTAA'
p1269
I25067
sS'TGGGTG'
p1270
I87051
sS'TAGTAC'
p1271
I11956
sS'CTCAAG'
p1272
I59587
sS'GTTTTG'
p1273
I63280
sS'CTCAAA'
p1274
I69636
sS'TAGTAG'
p1275
I21225
sS'CTCAAC'
p1276
I37610
sS'GTGTGC'
p1277
I54087
sS'GTGTGA'
p1278
I53671
sS'GTGTGG'
p1279
I72962
sS'TAACGG'
p1280
I7844
sS'CTCAAT'
p1281
I33230
sS'TAGTAT'
p1282
I16534
sS'CTCCCG'
p1283
I80308
sS'GTGTGT'
p1284
I120427
sS'ATCTTT'
p1285
I54507
sS'GTTGGG'
p1286
I59362
sS'GTTGGA'
p1287
I38589
sS'GTTGGC'
p1288
I36972
sS'CCTTGG'
p1289
I86317
sS'CCTTGA'
p1290
I52936
sS'GCGTAT'
p1291
I5368
sS'AGGATT'
p1292
I51204
sS'GGACGT'
p1293
I17253
sS'CTAAGC'
p1294
I32915
sS'GTTGGT'
p1295
I31554
sS'ATCTTG'
p1296
I40555
sS'ATCTTA'
p1297
I29249
sS'ATCTTC'
p1298
I42959
sS'CCTTGT'
p1299
I54355
sS'AGGATA'
p1300
I31012
sS'AGGATG'
p1301
I67594
sS'GACATG'
p1302
I33152
sS'ATCAGG'
p1303
I44572
sS'TTGCGT'
p1304
I10837
sS'GACATA'
p1305
I20194
sS'TCGGCG'
p1306
I22146
sS'GAATAT'
p1307
I29603
sS'GGTGCA'
p1308
I52943
sS'TCGGCC'
p1309
I39226
sS'TCGGCA'
p1310
I16673
sS'TTGCGA'
p1311
I8901
sS'GACATT'
p1312
I39863
sS'TTGCGG'
p1313
I18624
sS'GAATAG'
p1314
I28183
sS'TCGGCT'
p1315
I27894
sS'ATCAGC'
p1316
I42701
sS'AGGAAG'
p1317
I149352
sS'GAATAA'
p1318
I42289
sS'AAAGAG'
p1319
I97478
sS'GTACAT'
p1320
I18072
sS'GGACGA'
p1321
I18083
sS'TGCCTC'
p1322
I99775
sS'GGACGC'
p1323
I38296
sS'TTATAA'
p1324
I38985
sS'GAAATG'
p1325
I77921
sS'AATGAT'
p1326
I36986
sS'GAAATA'
p1327
I54927
sS'GAAATC'
p1328
I47596
sS'ACCGGT'
p1329
I10108
sS'GAAATT'
p1330
I56347
sS'AATGAA'
p1331
I73033
sS'AATGAC'
p1332
I40215
sS'CTCCCC'
p1333
I186406
sS'AATGAG'
p1334
I61931
sS'ATGGTA'
p1335
I23793
sS'CTTGGA'
p1336
I63433
sS'CTTGGC'
p1337
I73878
sS'GTTTTC'
p1338
I69867
sS'CTTGGG'
p1339
I85623
sS'TACTAA'
p1340
I24761
sS'GGGAAT'
p1341
I56638
sS'TTGAAT'
p1342
I45785
sS'CTTGGN'
p1343
I1
sS'GTCCTA'
p1344
I24765
sS'GTCCTC'
p1345
I64274
sS'TGCACG'
p1346
I21755
sS'TGCACA'
p1347
I57531
sS'GTCCTG'
p1348
I76653
sS'TGCACC'
p1349
I52969
sS'TTGAAA'
p1350
I70240
sS'AGCCCG'
p1351
I54851
sS'AGCCCA'
p1352
I98501
sS'AGCCCC'
p1353
I130303
sS'TTAACT'
p1354
I39413
sS'ATAAAT'
p1355
I60076
sS'TGGTCG'
p1356
I13243
sS'TGGTCA'
p1357
I43527
sS'TGGTCC'
p1358
I47209
sS'ACGATT'
p1359
I7944
sS'GAGACT'
p1360
I57396
sS'ACGGGG'
p1361
I36097
sS'TGGTCT'
p1362
I56061
sS'TTTTGT'
p1363
I97266
sS'ATAAAA'
p1364
I79772
sS'ATGGTG'
p1365
I47936
sS'ATAAAC'
p1366
I37148
sS'GAGACG'
p1367
I31984
sS'ACGATG'
p1368
I11048
sS'GAGACC'
p1369
I65260
sS'ACGATC'
p1370
I7353
sS'GAGACA'
p1371
I75140
sS'ACGATA'
p1372
I4440
sS'GGTTAC'
p1373
I21557
sS'ATGTGT'
p1374
I45965
sS'GGTTAA'
p1375
I29840
sS'ACCACT'
p1376
I45107
sS'GGTTAG'
p1377
I26646
sS'CTTCCT'
p1378
I149327
sS'GAATGT'
p1379
I50712
sS'TCCATT'
p1380
I55707
sS'CTCAGT'
p1381
I68347
sS'TCCGCT'
p1382
I28093
sS'CTTCCA'
p1383
I88919
sS'ATGTGG'
p1384
I52489
sS'ACCACC'
p1385
I60841
sS'CGTATG'
p1386
I5633
sS'ACCACA'
p1387
I56863
sS'GGTTAT'
p1388
I21126
sS'TCCGCC'
p1389
I54761
sS'TCCGCA'
p1390
I26276
sS'TCCGCG'
p1391
I31557
sS'AACGTC'
p1392
I11646
sS'AACGTA'
p1393
I7854
sS'CGTGAA'
p1394
I16324
sS'CGTGAC'
p1395
I16739
sS'AGTGTG'
p1396
I58181
sS'TCTTCG'
p1397
I17221
sS'AGTGTA'
p1398
I25701
sS'TCTTCA'
p1399
I66495
sS'AGTGTC'
p1400
I41337
sS'TCTTCC'
p1401
I106325
sS'TAAGTG'
p1402
I35413
sS'ACTCAA'
p1403
I38796
sS'TAAGTC'
p1404
I23905
sS'TAAGTA'
p1405
I26675
sS'AGTAAA'
p1406
I50111
sS'TCTTCT'
p1407
I87262
sS'AGTGTT'
p1408
I45631
sS'AACCGG'
p1409
I17049
sS'GTGCGC'
p1410
I33095
sS'TTGGCA'
p1411
I49641
sS'AAAGGT'
p1412
I51394
sS'TTGGCC'
p1413
I60223
sS'AGTAAC'
p1414
I27839
sS'TTAACG'
p1415
I8585
sS'TTGGCG'
p1416
I19879
sS'GACTTC'
p1417
I45530
sS'TCGAGT'
p1418
I10525
sS'GACTTA'
p1419
I23872
sS'GACTTG'
p1420
I42578
sS'AAAGGG'
p1421
I92169
sS'AAAGGA'
p1422
I104639
sS'TTGGCT'
p1423
I65041
sS'AAAGGC'
p1424
I76243
sS'GAGTAC'
p1425
I17770
sS'GTATGG'
p1426
I18687
sS'GACTTT'
p1427
I48257
sS'TTCTTT'
p1428
I134397
sS'CAAGAA'
p1429
I65442
sS'AGCGAG'
p1430
I37001
sS'CAAGAC'
p1431
I44006
sS'GATTCG'
p1432
I9801
sS'CAAGAG'
p1433
I66374
sS'CGTATT'
p1434
I8316
sS'TTCTTG'
p1435
I65396
sS'TTCTTC'
p1436
I87074
sS'TTCTTA'
p1437
I53144
sS'TAAACG'
p1438
I11344
sS'CAAGAT'
p1439
I40588
sS'CCCGAT'
p1440
I13070
sS'TACGGG'
p1441
I9850
sS'TACGGA'
p1442
I8512
sS'TACGGC'
p1443
I8269
sS'CCAACT'
p1444
I44913
sS'TAGAGT'
p1445
I28047
sS'TACGGT'
p1446
I6454
sS'AGGGCG'
p1447
I60474
sS'AGGGCA'
p1448
I97227
sS'CCCGAC'
p1449
I31814
sS'AGTTCG'
p1450
I12834
sS'TAGAGA'
p1451
I53238
sS'TAGAGG'
p1452
I48161
sS'AGTAAT'
p1453
I30033
sS'GTGCTG'
p1454
I89686
sS'CGGGGT'
p1455
I46675
sS'GTGCTA'
p1456
I26891
sS'ATCTGT'
p1457
I48660
sS'GTGCTC'
p1458
I51287
sS'GGCGAC'
p1459
I28467
sS'ATCTGA'
p1460
I46256
sS'GTGCTT'
p1461
I51184
sS'ATCTGC'
p1462
I51803
sS'TCGAGG'
p1463
I21098
sS'CGAATG'
p1464
I11462
sS'ATCTGG'
p1465
I53689
sS'ATCATA'
p1466
I20179
sS'GATAGC'
p1467
I16652
sS'ATCATC'
p1468
I29215
sS'GATAGA'
p1469
I24106
sS'AAGCAA'
p1470
I69054
sS'CAAACT'
p1471
I53210
sS'AAGCAC'
p1472
I51191
sS'TTTACC'
p1473
I36671
sS'CATTTC'
p1474
I77949
sS'CTAGGT'
p1475
I30820
sS'CATTTA'
p1476
I55466
sS'ACGCAT'
p1477
I10194
sS'AGCATT'
p1478
I51900
sS'GTTATA'
p1479
I16738
sS'CAAACA'
p1480
I70833
sS'TTTCAG'
p1481
I85343
sS'CAAACC'
p1482
I50985
sS'GTGGCC'
p1483
I82988
sS'ATCATT'
p1484
I36994
sS'CAAACG'
p1485
I17382
sS'CTAGGG'
p1486
I49270
sS'GTTATT'
p1487
I34091
sS'CTAGGC'
p1488
I39965
sS'CATTTT'
p1489
I94876
sS'CTAGGA'
p1490
I46254
sS'AAGTTT'
p1491
I56605
sS'TACAGT'
p1492
I32077
sS'CTCGAA'
p1493
I16024
sS'GTGGCG'
p1494
I42435
sS'CTAAGA'
p1495
I38059
sS'GGGGCT'
p1496
I130318
sS'TACAGG'
p1497
I49950
sS'AAGTTG'
p1498
I40418
sS'GGATGC'
p1499
I47869
sS'AAGTTA'
p1500
I37342
sS'TACAGC'
p1501
I36171
sS'AAGTTC'
p1502
I41352
sS'TACAGA'
p1503
I46222
sS'GGGGCC'
p1504
I138326
sS'CGGGGG'
p1505
I85048
sS'GGGGCA'
p1506
I102711
sS'GGGGCG'
p1507
I127952
sS'TTCAAC'
p1508
I34283
sS'TATATC'
p1509
I15718
sS'TATATA'
p1510
I35675
sS'TGTATA'
p1511
I24194
sS'TATATG'
p1512
I22352
sS'TCCGGT'
p1513
I16189
sS'TATATT'
p1514
I35539
sS'TGATGG'
p1515
I47312
sS'CATATG'
p1516
I24926
sS'TGATGC'
p1517
I36030
sS'AGGTCT'
p1518
I52811
sS'TGATGA'
p1519
I42401
sS'AGCATG'
p1520
I46989
sS'TGCCAT'
p1521
I50768
sS'ACTCTT'
p1522
I47769
sS'TGTTTC'
p1523
I71986
sS'CACATA'
p1524
I33932
sS'TTAATT'
p1525
I55836
sS'CACATG'
p1526
I50585
sS'TTTCAT'
p1527
I66396
sS'ATGAGA'
p1528
I53082
sS'ATGAGC'
p1529
I39971
sS'ATGAGG'
p1530
I57211
sS'TTAATA'
p1531
I37355
sS'ACTCTG'
p1532
I69195
sS'TGCCAG'
p1533
I87785
sS'ACTCTA'
p1534
I28047
sS'CTTCGG'
p1535
I25488
sS'CTAACG'
p1536
I8498
sS'TTAATG'
p1537
I37859
sS'AAATTC'
p1538
I61382
sS'GACTGA'
p1539
I46031
sS'AAATTA'
p1540
I64038
sS'AAATTG'
p1541
I45524
sS'CCAGTA'
p1542
I33258
sS'TTCAAT'
p1543
I36128
sS'CTTCGA'
p1544
I12728
sS'GCTTGT'
p1545
I40616
sS'AAATTT'
p1546
I69575
sS'CNCCAA'
p1547
I1
sS'GTCTAT'
p1548
I17351
sS'GGGAAC'
p1549
I63144
sS'GGTGCG'
p1550
I34412
sS'GGGAAA'
p1551
I113872
sS'GGGAAG'
p1552
I149633
sS'GGTGCC'
p1553
I66219
sS'GCCCAT'
p1554
I42858
sS'AGAGCG'
p1555
I37199
sS'GCGACT'
p1556
I16375
sS'AGAGCC'
p1557
I91284
sS'AGAGCA'
p1558
I83796
sS'GCGTAG'
p1559
I10015
sS'GGTGCT'
p1560
I65242
sS'NTGCNC'
p1561
I1
sS'TCCCCA'
p1562
I133039
sS'GCGTAC'
p1563
I5685
sS'GCGTAA'
p1564
I6542
sS'GCGACG'
p1565
I15816
sS'AGAGCT'
p1566
I82672
sS'GCGACA'
p1567
I18188
sS'TATCGG'
p1568
I4934
sS'GCGACC'
p1569
I23537
sS'AGGTCG'
p1570
I18860
sS'GCAGGA'
p1571
I118522
sS'GCAGGC'
p1572
I111345
sS'AGNTGC'
p1573
I1
sS'GCAGGG'
p1574
I155337
sS'CAATTT'
p1575
I45528
sS'GCACTA'
p1576
I21581
sS'CCGTGC'
p1577
I30409
sS'GCTCGG'
p1578
I46218
sS'TATTCT'
p1579
I42614
sS'CCGTGG'
p1580
I39067
sS'AAATAC'
p1581
I52798
sS'GCAGGT'
p1582
I76981
sS'ACCCTA'
p1583
I29353
sS'ACGTCT'
p1584
I14822
sS'TATTCC'
p1585
I33304
sS'GGCGAG'
p1586
I49554
sS'TATTCA'
p1587
I39758
sS'CAATTA'
p1588
I31139
sS'TATTCG'
p1589
I6338
sS'CAATTC'
p1590
I35758
sS'TGTAGA'
p1591
I34578
sS'GGCTCA'
p1592
I86657
sS'TGTAGC'
p1593
I29830
sS'GGCTCC'
p1594
I126292
sS'TTTACG'
p1595
I9394
sS'TGTAGG'
p1596
I35448
sS'GGCTCG'
p1597
I37801
sS'TTCGGA'
p1598
I14706
sS'TTCGGC'
p1599
I17049
sS'CTTTAC'
p1600
I36505
sS'TTCAAG'
p1601
I56414
sS'TTCGGG'
p1602
I23485
sS'ATTGTC'
p1603
I28662
sS'CACGAG'
p1604
I20371
sS'GGCTCT'
p1605
I91280
sS'TGTAGT'
p1606
I30677
sS'TTTACT'
p1607
I50101
sS'AGCATA'
p1608
I26027
sS'ATTGTA'
p1609
I26478
sS'TTCGGT'
p1610
I12008
sS'GTTTAT'
p1611
I37142
sS'GGGGAG'
p1612
I186413
sS'GCACTC'
p1613
I50281
sS'CGCTAC'
p1614
I10518
sS'TGCTTG'
p1615
I56191
sS'ATCACG'
p1616
I12864
sS'GTTTAA'
p1617
I40557
sS'GAGGTG'
p1618
I93636
sS'CACGAA'
p1619
I14381
sS'CAATCT'
p1620
I32865
sS'GTTTAG'
p1621
I29943
sS'CAGGTG'
p1622
I108080
sS'TCCAGA'
p1623
I79153
sS'CTGGCT'
p1624
I121083
sS'AGGCGG'
p1625
I77849
sS'AGGCGA'
p1626
I27799
sS'AGGCGC'
p1627
I53727
sS'AGGAGT'
p1628
I67277
sS'ACAGCC'
p1629
I82214
sS'GATAAA'
p1630
I39617
sS'ACAGCA'
p1631
I79573
sS'TCCAGC'
p1632
I107989
sS'ACAGCG'
p1633
I30469
sS'AGGAGC'
p1634
I103780
sS'AGGCGT'
p1635
I26768
sS'AGGAGA'
p1636
I119911
sS'GTGGGT'
p1637
I60426
sS'AGGAGG'
p1638
I180107
sS'CTGGCA'
p1639
I87759
sS'GTCGGG'
p1640
I31811
sS'GCGCCC'
p1641
I96215
sS'ACAGCT'
p1642
I72684
sS'GGAAAA'
p1643
I111270
sS'ATTGGT'
p1644
I27278
sS'AATTTT'
p1645
I77940
sS'TGTCAA'
p1646
I34943
sS'TGTCAC'
p1647
I49422
sS'CCCTCT'
p1648
I130079
sS'GGAAAC'
p1649
I73281
sS'ATTTAT'
p1650
I60038
sS'ATTGGG'
p1651
I33401
sS'AATTTA'
p1652
I53900
sS'AATTTC'
p1653
I56339
sS'AACGCC'
p1654
I18799
sS'AACGCA'
p1655
I15593
sS'AATTTG'
p1656
I52353
sS'CCCTCA'
p1657
I88613
sS'CCCTCC'
p1658
I213742
sS'ATTTAG'
p1659
I38775
sS'CCCTCG'
p1660
I49453
sS'TAAATA'
p1661
I60595
sS'CACGAT'
p1662
I10742
sS'CAATAT'
p1663
I24083
sS'TGACCA'
p1664
I43523
sS'CATTCT'
p1665
I66678
sS'GCCTTG'
p1666
I69250
sS'TGACCG'
p1667
I15362
sS'NGATCC'
p1668
I1
sS'CATTCG'
p1669
I11460
sS'CATTCC'
p1670
I72340
sS'CATTCA'
p1671
I57573
sS'CGCTAT'
p1672
I7368
sS'ACAAAT'
p1673
I53359
sS'GATTAA'
p1674
I29366
sS'GTAGGC'
p1675
I25489
sS'GATTAC'
p1676
I27245
sS'GTAGGA'
p1677
I35221
sS'GTAGGG'
p1678
I41376
sS'GATTAG'
p1679
I23267
sS'GCGGGT'
p1680
I38063
sS'ACAAAC'
p1681
I52754
sS'TTTCAA'
p1682
I70246
sS'ACAAAA'
p1683
I97296
sS'ACAAAG'
p1684
I76341
sS'GCGGGC'
p1685
I88757
sS'GTCGGT'
p1686
I11796
sS'GCGGGA'
p1687
I64552
sS'GCGGGG'
p1688
I141068
sS'GATTAT'
p1689
I23890
sS'GTAGGT'
p1690
I26732
sS'CAATAC'
p1691
I19164
sS'TAATGA'
p1692
I37743
sS'GATGTT'
p1693
I35741
sS'TAATGC'
p1694
I26121
sS'GGGATG'
p1695
I71919
sS'GCCCTT'
p1696
I70852
sS'CAATAA'
p1697
I35474
sS'CAATTG'
p1698
I24000
sS'GCCCTC'
p1699
I109913
sS'GATGTG'
p1700
I44525
sS'GCCCTA'
p1701
I35341
sS'GATGTA'
p1702
I21692
sS'GCCCTG'
p1703
I139751
sS'GATGTC'
p1704
I30695
sS'CAATAG'
p1705
I24975
sS'TGAAAT'
p1706
I69612
sS'TTCTAG'
p1707
I44826
sS'TTCTAA'
p1708
I53211
sS'ATCCGT'
p1709
I9636
sS'TTCTAC'
p1710
I33642
sS'TGAAAA'
p1711
I88438
sS'TGAAAC'
p1712
I52264
sS'TGAAAG'
p1713
I73108
sS'TTCTAT'
p1714
I37790
sS'ATCCGC'
p1715
I17374
sS'ATCCGA'
p1716
I10149
sS'ATCCGG'
p1717
I16310
sS'TGGCTC'
p1718
I91100
sS'TGGCTA'
p1719
I37232
sS'NNNNCT'
p1720
I1
sS'TGGCTG'
p1721
I115734
sS'GTCGGA'
p1722
I13733
sS'AGTTGT'
p1723
I35047
sS'AGCTAT'
p1724
I28301
sS'CTTACG'
p1725
I8128
sS'CCCGCA'
p1726
I51882
sS'AAGACA'
p1727
I66499
sS'CTGGCG'
p1728
I50372
sS'CGTCGA'
p1729
I4854
sS'TGGCTT'
p1730
I78902
sS'AGTTGG'
p1731
I44893
sS'AGCTAA'
p1732
I37829
sS'AGCTAC'
p1733
I34682
sS'AGTTGC'
p1734
I35302
sS'AGTTGA'
p1735
I33860
sS'AGCTAG'
p1736
I35079
sS'CGTTGA'
p1737
I9369
sS'TCCAGT'
p1738
I55812
sS'CTAATT'
p1739
I40091
sS'CAGTGT'
p1740
I59683
sS'TAACAA'
p1741
I42195
sS'TCAGGT'
p1742
I54004
sS'TCAAGG'
p1743
I52922
sS'CTGGCC'
p1744
I129494
sS'TCAAGC'
p1745
I41413
sS'CATGGA'
p1746
I47756
sS'CTAATA'
p1747
I22408
sS'CAGTGC'
p1748
I66777
sS'CTAATC'
p1749
I23266
sS'CAGTGA'
p1750
I75841
sS'CAGTGG'
p1751
I89446
sS'GCACCG'
p1752
I32891
sS'TCAAGT'
p1753
I40731
sS'TCAGGG'
p1754
I88221
sS'GAGCCC'
p1755
I109202
sS'TCAGGC'
p1756
I74579
sS'CGAGCT'
p1757
I25267
sS'CGTTGG'
p1758
I15578
sS'GTCGGC'
p1759
I21132
sS'CAACCA'
p1760
I42930
sS'AGTCAA'
p1761
I35934
sS'TTCCCT'
p1762
I120091
sS'CGAGCG'
p1763
I25998
sS'CGAGCA'
p1764
I20786
sS'GAGCCG'
p1765
I58437
sS'CGAGCC'
p1766
I37806
sS'TTCCCA'
p1767
I107658
sS'TTCCCC'
p1768
I112824
sS'GTTCAC'
p1769
I31359
sS'TTCCCG'
p1770
I42537
sS'GATCAC'
p1771
I32536
sS'GGACCT'
p1772
I50829
sS'TCCACC'
p1773
I78350
sS'AAGTAC'
p1774
I25310
sS'AAGTAA'
p1775
I45033
sS'TACATC'
p1776
I21702
sS'AAGTAG'
p1777
I35953
sS'TACATA'
p1778
I27692
sS'GCACAC'
p1779
I54081
sS'GGACCG'
p1780
I28126
sS'AACGCT'
p1781
I15764
sS'GGACCA'
p1782
I47205
sS'CTTTCT'
p1783
I123379
sS'GGACCC'
p1784
I74287
sS'CACACG'
p1785
I29684
sS'TACATT'
p1786
I39214
sS'CACACC'
p1787
I68982
sS'CTGCAT'
p1788
I63747
sS'AAGTAT'
p1789
I28920
sS'TCTGCC'
p1790
I102894
sS'TCTGCA'
p1791
I89669
sS'TTAAGN'
p1792
I1
sS'TCTGCG'
p1793
I34073
sS'TAGATT'
p1794
I27953
sS'CCCGTC'
p1795
I34382
sS'TTAAGG'
p1796
I39492
sS'CCCGTA'
p1797
I9851
sS'TTAAGA'
p1798
I46672
sS'CCCGTG'
p1799
I33695
sS'TTAAGC'
p1800
I31021
sS'TTACGT'
p1801
I8460
sS'TAGATC'
p1802
I17238
sS'AAACAG'
p1803
I85099
sS'TAGATA'
p1804
I21531
sS'TGCCCA'
p1805
I88517
sS'TAGATG'
p1806
I30054
sS'TCTGCT'
p1807
I92857
sS'TTACGC'
p1808
I6539
sS'TTAAGT'
p1809
I37878
sS'TTACGA'
p1810
I6193
sS'TTACGG'
p1811
I8503
sS'CCCGTT'
p1812
I19102
sS'AGTGAC'
p1813
I47566
sS'AGTGAA'
p1814
I57966
sS'GCTAGT'
p1815
I20349
sS'AGTGAG'
p1816
I78348
sS'GCGGTC'
p1817
I23855
sS'CGGGCG'
p1818
I72298
sS'AAACAC'
p1819
I63172
sS'TAAGAG'
p1820
I41721
sS'CGGGCC'
p1821
I76321
sS'TAAGAA'
p1822
I53215
sS'CGGGCA'
p1823
I44292
sS'TAAGAC'
p1824
I25439
sS'TGTCAG'
p1825
I58552
sS'AGTGAT'
p1826
I40668
sS'GGGNCC'
p1827
I1
sS'TAAGAT'
p1828
I29283
sS'CCTGAA'
p1829
I74966
sS'CCTGAC'
p1830
I67762
sS'CCTGAG'
p1831
I113354
sS'GTTAGG'
p1832
I29952
sS'GCCAAC'
p1833
I36980
sS'TATACT'
p1834
I18450
sS'GTTAGC'
p1835
I20838
sS'GTTAGA'
p1836
I26588
sS'GNNNNN'
p1837
I1
sS'ACCCCC'
p1838
I83338
sS'TATACG'
p1839
I4091
sS'GTTAGT'
p1840
I19697
sS'TATACC'
p1841
I13817
sS'TATACA'
p1842
I24232
sS'ATTGGC'
p1843
I33070
sS'CGTATA'
p1844
I4089
sS'TCTTGT'
p1845
I49075
sS'ACTAGT'
p1846
I16975
sS'TTTATT'
p1847
I96600
sS'GTAATA'
p1848
I20296
sS'ATTGGA'
p1849
I31830
sS'GTAATC'
p1850
I27192
sS'TCTAAC'
p1851
I26605
sS'CGTTCT'
p1852
I18226
sS'CCACCG'
p1853
I45707
sS'CGGATC'
p1854
I16663
sS'CCACCA'
p1855
I92328
sS'CCACCC'
p1856
I139474
sS'GTTCGT'
p1857
I8305
sS'TTTATG'
p1858
I42003
sS'ACTAGG'
p1859
I30188
sS'CTACTG'
p1860
I38952
sS'ACTAGC'
p1861
I20343
sS'TTTATA'
p1862
I46690
sS'ACTAGA'
p1863
I29446
sS'CCACCT'
p1864
I109962
sS'CGTTCG'
p1865
I6662
sS'TCGTTG'
p1866
I9981
sS'CGTTCA'
p1867
I12625
sS'CGTTCC'
p1868
I22143
sS'TCTAAT'
p1869
I32002
sS'CTTTGT'
p1870
I76355
sS'ACTGGG'
p1871
I79270
sS'ACTGGA'
p1872
I55792
sS'ACTGGC'
p1873
I54107
sS'TAGTCC'
p1874
I23818
sS'GTGACC'
p1875
I46937
sS'TAGTCA'
p1876
I23976
sS'GTGACA'
p1877
I49422
sS'TAGTCG'
p1878
I5427
sS'GTGACG'
p1879
I17209
sS'TGTCAT'
p1880
I43171
sS'ACTGGT'
p1881
I35364
sS'CTTTGG'
p1882
I78970
sS'CTTTGC'
p1883
I70824
sS'CTTTGA'
p1884
I61216
sS'ACATTA'
p1885
I30498
sS'GTGACT'
p1886
I48612
sS'TAGTCT'
p1887
I25361
sS'GTGCAC'
p1888
I38458
sS'GCGCTT'
p1889
I25971
sS'ACCTAG'
p1890
I30812
sS'GCAATT'
p1891
I33612
sS'ACCTAA'
p1892
I28227
sS'CGACGC'
p1893
I14793
sS'ACCTAC'
p1894
I26727
sS'CCGCAG'
p1895
I67828
sS'CCGCAA'
p1896
I18619
sS'CCGCAC'
p1897
I36238
sS'GGGACT'
p1898
I67863
sS'ACCTAT'
p1899
I19434
sS'CGACGT'
p1900
I6711
sS'CGAAGA'
p1901
I17226
sS'CCCCGT'
p1902
I36102
sS'CGAAGG'
p1903
I25226
sS'GCGCTC'
p1904
I51063
sS'GTGCAT'
p1905
I33159
sS'GCGCTA'
p1906
I11800
sS'NCTGAC'
p1907
I1
sS'CCGCAT'
p1908
I17153
sS'GTTCGC'
p1909
I11574
sS'GAAGAT'
p1910
I42981
sS'GGATCT'
p1911
I39735
sS'TCATGA'
p1912
I34823
sS'TCGGAA'
p1913
I15840
sS'TCGGAC'
p1914
I12404
sS'GAATCT'
p1915
I43826
sS'CCTATA'
p1916
I18321
sS'TCGGAG'
p1917
I28511
sS'GGATCG'
p1918
I13607
sS'GAAGAG'
p1919
I97405
sS'GAAGAA'
p1920
I87125
sS'GGATCC'
p1921
I45958
sS'GAAGAC'
p1922
I49928
sS'GGATCA'
p1923
I35838
sS'GGATCN'
p1924
I1
sS'GAATCA'
p1925
I39709
sS'GAATCC'
p1926
I42619
sS'TCGGAT'
p1927
I10144
sS'GAATCG'
p1928
I12341
sS'ATGGTC'
p1929
I25119
sS'CAGATG'
p1930
I69614
sS'ACGCCG'
p1931
I19710
sS'TGACCC'
p1932
I52341
sS'ACGCCA'
p1933
I20614
sS'CAGATC'
p1934
I44416
sS'ACGCCC'
p1935
I36577
sS'TGCGTG'
p1936
I27502
sS'GGGTAT'
p1937
I20946
sS'NCCAAG'
p1938
I1
sS'CTATCT'
p1939
I29506
sS'CAGATT'
p1940
I50101
sS'TTCCTC'
p1941
I117905
sS'CTCGAC'
p1942
I12462
sS'ATGGTT'
p1943
I31711
sS'TCGCAA'
p1944
I8902
sS'TTGCGC'
p1945
I14768
sS'GCTATT'
p1946
I30305
sS'TGCGTC'
p1947
I18700
sS'CCGGTA'
p1948
I9757
sS'AATGGT'
p1949
I33843
sS'ACGTGT'
p1950
I16241
sS'AGCCAC'
p1951
I86686
sS'AATGGA'
p1952
I55696
sS'AATGGG'
p1953
I57285
sS'CACTCT'
p1954
I62628
sS'AATAGA'
p1955
I37911
sS'AACGCG'
p1956
I11078
sS'CAGATA'
p1957
I36334
sS'AATAGC'
p1958
I30310
sS'ATTTAC'
p1959
I40662
sS'CGTTAG'
p1960
I8503
sS'TTGACC'
p1961
I28346
sS'GGAGGG'
p1962
I213730
sS'AAAAGT'
p1963
I66082
sS'GGAGGA'
p1964
I162184
sS'GGAGGC'
p1965
I157736
sS'TGGTAG'
p1966
I32023
sS'TGACCT'
p1967
I59474
sS'GAGTGT'
p1968
I43301
sS'TGGTAC'
p1969
I19480
sS'TGGTAA'
p1970
I34027
sS'AAAAGG'
p1971
I93171
sS'GGAGGT'
p1972
I86299
sS'AGCCAT'
p1973
I50236
sS'AAAAGC'
p1974
I76587
sS'AAAAGA'
p1975
I114110
sS'TTGACT'
p1976
I35916
sS'GAGTGG'
p1977
I70147
sS'CGCCAG'
p1978
I50384
sS'TGGTAT'
p1979
I25544
sS'CGCCAA'
p1980
I19889
sS'GAGTGC'
p1981
I50244
sS'CGCCAC'
p1982
I42465
sS'GAGTGA'
p1983
I57669
sS'GCCAGG'
p1984
I151683
sS'GCCAGA'
p1985
I78665
sS'GCCAGC'
p1986
I104286
sS'GCCCGT'
p1987
I24643
sS'CAATCC'
p1988
I33234
sS'TACCGA'
p1989
I6802
sS'TACCGC'
p1990
I10798
sS'CTTCAT'
p1991
I52428
sS'GCCCGC'
p1992
I88762
sS'GCCAGT'
p1993
I54112
sS'GCCCGA'
p1994
I32929
sS'GCCCGG'
p1995
I101461
sS'TGCGAT'
p1996
I10352
sS'CTTCAC'
p1997
I56648
sS'CTTCAA'
p1998
I50424
sS'CTTCAG'
p1999
I82660
sS'TCCGAG'
p2000
I29677
sS'TCCGAA'
p2001
I14709
sS'TCCGAC'
p2002
I13728
sS'AATTCA'
p2003
I53968
sS'AATTCC'
p2004
I58072
sS'AATTCG'
p2005
I9867
sS'TCCGAT'
p2006
I8773
sS'NNNGAT'
p2007
I2
sS'TAGCGG'
p2008
I12764
sS'TAGCGA'
p2009
I7989
sS'TAGCGC'
p2010
I11802
sS'GTCATC'
p2011
I30812
sS'GTCATA'
p2012
I17691
sS'GTCATG'
p2013
I31290
sS'AGCAGG'
p2014
I124959
sS'CCAGGT'
p2015
I91172
sS'TTGGAA'
p2016
I66596
sS'AGCAGC'
p2017
I122975
sS'AGCAGA'
p2018
I92856
sS'GTCATT'
p2019
I40219
sS'CCAGGG'
p2020
I154978
sS'AGCAGT'
p2021
I59956
sS'CCAGGA'
p2022
I136854
sS'CCAGGC'
p2023
I168968
sS'TTGGAT'
p2024
I34318
sS'ATAGAG'
p2025
I31141
sS'CATCTG'
p2026
I69612
sS'ACGGTC'
p2027
I11521
sS'CATCTA'
p2028
I30036
sS'GATCGA'
p2029
I6862
sS'CATCTC'
p2030
I66907
sS'ATAGAA'
p2031
I37788
sS'ATTAGA'
p2032
I31988
sS'TCCAAC'
p2033
I38611
sS'GGATGG'
p2034
I71530
sS'CAAGCC'
p2035
I62961
sS'CATCTT'
p2036
I55627
sS'CAAGCA'
p2037
I56199
sS'CAAGCG'
p2038
I22423
sS'GTTCTT'
p2039
I50272
sS'ACATGA'
p2040
I35685
sS'CGTAAT'
p2041
I6192
sS'ACATGC'
p2042
I36859
sS'TCTTGA'
p2043
I46812
sS'ACATGG'
p2044
I45497
sS'CCCGCT'
p2045
I54549
sS'GTAAAC'
p2046
I29171
sS'TGGCGG'
p2047
I51418
sS'CGTAAG'
p2048
I8135
sS'AAACTG'
p2049
I69520
sS'ACATGT'
p2050
I34580
sS'CGTAAC'
p2051
I6006
sS'GTTCTC'
p2052
I52971
sS'CCCGCG'
p2053
I75638
sS'ATCCTT'
p2054
I46639
sS'CTCGTT'
p2055
I14801
sS'CCCGCC'
p2056
I150409
sS'AGACGC'
p2057
I26205
sS'AGGGAA'
p2058
I120124
sS'AAACTA'
p2059
I39387
sS'AGCGCA'
p2060
I27723
sS'GTTGTT'
p2061
I42268
sS'TTCTNC'
p2062
I1
sS'TGGATC'
p2063
I33691
sS'TTGTCG'
p2064
I9313
sS'TTGTCC'
p2065
I44102
sS'TTGTCA'
p2066
I44200
sS'ATCCTC'
p2067
I53620
sS'GTTGTA'
p2068
I21239
sS'ATCCTA'
p2069
I28349
sS'GTTGTC'
p2070
I27030
sS'ATCCTG'
p2071
I62448
sS'GTTGTG'
p2072
I36452
sS'TTGTCT'
p2073
I56431
sS'CTATGC'
p2074
I22393
sS'CCACTG'
p2075
I89498
sS'TGACTA'
p2076
I23974
sS'ATAGGT'
p2077
I19441
sS'TGACTC'
p2078
I50798
sS'TGGGCA'
p2079
I88532
sS'TGGGCG'
p2080
I55363
sS'TGACTG'
p2081
I53582
sS'AAGCCG'
p2082
I29698
sS'AAGCCC'
p2083
I76713
sS'AAGCCA'
p2084
I78891
sS'CAAAAT'
p2085
I64028
sS'TGACTT'
p2086
I53418
sS'TGGGCT'
p2087
I98522
sS'CANCTT'
p2088
I1
sS'CAAAAC'
p2089
I63338
sS'CAAAAA'
p2090
I91711
sS'AAGCCT'
p2091
I69628
sS'CAAAAG'
p2092
I71859
sS'TCAATG'
p2093
I30594
sS'CCCTTA'
p2094
I36560
sS'ACCGTG'
p2095
I20158
sS'TCAATC'
p2096
I24299
sS'TCAATA'
p2097
I26554
sS'CAGTTC'
p2098
I54530
sS'GACCCG'
p2099
I34157
sS'GACCCA'
p2100
I55574
sS'GACCCC'
p2101
I74366
sS'CTCTGT'
p2102
I99086
sS'TCAATT'
p2103
I33683
sS'GGCCAG'
p2104
I129482
sS'CTCTGC'
p2105
I132387
sS'GACCCT'
p2106
I58959
sS'CTCTGA'
p2107
I88496
sS'ACAATC'
p2108
I25869
sS'CTCTGG'
p2109
I123925
sS'CAGTTT'
p2110
I69522
sS'GCGAAG'
p2111
I23729
sS'ACGTTC'
p2112
I12337
sS'TGCTGG'
p2113
I118508
sS'CGAGGT'
p2114
I25038
sS'TGCTGA'
p2115
I76717
sS'GAGTCT'
p2116
I52161
sS'GCGAAA'
p2117
I14395
sS'TAGGGA'
p2118
I47368
sS'GCTGGT'
p2119
I70593
sS'GTGATT'
p2120
I41068
sS'ACGTTA'
p2121
I8289
sS'TGCTGT'
p2122
I79624
sS'TAGGGC'
p2123
I35339
sS'TAATGG'
p2124
I29181
sS'ATGCGG'
p2125
I17149
sS'GTGATG'
p2126
I43590
sS'GCTGGG'
p2127
I190507
sS'GTGATC'
p2128
I32550
sS'GCTGGC'
p2129
I104291
sS'GTGATA'
p2130
I21779
sS'GCTGGA'
p2131
I107932
sS'TGATAA'
p2132
I31565
sS'TGATAC'
p2133
I18215
sS'TGATAG'
p2134
I22409
sS'CTTGTT'
p2135
I52822
sS'GACGGT'
p2136
I13753
sS'GCTAGG'
p2137
I39653
sS'CTTTCA'
p2138
I73070
sS'ATGAAT'
p2139
I46527
sS'GCTAGC'
p2140
I24318
sS'AAGGGT'
p2141
I46953
sS'TGATAT'
p2142
I22820
sS'TCTTGG'
p2143
I66409
sS'ATGAAC'
p2144
I29101
sS'GACGGG'
p2145
I34389
sS'ATGAAA'
p2146
I66410
sS'GACGGA'
p2147
I21489
sS'ATGAAG'
p2148
I52433
sS'GACGGC'
p2149
I26642
sS'CTTGTC'
p2150
I45077
sS'CAAAGA'
p2151
I76186
sS'CTACTT'
p2152
I35950
sS'NNNGAA'
p2153
I4
sS'GNCCGC'
p2154
I1
sS'CCATAG'
p2155
I25902
sS'GGTGAA'
p2156
I51872
sS'GGTGAC'
p2157
I50010
sS'GCGTCT'
p2158
I26210
sS'GACTGT'
p2159
I38863
sS'GGTGAG'
p2160
I83218
sS'GGAATG'
p2161
I72334
sS'CGTCCT'
p2162
I29926
sS'GGCTAA'
p2163
I33277
sS'GGAATC'
p2164
I44550
sS'GGAATA'
p2165
I33296
sS'GCGTCA'
p2166
I15795
sS'GCGTCC'
p2167
I38286
sS'GGTGAT'
p2168
I39067
sS'GCGTCG'
p2169
I14793
sS'CGTCCG'
p2170
I17401
sS'GGAATT'
p2171
I58081
sS'CGTCCC'
p2172
I42618
sS'CGTCCA'
p2173
I20045
sS'TTTCGA'
p2174
I9969
sS'CCGTAT'
p2175
I6584
sS'GAAGTC'
p2176
I45510
sS'GAAGTA'
p2177
I32051
sS'GAAGTG'
p2178
I63472
sS'GCCGTA'
p2179
I8266
sS'CCGTAC'
p2180
I6654
sS'CCGTAA'
p2181
I8507
sS'CCGTAG'
p2182
I11336
sS'CAAAGT'
p2183
I59306
sS'GCCGTT'
p2184
I15401
sS'TTGGTG'
p2185
I49932
sS'GAAGTT'
p2186
I47432
sS'GGCGCG'
p2187
I75754
sS'ATGCCC'
p2188
I45508
sS'TTAGTT'
p2189
I33379
sS'ATGCCA'
p2190
I47296
sS'GGCGCC'
p2191
I87388
sS'TATTAA'
p2192
I37399
sS'GGCGCA'
p2193
I41130
sS'TATTAC'
p2194
I20335
sS'ACTATG'
p2195
I21483
sS'CAACGG'
p2196
I13384
sS'TTTAAG'
p2197
I55089
sS'ACTATC'
p2198
I15563
sS'TTTAAA'
p2199
I120761
sS'ACTATA'
p2200
I16531
sS'TTTAAC'
p2201
I41326
sS'TATTAT'
p2202
I36602
sS'TTAGTG'
p2203
I29156
sS'GGCGCT'
p2204
I54257
sS'TTAGTC'
p2205
I21871
sS'ATGCCT'
p2206
I53556
sS'TTAGTA'
p2207
I24745
sS'TTTAAT'
p2208
I61827
sS'ACTATT'
p2209
I26476
sS'GGGCAT'
p2210
I45516
sS'TTTCCG'
p2211
I24002
sS'TTTCCA'
p2212
I94798
sS'TTTCCC'
p2213
I113853
sS'GTACGT'
p2214
I6084
sS'TATCGA'
p2215
I3964
sS'GTTTGT'
p2216
I52730
sS'TCAGNN'
p2217
I1
sS'TTTCCT'
p2218
I137845
sS'GGGCAG'
p2219
I157771
sS'CCTGGA'
p2220
I122469
sS'GGGCAA'
p2221
I59262
sS'GGGCAC'
p2222
I70242
sS'GTTTGC'
p2223
I44767
sS'GTTTGA'
p2224
I40956
sS'GTTTGG'
p2225
I53870
sS'GTACGA'
p2226
I4324
sS'CCGCTC'
p2227
I53419
sS'GCATGT'
p2228
I36848
sS'CCGCTA'
p2229
I12763
sS'CCGCTG'
p2230
I58909
sS'GCGCGG'
p2231
I82210
sS'GTTATC'
p2232
I18118
sS'GCGCGC'
p2233
I78234
sS'GCGCGA'
p2234
I21809
sS'GCATGG'
p2235
I46705
sS'GCATGC'
p2236
I39164
sS'CCGCTT'
p2237
I28880
sS'GCATGA'
p2238
I36421
sS'GTCGAC'
p2239
I5865
sS'GTCGAA'
p2240
I6835
sS'GTCGAG'
p2241
I12462
sS'CGTGGC'
p2242
I37350
sS'GAGCTA'
p2243
I33964
sS'TGCGCT'
p2244
I27724
sS'GAGCTC'
p2245
I74976
sS'ATTGAT'
p2246
I25467
sS'GAGCTG'
p2247
I116631
sS'AGTACA'
p2248
I26464
sS'AAACGC'
p2249
I20303
sS'CACGCG'
p2250
I22106
sS'AAACGG'
p2251
I20621
sS'TGTCCC'
p2252
I76316
sS'TGCGCG'
p2253
I30575
sS'TGTCCA'
p2254
I48155
sS'GAGCTT'
p2255
I54598
sS'TGCGCC'
p2256
I41139
sS'ATTGAG'
p2257
I33215
sS'CGCTGA'
p2258
I28790
sS'ACCGAC'
p2259
I11799
sS'AAACGT'
p2260
I17817
sS'ATTTCG'
p2261
I10604
sS'ATTTCA'
p2262
I69565
sS'ATTTCC'
p2263
I73541
sS'ATCAGT'
p2264
I32450
sS'ATCGGG'
p2265
I13062
sS'CATAGT'
p2266
I21502
sS'CACATT'
p2267
I55679
sS'ATCGGC'
p2268
I10342
sS'CCGTGT'
p2269
I22742
sS'ATCGGA'
p2270
I8774
sS'ATTTCT'
p2271
I83000
sS'NCCATC'
p2272
I1
sS'CGATCA'
p2273
I7727
sS'TGGGTC'
p2274
I55583
sS'TGGGTA'
p2275
I35279
sS'CATAGG'
p2276
I25897
sS'ATCGGT'
p2277
I6683
sS'CATGAC'
p2278
I31300
sS'ATCAGA'
p2279
I46733
sS'CATAGA'
p2280
I25695
sS'ACGGGT'
p2281
I13063
sS'CCTGGT'
p2282
I78520
sS'ATTCGG'
p2283
I11299
sS'GATTCT'
p2284
I48456
sS'CTTTTG'
p2285
I71795
sS'TACTAG'
p2286
I16224
sS'CTTTTC'
p2287
I101646
sS'TACTAC'
p2288
I15520
sS'GATTCC'
p2289
I44542
sS'GATTCA'
p2290
I35617
sS'ACGGGA'
p2291
I23232
sS'ACGGGC'
p2292
I24639
sS'GTCCGG'
p2293
I27502
sS'TACTAT'
p2294
I18323
sS'CTTTTT'
p2295
I112227
sS'GCNCCA'
p2296
I1
sS'TCACGA'
p2297
I11567
sS'TCACGC'
p2298
I23025
sS'CGATTG'
p2299
I8066
sS'TCACGG'
p2300
I20720
sS'TCACGT'
p2301
I17726
sS'TTCCAC'
p2302
I61591
sS'TTCCAA'
p2303
I66580
sS'TTCCAG'
p2304
I104593
sS'CGAGGC'
p2305
I51898
sS'ACCCTT'
p2306
I46959
sS'TGAAGT'
p2307
I49646
sS'AAACAA'
p2308
I104085
sS'ATGCTT'
p2309
I43880
sS'AGGCAC'
p2310
I66598
sS'TTCCAT'
p2311
I58935
sS'TGAAGC'
p2312
I55906
sS'ACCCTC'
p2313
I69494
sS'TGAAGG'
p2314
I70222
sS'ACCCTG'
p2315
I82058
sS'CTGACT'
p2316
I60455
sS'CCCCTT'
p2317
I94960
sS'AGTTAT'
p2318
I26509
sS'ACATAT'
p2319
I28461
sS'CTGACG'
p2320
I19832
sS'CTGACC'
p2321
I65760
sS'CAATGA'
p2322
I38938
sS'AGTTAA'
p2323
I39400
sS'CCCCTG'
p2324
I124488
sS'AGTTAC'
p2325
I28221
sS'CCCCTC'
p2326
I163792
sS'AGTTAG'
p2327
I29290
sS'CCCCTA'
p2328
I47684
sS'ACACAG'
p2329
I84605
sS'ACACAA'
p2330
I52667
sS'ACACAC'
p2331
I120444
sS'AATGTT'
p2332
I51581
sS'CTGCAG'
p2333
I163174
sS'CATGGG'
p2334
I52787
sS'CTGCAC'
p2335
I78121
sS'CATGGC'
p2336
I54179
sS'AATGTC'
p2337
I39847
sS'ACACAT'
p2338
I45977
sS'AATGTA'
p2339
I39164
sS'AATGTG'
p2340
I55653
sS'CATGGT'
p2341
I40059
sS'GCACAA'
p2342
I39545
sS'GCACAG'
p2343
I84579
sS'ACATTT'
p2344
I73227
sS'ATGTTC'
p2345
I31799
sS'CGAGAT'
p2346
I15285
sS'ATTACT'
p2347
I30026
sS'ACATTG'
p2348
I31972
sS'ACGCTC'
p2349
I18920
sS'ACATTC'
p2350
I50715
sS'ATTACA'
p2351
I45933
sS'ATGCTC'
p2352
I37718
sS'ATTACC'
p2353
I23979
sS'CGAGAC'
p2354
I22528
sS'CGAGAA'
p2355
I21360
sS'AAGTCT'
p2356
I46964
sS'ATGCTA'
p2357
I28175
sS'GGACAT'
p2358
I33690
sS'CAGCGT'
p2359
I29026
sS'GCTATA'
p2360
I15823
sS'GCTATC'
p2361
I16653
sS'AAGTCG'
p2362
I13524
sS'AAGTCA'
p2363
I53428
sS'GCTATG'
p2364
I25687
sS'AAGTCC'
p2365
I46364
sS'GGACAG'
p2366
I84952
sS'GGACAC'
p2367
I52584
sS'GGACAA'
p2368
I44092
sS'GCACCT'
p2369
I63073
sS'AGGGTT'
p2370
I52341
sS'GAGGCG'
p2371
I74438
sS'TGTTGG'
p2372
I51541
sS'GAGGCA'
p2373
I99778
sS'TGTTGA'
p2374
I41118
sS'GAGGCC'
p2375
I119106
sS'TGTTGC'
p2376
I45710
sS'ACTCGA'
p2377
I10523
sS'TAAAAT'
p2378
I79563
sS'ACTCGC'
p2379
I18212
sS'AAGCTT'
p2380
I50160
sS'ACTCGG'
p2381
I25106
sS'TGTTGT'
p2382
I47717
sS'GAGGCT'
p2383
I109950
sS'AGCGCC'
p2384
I54260
sS'AGGGTG'
p2385
I83153
sS'AGGGTA'
p2386
I33405
sS'AGCGCG'
p2387
I37034
sS'AGGGTC'
p2388
I58946
sS'TAAAAG'
p2389
I64027
sS'ACTCGT'
p2390
I9333
sS'TAAAAC'
p2391
I52652
sS'TAAAAA'
p2392
I104026
sS'CTACTC'
p2393
I34586
sS'AGCTGC'
p2394
I106944
sS'CTACTA'
p2395
I21212
sS'AGCTGA'
p2396
I77133
sS'ACGTTG'
p2397
I11840
sS'AGCTGG'
p2398
I122285
sS'TAGGGG'
p2399
I47681
sS'TAAATG'
p2400
I55541
sS'AGTGCG'
p2401
I20387
sS'AGTGCA'
p2402
I52679
sS'AGAGTT'
p2403
I51396
sS'AGTGCC'
p2404
I55800
sS'AAAACC'
p2405
I65058
sS'TAGGGT'
p2406
I29357
sS'GCATAG'
p2407
I22383
sS'AGCTGT'
p2408
I72671
sS'ACGTTT'
p2409
I17821
sS'AGTGCT'
p2410
I62824
sS'TCATAA'
p2411
I27775
sS'AGAGTA'
p2412
I32612
sS'AGAGTG'
p2413
I62633
sS'TTCGTA'
p2414
I6795
sS'GTTAAA'
p2415
I41335
sS'CCTGGC'
p2416
I151701
sS'GTTAAC'
p2417
I22057
sS'GTCTGT'
p2418
I53654
sS'CCTGGG'
p2419
I199325
sS'GTTAAG'
p2420
I30089
sS'TTCGTC'
p2421
I10883
sS'GCACCC'
p2422
I67821
sS'GTCTGG'
p2423
I67823
sS'GTCTGC'
p2424
I54825
sS'GTTAAT'
p2425
I28859
sS'GTCTGA'
p2426
I45780
sS'GCGGNC'
p2427
I1
sS'CCGGTC'
p2428
I23787
sS'GGAAGG'
p2429
I149677
sS'CCACAT'
p2430
I52502
sS'GGAAGC'
p2431
I98165
sS'CTAATG'
p2432
I29707
sS'GGAAGA'
p2433
I106344
sS'TGTATT'
p2434
I46192
sS'TCCTCT'
p2435
I116365
sS'GCGTTC'
p2436
I17884
sS'CAATGC'
p2437
I33252
sS'GCGTTG'
p2438
I15298
sS'CAATGG'
p2439
I39812
sS'CCACAG'
p2440
I104931
sS'GGAAGT'
p2441
I67678
sS'CCACAC'
p2442
I72978
sS'CCACAA'
p2443
I53605
sS'TATCGT'
p2444
I4441
sS'ATTTGT'
p2445
I53370
sS'TCCTCG'
p2446
I35665
sS'TGTATG'
p2447
I29680
sS'TCCTCA'
p2448
I85069
sS'GCGTTT'
p2449
I20299
sS'TCCTCC'
p2450
I162181
sS'TGTATC'
p2451
I23617
sS'GTGAAT'
p2452
I39064
sS'TAACCG'
p2453
I7742
sS'TCATAG'
p2454
I24474
sS'TTCGTG'
p2455
I14375
sS'CGTTAC'
p2456
I7118
sS'TAACCC'
p2457
I28526
sS'TCATAC'
p2458
I17893
sS'TAACCA'
p2459
I31135
sS'ACCGCT'
p2460
I18928
sS'TCGCGA'
p2461
I7800
sS'TGCATG'
p2462
I47577
sS'TCAGGA'
p2463
I83734
sS'TTCGTT'
p2464
I13710
sS'TCATAT'
p2465
I24398
sS'TAACCT'
p2466
I31750
sS'GTGAAG'
p2467
I56660
sS'GTGAAA'
p2468
I61178
sS'GTGAAC'
p2469
I31365
sS'AACCCG'
p2470
I23310
sS'ACCGCG'
p2471
I24599
sS'ACCGCA'
p2472
I20951
sS'AACGAG'
p2473
I14798
sS'ACCGCC'
p2474
I35814
sS'AGTTCC'
p2475
I52596
sS'CCGCCT'
p2476
I77858
sS'AGGCTT'
p2477
I69642
sS'CCTTCT'
p2478
I103306
sS'TTGGNG'
p2479
I1
sS'GTTGCA'
p2480
I36102
sS'AACGAA'
p2481
I13721
sS'GTTGCC'
p2482
I41675
sS'GTGCCG'
p2483
I25899
sS'GTGCCA'
p2484
I52290
sS'GTTGCG'
p2485
I11786
sS'GTGCCC'
p2486
I70240
sS'CCGCCG'
p2487
I90692
sS'AGGCTA'
p2488
I35071
sS'CCTTCC'
p2489
I149661
sS'AGGCTC'
p2490
I83419
sS'CCGCCC'
p2491
I142971
sS'AATTGG'
p2492
I32730
sS'CCTTCG'
p2493
I25212
sS'AGGCTG'
p2494
I150749
sS'GTGCCT'
p2495
I66614
sS'TCCAAA'
p2496
I65752
sS'GTTGCT'
p2497
I44996
sS'NNNGCG'
p2498
I1
sS'GGATAT'
p2499
I21650
sS'TCGGGT'
p2500
I18188
sS'ATTTGA'
p2501
I50291
sS'GCAGTT'
p2502
I51115
sS'GAAGCT'
p2503
I67964
sS'GGATAA'
p2504
I28195
sS'TCGGGA'
p2505
I28275
sS'NNNNNG'
p2506
I6
sS'TCGGGG'
p2507
I45591
sS'GGATAG'
p2508
I23399
sS'GAAGCG'
p2509
I32172
sS'GCAGTG'
p2510
I91330
sS'GAAGCC'
p2511
I83428
sS'GCAGTA'
p2512
I32240
sS'GAAGCA'
p2513
I72915
sS'GCAGTC'
p2514
I48399
sS'CGCCCG'
p2515
I72315
sS'GAGAGA'
p2516
I129767
sS'GTTCAT'
p2517
I29100
sS'GAGAGG'
p2518
I137147
sS'CGCCCA'
p2519
I55348
sS'AGTTTG'
p2520
I53186
sS'ACGCAG'
p2521
I29175
sS'NNNNNN'
p2522
I875
sS'CTATAC'
p2523
I12634
sS'ACGCAA'
p2524
I10832
sS'CTCGCA'
p2525
I22448
sS'CGCCCT'
p2526
I60482
sS'CTCGCG'
p2527
I26911
sS'AAACAT'
p2528
I57051
sS'CTATAT'
p2529
I17963
sS'AACTGA'
p2530
I53167
sS'GCCGGG'
p2531
I109822
sS'AGCATC'
p2532
I46618
sS'TACCCG'
p2533
I12393
sS'GCCGGC'
p2534
I75831
sS'CATGTT'
p2535
I41853
sS'GCCGGA'
p2536
I37231
sS'AGAAAC'
p2537
I77392
sS'AGTTTA'
p2538
I40781
sS'TACCCA'
p2539
I35283
sS'CATGTA'
p2540
I27047
sS'CATGTC'
p2541
I33168
sS'GCCGGT'
p2542
I25563
sS'CATGTG'
p2543
I50581
sS'TACCCC'
p2544
I32346
sS'GGCCTG'
p2545
I128399
sS'GGCCTC'
p2546
I119154
sS'NNGCGC'
p2547
I1
sS'GGCCTA'
p2548
I30554
sS'TTTGTT'
p2549
I104736
sS'AATCGG'
p2550
I10765
sS'AATCGC'
p2551
I12429
sS'AATCGA'
p2552
I7860
sS'GTTCAG'
p2553
I45716
sS'TCACTG'
p2554
I75798
sS'TCACTA'
p2555
I29060
sS'CAGCGA'
p2556
I30912
sS'AATCGT'
p2557
I7948
sS'AGCCGA'
p2558
I27907
sS'CCTTCA'
p2559
I70201
sS'AGCCGC'
p2560
I56241
sS'TAATTG'
p2561
I31125
sS'AAAAAT'
p2562
I115601
sS'AGCCGG'
p2563
I57038
sS'TAATTC'
p2564
I34732
sS'TGGTGA'
p2565
I59968
sS'TCTCAT'
p2566
I53086
sS'TGGTGC'
p2567
I55023
sS'GATGGC'
p2568
I47281
sS'GGGCTG'
p2569
I163593
sS'TGGTGG'
p2570
I92307
sS'GATGGG'
p2571
I70897
sS'TAATTT'
p2572
I64080
sS'GTTTTA'
p2573
I52632
sS'GAGCGA'
p2574
I28195
sS'AGCCGT'
p2575
I19723
sS'AAAAAG'
p2576
I112307
sS'TGACAG'
p2577
I61860
sS'CCAAGG'
p2578
I86298
sS'ACGTAT'
p2579
I6694
sS'TCTCAG'
p2580
I93436
sS'GATGGT'
p2581
I34825
sS'TGGTGT'
p2582
I49217
sS'GGGCTT'
p2583
I76732
sS'ATTCGT'
p2584
I8703
sS'AGAACT'
p2585
I54861
sS'CCGCCA'
p2586
I51433
sS'TACCAT'
p2587
I23811
sS'AGATAG'
p2588
I29505
sS'ACCCGG'
p2589
I42528
sS'ACCCGA'
p2590
I18193
sS'AGATAC'
p2591
I25568
sS'ACCCGC'
p2592
I38066
sS'ACCAGT'
p2593
I35358
sS'TACCAC'
p2594
I26740
sS'AGAACG'
p2595
I18220
sS'TACCAA'
p2596
I26371
sS'ATTGCC'
p2597
I31137
sS'TACCAG'
p2598
I34172
sS'AGAACC'
p2599
I49660
sS'ACCAGC'
p2600
I70584
sS'CACTGG'
p2601
I76897
sS'ATGTCC'
p2602
I33695
sS'TGACAA'
p2603
I44223
sS'ACCAGG'
p2604
I78540
sS'CACTGC'
p2605
I91346
sS'CCTATC'
p2606
I24015
sS'CACTGA'
p2607
I62509
sS'TAGGTT'
p2608
I26193
sS'GTTTAC'
p2609
I29168
sS'AATTAT'
p2610
I41433
sS'CTGTTG'
p2611
I56826
sS'TGCTAT'
p2612
I30404
sS'CTGTTC'
p2613
I58411
sS'CGGGTT'
p2614
I23300
sS'CTGTTA'
p2615
I38496
sS'AATTAC'
p2616
I33918
sS'TACATG'
p2617
I27054
sS'TAGGTG'
p2618
I35284
sS'AATTAG'
p2619
I40072
sS'TAGGTC'
p2620
I22036
sS'CGGGTC'
p2621
I34153
sS'CTGTTT'
p2622
I85073
sS'CGGGTA'
p2623
I12391
sS'CGGGTG'
p2624
I41948
sS'CACACT'
p2625
I58217
sS'CATTAC'
p2626
I24634
sS'GCAATG'
p2627
I37689
sS'AGCAAA'
p2628
I76758
sS'ATATAT'
p2629
I40615
sS'AGCAAC'
p2630
I44994
sS'TTAGGC'
p2631
I28905
sS'AAAGCT'
p2632
I67272
sS'TTAGGA'
p2633
I44641
sS'AAAGCA'
p2634
I89919
sS'ATATAG'
p2635
I17969
sS'TTAGGT'
p2636
I28222
sS'ATATAA'
p2637
I32114
sS'AGCAAT'
p2638
I41554
sS'ATATAC'
p2639
I18572
sS'TACTTC'
p2640
I32049
sS'TACTTA'
p2641
I26685
sS'TACTTG'
p2642
I30020
sS'ATAGCG'
p2643
I7364
sS'TCTCAC'
p2644
I61088
sS'CAGCAT'
p2645
I61739
sS'CAGCGC'
p2646
I63449
sS'ATAGCT'
p2647
I28292
sS'TACTTT'
p2648
I46431
sS'CGAGTT'
p2649
I14659
sS'TCCAAT'
p2650
I31845
sS'CGTACT'
p2651
I6115
sS'TCCCGT'
p2652
I23230
sS'ACATAC'
p2653
I25501
sS'CTTAAG'
p2654
I36619
sS'ACATAA'
p2655
I33122
sS'CTTAAA'
p2656
I55102
sS'AGGGGT'
p2657
I71338
sS'CTTAAC'
p2658
I30083
sS'TCCAAG'
p2659
I63474
sS'NGCANC'
p2660
I1
sS'CGTACC'
p2661
I7059
sS'TTGTTA'
p2662
I42139
sS'CGAGTA'
p2663
I8808
sS'CGAGTC'
p2664
I18990
sS'AGGGGA'
p2665
I123088
sS'CTTAAT'
p2666
I33313
sS'AGGGGC'
p2667
I121796
sS'TATGCA'
p2668
I32786
sS'AGGGGG'
p2669
I114580
sS'TCATTA'
p2670
I37742
sS'CGACTT'
p2671
I13523
sS'TGAATT'
p2672
I53990
sS'TTGTAA'
p2673
I43711
sS'CACAAA'
p2674
I68438
sS'TTGTAC'
p2675
I19641
sS'TTGTAG'
p2676
I32637
sS'TGAATC'
p2677
I35636
sS'GATTGG'
p2678
I35260
sS'TGAATA'
p2679
I39759
sS'GGATAC'
p2680
I18626
sS'TGAATG'
p2681
I57579
sS'CACACA'
p2682
I144361
sS'CGACTG'
p2683
I16713
sS'TTGTAT'
p2684
I34086
sS'ATCGTG'
p2685
I10741
sS'GCTTCG'
p2686
I21695
sS'GCTTCA'
p2687
I55887
sS'ATCGTA'
p2688
I4635
sS'TGGGAG'
p2689
I140356
sS'TGGGAA'
p2690
I107713
sS'GNGCAN'
p2691
I1
sS'TGGGAC'
p2692
I63601
sS'GCTTCT'
p2693
I80683
sS'TGGCAC'
p2694
I52308
sS'GATTGA'
p2695
I24298
sS'TGGGAT'
p2696
I65117
sS'CTAGCC'
p2697
I34273
sS'CTAGCA'
p2698
I33334
sS'CTAGCG'
p2699
I12775
sS'CGGTAG'
p2700
I11870
sS'ACTTAG'
p2701
I29533
sS'ACTTAA'
p2702
I37876
sS'CGGTAC'
p2703
I7399
sS'ACTTAC'
p2704
I25510
sS'CGGTAA'
p2705
I9402
sS'GACCAG'
p2706
I60668
sS'GACCAC'
p2707
I40294
sS'GACCAA'
p2708
I33905
sS'TTCGAG'
p2709
I16009
sS'TACACC'
p2710
I21523
sS'CGGTAT'
p2711
I5706
sS'TACACA'
p2712
I39196
sS'TACACG'
p2713
I9283
sS'CGTTTA'
p2714
I11347
sS'GCGAGA'
p2715
I27438
sS'GAGAGC'
p2716
I79706
sS'GCGAGC'
p2717
I36404
sS'GGCCGT'
p2718
I27370
sS'GCGAGG'
p2719
I53881
sS'CAGCCG'
p2720
I59800
sS'CAGCCA'
p2721
I115724
sS'CAGCCC'
p2722
I163587
sS'GCTGAA'
p2723
I65470
sS'GCGAGT'
p2724
I18209
sS'GAACTG'
p2725
I54546
sS'GAACTC'
p2726
I45814
sS'GAACTA'
p2727
I24392
sS'GGACTT'
p2728
I46381
sS'CACCTA'
p2729
I35281
sS'AACTAT'
p2730
I23687
sS'CACCTC'
p2731
I93670
sS'CACCTG'
p2732
I108056
sS'TGATCC'
p2733
I35868
sS'AACACT'
p2734
I45639
sS'TGATCA'
p2735
I30717
sS'ATTTAA'
p2736
I65919
sS'NAGAAA'
p2737
I1
sS'GCATTG'
p2738
I33231
sS'GGACTG'
p2739
I62717
sS'CACCTT'
p2740
I62868
sS'GGACTA'
p2741
I23813
sS'GGACTC'
p2742
I54074
sS'AACGAT'
p2743
I7769
sS'AACACG'
p2744
I16673
sS'AACACA'
p2745
I64945
sS'CGTCTC'
p2746
I31990
sS'AACACC'
p2747
I42544
sS'TGATCT'
p2748
I40423
sS'CCAGCA'
p2749
I118440
sS'GCATTC'
p2750
I46880
sS'CAACAG'
p2751
I56858
sS'GACAGT'
p2752
I40115
sS'CAACAA'
p2753
I49047
sS'AAAGAA'
p2754
I134487
sS'CAACAC'
p2755
I41354
sS'GCTGAT'
p2756
I42694
sS'GCATTA'
p2757
I26113
sS'GACAGG'
p2758
I78684
sS'CAACAT'
p2759
I38861
sS'GACAGC'
p2760
I63868
sS'GACAGA'
p2761
I75702
sS'GTATTA'
p2762
I19935
sS'GTATTC'
p2763
I22007
sS'GTAAGT'
p2764
I25522
sS'ATATCA'
p2765
I22804
sS'GTATTG'
p2766
I19160
sS'GGTGGC'
p2767
I97165
sS'TCCCCT'
p2768
I123132
sS'GGTGGA'
p2769
I78334
sS'TATCTT'
p2770
I35560
sS'GGTGGG'
p2771
I150977
sS'ATCCCT'
p2772
I55135
sS'AGAGGC'
p2773
I107343
sS'GTAAGA'
p2774
I30930
sS'AGAGGA'
p2775
I116382
sS'CTCGCC'
p2776
I49555
sS'GTATTT'
p2777
I52832
sS'GTAAGG'
p2778
I30295
sS'CGTCAA'
p2779
I8550
sS'TATCTC'
p2780
I31935
sS'TCCCCC'
p2781
I114730
sS'GGTGGT'
p2782
I60841
sS'TATTGC'
p2783
I22499
sS'GTCGCG'
p2784
I14900
sS'GTCGCA'
p2785
I12182
sS'GTCGCC'
p2786
I28458
sS'TCGGTC'
p2787
I14435
sS'TCGGTA'
p2788
I6800
sS'GAGAGT'
p2789
I50730
sS'TCGGTG'
p2790
I20535
sS'GTCGCT'
p2791
I18357
sS'CCGTCG'
p2792
I13802
sS'CCGTCA'
p2793
I16630
sS'CCGTCC'
p2794
I36385
sS'GGCTGT'
p2795
I82210
sS'CGCGTG'
p2796
I22095
sS'GCATTT'
p2797
I68469
sS'CGCGTC'
p2798
I22963
sS'CGCGTA'
p2799
I4968
sS'TTCGAA'
p2800
I10759
sS'CCACTA'
p2801
I32813
sS'CCTACA'
p2802
I35450
sS'CGCGTT'
p2803
I11079
sS'GGCTGG'
p2804
I174998
sS'GGCTGA'
p2805
I92104
sS'GGCTGC'
p2806
I140530
sS'ATGCAT'
p2807
I37503
sS'TTTAGA'
p2808
I47981
sS'AAACCA'
p2809
I67033
sS'ATGACG'
p2810
I10447
sS'GGAGTT'
p2811
I59969
sS'ATGACA'
p2812
I43146
sS'ATGACC'
p2813
I29600
sS'CCTGAT'
p2814
I44603
sS'GGGCCT'
p2815
I104928
sS'ATGACT'
p2816
I36791
sS'GGAGTA'
p2817
I29698
sS'GGAGTC'
p2818
I59395
sS'GGAGTG'
p2819
I79258
sS'GGGCCG'
p2820
I87732
sS'GGGCCC'
p2821
I121646
sS'GGGCCA'
p2822
I90748
sS'GGCAAG'
p2823
I63339
sS'ACGAGT'
p2824
I9337
sS'TTCNNN'
p2825
I4
sS'AGGCCA'
p2826
I92520
sS'GCGCAC'
p2827
I33102
sS'AAAGTC'
p2828
I48270
sS'AGGCCG'
p2829
I56370
sS'ACGAGG'
p2830
I24206
sS'AGTATC'
p2831
I19814
sS'ACGAGC'
p2832
I13827
sS'ACGAGA'
p2833
I13788
sS'CTGATG'
p2834
I52085
sS'AGGCCT'
p2835
I93695
sS'GCTCTA'
p2836
I33147
sS'AGACGG'
p2837
I29447
sS'GGGTTG'
p2838
I52406
sS'TTTGGG'
p2839
I84501
sS'GGGTTA'
p2840
I28529
sS'CTCGGG'
p2841
I56640
sS'GGGTTC'
p2842
I49931
sS'TTTGAT'
p2843
I42086
sS'TGAACT'
p2844
I45755
sS'CTACGA'
p2845
I7462
sS'ATTGCT'
p2846
I41561
sS'GGGTTT'
p2847
I63140
sS'TACAAG'
p2848
I29234
sS'AGATCC'
p2849
I39733
sS'TGCGAG'
p2850
I22450
sS'AACGGC'
p2851
I15398
sS'TTTGAG'
p2852
I69582
sS'AACGGA'
p2853
I15116
sS'GACTAG'
p2854
I22024
sS'AACGGG'
p2855
I19110
sS'TTTGAC'
p2856
I34000
sS'TTTGAA'
p2857
I73750
sS'AAGCAG'
p2858
I93268
sS'CGGGCT'
p2859
I54854
sS'TGACGT'
p2860
I13903
sS'CTCGTC'
p2861
I18994
sS'CCCTGG'
p2862
I154999
sS'CCCTGA'
p2863
I88236
sS'CTCGTG'
p2864
I20373
sS'GATATT'
p2865
I26318
sS'CCCTGT'
p2866
I82852
sS'TTGACG'
p2867
I8544
sS'GATATA'
p2868
I15724
sS'TGACGG'
p2869
I16646
sS'GATATG'
p2870
I18882
sS'AAGCTG'
p2871
I80462
sS'TGACGC'
p2872
I15794
sS'TACTCT'
p2873
I32612
sS'CATCGT'
p2874
I11048
sS'CAGGGT'
p2875
I82082
sS'CCAGTC'
p2876
I60214
sS'GACACA'
p2877
I55135
sS'CCAGTG'
p2878
I76882
sS'TACTCG'
p2879
I8798
sS'CATCGA'
p2880
I8644
sS'CATCGC'
p2881
I16894
sS'TACTCC'
p2882
I29708
sS'NGAATT'
p2883
I4
sS'TACTCA'
p2884
I31757
sS'CATCGG'
p2885
I12480
sS'TGCNCC'
p2886
I1
sS'CAGGGG'
p2887
I124489
sS'CAGGGA'
p2888
I135084
sS'CAGGGC'
p2889
I139767
sS'AATCTG'
p2890
I50086
sS'CGGACT'
p2891
I17803
sS'TCCTGA'
p2892
I83746
sS'AATCTC'
p2893
I45478
sS'AATCTA'
p2894
I27932
sS'TGAACG'
p2895
I12634
sS'TCACAC'
p2896
I53672
sS'TCACAA'
p2897
I47099
sS'TCACAG'
p2898
I78774
sS'GCCATA'
p2899
I21222
sS'CGGACG'
p2900
I17401
sS'GCCATC'
p2901
I47291
sS'CGGACA'
p2902
I18745
sS'CGGACC'
p2903
I25163
sS'GCCATG'
p2904
I54188
sS'CTTACC'
p2905
I31682
sS'CGCNNN'
p2906
I1
sS'TCACAT'
p2907
I47616
sS'TGAACC'
p2908
I37934
sS'ATTAAC'
p2909
I28840
sS'ATTAAA'
p2910
I61799
sS'ATTAAG'
p2911
I33315
sS'TTTTAC'
p2912
I49828
sS'TCACTT'
p2913
I61929
sS'ACTCCT'
p2914
I67313
sS'ACATCC'
p2915
I40394
sS'CAGNNN'
p2916
I1
sS'CGGCCA'
p2917
I44329
sS'ATTAAT'
p2918
I36505
sS'ATCATG'
p2919
I28594
sS'GAACCA'
p2920
I43892
sS'GGTATG'
p2921
I21210
sS'GGTATA'
p2922
I13815
sS'GGTATC'
p2923
I17337
sS'GAACCG'
p2924
I18427
sS'GGNGCA'
p2925
I1
sS'ACGAAT'
p2926
I8700
sS'GGTATT'
p2927
I26950
sS'CTGAAC'
p2928
I45720
sS'CTGAAG'
p2929
I82682
sS'NNNNGC'
p2930
I1
sS'CCCGAA'
p2931
I23490
sS'TAGGTA'
p2932
I21711
sS'GTAGTG'
p2933
I23301
sS'CCCGGC'
p2934
I109848
sS'CATTGA'
p2935
I30597
sS'CTAGTT'
p2936
I26329
sS'CATTGG'
p2937
I33724
sS'TCAACT'
p2938
I33863
sS'ATGTTA'
p2939
I32701
sS'ACACCG'
p2940
I18934
sS'CTGCCA'
p2941
I99641
sS'CTGCCC'
p2942
I157752
sS'ACACCC'
p2943
I57281
sS'ACACCA'
p2944
I49209
sS'CTGCCG'
p2945
I54929
sS'CTAGTG'
p2946
I32388
sS'TCAACC'
p2947
I30300
sS'TCAACA'
p2948
I41107
sS'CTAGTC'
p2949
I22031
sS'TCAACG'
p2950
I9366
sS'CTAGTA'
p2951
I16209
sS'CATTGT'
p2952
I41947
sS'TATGAC'
p2953
I17700
sS'GTAATG'
p2954
I24624
sS'ACACCT'
p2955
I53572
sS'CTGCCT'
p2956
I150032
sS'CCTCGT'
p2957
I24217
sS'TTGTGT'
p2958
I52656
sS'GAGGAC'
p2959
I64282
sS'AGACTG'
p2960
I60499
sS'GGCCTT'
p2961
I69500
sS'AGACTA'
p2962
I25366
sS'CCTCGG'
p2963
I62884
sS'CCTCGC'
p2964
I53884
sS'CCTCGA'
p2965
I21110
sS'CGAGGA'
p2966
I35678
sS'AGACTT'
p2967
I46963
sS'GCCACT'
p2968
I68617
sS'CGAGGG'
p2969
I49449
sS'CACCGT'
p2970
I21445
sS'ACTTTA'
p2971
I39750
sS'ACTTTG'
p2972
I59248
sS'GAATAC'
p2973
I22019
sS'GACCTG'
p2974
I62351
sS'GACCTA'
p2975
I22038
sS'GACCTC'
p2976
I55750
sS'CACCGG'
p2977
I31486
sS'ACGCTG'
p2978
I29021
sS'CACCGA'
p2979
I20556
sS'CACCGC'
p2980
I48020
sS'GACCTT'
p2981
I41869
sS'CGCCCC'
p2982
I127961
sS'GGACGG'
p2983
I36387
sS'GCATAA'
p2984
I24509
sS'CACAGC'
p2985
I102660
sS'CTTATC'
p2986
I25698
sS'CACAGA'
p2987
I90019
sS'CTTATA'
p2988
I20685
sS'CACAGG'
p2989
I99262
sS'CTTATG'
p2990
I23592
sS'ACTCAT'
p2991
I33211
sS'GAGGAG'
p2992
I163539
sS'GACGTA'
p2993
I5901
sS'CGTATC'
p2994
I5775
sS'GCATAC'
p2995
I16167
sS'TAAACT'
p2996
I40806
sS'GAGGAA'
p2997
I117923
sS'AGCGAT'
p2998
I14466
sS'TTAACA'
p2999
I44441
sS'ACTCAC'
p3000
I48427
sS'TTAACC'
p3001
I29839
sS'TATGAT'
p3002
I20199
sS'ACTCAG'
p3003
I66968
sS'CTTATT'
p3004
I40020
sS'CACAGT'
p3005
I61052
sS'AGCGAC'
p3006
I18364
sS'TAAACA'
p3007
I53859
sS'AGCGAA'
p3008
I16899
sS'TAAACC'
p3009
I30830
sS'GACGTT'
p3010
I11650
sS'TCTAAA'
p3011
I47971
sS'GAGTTC'
p3012
I45790
sS'CTGTGG'
p3013
I104888
sS'GTATGT'
p3014
I25506
sS'AGTTCA'
p3015
I45734
sS'CTGTGC'
p3016
I84562
sS'CTGTGA'
p3017
I78765
sS'GAGCGT'
p3018
I18919
sS'TAGGAC'
p3019
I24773
sS'GCAAAG'
p3020
I70846
sS'TAGGAA'
p3021
I54293
sS'GCAAAA'
p3022
I61274
sS'TAGGAG'
p3023
I49801
sS'GCAAAC'
p3024
I44771
sS'CGGGGC'
p3025
I114428
sS'CGGGGA'
p3026
I73230
sS'CTGTGT'
p3027
I84589
sS'GTATGA'
p3028
I17890
sS'GTATGC'
p3029
I16167
sS'AGTTCT'
p3030
I54869
sS'GCAAAT'
p3031
I51302
sS'TAGGAT'
p3032
I28378
sS'TAATTA'
p3033
I41345
sS'ACGCTT'
p3034
I13894
sS'TGCTTT'
p3035
I89920
sS'ACAGGA'
p3036
I79016
sS'TGGGNC'
p3037
I1
sS'GTAATT'
p3038
I33907
sS'GTTACC'
p3039
I23146
sS'GTTACA'
p3040
I29035
sS'GTTTTT'
p3041
I81958
sS'GTTACG'
p3042
I5999
sS'TATCGC'
p3043
I5478
sS'TATAGT'
p3044
I16536
sS'GTCTAA'
p3045
I20766
sS'TGCTTA'
p3046
I38330
sS'GTCTAC'
p3047
I17331
sS'TGCTTC'
p3048
I72909
sS'TTCAAA'
p3049
I73775
sS'GTCTAG'
p3050
I23511
sS'GGGCTC'
p3051
I109213
sS'TATAGC'
p3052
I15830
sS'TTTATC'
p3053
I39598
sS'TATAGA'
p3054
I21605
sS'AGCTCA'
p3055
I72112
sS'TATAGG'
p3056
I18332
sS'GTTACT'
p3057
I27847
sS'GCTCTC'
p3058
I79709
sS'AACCTT'
p3059
I41835
sS'GGGCTA'
p3060
I33430
sS'GCTCTG'
p3061
I116768
sS'CCACGT'
p3062
I28634
sS'GGCGTT'
p3063
I18801
sS'CAGGAG'
p3064
I150635
sS'GAATGG'
p3065
I54279
sS'GNTGCN'
p3066
I1
sS'GAATGA'
p3067
I56149
sS'ACTACT'
p3068
I23255
sS'GAATGC'
p3069
I46883
sS'CCACGA'
p3070
I20208
sS'GGCGTC'
p3071
I31962
sS'CCACGC'
p3072
I44241
sS'GGCGTA'
p3073
I8119
sS'GTTCCG'
p3074
I17392
sS'GGAAAT'
p3075
I73556
sS'CCACGG'
p3076
I39073
sS'AACCTA'
p3077
I26182
sS'GGCTTA'
p3078
I32341
sS'ACTACC'
p3079
I20757
sS'GGCTTC'
p3080
I83423
sS'ACTACA'
p3081
I30667
sS'ACTACG'
p3082
I7413
sS'GGCTTG'
p3083
I62964
sS'TCCTAG'
p3084
I46266
sS'AGTCAG'
p3085
I60461
sS'CGTTGC'
p3086
I14619
sS'TAACAC'
p3087
I27400
sS'TCCTAC'
p3088
I35230
sS'AGTCAC'
p3089
I48620
sS'TCCTAA'
p3090
I44665
sS'TAACAG'
p3091
I38525
sS'TCATCG'
p3092
I11081
sS'AAGCGT'
p3093
I13899
sS'TCATCC'
p3094
I47592
sS'AAAAAC'
p3095
I82003
sS'TCATCA'
p3096
I42385
sS'AGTCAT'
p3097
I36802
sS'TCCTAT'
p3098
I31059
sS'TAACAT'
p3099
I32719
sS'CGTTGT'
p3100
I10941
sS'CTTTCC'
p3101
I112546
sS'TCCCTT'
p3102
I97051
sS'TCATCT'
p3103
I56373
sS'CTTTCG'
p3104
I16774
sS'GAGCGC'
p3105
I51053
sS'GTTGAT'
p3106
I22457
sS'CGACCA'
p3107
I13240
sS'CGACCC'
p3108
I29823
sS'CGACCG'
p3109
I11366
sS'CCTTAT'
p3110
I30122
sS'GTTGAC'
p3111
I20267
sS'GTTGAA'
p3112
I34297
sS'GTTGAG'
p3113
I37597
sS'CCTTAC'
p3114
I30291
sS'CCTTAA'
p3115
I39515
sS'CCTTAG'
p3116
I39659
sS'CGACCT'
p3117
I18865
sS'CAACTC'
p3118
I43980
sS'CAACTA'
p3119
I22093
sS'CAACTG'
p3120
I42678
sS'AATAGG'
p3121
I31651
sS'TCTCAA'
p3122
I60736
sS'GGGGTT'
p3123
I60617
sS'GTCCCT'
p3124
I73963
sS'ATTCNN'
p3125
I4
sS'GGATGT'
p3126
I40405
sS'AATAGT'
p3127
I26472
sS'GCAGCC'
p3128
I140512
sS'CAACTT'
p3129
I40433
sS'GGGGTG'
p3130
I119426
sS'GGATGA'
p3131
I47585
sS'GGGGTC'
p3132
I74378
sS'GGGGTA'
p3133
I32343
sS'TCTCCG'
p3134
I37688
sS'GAGTCC'
p3135
I54063
sS'GAGTCA'
p3136
I50776
sS'TCTCCC'
p3137
I132057
sS'CCCTTT'
p3138
I92180
sS'TCTCCA'
p3139
I99610
sS'AAACTC'
p3140
I56131
sS'CTATGA'
p3141
I24479
sS'AGTACG'
p3142
I6113
sS'ACGCGC'
p3143
I22081
sS'AGTACC'
p3144
I21713
sS'CTATGG'
p3145
I25898
sS'TGCCGC'
p3146
I39914
sS'AAACTT'
p3147
I56604
sS'CCCTTC'
p3148
I112767
sS'TCTCCT'
p3149
I119902
sS'CCCTTG'
p3150
I68305
sS'AGTACT'
p3151
I24924
sS'CTATGT'
p3152
I25997
sS'GCCGAA'
p3153
I17055
sS'GTGGAG'
p3154
I91300
sS'GCCGAC'
p3155
I21134
sS'GTGGAC'
p3156
I36047
sS'GCCGAG'
p3157
I57426
sS'GTGGAA'
p3158
I61595
sS'GTGGAT'
p3159
I37047
sS'GCCGAT'
p3160
I10343
sS'CCTATT'
p3161
I31655
sS'TATCTG'
p3162
I36327
sS'CACTGT'
p3163
I61054
sS'GTAGTC'
p3164
I18731
sS'AAATCG'
p3165
I12852
sS'GTAGTA'
p3166
I15505
sS'TTATCG'
p3167
I5562
sS'CACGCA'
p3168
I27496
sS'AAATCC'
p3169
I55175
sS'ACCGAA'
p3170
I12004
sS'AAATCA'
p3171
I62210
sS'GGCTTT'
p3172
I76248
sS'AGAGGG'
p3173
I130051
sS'ATGTCT'
p3174
I41547
sS'TCCCGA'
p3175
I28289
sS'CACGCT'
p3176
I25294
sS'AAATCT'
p3177
I58520
sS'ACCGAT'
p3178
I6680
sS'CTTGAA'
p3179
I56436
sS'GTAGTT'
p3180
I24537
sS'AGATAA'
p3181
I44048
sS'CGTTAT'
p3182
I6815
sS'GATGAT'
p3183
I29193
sS'GGAGCA'
p3184
I85224
sS'GGAGCC'
p3185
I126318
sS'CCGGCT'
p3186
I57028
sS'CCAAAT'
p3187
I53895
sS'GGAGCG'
p3188
I60405
sS'AAAACT'
p3189
I66724
sS'GATGAC'
p3190
I30813
sS'GATGAA'
p3191
I45536
sS'GCTCTT'
p3192
I65277
sS'GATGAG'
p3193
I51905
sS'CCAAAA'
p3194
I64898
sS'AGAACA'
p3195
I64781
sS'CCAAAC'
p3196
I53877
sS'AAAACG'
p3197
I23490
sS'GGAGCT'
p3198
I100072
sS'CCAAAG'
p3199
I79050
sS'TCGCGG'
p3200
I23598
sS'CTAGAG'
p3201
I48406
sS'TCGCGC'
p3202
I21815
sS'AGATCN'
p3203
I1
sS'GGGAGT'
p3204
I69243
sS'TACCCT'
p3205
I33415
sS'AGATCA'
p3206
I40406
sS'GCCACC'
p3207
I97201
sS'AGAAAT'
p3208
I83024
sS'TCCCGG'
p3209
I69828
sS'CGACGG'
p3210
I13806
sS'GCCACG'
p3211
I37350
sS'AGATCG'
p3212
I13161
sS'ATGTCA'
p3213
I40384
sS'TCGCGT'
p3214
I8083
sS'GTGCAA'
p3215
I35183
sS'ACCCGT'
p3216
I13061
sS'AGAAAG'
p3217
I123408
sS'CGACGA'
p3218
I6994
sS'CGGTCG'
p3219
I11364
sS'AGATCT'
p3220
I40901
sS'CCTATG'
p3221
I25892
sS'AGAAAA'
p3222
I146375
sS'GTGCAG'
p3223
I78118
sS'ATGTAC'
p3224
I18070
sS'ACTTCG'
p3225
I13558
sS'ATGTAA'
p3226
I40562
sS'ATGTAG'
p3227
I26747
sS'GTTCGA'
p3228
I9536
sS'ACGTCA'
p3229
I13897
sS'CCGGCA'
p3230
I37832
sS'GACGAC'
p3231
I11809
sS'ATGTCG'
p3232
I8233
sS'ATGTAT'
p3233
I30200
sS'CCGGCG'
p3234
I57340
sS'GACCGG'
p3235
I23791
sS'AGCACT'
p3236
I62792
sS'TTAGAA'
p3237
I53196
sS'CGGCTG'
p3238
I59803
sS'TTAGAC'
p3239
I20757
sS'CGGCTC'
p3240
I58432
sS'TTAGAG'
p3241
I43064
sS'CGGCTA'
p3242
I12937
sS'AGCACC'
p3243
I65214
sS'AGCACA'
p3244
I67938
sS'AGCACG'
p3245
I23019
sS'CGGCTT'
p3246
I29703
sS'TTAGAT'
p3247
I27084
sS'AAAGAC'
p3248
I58508
sS'CGAAGC'
p3249
I21707
sS'CCAGCC'
p3250
I175048
sS'ATATCC'
p3251
I21653
sS'AACTAC'
p3252
I24553
sS'CCAGCG'
p3253
I57596
sS'GCGCTG'
p3254
I63437
sS'TTATTT'
p3255
I100314
sS'TGTGAG'
p3256
I70838
sS'TGTGAA'
p3257
I62103
sS'GGGAGG'
p3258
I250493
sS'TGTGAC'
p3259
I47904
sS'ATATCT'
p3260
I26190
sS'CCAGCT'
p3261
I122270
sS'CACGGT'
p3262
I20153
sS'AAAGAT'
p3263
I54511
sS'TGTGAT'
p3264
I46383
sS'TTATTG'
p3265
I35440
sS'TTATTA'
p3266
I44328
sS'CATGAT'
p3267
I28593
sS'TTATTC'
p3268
I42262
sS'ACATCT'
p3269
I44195
sS'TTTTAT'
p3270
I79768
sS'GCGAAC'
p3271
I11578
sS'CTTACT'
p3272
I33877
sS'TCCACT'
p3273
I57498
sS'TACAAA'
p3274
I53181
sS'AGACGA'
p3275
I14534
sS'TACAAC'
p3276
I21255
sS'CCTCTG'
p3277
I138913
sS'AGGTGG'
p3278
I109939
sS'ATTAGT'
p3279
I22842
sS'CCTCTC'
p3280
I137157
sS'AGGTGC'
p3281
I63081
sS'CCTCTA'
p3282
I48160
sS'AGGTGA'
p3283
I73251
sS'TACAAT'
p3284
I26502
sS'TCCACA'
p3285
I63438
sS'TTTTAG'
p3286
I56491
sS'ACATCG'
p3287
I9525
sS'TTTTAA'
p3288
I113982
sS'ACATCA'
p3289
I38578
sS'CTTACA'
p3290
I34827
sS'TCCACG'
p3291
I26730
sS'AGGTGT'
p3292
I53590
sS'CCTCTT'
p3293
I95363
sS'GCGTGA'
p3294
I23049
sS'TATGAG'
p3295
I24874
sS'CCCGGA'
p3296
I51932
sS'NNCTGA'
p3297
I1
sS'CCCGGG'
p3298
I118455
sS'TATGAA'
p3299
I31794
sS'TGGAAT'
p3300
I64375
sS'AATTAA'
p3301
I55856
sS'TTGTGC'
p3302
I39556
sS'TTGTGA'
p3303
I47100
sS'TTGTGG'
p3304
I53592
sS'CCCGGT'
p3305
I30224
sS'GGCGTG'
p3306
I44821
sS'TGGAAG'
p3307
I88963
sS'TGGAAC'
p3308
I43707
sS'TGGAAA'
p3309
I94834
sS'TGAGGA'
p3310
I85094
sS'AAGAGG'
p3311
I95353
sS'TGAGGC'
p3312
I86342
sS'AAGAGA'
p3313
I94555
sS'AACCTC'
p3314
I53004
sS'TGAGGG'
p3315
I88612
sS'GCTTAG'
p3316
I32914
sS'TNCCAT'
p3317
I1
sS'GCTTAC'
p3318
I21852
sS'GCTTAA'
p3319
I31025
sS'TGATTC'
p3320
I39721
sS'AAGCGC'
p3321
I25974
sS'AAGAGT'
p3322
I47766
sS'AAGCGA'
p3323
I19616
sS'TGAGGT'
p3324
I59541
sS'GCTTAT'
p3325
I24206
sS'GTTCGG'
p3326
I13387
sS'CTGCTA'
p3327
I42709
sS'GCGTGT'
p3328
I23616
sS'CTGCTC'
p3329
I110333
sS'ACTTCT'
p3330
I57576
sS'GACCGT'
p3331
I11518
sS'CTGCTG'
p3332
I154357
sS'CGGTCA'
p3333
I15356
sS'GGTCGT'
p3334
I11506
sS'CGGTCC'
p3335
I28127
sS'CTAGAA'
p3336
I44833
sS'CTAGAC'
p3337
I23514
sS'GACCGA'
p3338
I14440
sS'GACCGC'
p3339
I23848
sS'ACTTCC'
p3340
I67649
sS'CTGCTT'
p3341
I93268
sS'ACTTCA'
p3342
I49614
sS'CTAGAT'
p3343
I25287
sS'GGTCGG'
p3344
I28246
sS'CGGTCT'
p3345
I18742
sS'GGTCGC'
p3346
I23545
sS'GGTCGA'
p3347
I9999
sS'CGTCGC'
p3348
I15820
sS'GCGTGG'
p3349
I44220
sS'CGTCGG'
p3350
I14521
sS'TGGTTG'
p3351
I42932
sS'GCGTGC'
p3352
I28811
sS'TGCTCA'
p3353
I65152
sS'TTCATC'
p3354
I45531
sS'TGCTCC'
p3355
I85225
sS'TTCATA'
p3356
I31788
sS'TTCATG'
p3357
I44051
sS'TGCTCG'
p3358
I20777
sS'GTACAA'
p3359
I19647
sS'CAGCAG'
p3360
I154411
sS'TACACT'
p3361
I25724
sS'GCTTTG'
p3362
I71642
sS'CAGCAC'
p3363
I89666
sS'CAGCAA'
p3364
I74518
sS'GTACAC'
p3365
I16850
sS'TCTGAC'
p3366
I48026
sS'TTCATT'
p3367
I73024
sS'GCTTTA'
p3368
I40148
sS'GCTGCC'
p3369
I129318
sS'GCTGCA'
p3370
I101240
sS'AACTCT'
p3371
I51395
sS'GCTGCG'
p3372
I64855
sS'TGGCCA'
p3373
I90463
sS'GTAGCA'
p3374
I27804
sS'TGCTCT'
p3375
I83805
sS'TTAGGG'
p3376
I41529
sS'TGGCCT'
p3377
I92556
sS'AACTCC'
p3378
I60005
sS'GCTGCT'
p3379
I122974
sS'AACTCG'
p3380
I14654
sS'CAGTCG'
p3381
I16718
sS'TGAAGA'
p3382
I66521
sS'AATATT'
p3383
I51733
sS'CAACCT'
p3384
I47913
sS'CAGTTA'
p3385
I34892
sS'TGGCCG'
p3386
I44322
sS'GGCACG'
p3387
I28574
sS'GGCACA'
p3388
I64429
sS'GACAAT'
p3389
I28663
sS'GGCACC'
p3390
I66221
sS'CAACCG'
p3391
I13815
sS'ACGACC'
p3392
I11504
sS'AATATG'
p3393
I32462
sS'CAACCC'
p3394
I52408
sS'AGCAAG'
p3395
I71077
sS'AATATC'
p3396
I26312
sS'CTTCGT'
p3397
I15729
sS'GACAAA'
p3398
I53304
sS'GGCACT'
p3399
I55783
sS'GACAAC'
p3400
I27037
sS'CAGAAC'
p3401
I58408
sS'GACAAG'
p3402
I45080
sS'TGGCCC'
p3403
I90767
sS'GCTTTT'
p3404
I76570
sS'GCAATA'
p3405
I22486
sS'GAATTT'
p3406
I61383
sS'TTGAAC'
p3407
I34168
sS'CGATGG'
p3408
I15662
sS'GNAGAA'
p3409
I1
sS'TCCCAT'
p3410
I59028
sS'CGATGC'
p3411
I12792
sS'GTAAAT'
p3412
I40660
sS'CGATGA'
p3413
I11092
sS'GAATTA'
p3414
I34737
sS'GAATTC'
p3415
I50145
sS'GAATTG'
p3416
I35738
sS'TCCCAA'
p3417
I74749
sS'CGATGT'
p3418
I9522
sS'TCCCAC'
p3419
I88856
sS'GTAAAG'
p3420
I36505
sS'TCCCAG'
p3421
I154078
sS'GGATTT'
p3422
I55163
sS'GTGCGT'
p3423
I19056
sS'CTATCG'
p3424
I5036
sS'GGATTC'
p3425
I42608
sS'GGATTA'
p3426
I36442
sS'AGGTCC'
p3427
I50826
sS'ACCTCT'
p3428
I65823
sS'CTATCA'
p3429
I22399
sS'AAAGCC'
p3430
I76236
sS'TCTGTG'
p3431
I89988
sS'CTATCC'
p3432
I23402
sS'GTCCCG'
p3433
I40991
sS'AACTCA'
p3434
I49070
sS'GGCGGC'
p3435
I121933
sS'CTCCTT'
p3436
I107120
sS'GGCGGA'
p3437
I54762
sS'AAGAGC'
p3438
I65273
sS'GGCGGG'
p3439
I150395
sS'AACCGA'
p3440
I12748
sS'TCTGTT'
p3441
I69532
sS'AAAGCG'
p3442
I24082
sS'CTCCTG'
p3443
I150566
sS'AACCGT'
p3444
I10245
sS'CTCCTA'
p3445
I49784
sS'CTCCTC'
p3446
I163539
sS'GGCGGT'
p3447
I35809
sS'GACGCA'
p3448
I18704
sS'ACGCCT'
p3449
I26752
sS'GACGCC'
p3450
I31960
sS'CCCACA'
p3451
I90183
sS'CCCACC'
p3452
I151013
sS'ATAGCA'
p3453
I30381
sS'AGCCTT'
p3454
I70274
sS'CCGATT'
p3455
I10755
sS'CCCACT'
p3456
I82504
sS'ACTTTT'
p3457
I66052
sS'AACAAT'
p3458
I43054
sS'GACGCT'
p3459
I21466
sS'GTGCGA'
p3460
I13439
sS'CCGATA'
p3461
I4935
sS'AGCCTG'
p3462
I124208
sS'AGCCTA'
p3463
I34468
sS'CCGATG'
p3464
I12479
sS'GTACCC'
p3465
I21400
sS'GTACCA'
p3466
I19481
sS'GTACCG'
p3467
I7390
sS'CGCCTT'
p3468
I33428
sS'GCGCCT'
p3469
I53731
sS'TCNNNN'
p3470
I5
sS'CAGAGT'
p3471
I69210
sS'GCATCT'
p3472
I49605
sS'ACCTCG'
p3473
I25041
sS'GAGTTG'
p3474
I43973
sS'CGCCTC'
p3475
I74434
sS'CTACAG'
p3476
I45119
sS'CGCCTA'
p3477
I13981
sS'GCGCCG'
p3478
I66677
sS'CGCCTG'
p3479
I64293
sS'GTACCT'
p3480
I25091
sS'CAGAGG'
p3481
I138941
sS'GCATCC'
p3482
I47875
sS'GCATCA'
p3483
I36008
sS'CAGAGC'
p3484
I116798
sS'GCATCG'
p3485
I12793
sS'CAGAGA'
p3486
I119111
sS'AATCAT'
p3487
I34167
sS'TAGCTA'
p3488
I22262
sS'AGACTC'
p3489
I52184
sS'CCTAGA'
p3490
I43873
sS'CCTAGC'
p3491
I39658
sS'TTTGCT'
p3492
I76748
sS'CGGGAG'
p3493
I80340
sS'TGCGGT'
p3494
I20953
sS'CCTAGG'
p3495
I52633
sS'TAAGCA'
p3496
I38335
sS'TTTGCA'
p3497
I76517
sS'TTTGCC'
p3498
I59414
sS'CCTAGT'
p3499
I30206
sS'TGCGGG'
p3500
I51882
sS'TTTGCG'
p3501
I15353
sS'TGAGTT'
p3502
I49073
sS'GGGACG'
p3503
I42620
sS'CGGGAC'
p3504
I40995
sS'ATCGCT'
p3505
I14467
sS'ATCGCC'
p3506
I14937
sS'TGAGTG'
p3507
I58783
sS'ATCGCA'
p3508
I10351
sS'TGAGTA'
p3509
I31761
sS'ATCGCG'
p3510
I9198
sS'TGAGTC'
p3511
I47779
sS'AAGGTG'
p3512
I62847
sS'AAGGTC'
p3513
I41878
sS'CATCAT'
p3514
I35246
sS'AAGGTA'
p3515
I34396
sS'TACGCT'
p3516
I7057
sS'AAGCGG'
p3517
I28880
sS'ACGGCA'
p3518
I17566
sS'CATCAC'
p3519
I43593
sS'AAGGTT'
p3520
I41819
sS'CATCAA'
p3521
I33376
sS'CATCAG'
p3522
I52107
sS'ACGGCG'
p3523
I19350
sS'TCACCT'
p3524
I73240
sS'TCTAAG'
p3525
I37593
sS'TCGTTT'
p3526
I16746
sS'CGGAAT'
p3527
I13374
sS'ATCGAT'
p3528
I5351
sS'TCACCG'
p3529
I23923
sS'TCACCA'
p3530
I59958
sS'TCACCC'
p3531
I67002
sS'CGGAAG'
p3532
I33843
sS'AATATA'
p3533
I35515
sS'AACTGG'
p3534
I54177
sS'AAAATA'
p3535
I101018
sS'CGGAAC'
p3536
I17401
sS'AGCTCG'
p3537
I25269
sS'CGGAAA'
p3538
I24013
sS'TAGCTT'
p3539
I32747
sS'ATCCAG'
p3540
I54018
sS'ATGGCG'
p3541
I22207
sS'TGTGTA'
p3542
I39173
sS'TGTGTG'
p3543
I144312
sS'ATGGCA'
p3544
I50736
sS'TCGTCC'
p3545
I18070
sS'ATGGCT'
p3546
I50223
sS'TGTGTT'
p3547
I64951
sS'AGATTA'
p3548
I31180
sS'GAAACG'
p3549
I23260
sS'GAAACA'
p3550
I71966
sS'GAAACC'
p3551
I59260
sS'CTGAGT'
p3552
I66975
sS'AGGTAC'
p3553
I25088
sS'GAAACT'
p3554
I60870
sS'AGAATG'
p3555
I66661
sS'AGATTT'
p3556
I58511
sS'AGAATC'
p3557
I48488
sS'CTGAGC'
p3558
I101112
sS'CTGAGA'
p3559
I93465
sS'CTGAGG'
p3560
I122610
sS'CATACC'
p3561
I21206
sS'CATACA'
p3562
I29679
sS'CATACG'
p3563
I5629
sS'GCAATC'
p3564
I25569
sS'TCAAAT'
p3565
I50322
sS'GTCCAT'
p3566
I26837
sS'ACATAG'
p3567
I25998
sS'GCANCT'
p3568
I1
sS'CAGGAC'
p3569
I76672
sS'CATACT'
p3570
I21723
sS'AATGGC'
p3571
I45894
sS'GTCCAG'
p3572
I59840
sS'CAAGCT'
p3573
I53059
sS'TCAAAG'
p3574
I61249
sS'TCAAAA'
p3575
I67135
sS'GTCCAA'
p3576
I28245
sS'CGGCGG'
p3577
I90691
sS'TTGATG'
p3578
I33356
sS'ATCGAG'
p3579
I9682
sS'CGGCGC'
p3580
I66680
sS'TTGATC'
p3581
I23931
sS'CGGCGA'
p3582
I23270
sS'TTGATA'
p3583
I23227
sS'AAGTGA'
p3584
I61936
sS'AACTGC'
p3585
I51123
sS'CGGCGT'
p3586
I19714
sS'ATGGCC'
p3587
I45355
sS'GTACGC'
p3588
I5683
sS'ATCGAC'
p3589
I5331
sS'CCATTA'
p3590
I29179
sS'ATCCCC'
p3591
I58144
sS'CGGTTA'
p3592
I7749
sS'GGTTTA'
p3593
I30850
sS'CGGTTC'
p3594
I18423
sS'GCTGTT'
p3595
I62289
sS'TTTACA'
p3596
I59955
sS'CGGTTG'
p3597
I13819
sS'GGTTTG'
p3598
I50971
sS'CCATTG'
p3599
I39793
sS'CGTACG'
p3600
I3049
sS'GCTGTG'
p3601
I102629
sS'GGTTTT'
p3602
I65033
sS'CGGTTT'
p3603
I17659
sS'GCTGTA'
p3604
I36150
sS'TATGCG'
p3605
I6230
sS'AGGTTG'
p3606
I47919
sS'AGGTTC'
p3607
I41742
sS'AGGTTA'
p3608
I31742
sS'CNNNNN'
p3609
I6
sS'GAGGGA'
p3610
I138640
sS'TTTTTC'
p3611
I113526
sS'GAGGGC'
p3612
I109910
sS'TTTTTA'
p3613
I103924
sS'TTTTTG'
p3614
I91558
sS'GAGGGG'
p3615
I163759
sS'TTAAAT'
p3616
I65883
sS'AGGTTT'
p3617
I58282
sS'TAAGCG'
p3618
I9688
sS'TATGCC'
p3619
I21401
sS'TTAAAC'
p3620
I40554
sS'ATACGT'
p3621
I6702
sS'TTAAAA'
p3622
I113963
sS'ACTCCG'
p3623
I25027
sS'TTAAAG'
p3624
I58520
sS'GAGGGT'
p3625
I69498
sS'TTTTTT'
p3626
I329845
sS'ACTCCC'
p3627
I69231
sS'TAGGCT'
p3628
I34474
sS'GTCACG'
p3629
I16739
sS'CTGTAC'
p3630
I27088
sS'GCAACT'
p3631
I35299
sS'GTCACC'
p3632
I50005
sS'CTGTAG'
p3633
I45122
sS'GTCACA'
p3634
I47875
sS'GCAACG'
p3635
I14611
sS'GGTCTT'
p3636
I45396
sS'GTCACT'
p3637
I47544
sS'TAGGCG'
p3638
I13981
sS'GCAACC'
p3639
I38904
sS'CTGTAT'
p3640
I33979
sS'GCAACA'
p3641
I45716
sS'TAGGCC'
p3642
I30554
sS'TGGTTC'
p3643
I43889
sS'ATTCAT'
p3644
I46516
sS'GTAAAA'
p3645
I49846
sS'GCGATT'
p3646
I12426
sS'TCGTGT'
p3647
I12206
sS'TTCACT'
p3648
I57963
sS'GTCTCT'
p3649
I74283
sS'AACATT'
p3650
I51617
sS'ATTCAG'
p3651
I55537
sS'ATTCAA'
p3652
I45767
sS'ATTCAC'
p3653
I39079
sS'GTCTCC'
p3654
I77024
sS'TCGTGG'
p3655
I20205
sS'GCGATG'
p3656
I16892
sS'TTCACC'
p3657
I51900
sS'GCGATA'
p3658
I5474
sS'TTCACA'
p3659
I62104
sS'GCGATC'
p3660
I14142
sS'GAAGGC'
p3661
I78280
sS'GAAGGA'
p3662
I104361
sS'GAAGGG'
p3663
I112783
sS'CGATTA'
p3664
I5722
sS'GGAACC'
p3665
I53388
sS'GGAACA'
p3666
I56375
sS'GGAACG'
p3667
I22142
sS'ATAGTA'
p3668
I18301
sS'CGATTT'
p3669
I12850
sS'AAAACA'
p3670
I112639
sS'GTTCCC'
p3671
I63126
sS'GAAGGT'
p3672
I53090
sS'CTCGCT'
p3673
I36989
sS'CAATCG'
p3674
I8065
sS'TACTGA'
p3675
I33456
sS'GGAACT'
p3676
I52595
sS'CCAAGT'
p3677
I53058
sS'AGTCCA'
p3678
I43273
sS'TCCTGC'
p3679
I118501
sS'AGTCCC'
p3680
I67873
sS'ACTAAA'
p3681
I39114
sS'TCCTGG'
p3682
I136810
sS'ACTAAC'
p3683
I19706
sS'TAACGC'
p3684
I7765
sS'CAGCTG'
p3685
I135013
sS'CAGCTA'
p3686
I46910
sS'CAGCTC'
p3687
I116623
sS'ACTAAT'
p3688
I22841
sS'GATTGT'
p3689
I25882
sS'CGACTC'
p3690
I18213
sS'AGTCCT'
p3691
I58061
sS'TCCTGT'
p3692
I79027
sS'TAATGT'
p3693
I30489
sS'CAGCTT'
p3694
I80454
sS'CGCAAA'
p3695
I15357
sS'TAACGT'
p3696
I8292
sS'AGCCAG'
p3697
I121096
sS'GTACTT'
p3698
I25297
sS'CGACAT'
p3699
I8239
sS'TTGTTC'
p3700
I47490
sS'CGCAAG'
p3701
I17697
sS'CCGAGG'
p3702
I62875
sS'CCGAGA'
p3703
I33613
sS'CAGGCC'
p3704
I128429
sS'CCGAGC'
p3705
I46219
sS'CCGCGT'
p3706
I23418
sS'CGACAC'
p3707
I13196
sS'CGACAA'
p3708
I9318
sS'GTACTC'
p3709
I17755
sS'GTACTA'
p3710
I11958
sS'CCGCGC'
p3711
I82222
sS'CCGAGT'
p3712
I25103
sS'CCGCGA'
p3713
I23599
sS'TACGCA'
p3714
I7466
sS'CCGCGG'
p3715
I76566
sS'TTGTTT'
p3716
I104031
sS'GCATAT'
p3717
I23346
sS'AACATG'
p3718
I41847
sS'AGCCAA'
p3719
I65063
sS'AATAAC'
p3720
I34100
sS'AATAAA'
p3721
I96613
sS'AATAAG'
p3722
I40007
sS'ATCGTT'
p3723
I7761
sS'CGCCAT'
p3724
I22218
sS'GGATTG'
p3725
I33236
sS'AATAAT'
p3726
I51831
sS'CCAACC'
p3727
I54537
sS'CCAACA'
p3728
I51489
sS'TTATGC'
p3729
I24516
sS'CCAACG'
p3730
I15576
sS'GGGATT'
p3731
I57425
sS'CGCCGC'
p3732
I101516
sS'GTGTAT'
p3733
I25435
sS'CGCCGA'
p3734
I22149
sS'GAGTAG'
p3735
I34599
sS'CGCCGG'
p3736
I57340
sS'GAGTAA'
p3737
I31004
sS'AGTAAG'
p3738
I33893
sS'CTCAGG'
p3739
I113324
sS'CTAAAA'
p3740
I56476
sS'CTCAGC'
p3741
I115424
sS'CTCAGA'
p3742
I87001
sS'GAGTAT'
p3743
I19558
sS'TCGAGA'
p3744
I14898
sS'GTGTAG'
p3745
I25995
sS'TCGAGC'
p3746
I13401
sS'GTGTAA'
p3747
I27396
sS'GTGTAC'
p3748
I16860
sS'CGCCGT'
p3749
I19355
sS'GTGGCA'
p3750
I64382
sS'CATATT'
p3751
I32462
sS'CTCGGA'
p3752
I29690
sS'CTCGGC'
p3753
I57419
sS'GCCGCC'
p3754
I121939
sS'GCCGCA'
p3755
I40714
sS'GCCGCG'
p3756
I73996
sS'ACACTT'
p3757
I44451
sS'CTCGGT'
p3758
I24059
sS'AGATAT'
p3759
I26199
sS'TCGCTC'
p3760
I28185
sS'GTGGCT'
p3761
I86639
sS'CATATA'
p3762
I22342
sS'GTCAGC'
p3763
I51153
sS'ACACTC'
p3764
I43307
sS'ACACTA'
p3765
I23499
sS'ACACTG'
p3766
I59674
sS'GCCGCT'
p3767
I52402
sS'ACCGGA'
p3768
I16182
sS'AAATAA'
p3769
I100362
sS'ACCGGC'
p3770
I25560
sS'GTCAGA'
p3771
I48028
sS'CTTTAA'
p3772
I58539
sS'AATCCT'
p3773
I51218
sS'AAATAG'
p3774
I49421
sS'AACTTA'
p3775
I28813
sS'CAGGTA'
p3776
I44752
sS'AACTTC'
p3777
I47438
sS'CAGGTC'
p3778
I62357
sS'CACGAC'
p3779
I12782
sS'AACTTG'
p3780
I43336
sS'GTCAGG'
p3781
I67727
sS'CTTTAT'
p3782
I48067
sS'AATCCC'
p3783
I57372
sS'GCTCGT'
p3784
I13829
sS'AATCCA'
p3785
I46045
sS'AAATAT'
p3786
I63750
sS'AATCCG'
p3787
I12746
sS'GATACA'
p3788
I23606
sS'GCAAGT'
p3789
I39372
sS'CAGGTT'
p3790
I58641
sS'AACTTT'
p3791
I56140
sS'TCTGTC'
p3792
I75708
sS'GGGATA'
p3793
I27625
sS'GGGATC'
p3794
I43516
sS'GGGTGT'
p3795
I57275
sS'GGAGAT'
p3796
I56165
sS'GATGCT'
p3797
I46618
sS'CGCAGT'
p3798
I24883
sS'TCTGTA'
p3799
I46203
sS'GAGCCT'
p3800
I83418
sS'GGAGAC'
p3801
I77053
sS'GGGTGA'
p3802
I67016
sS'GGAGAA'
p3803
I109522
sS'GGGTGC'
p3804
I67833
sS'GGAGAG'
p3805
I146636
sS'AATCAA'
p3806
I42106
sS'GGGTGG'
p3807
I139473
sS'GAGCCA'
p3808
I91132
sS'CGCAGG'
p3809
I59437
sS'GATGCG'
p3810
I16503
sS'CGCAGA'
p3811
I34076
sS'GATGCA'
p3812
I40412
sS'CGCAGC'
p3813
I64857
sS'GATGCC'
p3814
I42749
sS'CGGATT'
p3815
I12749
sS'GGTAGT'
p3816
I20753
sS'ACCCCT'
p3817
I71336
sS'GCCAAT'
p3818
I33081
sS'GGCGAT'
p3819
I14938
sS'AACCGC'
p3820
I17606
sS'AGAGTC'
p3821
I49105
sS'AGAAGT'
p3822
I57607
sS'ACCCCA'
p3823
I85367
sS'GGTAGA'
p3824
I33402
sS'GCCAAA'
p3825
I50933
sS'GGTAGC'
p3826
I27800
sS'GCCAAG'
p3827
I73909
sS'CGGATA'
p3828
I6517
sS'ACCCCG'
p3829
I46658
sS'GGTAGG'
p3830
I43936
sS'AGAAGA'
p3831
I87261
sS'AGAAGC'
p3832
I80682
sS'GCAAGA'
p3833
I53874
sS'AGAAGG'
p3834
I103317
sS'CACTCC'
p3835
I79295
sS'CACTCA'
p3836
I58784
sS'CACTCG'
p3837
I20737
sS'TGCGTT'
p3838
I15601
sS'CGGATG'
p3839
I17520
sS'GCAAGG'
p3840
I65764
sS'AGCTTT'
p3841
I67270
sS'CCCCGG'
p3842
I96612
sS'TGCGTA'
p3843
I7466
sS'CCCCGC'
p3844
I141084
sS'CCCCGA'
p3845
I45587
sS'AGCTTC'
p3846
I67945
sS'AGCTTA'
p3847
I29648
sS'AGCTTG'
p3848
I53061
sS'ATACGA'
p3849
I5157
sS'AGACCA'
p3850
I56032
sS'CCACTT'
p3851
I61328
sS'TTAGCT'
p3852
I37822
sS'GTATAA'
p3853
I18604
sS'TTAGCC'
p3854
I33244
sS'TTAGCA'
p3855
I41382
sS'GACCAT'
p3856
I25105
sS'TTAGCG'
p3857
I9638
sS'TACCGG'
p3858
I9758
sS'AAGGGG'
p3859
I94940
sS'ATAAGG'
p3860
I30114
sS'TGTGCT'
p3861
I67959
sS'AAGGGC'
p3862
I70838
sS'ATAAGC'
p3863
I24195
sS'AAGGGA'
p3864
I97039
sS'ATAAGA'
p3865
I33845
sS'CCAGAC'
p3866
I67833
sS'CCAGAA'
p3867
I86398
sS'CCAGAG'
p3868
I123942
sS'TGTGCG'
p3869
I26892
sS'ATAAGT'
p3870
I21837
sS'ATAGGG'
p3871
I27562
sS'TGTGCC'
p3872
I64447
sS'ATAGGA'
p3873
I31045
sS'TGTGCA'
p3874
I57528
sS'ATAGGC'
p3875
I21825
sS'GCTCGC'
p3876
I36396
sS'ATACGC'
p3877
I5371
sS'CCAGAT'
p3878
I53708
sS'AGACAA'
p3879
I56436
sS'AACAAG'
p3880
I52846
sS'AGACAC'
p3881
I56259
sS'AGACAG'
p3882
I90182
sS'TATAAC'
p3883
I16760
sS'TTTTCT'
p3884
I146325
sS'CGCTGT'
p3885
I30474
sS'CCCACG'
p3886
I44560
sS'TCAAGA'
p3887
I46808
sS'CGTGGG'
p3888
I44565
sS'CTATAG'
p3889
I17667
sS'AGACAT'
p3890
I41577
sS'CGTGGA'
p3891
I26725
sS'TTTTCG'
p3892
I14660
sS'AACAAC'
p3893
I42298
sS'CGCTGC'
p3894
I65403
sS'TTTTCC'
p3895
I111223
sS'TTTTCA'
p3896
I88337
sS'CGCTGG'
p3897
I57599
sS'TATGGA'
p3898
I26025
sS'TATGGC'
p3899
I21231
sS'CGTAGG'
p3900
I11564
sS'ATCGTC'
p3901
I7646
sS'CGTAGA'
p3902
I8551
sS'TATGGG'
p3903
I26007
sS'CGTAGC'
p3904
I10272
sS'TACCGT'
p3905
I7010
sS'TGGACT'
p3906
I43263
sS'CGTAGT'
p3907
I7420
sS'GCTCGA'
p3908
I13400
sS'TATGGT'
p3909
I19884
sS'TGGACA'
p3910
I48135
sS'TGGACC'
p3911
I39487
sS'TGGACG'
p3912
I20044
sS'GGCGGN'
p3913
I1
sS'CCGGTT'
p3914
I17047
sS'CTAGCT'
p3915
I35081
sS'GCTTGA'
p3916
I41418
sS'TGAGAC'
p3917
I55952
sS'GCTTGC'
p3918
I45736
sS'TGAGAA'
p3919
I83522
sS'TGAGAG'
p3920
I76933
sS'GCTTGG'
p3921
I66843
sS'CCTGTT'
p3922
I64843
sS'CCGGTG'
p3923
I31484
sS'CCTTGC'
p3924
I65758
sS'ACTTAT'
p3925
I21847
sS'CCTGTC'
p3926
I78704
sS'CCTGTA'
p3927
I49902
sS'CCTGTG'
p3928
I99250
sS'CGTCTA'
p3929
I7972
sS'TGAGAT'
p3930
I52056
sS'GGTTGT'
p3931
I33344
sS'AGGGAT'
p3932
I55141
sS'TATCAG'
p3933
I27593
sS'AATTCN'
p3934
I4
sS'TAGCGT'
p3935
I7737
sS'GGTTGG'
p3936
I54525
sS'CTGAAT'
p3937
I55540
sS'GGTTGA'
p3938
I30292
sS'GGTTGC'
p3939
I38929
sS'TCCCGC'
p3940
I64555
sS'GTAACG'
p3941
I7110
sS'GTAACA'
p3942
I29121
sS'GTAACC'
p3943
I21555
sS'CGTTTT'
p3944
I23497
sS'ATTCTC'
p3945
I58063
sS'ATTCTA'
p3946
I36679
sS'ATTCTG'
p3947
I60080
sS'TCATTT'
p3948
I79373
sS'GTAACT'
p3949
I28224
sS'TGCTAA'
p3950
I41409
sS'TGCTAG'
p3951
I33347
sS'CAGCGG'
p3952
I58911
sS'AGGATC'
p3953
I41298
sS'TCATTC'
p3954
I56152
sS'CGTTTG'
p3955
I17382
sS'TCATTG'
p3956
I38938
sS'ATTCTT'
p3957
I62943
sS'CGTTTC'
p3958
I23271
sS'ACCGGG'
p3959
I30227
sS'TGGCAA'
p3960
I53309
sS'CCGATC'
p3961
I10690
sS'TGGCAG'
p3962
I99664
sS'GCTGAG'
p3963
I115422
sS'CCAAGC'
p3964
I66864
sS'GCTGAC'
p3965
I51154
sS'TGGCAT'
p3966
I47283
sS'AACGTG'
p3967
I18217
sS'GGCCGG'
p3968
I96266
sS'GTTCAA'
p3969
I34161
sS'NNGATC'
p3970
I2
sS'AGCCTC'
p3971
I109956
sS'GGCCGC'
p3972
I91376
sS'GAACTT'
p3973
I41356
sS'GGCCGA'
p3974
I39214
sS'TACGAA'
p3975
I6798
sS'GGCAAT'
p3976
I31146
sS'CTATAA'
p3977
I23998
sS'CTGATT'
p3978
I51790
sS'NCCCAC'
p3979
I1
sS'CCATCG'
p3980
I15663
sS'CTAAAT'
p3981
I38782
sS'CCATCC'
p3982
I71526
sS'CCATCA'
p3983
I47314
sS'CTGATC'
p3984
I35045
sS'CTGATA'
p3985
I27573
sS'GAGTTT'
p3986
I56096
sS'GGCAAC'
p3987
I41682
sS'GGCAAA'
p3988
I59437
sS'CTAAAG'
p3989
I40961
sS'CCATCT'
p3990
I72028
sS'CTAAAC'
p3991
I29960
sS'TGGTTA'
p3992
I31132
sS'GACACC'
p3993
I45970
sS'TACGAT'
p3994
I4642
sS'GACACG'
p3995
I19165
sS'CCAAGA'
p3996
I66452
sS'AGGCAT'
p3997
I53547
sS'AATTCT'
p3998
I60087
sS'TACGAG'
p3999
I7005
sS'TACGAC'
p4000
I4709
sS'GGAAAG'
p4001
I112560
sS'GACACT'
p4002
I41356
sS'CCGTGA'
p4003
I20717
sS'CGTGAG'
p4004
I27200
sS'CTATTG'
p4005
I24962
sS'CTATTA'
p4006
I23788
sS'CTATTC'
p4007
I28159
sS'TCGATG'
p4008
I8643
sS'TCGATA'
p4009
I3961
sS'TCGATC'
p4010
I6864
sS'CTATTT'
p4011
I49437
sS'TCTGGG'
p4012
I119264
sS'CAGCCT'
p4013
I150792
sS'TGCCTA'
p4014
I37181
sS'CTACCG'
p4015
I11869
sS'ACGAAA'
p4016
I13034
sS'ACAATG'
p4017
I41938
sS'AACCAA'
p4018
I48439
sS'TGCCGG'
p4019
I37827
sS'AACCAC'
p4020
I45636
sS'GCGCCA'
p4021
I41960
sS'AACCAG'
p4022
I59238
sS'TGCCGA'
p4023
I16672
sS'TTGGAC'
p4024
I28230
sS'TCGGGC'
p4025
I32926
sS'TCTGGA'
p4026
I79143
sS'AGGCAG'
p4027
I150057
sS'TGCCGT'
p4028
I17571
sS'AACCAT'
p4029
I31706
sS'AACAGA'
p4030
I69543
sS'ACGTCG'
p4031
I6706
sS'AACAGC'
p4032
I62280
sS'CTACCC'
p4033
I40022
sS'AACAGG'
p4034
I64831
sS'CTACCA'
p4035
I32020
sS'CCCAAG'
p4036
I85659
sS'TTGGAG'
p4037
I70423
sS'GACGAA'
p4038
I10880
sS'CCCAAC'
p4039
I59391
sS'CCCAAA'
p4040
I84612
sS'CTACCT'
p4041
I41983
sS'GGGAGA'
p4042
I132056
sS'AACAGT'
p4043
I42252
sS'GGGAGC'
p4044
I124297
sS'ACGAAG'
p4045
I15725
sS'CCCAAT'
p4046
I33413
sS'GACGAT'
p4047
I7647
sS'GGGCGC'
p4048
I96203
sS'GGGCGA'
p4049
I40349
sS'NGCGCC'
p4050
I1
sS'GGGCGG'
p4051
I142966
sS'TCTCTT'
p4052
I94569
sS'GTACAG'
p4053
I27081
sS'CGTTAA'
p4054
I8592
sS'CAGAAT'
p4055
I60096
sS'ACGACT'
p4056
I9740
sS'TCTCTC'
p4057
I129739
sS'TCTCTA'
p4058
I53211
sS'TCTCTG'
p4059
I119087
sS'GGGCGT'
p4060
I36569
sS'CAGAAA'
p4061
I107875
sS'ACGACA'
p4062
I10359
sS'ACGACG'
p4063
I7111
sS'CAGAAG'
p4064
I94198
sS'CACTTT'
p4065
I69991
sS'CCTAAT'
p4066
I29308
sS'TGATCG'
p4067
I7719
sS'CACTTG'
p4068
I51843
sS'CCTAAC'
p4069
I29946
sS'CCTAAA'
p4070
I44320
sS'CACTTC'
p4071
I63477
sS'CCTAAG'
p4072
I39814
sS'CACTTA'
p4073
I35409
sS'GTCCCA'
p4074
I63567
sS'CTGCGG'
p4075
I67821
sS'AAGATT'
p4076
I42848
sS'AACTAG'
p4077
I26327
sS'CTCATG'
p4078
I44755
sS'GACTCG'
p4079
I18985
sS'CTCATC'
p4080
I51895
sS'GACTCC'
p4081
I59409
sS'CTCATA'
p4082
I24862
sS'GACTCA'
p4083
I47778
sS'AAGATA'
p4084
I35522
sS'CTCCAA'
p4085
I70432
sS'AAGATG'
p4086
I55631
sS'GACTCT'
p4087
I49118
sS'CTCATT'
p4088
I61953
sS'ATCGAA'
p4089
I6959
sS'AGTCGA'
p4090
I8464
sS'ATATTT'
p4091
I63721
sS'ACGGTA'
p4092
I7009
sS'AACTAA'
p4093
I33390
sS'ATAGTT'
p4094
I23681
sS'TACTGT'
p4095
I32397
sS'ATATTC'
p4096
I29558
sS'ATATTA'
p4097
I28589
sS'ATATTG'
p4098
I24064
sS'TACTGC'
p4099
I32254
sS'ATAGTC'
p4100
I15947
sS'TACTGG'
p4101
I33277
sS'ATAGTG'
p4102
I22108
sS'ATAGAC'
p4103
I17349
sS'CAGGCA'
p4104
I117237
sS'ACGGAA'
p4105
I17252
sS'CATCCG'
p4106
I17518
sS'AGGAAA'
p4107
I137848
sS'CATCCA'
p4108
I50374
sS'CAGGCG'
p4109
I64304
sS'CATCCC'
p4110
I71920
sS'CGTGCT'
p4111
I23029
sS'TTATGA'
p4112
I27752
sS'ACGGTG'
p4113
I21446
sS'CGGAGT'
p4114
I25014
sS'TTATGG'
p4115
I26110
sS'CATCCT'
p4116
I67615
sS'AGGAAT'
p4117
I73871
sS'CAGGCT'
p4118
I124209
sS'ACGGAT'
p4119
I9636
sS'CGGAGA'
p4120
I37713
sS'CGGAGC'
p4121
I59273
sS'TTATGT'
p4122
I33119
sS'CGGAGG'
p4123
I66282
sS'ATGGAA'
p4124
I58961
sS'ATGGAC'
p4125
I26835
sS'ATGGAG'
p4126
I65658
sS'CGCTTG'
p4127
I22427
sS'CGCTTA'
p4128
I9685
sS'CGCTTC'
p4129
I32183
sS'ATGGAT'
p4130
I31465
sS'TGCGGC'
p4131
I40717
sS'CGCTTT'
p4132
I24080
sS'GATCGT'
p4133
I7363
sS'TGCGGA'
p4134
I26277
sS'GAAAAG'
p4135
I101674
sS'GAAAAC'
p4136
I69906
sS'ATAGAT'
p4137
I23026
sS'GAAAAA'
p4138
I113584
sS'GTTCCT'
p4139
I60254
sS'ACGGTT'
p4140
I10248
sS'GAAAAT'
p4141
I75766
sS'CGGCAT'
p4142
I14162
sS'ACAAGG'
p4143
I54357
sS'GCCTAA'
p4144
I28912
sS'ACAAGA'
p4145
I49109
sS'AAAAAA'
p4146
I330285
sS'ACAAGC'
p4147
I40615
sS'ACACGT'
p4148
I16238
sS'CTGCGT'
p4149
I29177
sS'GACGTC'
p4150
I15484
sS'GCGGAG'
p4151
I71166
sS'CATAAG'
p4152
I23593
sS'GCGGAA'
p4153
I26255
sS'CATAAA'
p4154
I42019
sS'GCGGAC'
p4155
I25900
sS'CATAAC'
p4156
I20053
sS'ACACGC'
p4157
I23624
sS'ACAAGT'
p4158
I34616
sS'ACACGA'
p4159
I12211
sS'ACACGG'
p4160
I22731
sS'CATAAT'
p4161
I25866
sS'GCGGAT'
p4162
I17369
sS'GCACAT'
p4163
I38587
sS'GTCCCC'
p4164
I86712
sS'CTGCGA'
p4165
I26105
sS'CTGCGC'
p4166
I60143
sS'CGGCAA'
p4167
I17009
sS'CGGCAC'
p4168
I25902
sS'CGGCAG'
p4169
I54932
sS'CCTCCT'
p4170
I180112
sS'AGCGCT'
p4171
I33260
sS'AGCCCT'
p4172
I99238
sS'CCTCCC'
p4173
I250493
sS'CCTCCA'
p4174
I123075
sS'CACGCC'
p4175
I44797
sS'CCTCCG'
p4176
I66270
sS'CGTGAT'
p4177
I12879
s.