(dp0
S'AAAAAC'
p1
I41138
sS'GAACGT'
p2
I6002
sS'CTTCTT'
p3
I42243
sS'CACCCT'
p4
I41740
sS'ATTGAA'
p5
I17996
sS'GAACGG'
p6
I8731
sS'GAACGC'
p7
I8910
sS'GAACGA'
p8
I5906
sS'CACCCA'
p9
I43729
sS'CTTCTA'
p10
I21302
sS'CACCCC'
p11
I59570
sS'CTTCTC'
p12
I53361
sS'CACCCG'
p13
I20984
sS'CTTCTG'
p14
I47006
sS'CGTGTG'
p15
I14796
sS'TAAGGT'
p16
I13214
sS'CGTGTC'
p17
I9539
sS'CGTGTA'
p18
I4653
sS'AATGAC'
p19
I20203
sS'TAAGGG'
p20
I18217
sS'CGTGTT'
p21
I8170
sS'TAAGGC'
p22
I15699
sS'TAAGGA'
p23
I22722
sS'GTCAAA'
p24
I16952
sS'GTCAAC'
p25
I10143
sS'GTCAAG'
p26
I16639
sS'CTGTCC'
p27
I42664
sS'TCAGAG'
p28
I44094
sS'CTGTCA'
p29
I30753
sS'CTGTCG'
p30
I10671
sS'TCAGAC'
p31
I22939
sS'TCAGAA'
p32
I36833
sS'GTCAAT'
p33
I10140
sS'GTATCA'
p34
I9137
sS'TCAGAT'
p35
I23151
sS'GTATCG'
p36
I2107
sS'CTGTCT'
p37
I44893
sS'GGTGTC'
p38
I22990
sS'GGTGTA'
p39
I10853
sS'GGTGTG'
p40
I34471
sS'TATCCT'
p41
I15396
sS'CCGGGG'
p42
I48395
sS'TTCTGT'
p43
I39639
sS'AGAGGT'
p44
I32840
sS'CCGGGC'
p45
I50739
sS'CCGGGA'
p46
I34822
sS'TATCCA'
p47
I13441
sS'TATCCC'
p48
I13839
sS'TGGTTG'
p49
I21363
sS'TATCCG'
p50
I3287
sS'GGTGTT'
p51
I21049
sS'ATTCCG'
p52
I6641
sS'TTCTGG'
p53
I43178
sS'CCGGGT'
p54
I21285
sS'ATTCCC'
p55
I28270
sS'TTCTGC'
p56
I40408
sS'ATTCCA'
p57
I32301
sS'TTCTGA'
p58
I36519
sS'TGCACT'
p59
I26350
sS'GGNCCG'
p60
I1
sS'TATCTT'
p61
I17818
sS'CGTAAA'
p62
I4628
sS'AGGGAG'
p63
I84298
sS'CGCGGG'
p64
I37547
sS'NCCGCC'
p65
I1
sS'CGCGGC'
p66
I37170
sS'CGCGGA'
p67
I15654
sS'ACCTGT'
p68
I25871
sS'TCATGT'
p69
I17963
sS'CTCCGA'
p70
I14303
sS'TTACAG'
p71
I29371
sS'CTCCGC'
p72
I35864
sS'TTACAA'
p73
I21898
sS'CCGGCA'
p74
I18845
sS'TTACAC'
p75
I13658
sS'CTCCGG'
p76
I29172
sS'TCATGC'
p77
I18239
sS'ACCTGG'
p78
I45697
sS'TCATGA'
p79
I17404
sS'TCATGG'
p80
I20765
sS'ACCTGC'
p81
I38484
sS'ACCTGA'
p82
I27206
sS'TTACAT'
p83
I20122
sS'CTCGAT'
p84
I4872
sS'CTCCGT'
p85
I15143
sS'GCCTGA'
p86
I37456
sS'GCCTGC'
p87
I55701
sS'GCCTGG'
p88
I84545
sS'TAAAGG'
p89
I24451
sS'CAAATT'
p90
I26276
sS'TAAAGA'
p91
I27780
sS'TAAAGC'
p92
I19982
sS'AAATGC'
p93
I34317
sS'TATCTA'
p94
I10801
sS'TAAAGT'
p95
I19838
sS'CAAATA'
p96
I24941
sS'ACGTCC'
p97
I8534
sS'CAAATC'
p98
I22237
sS'CGTGCT'
p99
I11511
sS'CAAATG'
p100
I31192
sS'AATACT'
p101
I16335
sS'TATCTC'
p102
I16055
sS'TCGATT'
p103
I3850
sS'CCGGCG'
p104
I28650
sS'GGCATG'
p105
I24451
sS'GGCATA'
p106
I10561
sS'GGCATC'
p107
I21472
sS'AATACG'
p108
I4155
sS'AATACA'
p109
I23190
sS'AATACC'
p110
I13492
sS'GGCATT'
p111
I23726
sS'TCCCCA'
p112
I66538
sS'TGCACA'
p113
I28893
sS'GAGCAC'
p114
I25497
sS'ACTGAT'
p115
I16200
sS'CATATC'
p116
I9410
sS'GAGCAG'
p117
I55249
sS'AGTAGT'
p118
I11564
sS'TCTCGC'
p119
I13740
sS'TCTCGA'
p120
I7498
sS'TCTCGG'
p121
I16897
sS'ACTGAG'
p122
I34338
sS'AGTAGA'
p123
I17818
sS'AGTAGG'
p124
I18867
sS'GAGCAT'
p125
I18831
sS'ACGGCC'
p126
I13747
sS'ATACAG'
p127
I16949
sS'GTGTCG'
p128
I6606
sS'TCGAAC'
p129
I4813
sS'TCGAAA'
p130
I4942
sS'GTGTCC'
p131
I26386
sS'TCGAAG'
p132
I6382
sS'GTGTCA'
p133
I19851
sS'CTTGCT'
p134
I35477
sS'CCGTCT'
p135
I14700
sS'CCACAA'
p136
I27133
sS'GTGTCT'
p137
I28108
sS'TTGAAG'
p138
I25250
sS'TCGAAT'
p139
I4186
sS'CTTGCG'
p140
I8887
sS'CTTGCA'
p141
I26253
sS'CTTGCC'
p142
I31422
sS'CGAAAG'
p143
I8369
sS'CGAAAA'
p144
I7260
sS'CGAAAC'
p145
I6249
sS'AATCAT'
p146
I17012
sS'ACAGTG'
p147
I30568
sS'CACGGC'
p148
I17013
sS'AAATGA'
p149
I39778
sS'AAATGG'
p150
I34719
sS'CACGGG'
p151
I16983
sS'ACAGTA'
p152
I16163
sS'CGAAAT'
p153
I5329
sS'ACAGTT'
p154
I21567
sS'AATCAG'
p155
I25946
sS'AATCAA'
p156
I20864
sS'AAATGT'
p157
I36788
sS'AATCAC'
p158
I20691
sS'TTTGTA'
p159
I26443
sS'TCTAGT'
p160
I14622
sS'TTGCCG'
p161
I8459
sS'TTGCCA'
p162
I26378
sS'TTGCCC'
p163
I29604
sS'GGGTAC'
p164
I10834
sS'TCTAGG'
p165
I21819
sS'GGGTAA'
p166
I15516
sS'TCTAGA'
p167
I18766
sS'GGGTAG'
p168
I19945
sS'TCTAGC'
p169
I15781
sS'ATACGG'
p170
I3284
sS'AATTGG'
p171
I16367
sS'AGATGT'
p172
I21989
sS'TCGCCC'
p173
I20190
sS'TCGCCA'
p174
I10451
sS'GGGTCG'
p175
I14853
sS'TCGCCG'
p176
I11571
sS'GGTAAT'
p177
I12010
sS'ACCCAT'
p178
I16620
sS'CTCACC'
p179
I41931
sS'ACCCAC'
p180
I30294
sS'GGTAAC'
p181
I11550
sS'ACCCAA'
p182
I22826
sS'AGATGG'
p183
I36098
sS'ACCCAG'
p184
I48412
sS'AGATGA'
p185
I28326
sS'TCGCCT'
p186
I14001
sS'AGATGC'
p187
I24863
sS'GCTCAC'
p188
I33797
sS'TTTGAG'
p189
I34824
sS'CCCCAT'
p190
I36055
sS'TTGGGT'
p191
I22734
sS'CACTAG'
p192
I16254
sS'GTTCCG'
p193
I8887
sS'CACTAC'
p194
I11675
sS'CCCCAA'
p195
I45005
sS'CCCCAC'
p196
I70679
sS'ATAAAG'
p197
I24085
sS'CCCCAG'
p198
I88485
sS'CACTAT'
p199
I11178
sS'TTGGGG'
p200
I44980
sS'CCGTCC'
p201
I18226
sS'TTGGGA'
p202
I37154
sS'TTGGGC'
p203
I26038
sS'TGCCTG'
p204
I58535
sS'GTGGGT'
p205
I30132
sS'TTTCTG'
p206
I53740
sS'TGCAGC'
p207
I50545
sS'TTTCTA'
p208
I32181
sS'TTTCTC'
p209
I57782
sS'TGCAGG'
p210
I56188
sS'GTATCT'
p211
I12824
sS'TTTCTT'
p212
I70942
sS'TGCCTT'
p213
I40993
sS'TGCAGT'
p214
I36874
sS'TAGTGC'
p215
I10835
sS'AAGGAA'
p216
I60642
sS'AAGGAC'
p217
I25764
sS'AAGGAG'
p218
I53475
sS'ATATGC'
p219
I11819
sS'GTTCCA'
p220
I21736
sS'ATATGA'
p221
I12256
sS'TACGAA'
p222
I3489
sS'ATATGG'
p223
I11135
sS'GATGGA'
p224
I26874
sS'AAGGAT'
p225
I23402
sS'CTATCA'
p226
I11105
sS'TGGTTT'
p227
I33637
sS'ATATGT'
p228
I14109
sS'GGTCCC'
p229
I39402
sS'GCCCAG'
p230
I80306
sS'GGTCCA'
p231
I19869
sS'GCCCAA'
p232
I26519
sS'GGTCCG'
p233
I12549
sS'AGGTCT'
p234
I26492
sS'ATGGCG'
p235
I11026
sS'AGACCC'
p236
I33296
sS'ATTGTT'
p237
I21425
sS'AGACCG'
p238
I9349
sS'CTTCGC'
p239
I11907
sS'CTTAGT'
p240
I13830
sS'AGGTCC'
p241
I25581
sS'AGGTCA'
p242
I29805
sS'TCCGGC'
p243
I18691
sS'GGTCCT'
p244
I28716
sS'TCCGGA'
p245
I12988
sS'CTTAGC'
p246
I17549
sS'ATTGTG'
p247
I18190
sS'CTTAGA'
p248
I18586
sS'TCTTGC'
p249
I26705
sS'CTTAGG'
p250
I19860
sS'GTATCC'
p251
I9324
sS'ATTGTA'
p252
I13112
sS'CGCTAC'
p253
I5293
sS'ATTTTG'
p254
I31654
sS'GAGGTG'
p255
I46717
sS'ATTTTA'
p256
I39887
sS'GAGGTA'
p257
I17031
sS'ATTTTC'
p258
I37977
sS'GAGGTC'
p259
I28193
sS'TAGCAG'
p260
I21391
sS'GATACT'
p261
I9963
sS'TAGCAC'
p262
I13390
sS'TAGCAA'
p263
I17683
sS'GAGGTT'
p264
I26443
sS'ATTTTT'
p265
I57749
sS'TAAATC'
p266
I17772
sS'GTGGGG'
p267
I70146
sS'GCCTTA'
p268
I15700
sS'TTGACA'
p269
I17525
sS'GCCTTC'
p270
I39067
sS'GATACG'
p271
I2840
sS'TAGCAT'
p272
I14115
sS'GATACC'
p273
I8656
sS'GATTTC'
p274
I23899
sS'TGAGCT'
p275
I36342
sS'ACGGAC'
p276
I6709
sS'GATCAT'
p277
I11543
sS'ACCGAG'
p278
I12144
sS'AAGACC'
p279
I22710
sS'GTGGGC'
p280
I39350
sS'AAGACG'
p281
I9375
sS'GATCAG'
p282
I17484
sS'TGAGCG'
p283
I13999
sS'TGAGCA'
p284
I32568
sS'TGAGCC'
p285
I43377
sS'AAGACT'
p286
I23807
sS'ACCACG'
p287
I11771
sS'GCGGTA'
p288
I5381
sS'GCGGTG'
p289
I23893
sS'CGGTGT'
p290
I9519
sS'TCGTTA'
p291
I3490
sS'TCGTTC'
p292
I5917
sS'CTTCCC'
p293
I75370
sS'TCGTTG'
p294
I4962
sS'GCGGTT'
p295
I8901
sS'ACTTGC'
p296
I19640
sS'ACCACC'
p297
I30390
sS'ACTTGA'
p298
I20440
sS'CGGTGG'
p299
I22724
sS'ACTTGG'
p300
I26436
sS'CGGTGA'
p301
I11802
sS'CTCGAG'
p302
I10902
sS'TTCCTA'
p303
I26935
sS'TAGACT'
p304
I11603
sS'TTCCTC'
p305
I58744
sS'ACTGAC'
p306
I19107
sS'CTTCCG'
p307
I16800
sS'TTCCTG'
p308
I63986
sS'TCCTTT'
p309
I52194
sS'CAGTTG'
p310
I21240
sS'ACGCTA'
p311
I3884
sS'TAGACG'
p312
I3948
sS'TTCCTT'
p313
I59908
sS'TAGACC'
p314
I9756
sS'TAGACA'
p315
I14012
sS'AAGNTG'
p316
I1
sS'TCCTTG'
p317
I35981
sS'TCCTTA'
p318
I22380
sS'TCCTTC'
p319
I52165
sS'ATCTCT'
p320
I30189
sS'GGGTAT'
p321
I10580
sS'ACCGTT'
p322
I4973
sS'TGGCGC'
p323
I21007
sS'TGGCGA'
p324
I10433
sS'GGCCAT'
p325
I22678
sS'ATCTCG'
p326
I7699
sS'ATCTCA'
p327
I26047
sS'ATCTCC'
p328
I28063
sS'GGCCAA'
p329
I29829
sS'ACGGAG'
p330
I15154
sS'GGCCAC'
p331
I41761
sS'ACCGTG'
p332
I10100
sS'ATGCAG'
p333
I31937
sS'TGGCGT'
p334
I10128
sS'ACCGTC'
p335
I6929
sS'ACCGAC'
p336
I5893
sS'AGATTA'
p337
I15631
sS'GGCAGT'
p338
I32215
sS'CCATAA'
p339
I13293
sS'CAAAGG'
p340
I40275
sS'CCATAC'
p341
I9438
sS'CAAAGA'
p342
I38278
sS'AGATTC'
p343
I21872
sS'CAAAGC'
p344
I35999
sS'CAACGT'
p345
I5944
sS'GGCAGA'
p346
I51491
sS'GGCAGC'
p347
I64426
sS'TAAGTT'
p348
I14416
sS'GGCAGG'
p349
I82484
sS'CAACGC'
p350
I7738
sS'CTAACA'
p351
I16329
sS'CAACGA'
p352
I5023
sS'GCACTC'
p353
I25238
sS'CAACGG'
p354
I6715
sS'GCACTG'
p355
I33460
sS'GGGGGT'
p356
I41869
sS'TACGCT'
p357
I3460
sS'AGATTG'
p358
I16469
sS'CGATCT'
p359
I6638
sS'NNNNNC'
p360
I1
sS'CTCTAG'
p361
I24160
sS'CTCTAA'
p362
I21625
sS'CTCTAC'
p363
I20035
sS'GGGGGG'
p364
I44309
sS'CGATCC'
p365
I6808
sS'TACGCC'
p366
I4026
sS'GGGGGC'
p367
I71709
sS'CGATCG'
p368
I2281
sS'GGGGGA'
p369
I57458
sS'TACGCG'
p370
I2511
sS'CTCTAT'
p371
I15703
sS'CAGACC'
p372
I31837
sS'CAGACA'
p373
I37479
sS'CAGACG'
p374
I13220
sS'TAGTTG'
p375
I10892
sS'GCTAAT'
p376
I15768
sS'TAGTTC'
p377
I12137
sS'TAGTTA'
p378
I10975
sS'CAGACT'
p379
I28591
sS'GCGAAC'
p380
I5778
sS'TAGTTT'
p381
I19503
sS'GCTAAC'
p382
I10492
sS'GCTAAA'
p383
I17285
sS'TGCATT'
p384
I30877
sS'TGCTGC'
p385
I53016
sS'AACCCT'
p386
I26319
sS'AACCCC'
p387
I29952
sS'AACCCA'
p388
I28907
sS'AACCCG'
p389
I11671
sS'ATGCAC'
p390
I16567
sS'TGCATC'
p391
I20251
sS'AGAATA'
p392
I21066
sS'CTACAA'
p393
I16387
sS'ACGTAC'
p394
I3061
sS'AGTTTC'
p395
I30412
sS'CTACAG'
p396
I22538
sS'CCCAGA'
p397
I59513
sS'CCCAGC'
p398
I95507
sS'CAGTCC'
p399
I31223
sS'CCCAGG'
p400
I99782
sS'AACTGT'
p401
I21620
sS'AGTTTT'
p402
I33188
sS'CTACAT'
p403
I13374
sS'AGTCAA'
p404
I17900
sS'CCCAGT'
p405
I39784
sS'TATAAT'
p406
I14859
sS'CGCATA'
p407
I3044
sS'ATACTG'
p408
I13710
sS'CGCATC'
p409
I8378
sS'ATACTA'
p410
I8301
sS'ATACTC'
p411
I9735
sS'CGCATG'
p412
I7892
sS'GCGCAA'
p413
I7385
sS'GCGAAT'
p414
I4589
sS'ATACTT'
p415
I14594
sS'CGCATT'
p416
I6756
sS'AGGCCC'
p417
I52617
sS'GCTCCG'
p418
I29791
sS'TATTGT'
p419
I15205
sS'GCTCCC'
p420
I62567
sS'AACCGG'
p421
I8582
sS'CCTACT'
p422
I19024
sS'TGTACT'
p423
I13229
sS'TTTAGT'
p424
I19357
sS'TATTGG'
p425
I11828
sS'GCTCCT'
p426
I52038
sS'TATTGC'
p427
I11138
sS'TATTGA'
p428
I13232
sS'TTTAGG'
p429
I22217
sS'TGTACG'
p430
I3217
sS'CCTACG'
p431
I5791
sS'TGTACA'
p432
I12922
sS'CCTACA'
p433
I17684
sS'TGTACC'
p434
I11436
sS'CCTACC'
p435
I22102
sS'TTCGCG'
p436
I5058
sS'TTCGCA'
p437
I6176
sS'TTCGCC'
p438
I9779
sS'CGTACA'
p439
I3306
sS'GACTAA'
p440
I10968
sS'AGTATA'
p441
I9180
sS'TTTGGG'
p442
I42224
sS'AGTATG'
p443
I10923
sS'TTTGGA'
p444
I32862
sS'TTTGGC'
p445
I25394
sS'ACGAAC'
p446
I4204
sS'GATCNN'
p447
I1
sS'TTTGGT'
p448
I25292
sS'GACTAT'
p449
I8015
sS'AGTATT'
p450
I16118
sS'CAAGTC'
p451
I21217
sS'TTACTC'
p452
I15506
sS'TTACTA'
p453
I12423
sS'TTACTG'
p454
I20490
sS'ACCTTG'
p455
I24840
sS'ACCTTC'
p456
I26509
sS'ACCTTA'
p457
I13338
sS'TATATC'
p458
I7922
sS'TTACTT'
p459
I22254
sS'ACCTTT'
p460
I25680
sS'ACAGGG'
p461
I41326
sS'CTGGGA'
p462
I76701
sS'CTGGGC'
p463
I80094
sS'ACAGGC'
p464
I39746
sS'TTATAT'
p465
I16124
sS'CTGGGG'
p466
I88777
sS'AGGACG'
p467
I14864
sS'GCAGCT'
p468
I53514
sS'CAGGAA'
p469
I64496
sS'TCGCTT'
p470
I9743
sS'AGGACC'
p471
I28583
sS'AGGACA'
p472
I36062
sS'GCGCAT'
p473
I7876
sS'TTATAC'
p474
I9292
sS'ACAGGT'
p475
I25800
sS'CTGGGT'
p476
I48197
sS'TTATAG'
p477
I11951
sS'TCGCTG'
p478
I15592
sS'GCAGCG'
p479
I32746
sS'AGGACT'
p480
I29076
sS'GCAGCA'
p481
I52506
sS'GCAGCC'
p482
I70474
sS'CAGGAT'
p483
I31101
sS'CCTCAG'
p484
I61090
sS'CCTCAA'
p485
I28410
sS'CCTCAC'
p486
I41717
sS'TATGTT'
p487
I15623
sS'ATGGGC'
p488
I21459
sS'TCTTTG'
p489
I37916
sS'ATGGGA'
p490
I29571
sS'TCTTTA'
p491
I27424
sS'ATGGGG'
p492
I35942
sS'TCTTTC'
p493
I49572
sS'CCTCAT'
p494
I28657
sS'CAGGCG'
p495
I32072
sS'GGGTTA'
p496
I14577
sS'TATGTG'
p497
I16856
sS'TATGTA'
p498
I13858
sS'ATGGGT'
p499
I16454
sS'TATGTC'
p500
I10069
sS'GAAAGA'
p501
I49721
sS'ATCAAG'
p502
I16184
sS'GAAAGC'
p503
I34491
sS'ATCAAC'
p504
I11223
sS'GAAAGG'
p505
I51250
sS'GTCCAC'
p506
I18087
sS'CGCTAG'
p507
I6289
sS'ACGTGG'
p508
I14226
sS'CTATTC'
p509
I14180
sS'GGAGGA'
p510
I81307
sS'ATCAAT'
p511
I12661
sS'TCAAAC'
p512
I20365
sS'GAAAGT'
p513
I27708
sS'CATGAA'
p514
I21952
sS'GTAGCG'
p515
I5223
sS'CAAGTT'
p516
I21641
sS'GCGGCT'
p517
I28083
sS'GTAGCC'
p518
I14349
sS'GCTTTC'
p519
I34617
sS'GCGGCG'
p520
I50572
sS'GCTAGT'
p521
I10358
sS'GTAGCT'
p522
I17446
sS'GCGGCC'
p523
I45802
sS'TAAGCG'
p524
I4784
sS'GCGGCA'
p525
I20107
sS'CAAGTA'
p526
I14951
sS'AACGGT'
p527
I4886
sS'ACCCTC'
p528
I34864
sS'TAATCG'
p529
I2833
sS'GGTCTT'
p530
I22688
sS'TAATCA'
p531
I15066
sS'TAATCC'
p532
I18193
sS'TGCGAA'
p533
I6118
sS'CGGCCC'
p534
I44292
sS'CGACTA'
p535
I2654
sS'AAAATT'
p536
I38991
sS'CGGCCG'
p537
I32911
sS'CTTGTA'
p538
I14587
sS'GGTCTG'
p539
I31913
sS'GAGTTC'
p540
I22751
sS'AGTTTA'
p541
I20315
sS'TGCGAC'
p542
I6101
sS'GGTCTC'
p543
I32636
sS'GGTCTA'
p544
I10082
sS'AAAATG'
p545
I47577
sS'AAAATC'
p546
I30613
sS'AAAATA'
p547
I50425
sS'TTCAGC'
p548
I32597
sS'CTAACC'
p549
I13242
sS'TTCAGA'
p550
I36253
sS'TTCAGG'
p551
I37506
sS'GAACAT'
p552
I15856
sS'TCGTCG'
p553
I3460
sS'TGCCAA'
p554
I24894
sS'GAACAA'
p555
I24034
sS'ATCCCG'
p556
I11065
sS'GAACAC'
p557
I19169
sS'ATCCCC'
p558
I28909
sS'GAACAG'
p559
I29236
sS'TTCAGT'
p560
I28192
sS'ATTGCA'
p561
I19195
sS'CACCAC'
p562
I36793
sS'NNNCTG'
p563
I1
sS'CACCAA'
p564
I24839
sS'CACCAG'
p565
I42502
sS'TCCGTG'
p566
I12707
sS'ATTGCG'
p567
I4133
sS'TCCGTC'
p568
I10803
sS'TTGATT'
p569
I21230
sS'TCCGTA'
p570
I4163
sS'ACCAGA'
p571
I27541
sS'CGGCGT'
p572
I9905
sS'ACGCGA'
p573
I4092
sS'CACCAT'
p574
I24094
sS'AACATG'
p575
I20969
sS'AACATA'
p576
I15625
sS'AACATC'
p577
I18027
sS'GTCAGC'
p578
I25445
sS'GCACGG'
p579
I15400
sS'GTCAGA'
p580
I23840
sS'GCACGA'
p581
I7152
sS'GTCAGG'
p582
I33930
sS'GCACGC'
p583
I14371
sS'CAGTCA'
p584
I26637
sS'AACAAC'
p585
I21287
sS'GCACCA'
p586
I27504
sS'GCAAGC'
p587
I22970
sS'GCACGT'
p588
I10108
sS'GCAAGA'
p589
I27161
sS'TCAGCT'
p590
I38320
sS'GTCAGT'
p591
I18550
sS'GTATAC'
p592
I5357
sS'TTCCGT'
p593
I8698
sS'ACGGCT'
p594
I9886
sS'GTATAG'
p595
I6312
sS'CCGGAA'
p596
I14540
sS'CCGGAC'
p597
I13778
sS'CCGGAG'
p598
I29108
sS'CGTCTT'
p599
I9400
sS'CTCGTA'
p600
I3464
sS'TTCCGG'
p601
I14702
sS'TTCCGA'
p602
I7929
sS'TTCCGC'
p603
I13148
sS'GTATAT'
p604
I9212
sS'CGTCTC'
p605
I15939
sS'GCCTGT'
p606
I39474
sS'CGTCTA'
p607
I4024
sS'CGTCTG'
p608
I13078
sS'CCGGAT'
p609
I8211
sS'CTCTTC'
p610
I49074
sS'TGTTAT'
p611
I17337
sS'CTCTTA'
p612
I20720
sS'CTCTTG'
p613
I32932
sS'CCCGAT'
p614
I6433
sS'TACGTA'
p615
I2939
sS'TACGTC'
p616
I2964
sS'TCTGGT'
p617
I27176
sS'CGCGAT'
p618
I4672
sS'TACGTG'
p619
I5280
sS'TGTTAG'
p620
I16305
sS'ATTATA'
p621
I14735
sS'GGTTTC'
p622
I29557
sS'TGTTAC'
p623
I14385
sS'CTCTTT'
p624
I48680
sS'TGTTAA'
p625
I22118
sS'CGCGAA'
p626
I5224
sS'CGCGAC'
p627
I7321
sS'CCCTGC'
p628
I77543
sS'TCTGGC'
p629
I39102
sS'TACGTT'
p630
I3939
sS'CGCGAG'
p631
I13595
sS'AGTCGT'
p632
I4833
sS'TTACCT'
p633
I20732
sS'CTCCAT'
p634
I32914
sS'AATGCG'
p635
I6690
sS'TACGGC'
p636
I4168
sS'TTACCG'
p637
I4624
sS'CTCCAC'
p638
I45927
sS'CTCCAA'
p639
I35475
sS'TTACCC'
p640
I15543
sS'CTCCAG'
p641
I73499
sS'TTACCA'
p642
I16958
sS'AGTCGC'
p643
I8298
sS'CCGACT'
p644
I9632
sS'GCCTAC'
p645
I12776
sS'AATGCA'
p646
I30987
sS'GCCTAG'
p647
I19961
sS'CCGACA'
p648
I8099
sS'GATATC'
p649
I6915
sS'CCGACC'
p650
I14310
sS'CCGACG'
p651
I7264
sS'GCCTAT'
p652
I10926
sS'TGACGG'
p653
I8311
sS'ACGCGG'
p654
I11714
sS'CCCGAG'
p655
I28521
sS'TGACGA'
p656
I4926
sS'CTAAGT'
p657
I14894
sS'GCTGTC'
p658
I31966
sS'CGCACA'
p659
I13439
sS'ATACAC'
p660
I12767
sS'CGCACC'
p661
I17389
sS'ATACAA'
p662
I17087
sS'ACTGCT'
p663
I30252
sS'GGGTCA'
p664
I26006
sS'CGCACG'
p665
I10278
sS'GGGTCC'
p666
I37203
sS'CTCACT'
p667
I39571
sS'GGGTCT'
p668
I33311
sS'ACTGCA'
p669
I36894
sS'TTTGTC'
p670
I26422
sS'ACTGCC'
p671
I32276
sS'CGCACT'
p672
I10319
sS'TTTGTG'
p673
I33776
sS'ACTGCG'
p674
I12494
sS'CTTGAC'
p675
I16586
sS'CTCACA'
p676
I35429
sS'CTCACG'
p677
I13683
sS'TAGTGG'
p678
I16446
sS'GTGAGG'
p679
I41169
sS'GATTTT'
p680
I30491
sS'ACAATT'
p681
I18299
sS'GTGAGC'
p682
I33438
sS'TAGTGA'
p683
I14522
sS'GTGAGA'
p684
I30375
sS'TCGACG'
p685
I2458
sS'TCGACA'
p686
I3592
sS'TCGACC'
p687
I5007
sS'ACAATA'
p688
I15496
sS'GTGAGT'
p689
I24016
sS'TAGTGT'
p690
I11553
sS'GTGGGA'
p691
I44431
sS'GATTTA'
p692
I17724
sS'TCGACT'
p693
I4287
sS'GTGGGN'
p694
I1
sS'ACGTAA'
p695
I4178
sS'CTGGTT'
p696
I29696
sS'TTGAGT'
p697
I19366
sS'CGAACG'
p698
I3299
sS'TAAGNT'
p699
I1
sS'CGAACC'
p700
I6426
sS'CGAACA'
p701
I5213
sS'CTGGTG'
p702
I42622
sS'CTGGTA'
p703
I17011
sS'CTGGTC'
p704
I30421
sS'CTGCAA'
p705
I35699
sS'CGAACT'
p706
I6516
sS'TTGCAT'
p707
I23918
sS'GACGAG'
p708
I9500
sS'NNGAAT'
p709
I2
sS'AATGTT'
p710
I25784
sS'TTGCAG'
p711
I35928
sS'TCCATA'
p712
I13219
sS'TTGCAC'
p713
I17541
sS'TTGCAA'
p714
I24287
sS'AAGATC'
p715
I16821
sS'TCCATC'
p716
I26603
sS'TCGCAT'
p717
I4498
sS'GTCGTG'
p718
I6327
sS'GTCGTA'
p719
I2331
sS'GTCGTC'
p720
I5844
sS'GGNAGA'
p721
I1
sS'CCGTTT'
p722
I10358
sS'GAGCAA'
p723
I27880
sS'GCCTCG'
p724
I25799
sS'ATATCG'
p725
I2016
sS'GTCGTT'
p726
I4741
sS'TCGCAG'
p727
I12946
sS'CGAATT'
p728
I4936
sS'CCAAGC'
p729
I33536
sS'TCGCAC'
p730
I6802
sS'CCGTTG'
p731
I6664
sS'CCGTTA'
p732
I3942
sS'CCGTTC'
p733
I8883
sS'AATGCT'
p734
I25871
sS'GGTACG'
p735
I3580
sS'GGTACA'
p736
I11382
sS'GGTACC'
p737
I10896
sS'TATTTG'
p738
I24821
sS'CCAGTT'
p739
I27087
sS'TATTTC'
p740
I27573
sS'TATTTA'
p741
I30269
sS'CCCCCT'
p742
I57070
sS'GGTACT'
p743
I10947
sS'TCCAGG'
p744
I61191
sS'AATGCC'
p745
I23785
sS'GCCGTG'
p746
I16692
sS'CCCCCC'
p747
I43916
sS'CCCCCA'
p748
I70987
sS'TATTTT'
p749
I50595
sS'CCCCCG'
p750
I42630
sS'CTTGAG'
p751
I29766
sS'ATGATG'
p752
I17437
sS'ATGATA'
p753
I11152
sS'CTTGAA'
p754
I28089
sS'TGCAAC'
p755
I18085
sS'TGCAAA'
p756
I38345
sS'TGCAAG'
p757
I26362
sS'GCCGTC'
p758
I13312
sS'ATGATT'
p759
I17153
sS'CTTGAT'
p760
I16466
sS'CGAATC'
p761
I4982
sS'TTGAGG'
p762
I28435
sS'AATCTC'
p763
I22934
sS'CAATGT'
p764
I16061
sS'TTGAGC'
p765
I21755
sS'TTGAGA'
p766
I30327
sS'GAGAAT'
p767
I28994
sS'TGTCTT'
p768
I33222
sS'CGAATA'
p769
I3128
sS'AGTAGC'
p770
I17046
sS'AAGGCC'
p771
I34883
sS'ATAACC'
p772
I10529
sS'AAGGCA'
p773
I40987
sS'ATAACA'
p774
I17231
sS'AAGGCG'
p775
I16752
sS'TCCAGA'
p776
I39857
sS'TATGCT'
p777
I13016
sS'TGTGGT'
p778
I28337
sS'TGTCTG'
p779
I37436
sS'GAGAAG'
p780
I53399
sS'GAGAAA'
p781
I58173
sS'CTGTTG'
p782
I28530
sS'GAGAAC'
p783
I26689
sS'TGTCTA'
p784
I13867
sS'TGTGGC'
p785
I36511
sS'TGTGGA'
p786
I31416
sS'TGTGGG'
p787
I44879
sS'ATAACT'
p788
I13082
sS'AAGGCT'
p789
I35207
sS'CTGTAA'
p790
I28734
sS'GCCCCG'
p791
I57403
sS'ACCAAG'
p792
I24689
sS'GGTCAG'
p793
I32882
sS'GCCCCC'
p794
I71934
sS'GGTCAA'
p795
I14225
sS'GCCCCA'
p796
I59823
sS'GGTCAC'
p797
I23540
sS'TAACGA'
p798
I3631
sS'GATCGC'
p799
I7043
sS'GGTCAT'
p800
I14774
sS'CGTGCC'
p801
I14237
sS'CGTGCA'
p802
I10856
sS'AGGTAA'
p803
I20234
sS'AGGTAC'
p804
I12556
sS'TTTTGC'
p805
I30417
sS'TCTTAC'
p806
I15569
sS'TTTTGA'
p807
I33597
sS'TCTTAA'
p808
I23279
sS'TTTTGG'
p809
I32562
sS'TCTTAG'
p810
I18993
sS'AATTGC'
p811
I16831
sS'TAGCCA'
p812
I18446
sS'TGGGGT'
p813
I42624
sS'TAGCCC'
p814
I16774
sS'GATAAT'
p815
I12924
sS'CGCTCA'
p816
I13989
sS'CGCTCC'
p817
I30475
sS'AATTGT'
p818
I18044
sS'CGAGAG'
p819
I15310
sS'AATCTT'
p820
I21305
sS'TCTTAT'
p821
I16926
sS'GTTATG'
p822
I9966
sS'CGCTCT'
p823
I18545
sS'TGGGGG'
p824
I71102
sS'TCTCGT'
p825
I6804
sS'TAGCCT'
p826
I17510
sS'TGGGGC'
p827
I59644
sS'GATAAG'
p828
I12773
sS'CTCTCA'
p829
I38571
sS'GATCCT'
p830
I20895
sS'AAGAAT'
p831
I31423
sS'CGAAGT'
p832
I6844
sS'GTTATC'
p833
I9149
sS'AAGAAC'
p834
I25080
sS'GATCCA'
p835
I16845
sS'AAGAAA'
p836
I71148
sS'GATCCC'
p837
I21803
sS'AAGAAG'
p838
I42762
sS'GATCCG'
p839
I8339
sS'NGATCT'
p840
I1
sS'TATTAA'
p841
I18794
sS'CAAGGG'
p842
I34055
sS'ATCGAG'
p843
I4817
sS'CAAGGC'
p844
I34594
sS'GGTTCT'
p845
I24708
sS'CAAGGA'
p846
I35853
sS'GGTTCA'
p847
I18965
sS'GGTTCC'
p848
I26750
sS'CAAGGT'
p849
I25103
sS'GGTTCG'
p850
I6577
sS'CTGTAT'
p851
I17019
sS'ATTAAC'
p852
I14659
sS'ATTATC'
p853
I13039
sS'TAGAAT'
p854
I18223
sS'CAAACG'
p855
I8637
sS'ATTATG'
p856
I12857
sS'AGTCTT'
p857
I23383
sS'TAGAAA'
p858
I31930
sS'TAGAAC'
p859
I12909
sS'ATTATT'
p860
I25970
sS'TAGAAG'
p861
I21495
sS'AGTCTA'
p862
I11659
sS'AGTCTC'
p863
I28694
sS'AGTCTG'
p864
I28529
sS'TAACTC'
p865
I14487
sS'TAACTA'
p866
I11071
sS'TAACTG'
p867
I17401
sS'ATCTAT'
p868
I11567
sS'ACGCGT'
p869
I3766
sS'AGGTAT'
p870
I13507
sS'TAACTT'
p871
I18630
sS'ATCTAG'
p872
I12636
sS'ATCTAC'
p873
I10713
sS'ATCTAA'
p874
I13480
sS'CATAGC'
p875
I12913
sS'CCATGT'
p876
I22628
sS'ACCAAA'
p877
I24999
sS'TGGAGG'
p878
I61135
sS'TGGAGA'
p879
I49845
sS'TGGAGC'
p880
I42080
sS'CCATGC'
p881
I23426
sS'CCATGA'
p882
I20986
sS'CCATGG'
p883
I30428
sS'TGGAGT'
p884
I33392
sS'ATTACG'
p885
I3126
sS'TCAGTA'
p886
I16488
sS'TCAGTC'
p887
I22838
sS'CTCTCT'
p888
I71429
sS'GGGGAT'
p889
I29236
sS'TCAGTG'
p890
I31206
sS'CGATAT'
p891
I2069
sS'GGGGAA'
p892
I56373
sS'GGGGAC'
p893
I43348
sS'CTCTCC'
p894
I73521
sS'TCAGTT'
p895
I26459
sS'GGGGAG'
p896
I93055
sS'CGATAG'
p897
I2453
sS'CGATAA'
p898
I2753
sS'TATCAA'
p899
I11720
sS'CTAAGG'
p900
I20030
sS'GTGTTT'
p901
I31510
sS'GCTACT'
p902
I16824
sS'GTGGTT'
p903
I22919
sS'TGGNAG'
p904
I1
sS'GTGTTC'
p905
I18719
sS'GTGTTA'
p906
I13524
sS'GTGTTG'
p907
I20448
sS'ACCAAT'
p908
I13648
sS'GTGGTA'
p909
I13342
sS'GCTACA'
p910
I14983
sS'GTGGTC'
p911
I20098
sS'CTAAGC'
p912
I16338
sS'GTGGTG'
p913
I36764
sS'GCTACG'
p914
I5100
sS'AGGTAG'
p915
I20994
sS'TTTCGT'
p916
I6482
sS'TGCCCT'
p917
I48798
sS'AGCGTT'
p918
I7919
sS'CGTGCG'
p919
I9873
sS'TGCCCC'
p920
I51306
sS'TGCCCA'
p921
I44179
sS'TGCCCG'
p922
I22008
sS'TTTCGG'
p923
I8548
sS'GAGTTA'
p924
I14670
sS'AGCGTA'
p925
I3599
sS'AGCGTC'
p926
I10814
sS'AGCGTG'
p927
I12565
sS'GGCCCC'
p928
I69521
sS'AACGTT'
p929
I6278
sS'GGCCCA'
p930
I45938
sS'CACGTG'
p931
I17057
sS'GGCCCG'
p932
I38348
sS'CACGTA'
p933
I5305
sS'CACGTC'
p934
I9751
sS'ACGTGC'
p935
I9891
sS'CTACGT'
p936
I4459
sS'ACGTGA'
p937
I8907
sS'CTACGG'
p938
I5741
sS'ACAGTC'
p939
I19316
sS'CACGTT'
p940
I9309
sS'TTCACG'
p941
I8163
sS'GGCCCT'
p942
I49428
sS'GGGACA'
p943
I37961
sS'AATTGA'
p944
I16938
sS'GGGACC'
p945
I39082
sS'AGGGAC'
p946
I36576
sS'GTCTCA'
p947
I27909
sS'GGGACG'
p948
I21306
sS'AGAGAG'
p949
I71738
sS'AGAGAA'
p950
I59852
sS'AGAGAC'
p951
I37327
sS'TCGTGA'
p952
I5757
sS'GTCTTT'
p953
I29159
sS'TCTATC'
p954
I11945
sS'TCTATG'
p955
I12902
sS'AGAGAT'
p956
I29808
sS'TTCACA'
p957
I31215
sS'GTCTTG'
p958
I22092
sS'TCTATT'
p959
I19183
sS'GTCTTC'
p960
I24653
sS'ATAACG'
p961
I3413
sS'GCAGAG'
p962
I66275
sS'GCTCAA'
p963
I21819
sS'CGCTCG'
p964
I12993
sS'GCAGAC'
p965
I27479
sS'GCAGAA'
p966
I40172
sS'GCTCAG'
p967
I50269
sS'AGACGT'
p968
I7401
sS'ATGCGT'
p969
I5065
sS'TTGCTG'
p970
I37355
sS'TTGCTA'
p971
I17445
sS'TTGCTC'
p972
I27762
sS'GCAGAT'
p973
I25861
sS'GCTCAT'
p974
I19751
sS'GTACGG'
p975
I3360
sS'TTGCTT'
p976
I34480
sS'CGATTC'
p977
I6146
sS'TAGCCG'
p978
I6478
sS'ATGCGC'
p979
I7857
sS'ATGCGA'
p980
I4318
sS'TGTAAG'
p981
I17388
sS'GGCTAG'
p982
I17132
sS'TGTAAC'
p983
I14574
sS'GGCTAC'
p984
I14417
sS'TGTAAA'
p985
I30075
sS'CTGAAA'
p986
I42520
sS'ACTGTA'
p987
I16062
sS'TTGGTA'
p988
I13138
sS'ACTGTC'
p989
I20160
sS'TTGGTC'
p990
I16992
sS'TTCGAC'
p991
I3412
sS'TTCGAA'
p992
I5380
sS'TTGGTG'
p993
I25110
sS'GACTGC'
p994
I24378
sS'GGCTAT'
p995
I11221
sS'TGTAAT'
p996
I22714
sS'GACTGG'
p997
I30085
sS'TTCGAT'
p998
I3445
sS'TTGGTT'
p999
I24192
sS'ACTGTT'
p1000
I21153
sS'GTTTCT'
p1001
I38530
sS'ATAATT'
p1002
I20845
sS'CCTTTT'
p1003
I46541
sS'GTTTCG'
p1004
I6205
sS'GTTTCC'
p1005
I36854
sS'GTTTCA'
p1006
I26043
sS'ATAATG'
p1007
I15699
sS'CCTTTA'
p1008
I24517
sS'CCTTTC'
p1009
I50629
sS'ATAATC'
p1010
I11944
sS'NNNNGA'
p1011
I3
sS'ATAATA'
p1012
I18129
sS'CCTTTG'
p1013
I40154
sS'ACAGAA'
p1014
I40478
sS'CTCTCG'
p1015
I15297
sS'ACAGAC'
p1016
I26795
sS'GATAAC'
p1017
I8972
sS'GCCCCT'
p1018
I61052
sS'ACAGAG'
p1019
I49931
sS'TTATCT'
p1020
I22113
sS'CTGGAC'
p1021
I29684
sS'CTGGAA'
p1022
I52308
sS'CTGGAG'
p1023
I73380
sS'ACAGAT'
p1024
I24433
sS'TGGGGA'
p1025
I66499
sS'TTATCA'
p1026
I15890
sS'CTGGAT'
p1027
I26987
sS'TTATCC'
p1028
I14046
sS'CCAATG'
p1029
I16924
sS'AAACCG'
p1030
I8854
sS'ATTTGT'
p1031
I26539
sS'CCAATC'
p1032
I17662
sS'AAACCC'
p1033
I31709
sS'CCAATA'
p1034
I12068
sS'TGTCGG'
p1035
I8286
sS'GAGATC'
p1036
I19488
sS'AACGAG'
p1037
I7499
sS'GAGATA'
p1038
I15878
sS'TGTCGC'
p1039
I9023
sS'GAGATG'
p1040
I33564
sS'TGTCGA'
p1041
I3585
sS'AAACCT'
p1042
I29202
sS'CCAATT'
p1043
I16372
sS'ATTTGC'
p1044
I25591
sS'GTCGAT'
p1045
I2674
sS'ATTTGG'
p1046
I26971
sS'CCCTAG'
p1047
I24792
sS'TGTCGT'
p1048
I5244
sS'CCCTAC'
p1049
I20790
sS'GAGATT'
p1050
I22562
sS'CCCTAA'
p1051
I20648
sS'CATTAT'
p1052
I15657
sS'CTACAC'
p1053
I13052
sS'TGGATT'
p1054
I22994
sS'ATCACA'
p1055
I23247
sS'ATCACC'
p1056
I19596
sS'CATGCT'
p1057
I23558
sS'TGACAC'
p1058
I19767
sS'TGACAA'
p1059
I22209
sS'TGGATA'
p1060
I13253
sS'CATTAG'
p1061
I14776
sS'CATTAA'
p1062
I18974
sS'TGGATG'
p1063
I25004
sS'CATGCA'
p1064
I23878
sS'TGACAT'
p1065
I20325
sS'CATGCC'
p1066
I24398
sS'ATCACT'
p1067
I20385
sS'CATGCG'
p1068
I7838
sS'GTAGAA'
p1069
I16847
sS'GTAGAC'
p1070
I8602
sS'GTAGAG'
p1071
I19901
sS'GATTGG'
p1072
I17597
sS'ACAACC'
p1073
I16755
sS'GCATGA'
p1074
I18184
sS'GATTGC'
p1075
I12880
sS'ACAACG'
p1076
I5459
sS'ACTAAG'
p1077
I13713
sS'GTAGAT'
p1078
I10643
sS'TGCTAC'
p1079
I13920
sS'TTGCCT'
p1080
I32741
sS'TGATGC'
p1081
I18061
sS'GATCAA'
p1082
I11951
sS'ACAACT'
p1083
I17686
sS'GCGCGT'
p1084
I11062
sS'TAATAG'
p1085
I11715
sS'GTCCGG'
p1086
I13716
sS'TAATAC'
p1087
I9992
sS'GTCCGA'
p1088
I6244
sS'TAATAA'
p1089
I21896
sS'GTCCGC'
p1090
I13024
sS'TGCCAT'
p1091
I25285
sS'TCAACA'
p1092
I20389
sS'ACTCTT'
p1093
I23957
sS'GTCCGT'
p1094
I6591
sS'TAATAT'
p1095
I14285
sS'ATTCGC'
p1096
I4549
sS'TTCTCC'
p1097
I54535
sS'TGAACT'
p1098
I22797
sS'TTCTCA'
p1099
I41773
sS'ATTCGG'
p1100
I5688
sS'TTCTCG'
p1101
I10680
sS'TCGTAC'
p1102
I2140
sS'TACCTT'
p1103
I17190
sS'TCGTAA'
p1104
I3075
sS'TCGTAG'
p1105
I3690
sS'TCGTCA'
p1106
I4790
sS'GAACCT'
p1107
I20820
sS'TGAACG'
p1108
I6232
sS'ATCCAC'
p1109
I18538
sS'TGTTTG'
p1110
I35381
sS'TTCTCT'
p1111
I59443
sS'TGAACA'
p1112
I22098
sS'GAACCC'
p1113
I25045
sS'TACCTG'
p1114
I22543
sS'TACCTA'
p1115
I10904
sS'TACCTC'
p1116
I17239
sS'TCGTAT'
p1117
I2529
sS'ACCATC'
p1118
I17502
sS'ACCATA'
p1119
I10063
sS'ACCATG'
p1120
I20079
sS'ATGTTG'
p1121
I19378
sS'AGCTCT'
p1122
I41156
sS'TGTCCT'
p1123
I36068
sS'AGTGGT'
p1124
I22668
sS'CGTGGT'
p1125
I11700
sS'AAACGA'
p1126
I8347
sS'TGATGT'
p1127
I19111
sS'ATGTTT'
p1128
I28334
sS'ACCATT'
p1129
I16896
sS'AACCTC'
p1130
I26590
sS'AGTGGA'
p1131
I28702
sS'AGTGGC'
p1132
I34136
sS'AGCTCC'
p1133
I50403
sS'AGTGGG'
p1134
I41402
sS'ATAGCC'
p1135
I11171
sS'CAGTAA'
p1136
I20251
sS'CAGTAC'
p1137
I12063
sS'CAGTAG'
p1138
I19405
sS'CGCGGT'
p1139
I12335
sS'TTTCAC'
p1140
I30673
sS'CAGTAT'
p1141
I13723
sS'ATGGNA'
p1142
I1
sS'AAAGTA'
p1143
I23308
sS'GATGGN'
p1144
I1
sS'TTTCAA'
p1145
I35134
sS'AAAGTG'
p1146
I35229
sS'GATCTA'
p1147
I8567
sS'GATCTC'
p1148
I19721
sS'ATTGAC'
p1149
I10149
sS'GATCTG'
p1150
I22187
sS'TTTCAG'
p1151
I42833
sS'CCGGCC'
p1152
I48300
sS'ATTAGG'
p1153
I14751
sS'AAAGTT'
p1154
I28091
sS'CACATT'
p1155
I27846
sS'GTTCCC'
p1156
I31428
sS'TCCCTC'
p1157
I69694
sS'TGTCCG'
p1158
I9388
sS'CAAACT'
p1159
I26629
sS'TGCCAC'
p1160
I32367
sS'TCCCTG'
p1161
I67786
sS'GATCTT'
p1162
I16530
sS'CTAGAC'
p1163
I11757
sS'ATAGAA'
p1164
I18874
sS'AAGTGA'
p1165
I31019
sS'AAGTGC'
p1166
I26537
sS'TGTTCT'
p1167
I32364
sS'AAGTGG'
p1168
I30920
sS'TGATTG'
p1169
I18399
sS'TCTGAT'
p1170
I23077
sS'TGTATT'
p1171
I22991
sS'TGATTA'
p1172
I15287
sS'TGTTCA'
p1173
I22002
sS'CACAAG'
p1174
I25920
sS'TGTTCC'
p1175
I27866
sS'AAGTGT'
p1176
I22295
sS'CACAAC'
p1177
I18450
sS'TGTTCG'
p1178
I5101
sS'TCTGAA'
p1179
I35845
sS'TCTGAC'
p1180
I24189
sS'TCTGAG'
p1181
I43805
sS'CGCGCC'
p1182
I37898
sS'CGCGCA'
p1183
I15363
sS'GGTAAA'
p1184
I18350
sS'CGCGCG'
p1185
I30493
sS'GCNCCA'
p1186
I1
sS'CTCCCT'
p1187
I84647
sS'AGCGGG'
p1188
I27237
sS'AGCGGA'
p1189
I14033
sS'AGCGGC'
p1190
I26245
sS'GGTAAG'
p1191
I15699
sS'GACGTG'
p1192
I9908
sS'CGCGCT'
p1193
I18482
sS'GTGCGA'
p1194
I6640
sS'CTCCCG'
p1195
I40274
sS'ACCTCG'
p1196
I12503
sS'GTGCGG'
p1197
I17974
sS'GCCTCT'
p1198
I53713
sS'TAAGCC'
p1199
I16196
sS'CGGGAG'
p1200
I40050
sS'CCCATG'
p1201
I26458
sS'CGGGAA'
p1202
I21185
sS'TAATTT'
p1203
I31887
sS'TAGCTG'
p1204
I23329
sS'CCCATC'
p1205
I35382
sS'TTGTTG'
p1206
I24426
sS'CCTGCT'
p1207
I62237
sS'CCGAAT'
p1208
I5609
sS'CCCATT'
p1209
I28707
sS'CGGGAT'
p1210
I10993
sS'TGGGTT'
p1211
I28855
sS'GCCTCA'
p1212
I42976
sS'TAAGCT'
p1213
I14874
sS'GCCTCC'
p1214
I79215
sS'CCGAAC'
p1215
I6643
sS'CCTGCG'
p1216
I29674
sS'CCGAAA'
p1217
I8542
sS'CCGAAG'
p1218
I12670
sS'CGAGGC'
p1219
I26106
sS'CCTGCA'
p1220
I55862
sS'GTACTG'
p1221
I12132
sS'CCATTC'
p1222
I27095
sS'CCATTA'
p1223
I14565
sS'TATAAA'
p1224
I23303
sS'TATAAC'
p1225
I8390
sS'GATTTG'
p1226
I22291
sS'GTACTC'
p1227
I8835
sS'GTTCTA'
p1228
I12993
sS'CCATTT'
p1229
I34782
sS'TCTACA'
p1230
I17256
sS'TCTACC'
p1231
I16777
sS'CTAACT'
p1232
I14598
sS'TCTACG'
p1233
I4342
sS'ACTTTC'
p1234
I27910
sS'CGCAAC'
p1235
I5925
sS'ACTCCA'
p1236
I33505
sS'CGCAAA'
p1237
I7721
sS'ATACCG'
p1238
I2833
sS'GACGCG'
p1239
I11514
sS'ATACCA'
p1240
I12801
sS'ATACCC'
p1241
I10360
sS'TCTACT'
p1242
I17903
sS'ATACCT'
p1243
I13583
sS'CGCAAT'
p1244
I4169
sS'TAGTAA'
p1245
I12636
sS'TGGGTG'
p1246
I43325
sS'TAGTAC'
p1247
I5902
sS'CTCAAG'
p1248
I29800
sS'GTTTTG'
p1249
I31623
sS'CTCAAA'
p1250
I34797
sS'TAGTAG'
p1251
I10510
sS'CTCAAC'
p1252
I18863
sS'GTGTGC'
p1253
I27135
sS'GTGTGA'
p1254
I26752
sS'GTGTGG'
p1255
I36232
sS'TAACGG'
p1256
I3902
sS'CTCAAT'
p1257
I16598
sS'TAGTAT'
p1258
I8232
sS'GTGTGT'
p1259
I59883
sS'ATCTTT'
p1260
I27040
sS'GTTGGG'
p1261
I29466
sS'GTTGGA'
p1262
I19021
sS'GTTGGC'
p1263
I18621
sS'CCTTGG'
p1264
I43228
sS'CCTTGA'
p1265
I26447
sS'GCGTAT'
p1266
I2711
sS'AGGATT'
p1267
I25372
sS'GGACGT'
p1268
I8720
sS'GTTGGT'
p1269
I15685
sS'ATCTTG'
p1270
I20137
sS'ATCTTA'
p1271
I14710
sS'ATCTTC'
p1272
I21600
sS'CCTTGT'
p1273
I27136
sS'AGGATA'
p1274
I15627
sS'AGGATG'
p1275
I33730
sS'GACATG'
p1276
I16605
sS'ATCAGG'
p1277
I22244
sS'TTGCGT'
p1278
I5383
sS'GACATA'
p1279
I10122
sS'TCGGCG'
p1280
I11080
sS'GAATAT'
p1281
I14814
sS'TCGGCC'
p1282
I19634
sS'TCGGCA'
p1283
I8413
sS'TTGCGA'
p1284
I4445
sS'GACATT'
p1285
I19795
sS'TTGCGG'
p1286
I9309
sS'GAATAG'
p1287
I13986
sS'TCGGCT'
p1288
I13911
sS'ATCAGC'
p1289
I21209
sS'GAATAC'
p1290
I10922
sS'GAATAA'
p1291
I21228
sS'ACTTTT'
p1292
I32926
sS'TGCAGA'
p1293
I44968
sS'GTACAT'
p1294
I9090
sS'GGACGA'
p1295
I8891
sS'TGCCTC'
p1296
I49856
sS'TTATAA'
p1297
I19497
sS'GAAATG'
p1298
I39048
sS'AATGAT'
p1299
I18525
sS'GAAATA'
p1300
I27360
sS'GAAATC'
p1301
I23688
sS'ACCGGT'
p1302
I5055
sS'GAAATT'
p1303
I28164
sS'AATGAA'
p1304
I36568
sS'ATGTCC'
p1305
I16891
sS'CAAAGT'
p1306
I29922
sS'AATGAG'
p1307
I31094
sS'ATGGTA'
p1308
I11842
sS'GCGTAC'
p1309
I2843
sS'CTTGGA'
p1310
I31775
sS'CTTGGC'
p1311
I36824
sS'GTCCTT'
p1312
I25936
sS'CTTGGG'
p1313
I42590
sS'AGCCCT'
p1314
I49640
sS'GCGTAA'
p1315
I3276
sS'TTGAAT'
p1316
I22942
sS'GTCCTA'
p1317
I12432
sS'GTCCTC'
p1318
I32087
sS'TGCACG'
p1319
I10899
sS'CTTGGT'
p1320
I24892
sS'GTCCTG'
p1321
I38350
sS'TGCACC'
p1322
I26314
sS'TTGAAA'
p1323
I35118
sS'AGCCCG'
p1324
I27331
sS'AGCCCA'
p1325
I49309
sS'AGCCCC'
p1326
I65291
sS'TTAACT'
p1327
I19819
sS'ATAAAT'
p1328
I29970
sS'TGGTCG'
p1329
I6597
sS'TGGTCA'
p1330
I21872
sS'TGGTCC'
p1331
I23630
sS'ACGATT'
p1332
I3982
sS'GAGACT'
p1333
I28694
sS'GATTCA'
p1334
I17681
sS'TGGTCT'
p1335
I28084
sS'TTTTGT'
p1336
I48288
sS'ATAAAA'
p1337
I39893
sS'TCAGCC'
p1338
I46119
sS'ATAAAC'
p1339
I18785
sS'GAGACG'
p1340
I16048
sS'ACGATG'
p1341
I5516
sS'GAGACC'
p1342
I32642
sS'ACGATC'
p1343
I3644
sS'GAGACA'
p1344
I37712
sS'ACGATA'
p1345
I2185
sS'GGTTAC'
p1346
I10857
sS'ATGTGT'
p1347
I23057
sS'GGTTAA'
p1348
I15052
sS'ACCACT'
p1349
I22426
sS'GGTTAG'
p1350
I13401
sS'CTTCCT'
p1351
I74467
sS'GAATGT'
p1352
I25374
sS'GAGGAC'
p1353
I32198
sS'CTCAGT'
p1354
I34021
sS'TCCGCT'
p1355
I14056
sS'CTTCCA'
p1356
I44305
sS'ATGTGG'
p1357
I26139
sS'ATGTGA'
p1358
I23858
sS'CGTATG'
p1359
I2779
sS'ATGTGC'
p1360
I19175
sS'GGTTAT'
p1361
I10593
sS'TCCGCC'
p1362
I27597
sS'TCCGCA'
p1363
I13267
sS'TCCGCG'
p1364
I15908
sS'AACGTC'
p1365
I5828
sS'AACGTA'
p1366
I3918
sS'CGTGAA'
p1367
I8152
sS'CGTGAC'
p1368
I8380
sS'AGTGTG'
p1369
I28893
sS'TCTTCG'
p1370
I8677
sS'AGTGTA'
p1371
I12860
sS'TCTTCA'
p1372
I33149
sS'AGTGTC'
p1373
I20804
sS'TCTTCC'
p1374
I53520
sS'TAAGTG'
p1375
I17679
sS'ACTCAA'
p1376
I19408
sS'TAAGTC'
p1377
I11992
sS'TAAGTA'
p1378
I13383
sS'CCGTGA'
p1379
I10371
sS'TCTTCT'
p1380
I43447
sS'AGTGTT'
p1381
I22726
sS'GTGCGC'
p1382
I16388
sS'TTGGCA'
p1383
I24755
sS'AAAGGT'
p1384
I25722
sS'TTGGCC'
p1385
I30397
sS'GAGTAG'
p1386
I17356
sS'TTAACG'
p1387
I4317
sS'TTGGCG'
p1388
I9927
sS'GACTTC'
p1389
I22645
sS'TCGAGT'
p1390
I5299
sS'GACTTA'
p1391
I11893
sS'GACTTG'
p1392
I21371
sS'AAAGGG'
p1393
I46107
sS'AAAGGA'
p1394
I52447
sS'TTGGCT'
p1395
I32216
sS'AAAGGC'
p1396
I38330
sS'GAGTAC'
p1397
I8929
sS'GTATGG'
p1398
I9248
sS'GACTTT'
p1399
I24254
sS'TTCTTT'
p1400
I67137
sS'CAAGAA'
p1401
I32844
sS'AGCGAG'
p1402
I18298
sS'CAAGAC'
p1403
I21896
sS'GATTCG'
p1404
I4820
sS'CAAGAG'
p1405
I33412
sS'CGTATT'
p1406
I4157
sS'TTCTTG'
p1407
I32572
sS'TTCTTC'
p1408
I43493
sS'TTCTTA'
p1409
I26582
sS'CAAGAT'
p1410
I20429
sS'AGGGCT'
p1411
I49605
sS'TACGGG'
p1412
I5028
sS'TACGGA'
p1413
I4346
sS'TCAGCG'
p1414
I14373
sS'CCAACT'
p1415
I22627
sS'TAGAGT'
p1416
I13908
sS'TACGGT'
p1417
I3245
sS'AGGGCG'
p1418
I30139
sS'AGGGCA'
p1419
I48426
sS'AGGGCC'
p1420
I49477
sS'TAGAGC'
p1421
I16501
sS'TAGAGA'
p1422
I26618
sS'TAGAGG'
p1423
I24055
sS'CTACCG'
p1424
I6098
sS'CAATTA'
p1425
I15487
sS'GTGCTG'
p1426
I44703
sS'GTGCTA'
p1427
I13508
sS'ATCTGT'
p1428
I24228
sS'GTGCTC'
p1429
I25785
sS'CAATTC'
p1430
I18040
sS'ATCTGA'
p1431
I23115
sS'GTGCTT'
p1432
I25509
sS'ATCTGC'
p1433
I25937
sS'CGCCGT'
p1434
I9621
sS'CGAATG'
p1435
I5771
sS'ATCTGG'
p1436
I26539
sS'ATCATA'
p1437
I10137
sS'GATAGC'
p1438
I8303
sS'AAGCAG'
p1439
I46718
sS'GATAGA'
p1440
I12167
sS'AAGCAA'
p1441
I34564
sS'GATAGG'
p1442
I11936
sS'AAGCAC'
p1443
I25674
sS'TTTACC'
p1444
I18327
sS'CATTTC'
p1445
I38892
sS'CTAGGT'
p1446
I15531
sS'CATTTA'
p1447
I27690
sS'ACGCAT'
p1448
I5125
sS'AGCATT'
p1449
I26028
sS'GTTATA'
p1450
I8354
sS'CAAACA'
p1451
I35452
sS'AAGCAT'
p1452
I21871
sS'CAAACC'
p1453
I25394
sS'CATATT'
p1454
I16238
sS'ATCATT'
p1455
I18463
sS'GATAGT'
p1456
I7821
sS'CTAGGG'
p1457
I24499
sS'GTTATT'
p1458
I17277
sS'CTAGGC'
p1459
I20001
sS'CATTTT'
p1460
I47305
sS'CTAGGA'
p1461
I23257
sS'AAGTTT'
p1462
I28402
sS'TACAGT'
p1463
I16007
sS'CTCGAA'
p1464
I8001
sS'CTAACG'
p1465
I4305
sS'CTCGGC'
p1466
I28828
sS'CTAAGA'
p1467
I19071
sS'GGGGCT'
p1468
I65021
sS'TACAGG'
p1469
I25145
sS'AAGTTG'
p1470
I20095
sS'GGATGC'
p1471
I23719
sS'AAGTTA'
p1472
I18719
sS'TACAGC'
p1473
I18108
sS'AAGTTC'
p1474
I20785
sS'TACAGA'
p1475
I23137
sS'GGGGCC'
p1476
I68814
sS'CGGGGG'
p1477
I42413
sS'GGGGCA'
p1478
I51404
sS'GGGGCG'
p1479
I63869
sS'AGCGGT'
p1480
I9466
sS'TATATA'
p1481
I17832
sS'TATATG'
p1482
I11153
sS'TCCGGT'
p1483
I8030
sS'GCCCAT'
p1484
I21399
sS'TATATT'
p1485
I17801
sS'TGATGG'
p1486
I23640
sS'CATATG'
p1487
I12465
sS'ATGAGT'
p1488
I16608
sS'GCCCAC'
p1489
I38769
sS'TGATGA'
p1490
I21048
sS'TGTTTA'
p1491
I26937
sS'CACATC'
p1492
I22265
sS'TGTTTC'
p1493
I35949
sS'CACATA'
p1494
I17072
sS'TTAATT'
p1495
I27857
sS'CACATG'
p1496
I25290
sS'TTTCAT'
p1497
I33236
sS'ATGAGA'
p1498
I26426
sS'ATGAGC'
p1499
I20219
sS'ATGAGG'
p1500
I28551
sS'TTAATA'
p1501
I18582
sS'ACTCTG'
p1502
I34551
sS'TGCCAG'
p1503
I43870
sS'ACTCTA'
p1504
I14140
sS'TGTTTT'
p1505
I56228
sS'ACTCTC'
p1506
I25399
sS'TTAATG'
p1507
I18902
sS'AAATTC'
p1508
I30584
sS'GACTGA'
p1509
I23192
sS'AAATTA'
p1510
I32162
sS'AAATTG'
p1511
I22857
sS'CCAGTA'
p1512
I16558
sS'TTCAAT'
p1513
I18120
sS'TCTTGT'
p1514
I24497
sS'TTAATC'
p1515
I14490
sS'AAATTT'
p1516
I34786
sS'CNCCAA'
p1517
I1
sS'GTCTAT'
p1518
I8677
sS'GGGAAC'
p1519
I31706
sS'GGTGCG'
p1520
I17027
sS'GGGAAA'
p1521
I56779
sS'GGGAAG'
p1522
I74244
sS'GGTGCC'
p1523
I33032
sS'GGTGCA'
p1524
I26640
sS'AGAGCG'
p1525
I18647
sS'GCGACT'
p1526
I8081
sS'AGAGCC'
p1527
I45708
sS'AGAGCA'
p1528
I42017
sS'GCGTAG'
p1529
I5038
sS'GGTGCT'
p1530
I32656
sS'NTGCNC'
p1531
I1
sS'CTTGTG'
p1532
I25548
sS'ACTGAA'
p1533
I28504
sS'GGGAAT'
p1534
I28364
sS'GCGACG'
p1535
I7946
sS'AGAGCT'
p1536
I41512
sS'GCGACA'
p1537
I9157
sS'TATCGG'
p1538
I2479
sS'GCGACC'
p1539
I11717
sS'AGGTCG'
p1540
I9335
sS'GCAGGA'
p1541
I59172
sS'GCAGGC'
p1542
I55650
sS'AGNTGC'
p1543
I1
sS'GCAGGG'
p1544
I77812
sS'TATCGA'
p1545
I2001
sS'GCTCGA'
p1546
I6741
sS'GCTCGG'
p1547
I23091
sS'TATTCT'
p1548
I21529
sS'CCGTGG'
p1549
I19515
sS'CTTTAG'
p1550
I20421
sS'GCAGGT'
p1551
I38498
sS'TGAAGC'
p1552
I28082
sS'TATTCC'
p1553
I16519
sS'GGCGAG'
p1554
I24754
sS'TATTCA'
p1555
I19815
sS'CCGTGT'
p1556
I11305
sS'TATTCG'
p1557
I3208
sS'GGCGAC'
p1558
I14300
sS'TGTAGA'
p1559
I17318
sS'GGCTCA'
p1560
I43308
sS'TGTAGC'
p1561
I14842
sS'GGCTCC'
p1562
I63356
sS'TTTACG'
p1563
I4767
sS'TGTAGG'
p1564
I17764
sS'GGCTCG'
p1565
I18838
sS'TTCGGA'
p1566
I7393
sS'TTCGGC'
p1567
I8448
sS'CTTTAC'
p1568
I18268
sS'TTCAAG'
p1569
I28333
sS'TTCGGG'
p1570
I11929
sS'ATTGTC'
p1571
I14379
sS'AGCATG'
p1572
I23422
sS'GGCTCT'
p1573
I45572
sS'TGTAGT'
p1574
I15241
sS'TTTACT'
p1575
I24997
sS'AGCATA'
p1576
I13019
sS'AACCTT'
p1577
I20857
sS'AGACCT'
p1578
I26327
sS'TTCGGT'
p1579
I6023
sS'GTTTAT'
p1580
I18352
sS'TTCAAC'
p1581
I17142
sS'ATACAT'
p1582
I14989
sS'GCCTTT'
p1583
I37913
sS'TGCTTG'
p1584
I27995
sS'GTTTAA'
p1585
I20395
sS'CGCTAA'
p1586
I4830
sS'AACTTG'
p1587
I21710
sS'CAATCT'
p1588
I16407
sS'GTTTAG'
p1589
I14983
sS'TAAATT'
p1590
I27005
sS'CTGGCT'
p1591
I60524
sS'AGGCGG'
p1592
I38731
sS'AGGCGA'
p1593
I13796
sS'AGGCGC'
p1594
I26932
sS'AGGAGT'
p1595
I33586
sS'ACAGCC'
p1596
I41070
sS'GATAAA'
p1597
I19860
sS'ACAGCA'
p1598
I39945
sS'TCCAGC'
p1599
I53907
sS'ACAGCG'
p1600
I15281
sS'AGGAGC'
p1601
I51749
sS'AGGCGT'
p1602
I13385
sS'AGGAGA'
p1603
I59690
sS'CTGGCG'
p1604
I25015
sS'AGGAGG'
p1605
I90069
sS'CTGGCA'
p1606
I43905
sS'GTCGGG'
p1607
I15928
sS'GCGCCC'
p1608
I48082
sS'GTCACC'
p1609
I25180
sS'CGATAC'
p1610
I2027
sS'ACAGCT'
p1611
I36226
sS'GCTCTC'
p1612
I39731
sS'ATTGGT'
p1613
I13633
sS'AATTTT'
p1614
I38931
sS'AAACAG'
p1615
I42378
sS'TGTCAC'
p1616
I24746
sS'CCCTCT'
p1617
I65188
sS'GCTCTA'
p1618
I16666
sS'AAACAA'
p1619
I52143
sS'ATTGGG'
p1620
I16715
sS'AATTTA'
p1621
I26907
sS'AATTTC'
p1622
I28173
sS'ATTGGC'
p1623
I16476
sS'AACGCA'
p1624
I7854
sS'AATTTG'
p1625
I26102
sS'ATTTAC'
p1626
I20363
sS'CCCTCC'
p1627
I107461
sS'ATTTAG'
p1628
I19282
sS'CCCTCG'
p1629
I24717
sS'TAAATA'
p1630
I30295
sS'GGCGTT'
p1631
I9374
sS'TGACCA'
p1632
I21656
sS'TGACCC'
p1633
I26327
sS'GCCTTG'
p1634
I34667
sS'TGACCG'
p1635
I7634
sS'CATTCG'
p1636
I5691
sS'CATTCC'
p1637
I36011
sS'CATTCA'
p1638
I28812
sS'CGCTAT'
p1639
I3690
sS'ACAAAT'
p1640
I26822
sS'GATTAA'
p1641
I14866
sS'GTAGGC'
p1642
I12725
sS'GATTAC'
p1643
I13686
sS'GTAGGA'
p1644
I17723
sS'GTAGGG'
p1645
I20585
sS'GATTAG'
p1646
I11580
sS'GCGGGT'
p1647
I19117
sS'ACAAAC'
p1648
I26651
sS'CAATTG'
p1649
I12002
sS'ACAAAG'
p1650
I38460
sS'GCGGGC'
p1651
I44288
sS'GTCGGT'
p1652
I5908
sS'GCGGGA'
p1653
I32171
sS'CCCTCA'
p1654
I44528
sS'GATTAT'
p1655
I11941
sS'GTAGGT'
p1656
I13197
sS'AACCTG'
p1657
I29545
sS'TAATGA'
p1658
I18942
sS'GATGTT'
p1659
I17729
sS'TAATGC'
p1660
I13062
sS'GGGATG'
p1661
I35823
sS'GCCCTT'
p1662
I35296
sS'CAATAA'
p1663
I17914
sS'GCCCTC'
p1664
I55043
sS'GATGTG'
p1665
I22269
sS'GCCCTA'
p1666
I17844
sS'GATGTA'
p1667
I10854
sS'GCCCTG'
p1668
I70022
sS'GATGTC'
p1669
I15308
sS'GGCGTG'
p1670
I22260
sS'TGAAAT'
p1671
I34746
sS'TTCTAG'
p1672
I22440
sS'TTCTAA'
p1673
I26797
sS'ATCCGT'
p1674
I4773
sS'TTCTAC'
p1675
I16801
sS'TGAAAA'
p1676
I44029
sS'TGAAAC'
p1677
I26207
sS'TGAAAG'
p1678
I36440
sS'TTCTAT'
p1679
I18918
sS'ATCCGC'
p1680
I8794
sS'ATCCGA'
p1681
I5122
sS'ATCCGG'
p1682
I8098
sS'TGGCTC'
p1683
I45404
sS'TAACAA'
p1684
I21132
sS'TGGCTA'
p1685
I18785
sS'GCTACC'
p1686
I13937
sS'TGGCTG'
p1687
I57591
sS'GTCGGA'
p1688
I6786
sS'AGTTGT'
p1689
I17366
sS'AGCTAT'
p1690
I14172
sS'CTTACG'
p1691
I4135
sS'CCCGCA'
p1692
I26048
sS'AAGACA'
p1693
I33288
sS'GTCGGC'
p1694
I10551
sS'TGGCTT'
p1695
I39495
sS'AGTTGG'
p1696
I22279
sS'AGCTAA'
p1697
I18982
sS'AGCTAC'
p1698
I17226
sS'AGTTGC'
p1699
I17609
sS'AGTTGA'
p1700
I16893
sS'AGCTAG'
p1701
I17653
sS'CGTTGA'
p1702
I4675
sS'TCCAGT'
p1703
I28071
sS'GCACCT'
p1704
I31634
sS'CAGTGT'
p1705
I29905
sS'AGTCAG'
p1706
I29924
sS'TCAGGT'
p1707
I26794
sS'TCAAGG'
p1708
I26478
sS'CTGGCC'
p1709
I64891
sS'TCAAGC'
p1710
I20706
sS'CATGGA'
p1711
I23772
sS'CTAATA'
p1712
I11133
sS'CAGTGC'
p1713
I33318
sS'GCACCC'
p1714
I33718
sS'CAGTGA'
p1715
I37739
sS'CAGTGG'
p1716
I44766
sS'GCACCG'
p1717
I16589
sS'TCAAGT'
p1718
I20292
sS'TCAGGG'
p1719
I44089
sS'TCAGGA'
p1720
I41838
sS'TCAGGC'
p1721
I37137
sS'CGAGCT'
p1722
I12660
sS'CGTTGG'
p1723
I7737
sS'GTTCAT'
p1724
I14502
sS'TTCCCT'
p1725
I60220
sS'ACCACA'
p1726
I28526
sS'CGAGCA'
p1727
I10340
sS'GAGCCG'
p1728
I29123
sS'CGAGCC'
p1729
I18969
sS'GTTCAG'
p1730
I22899
sS'TTCCCC'
p1731
I56456
sS'GTTCAC'
p1732
I15773
sS'TTCCCG'
p1733
I21358
sS'GATCAC'
p1734
I16172
sS'GGACCT'
p1735
I25239
sS'TCCACC'
p1736
I39200
sS'AAGTAC'
p1737
I12663
sS'AAGTAA'
p1738
I22757
sS'TACATC'
p1739
I10842
sS'AAGTAG'
p1740
I18010
sS'TACATA'
p1741
I13825
sS'GCACAC'
p1742
I26957
sS'GGACCG'
p1743
I13999
sS'AACGCT'
p1744
I7848
sS'GGACCA'
p1745
I23577
sS'TCATCA'
p1746
I21347
sS'GGACCC'
p1747
I37078
sS'CACACG'
p1748
I14892
sS'TACATT'
p1749
I19428
sS'CACACC'
p1750
I34515
sS'GCACAA'
p1751
I19760
sS'CACACA'
p1752
I72501
sS'ACGGTC'
p1753
I5706
sS'TCTGCC'
p1754
I51421
sS'TCTGCA'
p1755
I44733
sS'TTAAGN'
p1756
I1
sS'TCTGCG'
p1757
I17215
sS'TAGATT'
p1758
I13865
sS'ATTGCC'
p1759
I15450
sS'CCCGTC'
p1760
I17136
sS'TTAAGG'
p1761
I19760
sS'CCCGTA'
p1762
I4826
sS'CGTCGA'
p1763
I2394
sS'CCCGTG'
p1764
I16708
sS'TTAAGC'
p1765
I15543
sS'TTACGT'
p1766
I4287
sS'TAGATC'
p1767
I8674
sS'TGTCAA'
p1768
I17413
sS'AGTAAT'
p1769
I15079
sS'TTTCGC'
p1770
I7249
sS'TAGATG'
p1771
I15094
sS'TCTGCT'
p1772
I46399
sS'TTACGC'
p1773
I3265
sS'TTAAGT'
p1774
I18967
sS'TTACGA'
p1775
I3121
sS'TTACGG'
p1776
I4400
sS'CCCGTT'
p1777
I9616
sS'AGTGAC'
p1778
I23882
sS'AGTGAA'
p1779
I28862
sS'AGTGAG'
p1780
I38768
sS'ACATTT'
p1781
I36433
sS'CGGGCG'
p1782
I36164
sS'AAACAC'
p1783
I31647
sS'TAAGAG'
p1784
I20985
sS'CGGGCC'
p1785
I37966
sS'TAAGAA'
p1786
I26589
sS'CGGGCA'
p1787
I22287
sS'TAAGAC'
p1788
I12685
sS'ATTTAT'
p1789
I30093
sS'AGTGAT'
p1790
I20280
sS'GGGNCC'
p1791
I1
sS'TAAGAT'
p1792
I14563
sS'CCTGAA'
p1793
I37443
sS'CCTGAC'
p1794
I33801
sS'AGTAAA'
p1795
I25112
sS'CCTGAG'
p1796
I57166
sS'GTTAGG'
p1797
I15044
sS'AACGCG'
p1798
I5518
sS'TCATCT'
p1799
I28045
sS'GTTAGC'
p1800
I10342
sS'GTTAGA'
p1801
I13307
sS'ACCCCC'
p1802
I41463
sS'GACATC'
p1803
I15405
sS'TATACG'
p1804
I2065
sS'GTTAGT'
p1805
I9906
sS'TATACC'
p1806
I6878
sS'TATACA'
p1807
I12141
sS'AACGCC'
p1808
I9428
sS'CGTATA'
p1809
I2025
sS'ACTAGT'
p1810
I8485
sS'TTTATT'
p1811
I48307
sS'GTAATA'
p1812
I10002
sS'ATTGGA'
p1813
I15756
sS'GTAATC'
p1814
I13542
sS'TCTAAC'
p1815
I13298
sS'CGTTCT'
p1816
I9134
sS'CCACCG'
p1817
I22972
sS'CGGATC'
p1818
I8333
sS'CCACCA'
p1819
I46157
sS'CCACCC'
p1820
I69713
sS'GTTCGT'
p1821
I4102
sS'TTTATG'
p1822
I20783
sS'GTAATT'
p1823
I16937
sS'TTTATC'
p1824
I19756
sS'ACTAGC'
p1825
I9994
sS'TTTATA'
p1826
I23427
sS'ACTAGA'
p1827
I14823
sS'CCACCT'
p1828
I54618
sS'CGTTCG'
p1829
I3363
sS'ACTTGT'
p1830
I17350
sS'CGTTCA'
p1831
I6398
sS'CGTTCC'
p1832
I11212
sS'TCTAAT'
p1833
I16075
sS'TCGTCT'
p1834
I7183
sS'CTTTGT'
p1835
I37890
sS'ACTGGG'
p1836
I39490
sS'ACTGGA'
p1837
I27730
sS'ACTGGC'
p1838
I27297
sS'TAGTCC'
p1839
I12045
sS'GTGACC'
p1840
I23415
sS'TAGTCA'
p1841
I11795
sS'GTGACA'
p1842
I24683
sS'TAGTCG'
p1843
I2773
sS'GTGACG'
p1844
I8553
sS'TGTCAT'
p1845
I21447
sS'ACTGGT'
p1846
I17768
sS'CTTTGG'
p1847
I39187
sS'GTATTT'
p1848
I26137
sS'CTTTGC'
p1849
I35276
sS'CTTTGA'
p1850
I30653
sS'GTGACT'
p1851
I24363
sS'TAGTCT'
p1852
I12596
sS'GTGCAC'
p1853
I19224
sS'GCGCTT'
p1854
I13052
sS'GTGCAA'
p1855
I17643
sS'CGACGA'
p1856
I3533
sS'GTGCAG'
p1857
I39040
sS'CGACGC'
p1858
I7516
sS'ACCTAC'
p1859
I13533
sS'CCGCAG'
p1860
I34098
sS'CCGCAA'
p1861
I9314
sS'CCGCAC'
p1862
I18261
sS'GGGACT'
p1863
I33813
sS'CGAAGC'
p1864
I10798
sS'GCGCTG'
p1865
I31584
sS'CGAAGA'
p1866
I8544
sS'CCCCGT'
p1867
I17943
sS'CGAAGG'
p1868
I12618
sS'GCGCTC'
p1869
I25665
sS'GTGCAT'
p1870
I16584
sS'GCGCTA'
p1871
I5844
sS'NCTGAC'
p1872
I1
sS'CCGCAT'
p1873
I8557
sS'ATTACC'
p1874
I11968
sS'GAAGAT'
p1875
I21375
sS'GGATCT'
p1876
I19679
sS'TCGGAA'
p1877
I7911
sS'TCGGAC'
p1878
I6159
sS'GAATCT'
p1879
I21958
sS'CCTATA'
p1880
I9115
sS'TCGGAG'
p1881
I14208
sS'GGATCG'
p1882
I6799
sS'GAAGAG'
p1883
I48316
sS'GAAGAA'
p1884
I43613
sS'GGATCC'
p1885
I22977
sS'GAAGAC'
p1886
I25279
sS'GGATCA'
p1887
I17825
sS'GGATCN'
p1888
I1
sS'GAATCA'
p1889
I19930
sS'GAATCC'
p1890
I21541
sS'TCGGAT'
p1891
I5025
sS'GAATCG'
p1892
I6194
sS'CGCAGG'
p1893
I29759
sS'CAGATG'
p1894
I34887
sS'ACGCCG'
p1895
I9809
sS'CATTCT'
p1896
I33430
sS'ATGGTG'
p1897
I23870
sS'CAGATC'
p1898
I22217
sS'ACGCCC'
p1899
I18364
sS'CAGATA'
p1900
I18333
sS'TGTCAG'
p1901
I29114
sS'NCCAAG'
p1902
I1
sS'ACGCCT'
p1903
I13370
sS'CAGATT'
p1904
I25188
sS'CTCGAC'
p1905
I6348
sS'ATGGTT'
p1906
I15675
sS'TCGCAA'
p1907
I4456
sS'TTGCGC'
p1908
I7382
sS'TGCGTC'
p1909
I9326
sS'CCGGTA'
p1910
I4799
sS'GCGTGG'
p1911
I22032
sS'AATGGT'
p1912
I16942
sS'ACGTGT'
p1913
I8134
sS'TGCGTG'
p1914
I13653
sS'AATGGA'
p1915
I27828
sS'AATGGG'
p1916
I28601
sS'CAATAC'
p1917
I9606
sS'CACTCT'
p1918
I31360
sS'AATAGA'
p1919
I18745
sS'CAACTA'
p1920
I11196
sS'CGTTAG'
p1921
I4198
sS'TTGACC'
p1922
I14127
sS'GGAGGG'
p1923
I106267
sS'AAAAGT'
p1924
I33153
sS'TTGACG'
p1925
I4218
sS'GGAGGC'
p1926
I78513
sS'TGGTAG'
p1927
I15864
sS'CGCCAT'
p1928
I11191
sS'GAGTGT'
p1929
I21579
sS'TGGTAC'
p1930
I9702
sS'TGGTAA'
p1931
I17066
sS'AAAAGG'
p1932
I46642
sS'GGAGGT'
p1933
I43108
sS'AGCCAT'
p1934
I25084
sS'AAAAGC'
p1935
I38313
sS'AAAAGA'
p1936
I57016
sS'TTGACT'
p1937
I18022
sS'GAGTGG'
p1938
I34827
sS'CGCCAG'
p1939
I25362
sS'TGGTAT'
p1940
I12726
sS'CGCCAA'
p1941
I9956
sS'GAGTGC'
p1942
I25025
sS'CGCCAC'
p1943
I21204
sS'GAGTGA'
p1944
I28486
sS'GCCAGG'
p1945
I75562
sS'GCCAGA'
p1946
I39552
sS'GCCAGC'
p1947
I52488
sS'GCCCGT'
p1948
I12194
sS'CAATCC'
p1949
I16611
sS'TACCGA'
p1950
I3361
sS'TACCGC'
p1951
I5416
sS'TACTGA'
p1952
I16954
sS'CTTCAT'
p1953
I26213
sS'GCCCGC'
p1954
I44465
sS'GCCAGT'
p1955
I26805
sS'GCCCGA'
p1956
I16444
sS'GCCCGG'
p1957
I50718
sS'CTTCAC'
p1958
I28429
sS'CTTCAA'
p1959
I25173
sS'CTTCAG'
p1960
I41099
sS'TCCGAG'
p1961
I14828
sS'TCCGAA'
p1962
I7313
sS'TCCGAC'
p1963
I6944
sS'AATTCA'
p1964
I27136
sS'TATTAG'
p1965
I11291
sS'AATTCC'
p1966
I29089
sS'AATTCG'
p1967
I4933
sS'TCCGAT'
p1968
I4505
sS'NNNGAT'
p1969
I1
sS'TAGCGG'
p1970
I6389
sS'TAGCGA'
p1971
I3994
sS'TAGCGC'
p1972
I5957
sS'GTCATC'
p1973
I15438
sS'GTCATA'
p1974
I8743
sS'GTCATG'
p1975
I15498
sS'AGCAGG'
p1976
I62714
sS'CCAGGT'
p1977
I45476
sS'TTGGAA'
p1978
I33420
sS'AGCAGC'
p1979
I61599
sS'AGCAGA'
p1980
I46462
sS'GTCATT'
p1981
I20013
sS'CCAGGG'
p1982
I77332
sS'AGCAGT'
p1983
I29717
sS'CCAGGA'
p1984
I68337
sS'CCAGGC'
p1985
I84461
sS'TTGGAT'
p1986
I17026
sS'ATAGAG'
p1987
I15450
sS'CATCTG'
p1988
I34727
sS'GATCGG'
p1989
I5350
sS'CATCTA'
p1990
I14943
sS'GATCGA'
p1991
I3392
sS'CATCTC'
p1992
I33345
sS'ACGGTG'
p1993
I10663
sS'ACAAAA'
p1994
I48999
sS'GGATGG'
p1995
I35728
sS'CAAGCC'
p1996
I31542
sS'CATCTT'
p1997
I27869
sS'CAAGCA'
p1998
I28188
sS'CAAGCG'
p1999
I11310
sS'GTCTTA'
p2000
I12744
sS'GTTCTT'
p2001
I25193
sS'ACATGA'
p2002
I17716
sS'CGTAAT'
p2003
I3066
sS'ACATGC'
p2004
I18465
sS'TCTTGA'
p2005
I23341
sS'ACATGG'
p2006
I22875
sS'CCCGCT'
p2007
I27315
sS'GTAAAC'
p2008
I14507
sS'TGGCGG'
p2009
I25627
sS'CGTAAG'
p2010
I3998
sS'GTTCTG'
p2011
I29126
sS'ACATGT'
p2012
I17288
sS'CGTAAC'
p2013
I2954
sS'GTTCTC'
p2014
I26281
sS'CCCGCG'
p2015
I38089
sS'ACGGAA'
p2016
I8560
sS'CTCGTT'
p2017
I7298
sS'CCCGCC'
p2018
I75293
sS'AGACGC'
p2019
I13091
sS'AGGGAA'
p2020
I59890
sS'CCCTTT'
p2021
I46061
sS'TGTTGT'
p2022
I23704
sS'GTTGTT'
p2023
I20996
sS'ATTAGC'
p2024
I15561
sS'ATCCTT'
p2025
I23243
sS'TTGTCG'
p2026
I4692
sS'TTGTCC'
p2027
I22047
sS'TTGTCA'
p2028
I22010
sS'ATCCTC'
p2029
I27153
sS'GTTGTA'
p2030
I10739
sS'ATCCTA'
p2031
I14204
sS'GTTGTC'
p2032
I13362
sS'ATCCTG'
p2033
I31363
sS'GTTGTG'
p2034
I18006
sS'TTGTCT'
p2035
I28060
sS'ACCTCA'
p2036
I29626
sS'TGACTA'
p2037
I12182
sS'TGGGCC'
p2038
I45584
sS'TGACTC'
p2039
I25484
sS'TGGGCA'
p2040
I44342
sS'TGGGCG'
p2041
I27833
sS'TGACTG'
p2042
I26959
sS'AAGCCG'
p2043
I14858
sS'AAGCCC'
p2044
I38352
sS'AAGCCA'
p2045
I39406
sS'CAAAAT'
p2046
I32357
sS'TGACTT'
p2047
I26813
sS'TGGGCT'
p2048
I49205
sS'CAAAAC'
p2049
I31681
sS'CAAAAA'
p2050
I45949
sS'AAGCCT'
p2051
I34748
sS'CAAAAG'
p2052
I35838
sS'TGATTT'
p2053
I31130
sS'TCAATG'
p2054
I15262
sS'CCCTTA'
p2055
I18334
sS'TCAATC'
p2056
I12192
sS'TCAATA'
p2057
I13328
sS'CAGTTC'
p2058
I27247
sS'GACCCG'
p2059
I17074
sS'GACCCA'
p2060
I27924
sS'GACCCC'
p2061
I37262
sS'CTCTGT'
p2062
I49170
sS'TCAATT'
p2063
I16730
sS'GGCCAG'
p2064
I64610
sS'CTCTGC'
p2065
I66112
sS'GACCCT'
p2066
I29413
sS'CTCTGA'
p2067
I44412
sS'ACAATC'
p2068
I12946
sS'CTCTGG'
p2069
I61748
sS'CAGTTT'
p2070
I34530
sS'GCGAAG'
p2071
I11819
sS'ACGTTC'
p2072
I6336
sS'TGCTGG'
p2073
I59219
sS'CGAGGT'
p2074
I12534
sS'TGCTGA'
p2075
I38388
sS'CCCTTG'
p2076
I34253
sS'GCGAAA'
p2077
I7143
sS'TAGGGA'
p2078
I23711
sS'GCTGGT'
p2079
I35355
sS'GTGATT'
p2080
I20378
sS'CTACTA'
p2081
I10702
sS'TGCTGT'
p2082
I39645
sS'AGCTGA'
p2083
I38796
sS'TAATGG'
p2084
I14612
sS'TCGCTA'
p2085
I3994
sS'ATGCGG'
p2086
I8593
sS'GTGATG'
p2087
I21694
sS'GCTGGG'
p2088
I94993
sS'GTGATC'
p2089
I16378
sS'GCTGGC'
p2090
I51802
sS'GTGATA'
p2091
I10832
sS'GCTGGA'
p2092
I54050
sS'TGATAA'
p2093
I15680
sS'TGATAC'
p2094
I9068
sS'TGATAG'
p2095
I11298
sS'CTTGTT'
p2096
I26448
sS'GACGGT'
p2097
I6824
sS'GCTAGG'
p2098
I19948
sS'GCTAGA'
p2099
I15376
sS'ATGAAT'
p2100
I23210
sS'GCTAGC'
p2101
I12158
sS'AAGGGT'
p2102
I23399
sS'TGATAT'
p2103
I11222
sS'GTAGTG'
p2104
I11640
sS'TCTTGG'
p2105
I33156
sS'ATGAAC'
p2106
I14598
sS'GACGGG'
p2107
I17250
sS'ATGAAA'
p2108
I33178
sS'GACGGA'
p2109
I10691
sS'ATGAAG'
p2110
I26217
sS'GACGGC'
p2111
I13328
sS'CTTGTC'
p2112
I22636
sS'GCACTT'
p2113
I26557
sS'CTACTT'
p2114
I17937
sS'NNNGAA'
p2115
I2
sS'GNCCGC'
p2116
I1
sS'CCATAG'
p2117
I12945
sS'GGTGAA'
p2118
I25963
sS'GGTGAC'
p2119
I24835
sS'GCGTCT'
p2120
I13115
sS'GACTGT'
p2121
I19545
sS'GGTGAG'
p2122
I41283
sS'GGAATG'
p2123
I36322
sS'CGTCCT'
p2124
I15063
sS'GGCTAA'
p2125
I16717
sS'GGAATC'
p2126
I22239
sS'GGAATA'
p2127
I16772
sS'GCGTCA'
p2128
I7934
sS'GCGTCC'
p2129
I19172
sS'GGTGAT'
p2130
I19443
sS'GCGTCG'
p2131
I7277
sS'CGTCCG'
p2132
I8654
sS'GGAATT'
p2133
I28979
sS'CGTCCC'
p2134
I21309
sS'CGTCCA'
p2135
I10081
sS'TTTCGA'
p2136
I5024
sS'CCGTAT'
p2137
I3301
sS'GAAGTC'
p2138
I22869
sS'GAAGTA'
p2139
I16098
sS'GAAGTG'
p2140
I31715
sS'GCCGTA'
p2141
I4099
sS'CCGTAC'
p2142
I3293
sS'CCGTAA'
p2143
I4103
sS'CCGTAG'
p2144
I5595
sS'GCACTA'
p2145
I10743
sS'GCCGTT'
p2146
I7741
sS'GAAGTT'
p2147
I23891
sS'GGCGCG'
p2148
I37863
sS'ATGCCC'
p2149
I22743
sS'TTAGTT'
p2150
I16581
sS'ATGCCA'
p2151
I23817
sS'GGCGCC'
p2152
I43689
sS'ATGCCG'
p2153
I7099
sS'GGCGCA'
p2154
I20620
sS'TATTAC'
p2155
I10322
sS'ACTATG'
p2156
I10778
sS'CCATAT'
p2157
I11281
sS'TTTAAG'
p2158
I27522
sS'ACTATC'
p2159
I7747
sS'TTTAAA'
p2160
I60390
sS'ACTATA'
p2161
I8377
sS'TTTAAC'
p2162
I20601
sS'TATTAT'
p2163
I18451
sS'TTAGTG'
p2164
I14626
sS'GGCGCT'
p2165
I27179
sS'TTAGTC'
p2166
I10908
sS'ATGCCT'
p2167
I26634
sS'TTAGTA'
p2168
I12361
sS'TTTAAT'
p2169
I30881
sS'ACTATT'
p2170
I13416
sS'GGGCAT'
p2171
I22766
sS'TTTCCG'
p2172
I12146
sS'TTTCCA'
p2173
I47505
sS'TTTCCC'
p2174
I57084
sS'GTACGT'
p2175
I3023
sS'GTTTGT'
p2176
I26084
sS'TTTCCT'
p2177
I68516
sS'GGGCAG'
p2178
I78837
sS'CCTGGA'
p2179
I61273
sS'GGGCAA'
p2180
I29657
sS'GGGCAC'
p2181
I35202
sS'GTTTGC'
p2182
I22446
sS'GTTTGA'
p2183
I20603
sS'GTTTGG'
p2184
I27139
sS'GTACGA'
p2185
I2181
sS'CCGCTC'
p2186
I26789
sS'GCATGT'
p2187
I18389
sS'CCGCTA'
p2188
I6369
sS'CCGCTG'
p2189
I29364
sS'GCGCGG'
p2190
I40911
sS'GCGCGC'
p2191
I39119
sS'GCGCGA'
p2192
I11024
sS'GCATGG'
p2193
I23292
sS'TGGATC'
p2194
I16863
sS'GCATGC'
p2195
I19581
sS'CCGCTT'
p2196
I14461
sS'TGACCT'
p2197
I29644
sS'GTCGAC'
p2198
I2932
sS'GTCGAA'
p2199
I3423
sS'GTCGAG'
p2200
I6116
sS'AGACAT'
p2201
I20714
sS'GAGCTA'
p2202
I16970
sS'TGCGCT'
p2203
I13861
sS'GAGCTC'
p2204
I37490
sS'ATTGAT'
p2205
I12808
sS'GAGCTG'
p2206
I58746
sS'AGTACA'
p2207
I13242
sS'AAACGC'
p2208
I10034
sS'GTAACA'
p2209
I14757
sS'CACGCG'
p2210
I11050
sS'AAACGG'
p2211
I10264
sS'TGTCCC'
p2212
I38345
sS'TGCGCG'
p2213
I15211
sS'TGTCCA'
p2214
I24195
sS'GAGCTT'
p2215
I26981
sS'TGCGCC'
p2216
I20514
sS'ATTGAG'
p2217
I16621
sS'TGCGCA'
p2218
I12155
sS'GCGCAG'
p2219
I30030
sS'AAACGT'
p2220
I8859
sS'ATTTCG'
p2221
I5274
sS'ATTTCA'
p2222
I34835
sS'ATTTCC'
p2223
I36911
sS'ATCAGT'
p2224
I16244
sS'ATCGGG'
p2225
I6633
sS'CATAGT'
p2226
I10714
sS'ATCGGC'
p2227
I5214
sS'ATCGGA'
p2228
I4269
sS'ATTTCT'
p2229
I41494
sS'CGATCA'
p2230
I3823
sS'TGGGTC'
p2231
I27657
sS'TGGGTA'
p2232
I17671
sS'CATAGG'
p2233
I12807
sS'ATCGGT'
p2234
I3378
sS'CATGAC'
p2235
I15796
sS'ATCAGA'
p2236
I23665
sS'CATAGA'
p2237
I12793
sS'ACGGGT'
p2238
I6497
sS'GTCTGA'
p2239
I22861
sS'GATTCT'
p2240
I24037
sS'CTTTTG'
p2241
I35999
sS'TACTAG'
p2242
I8089
sS'CTTTTC'
p2243
I50847
sS'CAGCAA'
p2244
I37131
sS'CTTTTA'
p2245
I31925
sS'GATTCC'
p2246
I22304
sS'ACGGGG'
p2247
I18158
sS'NNNNCT'
p2248
I1
sS'ACGGGA'
p2249
I11650
sS'ACGGGC'
p2250
I12448
sS'TACTAT'
p2251
I9219
sS'CTTTTT'
p2252
I55954
sS'ACCAAC'
p2253
I15874
sS'CGTAGA'
p2254
I4209
sS'TCACGA'
p2255
I5808
sS'TCACGC'
p2256
I11649
sS'CGATTG'
p2257
I4012
sS'TCACGG'
p2258
I10345
sS'ACCGAT'
p2259
I3303
sS'TCACGT'
p2260
I8829
sS'CGGTGC'
p2261
I16303
sS'TTCCAC'
p2262
I30887
sS'TTCCAA'
p2263
I33166
sS'TTCCAG'
p2264
I52307
sS'ACCCTT'
p2265
I23565
sS'TGAAGT'
p2266
I24886
sS'ATGCTT'
p2267
I22005
sS'AGGCAC'
p2268
I33319
sS'TTCCAT'
p2269
I29453
sS'ACCCTA'
p2270
I14631
sS'TGAAGA'
p2271
I33357
sS'TGAAGG'
p2272
I34981
sS'ACCCTG'
p2273
I41158
sS'CTGACT'
p2274
I30535
sS'CCCCTT'
p2275
I47335
sS'AGTTAT'
p2276
I13429
sS'ACATAT'
p2277
I14355
sS'CTGACG'
p2278
I9960
sS'CTGACC'
p2279
I32866
sS'CTGACA'
p2280
I29428
sS'AGTTAA'
p2281
I19595
sS'CCCCTG'
p2282
I61858
sS'AGTTAC'
p2283
I14151
sS'CCCCTC'
p2284
I82289
sS'AGTTAG'
p2285
I14692
sS'CCCCTA'
p2286
I23955
sS'ACACAG'
p2287
I42349
sS'ACACAA'
p2288
I26647
sS'ACACAC'
p2289
I60565
sS'GAGGGG'
p2290
I81491
sS'CTGCAG'
p2291
I81595
sS'CATGGG'
p2292
I26329
sS'CTGCAC'
p2293
I39078
sS'CATGGC'
p2294
I27248
sS'AATGTC'
p2295
I20056
sS'ACACAT'
p2296
I22920
sS'AATGTA'
p2297
I19761
sS'AATGTG'
p2298
I27825
sS'CATGGT'
p2299
I19992
sS'CTGCAT'
p2300
I31819
sS'GCACAG'
p2301
I42722
sS'CCACAG'
p2302
I52615
sS'CGAGAT'
p2303
I7580
sS'ATTACT'
p2304
I14948
sS'CACAAT'
p2305
I18462
sS'ACATTG'
p2306
I15905
sS'GTACCA'
p2307
I9780
sS'ACATTA'
p2308
I15227
sS'ACATTC'
p2309
I25341
sS'ATTACA'
p2310
I23217
sS'ATGCTC'
p2311
I18897
sS'GTTCGC'
p2312
I5798
sS'CGAGAC'
p2313
I11264
sS'CGAGAA'
p2314
I10675
sS'AAGTCT'
p2315
I23486
sS'GCTATT'
p2316
I15021
sS'GGACAT'
p2317
I16805
sS'GCTATA'
p2318
I7906
sS'GCTATC'
p2319
I8344
sS'AAGTCG'
p2320
I6689
sS'AAGTCA'
p2321
I26600
sS'GCTATG'
p2322
I12767
sS'CCACTC'
p2323
I35337
sS'GGACAG'
p2324
I42288
sS'GGACAC'
p2325
I26180
sS'GGACAA'
p2326
I22057
sS'CTAATT'
p2327
I20069
sS'AGGGTT'
p2328
I26030
sS'GAGGCG'
p2329
I37076
sS'TGTTGG'
p2330
I25583
sS'GAGGCA'
p2331
I49924
sS'TGTTGA'
p2332
I20722
sS'GAGGCC'
p2333
I59734
sS'TGTTGC'
p2334
I22796
sS'ACTCGA'
p2335
I5227
sS'TAAAAT'
p2336
I39649
sS'ACTCGC'
p2337
I9169
sS'AAGCTT'
p2338
I25081
sS'TGTATA'
p2339
I12072
sS'AGCGCA'
p2340
I13862
sS'GAGGCT'
p2341
I54863
sS'AGCGCC'
p2342
I27082
sS'AGGGTG'
p2343
I41417
sS'AGGGTA'
p2344
I16642
sS'AGCGCG'
p2345
I18557
sS'AGGGTC'
p2346
I29537
sS'TAAAAG'
p2347
I32083
sS'ACTCGT'
p2348
I4718
sS'TAAAAC'
p2349
I26474
sS'TAAAAA'
p2350
I52329
sS'CTACTC'
p2351
I17238
sS'AGCTGC'
p2352
I53442
sS'ACGTTA'
p2353
I4153
sS'TAGGGC'
p2354
I17504
sS'ACGTTG'
p2355
I5896
sS'AGCTGG'
p2356
I61073
sS'TAGGGG'
p2357
I23731
sS'TAAATG'
p2358
I27810
sS'AGTGCG'
p2359
I10074
sS'AGTGCA'
p2360
I26359
sS'AGAGTT'
p2361
I25499
sS'AGTGCC'
p2362
I27739
sS'CCAAAA'
p2363
I32321
sS'TAGGGT'
p2364
I14729
sS'GCATAG'
p2365
I11073
sS'AGCTGT'
p2366
I36443
sS'ACGTTT'
p2367
I8957
sS'AGTGCT'
p2368
I31549
sS'AGAGTC'
p2369
I24646
sS'AGAGTA'
p2370
I16297
sS'AGAGTG'
p2371
I31258
sS'TTCGTA'
p2372
I3309
sS'GTTAAA'
p2373
I20737
sS'CCTGGC'
p2374
I76128
sS'GTTAAC'
p2375
I11031
sS'GTCTGT'
p2376
I26852
sS'CCTGGG'
p2377
I99555
sS'GTTAAG'
p2378
I15113
sS'TAACCA'
p2379
I15526
sS'CTAATC'
p2380
I11683
sS'GTCTGG'
p2381
I33888
sS'GTCTGC'
p2382
I27343
sS'GTTAAT'
p2383
I14186
sS'CCTGGT'
p2384
I39422
sS'CCGGTC'
p2385
I11999
sS'GGAAGG'
p2386
I75031
sS'CCACAT'
p2387
I26356
sS'GGAAGC'
p2388
I49120
sS'CTAATG'
p2389
I14933
sS'GGAAGA'
p2390
I52818
sS'GCGTTA'
p2391
I3794
sS'TCCTCT'
p2392
I58336
sS'GCGTTC'
p2393
I8972
sS'CAATGC'
p2394
I16625
sS'GCGTTG'
p2395
I7562
sS'CAATGG'
p2396
I19878
sS'ATGCTG'
p2397
I30848
sS'GGAAGT'
p2398
I33858
sS'CCACAC'
p2399
I36738
sS'ATGCTA'
p2400
I14058
sS'AAACCA'
p2401
I33399
sS'TCCTCG'
p2402
I17835
sS'TGTATG'
p2403
I14896
sS'TCCTCA'
p2404
I42701
sS'GCGTTT'
p2405
I10265
sS'TCCTCC'
p2406
I80874
sS'TGTATC'
p2407
I11924
sS'GTGAAT'
p2408
I19542
sS'TAACCG'
p2409
I3900
sS'TCATAG'
p2410
I12214
sS'TTCGTG'
p2411
I7117
sS'TCATAA'
p2412
I13825
sS'TAACCC'
p2413
I13948
sS'CGTTAA'
p2414
I4271
sS'TTCGTC'
p2415
I5395
sS'ACCGCT'
p2416
I9465
sS'TCGCGA'
p2417
I3900
sS'TGCATG'
p2418
I23684
sS'TTCGTT'
p2419
I6835
sS'TCATAT'
p2420
I12137
sS'TAACCT'
p2421
I15885
sS'GTGAAG'
p2422
I28228
sS'GTGAAA'
p2423
I30504
sS'GTGAAC'
p2424
I15592
sS'CAATAG'
p2425
I12619
sS'TGCATA'
p2426
I16253
sS'ACCGCG'
p2427
I12256
sS'ACCGCA'
p2428
I10519
sS'CCCTAT'
p2429
I13900
sS'ACCGCC'
p2430
I17900
sS'AGTTCC'
p2431
I26238
sS'CCGCCT'
p2432
I39131
sS'AGGCTT'
p2433
I34894
sS'CCTTCT'
p2434
I51580
sS'GTTGCA'
p2435
I18014
sS'AACGAA'
p2436
I6881
sS'GTTGCC'
p2437
I20785
sS'GTGCCG'
p2438
I12739
sS'GTGCCA'
p2439
I26026
sS'GTTGCG'
p2440
I5863
sS'GTGCCC'
p2441
I35038
sS'CCGCCG'
p2442
I45561
sS'AGGCTA'
p2443
I17560
sS'CCTTCC'
p2444
I74643
sS'AGGCTC'
p2445
I41830
sS'CCGCCC'
p2446
I71446
sS'AACGAC'
p2447
I4678
sS'CCGCCA'
p2448
I25798
sS'AGGCTG'
p2449
I75204
sS'GTGCCT'
p2450
I33285
sS'GGCGAA'
p2451
I9581
sS'TCCAAA'
p2452
I32871
sS'GTTGCT'
p2453
I22455
sS'NNNGCG'
p2454
I1
sS'GGATAT'
p2455
I10805
sS'TCGGGT'
p2456
I9084
sS'ATTTGA'
p2457
I25133
sS'GCAGTT'
p2458
I25450
sS'GAAGCT'
p2459
I34091
sS'TCGGGC'
p2460
I16481
sS'TCGGGA'
p2461
I14085
sS'NNNNNG'
p2462
I3
sS'TCGGGG'
p2463
I22955
sS'GGATAG'
p2464
I11673
sS'GAAGCG'
p2465
I16026
sS'GCAGTG'
p2466
I45481
sS'GAAGCC'
p2467
I41808
sS'GCAGTA'
p2468
I16222
sS'GAAGCA'
p2469
I36393
sS'GCAGTC'
p2470
I24019
sS'GAGAGC'
p2471
I39976
sS'GAGAGA'
p2472
I64995
sS'GAGAGG'
p2473
I68212
sS'CGCCCA'
p2474
I27526
sS'AGTTTG'
p2475
I26574
sS'ACGCAG'
p2476
I14596
sS'NNNNNN'
p2477
I438
sS'GCATTC'
p2478
I23554
sS'ACGCAA'
p2479
I5452
sS'CTCGCA'
p2480
I11203
sS'CTCGCC'
p2481
I24803
sS'CTCGCG'
p2482
I13315
sS'AAACAT'
p2483
I28709
sS'CTATAT'
p2484
I9049
sS'AACTGA'
p2485
I26722
sS'GCCGGG'
p2486
I54903
sS'AGCATC'
p2487
I23223
sS'GCCGGC'
p2488
I37917
sS'CATGTT'
p2489
I20884
sS'GCCGGA'
p2490
I18539
sS'AGATCT'
p2491
I20450
sS'ACGTAG'
p2492
I4513
sS'CGAGCG'
p2493
I13009
sS'GCCACT'
p2494
I34468
sS'CATGTA'
p2495
I13543
sS'CATGTC'
p2496
I16560
sS'GCCGGT'
p2497
I12736
sS'CATGTG'
p2498
I25300
sS'AGTTCG'
p2499
I6335
sS'GGCCTG'
p2500
I64406
sS'GGCCTC'
p2501
I59399
sS'NNGCGC'
p2502
I1
sS'GGCCTA'
p2503
I15209
sS'TTTGTT'
p2504
I52061
sS'AATCGG'
p2505
I5382
sS'AATCGC'
p2506
I6175
sS'AATCGA'
p2507
I4005
sS'TTCCCA'
p2508
I54069
sS'GGCCTT'
p2509
I34623
sS'TCACTA'
p2510
I14533
sS'TCACTC'
p2511
I29179
sS'AATCGT'
p2512
I3966
sS'AGCCGA'
p2513
I13990
sS'GAGCGT'
p2514
I9586
sS'AGCCGC'
p2515
I28158
sS'TAATTG'
p2516
I15653
sS'AAAAAT'
p2517
I57851
sS'AGCCGG'
p2518
I28459
sS'GTTTTT'
p2519
I40840
sS'TGGTGA'
p2520
I30045
sS'GGGCTC'
p2521
I54624
sS'TGGTGC'
p2522
I27521
sS'GATGGC'
p2523
I23520
sS'GGGCTG'
p2524
I81714
sS'TGGTGG'
p2525
I46166
sS'CGCCCC'
p2526
I64083
sS'AAAAAA'
p2527
I165901
sS'GTTTTA'
p2528
I26182
sS'GAGCGA'
p2529
I13973
sS'AGCCGT'
p2530
I9832
sS'AAAAAG'
p2531
I56311
sS'TGACAG'
p2532
I31096
sS'CCAAGG'
p2533
I43080
sS'ACGTAT'
p2534
I3343
sS'TCTCAG'
p2535
I46586
sS'TCTCAA'
p2536
I30359
sS'TGGTGT'
p2537
I24643
sS'TCTCAC'
p2538
I30732
sS'ATTCGT'
p2539
I4276
sS'AGAACT'
p2540
I27486
sS'GCATTA'
p2541
I13054
sS'CCTTCG'
p2542
I12601
sS'TACCAT'
p2543
I11956
sS'AGATAG'
p2544
I14808
sS'ACCCGG'
p2545
I21230
sS'ACCCGA'
p2546
I9106
sS'ATGTCT'
p2547
I20859
sS'ACCCGC'
p2548
I18948
sS'ACCAGT'
p2549
I17592
sS'TACCAC'
p2550
I13399
sS'AGAACG'
p2551
I9088
sS'TCCCGA'
p2552
I14197
sS'AGAACA'
p2553
I32432
sS'TACCAG'
p2554
I17162
sS'AGAACC'
p2555
I24946
sS'ACCAGC'
p2556
I35237
sS'CACTGG'
p2557
I38427
sS'CCTATG'
p2558
I13091
sS'ATCACG'
p2559
I6434
sS'ACCAGG'
p2560
I39104
sS'CACTGC'
p2561
I45857
sS'CCTATC'
p2562
I12081
sS'CAGCGT'
p2563
I14494
sS'TAGGTT'
p2564
I13131
sS'GTTTAC'
p2565
I14667
sS'AATTAT'
p2566
I20582
sS'AGCCAC'
p2567
I43263
sS'GTAACC'
p2568
I10693
sS'CTGTTC'
p2569
I29187
sS'CGGGTT'
p2570
I11636
sS'CTGTTA'
p2571
I19182
sS'AATTAC'
p2572
I16976
sS'TACATG'
p2573
I13506
sS'TAGGTG'
p2574
I17564
sS'AATTAG'
p2575
I20008
sS'TAGGTC'
p2576
I11035
sS'CGGGTC'
p2577
I17081
sS'CTGTTT'
p2578
I42704
sS'CGGGTA'
p2579
I6279
sS'CGGGTG'
p2580
I20980
sS'CTTCGG'
p2581
I12822
sS'CACACT'
p2582
I29300
sS'CATTAC'
p2583
I12279
sS'GCAATG'
p2584
I18881
sS'TTAGGG'
p2585
I20897
sS'ATATAT'
p2586
I20313
sS'AGCAAC'
p2587
I22543
sS'TTAGGC'
p2588
I14514
sS'AAAGCT'
p2589
I33761
sS'TTAGGA'
p2590
I22295
sS'AAAGCA'
p2591
I45130
sS'AAAGCC'
p2592
I37822
sS'TTAGGT'
p2593
I14137
sS'ATATAA'
p2594
I15998
sS'AGCAAT'
p2595
I20686
sS'AAAGCG'
p2596
I12058
sS'ATAGCA'
p2597
I15421
sS'TACTTA'
p2598
I13295
sS'TACTTG'
p2599
I15085
sS'ATAGCG'
p2600
I3675
sS'CAGCGC'
p2601
I31855
sS'ATAGCT'
p2602
I14127
sS'TACTTT'
p2603
I23117
sS'CTTCGA'
p2604
I6350
sS'CGAGTT'
p2605
I7254
sS'TCCAAT'
p2606
I16081
sS'CGTACT'
p2607
I3033
sS'CAGCGG'
p2608
I29541
sS'ACATAC'
p2609
I12562
sS'CTTAAG'
p2610
I18305
sS'ACATAA'
p2611
I16747
sS'CTTAAA'
p2612
I27571
sS'ACATAG'
p2613
I12987
sS'CTTAAC'
p2614
I14979
sS'TCCAAG'
p2615
I31678
sS'CGAGTG'
p2616
I10308
sS'TTGTTA'
p2617
I21037
sS'CGAGTA'
p2618
I4504
sS'CGAGTC'
p2619
I9474
sS'AGGGGA'
p2620
I61268
sS'CTTAAT'
p2621
I16551
sS'AGGGGC'
p2622
I60740
sS'TATGCA'
p2623
I16520
sS'AGGGGG'
p2624
I57523
sS'CGTTTG'
p2625
I8745
sS'CGACTT'
p2626
I6831
sS'TGAATT'
p2627
I26842
sS'TTGTAA'
p2628
I21807
sS'CACAAA'
p2629
I34610
sS'TTGTAC'
p2630
I9817
sS'GTACCT'
p2631
I12531
sS'TTGTAG'
p2632
I16251
sS'TGAATC'
p2633
I17945
sS'ACAACA'
p2634
I24020
sS'TGAATA'
p2635
I19942
sS'CGACTC'
p2636
I9088
sS'TGAATG'
p2637
I28761
sS'AAGTAT'
p2638
I14317
sS'CGACTG'
p2639
I8325
sS'TTGTAT'
p2640
I17001
sS'ATCGTG'
p2641
I5331
sS'GCTTCG'
p2642
I10902
sS'GCTTCA'
p2643
I27816
sS'GCTTCC'
p2644
I49050
sS'TGGGAG'
p2645
I70038
sS'TGGGAA'
p2646
I53629
sS'TGGGAC'
p2647
I31730
sS'GCTTCT'
p2648
I40357
sS'ATCGTT'
p2649
I3909
sS'GATTGA'
p2650
I12105
sS'ATCGTA'
p2651
I2332
sS'TGGGAT'
p2652
I32567
sS'CTAGCC'
p2653
I17144
sS'GACCAT'
p2654
I12459
sS'CTAGCG'
p2655
I6490
sS'CGGTAG'
p2656
I5774
sS'ACTTAG'
p2657
I14639
sS'ACTTAA'
p2658
I18914
sS'CGGTAC'
p2659
I3702
sS'ACTTAC'
p2660
I12860
sS'CGGTAA'
p2661
I4772
sS'GACCAG'
p2662
I30269
sS'GACCAC'
p2663
I20197
sS'CTAGCT'
p2664
I17428
sS'TTCGAG'
p2665
I8014
sS'ACTTAT'
p2666
I10889
sS'CGGTAT'
p2667
I2872
sS'TACACA'
p2668
I19781
sS'TACACG'
p2669
I4634
sS'CGTTTA'
p2670
I5680
sS'GCGAGA'
p2671
I13688
sS'CGCCCG'
p2672
I36141
sS'GCGAGC'
p2673
I18280
sS'GGCCGT'
p2674
I13625
sS'GCGAGG'
p2675
I26879
sS'TTAAGA'
p2676
I23412
sS'CAGCCG'
p2677
I29967
sS'CAGCCA'
p2678
I58140
sS'CAGCCC'
p2679
I81869
sS'TCCGGG'
p2680
I25977
sS'GCGAGT'
p2681
I9041
sS'CAGCCT'
p2682
I75551
sS'GAACTC'
p2683
I23051
sS'GAACTA'
p2684
I12257
sS'GGACTT'
p2685
I23082
sS'CACCTA'
p2686
I17720
sS'AACTAT'
p2687
I11932
sS'CACCTC'
p2688
I46940
sS'CACCTG'
p2689
I53894
sS'TGATCC'
p2690
I18015
sS'AACACT'
p2691
I22910
sS'TGATCA'
p2692
I15353
sS'GCTCCA'
p2693
I42558
sS'ATTTAA'
p2694
I32829
sS'TAGATA'
p2695
I10730
sS'NAGAAA'
p2696
I1
sS'GCATTG'
p2697
I16622
sS'GGACTG'
p2698
I31494
sS'CACCTT'
p2699
I31402
sS'GGACTA'
p2700
I11772
sS'AACTAA'
p2701
I16811
sS'AACGAT'
p2702
I3855
sS'AACACG'
p2703
I8496
sS'AACACA'
p2704
I32673
sS'AACACC'
p2705
I21497
sS'TGATCT'
p2706
I20253
sS'CCAGCA'
p2707
I59256
sS'ACGCAC'
p2708
I9644
sS'CAACAG'
p2709
I28303
sS'GACAGT'
p2710
I19942
sS'CAACAA'
p2711
I24601
sS'CCAGCC'
p2712
I87871
sS'CAACAC'
p2713
I20905
sS'GCTGAT'
p2714
I21483
sS'CTATAA'
p2715
I12047
sS'GACAGG'
p2716
I39247
sS'CAACAT'
p2717
I19470
sS'GACAGC'
p2718
I31908
sS'GACAGA'
p2719
I38242
sS'GTATTA'
p2720
I9936
sS'GTATTC'
p2721
I11088
sS'GTAAGT'
p2722
I12652
sS'ATATCA'
p2723
I11587
sS'GTATTG'
p2724
I9556
sS'GGTGGC'
p2725
I48671
sS'TCCCCT'
p2726
I61845
sS'GGTGGA'
p2727
I39134
sS'CGTCAT'
p2728
I5186
sS'GGTGGG'
p2729
I75677
sS'ATCCCT'
p2730
I27690
sS'AGAGGC'
p2731
I53624
sS'GTAAGA'
p2732
I15360
sS'AGAGGA'
p2733
I58026
sS'GTAAGC'
p2734
I10906
sS'AGAGGG'
p2735
I64877
sS'GTAAGG'
p2736
I15085
sS'TCCCCG'
p2737
I36484
sS'CGTCAC'
p2738
I8659
sS'TCCCCC'
p2739
I57282
sS'GGTGGT'
p2740
I30450
sS'CGTCAG'
p2741
I9877
sS'GTCGCG'
p2742
I7581
sS'GTCGCA'
p2743
I6082
sS'GTCGCC'
p2744
I14160
sS'TCGGTC'
p2745
I7244
sS'TCGGTA'
p2746
I3437
sS'GAGAGT'
p2747
I25334
sS'TCGGTG'
p2748
I10169
sS'GTCGCT'
p2749
I9180
sS'ACCCGT'
p2750
I6565
sS'GTAACT'
p2751
I14071
sS'CCGTCG'
p2752
I6915
sS'CCGTCA'
p2753
I8329
sS'TCGGTT'
p2754
I6352
sS'GGCTGT'
p2755
I41137
sS'CGCGTG'
p2756
I11050
sS'GCATTT'
p2757
I34159
sS'CGCGTC'
p2758
I11450
sS'CGCGTA'
p2759
I2457
sS'CCACTG'
p2760
I44700
sS'ATGCAA'
p2761
I24293
sS'TTTAGC'
p2762
I17487
sS'CGCGTT'
p2763
I5561
sS'GGCTGG'
p2764
I87163
sS'GGCTGA'
p2765
I45994
sS'GGCTGC'
p2766
I70047
sS'ATGCAT'
p2767
I18748
sS'TTTAGA'
p2768
I23961
sS'ATGACG'
p2769
I5267
sS'GGAGTT'
p2770
I29949
sS'ATGACA'
p2771
I21709
sS'ATGACC'
p2772
I14826
sS'CCTGAT'
p2773
I22345
sS'GGGCCT'
p2774
I52296
sS'ATGACT'
p2775
I18511
sS'GGAGTA'
p2776
I14906
sS'CTACGC'
p2777
I4977
sS'GGAGTC'
p2778
I29859
sS'GGAGTG'
p2779
I39207
sS'GGGCCG'
p2780
I43454
sS'GGGCCC'
p2781
I60823
sS'GGGCCA'
p2782
I45244
sS'GGCAAG'
p2783
I31912
sS'ACGAGT'
p2784
I4618
sS'TTCNNN'
p2785
I2
sS'AGGCCA'
p2786
I46272
sS'GCGCAC'
p2787
I16709
sS'AGGCCG'
p2788
I28176
sS'TGTCTC'
p2789
I37453
sS'ACGAGG'
p2790
I12208
sS'AGTATC'
p2791
I9864
sS'ACGAGC'
p2792
I6905
sS'ACGAGA'
p2793
I6984
sS'CTGATG'
p2794
I25961
sS'AGGCCT'
p2795
I46846
sS'ACATCT'
p2796
I22202
sS'GGGTTG'
p2797
I26277
sS'GACTAC'
p2798
I9394
sS'TGCGAT'
p2799
I5119
sS'CTCGGG'
p2800
I28127
sS'GGGTTC'
p2801
I24889
sS'TTTGAT'
p2802
I20993
sS'TGCAAT'
p2803
I19181
sS'ATTCGA'
p2804
I4156
sS'CTACGA'
p2805
I3771
sS'ATTGCT'
p2806
I20872
sS'GGGTTT'
p2807
I31420
sS'CTTACT'
p2808
I16984
sS'AGATCC'
p2809
I20051
sS'TGCGAG'
p2810
I11244
sS'AACGGC'
p2811
I7660
sS'ATCCAT'
p2812
I15863
sS'AACGGA'
p2813
I7588
sS'GACTAG'
p2814
I10994
sS'AACGGG'
p2815
I9488
sS'TTTGAC'
p2816
I17043
sS'TTTGAA'
p2817
I37098
sS'ATCATC'
p2818
I14685
sS'CGGGCT'
p2819
I27525
sS'TTCGCT'
p2820
I8486
sS'TGACGT'
p2821
I6915
sS'CTCGTC'
p2822
I9495
sS'CCCTGG'
p2823
I77669
sS'CCCTGA'
p2824
I44144
sS'CTCGTG'
p2825
I10188
sS'GATATT'
p2826
I13080
sS'CCCTGT'
p2827
I41535
sS'AAGCTC'
p2828
I27616
sS'GATATA'
p2829
I7802
sS'CTAAAA'
p2830
I28151
sS'GATATG'
p2831
I9471
sS'AAGCTG'
p2832
I40173
sS'TGACGC'
p2833
I7861
sS'TACTCT'
p2834
I16317
sS'CATCGT'
p2835
I5535
sS'CAGGGT'
p2836
I40894
sS'CCAGTC'
p2837
I30130
sS'GACACA'
p2838
I27506
sS'CCAGTG'
p2839
I38468
sS'TACTCG'
p2840
I4299
sS'CATCGA'
p2841
I4265
sS'CATCGC'
p2842
I8433
sS'TACTCC'
p2843
I14798
sS'NGAATT'
p2844
I2
sS'TACTCA'
p2845
I15896
sS'CATCGG'
p2846
I6288
sS'TGCNCC'
p2847
I1
sS'CAGGGG'
p2848
I62629
sS'CAGGGA'
p2849
I67295
sS'CAGGGC'
p2850
I69735
sS'AATCTG'
p2851
I24911
sS'CGGACT'
p2852
I8817
sS'GCCATT'
p2853
I22896
sS'AGTCGA'
p2854
I4172
sS'AATCTA'
p2855
I14087
sS'ATCCAA'
p2856
I17286
sS'TCACAC'
p2857
I26921
sS'CCCATA'
p2858
I13016
sS'TCACAA'
p2859
I23856
sS'TCACAG'
p2860
I39343
sS'GCCATA'
p2861
I10648
sS'CGGACG'
p2862
I8746
sS'GCCATC'
p2863
I23764
sS'CGGACA'
p2864
I9352
sS'CGGACC'
p2865
I12609
sS'GCCATG'
p2866
I26925
sS'CTTACC'
p2867
I15991
sS'TCACAT'
p2868
I23745
sS'TGAACC'
p2869
I18948
sS'CACGGA'
p2870
I12670
sS'ATTAAA'
p2871
I30922
sS'ATTAAG'
p2872
I16765
sS'CTTACA'
p2873
I17449
sS'TCACTT'
p2874
I30910
sS'ACTCCT'
p2875
I33713
sS'TCCACG'
p2876
I13419
sS'CGGCCA'
p2877
I22108
sS'ATTAAT'
p2878
I18256
sS'ATCATG'
p2879
I14315
sS'GAACCA'
p2880
I22007
sS'GGTATG'
p2881
I10616
sS'GGTATA'
p2882
I6936
sS'GGTATC'
p2883
I8682
sS'GAACCG'
p2884
I9085
sS'CAATGA'
p2885
I19485
sS'ACGAAT'
p2886
I4430
sS'GGTATT'
p2887
I13455
sS'CTGAAC'
p2888
I22825
sS'CTGAAG'
p2889
I41569
sS'NNNNGC'
p2890
I1
sS'CCCGAA'
p2891
I11557
sS'TAGGTA'
p2892
I10809
sS'CATTGC'
p2893
I18813
sS'CCCGGC'
p2894
I54934
sS'CATTGA'
p2895
I15329
sS'CTAGTT'
p2896
I13126
sS'CATTGG'
p2897
I16791
sS'TCAACT'
p2898
I16971
sS'ATGTTA'
p2899
I16324
sS'ACACCG'
p2900
I9420
sS'CTGCCA'
p2901
I50134
sS'CTGCCC'
p2902
I78918
sS'ACACCC'
p2903
I28829
sS'ACACCA'
p2904
I24569
sS'CTGCCG'
p2905
I27529
sS'CTAGTG'
p2906
I16143
sS'TCAACC'
p2907
I15321
sS'ATGTTC'
p2908
I15952
sS'CTAGTC'
p2909
I11036
sS'TCAACG'
p2910
I4691
sS'CTAGTA'
p2911
I8121
sS'CATTGT'
p2912
I20981
sS'TATGAC'
p2913
I8955
sS'ACACCT'
p2914
I26864
sS'CTGCCT'
p2915
I75215
sS'TATCAC'
p2916
I10958
sS'CCTCGT'
p2917
I12003
sS'TTGTGT'
p2918
I26002
sS'AGACTG'
p2919
I30430
sS'TCACTG'
p2920
I38076
sS'AGACTA'
p2921
I12763
sS'CCTCGG'
p2922
I31219
sS'CCTCGC'
p2923
I27000
sS'CCCGAC'
p2924
I15885
sS'CCTCGA'
p2925
I10639
sS'CGAGGA'
p2926
I17836
sS'AGACTT'
p2927
I23480
sS'CGAGGG'
p2928
I24733
sS'CACCGT'
p2929
I10777
sS'ACTTTA'
p2930
I19943
sS'ACTTTG'
p2931
I29344
sS'GACCTG'
p2932
I31291
sS'GTAATG'
p2933
I12356
sS'GACCTC'
p2934
I27538
sS'CACCGG'
p2935
I15855
sS'ACGCTG'
p2936
I14526
sS'CACCGA'
p2937
I10372
sS'CACCGC'
p2938
I24117
sS'GACCTT'
p2939
I20918
sS'GGACGC'
p2940
I19117
sS'GGACGG'
p2941
I18160
sS'GCATAA'
p2942
I12219
sS'CACAGC'
p2943
I51651
sS'CTTATC'
p2944
I12929
sS'CACAGA'
p2945
I45397
sS'CTTATA'
p2946
I10324
sS'CACAGG'
p2947
I49462
sS'CTTATG'
p2948
I11838
sS'ACTCAT'
p2949
I16611
sS'GAGGAG'
p2950
I81730
sS'GACGTA'
p2951
I2934
sS'CGTATC'
p2952
I2935
sS'GACGTC'
p2953
I7740
sS'TAAACT'
p2954
I20477
sS'GAGGAA'
p2955
I59168
sS'AGCGAT'
p2956
I7272
sS'TTAACA'
p2957
I22345
sS'ACTCAC'
p2958
I24418
sS'TTAACC'
p2959
I14789
sS'TATGAT'
p2960
I10046
sS'ACTCAG'
p2961
I33363
sS'CTTATT'
p2962
I19915
sS'CACAGT'
p2963
I30566
sS'AGCGAC'
p2964
I9181
sS'TAAACA'
p2965
I26920
sS'AGCGAA'
p2966
I8412
sS'GAGGAT'
p2967
I26471
sS'GACGTT'
p2968
I5820
sS'TCTAAA'
p2969
I24021
sS'TAAACG'
p2970
I5661
sS'CTGTGG'
p2971
I52284
sS'GTATGT'
p2972
I12938
sS'AGTTCA'
p2973
I22948
sS'CTGTGC'
p2974
I41843
sS'CTGTGA'
p2975
I39429
sS'CGGGGT'
p2976
I23482
sS'TAGGAC'
p2977
I12337
sS'GCAAAG'
p2978
I35562
sS'TAGGAA'
p2979
I27347
sS'GCAAAA'
p2980
I30847
sS'TAGGAG'
p2981
I24894
sS'GCAAAC'
p2982
I22334
sS'CGGGGC'
p2983
I57024
sS'CGGGGA'
p2984
I36747
sS'CTGTGT'
p2985
I42234
sS'GTATGA'
p2986
I8916
sS'GTATGC'
p2987
I8115
sS'AGTTCT'
p2988
I27381
sS'GCAAAT'
p2989
I25697
sS'TAGGAT'
p2990
I14160
sS'TAATTA'
p2991
I20666
sS'CTATTT'
p2992
I24940
sS'TGCTTT'
p2993
I44783
sS'ACAGGA'
p2994
I39457
sS'TGGGNC'
p2995
I1
sS'ACTAGG'
p2996
I15221
sS'GTTACC'
p2997
I11604
sS'GTTACA'
p2998
I14472
sS'TAATTC'
p2999
I17497
sS'GTTACG'
p3000
I3050
sS'TATCGC'
p3001
I2783
sS'TATAGT'
p3002
I8156
sS'GTCTAA'
p3003
I10465
sS'TGCTTA'
p3004
I19213
sS'GTCTAC'
p3005
I8738
sS'TGCTTC'
p3006
I36517
sS'TTCAAA'
p3007
I36677
sS'GTCTAG'
p3008
I11750
sS'TCTCAT'
p3009
I26659
sS'TATAGC'
p3010
I7922
sS'TATCGT'
p3011
I2259
sS'TATAGA'
p3012
I10747
sS'AGCTCA'
p3013
I35786
sS'TATAGG'
p3014
I9211
sS'GTTACT'
p3015
I13789
sS'GGAAAA'
p3016
I55808
sS'GGAAAC'
p3017
I36422
sS'GGGCTA'
p3018
I16657
sS'GCTCTG'
p3019
I58134
sS'GGAGAG'
p3020
I73121
sS'CAATAT'
p3021
I12130
sS'CAGGAG'
p3022
I74999
sS'GAATGG'
p3023
I27183
sS'GNTGCN'
p3024
I1
sS'GAATGA'
p3025
I28195
sS'ACTACT'
p3026
I11702
sS'GAATGC'
p3027
I23327
sS'CCACGA'
p3028
I10185
sS'GGCGTC'
p3029
I15913
sS'CCACGC'
p3030
I22202
sS'GGCGTA'
p3031
I4089
sS'GGAAAT'
p3032
I36647
sS'CCACGG'
p3033
I19549
sS'AACCTA'
p3034
I13061
sS'GGCTTA'
p3035
I16151
sS'ACTACC'
p3036
I10493
sS'GGCTTC'
p3037
I41612
sS'GATGGG'
p3038
I35535
sS'ACTACG'
p3039
I3716
sS'GGCTTG'
p3040
I31424
sS'TCCTAG'
p3041
I23003
sS'GTTTTC'
p3042
I34850
sS'CGTTGC'
p3043
I7200
sS'TAACAC'
p3044
I13869
sS'TCCTAC'
p3045
I17506
sS'AGTCAC'
p3046
I24264
sS'TCCTAA'
p3047
I22362
sS'TAACAG'
p3048
I19315
sS'TCATCG'
p3049
I5569
sS'AAGCGT'
p3050
I6966
sS'TCATCC'
p3051
I23888
sS'GAGCGG'
p3052
I26631
sS'CTTTCT'
p3053
I61538
sS'AGTCAT'
p3054
I18288
sS'TCCTAT'
p3055
I15634
sS'TAACAT'
p3056
I16388
sS'CGTTGT'
p3057
I5481
sS'CTTTCC'
p3058
I56082
sS'TACCCT'
p3059
I16769
sS'CTTTCA'
p3060
I36649
sS'CTTTCG'
p3061
I8408
sS'GAGCGC'
p3062
I25395
sS'GTTGAT'
p3063
I11242
sS'CGACCA'
p3064
I6646
sS'CGACCC'
p3065
I14972
sS'GCATAC'
p3066
I8053
sS'CGACCG'
p3067
I5698
sS'CCTTAT'
p3068
I15165
sS'GTTGAC'
p3069
I10132
sS'GTTGAA'
p3070
I17139
sS'CGTCAA'
p3071
I4329
sS'GTTGAG'
p3072
I18747
sS'CCTTAC'
p3073
I15211
sS'CCTTAA'
p3074
I19738
sS'CCTTAG'
p3075
I19632
sS'CGACCT'
p3076
I9527
sS'CAACTC'
p3077
I22047
sS'AATAGC'
p3078
I15284
sS'CAACTG'
p3079
I21426
sS'AATAGG'
p3080
I15701
sS'AATATC'
p3081
I13238
sS'GATGGT'
p3082
I17326
sS'GGGGTT'
p3083
I30649
sS'GTCCCT'
p3084
I37387
sS'ATTCNN'
p3085
I2
sS'GGATGT'
p3086
I20186
sS'AATAGT'
p3087
I13051
sS'GGGCTT'
p3088
I38377
sS'CAACTT'
p3089
I20322
sS'GGGGTG'
p3090
I59861
sS'GGATGA'
p3091
I23693
sS'GGGGTC'
p3092
I37112
sS'GGGGTA'
p3093
I16280
sS'TCTCCG'
p3094
I18807
sS'GAGTCC'
p3095
I27195
sS'GAGTCA'
p3096
I25311
sS'TCTCCC'
p3097
I65861
sS'AAACTA'
p3098
I19876
sS'TCTCCA'
p3099
I49776
sS'AAACTC'
p3100
I28036
sS'CTATGA'
p3101
I12256
sS'AGTACG'
p3102
I3083
sS'ACGCGC'
p3103
I11018
sS'GCTAAG'
p3104
I17679
sS'AGTACC'
p3105
I10770
sS'CTATGG'
p3106
I12956
sS'TGCCGC'
p3107
I19809
sS'AAACTT'
p3108
I28201
sS'CCCTTC'
p3109
I56346
sS'TCTCCT'
p3110
I60204
sS'GAGTCT'
p3111
I26145
sS'AGCAAA'
p3112
I38448
sS'AGTACT'
p3113
I12465
sS'CTATGT'
p3114
I13008
sS'GCCGAA'
p3115
I8602
sS'GTGGAG'
p3116
I45371
sS'GCCGAC'
p3117
I10582
sS'GTGGAC'
p3118
I17959
sS'GCCGAG'
p3119
I28588
sS'GTGGAA'
p3120
I30706
sS'TATCAT'
p3121
I11241
sS'GTGGAT'
p3122
I18527
sS'GCCGAT'
p3123
I5126
sS'CCTATT'
p3124
I15951
sS'TATCTG'
p3125
I18009
sS'CACTGT'
p3126
I30483
sS'GTAGTC'
p3127
I9330
sS'AAATCG'
p3128
I6427
sS'GTAGTA'
p3129
I7704
sS'TTATCG'
p3130
I2811
sS'CACGCA'
p3131
I13848
sS'AAATCC'
p3132
I27465
sS'ACCGAA'
p3133
I5982
sS'AAATCA'
p3134
I31085
sS'GGCTTT'
p3135
I38419
sS'AGATAC'
p3136
I12743
sS'CACGCT'
p3137
I12729
sS'AAATCT'
p3138
I29331
sS'AAAGTC'
p3139
I24001
sS'GTAGTT'
p3140
I12067
sS'AGATAA'
p3141
I21933
sS'CGTTAT'
p3142
I3399
sS'GATGAT'
p3143
I14517
sS'GGAGCA'
p3144
I42501
sS'GGAGCC'
p3145
I62946
sS'CCGGCT'
p3146
I28572
sS'CCAAAT'
p3147
I26915
sS'GGAGCG'
p3148
I29928
sS'AAAACT'
p3149
I33523
sS'GATGAC'
p3150
I15379
sS'GATGAA'
p3151
I22755
sS'GCTCTT'
p3152
I32519
sS'GATGAG'
p3153
I25939
sS'CAATTT'
p3154
I22662
sS'ACTAAC'
p3155
I9794
sS'CCAAAC'
p3156
I26728
sS'AAAACG'
p3157
I11666
sS'GGAGCT'
p3158
I49658
sS'CCAAAG'
p3159
I39838
sS'TCGCGG'
p3160
I11802
sS'CGGTCC'
p3161
I14130
sS'TCGCGC'
p3162
I10787
sS'GGGAGT'
p3163
I34609
sS'GCCACA'
p3164
I36942
sS'AGATCA'
p3165
I20158
sS'GCCACC'
p3166
I48526
sS'AGAAAT'
p3167
I41536
sS'AACGTG'
p3168
I8913
sS'CGACGG'
p3169
I6890
sS'GCCACG'
p3170
I18683
sS'AGATCG'
p3171
I6516
sS'ATGTCA'
p3172
I20066
sS'TCGCGT'
p3173
I3990
sS'ACCTAG'
p3174
I15287
sS'TCTTTT'
p3175
I57066
sS'AGAAAG'
p3176
I61849
sS'TACCCG'
p3177
I6116
sS'AGAAAC'
p3178
I38874
sS'TACCCA'
p3179
I17604
sS'AGAAAA'
p3180
I73139
sS'TACCCC'
p3181
I16067
sS'ATGTAC'
p3182
I8977
sS'ACTTCG'
p3183
I6716
sS'ATGTAA'
p3184
I20437
sS'ATGTAG'
p3185
I13370
sS'GTTCGA'
p3186
I4731
sS'CTACCA'
p3187
I16154
sS'TCGCTC'
p3188
I14217
sS'GACGAC'
p3189
I5966
sS'ATGTCG'
p3190
I4166
sS'ATGTAT'
p3191
I15206
sS'ATTAGA'
p3192
I15918
sS'CACTGA'
p3193
I31288
sS'GACCGG'
p3194
I11792
sS'AGCACT'
p3195
I31261
sS'TTAGAA'
p3196
I26398
sS'CGGCTG'
p3197
I29836
sS'TTAGAC'
p3198
I10298
sS'GGATAC'
p3199
I9300
sS'CGGCTC'
p3200
I29306
sS'TTAGAG'
p3201
I21453
sS'CGGCTA'
p3202
I6461
sS'AGCACC'
p3203
I32568
sS'AGCACA'
p3204
I34151
sS'AGCACG'
p3205
I11512
sS'CGGCTT'
p3206
I14845
sS'CGCCCT'
p3207
I30337
sS'TTAGAT'
p3208
I13604
sS'AAAGAC'
p3209
I29328
sS'ACCTAT'
p3210
I9775
sS'AAAGAA'
p3211
I67318
sS'AAAGAG'
p3212
I48779
sS'AACTAC'
p3213
I12475
sS'CCAGCG'
p3214
I28802
sS'CGACGT'
p3215
I3375
sS'TTATTT'
p3216
I50319
sS'TGTGAG'
p3217
I35388
sS'TGTGAA'
p3218
I30896
sS'ACGTCT'
p3219
I7427
sS'TGTGAC'
p3220
I23913
sS'CTATGC'
p3221
I11317
sS'ATATCT'
p3222
I13018
sS'CCAGCT'
p3223
I61206
sS'CACGGT'
p3224
I10058
sS'AAAGAT'
p3225
I27474
sS'TGTGAT'
p3226
I23117
sS'TTATTG'
p3227
I17548
sS'TTATTA'
p3228
I22460
sS'CATGAT'
p3229
I14272
sS'TTATTC'
p3230
I21050
sS'AGACGG'
p3231
I14745
sS'TTTTAT'
p3232
I39898
sS'TACAAG'
p3233
I14626
sS'TCCACT'
p3234
I28780
sS'TACAAA'
p3235
I26739
sS'AGACGA'
p3236
I7350
sS'TACAAC'
p3237
I10509
sS'CCTCTG'
p3238
I69356
sS'AGGTGG'
p3239
I55315
sS'ATTAGT'
p3240
I11399
sS'CCTCTC'
p3241
I68955
sS'AGGTGC'
p3242
I31441
sS'CCTCTA'
p3243
I24102
sS'AGGTGA'
p3244
I36409
sS'TACAAT'
p3245
I13371
sS'TCCACA'
p3246
I32021
sS'TTTTAG'
p3247
I28332
sS'ACATCG'
p3248
I4622
sS'TTTTAA'
p3249
I56746
sS'ACATCA'
p3250
I19484
sS'TTTTAC'
p3251
I24700
sS'ACATCC'
p3252
I20210
sS'AGGTGT'
p3253
I26724
sS'CCTCTT'
p3254
I47815
sS'GCGTGA'
p3255
I11393
sS'TATGAG'
p3256
I12479
sS'CCCGGA'
p3257
I25952
sS'NNCTGA'
p3258
I1
sS'CCCGGG'
p3259
I59227
sS'TATGAA'
p3260
I15906
sS'TGGAAT'
p3261
I32063
sS'AATTAA'
p3262
I27996
sS'TTGTGC'
p3263
I19785
sS'TTGTGA'
p3264
I23233
sS'TTGTGG'
p3265
I26470
sS'CCCGGT'
p3266
I15075
sS'GCGGGG'
p3267
I70130
sS'TGGAAG'
p3268
I44628
sS'TGGAAC'
p3269
I21962
sS'TGGAAA'
p3270
I47315
sS'TGAGGA'
p3271
I42378
sS'AAGAGG'
p3272
I47544
sS'TGAGGC'
p3273
I43351
sS'AAGAGA'
p3274
I47368
sS'AAGAGC'
p3275
I32770
sS'TGAGGG'
p3276
I44075
sS'GCTTAG'
p3277
I16578
sS'GCTTAC'
p3278
I10953
sS'GCTTAA'
p3279
I15476
sS'TGATTC'
p3280
I19781
sS'AAGCGC'
p3281
I12920
sS'AAGAGT'
p3282
I23816
sS'AAGCGA'
p3283
I9876
sS'NGCGCC'
p3284
I1
sS'TGAGGT'
p3285
I29914
sS'CATGAG'
p3286
I22291
sS'GCTTAT'
p3287
I12028
sS'GTTCGG'
p3288
I6746
sS'CTGCTA'
p3289
I21314
sS'GCGTGT'
p3290
I11663
sS'CTGCTC'
p3291
I55089
sS'ACTTCT'
p3292
I28606
sS'GACCGT'
p3293
I5813
sS'CTGCTG'
p3294
I77300
sS'CGGTCA'
p3295
I7726
sS'GGTCGT'
p3296
I5701
sS'CTAGAG'
p3297
I24239
sS'CTAGAA'
p3298
I22392
sS'CGGTCG'
p3299
I5668
sS'GACCGA'
p3300
I7193
sS'GACCGC'
p3301
I11886
sS'ACTTCC'
p3302
I33809
sS'CTGCTT'
p3303
I46542
sS'ACTTCA'
p3304
I24744
sS'CTAGAT'
p3305
I12650
sS'GGTCGG'
p3306
I13940
sS'CGGTCT'
p3307
I9395
sS'GGTCGC'
p3308
I11821
sS'GGTCGA'
p3309
I4992
sS'CGTCGC'
p3310
I7873
sS'CAGCAT'
p3311
I30876
sS'CGTCGG'
p3312
I7255
sS'GCGTGC'
p3313
I14446
sS'TGCTCA'
p3314
I32582
sS'TTCATC'
p3315
I22785
sS'TGCTCC'
p3316
I42727
sS'TTCATA'
p3317
I15887
sS'TTCATG'
p3318
I22114
sS'TGCTCG'
p3319
I10442
sS'GTACAA'
p3320
I9820
sS'CAGCAG'
p3321
I77099
sS'TACACT'
p3322
I12850
sS'GCTTTG'
p3323
I35647
sS'CAGCAC'
p3324
I44978
sS'CGTCGT'
p3325
I3470
sS'ATATCC'
p3326
I10844
sS'GTACAC'
p3327
I8443
sS'TGCTCT'
p3328
I41779
sS'TTCATT'
p3329
I36466
sS'GCTTTA'
p3330
I20175
sS'GCTGCC'
p3331
I64892
sS'GCTGCA'
p3332
I50701
sS'AACTCT'
p3333
I25900
sS'GCTGCG'
p3334
I32198
sS'TGGCCA'
p3335
I45233
sS'GTAGCA'
p3336
I13883
sS'AACTCA'
p3337
I24306
sS'TGGCCT'
p3338
I46264
sS'AACTCC'
p3339
I30033
sS'GCTGCT'
p3340
I61384
sS'AACTCG'
p3341
I7400
sS'CAGTCG'
p3342
I8392
sS'AATATT'
p3343
I25870
sS'CAACCT'
p3344
I24154
sS'CAGTTA'
p3345
I17498
sS'TGGCCG'
p3346
I22219
sS'GGCACG'
p3347
I14340
sS'GGCACA'
p3348
I32364
sS'GACAAT'
p3349
I14274
sS'GGCACC'
p3350
I33182
sS'CAACCG'
p3351
I6943
sS'ACGACC'
p3352
I5805
sS'AATATG'
p3353
I16224
sS'AATATA'
p3354
I17720
sS'AGCAAG'
p3355
I35593
sS'CAACCA'
p3356
I21576
sS'CTTCGT'
p3357
I7805
sS'GACAAA'
p3358
I26871
sS'GGCACT'
p3359
I28057
sS'GACAAC'
p3360
I13668
sS'ACGACA'
p3361
I5119
sS'GACAAG'
p3362
I22443
sS'TGGCCC'
p3363
I45511
sS'GCTTTT'
p3364
I38274
sS'GCAATA'
p3365
I11347
sS'GAATTT'
p3366
I30795
sS'CAAGTG'
p3367
I26138
sS'TTGAAC'
p3368
I17026
sS'CGATGG'
p3369
I7793
sS'GNAGAA'
p3370
I1
sS'TCCCAT'
p3371
I29453
sS'CGATGC'
p3372
I6336
sS'GTAAAT'
p3373
I20288
sS'CGATGA'
p3374
I5518
sS'GAATTA'
p3375
I17236
sS'GAATTC'
p3376
I25067
sS'GAATTG'
p3377
I17697
sS'TCCCAA'
p3378
I37542
sS'CGATGT'
p3379
I4902
sS'GTAAAA'
p3380
I25140
sS'GTAAAG'
p3381
I18235
sS'TCCCAG'
p3382
I77367
sS'ATGGTC'
p3383
I12657
sS'GGATTT'
p3384
I27708
sS'GTGCGT'
p3385
I9411
sS'CTATCG'
p3386
I2582
sS'GGATTC'
p3387
I21075
sS'GGATTA'
p3388
I18233
sS'GTCTCG'
p3389
I11262
sS'ACCTCT'
p3390
I32986
sS'ACGCCA'
p3391
I10489
sS'ATATAG'
p3392
I8915
sS'TCTGTG'
p3393
I44605
sS'TCTGTC'
p3394
I37450
sS'TCTGTA'
p3395
I23077
sS'GGCGGC'
p3396
I60821
sS'CTCCTT'
p3397
I53659
sS'GGCGGA'
p3398
I27169
sS'GGCGGG'
p3399
I75109
sS'AACCGA'
p3400
I6394
sS'CTATCC'
p3401
I11726
sS'TCTGTT'
p3402
I34723
sS'ATATAC'
p3403
I9352
sS'CTCCTG'
p3404
I75623
sS'AACCGT'
p3405
I5102
sS'CTCCTA'
p3406
I24898
sS'CTCCTC'
p3407
I81807
sS'GGCGGT'
p3408
I17910
sS'GACGCA'
p3409
I9377
sS'GACGCC'
p3410
I16044
sS'CCCACA'
p3411
I45317
sS'CCCACC'
p3412
I75324
sS'TACTTC'
p3413
I15959
sS'AGCCTT'
p3414
I35073
sS'AAGCTA'
p3415
I16350
sS'CCGATT'
p3416
I5381
sS'CCCACT'
p3417
I41093
sS'AACAAT'
p3418
I21602
sS'GACGCT'
p3419
I10645
sS'ACCTCC'
p3420
I43196
sS'CCACGT'
p3421
I14396
sS'CCGATA'
p3422
I2455
sS'AGCCTG'
p3423
I61993
sS'AGCCTA'
p3424
I17260
sS'CCGATG'
p3425
I6193
sS'GTACCC'
p3426
I10566
sS'GAGTTT'
p3427
I28090
sS'TGGTTA'
p3428
I15607
sS'CGCCTT'
p3429
I16675
sS'GCGCCT'
p3430
I26799
sS'TCNNNN'
p3431
I3
sS'CAGAGT'
p3432
I34653
sS'GCATCT'
p3433
I24730
sS'CTCCCA'
p3434
I70314
sS'GAGTTG'
p3435
I21929
sS'CGCCTC'
p3436
I37360
sS'GCGCCA'
p3437
I20944
sS'CGCCTA'
p3438
I7040
sS'GCGCCG'
p3439
I33373
sS'CGCCTG'
p3440
I32223
sS'ACGAAG'
p3441
I7919
sS'CAGAGG'
p3442
I69568
sS'GCATCC'
p3443
I24157
sS'CTCCCC'
p3444
I93371
sS'CAGAGC'
p3445
I58652
sS'GCATCG'
p3446
I6456
sS'CAGAGA'
p3447
I59657
sS'TAGCTA'
p3448
I11129
sS'CCGATC'
p3449
I5336
sS'AGACTC'
p3450
I26028
sS'CCTAGA'
p3451
I22060
sS'CCTAGC'
p3452
I19714
sS'TTTGCT'
p3453
I38297
sS'TAGCTC'
p3454
I17003
sS'TGCGGT'
p3455
I10436
sS'CCTAGG'
p3456
I26317
sS'TAAGCA'
p3457
I19121
sS'TTTGCA'
p3458
I38198
sS'TGCGGA'
p3459
I13009
sS'CCTAGT'
p3460
I14977
sS'TGCGGG'
p3461
I25837
sS'TTTGCG'
p3462
I7628
sS'TGAGTT'
p3463
I24774
sS'CGGGAC'
p3464
I20526
sS'ATCGCT'
p3465
I7188
sS'TAATCT'
p3466
I15546
sS'ATCGCC'
p3467
I7486
sS'TGAGTG'
p3468
I29155
sS'ATCGCA'
p3469
I5235
sS'TGAGTA'
p3470
I15858
sS'ATCGCG'
p3471
I4525
sS'TGAGTC'
p3472
I23814
sS'AAGGTG'
p3473
I31445
sS'AAGGTC'
p3474
I20956
sS'CATCAT'
p3475
I17815
sS'AAGGTA'
p3476
I17212
sS'AAGCGG'
p3477
I14417
sS'ACGGCA'
p3478
I8797
sS'CATCAC'
p3479
I21901
sS'AAGGTT'
p3480
I20960
sS'CATCAA'
p3481
I16623
sS'CATCAG'
p3482
I26132
sS'ACGGCG'
p3483
I9732
sS'TCACCT'
p3484
I36830
sS'TCTAAG'
p3485
I19005
sS'TCGTTT'
p3486
I8402
sS'CGGAAT'
p3487
I6731
sS'ATCGAT'
p3488
I2676
sS'TCACCG'
p3489
I12116
sS'TCACCA'
p3490
I29919
sS'TCACCC'
p3491
I33735
sS'CGGAAG'
p3492
I17036
sS'CAACCC'
p3493
I26127
sS'AACTGG'
p3494
I27084
sS'CGGCCT'
p3495
I28217
sS'CGGAAC'
p3496
I8509
sS'AGCTCG'
p3497
I12606
sS'CGGAAA'
p3498
I11864
sS'TAGCTT'
p3499
I16390
sS'ATCCAG'
p3500
I27027
sS'TGTGTC'
p3501
I27652
sS'TGTGTA'
p3502
I19410
sS'TGTGTG'
p3503
I71834
sS'ATGGCA'
p3504
I25472
sS'TCGTCC'
p3505
I9188
sS'ATGGCT'
p3506
I25150
sS'TGTGTT'
p3507
I32272
sS'CCAAGT'
p3508
I26625
sS'GCGGTC'
p3509
I11969
sS'AGAATT'
p3510
I30070
sS'GAAACG'
p3511
I11530
sS'GAAACA'
p3512
I36019
sS'GAAACC'
p3513
I29721
sS'AAGATA'
p3514
I17727
sS'CTGAGT'
p3515
I33608
sS'CCTGCC'
p3516
I83255
sS'GAAACT'
p3517
I30456
sS'AGAATG'
p3518
I33239
sS'AGATTT'
p3519
I29180
sS'AGAATC'
p3520
I24439
sS'CTGAGC'
p3521
I50836
sS'CTGAGA'
p3522
I46868
sS'CTGAGG'
p3523
I61551
sS'CATACC'
p3524
I10588
sS'CATACA'
p3525
I14790
sS'CATACG'
p3526
I2856
sS'GCAATC'
p3527
I12690
sS'TCAAAT'
p3528
I25186
sS'GTCCAT'
p3529
I13430
sS'AGGGGT'
p3530
I35905
sS'CAGGAC'
p3531
I38304
sS'CATACT'
p3532
I10790
sS'AATGGC'
p3533
I23003
sS'GTCCAG'
p3534
I30159
sS'TCAAAG'
p3535
I30565
sS'CACGAG'
p3536
I10180
sS'TCAAAA'
p3537
I33486
sS'CACTAA'
p3538
I14545
sS'GTCCAA'
p3539
I14224
sS'CGGCGG'
p3540
I45130
sS'TTGATG'
p3541
I16744
sS'CTCATT'
p3542
I30848
sS'CGGCGC'
p3543
I33306
sS'TTGATC'
p3544
I11973
sS'CGGCGA'
p3545
I11698
sS'TTGATA'
p3546
I11519
sS'CTATCT'
p3547
I14696
sS'ACCGTA'
p3548
I3202
sS'AAACTG'
p3549
I34983
sS'AACTGC'
p3550
I25670
sS'CGTACC'
p3551
I3476
sS'ATGGCC'
p3552
I22688
sS'GTACGC'
p3553
I2840
sS'TATAAG'
p3554
I10373
sS'TCCAAC'
p3555
I19584
sS'CGGTTA'
p3556
I3845
sS'GGTTTA'
p3557
I15491
sS'CGGTTC'
p3558
I9341
sS'GCTGTT'
p3559
I31394
sS'TTTACA'
p3560
I29891
sS'CGGTTG'
p3561
I6872
sS'GGTTTG'
p3562
I25590
sS'CCATTG'
p3563
I19924
sS'CGTACG'
p3564
I1526
sS'GCTGTG'
p3565
I50998
sS'ACCTAA'
p3566
I14086
sS'GGTTTT'
p3567
I32315
sS'CGGTTT'
p3568
I8802
sS'GCTGTA'
p3569
I18054
sS'TATGCG'
p3570
I3186
sS'AGGTTG'
p3571
I23760
sS'AGGTTC'
p3572
I20923
sS'AGGTTA'
p3573
I15870
sS'CNNNNN'
p3574
I3
sS'GAGGGA'
p3575
I68951
sS'TTTTTC'
p3576
I56848
sS'GAGGGC'
p3577
I54857
sS'TTTTTA'
p3578
I51643
sS'TTTTTG'
p3579
I45674
sS'TCCATG'
p3580
I23979
sS'TTAAAT'
p3581
I33064
sS'AGGTTT'
p3582
I29082
sS'TATGCC'
p3583
I10831
sS'TTAAAC'
p3584
I20153
sS'ATACGT'
p3585
I3351
sS'TTAAAA'
p3586
I57236
sS'ACTCCG'
p3587
I12643
sS'TTAAAG'
p3588
I29130
sS'GAGGGT'
p3589
I34627
sS'TTTTTT'
p3590
I164183
sS'ACTCCC'
p3591
I34624
sS'TAGGCT'
p3592
I17214
sS'GTCACG'
p3593
I8360
sS'CTGTAC'
p3594
I13601
sS'GCAACT'
p3595
I17693
sS'GCAATT'
p3596
I16777
sS'CTGTAG'
p3597
I22576
sS'GTCACA'
p3598
I23974
sS'GCAACG'
p3599
I7416
sS'GTCACT'
p3600
I23668
sS'TAGGCG'
p3601
I6941
sS'GCAACC'
p3602
I19401
sS'TAGGCA'
p3603
I18641
sS'GCAACA'
p3604
I22925
sS'TAGGCC'
p3605
I15344
sS'AAAACC'
p3606
I32731
sS'TGGTTC'
p3607
I21885
sS'ATTCAT'
p3608
I23308
sS'TCCCAC'
p3609
I44399
sS'GCGATT'
p3610
I6256
sS'TCGTGT'
p3611
I6049
sS'TTCACT'
p3612
I29104
sS'ACTACA'
p3613
I15432
sS'GTCTCT'
p3614
I36972
sS'AACATT'
p3615
I25817
sS'ATTCAG'
p3616
I27762
sS'ATTCAA'
p3617
I22828
sS'ATTCAC'
p3618
I19517
sS'GTCTCC'
p3619
I38539
sS'CCACTA'
p3620
I16374
sS'TCGTGG'
p3621
I10020
sS'GCGATG'
p3622
I8458
sS'TTCACC'
p3623
I25922
sS'GCGATA'
p3624
I2694
sS'TCGTGC'
p3625
I7132
sS'GCGATC'
p3626
I7104
sS'GAAGGC'
p3627
I39208
sS'GAAGGA'
p3628
I52191
sS'GAAGGG'
p3629
I56429
sS'CGATTA'
p3630
I2884
sS'GGAACC'
p3631
I26627
sS'GGAACA'
p3632
I28520
sS'GGAACG'
p3633
I10930
sS'ATAGTA'
p3634
I9087
sS'CGATTT'
p3635
I6421
sS'AAAACA'
p3636
I56428
sS'GAAGGT'
p3637
I26572
sS'CTCGCT'
p3638
I18701
sS'CAATCG'
p3639
I4054
sS'CAATCA'
p3640
I18417
sS'GGAACT'
p3641
I26350
sS'TCCTGA'
p3642
I41899
sS'AGTCCA'
p3643
I21751
sS'TCCTGC'
p3644
I59335
sS'AGTCCC'
p3645
I34049
sS'ACTAAA'
p3646
I19760
sS'TCCTGG'
p3647
I68481
sS'AGTCCG'
p3648
I8982
sS'TAACGC'
p3649
I3970
sS'CAGCTG'
p3650
I67512
sS'CAGCTA'
p3651
I23586
sS'CAGCTC'
p3652
I57888
sS'ACTAAT'
p3653
I11444
sS'GATTGT'
p3654
I12929
sS'AGTCCT'
p3655
I28980
sS'TCCTGT'
p3656
I39563
sS'TAATGT'
p3657
I15264
sS'CAGCTT'
p3658
I40281
sS'TAACGT'
p3659
I4138
sS'TCTATA'
p3660
I10849
sS'AGCCAG'
p3661
I60576
sS'GTACTT'
p3662
I12638
sS'CGACAT'
p3663
I4071
sS'TTGTTC'
p3664
I23468
sS'CGCAAG'
p3665
I8805
sS'CCGAGG'
p3666
I31657
sS'CCGAGA'
p3667
I16718
sS'AGGAAG'
p3668
I74861
sS'CCGAGC'
p3669
I23129
sS'CCGCGT'
p3670
I11704
sS'CGACAC'
p3671
I6587
sS'CGACAA'
p3672
I4624
sS'CGACAG'
p3673
I10705
sS'GTACTA'
p3674
I6061
sS'CCGCGC'
p3675
I41304
sS'CCGAGT'
p3676
I12573
sS'CCGCGA'
p3677
I11796
sS'TACGCA'
p3678
I3745
sS'CCGCGG'
p3679
I38283
sS'TTGTTT'
p3680
I51930
sS'GCATAT'
p3681
I11536
sS'TCCGTT'
p3682
I7523
sS'AGCCAA'
p3683
I32841
sS'AATAAC'
p3684
I16817
sS'AATAAA'
p3685
I48302
sS'AATAAG'
p3686
I20105
sS'GGATTG'
p3687
I16619
sS'TACTAA'
p3688
I12387
sS'AATAAT'
p3689
I25862
sS'CCAACC'
p3690
I27327
sS'CCAACA'
p3691
I25925
sS'TTATGC'
p3692
I12304
sS'CCAACG'
p3693
I7842
sS'CGCCGC'
p3694
I50942
sS'GTGTAT'
p3695
I12659
sS'CGCCGA'
p3696
I11068
sS'AGTAAC'
p3697
I14053
sS'CGCCGG'
p3698
I28693
sS'GAGTAA'
p3699
I15489
sS'AGTAAG'
p3700
I16898
sS'CTCAGG'
p3701
I56172
sS'CTCAGC'
p3702
I57894
sS'CTCAGA'
p3703
I43206
sS'GAGTAT'
p3704
I9817
sS'TCGAGA'
p3705
I7409
sS'GTGTAG'
p3706
I12949
sS'TCGAGC'
p3707
I6658
sS'GTGTAA'
p3708
I13743
sS'GTGTAC'
p3709
I8412
sS'TCGAGG'
p3710
I10462
sS'GTGGCA'
p3711
I32031
sS'GTGGCC'
p3712
I41227
sS'CTCGGA'
p3713
I14857
sS'GTGGCG'
p3714
I21243
sS'GCCGCC'
p3715
I61118
sS'GCCGCA'
p3716
I20388
sS'GCCGCG'
p3717
I36827
sS'ACACTT'
p3718
I22152
sS'CTCGGT'
p3719
I11917
sS'AAGTCC'
p3720
I23282
sS'AGATAT'
p3721
I13178
sS'GTGGCT'
p3722
I43397
sS'CATATA'
p3723
I11204
sS'TCAGCA'
p3724
I38323
sS'TACTAC'
p3725
I7802
sS'ACACTC'
p3726
I21734
sS'ACACTA'
p3727
I11939
sS'ACACTG'
p3728
I29777
sS'GCCGCT'
p3729
I26158
sS'ACCGGA'
p3730
I8158
sS'AAATAA'
p3731
I50007
sS'ACCGGC'
p3732
I12825
sS'AAATAC'
p3733
I26673
sS'CTTTAA'
p3734
I29407
sS'AATCCT'
p3735
I25844
sS'AAATAG'
p3736
I24487
sS'AACTTA'
p3737
I14393
sS'CAGGTA'
p3738
I22229
sS'AACTTC'
p3739
I23542
sS'CAGGTC'
p3740
I31058
sS'CACGAC'
p3741
I6450
sS'CACGAA'
p3742
I7260
sS'CAGGTG'
p3743
I54175
sS'CTTTAT'
p3744
I23976
sS'AATCCC'
p3745
I28467
sS'GCTCGT'
p3746
I6924
sS'AATCCA'
p3747
I23050
sS'AAATAT'
p3748
I31834
sS'AATCCG'
p3749
I6413
sS'GATACA'
p3750
I11694
sS'CACGAT'
p3751
I5410
sS'CAGGTT'
p3752
I29098
sS'AACTTT'
p3753
I28055
sS'GGGATA'
p3754
I13796
sS'GGGATC'
p3755
I21722
sS'GGGTGT'
p3756
I28458
sS'GGAGAT'
p3757
I28097
sS'GATGCT'
p3758
I23392
sS'CGCAGT'
p3759
I12390
sS'GAGTCG'
p3760
I9128
sS'GAGCCT'
p3761
I41593
sS'GGAGAC'
p3762
I38495
sS'GGGTGA'
p3763
I33270
sS'GGAGAA'
p3764
I54952
sS'GGGTGC'
p3765
I34111
sS'GGGATT'
p3766
I28928
sS'GGGTGG'
p3767
I69760
sS'GAGCCA'
p3768
I45707
sS'GAGCCC'
p3769
I54579
sS'GATGCG'
p3770
I8126
sS'CGCAGA'
p3771
I16855
sS'GATGCA'
p3772
I20170
sS'CGCAGC'
p3773
I32660
sS'GATGCC'
p3774
I21281
sS'CGGATT'
p3775
I6334
sS'GGTAGT'
p3776
I10262
sS'ACCCCT'
p3777
I35427
sS'GCCAAT'
p3778
I16600
sS'AACCGC'
p3779
I8706
sS'AGAAGT'
p3780
I29004
sS'ACCCCA'
p3781
I42757
sS'GGTAGA'
p3782
I16622
sS'GCCAAA'
p3783
I25530
sS'GGTAGC'
p3784
I13865
sS'GCCAAG'
p3785
I37073
sS'CGGATA'
p3786
I3230
sS'ACCCCG'
p3787
I23185
sS'GGTAGG'
p3788
I21832
sS'AGAAGA'
p3789
I43813
sS'AGAAGC'
p3790
I40312
sS'CAGTCT'
p3791
I30064
sS'AGAAGG'
p3792
I51725
sS'CACTCC'
p3793
I40074
sS'CACTCA'
p3794
I29628
sS'CACTCG'
p3795
I10431
sS'TGCGTT'
p3796
I7741
sS'CGGATG'
p3797
I8785
sS'GCAAGG'
p3798
I32827
sS'AGCTTT'
p3799
I33504
sS'CCCCGG'
p3800
I48216
sS'TGCGTA'
p3801
I3721
sS'CCCCGC'
p3802
I70942
sS'CCCCGA'
p3803
I22634
sS'AGCTTC'
p3804
I33867
sS'AGCTTA'
p3805
I14787
sS'AGCTTG'
p3806
I26556
sS'ATACGA'
p3807
I2627
sS'AGACCA'
p3808
I27953
sS'CCACTT'
p3809
I30409
sS'TTAGCT'
p3810
I18835
sS'ACTGTG'
p3811
I30471
sS'GTATAA'
p3812
I9319
sS'TTAGCC'
p3813
I16543
sS'TTAGCA'
p3814
I20706
sS'CTAGCA'
p3815
I16566
sS'TTAGCG'
p3816
I4809
sS'TACCGG'
p3817
I4959
sS'AAGGGG'
p3818
I47624
sS'ATAAGG'
p3819
I14952
sS'TGTGCT'
p3820
I33799
sS'AAGGGC'
p3821
I35555
sS'ATAAGC'
p3822
I12164
sS'AAGGGA'
p3823
I48230
sS'ATAAGA'
p3824
I16907
sS'CCAGAC'
p3825
I33938
sS'CCAGAA'
p3826
I43213
sS'CCAGAG'
p3827
I62184
sS'GCAAGT'
p3828
I19729
sS'TGTGCG'
p3829
I13452
sS'CTACCT'
p3830
I20991
sS'ATAAGT'
p3831
I10951
sS'ATAGGG'
p3832
I13673
sS'TGTGCC'
p3833
I32088
sS'ATAGGA'
p3834
I15417
sS'TGTGCA'
p3835
I28647
sS'ATAGGC'
p3836
I10898
sS'GCTCGC'
p3837
I18116
sS'ATACGC'
p3838
I2659
sS'CCAGAT'
p3839
I27159
sS'AGACAA'
p3840
I28380
sS'AACAAG'
p3841
I26391
sS'AGACAC'
p3842
I28143
sS'TCCATT'
p3843
I27879
sS'AGACAG'
p3844
I45277
sS'TTTTCT'
p3845
I73181
sS'CGCTGT'
p3846
I15196
sS'CCCACG'
p3847
I22440
sS'TCAAGA'
p3848
I23475
sS'CGTGGG'
p3849
I22130
sS'CTATAG'
p3850
I8838
sS'CGTGGC'
p3851
I18663
sS'CGTGGA'
p3852
I13303
sS'TTTTCG'
p3853
I7414
sS'CGCTGA'
p3854
I14421
sS'CGCTGC'
p3855
I32668
sS'TTTTCC'
p3856
I55432
sS'TTTTCA'
p3857
I44360
sS'CGCTGG'
p3858
I28796
sS'TATGGA'
p3859
I12802
sS'TATGGC'
p3860
I10576
sS'CGTAGG'
p3861
I5769
sS'ATCGTC'
p3862
I3895
sS'AACAAA'
p3863
I52700
sS'TATGGG'
p3864
I12984
sS'CGTAGC'
p3865
I5170
sS'TACCGT'
p3866
I3513
sS'TGGACT'
p3867
I21517
sS'CGTAGT'
p3868
I3699
sS'TATGGT'
p3869
I9812
sS'ATTCCT'
p3870
I36688
sS'TGGACA'
p3871
I23953
sS'TGGACC'
p3872
I19617
sS'TGGACG'
p3873
I9958
sS'CGTTAC'
p3874
I3519
sS'CCGGTT'
p3875
I8464
sS'GACCAA'
p3876
I16908
sS'GCTTGA'
p3877
I20702
sS'TGAGAC'
p3878
I28039
sS'GCTTGC'
p3879
I22770
sS'TGAGAA'
p3880
I41733
sS'GCCAAC'
p3881
I18358
sS'TGAGAG'
p3882
I38336
sS'GCTTGG'
p3883
I33323
sS'CCTGTT'
p3884
I32412
sS'CCGGTG'
p3885
I15633
sS'CCTTGC'
p3886
I32933
sS'TACACC'
p3887
I10674
sS'CCTGTC'
p3888
I39434
sS'CCTGTA'
p3889
I24778
sS'CCTGTG'
p3890
I49786
sS'GCTTGT'
p3891
I20280
sS'TGAGAT'
p3892
I25984
sS'TACCAA'
p3893
I13211
sS'GGTTGT'
p3894
I16584
sS'AGGGAT'
p3895
I27453
sS'TATCAG'
p3896
I13852
sS'AATTCN'
p3897
I2
sS'TAGCGT'
p3898
I3853
sS'GGTTGG'
p3899
I27205
sS'CTGAAT'
p3900
I27778
sS'GGTTGA'
p3901
I14978
sS'GGTTGC'
p3902
I19515
sS'TCCCGC'
p3903
I32382
sS'GTAACG'
p3904
I3596
sS'TCCCGG'
p3905
I35012
sS'TGCTAT'
p3906
I14965
sS'CGTTTT'
p3907
I11828
sS'ATTCTC'
p3908
I29084
sS'CTATAC'
p3909
I6318
sS'ATTCTA'
p3910
I18474
sS'ATTCTG'
p3911
I29915
sS'TCATTT'
p3912
I39577
sS'CAGCGA'
p3913
I15314
sS'TGCTAA'
p3914
I20687
sS'TATACT'
p3915
I9262
sS'TGCTAG'
p3916
I16766
sS'TCCCGT'
p3917
I11585
sS'AGGATC'
p3918
I20399
sS'TCATTC'
p3919
I27953
sS'TCATTA'
p3920
I18796
sS'TCATTG'
p3921
I19450
sS'ATTCTT'
p3922
I31527
sS'CGTTTC'
p3923
I11731
sS'ACCGGG'
p3924
I15146
sS'TGGCAA'
p3925
I26919
sS'TGGCAC'
p3926
I26273
sS'TGGCAG'
p3927
I49522
sS'GCTGAG'
p3928
I57532
sS'GCTGAA'
p3929
I32871
sS'GCTGAC'
p3930
I25711
sS'TGGCAT'
p3931
I23467
sS'GGCCGG'
p3932
I47966
sS'GTTCAA'
p3933
I17141
sS'NNGATC'
p3934
I1
sS'AGCCTC'
p3935
I55110
sS'GGCCGC'
p3936
I45575
sS'GAACTT'
p3937
I20564
sS'GGCCGA'
p3938
I19583
sS'GGCAAT'
p3939
I15688
sS'GACCTA'
p3940
I11004
sS'ATCNNN'
p3941
I1
sS'CTGATT'
p3942
I25839
sS'CCATCG'
p3943
I7870
sS'CTAAAT'
p3944
I19489
sS'CCATCC'
p3945
I35790
sS'CCATCA'
p3946
I23663
sS'CTGATC'
p3947
I17559
sS'CTGATA'
p3948
I13741
sS'TCCCTT'
p3949
I48818
sS'GGCAAC'
p3950
I20887
sS'CATTTG'
p3951
I31044
sS'GGCAAA'
p3952
I29875
sS'CTAAAG'
p3953
I20538
sS'CCATCT'
p3954
I35922
sS'CTAAAC'
p3955
I14965
sS'GTACCG'
p3956
I3692
sS'GACACC'
p3957
I22989
sS'TACGAT'
p3958
I2310
sS'GACACG'
p3959
I9632
sS'CCAAGA'
p3960
I33272
sS'AGGCAT'
p3961
I26926
sS'AATTCT'
p3962
I30027
sS'TACGAG'
p3963
I3537
sS'TACGAC'
p3964
I2377
sS'GGAAAG'
p3965
I56468
sS'GACACT'
p3966
I20544
sS'GGCGAT'
p3967
I7454
sS'CGTGAG'
p3968
I13501
sS'CTATTG'
p3969
I12344
sS'CTATTA'
p3970
I12076
sS'ACGCTC'
p3971
I9333
sS'TCGATG'
p3972
I4378
sS'TCGATA'
p3973
I1960
sS'TCGATC'
p3974
I3468
sS'ACGCTT'
p3975
I6931
sS'TCTGGG'
p3976
I59758
sS'GAACTG'
p3977
I27283
sS'TGCCTA'
p3978
I18537
sS'GGATAA'
p3979
I14141
sS'ACGAAA'
p3980
I6559
sS'ACAATG'
p3981
I20966
sS'AACCAA'
p3982
I24238
sS'TGCCGG'
p3983
I18986
sS'AACCAC'
p3984
I22710
sS'AGGCAA'
p3985
I33222
sS'AACCAG'
p3986
I29543
sS'TGCCGA'
p3987
I8260
sS'TTGGAC'
p3988
I14016
sS'CCGTGC'
p3989
I15005
sS'TCTGGA'
p3990
I39291
sS'ATGATC'
p3991
I11619
sS'AGGCAG'
p3992
I74824
sS'TGCCGT'
p3993
I8772
sS'AACCAT'
p3994
I16030
sS'AACAGA'
p3995
I34821
sS'ACGTCG'
p3996
I3332
sS'AACAGC'
p3997
I30891
sS'CTACCC'
p3998
I20077
sS'AACAGG'
p3999
I32430
sS'ACGTCA'
p4000
I6981
sS'CCCAAG'
p4001
I43044
sS'TTGGAG'
p4002
I34947
sS'GACGAA'
p4003
I5485
sS'CCCAAC'
p4004
I29917
sS'CCCAAA'
p4005
I42340
sS'GGGAGG'
p4006
I124928
sS'GGGAGA'
p4007
I66204
sS'AACAGT'
p4008
I21100
sS'GGGAGC'
p4009
I61714
sS'CCCAAT'
p4010
I16695
sS'GACGAT'
p4011
I3752
sS'GGGCGC'
p4012
I48127
sS'GGGCGA'
p4013
I20149
sS'GCATCA'
p4014
I17955
sS'GGGCGG'
p4015
I71527
sS'TCTCTT'
p4016
I47195
sS'GTACAG'
p4017
I13486
sS'TCATAC'
p4018
I8980
sS'CAGAAT'
p4019
I30172
sS'ACGACT'
p4020
I4907
sS'TCTCTC'
p4021
I64752
sS'TCTCTA'
p4022
I26614
sS'TCTCTG'
p4023
I59438
sS'GGGCGT'
p4024
I18206
sS'CAGAAA'
p4025
I54104
sS'CAGAAC'
p4026
I29282
sS'ACGACG'
p4027
I3642
sS'CAGAAG'
p4028
I47181
sS'CCTTCA'
p4029
I35224
sS'CACTTT'
p4030
I34772
sS'CCTAAT'
p4031
I14551
sS'TGATCG'
p4032
I3901
sS'CACTTG'
p4033
I25714
sS'CCTAAC'
p4034
I14906
sS'CCTAAA'
p4035
I22098
sS'CACTTC'
p4036
I31756
sS'CCTAAG'
p4037
I19944
sS'CACTTA'
p4038
I17734
sS'GTCCCA'
p4039
I31852
sS'CTGCGG'
p4040
I33725
sS'AAGATT'
p4041
I21549
sS'AACTAG'
p4042
I13199
sS'CTCATG'
p4043
I22473
sS'GACTCG'
p4044
I9513
sS'CTCATC'
p4045
I25960
sS'GACTCC'
p4046
I29550
sS'CTCATA'
p4047
I12386
sS'GACTCA'
p4048
I23961
sS'ATAGGT'
p4049
I9661
sS'AGTCGG'
p4050
I9690
sS'AAGATG'
p4051
I27757
sS'GACTCT'
p4052
I24465
sS'GTCCCG'
p4053
I20466
sS'ATCGAA'
p4054
I3512
sS'ATCGAC'
p4055
I2657
sS'ATATTT'
p4056
I31887
sS'ACGGTA'
p4057
I3498
sS'GGACTC'
p4058
I26876
sS'ATAGTT'
p4059
I11752
sS'TACTGT'
p4060
I16233
sS'ATATTC'
p4061
I14760
sS'ATATTA'
p4062
I14322
sS'ATATTG'
p4063
I11939
sS'TACTGC'
p4064
I16026
sS'ATAGTC'
p4065
I7935
sS'TACTGG'
p4066
I16717
sS'ATAGTG'
p4067
I10955
sS'ATAGAC'
p4068
I8669
sS'CAGGCA'
p4069
I58722
sS'CAGGCC'
p4070
I64002
sS'CATCCG'
p4071
I8735
sS'AGGAAA'
p4072
I69330
sS'CATCCA'
p4073
I25360
sS'AGGAAC'
p4074
I30265
sS'CATCCC'
p4075
I36100
sS'TTATGA'
p4076
I13939
sS'CAAGCT'
p4077
I26500
sS'CGGAGT'
p4078
I12375
sS'TTATGG'
p4079
I12820
sS'CATCCT'
p4080
I33874
sS'AGGAAT'
p4081
I37177
sS'CAGGCT'
p4082
I62222
sS'ACGGAT'
p4083
I4865
sS'CGGAGA'
p4084
I18893
sS'CGGAGC'
p4085
I29481
sS'TTATGT'
p4086
I16379
sS'CGGAGG'
p4087
I33053
sS'ATGGAA'
p4088
I29499
sS'ATGGAC'
p4089
I13407
sS'ATGGAG'
p4090
I32761
sS'CGCTTG'
p4091
I11118
sS'CGCTTA'
p4092
I4902
sS'CGCTTC'
p4093
I16152
sS'ATGGAT'
p4094
I15604
sS'TGCGGC'
p4095
I20327
sS'CGCTTT'
p4096
I12027
sS'TCCCTA'
p4097
I23653
sS'ACTCGG'
p4098
I12530
sS'GATCGT'
p4099
I3713
sS'TTTGCC'
p4100
I29549
sS'GAAAAG'
p4101
I50828
sS'TAAACC'
p4102
I15346
sS'GAAAAC'
p4103
I35047
sS'ATAGAT'
p4104
I11453
sS'GAAAAA'
p4105
I56701
sS'GTTCCT'
p4106
I29981
sS'ACGGTT'
p4107
I5146
sS'GAAAAT'
p4108
I37779
sS'CTACTG'
p4109
I19546
sS'ACAAGG'
p4110
I27215
sS'GCCTAA'
p4111
I14393
sS'ACAAGA'
p4112
I24602
sS'ACAAGC'
p4113
I20338
sS'ACACGT'
p4114
I8106
sS'CTGCGT'
p4115
I14576
sS'GCGGAG'
p4116
I35302
sS'CATAAG'
p4117
I11751
sS'GCGGAA'
p4118
I13108
sS'CATAAA'
p4119
I21231
sS'GCGGAC'
p4120
I12878
sS'CATAAC'
p4121
I10098
sS'ACACGC'
p4122
I11959
sS'ACAAGT'
p4123
I17251
sS'ACACGA'
p4124
I6159
sS'ACACGG'
p4125
I11431
sS'CATAAT'
p4126
I13008
sS'GCGGAT'
p4127
I8579
sS'GCACAT'
p4128
I19411
sS'GTCCCC'
p4129
I43378
sS'ATCCCA'
p4130
I32512
sS'CTGCGA'
p4131
I13167
sS'CTGCGC'
p4132
I30112
sS'CGGCAA'
p4133
I8550
sS'CGGCAC'
p4134
I13160
sS'CGGCAG'
p4135
I27397
sS'CCTCCT'
p4136
I90053
sS'ATCAAA'
p4137
I21094
sS'AGCGCT'
p4138
I16629
sS'CGGCAT'
p4139
I7054
sS'CCTCCC'
p4140
I125566
sS'CCTCCA'
p4141
I61935
sS'CACGCC'
p4142
I22551
sS'CCTCCG'
p4143
I33228
sS'CGTGAT'
p4144
I6435
s.