(dp0
S'GAACGT'
p1
I6337
sS'CGTCGT'
p2
I3642
sS'CTTCTT'
p3
I42768
sS'CACCCT'
p4
I41432
sS'ATTGAA'
p5
I18119
sS'GAACGG'
p6
I8885
sS'GAACGC'
p7
I8974
sS'GAACGA'
p8
I5917
sS'CACCCA'
p9
I43319
sS'CTTCTA'
p10
I21478
sS'CACCCC'
p11
I59858
sS'CTTCTC'
p12
I53392
sS'CACCCG'
p13
I20984
sS'CTTCTG'
p14
I47169
sS'CATTAG'
p15
I14949
sS'CGTGTG'
p16
I14885
sS'TAAGGT'
p17
I13348
sS'CGTGTC'
p18
I9637
sS'CGTGTA'
p19
I4636
sS'AGGCAA'
p20
I32752
sS'GGAAAT'
p21
I36909
sS'TAAGGG'
p22
I18341
sS'CGTGTT'
p23
I8498
sS'TAAGGC'
p24
I15704
sS'TAAGGA'
p25
I22390
sS'GTCAAA'
p26
I17046
sS'GTCAAC'
p27
I10138
sS'GTCAAG'
p28
I16582
sS'CTGTCC'
p29
I42291
sS'TCAGAG'
p30
I44423
sS'CTGTCA'
p31
I31078
sS'CTGTCG'
p32
I10694
sS'GTATCT'
p33
I12749
sS'TCAGAA'
p34
I36547
sS'GTCAAT'
p35
I10152
sS'GTATCA'
p36
I9066
sS'TCAGAT'
p37
I23110
sS'GTATCG'
p38
I2022
sS'CTGTCT'
p39
I45284
sS'GGTGTC'
p40
I22995
sS'GGTGTA'
p41
I10680
sS'GGTGTG'
p42
I34530
sS'TATCCT'
p43
I15623
sS'CCGGGG'
p44
I48189
sS'TTCTGT'
p45
I40447
sS'ATTCCT'
p46
I37191
sS'CCGGGC'
p47
I50723
sS'CCGGGA'
p48
I35010
sS'TATCCA'
p49
I13263
sS'TATCCC'
p50
I13795
sS'TGGTTG'
p51
I21569
sS'TATCCG'
p52
I3228
sS'GGTGTT'
p53
I21508
sS'ATTCCG'
p54
I6727
sS'TTCTGG'
p55
I43201
sS'CCGGGT'
p56
I21229
sS'ATTCCC'
p57
I28361
sS'TTCTGC'
p58
I40153
sS'ATTCCA'
p59
I32070
sS'TTCTGA'
p60
I36820
sS'CTTGGA'
p61
I31658
sS'GGNCCC'
p62
I1
sS'CGTCAT'
p63
I5271
sS'CGCGGT'
p64
I12245
sS'AGGGAG'
p65
I84652
sS'ACGAAC'
p66
I4097
sS'CGCGGG'
p67
I38091
sS'CGCGGC'
p68
I36825
sS'CGCGGA'
p69
I15909
sS'NCCCAC'
p70
I1
sS'ACCTGT'
p71
I25788
sS'TCATGT'
p72
I17722
sS'CTCCGA'
p73
I14209
sS'TTACAG'
p74
I28768
sS'CTCCGC'
p75
I35297
sS'TTACAA'
p76
I21804
sS'TTACAC'
p77
I13752
sS'CTCCGG'
p78
I29106
sS'TCATGC'
p79
I18175
sS'ACCTGG'
p80
I45502
sS'CCGTGT'
p81
I11437
sS'TCATGG'
p82
I20981
sS'ACCTGC'
p83
I38499
sS'GCGCNN'
p84
I1
sS'ACCTGA'
p85
I26797
sS'TTACAT'
p86
I20456
sS'CTCGAT'
p87
I4820
sS'CTCCGT'
p88
I15163
sS'GCCTGA'
p89
I37116
sS'GCCTGC'
p90
I55650
sS'GCCTGG'
p91
I84478
sS'TAAAGG'
p92
I24533
sS'CAAATT'
p93
I26112
sS'TAAAGA'
p94
I27434
sS'GCATAA'
p95
I12290
sS'ACGGCT'
p96
I9831
sS'GCCTGT'
p97
I39715
sS'TCCCCG'
p98
I36737
sS'TAAAGT'
p99
I19955
sS'CAAATA'
p100
I24823
sS'ACGTCC'
p101
I8719
sS'CAAATC'
p102
I22313
sS'TGCAAT'
p103
I19202
sS'CAAATG'
p104
I31064
sS'AATACT'
p105
I16111
sS'TATCTC'
p106
I15880
sS'GGCATG'
p107
I24411
sS'GGCATA'
p108
I10826
sS'GGCATC'
p109
I21277
sS'AATACG'
p110
I4151
sS'AATACA'
p111
I22993
sS'AATACC'
p112
I13448
sS'GGCATT'
p113
I23775
sS'CGTCAG'
p114
I9958
sS'CTTGGT'
p115
I24694
sS'GAGCAC'
p116
I25783
sS'ACTGAT'
p117
I16250
sS'CATATC'
p118
I9479
sS'GAGCAG'
p119
I55095
sS'AGTAGT'
p120
I11698
sS'TCTCGC'
p121
I13684
sS'TCTCGA'
p122
I7423
sS'TCTCGG'
p123
I16713
sS'ACTGAG'
p124
I34028
sS'ATACAA'
p125
I16991
sS'TTTGGT'
p126
I24988
sS'ACTGAC'
p127
I18556
sS'GAGCAT'
p128
I18895
sS'AAGGTT'
p129
I20859
sS'GGGTCA'
p130
I26319
sS'GTGTCG'
p131
I6585
sS'TCGAAC'
p132
I4735
sS'TCGAAA'
p133
I5025
sS'GTGTCC'
p134
I26178
sS'CGCACG'
p135
I9877
sS'GTGTCA'
p136
I19759
sS'CTTGCT'
p137
I35577
sS'CCGTCT'
p138
I14752
sS'GTGTCT'
p139
I28148
sS'TTGAAG'
p140
I25172
sS'TCGAAT'
p141
I4151
sS'CTTGCG'
p142
I8793
sS'TGTTGT'
p143
I24013
sS'CTTGCA'
p144
I26344
sS'CTTGCC'
p145
I31906
sS'CGAAAG'
p146
I8409
sS'CGAAAA'
p147
I7415
sS'CGAAAC'
p148
I6215
sS'CACGGA'
p149
I12713
sS'AAATGC'
p150
I34145
sS'CACGGC'
p151
I16697
sS'AAATGA'
p152
I39582
sS'ACAGTC'
p153
I19544
sS'CACGGG'
p154
I16704
sS'ACAGTA'
p155
I16225
sS'TAGAGC'
p156
I16673
sS'CGAAAT'
p157
I5274
sS'ACAGTT'
p158
I21624
sS'AATCAG'
p159
I25832
sS'CACGGT'
p160
I10095
sS'AAATGT'
p161
I36424
sS'AATCAC'
p162
I20372
sS'TTTGTA'
p163
I26714
sS'TCTAGT'
p164
I14826
sS'TTGCCG'
p165
I8547
sS'TTGCCA'
p166
I26913
sS'TTGCCC'
p167
I29658
sS'GGGTAC'
p168
I10571
sS'TCTAGG'
p169
I22055
sS'GGGTAA'
p170
I15552
sS'TCTAGA'
p171
I18767
sS'GGGTAG'
p172
I20070
sS'TCTAGC'
p173
I15387
sS'ATACGG'
p174
I3298
sS'GGCTCC'
p175
I62936
sS'TGGGCC'
p176
I45944
sS'TCGGGC'
p177
I16445
sS'TCGCCC'
p178
I20134
sS'AGNNNN'
p179
I1
sS'TCGCCA'
p180
I10435
sS'ATAGTC'
p181
I8012
sS'TCGCCG'
p182
I11698
sS'GGTAAT'
p183
I11965
sS'ACCCAT'
p184
I16457
sS'ACCCAC'
p185
I30123
sS'GGTAAC'
p186
I11599
sS'ACCCAA'
p187
I22741
sS'AGATGG'
p188
I35908
sS'ACCCAG'
p189
I48211
sS'GGTAAG'
p190
I15997
sS'TCGCCT'
p191
I13800
sS'AGATGC'
p192
I24749
sS'CCCCAT'
p193
I35958
sS'TTGGGT'
p194
I22827
sS'CACTAG'
p195
I16149
sS'CACTAA'
p196
I14639
sS'CACTAC'
p197
I11641
sS'CCCCAA'
p198
I44999
sS'CCCCAC'
p199
I70156
sS'CCCCAG'
p200
I88779
sS'CACTAT'
p201
I10952
sS'TTGGGG'
p202
I44972
sS'TCGGTT'
p203
I6391
sS'TTGGGA'
p204
I37504
sS'TTGGGC'
p205
I26511
sS'TGCCTG'
p206
I58716
sS'TGCAGA'
p207
I44747
sS'TTTCTG'
p208
I54085
sS'TGCAGC'
p209
I50702
sS'TTTCTA'
p210
I31916
sS'TGCCTA'
p211
I18644
sS'TGCAGG'
p212
I55893
sS'ACGCCT'
p213
I13382
sS'TTTCTN'
p214
I1
sS'TCAGAC'
p215
I22858
sS'TTTCTT'
p216
I71101
sS'TGCCTT'
p217
I41000
sS'TGCAGT'
p218
I36925
sS'ACGATG'
p219
I5532
sS'TAGTGC'
p220
I10747
sS'AAGGAA'
p221
I59940
sS'AAGGAC'
p222
I25939
sS'AAGGAG'
p223
I53656
sS'ATATGC'
p224
I11537
sS'GTTCCA'
p225
I21956
sS'ATATGA'
p226
I12143
sS'TACGAA'
p227
I3309
sS'ATATGG'
p228
I11275
sS'TGTCGA'
p229
I3590
sS'GATGGA'
p230
I26585
sS'AAGGAT'
p231
I23258
sS'CTATCA'
p232
I11294
sS'TGGTTT'
p233
I33415
sS'ATATGT'
p234
I14347
sS'GGTCCC'
p235
I39076
sS'GCCCAG'
p236
I80095
sS'GGTCCA'
p237
I19620
sS'GCCCAA'
p238
I26048
sS'GGTCCG'
p239
I12610
sS'GCCCAC'
p240
I39351
sS'TGTGTC'
p241
I27512
sS'AGACCC'
p242
I33313
sS'CTTCGG'
p243
I12666
sS'AGACCG'
p244
I9395
sS'CTTCGC'
p245
I11824
sS'ATGCAA'
p246
I23924
sS'TCCGGG'
p247
I25948
sS'AGGTCA'
p248
I29630
sS'TCCGGC'
p249
I18541
sS'GGTCCT'
p250
I28591
sS'TCCGGA'
p251
I12992
sS'CTTAGC'
p252
I17681
sS'CTTCGT'
p253
I7924
sS'CTTAGA'
p254
I18996
sS'TCTTGC'
p255
I27156
sS'CTTAGG'
p256
I19944
sS'ATTGTC'
p257
I14283
sS'AGACCT'
p258
I26484
sS'GCCTTT'
p259
I38327
sS'ATTTTG'
p260
I32316
sS'TCCAGG'
p261
I61274
sS'ATTTTA'
p262
I39617
sS'TCCAGA'
p263
I39296
sS'ATTTTC'
p264
I37742
sS'TCCAGC'
p265
I54082
sS'TAGCAG'
p266
I21315
sS'GATACT'
p267
I9857
sS'TAGCAC'
p268
I13527
sS'TAGCAA'
p269
I17450
sS'GAGGTT'
p270
I26597
sS'ATTTTT'
p271
I57827
sS'TAAATC'
p272
I17734
sS'TAGTGT'
p273
I11948
sS'GCCTTA'
p274
I15697
sS'TTGACA'
p275
I17394
sS'GCCTTC'
p276
I39198
sS'GATACG'
p277
I2934
sS'TAGCAT'
p278
I14068
sS'CATTGC'
p279
I18880
sS'GATACC'
p280
I8680
sS'GTGGGA'
p281
I44395
sS'TGAGCT'
p282
I35816
sS'ACGGAC'
p283
I6591
sS'GATCAT'
p284
I11611
sS'AAGACA'
p285
I33211
sS'AAGACC'
p286
I22673
sS'GTGGGC'
p287
I38756
sS'AAGACG'
p288
I9392
sS'ATGCAT'
p289
I18755
sS'TGAGCG'
p290
I13986
sS'TGAGCA'
p291
I32585
sS'TGAGCC'
p292
I43379
sS'AAGACT'
p293
I23396
sS'GCGGTC'
p294
I11886
sS'GCGGTA'
p295
I5415
sS'GCGGTG'
p296
I24097
sS'CTATCG'
p297
I2454
sS'CGGTGT'
p298
I9418
sS'TCGTTA'
p299
I3628
sS'TCGTTC'
p300
I5901
sS'ATGTGG'
p301
I26350
sS'ACTTGT'
p302
I17247
sS'GAGTTT'
p303
I28006
sS'TGTGTG'
p304
I72478
sS'GCGGTT'
p305
I8706
sS'ACTTGC'
p306
I19725
sS'ATGTGA'
p307
I23743
sS'ACTTGA'
p308
I20280
sS'CGGTGG'
p309
I22962
sS'CTCGAG'
p310
I10899
sS'CGGTGA'
p311
I12118
sS'CGGTGC'
p312
I16589
sS'TTCCTA'
p313
I27328
sS'AACGTT'
p314
I6282
sS'TTCCTC'
p315
I59161
sS'CTTCCG'
p316
I17031
sS'TGGGTT'
p317
I28886
sS'TTCCTG'
p318
I64473
sS'TCCTTT'
p319
I52453
sS'CAGTTG'
p320
I21410
sS'TAGACG'
p321
I4022
sS'TTCCTT'
p322
I60606
sS'TAGACC'
p323
I10080
sS'TAGACA'
p324
I13862
sS'TCCTTG'
p325
I35863
sS'TCCTTA'
p326
I22701
sS'TCCTTC'
p327
I52169
sS'ATCTCT'
p328
I29788
sS'GATGGG'
p329
I35362
sS'ACCGTT'
p330
I4881
sS'TGGCGC'
p331
I20939
sS'TGGCGA'
p332
I10453
sS'TGGCGG'
p333
I25791
sS'ATCTCG'
p334
I7563
sS'ANCTTA'
p335
I1
sS'ATCTCA'
p336
I25953
sS'ATCTCC'
p337
I28093
sS'GGCCAA'
p338
I30392
sS'ACGGAG'
p339
I15140
sS'GGCCAC'
p340
I41241
sS'ACCGTG'
p341
I10058
sS'ACCGTA'
p342
I3248
sS'GGCCAG'
p343
I64872
sS'ACCGTC'
p344
I6827
sS'ACTGAA'
p345
I28207
sS'AGATTA'
p346
I15549
sS'NGATCC'
p347
I1
sS'GGCAGT'
p348
I32274
sS'CCATAA'
p349
I12829
sS'CAAAGG'
p350
I40170
sS'CCATAC'
p351
I9248
sS'CTAACT'
p352
I14689
sS'GAAACG'
p353
I11730
sS'CAAAGC'
p354
I35664
sS'CCATAG'
p355
I12957
sS'GGCAGA'
p356
I51438
sS'GGCAGC'
p357
I64898
sS'CGTGAG'
p358
I13699
sS'GGCAGG'
p359
I83247
sS'CAACGC'
p360
I7557
sS'CTAACA'
p361
I16290
sS'CAACGA'
p362
I4965
sS'CTAACC'
p363
I13398
sS'CCATAT'
p364
I11136
sS'CTAACG'
p365
I4193
sS'GGGGGT'
p366
I41458
sS'TACGCT'
p367
I3597
sS'AGATTG'
p368
I16408
sS'CGATCT'
p369
I6523
sS'CTCTAG'
p370
I24234
sS'CTCTAA'
p371
I21451
sS'CTCTAC'
p372
I19892
sS'GGGGGG'
p373
I43906
sS'CGATCC'
p374
I6800
sS'TACGCC'
p375
I4091
sS'GGGGGC'
p376
I71927
sS'CGATCG'
p377
I2281
sS'GGGGGA'
p378
I57267
sS'TACGCG'
p379
I2458
sS'CTCTAT'
p380
I15456
sS'CAGACC'
p381
I31911
sS'CAGACA'
p382
I37419
sS'CAGACG'
p383
I13075
sS'CGCTAA'
p384
I4810
sS'TAGTTG'
p385
I11200
sS'GCTAAT'
p386
I15574
sS'TGGNGC'
p387
I1
sS'TAGTTC'
p388
I12260
sS'TAGTTA'
p389
I11067
sS'CAGACT'
p390
I28535
sS'GCTAAG'
p391
I17551
sS'TAGTTT'
p392
I19884
sS'GCTAAC'
p393
I10337
sS'GCTAAA'
p394
I17492
sS'CGAGTA'
p395
I4304
sS'TAAGTG'
p396
I17734
sS'GCGAAA'
p397
I7252
sS'AACCCT'
p398
I26025
sS'ATCNNN'
p399
I1
sS'GTCCAC'
p400
I17960
sS'AACCCC'
p401
I30639
sS'AACCCA'
p402
I28869
sS'TGCATA'
p403
I16533
sS'ATGCAC'
p404
I16577
sS'TGCATC'
p405
I20178
sS'AGAATA'
p406
I21529
sS'CTACAA'
p407
I16259
sS'CTACAC'
p408
I12952
sS'AGTTTC'
p409
I30454
sS'AGTTTA'
p410
I20466
sS'CCCAGA'
p411
I59769
sS'CCCAGC'
p412
I95024
sS'CCCAGG'
p413
I99561
sS'AACTGT'
p414
I21562
sS'AGTTTT'
p415
I33510
sS'CTACAT'
p416
I13379
sS'CGAGTC'
p417
I9516
sS'CCCAGT'
p418
I39499
sS'TTGACG'
p419
I4326
sS'TATAAT'
p420
I14756
sS'CGCATA'
p421
I3188
sS'ATACTG'
p422
I13712
sS'CGCATC'
p423
I8129
sS'ATACTA'
p424
I8240
sS'ATACTC'
p425
I9808
sS'CGCATG'
p426
I7840
sS'GCGCAA'
p427
I7380
sS'GCGAAT'
p428
I4545
sS'ATACTT'
p429
I14318
sS'CGCATT'
p430
I6690
sS'AGGCCC'
p431
I52295
sS'GCTCCG'
p432
I29465
sS'TATTGT'
p433
I15492
sS'GCTCCC'
p434
I61711
sS'GCTCCA'
p435
I42063
sS'CCTACT'
p436
I18872
sS'TGTACT'
p437
I13247
sS'TTTAGT'
p438
I19760
sS'TATTGG'
p439
I12065
sS'GCTCCT'
p440
I51741
sS'AGGCCG'
p441
I28194
sS'TATTGA'
p442
I13328
sS'TTTAGG'
p443
I22094
sS'TGTACG'
p444
I3307
sS'CCTACG'
p445
I5770
sS'TGTACA'
p446
I12922
sS'TTTAGC'
p447
I17280
sS'TGTACC'
p448
I11371
sS'CCTACC'
p449
I21828
sS'TTCGCG'
p450
I5224
sS'TTCGCA'
p451
I6109
sS'CTGCGC'
p452
I30031
sS'AGTATC'
p453
I9950
sS'GACTAA'
p454
I10900
sS'AGTATA'
p455
I9254
sS'GACTAC'
p456
I9329
sS'AGTATG'
p457
I10801
sS'TTTGGA'
p458
I32851
sS'TTTGGC'
p459
I25521
sS'TTCGCT'
p460
I8413
sS'GATCNN'
p461
I1
sS'GTGTAT'
p462
I12776
sS'GTCAGC'
p463
I25708
sS'GACTAT'
p464
I7931
sS'AGTATT'
p465
I16338
sS'TTACTC'
p466
I15489
sS'TTACTA'
p467
I12626
sS'TTACTG'
p468
I20251
sS'ACCTTG'
p469
I25102
sS'ACCTTC'
p470
I26567
sS'ACCTTA'
p471
I13203
sS'CTAATA'
p472
I11275
sS'TTACTT'
p473
I22750
sS'ACCTTT'
p474
I25719
sS'ACAGGG'
p475
I41521
sS'CTGGGA'
p476
I77394
sS'CTGGGC'
p477
I80292
sS'ACAGGC'
p478
I39513
sS'TTATAT'
p479
I15991
sS'CTGGGG'
p480
I88452
sS'AGGACG'
p481
I15065
sS'GCAGCT'
p482
I53444
sS'CAGGAA'
p483
I64011
sS'TCGCTT'
p484
I9877
sS'CAGGAG'
p485
I75636
sS'AGGACA'
p486
I36056
sS'GCGCAT'
p487
I7856
sS'TTATAC'
p488
I9325
sS'ACAGGT'
p489
I25884
sS'CTGGGT'
p490
I48426
sS'TTATAG'
p491
I12049
sS'TCGCTG'
p492
I15309
sS'GAGTTG'
p493
I22044
sS'GCAGCG'
p494
I32668
sS'AGGACT'
p495
I28963
sS'GCAGCA'
p496
I53002
sS'TCGCTA'
p497
I3997
sS'CAGGAT'
p498
I31377
sS'CCTCAG'
p499
I61557
sS'CCTCAA'
p500
I28445
sS'CCTCAC'
p501
I41187
sS'TATGTT'
p502
I15645
sS'ATGGGC'
p503
I21393
sS'TCTTTG'
p504
I38259
sS'ATGGGA'
p505
I29454
sS'TCTTTA'
p506
I27757
sS'ATGGGG'
p507
I36028
sS'TCTTTC'
p508
I49701
sS'GCTAGA'
p509
I15783
sS'CCTCAT'
p510
I28570
sS'TCTTTT'
p511
I56995
sS'TATGTG'
p512
I17067
sS'TATGTA'
p513
I13830
sS'ATGGGT'
p514
I16617
sS'TATGTC'
p515
I10129
sS'GAAAGA'
p516
I49580
sS'ATCAAG'
p517
I16480
sS'GAAAGC'
p518
I34608
sS'ATCAAC'
p519
I11242
sS'GAAAGG'
p520
I50616
sS'ATCAAA'
p521
I21003
sS'GTCAGG'
p522
I33797
sS'CATGAG'
p523
I22480
sS'ATCAAT'
p524
I12812
sS'TCAAAC'
p525
I20601
sS'GAAAGT'
p526
I27930
sS'CATGAA'
p527
I22125
sS'GTAGCG'
p528
I5288
sS'CAAGTT'
p529
I21716
sS'GCGGCT'
p530
I28156
sS'GTAGCC'
p531
I14408
sS'GCTTTC'
p532
I34487
sS'ACGTGT'
p533
I8107
sS'GCTTTT'
p534
I38296
sS'CAAGTG'
p535
I25737
sS'GTAGCT'
p536
I17230
sS'GCGGCC'
p537
I45572
sS'CAAGTC'
p538
I21383
sS'GCGGCA'
p539
I19810
sS'CAAGTA'
p540
I15094
sS'AACGGT'
p541
I4972
sS'TAATCG'
p542
I2886
sS'CTTGTG'
p543
I25918
sS'TAATCA'
p544
I15292
sS'TAATCC'
p545
I18217
sS'CTAAGC'
p546
I16577
sS'CGGCCC'
p547
I43467
sS'CGACTA'
p548
I2773
sS'AAAATT'
p549
I38911
sS'GATTTG'
p550
I22225
sS'CGGCCG'
p551
I32908
sS'TCGTGA'
p552
I5806
sS'ATGAAG'
p553
I26216
sS'GGTCTG'
p554
I31851
sS'TAATCT'
p555
I15649
sS'TGCGAC'
p556
I6082
sS'GGTCTC'
p557
I32658
sS'GGTCTA'
p558
I9758
sS'AAAATG'
p559
I47283
sS'AAAATC'
p560
I30484
sS'CGGCCT'
p561
I28190
sS'TTCAGC'
p562
I32869
sS'TTCAGA'
p563
I35856
sS'TTCAGG'
p564
I37428
sS'GAACAT'
p565
I15956
sS'TCGTCG'
p566
I3533
sS'TGCCAA'
p567
I24768
sS'TCGGGA'
p568
I14190
sS'GAACAA'
p569
I23479
sS'ATCCCG'
p570
I10990
sS'GAACAC'
p571
I18712
sS'TCGTCT'
p572
I7349
sS'GAACAG'
p573
I29196
sS'ATCCCA'
p574
I32516
sS'AACGGA'
p575
I7528
sS'CACCAC'
p576
I36791
sS'CACCAA'
p577
I25144
sS'CACCAG'
p578
I42617
sS'TCCGTG'
p579
I12666
sS'AACGGG'
p580
I9622
sS'TCCGTC'
p581
I10704
sS'GAGTTA'
p582
I14486
sS'TCCGTA'
p583
I4345
sS'ACCAGA'
p584
I27175
sS'CACCAT'
p585
I23895
sS'TCCGTT'
p586
I7585
sS'AACATA'
p587
I15635
sS'AACATC'
p588
I17728
sS'GTCAGN'
p589
I1
sS'CAGTCG'
p590
I8326
sS'GCACGG'
p591
I15008
sS'TCAGCC'
p592
I45986
sS'GCACGA'
p593
I7129
sS'CAGTCC'
p594
I31500
sS'GCACGC'
p595
I14448
sS'CAGTCA'
p596
I26957
sS'GCAAGC'
p597
I22781
sS'GCACGT'
p598
I9891
sS'CAGTCT'
p599
I30436
sS'TAAAGC'
p600
I20187
sS'TCAGCT'
p601
I38794
sS'GTCAGT'
p602
I19109
sS'TATCTA'
p603
I10738
sS'GTATAC'
p604
I5352
sS'TTCCGT'
p605
I8559
sS'GTATAA'
p606
I9285
sS'GTATAG'
p607
I6315
sS'CCGGAA'
p608
I14706
sS'CCGGAC'
p609
I13715
sS'CCGGAG'
p610
I29162
sS'TATCAT'
p611
I11163
sS'CTCGTA'
p612
I3535
sS'TTCCGG'
p613
I14533
sS'TTCCGA'
p614
I7908
sS'TTCCGC'
p615
I13111
sS'GTATAT'
p616
I9351
sS'TATCAC'
p617
I10847
sS'TATCAA'
p618
I11543
sS'CGTCTG'
p619
I13223
sS'CCGGAT'
p620
I8094
sS'CTCTTC'
p621
I48322
sS'TGTTAT'
p622
I17248
sS'CTCTTA'
p623
I20978
sS'CTCTTG'
p624
I33381
sS'AGGGCT'
p625
I49631
sS'TACGTA'
p626
I2940
sS'CTGACA'
p627
I29110
sS'TACGTC'
p628
I2935
sS'TCTGGT'
p629
I27544
sS'AACAAA'
p630
I52098
sS'CGCGAT'
p631
I4523
sS'TACGTG'
p632
I5308
sS'TGTTAG'
p633
I16342
sS'GCTGTT'
p634
I30895
sS'TGTTAC'
p635
I14762
sS'CTCTTT'
p636
I48741
sS'TGTTAA'
p637
I22356
sS'TCTGGG'
p638
I59506
sS'CGCGAC'
p639
I7583
sS'GATATT'
p640
I13238
sS'TCTGGC'
p641
I39546
sS'TACGTT'
p642
I3912
sS'CGCGAG'
p643
I13316
sS'AGTCGT'
p644
I4904
sS'TTACCT'
p645
I20227
sS'CTCCAT'
p646
I32773
sS'TTACCG'
p647
I4774
sS'CTCCAC'
p648
I45364
sS'AGTCGG'
p649
I9630
sS'TTACCC'
p650
I15513
sS'CTCCAG'
p651
I73386
sS'TTACCA'
p652
I17062
sS'AGTCGC'
p653
I8080
sS'GGCTAT'
p654
I11176
sS'CCGACT'
p655
I9684
sS'GCCTAC'
p656
I12725
sS'AATGCA'
p657
I30877
sS'GCCTAG'
p658
I20001
sS'CCGACA'
p659
I8280
sS'GATATC'
p660
I6925
sS'CCGACC'
p661
I13942
sS'CCGACG'
p662
I7253
sS'NCTTAA'
p663
I1
sS'GCCTAT'
p664
I10898
sS'AAGCTA'
p665
I16385
sS'ACGCGG'
p666
I11702
sS'CCCGAG'
p667
I28131
sS'CTCGTT'
p668
I7503
sS'TCAGCG'
p669
I14416
sS'CTAAGT'
p670
I14648
sS'CCCGAA'
p671
I11933
sS'CGCACA'
p672
I13448
sS'ATACAC'
p673
I12665
sS'CGCACC'
p674
I17036
sS'GGGTCG'
p675
I14972
sS'ACTGCT'
p676
I29709
sS'AGGGCC'
p677
I49432
sS'ATTGCC'
p678
I15687
sS'GGGTCC'
p679
I37070
sS'CTCACT'
p680
I38753
sS'GGGTCT'
p681
I33302
sS'ACTGCA'
p682
I36842
sS'TTTGTC'
p683
I26878
sS'ACTGCC'
p684
I32191
sS'CGCACT'
p685
I10079
sS'ATACAT'
p686
I15199
sS'ACTGCG'
p687
I12405
sS'CTCACC'
p688
I41287
sS'CTCACA'
p689
I35378
sS'CTCACG'
p690
I13471
sS'GTGGGT'
p691
I30294
sS'GTGAGG'
p692
I41701
sS'GATTTT'
p693
I30603
sS'ACAATT'
p694
I18038
sS'GTGAGC'
p695
I33820
sS'TAGTGA'
p696
I14526
sS'GTGAGA'
p697
I30733
sS'TCGACG'
p698
I2392
sS'TCGACA'
p699
I3584
sS'TCGACC'
p700
I4992
sS'ACAATA'
p701
I15200
sS'GTGAGT'
p702
I24417
sS'GTGGGG'
p703
I70653
sS'GATTTC'
p704
I23675
sS'GATTTA'
p705
I17760
sS'TCGACT'
p706
I4171
sS'ACGTAA'
p707
I4289
sS'CTGGTT'
p708
I29543
sS'TTGAGT'
p709
I19398
sS'CGAACG'
p710
I3362
sS'CGAACC'
p711
I6577
sS'CGAACA'
p712
I5111
sS'CGGNCC'
p713
I1
sS'CTGGTG'
p714
I42501
sS'CTGGTA'
p715
I17143
sS'CTGGTC'
p716
I30283
sS'CTGCAA'
p717
I35911
sS'CGAACT'
p718
I6342
sS'CGCTGA'
p719
I14369
sS'TTGCAT'
p720
I24297
sS'GACGAG'
p721
I9491
sS'NNGAAT'
p722
I2
sS'CGTCTT'
p723
I9377
sS'TTGCAG'
p724
I35705
sS'ACTCCT'
p725
I33600
sS'TTGCAC'
p726
I17648
sS'TTGCAA'
p727
I24285
sS'AAGATC'
p728
I16528
sS'ACGTAC'
p729
I3022
sS'TCCATC'
p730
I26868
sS'TCGCAT'
p731
I4319
sS'GTCGTG'
p732
I6451
sS'GTCGTA'
p733
I2376
sS'GTCGTC'
p734
I5962
sS'CCGTTT'
p735
I10252
sS'GAGCAA'
p736
I27774
sS'ATATCG'
p737
I2067
sS'GTCGTT'
p738
I4677
sS'TCGCAG'
p739
I13164
sS'TCCATG'
p740
I23757
sS'TCGCAC'
p741
I6640
sS'CCGTTG'
p742
I6709
sS'CCGTTA'
p743
I3900
sS'CCGTTC'
p744
I8735
sS'GATCGG'
p745
I5337
sS'AATGCT'
p746
I26022
sS'GGTACG'
p747
I3477
sS'GGTACA'
p748
I11448
sS'GGTACC'
p749
I10897
sS'TATTTG'
p750
I24956
sS'CCAGTT'
p751
I27093
sS'TATTTC'
p752
I27360
sS'TATTTA'
p753
I30282
sS'CCCCCT'
p754
I57533
sS'GGTACT'
p755
I10769
sS'AATGCG'
p756
I6754
sS'AATGCC'
p757
I23724
sS'GAAGTC'
p758
I22641
sS'CCCCCC'
p759
I44307
sS'CCCCCA'
p760
I71106
sS'TATTTT'
p761
I50453
sS'CCCCCG'
p762
I42405
sS'CTTGAG'
p763
I29794
sS'ATGATG'
p764
I17817
sS'CTTGAC'
p765
I16640
sS'GCGTTA'
p766
I3967
sS'ATGATC'
p767
I11543
sS'TGCAAC'
p768
I18011
sS'TGCAAA'
p769
I38222
sS'TGCAAG'
p770
I26245
sS'GAAGTG'
p771
I31757
sS'ATGATT'
p772
I17017
sS'CTTGAT'
p773
I16191
sS'CGAATC'
p774
I4823
sS'TTGAGG'
p775
I28411
sS'GCCATT'
p776
I23004
sS'CAATGT'
p777
I15899
sS'TTGAGC'
p778
I21817
sS'TTGAGA'
p779
I30314
sS'GAGAAT'
p780
I29102
sS'TGTCTT'
p781
I33300
sS'CGAATA'
p782
I3208
sS'AGTAGC'
p783
I16831
sS'AAGGCC'
p784
I34614
sS'ATAACC'
p785
I10589
sS'AAGGCA'
p786
I40974
sS'ATAACA'
p787
I17317
sS'AAGGCG'
p788
I16667
sS'ATAACG'
p789
I3404
sS'TATGCT'
p790
I13028
sS'TCCATT'
p791
I27828
sS'TGTCTG'
p792
I37485
sS'GAGAAG'
p793
I53380
sS'AGTAGA'
p794
I17905
sS'GAGAAA'
p795
I57787
sS'TGTCTC'
p796
I37731
sS'GAGAAC'
p797
I26289
sS'TGTCTA'
p798
I14012
sS'TGTGGC'
p799
I36952
sS'TGTGGA'
p800
I32025
sS'TGTGGG'
p801
I45315
sS'ATAACT'
p802
I13426
sS'AGTAGG'
p803
I19022
sS'CTGTAA'
p804
I29347
sS'GCCCCG'
p805
I57023
sS'ACCAAG'
p806
I24896
sS'GGTCAG'
p807
I32876
sS'ACCAAA'
p808
I25303
sS'AAGCAG'
p809
I46550
sS'ACCAAC'
p810
I15681
sS'GGTCAC'
p811
I23419
sS'GGTCAT'
p812
I14824
sS'ACCAAT'
p813
I13620
sS'GCCCCT'
p814
I60746
sS'CGTGCG'
p815
I10278
sS'GATAGG'
p816
I12074
sS'TTTTGC'
p817
I30828
sS'TCTTAC'
p818
I15354
sS'TTTTGA'
p819
I33446
sS'GTCGGA'
p820
I6947
sS'TTTTGG'
p821
I32312
sS'TCTTAG'
p822
I19084
sS'AATTGC'
p823
I16779
sS'TAGCCA'
p824
I18793
sS'TGGGGT'
p825
I42767
sS'TAGCCC'
p826
I16654
sS'GATAAT'
p827
I13048
sS'CGCTCA'
p828
I14003
sS'TAGCCG'
p829
I6465
sS'AATTGT'
p830
I18298
sS'AATCTT'
p831
I21535
sS'TCTTAT'
p832
I16909
sS'GTTATG'
p833
I10101
sS'CGCTCT'
p834
I18644
sS'TGGGGG'
p835
I70997
sS'GATAAC'
p836
I9150
sS'TAGCCT'
p837
I17560
sS'TGGGGC'
p838
I59814
sS'TGGGGA'
p839
I66544
sS'GATCCT'
p840
I20396
sS'AAGAAT'
p841
I31513
sS'GGGGTG'
p842
I59565
sS'CGAAGT'
p843
I6719
sS'CATTTG'
p844
I31188
sS'AAGAAC'
p845
I25185
sS'GATCCA'
p846
I16872
sS'AAGAAA'
p847
I70985
sS'GATCCC'
p848
I21729
sS'AAGAAG'
p849
I42266
sS'GATCCG'
p850
I8336
sS'GCCCCA'
p851
I59628
sS'ATGCCG'
p852
I7055
sS'TGTGGT'
p853
I28524
sS'CAAGGG'
p854
I34257
sS'CAAGGC'
p855
I34675
sS'GGTTCT'
p856
I24941
sS'CAAGGA'
p857
I35994
sS'TTGATA'
p858
I11708
sS'GGCGCN'
p859
I1
sS'GGTTCA'
p860
I18930
sS'GGTTCC'
p861
I26639
sS'CAAGGT'
p862
I24829
sS'TGCATT'
p863
I30994
sS'GGTTCG'
p864
I6424
sS'TAGGCA'
p865
I18532
sS'ATTATA'
p866
I14853
sS'ATTATC'
p867
I12927
sS'TAGAAT'
p868
I18484
sS'GATAGT'
p869
I7755
sS'ATTATG'
p870
I13009
sS'AGTCTT'
p871
I23803
sS'TAGAAA'
p872
I32200
sS'TAGAAC'
p873
I12987
sS'ATTATT'
p874
I25833
sS'TAGAAG'
p875
I21327
sS'AGTCTA'
p876
I11608
sS'AGTCTC'
p877
I28685
sS'TTTAAC'
p878
I20725
sS'AGTCTG'
p879
I28592
sS'TAACTC'
p880
I14685
sS'TAACTA'
p881
I10983
sS'TAACTG'
p882
I17511
sS'ATCTAT'
p883
I11450
sS'ACGCGT'
p884
I3768
sS'AGGTAT'
p885
I13596
sS'TAACTT'
p886
I18733
sS'ATCTAG'
p887
I12644
sS'ATCTAC'
p888
I10641
sS'ATCTAA'
p889
I13606
sS'CCATGT'
p890
I22897
sS'GCCCCC'
p891
I71717
sS'TGGAGG'
p892
I61914
sS'TGGAGA'
p893
I49765
sS'GGTCAA'
p894
I14125
sS'CCATGC'
p895
I23297
sS'CCATGA'
p896
I20775
sS'CCATGG'
p897
I30425
sS'TGGAGT'
p898
I33491
sS'ATTACG'
p899
I3063
sS'TCAGTA'
p900
I16935
sS'TCAGTC'
p901
I23200
sS'CTCTCT'
p902
I71722
sS'GGGGAT'
p903
I28912
sS'TCAGTG'
p904
I31277
sS'CGATAT'
p905
I2021
sS'GGGGAA'
p906
I56468
sS'GGGGAC'
p907
I43379
sS'CTCTCC'
p908
I73116
sS'TCAGTT'
p909
I26711
sS'GGGGAG'
p910
I93358
sS'ATGCAG'
p911
I31828
sS'CGATAG'
p912
I2583
sS'CGATAA'
p913
I2819
sS'ATGCTG'
p914
I30876
sS'CGATAC'
p915
I2107
sS'CTAAGG'
p916
I19648
sS'GTGTTT'
p917
I31649
sS'GCTACT'
p918
I17046
sS'GTGGTT'
p919
I22703
sS'GTGTTC'
p920
I19170
sS'GTGTTA'
p921
I13869
sS'GTGTTG'
p922
I20901
sS'CGTGCC'
p923
I14347
sS'GTGGTA'
p924
I13401
sS'GCTACA'
p925
I14835
sS'GTGGTC'
p926
I20188
sS'GCTACC'
p927
I13862
sS'GTGGTG'
p928
I36760
sS'GCTACG'
p929
I5165
sS'CGTGCA'
p930
I10906
sS'TTTCGT'
p931
I6561
sS'GATCGT'
p932
I3650
sS'TGCCCT'
p933
I48427
sS'AGCGTT'
p934
I7847
sS'AGGTAA'
p935
I20747
sS'TGCCCC'
p936
I51411
sS'TGCCCA'
p937
I44338
sS'TGCCCG'
p938
I22294
sS'TTTCGG'
p939
I8536
sS'AGCGTA'
p940
I3455
sS'AGCGTC'
p941
I10649
sS'AGCGTG'
p942
I12726
sS'GGCCCC'
p943
I68816
sS'GGCCCA'
p944
I45589
sS'CACGTG'
p945
I17072
sS'GGCCCG'
p946
I37968
sS'CACGTA'
p947
I5277
sS'CACGTC'
p948
I9914
sS'CTACGC'
p949
I5037
sS'ACGTGA'
p950
I8832
sS'GGGACT'
p951
I34050
sS'AAATGG'
p952
I34779
sS'CACGTT'
p953
I8919
sS'TTCACG'
p954
I8148
sS'TCTTAA'
p955
I23416
sS'GNCCCA'
p956
I1
sS'GGCCCT'
p957
I49481
sS'GGGACA'
p958
I38357
sS'AATTGA'
p959
I16730
sS'GGGACC'
p960
I39402
sS'AGGGAC'
p961
I37386
sS'GTCTCA'
p962
I28027
sS'CTACGT'
p963
I4511
sS'CTATAT'
p964
I8914
sS'GCTTCC'
p965
I49106
sS'AGAGAG'
p966
I71422
sS'AGAGAA'
p967
I59464
sS'AGAGAC'
p968
I36987
sS'TCTATA'
p969
I10739
sS'GTCTTT'
p970
I29327
sS'TCTATC'
p971
I12173
sS'TCTATG'
p972
I12793
sS'AGAGAT'
p973
I30210
sS'TCGTGC'
p974
I7155
sS'GTCTTG'
p975
I21887
sS'TCTATT'
p976
I18759
sS'GTCTTC'
p977
I25270
sS'GTCTTA'
p978
I12671
sS'GCAGAG'
p979
I66125
sS'GCTCAA'
p980
I21748
sS'GCTCAC'
p981
I33388
sS'GCAGAC'
p982
I27342
sS'GCAGAA'
p983
I40411
sS'GCTCAG'
p984
I50829
sS'AGACGT'
p985
I7426
sS'ATGCGT'
p986
I5124
sS'TTGCTG'
p987
I37114
sS'TTGCTA'
p988
I17681
sS'TTGCTC'
p989
I27859
sS'GCAGAT'
p990
I25936
sS'GCTCAT'
p991
I20206
sS'CGAATT'
p992
I4930
sS'GTACGG'
p993
I3294
sS'TTGCTT'
p994
I34556
sS'ATGCGG'
p995
I8556
sS'CGCTCC'
p996
I29932
sS'ATGCGC'
p997
I7876
sS'ATGCGA'
p998
I4503
sS'TGTAAG'
p999
I17464
sS'GGCTAG'
p1000
I17147
sS'GTTTGA'
p1001
I20353
sS'TGTAAC'
p1002
I14475
sS'GGCTAC'
p1003
I14357
sS'TGTAAA'
p1004
I29912
sS'GGCTAA'
p1005
I16560
sS'TTCGAG'
p1006
I7995
sS'TTGGTA'
p1007
I13198
sS'ACTGTC'
p1008
I19933
sS'TTGGTC'
p1009
I16899
sS'TTCGAC'
p1010
I3422
sS'ACTGTG'
p1011
I30551
sS'AATCAA'
p1012
I21242
sS'GACTGC'
p1013
I24026
sS'ATGCTA'
p1014
I14117
sS'TGTAAT'
p1015
I23218
sS'GACTGG'
p1016
I30129
sS'TTCGAT'
p1017
I3510
sS'TTGGTT'
p1018
I24226
sS'ACTGTT'
p1019
I21097
sS'GTTTCT'
p1020
I38865
sS'GAATGA'
p1021
I27954
sS'ATAATT'
p1022
I20580
sS'CCTTTT'
p1023
I46643
sS'GTTTCG'
p1024
I6244
sS'GTTTCC'
p1025
I36403
sS'GATAAA'
p1026
I19757
sS'ATAATG'
p1027
I15643
sS'CCTTTA'
p1028
I24451
sS'CCTTTC'
p1029
I51236
sS'ATAATC'
p1030
I11943
sS'ATAATA'
p1031
I18452
sS'CCTTTG'
p1032
I40267
sS'ACAGAA'
p1033
I39644
sS'CTCTCG'
p1034
I15309
sS'ACAGAC'
p1035
I26861
sS'ACAGAG'
p1036
I49173
sS'TTATCT'
p1037
I21937
sS'CTGGAC'
p1038
I30166
sS'CTGGAA'
p1039
I52320
sS'CTGGAG'
p1040
I73472
sS'ACAGAT'
p1041
I24239
sS'GATAAG'
p1042
I12931
sS'CCTTGC'
p1043
I32825
sS'TTATCA'
p1044
I15667
sS'CTGGAT'
p1045
I27023
sS'TTATCC'
p1046
I14129
sS'CCAATG'
p1047
I16789
sS'AAACCG'
p1048
I8807
sS'ATTTGT'
p1049
I26831
sS'CCAATC'
p1050
I17590
sS'AAACCC'
p1051
I31422
sS'CCAATA'
p1052
I11822
sS'TGTCGG'
p1053
I8102
sS'GAGATC'
p1054
I19730
sS'CCCTAT'
p1055
I13673
sS'GAGATA'
p1056
I16054
sS'TGTCGC'
p1057
I9152
sS'GAGATG'
p1058
I33338
sS'AACGAC'
p1059
I4741
sS'AAACCT'
p1060
I29087
sS'CCAATT'
p1061
I16383
sS'ATTTGC'
p1062
I25692
sS'GTCGAT'
p1063
I2658
sS'ATTTGG'
p1064
I26914
sS'CCCTAG'
p1065
I24516
sS'TGTCGT'
p1066
I5120
sS'CCCTAC'
p1067
I20589
sS'GAGATT'
p1068
I22942
sS'CCCTAA'
p1069
I20909
sS'CATTAT'
p1070
I15702
sS'TGTTTG'
p1071
I35448
sS'TGGATT'
p1072
I23066
sS'ATCACA'
p1073
I23104
sS'ATCACC'
p1074
I19436
sS'CATGCT'
p1075
I23417
sS'TGACAC'
p1076
I19856
sS'TGACAA'
p1077
I22014
sS'TGGATA'
p1078
I13439
sS'AGGAAC'
p1079
I29991
sS'TGGATC'
p1080
I16828
sS'CATTAA'
p1081
I18909
sS'TGGATG'
p1082
I25350
sS'CATAGC'
p1083
I12765
sS'TGACAT'
p1084
I20077
sS'CATGCC'
p1085
I24451
sS'ATCACT'
p1086
I20278
sS'CATGCG'
p1087
I7881
sS'GTAGAA'
p1088
I16797
sS'GTAGAC'
p1089
I8736
sS'GTAGAG'
p1090
I20053
sS'ACAACA'
p1091
I23709
sS'ACAACC'
p1092
I16580
sS'GATTGC'
p1093
I12704
sS'ACAACG'
p1094
I5480
sS'TAAATT'
p1095
I26924
sS'ACTAAG'
p1096
I13833
sS'GTAGAT'
p1097
I10708
sS'TGCTAC'
p1098
I13885
sS'TTGCCT'
p1099
I33206
sS'ATGAGT'
p1100
I16609
sS'GATCAA'
p1101
I11971
sS'TTCAGT'
p1102
I28515
sS'ACAACT'
p1103
I17372
sS'ATACGC'
p1104
I2712
sS'TAATAG'
p1105
I12084
sS'AGTCCG'
p1106
I8815
sS'TAATAC'
p1107
I9941
sS'GTCCGA'
p1108
I6161
sS'TAATAA'
p1109
I22493
sS'GTCCGC'
p1110
I12877
sS'TGTTTA'
p1111
I26918
sS'CACATC'
p1112
I22283
sS'GTCCGT'
p1113
I6710
sS'TAATAT'
p1114
I14331
sS'ATTCGC'
p1115
I4595
sS'TTCTCC'
p1116
I54938
sS'ATTCGA'
p1117
I4188
sS'TTCTCA'
p1118
I41700
sS'ATCCAT'
p1119
I15614
sS'TTCTCG'
p1120
I10670
sS'TCGTAC'
p1121
I2181
sS'TACCTT'
p1122
I17216
sS'TCGTAA'
p1123
I3119
sS'TCGTAG'
p1124
I3770
sS'TCGTCA'
p1125
I4920
sS'GAACCT'
p1126
I20921
sS'ATCCAA'
p1127
I17022
sS'ATCCAC'
p1128
I18527
sS'TGAACC'
p1129
I18986
sS'TTCTCT'
p1130
I59817
sS'TGAACA'
p1131
I22011
sS'GAACCC'
p1132
I24889
sS'TACCTG'
p1133
I22243
sS'GAACCG'
p1134
I9342
sS'TACCTC'
p1135
I17040
sS'TCGTAT'
p1136
I2625
sS'ACCATC'
p1137
I17315
sS'ACCATA'
p1138
I9816
sS'ACCATG'
p1139
I20002
sS'ATGTTG'
p1140
I19483
sS'AGCTCT'
p1141
I41521
sS'TGTCCT'
p1142
I36068
sS'AGTGGT'
p1143
I22425
sS'CGTGGT'
p1144
I11759
sS'AGATGT'
p1145
I22209
sS'TGATGT'
p1146
I19491
sS'ATGTTT'
p1147
I28700
sS'ACCATT'
p1148
I16958
sS'AGTGGA'
p1149
I28792
sS'AGTGGC'
p1150
I34462
sS'AGCTCC'
p1151
I49658
sS'AGTGGG'
p1152
I41091
sS'CAGTAA'
p1153
I20496
sS'CAGTAC'
p1154
I12132
sS'AGTCAG'
p1155
I30537
sS'CAGTAG'
p1156
I19552
sS'TTTCAC'
p1157
I30506
sS'CAGTAT'
p1158
I13704
sS'AAAGTA'
p1159
I23084
sS'TGCCAG'
p1160
I43915
sS'CCGGCT'
p1161
I28456
sS'GATCTA'
p1162
I8674
sS'GATCTC'
p1163
I19483
sS'ATTGAC'
p1164
I10135
sS'GATCTG'
p1165
I22226
sS'TGTTTT'
p1166
I56443
sS'CCGGCC'
p1167
I47971
sS'CCGGCA'
p1168
I18987
sS'CCGGCG'
p1169
I28690
sS'ACTCTC'
p1170
I25338
sS'ATTAGC'
p1171
I15759
sS'TCCCTC'
p1172
I68949
sS'TGTCCG'
p1173
I9352
sS'TCCCTA'
p1174
I23706
sS'TTAATG'
p1175
I18957
sS'TCCCTG'
p1176
I67300
sS'GATCTT'
p1177
I16806
sS'ATAGAA'
p1178
I18914
sS'CACAAT'
p1179
I18187
sS'AAGTGC'
p1180
I26562
sS'TGTTCT'
p1181
I32439
sS'AAGTGG'
p1182
I30402
sS'TGATTG'
p1183
I18411
sS'TCTGAT'
p1184
I23695
sS'AGACTC'
p1185
I26156
sS'TGTTCA'
p1186
I22098
sS'CACAAG'
p1187
I25563
sS'TGTTCC'
p1188
I28514
sS'CACAAA'
p1189
I33828
sS'CACAAC'
p1190
I18009
sS'TGTTCG'
p1191
I5216
sS'TCTGAA'
p1192
I36264
sS'TGATTT'
p1193
I31095
sS'AGACTA'
p1194
I12603
sS'TCTGAG'
p1195
I43202
sS'CGCGCC'
p1196
I37870
sS'CGCGCA'
p1197
I15213
sS'GGTAAA'
p1198
I18317
sS'CGCGCG'
p1199
I30496
sS'CTCCCT'
p1200
I84295
sS'AGCGGG'
p1201
I27315
sS'AGCGGA'
p1202
I14060
sS'ACCTCT'
p1203
I32837
sS'AGATGA'
p1204
I28049
sS'GACATT'
p1205
I20068
sS'CGCGCT'
p1206
I18555
sS'ACCTCC'
p1207
I43088
sS'ACCTCA'
p1208
I29921
sS'CTATTG'
p1209
I12618
sS'CTCCCA'
p1210
I70037
sS'CTCCCC'
p1211
I93035
sS'GCCTCT'
p1212
I53622
sS'TAAGCC'
p1213
I16158
sS'TAGCTC'
p1214
I16974
sS'CCCATG'
p1215
I26338
sS'GTGCGG'
p1216
I18255
sS'CCCATA'
p1217
I12972
sS'TAGCTG'
p1218
I23591
sS'CCCATC'
p1219
I35548
sS'TTGTTG'
p1220
I24579
sS'CCTGCT'
p1221
I62700
sS'GTCTAT'
p1222
I8674
sS'CCGAAT'
p1223
I5686
sS'CCCATT'
p1224
I28602
sS'CGGGAT'
p1225
I11059
sS'GCCTCG'
p1226
I26102
sS'GCCTCA'
p1227
I43332
sS'TAAGCT'
p1228
I14790
sS'GCCTCC'
p1229
I78509
sS'CCGAAC'
p1230
I6744
sS'CCTGCG'
p1231
I29750
sS'CCGAAA'
p1232
I8549
sS'CCGAAG'
p1233
I12827
sS'CCTGCC'
p1234
I82490
sS'CCTGCA'
p1235
I56183
sS'GTACTG'
p1236
I12062
sS'CCATTC'
p1237
I27194
sS'TATAAG'
p1238
I10333
sS'TATAAA'
p1239
I23463
sS'TATAAC'
p1240
I8370
sS'GCNNNN'
p1241
I1
sS'TAACGA'
p1242
I3493
sS'GTACTC'
p1243
I8920
sS'GTCGAA'
p1244
I3412
sS'GTTCTA'
p1245
I12912
sS'CCATTT'
p1246
I34727
sS'TCTACA'
p1247
I17310
sS'TCTACC'
p1248
I16623
sS'CTNCCA'
p1249
I1
sS'TCTACG'
p1250
I4204
sS'ACTTTC'
p1251
I27702
sS'CGCAAC'
p1252
I5863
sS'CGCAAA'
p1253
I7636
sS'ATACCG'
p1254
I2872
sS'GACGCG'
p1255
I11448
sS'ATACCA'
p1256
I12704
sS'ATACCC'
p1257
I10580
sS'TCTACT'
p1258
I17810
sS'CCGAGT'
p1259
I12530
sS'ATACCT'
p1260
I13502
sS'CGCAAT'
p1261
I4134
sS'TAGTAA'
p1262
I12431
sS'TGGGTG'
p1263
I43726
sS'TAGTAC'
p1264
I6054
sS'CTCAAG'
p1265
I29787
sS'GTTTTG'
p1266
I31657
sS'CTCAAA'
p1267
I34839
sS'TAGTAG'
p1268
I10715
sS'CTCAAC'
p1269
I18747
sS'GTGTGC'
p1270
I26952
sS'GTGTGA'
p1271
I26919
sS'GTGTGG'
p1272
I36730
sS'TAACGG'
p1273
I3942
sS'CTCAAT'
p1274
I16632
sS'TAGTAT'
p1275
I8302
sS'GTTCTC'
p1276
I26690
sS'GTGTGT'
p1277
I60544
sS'ATCTTT'
p1278
I27467
sS'GTTGGG'
p1279
I29896
sS'GTTGGA'
p1280
I19568
sS'GTTGGC'
p1281
I18351
sS'CCTTGG'
p1282
I43089
sS'CCTTGA'
p1283
I26489
sS'GCGTAT'
p1284
I2657
sS'AGGATT'
p1285
I25832
sS'GGACGT'
p1286
I8533
sS'GTTGGT'
p1287
I15869
sS'ATCTTG'
p1288
I20418
sS'ATCTTA'
p1289
I14539
sS'ATCTTC'
p1290
I21359
sS'CCTTGT'
p1291
I27219
sS'AGGATA'
p1292
I15385
sS'AAACTA'
p1293
I19511
sS'AGGATG'
p1294
I33864
sS'GACATG'
p1295
I16547
sS'ATCAGG'
p1296
I22328
sS'GACATC'
p1297
I15317
sS'GACATA'
p1298
I10072
sS'TCGGCG'
p1299
I11066
sS'GAATAT'
p1300
I14789
sS'GGTGCA'
p1301
I26303
sS'TCGGCC'
p1302
I19592
sS'TCGGCA'
p1303
I8260
sS'TTGCGA'
p1304
I4456
sS'TTGCGC'
p1305
I7386
sS'TTGCGG'
p1306
I9315
sS'GAATAG'
p1307
I14197
sS'TCGGCT'
p1308
I13983
sS'CATAGA'
p1309
I12902
sS'GAATAC'
p1310
I11097
sS'GAATAA'
p1311
I21061
sS'AAAGAG'
p1312
I48699
sS'GTACAT'
p1313
I8982
sS'GGACGA'
p1314
I9192
sS'TGCCTC'
p1315
I49919
sS'TTATAA'
p1316
I19488
sS'GAAATG'
p1317
I38873
sS'AATGAT'
p1318
I18461
sS'TTTCTC'
p1319
I58151
sS'GAAATC'
p1320
I23908
sS'ACCGGT'
p1321
I5053
sS'GAAATT'
p1322
I28183
sS'AATGAA'
p1323
I36465
sS'AATGAC'
p1324
I20012
sS'AATGAG'
p1325
I30837
sS'TGCACT'
p1326
I26379
sS'CTTGGC'
p1327
I37054
sS'GTATTG'
p1328
I9604
sS'GTCCTT'
p1329
I25750
sS'CTTGGG'
p1330
I43033
sS'ATACAG'
p1331
I17027
sS'TACTAA'
p1332
I12374
sS'GGGAAT'
p1333
I28274
sS'TTGAAT'
p1334
I22843
sS'CTTGGN'
p1335
I1
sS'GTCCTA'
p1336
I12333
sS'GTCCTC'
p1337
I32187
sS'TGCACG'
p1338
I10856
sS'CTTTTA'
p1339
I32072
sS'GTCCTG'
p1340
I38303
sS'TGCACC'
p1341
I26655
sS'TTGAAA'
p1342
I35122
sS'AGCCCG'
p1343
I27520
sS'AGCCCA'
p1344
I49192
sS'AGCCCC'
p1345
I65012
sS'TTAACT'
p1346
I19594
sS'ATAAAT'
p1347
I30106
sS'TGGTCG'
p1348
I6646
sS'TGGTCA'
p1349
I21655
sS'TGGTCC'
p1350
I23579
sS'ACGATT'
p1351
I3962
sS'GAGACT'
p1352
I28702
sS'ACGGGG'
p1353
I17939
sS'TGGTCT'
p1354
I27977
sS'ATAAAG'
p1355
I23976
sS'ATAAAA'
p1356
I39879
sS'ATAAAC'
p1357
I18363
sS'GAGACG'
p1358
I15936
sS'GATTCG'
p1359
I4981
sS'CTACAG'
p1360
I22581
sS'GAGACC'
p1361
I32618
sS'ACGATC'
p1362
I3709
sS'GAGACA'
p1363
I37428
sS'ACGATA'
p1364
I2255
sS'GGTTAC'
p1365
I10700
sS'ATGTGT'
p1366
I22908
sS'GGTTAA'
p1367
I14788
sS'ACCACT'
p1368
I22681
sS'GCACTT'
p1369
I26524
sS'CTTCCT'
p1370
I74860
sS'GAATGT'
p1371
I25338
sS'TAAACT'
p1372
I20329
sS'CGTGAA'
p1373
I8172
sS'CTCAGT'
p1374
I34326
sS'TCCGCT'
p1375
I14037
sS'CTTCCA'
p1376
I44614
sS'CTTCCC'
p1377
I74249
sS'ACCACC'
p1378
I30451
sS'CGTATG'
p1379
I2854
sS'ACCACA'
p1380
I28337
sS'GGTTAT'
p1381
I10533
sS'TCCGCC'
p1382
I27164
sS'TCCGCA'
p1383
I13009
sS'TCCGCG'
p1384
I15649
sS'AACGTC'
p1385
I5818
sS'TAAGTT'
p1386
I14392
sS'AACGTG'
p1387
I9304
sS'CGTGAC'
p1388
I8359
sS'GGTAGC'
p1389
I13935
sS'AGTGTG'
p1390
I29288
sS'TCTTCG'
p1391
I8544
sS'AGTGTA'
p1392
I12841
sS'TCTTCA'
p1393
I33346
sS'AGTGTC'
p1394
I20533
sS'TCTTCC'
p1395
I52805
sS'CGTGAT'
p1396
I6444
sS'TAAGTC'
p1397
I11913
sS'TAAGTA'
p1398
I13292
sS'CCGTGA'
p1399
I10346
sS'TCTTCT'
p1400
I43815
sS'AGTGTT'
p1401
I22905
sS'GTGCGC'
p1402
I16707
sS'TTGGCA'
p1403
I24886
sS'AAAGGT'
p1404
I25672
sS'TTGGCC'
p1405
I29826
sS'AGTAAC'
p1406
I13786
sS'TTAACG'
p1407
I4268
sS'TTGGCG'
p1408
I9952
sS'GACTTC'
p1409
I22885
sS'TCGAGT'
p1410
I5226
sS'GACTTA'
p1411
I11979
sS'GACTTG'
p1412
I21207
sS'AAAGGG'
p1413
I46062
sS'AAAGGA'
p1414
I52192
sS'TTGGCT'
p1415
I32825
sS'AAAGGC'
p1416
I37913
sS'AGTAAG'
p1417
I16995
sS'GTATGG'
p1418
I9439
sS'GACTTT'
p1419
I24003
sS'TTCTTT'
p1420
I67260
sS'CAAGAA'
p1421
I32598
sS'AGCGAG'
p1422
I18703
sS'CAAGAC'
p1423
I22110
sS'CAAGAG'
p1424
I32962
sS'TTCTTG'
p1425
I32824
sS'TTCTTC'
p1426
I43581
sS'TTCTTA'
p1427
I26562
sS'TAAACG'
p1428
I5683
sS'CAAGAT'
p1429
I20159
sS'CCCGAT'
p1430
I6637
sS'TACGGG'
p1431
I4822
sS'TACGGA'
p1432
I4166
sS'TACGGC'
p1433
I4101
sS'CTCAGA'
p1434
I43795
sS'TAGAGT'
p1435
I14139
sS'TACGGT'
p1436
I3209
sS'GAGTAT'
p1437
I9741
sS'AGGGCG'
p1438
I30335
sS'AGGGCA'
p1439
I48801
sS'CCCGAC'
p1440
I15929
sS'AGTTCG'
p1441
I6499
sS'TAGAGA'
p1442
I26620
sS'TAGAGG'
p1443
I24106
sS'CAATTA'
p1444
I15652
sS'GTGCTG'
p1445
I44983
sS'CGGGGT'
p1446
I23193
sS'GTGCTA'
p1447
I13383
sS'ATCTGT'
p1448
I24432
sS'GTGCTC'
p1449
I25502
sS'GGCGAC'
p1450
I14167
sS'TAGGAC'
p1451
I12436
sS'ATCTGA'
p1452
I23141
sS'GTGCTT'
p1453
I25675
sS'ATCTGC'
p1454
I25866
sS'TCGAGG'
p1455
I10636
sS'CGAATG'
p1456
I5691
sS'ATCTGG'
p1457
I27150
sS'ATCATA'
p1458
I10042
sS'GATAGC'
p1459
I8349
sS'ATCATC'
p1460
I14530
sS'GATAGA'
p1461
I11939
sS'AAGCAA'
p1462
I34490
sS'CAAACT'
p1463
I26581
sS'AAGCAC'
p1464
I25517
sS'GGCTCA'
p1465
I43349
sS'CATTTC'
p1466
I39057
sS'CTAGGT'
p1467
I15289
sS'CATTTA'
p1468
I27776
sS'AGCATT'
p1469
I25872
sS'GTTATA'
p1470
I8384
sS'CAAACA'
p1471
I35381
sS'AAGCAT'
p1472
I22011
sS'CAAACC'
p1473
I25591
sS'CATATT'
p1474
I16224
sS'ATCATT'
p1475
I18531
sS'CAAACG'
p1476
I8745
sS'CTAGGG'
p1477
I24771
sS'GTTATT'
p1478
I16814
sS'TGGAGC'
p1479
I42555
sS'CTAGGC'
p1480
I19964
sS'CATTTT'
p1481
I47571
sS'CTAGGA'
p1482
I22997
sS'AAGTTT'
p1483
I28203
sS'TACAGT'
p1484
I16070
sS'CTCGAA'
p1485
I8023
sS'GTGGCG'
p1486
I21192
sS'CTAAGA'
p1487
I18988
sS'GGGGCT'
p1488
I65297
sS'TACAGG'
p1489
I24805
sS'AAGTTG'
p1490
I20323
sS'AAGTTA'
p1491
I18623
sS'TACAGC'
p1492
I18063
sS'AAGTTC'
p1493
I20567
sS'TACAGA'
p1494
I23085
sS'GGGGCC'
p1495
I69512
sS'GTATGA'
p1496
I8974
sS'GGGGCA'
p1497
I51307
sS'GGGGCG'
p1498
I64083
sS'ACAGTG'
p1499
I30473
sS'TATATC'
p1500
I7796
sS'TATATA'
p1501
I17843
sS'TGTATA'
p1502
I12122
sS'TATATG'
p1503
I11199
sS'TCCGGT'
p1504
I8159
sS'TATATT'
p1505
I17738
sS'TGATGG'
p1506
I23672
sS'CATATG'
p1507
I12461
sS'TGATGC'
p1508
I17969
sS'AGGTCT'
p1509
I26319
sS'TGATGA'
p1510
I21353
sS'AGCATG'
p1511
I23567
sS'TGCCAT'
p1512
I25483
sS'ACTCTT'
p1513
I23812
sS'TGTTTC'
p1514
I36037
sS'CACATA'
p1515
I16860
sS'TTAATT'
p1516
I27979
sS'CACATG'
p1517
I25295
sS'TTTCAT'
p1518
I33160
sS'ATGAGA'
p1519
I26656
sS'ATGAGC'
p1520
I19752
sS'ATGAGG'
p1521
I28660
sS'TTAATA'
p1522
I18773
sS'ACTCTG'
p1523
I34644
sS'TTAATC'
p1524
I14859
sS'ACTCTA'
p1525
I13907
sS'TTTCAG'
p1526
I42510
sS'CACATT'
p1527
I27833
sS'TGCCAC'
p1528
I32056
sS'AAATTC'
p1529
I30798
sS'GACTGA'
p1530
I22839
sS'AAATTA'
p1531
I31876
sS'AAATTG'
p1532
I22667
sS'CCAGTA'
p1533
I16700
sS'TTCAAT'
p1534
I18008
sS'CTTCGA'
p1535
I6378
sS'CGTACC'
p1536
I3583
sS'AAATTT'
p1537
I34789
sS'CTTAGT'
p1538
I13717
sS'CGTCTA'
p1539
I3948
sS'GGGAAC'
p1540
I31438
sS'GGTGCG'
p1541
I17385
sS'GGGAAA'
p1542
I57093
sS'GGGAAG'
p1543
I75389
sS'GGTGCC'
p1544
I33187
sS'TCGTCC'
p1545
I8882
sS'GCCCAT'
p1546
I21459
sS'AGAGCG'
p1547
I18552
sS'GCGACT'
p1548
I8294
sS'AGCGAT'
p1549
I7194
sS'AGAGCC'
p1550
I45576
sS'AGAGCA'
p1551
I41779
sS'GCGTAG'
p1552
I4977
sS'GGTGCT'
p1553
I32586
sS'GCGTAC'
p1554
I2842
sS'GCGTAA'
p1555
I3266
sS'GCGACG'
p1556
I7870
sS'AGAGCT'
p1557
I41160
sS'GCGACA'
p1558
I9031
sS'TATCGG'
p1559
I2455
sS'GCGACC'
p1560
I11820
sS'AGGTCG'
p1561
I9525
sS'GCAGGA'
p1562
I59350
sS'GCAGGC'
p1563
I55695
sS'GCAGGG'
p1564
I77525
sS'CAATTT'
p1565
I22866
sS'GCACTA'
p1566
I10838
sS'CCGTGC'
p1567
I15404
sS'GCTCGG'
p1568
I23127
sS'TATTCT'
p1569
I21085
sS'CCGTGG'
p1570
I19552
sS'ACTTAC'
p1571
I12650
sS'CTTTAG'
p1572
I20552
sS'GCAGGT'
p1573
I38483
sS'ATTGTG'
p1574
I18442
sS'ACGTCT'
p1575
I7395
sS'TATTCC'
p1576
I16785
sS'GGCGAG'
p1577
I24800
sS'TATTCA'
p1578
I19943
sS'GGCGAA'
p1579
I9777
sS'TATTCG'
p1580
I3130
sS'CAATTC'
p1581
I17718
sS'TGTAGA'
p1582
I17260
sS'TTTACC'
p1583
I18344
sS'TGTAGC'
p1584
I14988
sS'TTTACA'
p1585
I30064
sS'TTTACG'
p1586
I4627
sS'TGTAGG'
p1587
I17684
sS'GGCTCG'
p1588
I18963
sS'TTCGGA'
p1589
I7313
sS'TTCGGC'
p1590
I8601
sS'AAATAG'
p1591
I24934
sS'GTCTAC'
p1592
I8593
sS'TTCGGG'
p1593
I11556
sS'TGAAGG'
p1594
I35241
sS'AACTTA'
p1595
I14420
sS'GGCTCT'
p1596
I45708
sS'AGCATC'
p1597
I23395
sS'TTTACT'
p1598
I25104
sS'AGCATA'
p1599
I13008
sS'ATTGTA'
p1600
I13366
sS'TTCGGT'
p1601
I5985
sS'GTTTAT'
p1602
I18790
sS'CTCTCA'
p1603
I38316
sS'GCACTC'
p1604
I25043
sS'CGCTAC'
p1605
I5225
sS'TGCTTG'
p1606
I28196
sS'AGGCAT'
p1607
I26621
sS'GTTTAA'
p1608
I20162
sS'GAGGTG'
p1609
I46919
sS'CACGAA'
p1610
I7121
sS'CAATCT'
p1611
I16458
sS'GTTTAG'
p1612
I14960
sS'CGCTAG'
p1613
I6493
sS'CTGGCT'
p1614
I60559
sS'AGGCGG'
p1615
I39118
sS'AGGCGA'
p1616
I14003
sS'AGGCGC'
p1617
I26795
sS'AGGAGT'
p1618
I33691
sS'ACAGCC'
p1619
I41144
sS'ACAGCA'
p1620
I39628
sS'GAGGTC'
p1621
I27515
sS'ACAGCG'
p1622
I15188
sS'AGGAGC'
p1623
I52031
sS'AGGCGT'
p1624
I13383
sS'AGGAGA'
p1625
I60221
sS'CTGGCG'
p1626
I25357
sS'AGGAGG'
p1627
I90038
sS'CTGGCA'
p1628
I43854
sS'CTGGCC'
p1629
I64603
sS'GCATCG'
p1630
I6337
sS'ACAGCT'
p1631
I36458
sS'GGAAAA'
p1632
I55462
sS'AACGCT'
p1633
I7916
sS'AATTTT'
p1634
I39009
sS'TGTCAA'
p1635
I17530
sS'TGTCAC'
p1636
I24676
sS'AAACAC'
p1637
I31525
sS'GGAAAC'
p1638
I36859
sS'ATTTAT'
p1639
I29945
sS'AACGCG'
p1640
I5560
sS'AATTTA'
p1641
I26993
sS'AATTTC'
p1642
I28166
sS'AACGCC'
p1643
I9371
sS'AACGCA'
p1644
I7739
sS'AATTTG'
p1645
I26251
sS'CCCTCA'
p1646
I44085
sS'CCCTCC'
p1647
I106281
sS'ATTTAG'
p1648
I19493
sS'CCCTCG'
p1649
I24736
sS'TCCAGT'
p1650
I27741
sS'CACGAT'
p1651
I5332
sS'GGCGTT'
p1652
I9427
sS'TGACCA'
p1653
I21867
sS'CATTCT'
p1654
I33248
sS'GCCTTG'
p1655
I34583
sS'TGACCG'
p1656
I7728
sS'ACCACG'
p1657
I11695
sS'CATTCG'
p1658
I5769
sS'TGACCT'
p1659
I29830
sS'CATTCA'
p1660
I28761
sS'TCCATA'
p1661
I12797
sS'ACGAAA'
p1662
I6475
sS'CGCTAT'
p1663
I3678
sS'ACAAAT'
p1664
I26537
sS'GATTAA'
p1665
I14500
sS'GTAGGC'
p1666
I12764
sS'GATTAC'
p1667
I13559
sS'GTAGGA'
p1668
I17498
sS'GTAGGG'
p1669
I20791
sS'GATTAG'
p1670
I11687
sS'GCGGGT'
p1671
I18946
sS'ACAAAC'
p1672
I26103
sS'TTTCAA'
p1673
I35112
sS'ACAAAA'
p1674
I48297
sS'ACAAAG'
p1675
I37881
sS'GCGGGC'
p1676
I44469
sS'GTCGGT'
p1677
I5888
sS'GCGGGA'
p1678
I32381
sS'GCGGGG'
p1679
I70938
sS'GATTAT'
p1680
I11949
sS'GTAGGT'
p1681
I13535
sS'GGCGTC'
p1682
I16049
sS'TAATGA'
p1683
I18801
sS'GATGTT'
p1684
I18012
sS'TAATGC'
p1685
I13059
sS'GGAGAT'
p1686
I28068
sS'GCCCTT'
p1687
I35556
sS'CAATAA'
p1688
I17560
sS'CAATTG'
p1689
I11998
sS'GCCCTC'
p1690
I54870
sS'GATGTG'
p1691
I22256
sS'GCCCTA'
p1692
I17497
sS'GATGTA'
p1693
I10838
sS'GCCCTG'
p1694
I69729
sS'GATGTC'
p1695
I15387
sS'AACCTC'
p1696
I26414
sS'TGAAAT'
p1697
I34866
sS'TTCTAG'
p1698
I22386
sS'TTCTAA'
p1699
I26414
sS'ATCCGT'
p1700
I4863
sS'TTCTAC'
p1701
I16841
sS'TGAAAA'
p1702
I44409
sS'TTGGAT'
p1703
I17292
sS'TGAAAC'
p1704
I26057
sS'TGAAAG'
p1705
I36668
sS'TTCTAT'
p1706
I18872
sS'ATCCGC'
p1707
I8580
sS'ATCCGA'
p1708
I5027
sS'ATCCGG'
p1709
I8212
sS'TGGCTC'
p1710
I45696
sS'TGGCTA'
p1711
I18447
sS'TGGCTG'
p1712
I58143
sS'GACCGG'
p1713
I11999
sS'GGGTGA'
p1714
I33746
sS'AGTTGT'
p1715
I17681
sS'AGCTAT'
p1716
I14129
sS'CTTACG'
p1717
I3993
sS'CCCGCA'
p1718
I25834
sS'GTCGGC'
p1719
I10581
sS'CGTCGA'
p1720
I2460
sS'TGGCTT'
p1721
I39407
sS'AGTTGG'
p1722
I22614
sS'GGGATT'
p1723
I28497
sS'AGCTAC'
p1724
I17456
sS'AGTTGC'
p1725
I17693
sS'AGTTGA'
p1726
I16967
sS'AGCTAG'
p1727
I17426
sS'CGTTGA'
p1728
I4694
sS'CTAATT'
p1729
I20022
sS'CAGTGT'
p1730
I29778
sS'TAACAA'
p1731
I21063
sS'TCAGGT'
p1732
I27210
sS'TCAAGG'
p1733
I26444
sS'GTCGGG'
p1734
I15883
sS'TCAAGC'
p1735
I20707
sS'CATGGA'
p1736
I23984
sS'GCACCA'
p1737
I27516
sS'CAGTGC'
p1738
I33459
sS'GCACCC'
p1739
I34103
sS'CAGTGA'
p1740
I38102
sS'CAGTGG'
p1741
I44680
sS'CTAATG'
p1742
I14774
sS'TCAAGT'
p1743
I20439
sS'CATGGC'
p1744
I26931
sS'GAGCCC'
p1745
I54623
sS'TCAGGC'
p1746
I37442
sS'CGAGCT'
p1747
I12607
sS'CGTTGG'
p1748
I7841
sS'GATCAG'
p1749
I17557
sS'CAACCA'
p1750
I21354
sS'AGTCAA'
p1751
I18034
sS'TTCCCT'
p1752
I59871
sS'CGAGCG'
p1753
I12989
sS'GTTAGT'
p1754
I9791
sS'CGAGCA'
p1755
I10446
sS'GAGCCG'
p1756
I29314
sS'CGAGCC'
p1757
I18837
sS'TTCCCA'
p1758
I53589
sS'TTCCCC'
p1759
I56368
sS'GTTCAC'
p1760
I15586
sS'TTCCCG'
p1761
I21179
sS'GATCAC'
p1762
I16364
sS'GGACCT'
p1763
I25590
sS'TCCACC'
p1764
I39150
sS'AAGTAC'
p1765
I12647
sS'CACACT'
p1766
I28917
sS'TACATC'
p1767
I10860
sS'AAGTAG'
p1768
I17943
sS'TACATA'
p1769
I13867
sS'CATGGT'
p1770
I20067
sS'GGACCG'
p1771
I14127
sS'ATTGGT'
p1772
I13645
sS'GGACCA'
p1773
I23628
sS'TCATCA'
p1774
I21038
sS'GGACCC'
p1775
I37209
sS'CACACG'
p1776
I14792
sS'TACATT'
p1777
I19786
sS'CACACC'
p1778
I34467
sS'CTGCAT'
p1779
I31928
sS'CACACA'
p1780
I71860
sS'TCTGCC'
p1781
I51473
sS'TCTGCA'
p1782
I44936
sS'AGGTAG'
p1783
I20984
sS'TCTGCG'
p1784
I16858
sS'TTTCGA'
p1785
I4945
sS'CCCGTC'
p1786
I17246
sS'TTAAGG'
p1787
I19732
sS'CCCGTA'
p1788
I5025
sS'TTAAGA'
p1789
I23260
sS'CCCGTG'
p1790
I16987
sS'TTAAGC'
p1791
I15478
sS'ACGCAC'
p1792
I9416
sS'TAGATC'
p1793
I8564
sS'AAACAG'
p1794
I42721
sS'TAGATA'
p1795
I10801
sS'TTTCGC'
p1796
I7140
sS'TAGATG'
p1797
I14960
sS'TGGTTA'
p1798
I15525
sS'TCTGCT'
p1799
I46458
sS'CGTGCT'
p1800
I11518
sS'TTAAGT'
p1801
I18911
sS'TTACGA'
p1802
I3072
sS'TTACGG'
p1803
I4103
sS'CCCGTT'
p1804
I9486
sS'AGTGAC'
p1805
I23684
sS'AGTGAA'
p1806
I29104
sS'AGTGAG'
p1807
I39580
sS'CGGGCG'
p1808
I36134
sS'CCCTCT'
p1809
I64891
sS'TAAGAG'
p1810
I20736
sS'CGGGCC'
p1811
I38355
sS'TAAGAA'
p1812
I26626
sS'CGGGCA'
p1813
I22005
sS'TAAGAC'
p1814
I12754
sS'TGTCAG'
p1815
I29438
sS'AGTGAT'
p1816
I20388
sS'TAAGAT'
p1817
I14720
sS'CCTGAA'
p1818
I37523
sS'CCTGAC'
p1819
I33961
sS'CCTGAG'
p1820
I56188
sS'GTTAGG'
p1821
I14908
sS'GCCAAC'
p1822
I18622
sS'TATACT'
p1823
I9188
sS'GTTAGC'
p1824
I10496
sS'GTTAGA'
p1825
I13281
sS'GNNNNN'
p1826
I1
sS'ACCCCC'
p1827
I41875
sS'TATACG'
p1828
I2026
sS'AGGTAC'
p1829
I12532
sS'TATACC'
p1830
I6939
sS'TATACA'
p1831
I12091
sS'ATTGGC'
p1832
I16594
sS'TCTTGT'
p1833
I24578
sS'ACTAGT'
p1834
I8490
sS'TTTATT'
p1835
I48293
sS'GTAATA'
p1836
I10294
sS'ATTGGA'
p1837
I16074
sS'GTAATC'
p1838
I13650
sS'TCTAAC'
p1839
I13307
sS'CGTTCT'
p1840
I9092
sS'CCACCG'
p1841
I22735
sS'CGGATC'
p1842
I8330
sS'CCACCA'
p1843
I46171
sS'CCACCC'
p1844
I69761
sS'ATTACT'
p1845
I15078
sS'TTTATG'
p1846
I21220
sS'ACTAGG'
p1847
I14967
sS'GTAACG'
p1848
I3514
sS'CTACTG'
p1849
I19406
sS'ACTAGC'
p1850
I10349
sS'TTTATA'
p1851
I23263
sS'ACTAGA'
p1852
I14623
sS'CCACCT'
p1853
I55344
sS'CGTTCG'
p1854
I3299
sS'TCGTTG'
p1855
I5019
sS'CGTTCA'
p1856
I6227
sS'CGTTCC'
p1857
I10931
sS'TCTAAT'
p1858
I15927
sS'CTTTGT'
p1859
I38465
sS'AAACAT'
p1860
I28342
sS'ACTGGA'
p1861
I28062
sS'ACTGGC'
p1862
I26810
sS'TAGTCC'
p1863
I11773
sS'GTGACC'
p1864
I23522
sS'TAGTCA'
p1865
I12181
sS'GTGACA'
p1866
I24739
sS'TAGTCG'
p1867
I2654
sS'GTGACG'
p1868
I8656
sS'TGTCAT'
p1869
I21724
sS'ACTGGT'
p1870
I17596
sS'CTTTGG'
p1871
I39783
sS'CCTATG'
p1872
I12801
sS'CTTTGC'
p1873
I35548
sS'ACGTGC'
p1874
I10105
sS'ACATTA'
p1875
I15271
sS'GTGACT'
p1876
I24249
sS'TAGTCT'
p1877
I12765
sS'GTGCAC'
p1878
I19234
sS'GCGCTT'
p1879
I12919
sS'ACCTAG'
p1880
I15525
sS'GCAATT'
p1881
I16835
sS'ACCTAA'
p1882
I14141
sS'CGACGC'
p1883
I7277
sS'ACCTAC'
p1884
I13194
sS'CCGCAG'
p1885
I33730
sS'CCGCAA'
p1886
I9305
sS'CCGCAC'
p1887
I17977
sS'ACGTGG'
p1888
I14388
sS'ACCTAT'
p1889
I9659
sS'CGACGT'
p1890
I3336
sS'CGAAGA'
p1891
I8682
sS'CCCCGT'
p1892
I18159
sS'CGAAGG'
p1893
I12608
sS'GCGCTC'
p1894
I25398
sS'GTGCAT'
p1895
I16575
sS'GCGCTA'
p1896
I5956
sS'CCGCAT'
p1897
I8596
sS'GTTCGC'
p1898
I5776
sS'GAAGAT'
p1899
I21606
sS'GGATCT'
p1900
I20056
sS'TCATGA'
p1901
I17419
sS'TCGGAA'
p1902
I7929
sS'TCGGAC'
p1903
I6245
sS'GAATCT'
p1904
I21868
sS'CCTATA'
p1905
I9206
sS'TCGGAG'
p1906
I14303
sS'GGATCG'
p1907
I6808
sS'GAAGAG'
p1908
I49089
sS'GGTATA'
p1909
I6879
sS'GAAGAA'
p1910
I43512
sS'GGATCC'
p1911
I22981
sS'GAAGAC'
p1912
I24649
sS'GGATCA'
p1913
I18013
sS'GAATCA'
p1914
I19779
sS'GAATCC'
p1915
I21078
sS'TCGGAT'
p1916
I5119
sS'GAATCG'
p1917
I6147
sS'ATGGTC'
p1918
I12462
sS'CAGATG'
p1919
I34727
sS'ACGCCG'
p1920
I9901
sS'TGACCC'
p1921
I26014
sS'ACGCCA'
p1922
I10125
sS'CAGATC'
p1923
I22199
sS'CTATCC'
p1924
I11676
sS'TGCGTG'
p1925
I13849
sS'GGGTAT'
p1926
I10366
sS'TAGACT'
p1927
I11658
sS'CTATCT'
p1928
I14810
sS'CAGATT'
p1929
I24913
sS'TGATTA'
p1930
I15063
sS'CTCGAC'
p1931
I6114
sS'ATGGTT'
p1932
I16036
sS'TCGCAA'
p1933
I4446
sS'TGCGTC'
p1934
I9374
sS'CCGGTA'
p1935
I4958
sS'AATGGT'
p1936
I16901
sS'ATGATA'
p1937
I11232
sS'GGGACG'
p1938
I21314
sS'AATGGC'
p1939
I22891
sS'AATGGA'
p1940
I27868
sS'AATGGG'
p1941
I28684
sS'CAATAC'
p1942
I9558
sS'CCCCGA'
p1943
I22953
sS'AATAGA'
p1944
I19166
sS'TGCACA'
p1945
I28638
sS'AATAGC'
p1946
I15026
sS'ATTTAC'
p1947
I20299
sS'CGTTAG'
p1948
I4305
sS'TTGACC'
p1949
I14219
sS'GGAGGG'
p1950
I107463
sS'AAAAGT'
p1951
I32929
sS'GGAGGA'
p1952
I80877
sS'GGAGGC'
p1953
I79223
sS'TGGTAG'
p1954
I16159
sS'CATTCC'
p1955
I36329
sS'GAGTGT'
p1956
I21722
sS'TGGTAC'
p1957
I9778
sS'GAGGTA'
p1958
I17228
sS'TGGTAA'
p1959
I16961
sS'AAAAGG'
p1960
I46529
sS'GGAGGT'
p1961
I43191
sS'AGCCAT'
p1962
I25152
sS'AAAAGC'
p1963
I38274
sS'AAAAGA'
p1964
I57094
sS'TTGACT'
p1965
I17894
sS'GAGTGG'
p1966
I35320
sS'CGCCAG'
p1967
I25022
sS'TGGTAT'
p1968
I12818
sS'CGCCAA'
p1969
I9933
sS'GAGTGC'
p1970
I25219
sS'CGCCAC'
p1971
I21261
sS'GAGTGA'
p1972
I29183
sS'GCCAGG'
p1973
I76121
sS'GCCAGA'
p1974
I39113
sS'CTCGTG'
p1975
I10185
sS'GCCAGC'
p1976
I51798
sS'GCCCGT'
p1977
I12449
sS'CAATCC'
p1978
I16623
sS'TACCGA'
p1979
I3441
sS'TACCGC'
p1980
I5382
sS'CTTCAT'
p1981
I26215
sS'GCCCGC'
p1982
I44297
sS'GCCAGT'
p1983
I27307
sS'GCCCGA'
p1984
I16485
sS'GCCCGG'
p1985
I50743
sS'TGCGAT'
p1986
I5233
sS'CTTCAC'
p1987
I28219
sS'CTTCAA'
p1988
I25251
sS'CTTCAG'
p1989
I41561
sS'TCCGAG'
p1990
I14849
sS'TCCGAA'
p1991
I7396
sS'TCCGAC'
p1992
I6784
sS'AATTCA'
p1993
I26832
sS'TAGCGA'
p1994
I3995
sS'AATTCC'
p1995
I28983
sS'ATTAGG'
p1996
I14543
sS'AATTCG'
p1997
I4934
sS'TCCGAT'
p1998
I4268
sS'NNNGAT'
p1999
I1
sS'TAGCGG'
p2000
I6375
sS'AATTCT'
p2001
I30060
sS'TAGCGC'
p2002
I5845
sS'GTCATC'
p2003
I15374
sS'GTCATA'
p2004
I8948
sS'GTCATG'
p2005
I15792
sS'AGCAGG'
p2006
I62245
sS'CCAGGT'
p2007
I45696
sS'TTGGAA'
p2008
I33176
sS'TTGGAG'
p2009
I35476
sS'AGCAGA'
p2010
I46394
sS'GGATGC'
p2011
I24150
sS'CCAGGG'
p2012
I77646
sS'AGCAGT'
p2013
I30239
sS'CCAGGA'
p2014
I68517
sS'CCAGGC'
p2015
I84507
sS'TGTTGA'
p2016
I20396
sS'ATAGAG'
p2017
I15691
sS'CATCTG'
p2018
I34885
sS'ACGGTC'
p2019
I5815
sS'CATCTA'
p2020
I15093
sS'GATCGA'
p2021
I3470
sS'CATCTC'
p2022
I33562
sS'GATCGC'
p2023
I7107
sS'ATTAGA'
p2024
I16070
sS'GGGGTC'
p2025
I37266
sS'CAAGCC'
p2026
I31419
sS'CATCTT'
p2027
I27758
sS'CAAGCA'
p2028
I28011
sS'ACGGTT'
p2029
I5102
sS'GTTCTT'
p2030
I25079
sS'ACATGA'
p2031
I17969
sS'CGTAAT'
p2032
I3126
sS'ACATGC'
p2033
I18394
sS'TCTTGA'
p2034
I23471
sS'ACATGG'
p2035
I22622
sS'CCCGCT'
p2036
I27234
sS'GTAAAC'
p2037
I14664
sS'GGCCAT'
p2038
I22685
sS'CGTAAG'
p2039
I4137
sS'GTTCTG'
p2040
I29277
sS'ACATGT'
p2041
I17292
sS'CGTAAC'
p2042
I3052
sS'CGTAAA'
p2043
I4770
sS'CCCGCG'
p2044
I37549
sS'CCCGCC'
p2045
I75116
sS'AGACGC'
p2046
I13114
sS'AGGGAA'
p2047
I60234
sS'GAGTCG'
p2048
I9092
sS'TGCGGC'
p2049
I20390
sS'TCTTGG'
p2050
I33253
sS'GTTGTT'
p2051
I21272
sS'TTCTNC'
p2052
I1
sS'ATCCTT'
p2053
I23396
sS'TTGTCG'
p2054
I4621
sS'TTGTCC'
p2055
I22055
sS'TTGTCA'
p2056
I22190
sS'ATCCTC'
p2057
I26467
sS'GTTGTA'
p2058
I10500
sS'ATCCTA'
p2059
I14145
sS'GTTGTC'
p2060
I13668
sS'ATCCTG'
p2061
I31085
sS'GTTGTG'
p2062
I18446
sS'TTGTCT'
p2063
I28371
sS'CTATGC'
p2064
I11076
sS'CCACTG'
p2065
I44798
sS'TGACTA'
p2066
I11792
sS'ATAGGT'
p2067
I9780
sS'TGACTC'
p2068
I25314
sS'TGGGCA'
p2069
I44190
sS'TGGGCG'
p2070
I27530
sS'TGACTG'
p2071
I26623
sS'AAGCCG'
p2072
I14840
sS'AAGCCC'
p2073
I38361
sS'AAGCCA'
p2074
I39485
sS'CAAAAT'
p2075
I31671
sS'TGACTT'
p2076
I26605
sS'TGGGCT'
p2077
I49317
sS'CANCTT'
p2078
I1
sS'CAAAAC'
p2079
I31657
sS'CAAAAA'
p2080
I45762
sS'AAGCCT'
p2081
I34880
sS'CAAAAG'
p2082
I36021
sS'TCAATG'
p2083
I15332
sS'CCCTTA'
p2084
I18226
sS'TCAATC'
p2085
I12107
sS'TCAATA'
p2086
I13226
sS'CAGTTC'
p2087
I27283
sS'GACCCG'
p2088
I17083
sS'GACCCA'
p2089
I27650
sS'GACCCC'
p2090
I37104
sS'CTCTGT'
p2091
I49916
sS'TCAATT'
p2092
I16953
sS'TGGCGT'
p2093
I10494
sS'CTCTGC'
p2094
I66275
sS'GACCCT'
p2095
I29546
sS'CTCTGA'
p2096
I44084
sS'ACAATC'
p2097
I12923
sS'CTCTGG'
p2098
I62177
sS'CAGTTT'
p2099
I34992
sS'GCGAAG'
p2100
I11910
sS'ACGTTC'
p2101
I6001
sS'TGCTGG'
p2102
I59289
sS'CGAGGT'
p2103
I12504
sS'TGCTGA'
p2104
I38329
sS'GAGTCT'
p2105
I26016
sS'TGCTGC'
p2106
I52510
sS'TAGGGA'
p2107
I23657
sS'GCTGGT'
p2108
I35238
sS'GTGATT'
p2109
I20690
sS'CTACTA'
p2110
I10510
sS'TGCTGT'
p2111
I39979
sS'TAGGGC'
p2112
I17835
sS'TAATGG'
p2113
I14569
sS'GTGATG'
p2114
I21896
sS'GCTGGG'
p2115
I95514
sS'GTGATC'
p2116
I16172
sS'GCTGGC'
p2117
I52489
sS'GTGATA'
p2118
I10947
sS'GCTGGA'
p2119
I53882
sS'TGATAA'
p2120
I15885
sS'TGTAGT'
p2121
I15436
sS'TGATAC'
p2122
I9147
sS'TGATAG'
p2123
I11111
sS'CTTGTT'
p2124
I26374
sS'GACGGT'
p2125
I6929
sS'GCTAGG'
p2126
I19705
sS'TTTTGT'
p2127
I48978
sS'CTTTCA'
p2128
I36421
sS'ATGAAT'
p2129
I23317
sS'GCTAGC'
p2130
I12160
sS'ATAGGG'
p2131
I13889
sS'TGATAT'
p2132
I11598
sS'GCTAGT'
p2133
I9991
sS'ATGAAC'
p2134
I14503
sS'GACGGG'
p2135
I17139
sS'ATGAAA'
p2136
I33232
sS'GACGGA'
p2137
I10798
sS'CTTGTA'
p2138
I14612
sS'GACGGC'
p2139
I13314
sS'CTTGTC'
p2140
I22441
sS'CAAAGA'
p2141
I37908
sS'CTACTT'
p2142
I18013
sS'CAACGT'
p2143
I5897
sS'GGTGAA'
p2144
I25909
sS'GGTGAC'
p2145
I25175
sS'GCGTCT'
p2146
I13095
sS'GACTGT'
p2147
I19318
sS'GGTGAG'
p2148
I41935
sS'GGAATG'
p2149
I36012
sS'CGTCCT'
p2150
I14863
sS'GGAATC'
p2151
I22311
sS'GGAATA'
p2152
I16524
sS'GCGTCA'
p2153
I7861
sS'GCGTCC'
p2154
I19114
sS'GGTGAT'
p2155
I19624
sS'GCGTCG'
p2156
I7516
sS'CGTCCG'
p2157
I8747
sS'GGAATT'
p2158
I29102
sS'CGTCCC'
p2159
I21309
sS'CGTCCA'
p2160
I9964
sS'CCGTAT'
p2161
I3283
sS'GCCGTG'
p2162
I17014
sS'GAAGTA'
p2163
I15953
sS'GCCGTC'
p2164
I13329
sS'GCCGTA'
p2165
I4167
sS'CCGTAC'
p2166
I3361
sS'CCGTAA'
p2167
I4404
sS'CCGTAG'
p2168
I5741
sS'CAAAGT'
p2169
I29384
sS'GCCGTT'
p2170
I7660
sS'TTGGTG'
p2171
I24822
sS'GAAGTT'
p2172
I23541
sS'GGCGCG'
p2173
I37891
sS'ATGCCC'
p2174
I22765
sS'TTAGTT'
p2175
I16798
sS'TATTAG'
p2176
I11138
sS'GGCGCC'
p2177
I43699
sS'TATTAA'
p2178
I18605
sS'GGCGCA'
p2179
I20510
sS'TATTAC'
p2180
I10013
sS'ACTATG'
p2181
I10705
sS'CAACGG'
p2182
I6669
sS'TTTAAG'
p2183
I27567
sS'ACTATC'
p2184
I7816
sS'TTTAAA'
p2185
I60371
sS'ACTATA'
p2186
I8154
sS'AGAGTG'
p2187
I31375
sS'TATTAT'
p2188
I18151
sS'TTAGTG'
p2189
I14530
sS'GGCGCT'
p2190
I27078
sS'TTAGTC'
p2191
I10963
sS'ATGCCT'
p2192
I26922
sS'TTAGTA'
p2193
I12384
sS'TTTAAT'
p2194
I30946
sS'ATGTGC'
p2195
I19405
sS'ACTATT'
p2196
I13060
sS'GGGCAT'
p2197
I22750
sS'TTTCCG'
p2198
I11856
sS'TTTCCA'
p2199
I47293
sS'TTTCCC'
p2200
I56769
sS'GTACGT'
p2201
I3061
sS'TATCGA'
p2202
I1963
sS'GTTTGT'
p2203
I26646
sS'TCAGNN'
p2204
I1
sS'TTTCCT'
p2205
I69329
sS'GGGCAG'
p2206
I78934
sS'CCTGGA'
p2207
I61196
sS'GGGCAA'
p2208
I29605
sS'GGGCAC'
p2209
I35040
sS'GTTTGC'
p2210
I22321
sS'ACGTAG'
p2211
I4461
sS'GTTTGG'
p2212
I26731
sS'GTACGA'
p2213
I2143
sS'CCGCTC'
p2214
I26630
sS'GCATGT'
p2215
I18459
sS'CCGCTA'
p2216
I6394
sS'CCGCTG'
p2217
I29545
sS'GCGCGG'
p2218
I41299
sS'GTTATC'
p2219
I8969
sS'GCGCGC'
p2220
I39115
sS'GCGCGA'
p2221
I10785
sS'GCATGG'
p2222
I23413
sS'GCATGC'
p2223
I19583
sS'CCGCTT'
p2224
I14419
sS'GCATGA'
p2225
I18237
sS'GTCGAC'
p2226
I2933
sS'GCGCGT'
p2227
I11018
sS'GTCGAG'
p2228
I6346
sS'CGTGGC'
p2229
I18687
sS'GAGCTA'
p2230
I16994
sS'TGCGCT'
p2231
I13863
sS'GAGCTC'
p2232
I37486
sS'ATTGAT'
p2233
I12659
sS'GAGCTG'
p2234
I57885
sS'AAACGA'
p2235
I8408
sS'AAACGC'
p2236
I10269
sS'GTAGTA'
p2237
I7801
sS'AAACGG'
p2238
I10357
sS'TGTCCC'
p2239
I37971
sS'TGCGCG'
p2240
I15364
sS'TGTCCA'
p2241
I23960
sS'GAGCTT'
p2242
I27617
sS'TGCGCC'
p2243
I20625
sS'ATTGAG'
p2244
I16594
sS'TGCGCA'
p2245
I12155
sS'TAGTGG'
p2246
I16365
sS'ACCGAC'
p2247
I5906
sS'AAACGT'
p2248
I8958
sS'ATTTCG'
p2249
I5330
sS'ATTTCA'
p2250
I34730
sS'ATTTCC'
p2251
I36630
sS'ATCAGT'
p2252
I16206
sS'ATCGGG'
p2253
I6429
sS'CATAGT'
p2254
I10788
sS'AAATCA'
p2255
I31125
sS'ATCGGC'
p2256
I5128
sS'ATCGGA'
p2257
I4505
sS'ATTTCT'
p2258
I41506
sS'CGATCA'
p2259
I3904
sS'TGGGTC'
p2260
I27926
sS'TGGGTA'
p2261
I17608
sS'CATAGG'
p2262
I13090
sS'ATCGGT'
p2263
I3305
sS'CATGAC'
p2264
I15504
sS'ATCAGA'
p2265
I23068
sS'ATCAGC'
p2266
I21492
sS'ACGGGT'
p2267
I6566
sS'CCTGGT'
p2268
I39098
sS'ATTCGG'
p2269
I5611
sS'GATTCT'
p2270
I24419
sS'CTTTTG'
p2271
I35796
sS'TACTAG'
p2272
I8135
sS'CTTTTC'
p2273
I50799
sS'TACTAC'
p2274
I7718
sS'GATTCC'
p2275
I22238
sS'GATTCA'
p2276
I17936
sS'ACGGGA'
p2277
I11582
sS'ACGGGC'
p2278
I12191
sS'GTCCGG'
p2279
I13786
sS'TACTAT'
p2280
I9104
sS'CTTTTT'
p2281
I56273
sS'TCACGA'
p2282
I5759
sS'TCACGC'
p2283
I11376
sS'CGATTG'
p2284
I4054
sS'TCACGG'
p2285
I10375
sS'TCACGT'
p2286
I8897
sS'TTCCAC'
p2287
I30704
sS'TTCCAA'
p2288
I33414
sS'TTCCAG'
p2289
I52286
sS'GTTTCA'
p2290
I26192
sS'ACCCTT'
p2291
I23394
sS'TGAAGT'
p2292
I24760
sS'AAACAA'
p2293
I51942
sS'ATGCTT'
p2294
I21875
sS'TTCCAT'
p2295
I29482
sS'ACCCTA'
p2296
I14722
sS'ACCCTC'
p2297
I34630
sS'CCTACA'
p2298
I17766
sS'ACCCTG'
p2299
I40900
sS'CTGACT'
p2300
I29920
sS'CCCCTT'
p2301
I47625
sS'AGTTAT'
p2302
I13080
sS'ACATAT'
p2303
I14106
sS'CTGACG'
p2304
I9872
sS'CTGACC'
p2305
I32894
sS'TCCTCT'
p2306
I58029
sS'AGTTAA'
p2307
I19805
sS'CCCCTG'
p2308
I62630
sS'AGTTAC'
p2309
I14070
sS'CCCCTC'
p2310
I81503
sS'AGTTAG'
p2311
I14598
sS'CCCCTA'
p2312
I23729
sS'ACACAG'
p2313
I42256
sS'ACACAA'
p2314
I26020
sS'ACACAC'
p2315
I59879
sS'AATGTT'
p2316
I25797
sS'CTGCAG'
p2317
I81579
sS'CATGGG'
p2318
I26458
sS'CTGCAC'
p2319
I39043
sS'GCACAT'
p2320
I19176
sS'AATGTC'
p2321
I19791
sS'ACACAT'
p2322
I23057
sS'AATGTA'
p2323
I19403
sS'AATGTG'
p2324
I27828
sS'AGCTAA'
p2325
I18847
sS'GCACAC'
p2326
I27124
sS'GCACAA'
p2327
I19785
sS'GCACAG'
p2328
I41857
sS'CGATTC'
p2329
I6187
sS'ACATTT'
p2330
I36794
sS'ATGTTC'
p2331
I15847
sS'CGAGAT'
p2332
I7705
sS'GTTCGT'
p2333
I4203
sS'ACATTG'
p2334
I16067
sS'ACGCTC'
p2335
I9587
sS'ACATTC'
p2336
I25374
sS'ATTACA'
p2337
I22716
sS'ATGCTC'
p2338
I18821
sS'ATTACC'
p2339
I12011
sS'CGAGAC'
p2340
I11264
sS'CGAGAA'
p2341
I10685
sS'AAGTCT'
p2342
I23478
sS'GCTATT'
p2343
I15284
sS'GGACAT'
p2344
I16885
sS'CAGCGT'
p2345
I14532
sS'GCTATA'
p2346
I7917
sS'GCTATC'
p2347
I8309
sS'AAGTCG'
p2348
I6835
sS'AAGTCA'
p2349
I26828
sS'GCTATG'
p2350
I12920
sS'AAGTCC'
p2351
I23082
sS'GGACAG'
p2352
I42664
sS'GGACAC'
p2353
I26404
sS'GGACAA'
p2354
I22035
sS'GCACCT'
p2355
I31439
sS'AGGGTT'
p2356
I26311
sS'GAGGCG'
p2357
I37362
sS'TGTTGG'
p2358
I25958
sS'GAGGCA'
p2359
I49854
sS'AGCGCT'
p2360
I16631
sS'GAGGCC'
p2361
I59372
sS'TGTTGC'
p2362
I22914
sS'ACTCGA'
p2363
I5296
sS'TAAAAT'
p2364
I39914
sS'ACTCGC'
p2365
I9043
sS'ACTCGG'
p2366
I12576
sS'AGCGCA'
p2367
I13861
sS'GAGGCT'
p2368
I55087
sS'AGCGCC'
p2369
I27178
sS'AGGGTG'
p2370
I41736
sS'AGGGTA'
p2371
I16763
sS'AGCGCG'
p2372
I18477
sS'AGGGTC'
p2373
I29409
sS'TAAAAG'
p2374
I31944
sS'ACTCGT'
p2375
I4615
sS'TAAAAC'
p2376
I26178
sS'TAAAAA'
p2377
I51697
sS'CTACTC'
p2378
I17348
sS'AGCTGC'
p2379
I53502
sS'ACGTTA'
p2380
I4136
sS'AGCTGA'
p2381
I38337
sS'ACGTTG'
p2382
I5944
sS'AGCTGG'
p2383
I61212
sS'TAGGGG'
p2384
I23950
sS'TAAATG'
p2385
I27731
sS'AGTGCG'
p2386
I10313
sS'AGTGCA'
p2387
I26320
sS'AGAGTT'
p2388
I25897
sS'AGTGCC'
p2389
I28061
sS'CCAAAA'
p2390
I32577
sS'TTCGTG'
p2391
I7258
sS'TAGGGT'
p2392
I14628
sS'AGCTGT'
p2393
I36228
sS'ACGTTT'
p2394
I8864
sS'AGTGCT'
p2395
I31275
sS'TCATAA'
p2396
I13950
sS'AGAGTA'
p2397
I16315
sS'AAAACA'
p2398
I56211
sS'TTCGTA'
p2399
I3486
sS'GTTAAA'
p2400
I20598
sS'CCTGGC'
p2401
I75573
sS'GTTAAC'
p2402
I11026
sS'GTCTGT'
p2403
I26802
sS'CCTGGG'
p2404
I99770
sS'GTTAAG'
p2405
I14976
sS'TTCGTC'
p2406
I5488
sS'CTAATC'
p2407
I11583
sS'GTCTGG'
p2408
I33935
sS'GTCTGC'
p2409
I27482
sS'GTTAAT'
p2410
I14673
sS'GTCTGA'
p2411
I22919
sS'ACCGCT'
p2412
I9463
sS'GCGGNC'
p2413
I1
sS'TCTAAA'
p2414
I23950
sS'GGAAGG'
p2415
I74646
sS'CCACAT'
p2416
I26146
sS'GGAAGC'
p2417
I49045
sS'GCACCG'
p2418
I16302
sS'GGAAGA'
p2419
I53526
sS'TGTATT'
p2420
I23201
sS'CAATGA'
p2421
I19453
sS'GCGTTC'
p2422
I8912
sS'CAATGC'
p2423
I16627
sS'GCGTTG'
p2424
I7736
sS'CAATGG'
p2425
I19934
sS'CCACAG'
p2426
I52316
sS'GGAAGT'
p2427
I33820
sS'CCACAC'
p2428
I36240
sS'CCACAA'
p2429
I26472
sS'TATCGT'
p2430
I2182
sS'AAACCA'
p2431
I33634
sS'TCCTCG'
p2432
I17830
sS'TGTATG'
p2433
I14784
sS'TCCTCA'
p2434
I42368
sS'GCGTTT'
p2435
I10034
sS'TCCTCC'
p2436
I81307
sS'TGTATC'
p2437
I11693
sS'GTGAAT'
p2438
I19522
sS'TAACCG'
p2439
I3842
sS'TCATAG'
p2440
I12260
sS'TCAGGG'
p2441
I44132
sS'CGTTAC'
p2442
I3599
sS'TAACCC'
p2443
I14578
sS'TCATAC'
p2444
I8913
sS'TAACCA'
p2445
I15609
sS'CCTGTG'
p2446
I49464
sS'TCGCGA'
p2447
I3900
sS'TGCATG'
p2448
I23893
sS'TCAGGA'
p2449
I41896
sS'TTCGTT'
p2450
I6875
sS'GCCACA'
p2451
I36505
sS'TAACCT'
p2452
I15865
sS'GTGAAG'
p2453
I28432
sS'GTGAAA'
p2454
I30674
sS'GTGAAC'
p2455
I15773
sS'AACCCG'
p2456
I11639
sS'ACCGCG'
p2457
I12343
sS'ACCGCA'
p2458
I10432
sS'AACGAG'
p2459
I7299
sS'ACCGCC'
p2460
I17914
sS'AGTTCC'
p2461
I26358
sS'CCGCCT'
p2462
I38727
sS'AGGCTT'
p2463
I34748
sS'CCTTCT'
p2464
I51726
sS'TTGGNG'
p2465
I1
sS'GTTGCA'
p2466
I18088
sS'AACGAA'
p2467
I6840
sS'GTTGCC'
p2468
I20890
sS'GTGCCG'
p2469
I13160
sS'GTGCCA'
p2470
I26264
sS'GTTGCG'
p2471
I5923
sS'GTGCCC'
p2472
I35202
sS'CCGCCG'
p2473
I45131
sS'AGGCTA'
p2474
I17511
sS'CCTTCC'
p2475
I75018
sS'AGGCTC'
p2476
I41589
sS'CCGCCC'
p2477
I71525
sS'AATTGG'
p2478
I16363
sS'CCTTCG'
p2479
I12611
sS'AGGCTG'
p2480
I75545
sS'GTGCCT'
p2481
I33329
sS'CAGCGA'
p2482
I15598
sS'GTTGCT'
p2483
I22541
sS'GGATAT'
p2484
I10845
sS'TCGGGT'
p2485
I9104
sS'ATTTGA'
p2486
I25158
sS'GCAGTT'
p2487
I25665
sS'GAAGCT'
p2488
I33873
sS'GGATAA'
p2489
I14054
sS'ATGCCA'
p2490
I23479
sS'GGATAC'
p2491
I9326
sS'NNNNNG'
p2492
I3
sS'TCGGGG'
p2493
I22636
sS'GGATAG'
p2494
I11726
sS'GAAGCG'
p2495
I16146
sS'GCAGTG'
p2496
I45849
sS'GAAGCC'
p2497
I41620
sS'GCAGTA'
p2498
I16018
sS'GAAGCA'
p2499
I36522
sS'GCAGTC'
p2500
I24380
sS'CGCCCG'
p2501
I36174
sS'GAGAGA'
p2502
I64772
sS'GTTCAT'
p2503
I14598
sS'GAGAGG'
p2504
I68935
sS'CGCCCA'
p2505
I27822
sS'AGTTTG'
p2506
I26612
sS'ACGCAG'
p2507
I14579
sS'NNNNNN'
p2508
I437
sS'CTATAC'
p2509
I6316
sS'ACGCAA'
p2510
I5380
sS'CTCGCA'
p2511
I11245
sS'CGCCCT'
p2512
I30145
sS'CTCGCG'
p2513
I13596
sS'GTCTCG'
p2514
I11257
sS'GCATTT'
p2515
I34310
sS'AACTGA'
p2516
I26445
sS'GCCGGG'
p2517
I54919
sS'TACCCG'
p2518
I6277
sS'GCCGGC'
p2519
I37914
sS'CATGTT'
p2520
I20969
sS'GCCGGA'
p2521
I18692
sS'AGAAAC'
p2522
I38518
sS'AACTGC'
p2523
I25453
sS'TACCCA'
p2524
I17679
sS'CATGTA'
p2525
I13504
sS'CATGTC'
p2526
I16608
sS'GCCGGT'
p2527
I12827
sS'CATGTG'
p2528
I25281
sS'GTACCG'
p2529
I3698
sS'TACCCC'
p2530
I16279
sS'GGCCTG'
p2531
I63993
sS'GGCCTC'
p2532
I59755
sS'GGCCTA'
p2533
I15345
sS'TTTGTT'
p2534
I52675
sS'AATCGG'
p2535
I5383
sS'AATCGC'
p2536
I6254
sS'AATCGA'
p2537
I3855
sS'GTTCAG'
p2538
I22817
sS'GGCCTT'
p2539
I34877
sS'TCACTA'
p2540
I14527
sS'TCACTC'
p2541
I28489
sS'AATCGT'
p2542
I3982
sS'AGCCGA'
p2543
I13917
sS'CCTTCA'
p2544
I34977
sS'AGCCGC'
p2545
I28083
sS'TAATTG'
p2546
I15472
sS'AAAAAT'
p2547
I57750
sS'AGCCGG'
p2548
I28579
sS'TAATTC'
p2549
I17235
sS'TGGTGA'
p2550
I29923
sS'TCTCAT'
p2551
I26427
sS'TGGTGC'
p2552
I27502
sS'GATGGC'
p2553
I23761
sS'GGGCTG'
p2554
I81879
sS'TGGTGG'
p2555
I46141
sS'CGCCCC'
p2556
I63878
sS'TAATTT'
p2557
I32193
sS'GAGCGG'
p2558
I26786
sS'GAGCGA'
p2559
I14222
sS'AGCCGT'
p2560
I9891
sS'GAGCGC'
p2561
I25658
sS'TGACAG'
p2562
I30764
sS'CCAAGG'
p2563
I43218
sS'ACGTAT'
p2564
I3351
sS'TCTCAG'
p2565
I46850
sS'CCAAGC'
p2566
I33328
sS'TGGTGT'
p2567
I24574
sS'GGGCTT'
p2568
I38355
sS'ATTCGT'
p2569
I4427
sS'AGAACT'
p2570
I27375
sS'TAACAT'
p2571
I16331
sS'CCGCCA'
p2572
I25635
sS'TACCAT'
p2573
I11855
sS'GTATCC'
p2574
I9292
sS'CCTATT'
p2575
I15704
sS'CACTGT'
p2576
I30571
sS'ACCCGA'
p2577
I9087
sS'ATGTCT'
p2578
I20688
sS'ACCCGC'
p2579
I19118
sS'ACCAGT'
p2580
I17766
sS'TACCAC'
p2581
I13341
sS'AGAACG'
p2582
I9132
sS'TACCAA'
p2583
I13160
sS'AGAACA'
p2584
I32349
sS'TACCAG'
p2585
I17010
sS'AGAACC'
p2586
I24714
sS'ACCAGC'
p2587
I35347
sS'CACTGG'
p2588
I38470
sS'ATGTCC'
p2589
I16804
sS'ATCACG'
p2590
I6430
sS'ACCAGG'
p2591
I39436
sS'CACTGC'
p2592
I45489
sS'CCTATC'
p2593
I11934
sS'CACTGA'
p2594
I31221
sS'GAGTCA'
p2595
I25465
sS'TAGGTT'
p2596
I13062
sS'GTTTAC'
p2597
I14501
sS'AATTAT'
p2598
I20851
sS'CTGTTG'
p2599
I28296
sS'TGCTAT'
p2600
I15439
sS'CTGTTC'
p2601
I29224
sS'CGGGTT'
p2602
I11664
sS'CTGTTA'
p2603
I19314
sS'AATTAC'
p2604
I16942
sS'TACATG'
p2605
I13548
sS'TAGGTG'
p2606
I17720
sS'TAGGTA'
p2607
I10902
sS'TAGGTC'
p2608
I11001
sS'CGGGTC'
p2609
I17072
sS'CTGTTT'
p2610
I42369
sS'CGGGTA'
p2611
I6112
sS'CGGGTG'
p2612
I20968
sS'ATTGTT'
p2613
I21589
sS'AAGTAA'
p2614
I22276
sS'CATTAC'
p2615
I12355
sS'GCAATG'
p2616
I18808
sS'AGCAAA'
p2617
I38310
sS'ATATAT'
p2618
I20302
sS'AGCAAC'
p2619
I22451
sS'TTAGGC'
p2620
I14391
sS'AAAGCT'
p2621
I33511
sS'TTAGGA'
p2622
I22346
sS'CATGCA'
p2623
I23684
sS'AAAGCA'
p2624
I44789
sS'ATATAG'
p2625
I9054
sS'TTAGGT'
p2626
I14085
sS'ATATAA'
p2627
I16116
sS'AGCAAT'
p2628
I20868
sS'ATATAC'
p2629
I9220
sS'TACTTC'
p2630
I16090
sS'ATAGCC'
p2631
I11225
sS'TACTTG'
p2632
I14935
sS'ATAGCG'
p2633
I3689
sS'TCTCAC'
p2634
I30356
sS'CAGCAT'
p2635
I30863
sS'TGCTAA'
p2636
I20722
sS'ATAGCT'
p2637
I14165
sS'TACTTT'
p2638
I23314
sS'CGAGTT'
p2639
I7405
sS'TCCAAT'
p2640
I15764
sS'CGTACT'
p2641
I3082
sS'CAGCGG'
p2642
I29370
sS'ACATAC'
p2643
I12939
sS'CTTAAG'
p2644
I18314
sS'ACATAA'
p2645
I16375
sS'CTTAAA'
p2646
I27531
sS'ACATAG'
p2647
I13011
sS'CTTAAC'
p2648
I15104
sS'TCCAAG'
p2649
I31796
sS'NGCANC'
p2650
I1
sS'CGAGTG'
p2651
I10434
sS'TTGTTA'
p2652
I21102
sS'TCCAAC'
p2653
I19027
sS'CGTACG'
p2654
I1523
sS'AGGGGA'
p2655
I61820
sS'CTTAAT'
p2656
I16762
sS'AGGGGC'
p2657
I61056
sS'TATGCA'
p2658
I16266
sS'AGGGGG'
p2659
I57057
sS'TCATTA'
p2660
I18946
sS'CGACTT'
p2661
I6692
sS'TGAATT'
p2662
I27148
sS'TTGTAA'
p2663
I21904
sS'AGCGGT'
p2664
I9464
sS'TTGTAG'
p2665
I16386
sS'TGAATC'
p2666
I17691
sS'GATTGG'
p2667
I17663
sS'TGAATA'
p2668
I19817
sS'CGACTC'
p2669
I9125
sS'TGAATG'
p2670
I28818
sS'AAGTAT'
p2671
I14603
sS'CGACTG'
p2672
I8388
sS'TTGTAT'
p2673
I17085
sS'ATCGTG'
p2674
I5410
sS'GCTTCG'
p2675
I10793
sS'GCTTCA'
p2676
I28071
sS'ATCGTA'
p2677
I2303
sS'TGGGAG'
p2678
I70318
sS'GAGGGT'
p2679
I34871
sS'TGGGAA'
p2680
I54084
sS'GNGCAN'
p2681
I1
sS'TGGGAC'
p2682
I31871
sS'GCTTCT'
p2683
I40326
sS'TGGCAC'
p2684
I26035
sS'GATTGA'
p2685
I12193
sS'TGGGAT'
p2686
I32550
sS'CTAGCC'
p2687
I17129
sS'CTAGCA'
p2688
I16768
sS'CTAGCG'
p2689
I6285
sS'CGGTAG'
p2690
I6096
sS'ACTTAG'
p2691
I14894
sS'TAGATT'
p2692
I14088
sS'ACTTAA'
p2693
I18962
sS'CGGTAC'
p2694
I3697
sS'TACACT'
p2695
I12874
sS'CGGTAA'
p2696
I4630
sS'GACCAG'
p2697
I30399
sS'GACCAC'
p2698
I20097
sS'CTAGCT'
p2699
I17653
sS'TACACC'
p2700
I10849
sS'CGGTAT'
p2701
I2834
sS'TACACA'
p2702
I19415
sS'AGCCCT'
p2703
I49598
sS'CGTTTA'
p2704
I5667
sS'GCGAGA'
p2705
I13750
sS'GAGAGC'
p2706
I39730
sS'GCGAGC'
p2707
I18124
sS'GGCCGT'
p2708
I13745
sS'GCGAGG'
p2709
I27002
sS'CAGCCG'
p2710
I29833
sS'CAGCCA'
p2711
I57584
sS'GGTATT'
p2712
I13495
sS'CAGCCC'
p2713
I81718
sS'GCGAGT'
p2714
I9168
sS'GAACTG'
p2715
I27263
sS'TTACGT'
p2716
I4173
sS'GAACTC'
p2717
I22763
sS'GAACTA'
p2718
I12135
sS'GGACTT'
p2719
I23299
sS'CACCTA'
p2720
I17561
sS'AACTAT'
p2721
I11755
sS'CACCTC'
p2722
I46730
sS'CACCTG'
p2723
I54162
sS'TGATCC'
p2724
I17853
sS'AACACT'
p2725
I22729
sS'TGATCA'
p2726
I15364
sS'ATTTAA'
p2727
I33090
sS'GCATTG'
p2728
I16609
sS'GGACTG'
p2729
I31223
sS'CACCTT'
p2730
I31466
sS'GGACTA'
p2731
I12041
sS'GGACTC'
p2732
I27198
sS'AACGAT'
p2733
I3914
sS'AACACG'
p2734
I8177
sS'AACACA'
p2735
I32272
sS'CGTCTC'
p2736
I16051
sS'AACACC'
p2737
I21047
sS'TGATCT'
p2738
I20170
sS'AAAGAC'
p2739
I29180
sS'GCATTC'
p2740
I23326
sS'CAACAG'
p2741
I28555
sS'GACAGT'
p2742
I20173
sS'CAACAA'
p2743
I24446
sS'AAAGAA'
p2744
I67169
sS'CAACAC'
p2745
I20449
sS'GCTGAT'
p2746
I21211
sS'GCATTA'
p2747
I13059
sS'GACAGG'
p2748
I39437
sS'CAACAT'
p2749
I19391
sS'GACAGC'
p2750
I31960
sS'GACAGA'
p2751
I37460
sS'GTATTA'
p2752
I9999
sS'GTATTC'
p2753
I10919
sS'GTAAGT'
p2754
I12870
sS'ATATCA'
p2755
I11217
sS'AGAGGT'
p2756
I32985
sS'GGTGGC'
p2757
I48494
sS'TCCCCT'
p2758
I61287
sS'GGTGGA'
p2759
I39200
sS'TATCTT'
p2760
I17742
sS'GGTGGG'
p2761
I75300
sS'AGAGGC'
p2762
I53719
sS'GTAAGA'
p2763
I15570
sS'AGAGGA'
p2764
I58356
sS'GTAAGC'
p2765
I10967
sS'GTATTT'
p2766
I26695
sS'GTAAGG'
p2767
I15210
sS'CGTCAA'
p2768
I4221
sS'CGTCAC'
p2769
I8559
sS'TCCCCC'
p2770
I57448
sS'GGTGGT'
p2771
I30391
sS'TCCCCA'
p2772
I66501
sS'GTCGCG'
p2773
I7319
sS'GTCGCA'
p2774
I6100
sS'GTCGCC'
p2775
I14298
sS'TCGGTC'
p2776
I7191
sS'TCGGTA'
p2777
I3363
sS'GAGAGT'
p2778
I25396
sS'TCGGTG'
p2779
I10366
sS'GTCGCT'
p2780
I9177
sS'TACCTA'
p2781
I10810
sS'CCGTCG'
p2782
I6887
sS'CCGTCA'
p2783
I8301
sS'CCGTCC'
p2784
I18159
sS'GGCTGT'
p2785
I41073
sS'CGCGTG'
p2786
I11045
sS'ACGCAT'
p2787
I5069
sS'CGCGTC'
p2788
I11513
sS'CGCGTA'
p2789
I2511
sS'GTTTTA'
p2790
I26450
sS'TTCGAA'
p2791
I5379
sS'CCACTA'
p2792
I16439
sS'CCACTC'
p2793
I34823
sS'CGCGTT'
p2794
I5518
sS'GGCTGG'
p2795
I87835
sS'GGCTGA'
p2796
I46110
sS'GGCTGC'
p2797
I70483
sS'CCACTT'
p2798
I30919
sS'TTTAGA'
p2799
I24020
sS'ATGACG'
p2800
I5180
sS'GGAGTT'
p2801
I30020
sS'ATGACA'
p2802
I21437
sS'TTTGTG'
p2803
I34590
sS'ATGACC'
p2804
I14774
sS'CCTGAT'
p2805
I22258
sS'GGGCCT'
p2806
I52632
sS'ATGACT'
p2807
I18280
sS'GGAGTA'
p2808
I14792
sS'GGAGTC'
p2809
I29536
sS'GGAGTG'
p2810
I40051
sS'GGGCCG'
p2811
I44278
sS'GGGCCC'
p2812
I60823
sS'GGGCCA'
p2813
I45504
sS'GGCAAG'
p2814
I31427
sS'ACGAGT'
p2815
I4719
sS'TTCGCC'
p2816
I9575
sS'TTCNNN'
p2817
I2
sS'AGGCCA'
p2818
I46248
sS'GCGCAC'
p2819
I16393
sS'AAAGTC'
p2820
I24269
sS'GCGCAG'
p2821
I30108
sS'ACGAGG'
p2822
I11998
sS'ACGAGC'
p2823
I6922
sS'ACGAGA'
p2824
I6804
sS'GGCAAC'
p2825
I20795
sS'AGGCCT'
p2826
I46849
sS'GCTCTA'
p2827
I16481
sS'AGACGG'
p2828
I14702
sS'GGGTTG'
p2829
I26129
sS'TTTGGG'
p2830
I42277
sS'GGGTTA'
p2831
I13952
sS'CTCGGG'
p2832
I28513
sS'GGGTTC'
p2833
I25042
sS'TTTGAT'
p2834
I21093
sS'TGAACT'
p2835
I22958
sS'CTACGA'
p2836
I3691
sS'ATTGCT'
p2837
I20689
sS'GGGTTT'
p2838
I31720
sS'TACAAG'
p2839
I14608
sS'AGATCC'
p2840
I19682
sS'TGCGAG'
p2841
I11206
sS'AACGGC'
p2842
I7738
sS'TTTGAG'
p2843
I34758
sS'ATTGCA'
p2844
I19171
sS'GACTAG'
p2845
I11030
sS'ATTGCG'
p2846
I4166
sS'TTTGAC'
p2847
I16957
sS'TTTGAA'
p2848
I36652
sS'CGGGCT'
p2849
I27329
sS'TGACGT'
p2850
I6988
sS'CTCGTC'
p2851
I9499
sS'CCCTGG'
p2852
I77330
sS'CCCTGA'
p2853
I44092
sS'AAGCTT'
p2854
I25079
sS'CCCTGC'
p2855
I77830
sS'GTGTAA'
p2856
I13653
sS'CCCTGT'
p2857
I41317
sS'AAGCTC'
p2858
I26977
sS'GATATA'
p2859
I7922
sS'TGACGG'
p2860
I8335
sS'GATATG'
p2861
I9411
sS'AAGCTG'
p2862
I40289
sS'TGACGC'
p2863
I7933
sS'TACTCT'
p2864
I16295
sS'CATCGT'
p2865
I5513
sS'GATGGT'
p2866
I17499
sS'GTAGTC'
p2867
I9401
sS'CAGGGT'
p2868
I41188
sS'CTACGG'
p2869
I5595
sS'CCAGTC'
p2870
I30084
sS'TACGAT'
p2871
I2332
sS'CCAGTG'
p2872
I38414
sS'TACTCG'
p2873
I4499
sS'CATCGA'
p2874
I4379
sS'CATCGC'
p2875
I8461
sS'TACTCC'
p2876
I14910
sS'NGAATT'
p2877
I2
sS'TACTCA'
p2878
I15861
sS'CATCGG'
p2879
I6192
sS'CAGGGG'
p2880
I61860
sS'CAGGGA'
p2881
I67789
sS'CAGGGC'
p2882
I70032
sS'AATCTG'
p2883
I25175
sS'CGGACT'
p2884
I8986
sS'TCCTGA'
p2885
I41847
sS'AATCTC'
p2886
I22544
sS'AATCTA'
p2887
I13845
sS'TGAACG'
p2888
I6402
sS'TCACAC'
p2889
I26751
sS'TCACAA'
p2890
I23243
sS'TCACAG'
p2891
I39431
sS'GCCATA'
p2892
I10574
sS'CGGACG'
p2893
I8655
sS'GCCATC'
p2894
I23527
sS'CGGACA'
p2895
I9393
sS'CGGACC'
p2896
I12554
sS'GCCATG'
p2897
I27263
sS'TTTTAA'
p2898
I57236
sS'CGCNNN'
p2899
I1
sS'TCACAT'
p2900
I23871
sS'ATTAAC'
p2901
I14181
sS'ATTAAA'
p2902
I30877
sS'ATTAAG'
p2903
I16550
sS'TTTTAC'
p2904
I25128
sS'TCACTT'
p2905
I31019
sS'ACATCC'
p2906
I20184
sS'CAGNNN'
p2907
I1
sS'ATTAAT'
p2908
I18249
sS'ATCATG'
p2909
I14279
sS'GAACCA'
p2910
I21885
sS'GGTATG'
p2911
I10594
sS'CTGAAT'
p2912
I27762
sS'GGTATC'
p2913
I8655
sS'CGAGAG'
p2914
I15303
sS'GGNGCA'
p2915
I1
sS'ACGAAT'
p2916
I4270
sS'CTGAAA'
p2917
I42859
sS'CTGAAC'
p2918
I22895
sS'CTGAAG'
p2919
I41113
sS'NNNNGA'
p2920
I3
sS'GTAGTG'
p2921
I11661
sS'TATGAG'
p2922
I12395
sS'CATTGA'
p2923
I15268
sS'CTAGTT'
p2924
I13203
sS'CATTGG'
p2925
I16933
sS'TCAACT'
p2926
I16892
sS'ATGTTA'
p2927
I16377
sS'ACACCG'
p2928
I9514
sS'CTGCCA'
p2929
I49507
sS'CTGCCC'
p2930
I78834
sS'ACACCC'
p2931
I28452
sS'ACACCA'
p2932
I24640
sS'CTGCCG'
p2933
I27400
sS'CTAGTG'
p2934
I16245
sS'TCAACC'
p2935
I14979
sS'TCAACA'
p2936
I20718
sS'CTAGTC'
p2937
I10995
sS'TCAACG'
p2938
I4675
sS'CTAGTA'
p2939
I8088
sS'CATTGT'
p2940
I20966
sS'TATGAC'
p2941
I8745
sS'GTAATG'
p2942
I12268
sS'ACACCT'
p2943
I26708
sS'CTGCCT'
p2944
I74817
sS'CCTCGT'
p2945
I12214
sS'TTGTGT'
p2946
I26654
sS'TCTNCC'
p2947
I1
sS'AGACTG'
p2948
I30069
sS'TCACTG'
p2949
I37722
sS'GCACTG'
p2950
I33306
sS'CCTCGG'
p2951
I31665
sS'CCTCGC'
p2952
I26884
sS'CCTCGA'
p2953
I10471
sS'CGAGGA'
p2954
I17842
sS'CGAGGC'
p2955
I25792
sS'CGAGGG'
p2956
I24716
sS'CACCGT'
p2957
I10668
sS'ACTTTA'
p2958
I19807
sS'ACTTTG'
p2959
I29904
sS'GACCTG'
p2960
I31060
sS'GACCTA'
p2961
I11034
sS'GACCTC'
p2962
I28212
sS'CACCGG'
p2963
I15631
sS'GCATAG'
p2964
I11310
sS'CACCGA'
p2965
I10184
sS'CACCGC'
p2966
I23903
sS'GACCTT'
p2967
I20951
sS'GGACGC'
p2968
I19179
sS'GGACGG'
p2969
I18227
sS'ACGCTA'
p2970
I3850
sS'CACAGC'
p2971
I51009
sS'CTTATC'
p2972
I12769
sS'CACAGA'
p2973
I44622
sS'CTTATA'
p2974
I10361
sS'CACAGG'
p2975
I49800
sS'CTTATG'
p2976
I11754
sS'ACTCAT'
p2977
I16600
sS'GAGGAG'
p2978
I81809
sS'GACGTA'
p2979
I2967
sS'CGTATC'
p2980
I2840
sS'GACGTC'
p2981
I7744
sS'GAGGAC'
p2982
I32084
sS'GAGGAA'
p2983
I58755
sS'GACGTG'
p2984
I9755
sS'TTAACA'
p2985
I22096
sS'ACTCAC'
p2986
I24009
sS'TTAACC'
p2987
I15050
sS'ACTCAA'
p2988
I19388
sS'ACTCAG'
p2989
I33605
sS'CTTATT'
p2990
I20105
sS'CACAGT'
p2991
I30486
sS'AGCGAC'
p2992
I9183
sS'TAAACA'
p2993
I26939
sS'AGCGAA'
p2994
I8487
sS'TAAACC'
p2995
I15484
sS'GACGTT'
p2996
I5830
sS'CGTATT'
p2997
I4159
sS'GAGTTC'
p2998
I23039
sS'CTGTGG'
p2999
I52604
sS'GTATGT'
p3000
I12568
sS'AGTTCA'
p3001
I22786
sS'TACTTA'
p3002
I13390
sS'CTGTGC'
p3003
I42719
sS'CTGTGA'
p3004
I39336
sS'GAGCGT'
p3005
I9333
sS'TCTAAG'
p3006
I18588
sS'GCAAAG'
p3007
I35284
sS'TAGGAA'
p3008
I26946
sS'GCAAAA'
p3009
I30427
sS'TAGGAG'
p3010
I24907
sS'GCAAAC'
p3011
I22437
sS'CGGGGC'
p3012
I57404
sS'CGGGGA'
p3013
I36483
sS'CTGTGT'
p3014
I42355
sS'CGGGGG'
p3015
I42635
sS'GTATGC'
p3016
I8052
sS'AGTTCT'
p3017
I27488
sS'GCAAAT'
p3018
I25605
sS'TAGGAT'
p3019
I14218
sS'TAATTA'
p3020
I20679
sS'AACGTA'
p3021
I3936
sS'ACGCTT'
p3022
I6963
sS'TGCTTT'
p3023
I45137
sS'ACAGGA'
p3024
I39559
sS'GTAATT'
p3025
I16970
sS'GTTACC'
p3026
I11542
sS'GTTACA'
p3027
I14563
sS'GTTTTT'
p3028
I41118
sS'GTTACG'
p3029
I2949
sS'TATCGC'
p3030
I2695
sS'TATAGT'
p3031
I8380
sS'GTCTAA'
p3032
I10301
sS'TGCTTA'
p3033
I19117
sS'TTCAAG'
p3034
I28081
sS'TGCTTC'
p3035
I36392
sS'TTCAAA'
p3036
I37098
sS'TTCAAC'
p3037
I17141
sS'GGGCTC'
p3038
I54589
sS'TATAGC'
p3039
I7908
sS'TTTATC'
p3040
I19842
sS'TATAGA'
p3041
I10858
sS'AGCTCA'
p3042
I36326
sS'TATAGG'
p3043
I9121
sS'GTTACT'
p3044
I14058
sS'GCTCTC'
p3045
I39978
sS'AACCTT'
p3046
I20978
sS'GGGCTA'
p3047
I16773
sS'GCTCTG'
p3048
I58634
sS'CCACGT'
p3049
I14238
sS'CAATAT'
p3050
I11953
sS'AGGACC'
p3051
I28718
sS'GAATGG'
p3052
I27096
sS'GGCTTT'
p3053
I37829
sS'ACTACT'
p3054
I11553
sS'GAATGC'
p3055
I23556
sS'CCACGA'
p3056
I10023
sS'AACCTG'
p3057
I29103
sS'CCACGC'
p3058
I22039
sS'GGCGTA'
p3059
I4030
sS'GTTCCG'
p3060
I8505
sS'CAATAG'
p3061
I12356
sS'CCACGG'
p3062
I19524
sS'AACCTA'
p3063
I13121
sS'GGCTTA'
p3064
I16190
sS'ACTACC'
p3065
I10264
sS'GGCTTC'
p3066
I41811
sS'ACTACA'
p3067
I15235
sS'ACTACG'
p3068
I3697
sS'GGCTTG'
p3069
I31540
sS'TCCTAG'
p3070
I23263
sS'GTTTTC'
p3071
I35017
sS'CGTTGC'
p3072
I7419
sS'TAACAC'
p3073
I13531
sS'TCCTAC'
p3074
I17724
sS'AGTCAC'
p3075
I24356
sS'TCCTAA'
p3076
I22303
sS'TAACAG'
p3077
I19210
sS'TCATCG'
p3078
I5512
sS'AAGCGT'
p3079
I6933
sS'TCATCC'
p3080
I23704
sS'AAAAAC'
p3081
I40865
sS'CTTTCT'
p3082
I61841
sS'AGTCAT'
p3083
I18514
sS'TCCTAT'
p3084
I15425
sS'TGCGAA'
p3085
I6179
sS'CGTTGT'
p3086
I5460
sS'TAAATA'
p3087
I30300
sS'CTTTCC'
p3088
I56464
sS'TCCCTT'
p3089
I48233
sS'TCATCT'
p3090
I28328
sS'CTTTCG'
p3091
I8366
sS'AAAAAG'
p3092
I55996
sS'GTTGAT'
p3093
I11215
sS'CGACCA'
p3094
I6594
sS'CGACCC'
p3095
I14851
sS'GCATAC'
p3096
I8114
sS'CGACCG'
p3097
I5668
sS'CCTTAT'
p3098
I14957
sS'GTTGAC'
p3099
I10135
sS'GTTGAA'
p3100
I17158
sS'ACTGGG'
p3101
I39780
sS'GTTGAG'
p3102
I18850
sS'TTAGGG'
p3103
I20632
sS'CCTTAC'
p3104
I15080
sS'CCTTAA'
p3105
I19777
sS'CCTTAG'
p3106
I20027
sS'CGACCT'
p3107
I9338
sS'CAACTC'
p3108
I21933
sS'CAACTA'
p3109
I10897
sS'CAACTG'
p3110
I21252
sS'AATAGG'
p3111
I15950
sS'TCTCAA'
p3112
I30377
sS'GGGGTT'
p3113
I29968
sS'GTCCCT'
p3114
I36576
sS'ATTCNN'
p3115
I2
sS'GGATGT'
p3116
I20219
sS'AATAGT'
p3117
I13421
sS'GCAGCC'
p3118
I70038
sS'CAACTT'
p3119
I20111
sS'ACTGTA'
p3120
I15998
sS'TATGAT'
p3121
I10153
sS'TGAGGT'
p3122
I29627
sS'GGATGA'
p3123
I23892
sS'GGATGG'
p3124
I35802
sS'GGGGTA'
p3125
I16063
sS'TCTCCG'
p3126
I18881
sS'GAGTCC'
p3127
I26868
sS'AAACTG'
p3128
I34537
sS'TCTCCC'
p3129
I66196
sS'CCCTTT'
p3130
I46119
sS'TCTCCA'
p3131
I49834
sS'AAACTC'
p3132
I28095
sS'ACGCGA'
p3133
I3991
sS'AGTACG'
p3134
I3030
sS'ACGCGC'
p3135
I11063
sS'AGTACC'
p3136
I10943
sS'CTATGG'
p3137
I12942
sS'AGTACA'
p3138
I13222
sS'AAACTT'
p3139
I28403
sS'CCCTTC'
p3140
I56421
sS'TCTCCT'
p3141
I59698
sS'CCCTTG'
p3142
I34052
sS'AGTACT'
p3143
I12459
sS'CTATGT'
p3144
I12989
sS'GCCGAA'
p3145
I8453
sS'GTGGAG'
p3146
I45929
sS'GCCGAC'
p3147
I10552
sS'GTGGAC'
p3148
I18088
sS'GCCGAG'
p3149
I28838
sS'GTGGAA'
p3150
I30889
sS'GTGGAT'
p3151
I18520
sS'GCCGAT'
p3152
I5217
sS'AGATAG'
p3153
I14697
sS'TATCTG'
p3154
I18318
sS'ACCCGG'
p3155
I21298
sS'ACCGAG'
p3156
I11919
sS'AAATCG'
p3157
I6425
sS'CACGCG'
p3158
I11056
sS'TTATCG'
p3159
I2751
sS'CACGCA'
p3160
I13648
sS'AAATCC'
p3161
I27710
sS'ACCGAA'
p3162
I6022
sS'GTTCCT'
p3163
I30273
sS'NCCATC'
p3164
I1
sS'AGAGGG'
p3165
I65174
sS'CTTTGA'
p3166
I30563
sS'AGATAC'
p3167
I12825
sS'CACGCT'
p3168
I12565
sS'AAATCT'
p3169
I29189
sS'ACCGAT'
p3170
I3377
sS'CTTGAA'
p3171
I28347
sS'GTAGTT'
p3172
I12470
sS'AGATAA'
p3173
I22115
sS'CGTTAT'
p3174
I3416
sS'GATGAT'
p3175
I14676
sS'GGAGCA'
p3176
I42723
sS'GGAGCC'
p3177
I63372
sS'AAAGTG'
p3178
I34800
sS'CCAAAT'
p3179
I26980
sS'GGAGCG'
p3180
I30477
sS'AAAACT'
p3181
I33201
sS'GATGAC'
p3182
I15434
sS'GATGAA'
p3183
I22781
sS'GCTCTT'
p3184
I32758
sS'GATGAG'
p3185
I25966
sS'AAAACC'
p3186
I32327
sS'CCAAAC'
p3187
I27149
sS'AAAACG'
p3188
I11824
sS'GGAGCT'
p3189
I50414
sS'CCAAAG'
p3190
I39212
sS'TCGCGG'
p3191
I11796
sS'CTAGAG'
p3192
I24167
sS'TCGCGC'
p3193
I11028
sS'AGATCN'
p3194
I1
sS'GGGAGT'
p3195
I34634
sS'TACCCT'
p3196
I16646
sS'AGATCA'
p3197
I20248
sS'GCCACC'
p3198
I48675
sS'AGAAAT'
p3199
I41488
sS'TCCCGG'
p3200
I34816
sS'CGACGG'
p3201
I6916
sS'GCCACG'
p3202
I18667
sS'AGATCG'
p3203
I6645
sS'ATGTCA'
p3204
I20318
sS'TCGCGT'
p3205
I4093
sS'GTGCAA'
p3206
I17540
sS'ACCCGT'
p3207
I6496
sS'AGAAAG'
p3208
I61559
sS'CGACGA'
p3209
I3461
sS'CGGTCG'
p3210
I5696
sS'AGATCT'
p3211
I20451
sS'GCCACT'
p3212
I34149
sS'AGAAAA'
p3213
I73236
sS'GTGCAG'
p3214
I39078
sS'ATGTAC'
p3215
I9093
sS'ACTTCG'
p3216
I6842
sS'ATGTAA'
p3217
I20125
sS'ATGTAG'
p3218
I13377
sS'GAGGAT'
p3219
I27156
sS'CTACCA'
p3220
I15866
sS'TCGCTC'
p3221
I13968
sS'GACGAC'
p3222
I5843
sS'ATGTCG'
p3223
I4067
sS'CTATGA'
p3224
I12223
sS'ATGTAT'
p3225
I14994
sS'AAAGTT'
p3226
I28068
sS'GTTCCC'
p3227
I31698
sS'AGCACT'
p3228
I31531
sS'TTAGAA'
p3229
I26798
sS'CGGCTG'
p3230
I29967
sS'TTAGAC'
p3231
I10459
sS'CGGCTC'
p3232
I29126
sS'TTAGAG'
p3233
I21611
sS'CGGCTA'
p3234
I6476
sS'AGCACC'
p3235
I32646
sS'AGCACA'
p3236
I33787
sS'AGCACG'
p3237
I11507
sS'CGGCTT'
p3238
I14858
sS'TTAGAT'
p3239
I13480
sS'CCAGCA'
p3240
I59184
sS'CGAAGC'
p3241
I10909
sS'CCAGCC'
p3242
I87177
sS'ATATCC'
p3243
I10809
sS'AACTAC'
p3244
I12078
sS'CCAGCG'
p3245
I28794
sS'GCGCTG'
p3246
I31853
sS'TTATTT'
p3247
I49995
sS'TGTGAG'
p3248
I35450
sS'TGTGAA'
p3249
I31207
sS'CTACCT'
p3250
I20992
sS'TGTGAC'
p3251
I23991
sS'ATATCT'
p3252
I13172
sS'CCAGCT'
p3253
I61064
sS'AAAGAT'
p3254
I27037
sS'TGTGAT'
p3255
I23266
sS'TTATTG'
p3256
I17892
sS'TTATTA'
p3257
I21868
sS'CATGAT'
p3258
I14321
sS'TTATTC'
p3259
I21212
sS'ACATCT'
p3260
I21993
sS'TTTTAT'
p3261
I39870
sS'GCGAAC'
p3262
I5800
sS'CTTACT'
p3263
I16893
sS'TCCACT'
p3264
I28718
sS'TACAAA'
p3265
I26442
sS'AGACGA'
p3266
I7184
sS'TACAAC'
p3267
I10746
sS'CCTCTG'
p3268
I69557
sS'AGGTGG'
p3269
I54624
sS'ATTAGT'
p3270
I11443
sS'CCTCTC'
p3271
I68202
sS'AGGTGC'
p3272
I31640
sS'CCTCTA'
p3273
I24058
sS'AGGTGA'
p3274
I36842
sS'TACAAT'
p3275
I13131
sS'TCCACA'
p3276
I31417
sS'TTTTAG'
p3277
I28159
sS'ACATCG'
p3278
I4903
sS'CTTACC'
p3279
I15691
sS'ACATCA'
p3280
I19094
sS'CTTACA'
p3281
I17378
sS'TCCACG'
p3282
I13311
sS'AGGTGT'
p3283
I26866
sS'CCTCTT'
p3284
I47548
sS'GCGTGA'
p3285
I11656
sS'CCCGGC'
p3286
I54914
sS'CCCGGA'
p3287
I25980
sS'CCCGGG'
p3288
I59228
sS'TATGAA'
p3289
I15888
sS'TGGAAT'
p3290
I32312
sS'AATTAA'
p3291
I27860
sS'TTGTGC'
p3292
I19771
sS'TTGTGA'
p3293
I23867
sS'TTGTGG'
p3294
I27122
sS'CCCGGT'
p3295
I15149
sS'GGCGTG'
p3296
I22561
sS'TGGAAG'
p3297
I44335
sS'GGTTTT'
p3298
I32718
sS'TGGAAC'
p3299
I21745
sS'TGGAAA'
p3300
I47519
sS'TGAGGA'
p3301
I42716
sS'AAGAGG'
p3302
I47809
sS'TGAGGC'
p3303
I42991
sS'AAGAGA'
p3304
I47187
sS'AAGAGC'
p3305
I32503
sS'TGAGGG'
p3306
I44537
sS'GCTTAG'
p3307
I16336
sS'TNCCAT'
p3308
I1
sS'GCTTAC'
p3309
I10899
sS'GCTTAA'
p3310
I15549
sS'TGATTC'
p3311
I19940
sS'AAGCGC'
p3312
I13054
sS'AAGAGT'
p3313
I23950
sS'AAGCGA'
p3314
I9740
sS'AAGCGG'
p3315
I14463
sS'GCTTAT'
p3316
I12178
sS'GTTCGG'
p3317
I6641
sS'CTGCTA'
p3318
I21395
sS'GCGTGT'
p3319
I11953
sS'CTGCTC'
p3320
I55244
sS'ACTTCT'
p3321
I28970
sS'GACCGT'
p3322
I5705
sS'CTGCTG'
p3323
I77057
sS'CGGTCA'
p3324
I7630
sS'GGTCGT'
p3325
I5805
sS'CGGTCC'
p3326
I13997
sS'CTAGAA'
p3327
I22441
sS'CTAGAC'
p3328
I11757
sS'GACCGA'
p3329
I7247
sS'GACCGC'
p3330
I11962
sS'ACTTCC'
p3331
I33840
sS'CTGCTT'
p3332
I46726
sS'ACTTCA'
p3333
I24870
sS'CTAGAT'
p3334
I12637
sS'GGTCGG'
p3335
I14306
sS'CGGTCT'
p3336
I9347
sS'GGTCGC'
p3337
I11724
sS'GGTCGA'
p3338
I5007
sS'CGTCGC'
p3339
I7947
sS'GCGTGG'
p3340
I22188
sS'TGAAGC'
p3341
I27824
sS'CGTCGG'
p3342
I7266
sS'GCGTGC'
p3343
I14365
sS'TGCTCA'
p3344
I32570
sS'TTCATC'
p3345
I22746
sS'TGCTCC'
p3346
I42498
sS'TTCATA'
p3347
I15901
sS'TTCATG'
p3348
I21937
sS'TGCTCG'
p3349
I10335
sS'GTACAA'
p3350
I9827
sS'CAGCAG'
p3351
I77312
sS'GCTTTG'
p3352
I35995
sS'CAGCAC'
p3353
I44688
sS'CAGCAA'
p3354
I37387
sS'GTACAC'
p3355
I8407
sS'TCTGAC'
p3356
I23837
sS'TTCATT'
p3357
I36558
sS'GCTTTA'
p3358
I19973
sS'GCTGCC'
p3359
I64426
sS'GCTGCA'
p3360
I50539
sS'AACTCT'
p3361
I25495
sS'TGGCCC'
p3362
I45256
sS'TGGCCA'
p3363
I45230
sS'GCGGCG'
p3364
I50940
sS'GTAGCA'
p3365
I13921
sS'TGCTCT'
p3366
I42026
sS'AACTCA'
p3367
I24764
sS'TGGCCT'
p3368
I46292
sS'AACTCC'
p3369
I29972
sS'GCTGCT'
p3370
I61590
sS'AACTCG'
p3371
I7254
sS'TGAAGA'
p3372
I33164
sS'AATATT'
p3373
I25863
sS'GTTCGA'
p3374
I4805
sS'CAACCT'
p3375
I23759
sS'CAGTTA'
p3376
I17394
sS'TGGCCG'
p3377
I22103
sS'GGCACG'
p3378
I14234
sS'GGCACA'
p3379
I32065
sS'GACAAT'
p3380
I14389
sS'GGCACC'
p3381
I33039
sS'CAACCG'
p3382
I6872
sS'ACGACC'
p3383
I5699
sS'AATATG'
p3384
I16238
sS'AATATA'
p3385
I17795
sS'AGCAAG'
p3386
I35484
sS'AATATC'
p3387
I13074
sS'GACAAA'
p3388
I26433
sS'GGCACT'
p3389
I27726
sS'GACAAC'
p3390
I13369
sS'ACGACA'
p3391
I5240
sS'GACAAG'
p3392
I22637
sS'GCTGCG'
p3393
I32657
sS'GCAATC'
p3394
I12879
sS'GCAATA'
p3395
I11139
sS'GAATTT'
p3396
I30588
sS'TTGAAC'
p3397
I17142
sS'CGATGG'
p3398
I7869
sS'TCCCAT'
p3399
I29575
sS'CGATGC'
p3400
I6456
sS'GTAAAT'
p3401
I20372
sS'CGATGA'
p3402
I5574
sS'TTACGC'
p3403
I3274
sS'GAATTC'
p3404
I25078
sS'GAATTG'
p3405
I18041
sS'TCCCAA'
p3406
I37207
sS'CGATGT'
p3407
I4620
sS'TCCCAC'
p3408
I44457
sS'GTAAAG'
p3409
I18270
sS'TCCCAG'
p3410
I76711
sS'GGATTT'
p3411
I27455
sS'GTGCGT'
p3412
I9645
sS'ATGGTA'
p3413
I11951
sS'GGATTC'
p3414
I21533
sS'AATTAG'
p3415
I20064
sS'GGATTA'
p3416
I18209
sS'AGGTCC'
p3417
I25245
sS'AGCGGC'
p3418
I26157
sS'ATGGTG'
p3419
I24066
sS'AAAGCC'
p3420
I38414
sS'TCTGTG'
p3421
I45383
sS'ACGCCC'
p3422
I18213
sS'GTCCCG'
p3423
I20525
sS'TCTGTA'
p3424
I23126
sS'AACCGG'
p3425
I8467
sS'CTCCTT'
p3426
I53461
sS'GGCGGA'
p3427
I27593
sS'CAGATA'
p3428
I18001
sS'GGCGGG'
p3429
I75286
sS'AACCGA'
p3430
I6354
sS'TCTGTT'
p3431
I34809
sS'AAAGCG'
p3432
I12024
sS'CTCCTG'
p3433
I74943
sS'AACCGT'
p3434
I5143
sS'CTCCTA'
p3435
I24886
sS'CTCCTC'
p3436
I81732
sS'GGCGGT'
p3437
I17899
sS'GACGCA'
p3438
I9327
sS'GACGCC'
p3439
I15916
sS'CCCACA'
p3440
I44866
sS'CCCACC'
p3441
I75689
sS'ATAGCA'
p3442
I14960
sS'AGCCTT'
p3443
I35201
sS'CCGATT'
p3444
I5374
sS'CCCACT'
p3445
I41411
sS'ACTTTT'
p3446
I33126
sS'AACAAT'
p3447
I21452
sS'GACGCT'
p3448
I10821
sS'AAATAC'
p3449
I26125
sS'GTGCGA'
p3450
I6799
sS'CCGATA'
p3451
I2480
sS'CCGATC'
p3452
I5354
sS'AGCCTA'
p3453
I17208
sS'CCGATG'
p3454
I6286
sS'GTACCC'
p3455
I10834
sS'CTCCCG'
p3456
I40034
sS'TCGAAG'
p3457
I6353
sS'CGCCTT'
p3458
I16753
sS'TGGTTC'
p3459
I22004
sS'TCNNNN'
p3460
I2
sS'CAGAGT'
p3461
I34557
sS'GCATCT'
p3462
I24875
sS'ACCTCG'
p3463
I12538
sS'GCGCCC'
p3464
I48133
sS'CGCCTC'
p3465
I37074
sS'GCGCCA'
p3466
I21016
sS'CGCCTA'
p3467
I6941
sS'GCGCCG'
p3468
I33304
sS'CGCCTG'
p3469
I32070
sS'GTACCT'
p3470
I12560
sS'CAGAGG'
p3471
I69373
sS'GCATCC'
p3472
I23718
sS'GCATCA'
p3473
I18053
sS'CAGAGC'
p3474
I58146
sS'CGGCCA'
p3475
I22221
sS'CAGAGA'
p3476
I59454
sS'AATCAT'
p3477
I17155
sS'TAGCTA'
p3478
I11133
sS'CCTAGA'
p3479
I21813
sS'CCTAGC'
p3480
I19944
sS'TTTGCT'
p3481
I38451
sS'CGGGAG'
p3482
I40290
sS'TGCGGT'
p3483
I10517
sS'CCTAGG'
p3484
I26316
sS'TAAGCA'
p3485
I19214
sS'GTCTAG'
p3486
I11761
sS'CGGGAA'
p3487
I21366
sS'TTTGCC'
p3488
I29865
sS'CCTAGT'
p3489
I15229
sS'TGCGGG'
p3490
I26045
sS'TAAGCG'
p3491
I4904
sS'TGAGTT'
p3492
I24299
sS'CGGGAC'
p3493
I20469
sS'ATCGCT'
p3494
I7279
sS'TCTCGT'
p3495
I6982
sS'ATCGCC'
p3496
I7451
sS'TGAGTG'
p3497
I29628
sS'ATCGCA'
p3498
I5116
sS'TGAGTA'
p3499
I15903
sS'ATCGCG'
p3500
I4673
sS'TGAGTC'
p3501
I23965
sS'AAGGTG'
p3502
I31402
sS'AAGGTC'
p3503
I20922
sS'CATCAT'
p3504
I17431
sS'AAGGTA'
p3505
I17184
sS'ACGGCA'
p3506
I8769
sS'CATCAC'
p3507
I21692
sS'ACGGCC'
p3508
I13625
sS'CATCAA'
p3509
I16753
sS'CATCAG'
p3510
I25975
sS'ACGGCG'
p3511
I9618
sS'TCACCT'
p3512
I36410
sS'TCGTTT'
p3513
I8344
sS'CGGAAT'
p3514
I6643
sS'ATCGAT'
p3515
I2675
sS'TCACCG'
p3516
I11807
sS'TCACCA'
p3517
I30039
sS'TCACCC'
p3518
I33267
sS'CGGAAG'
p3519
I16807
sS'CAACCC'
p3520
I26281
sS'AACTGG'
p3521
I27093
sS'AAAATA'
p3522
I50593
sS'CGGAAC'
p3523
I8892
sS'AGCTCG'
p3524
I12663
sS'CGGAAA'
p3525
I12149
sS'TAGCTT'
p3526
I16357
sS'ATCCAG'
p3527
I26991
sS'ATGGCG'
p3528
I11181
sS'TGTGTA'
p3529
I19763
sS'ATGGCC'
p3530
I22667
sS'ATGGCA'
p3531
I25264
sS'ATCCCT'
p3532
I27445
sS'ATGGCT'
p3533
I25073
sS'TGTGTT'
p3534
I32679
sS'AGAATT'
p3535
I30006
sS'AGATTC'
p3536
I21945
sS'GAAACA'
p3537
I35947
sS'GAAACC'
p3538
I29539
sS'CTGAGT'
p3539
I33367
sS'GAAACT'
p3540
I30414
sS'AGAATG'
p3541
I33422
sS'AGATTT'
p3542
I29331
sS'AGAATC'
p3543
I24049
sS'CTGAGC'
p3544
I50276
sS'CTGAGA'
p3545
I46597
sS'CTGAGG'
p3546
I61059
sS'CATACC'
p3547
I10618
sS'CATACA'
p3548
I14889
sS'CATACG'
p3549
I2773
sS'TCAAAT'
p3550
I25136
sS'GTCCAT'
p3551
I13407
sS'AGGGGT'
p3552
I35433
sS'GCANCT'
p3553
I1
sS'CAGGAC'
p3554
I38368
sS'CATACT'
p3555
I10933
sS'GTCCAG'
p3556
I29681
sS'CAAGCT'
p3557
I26559
sS'TCAAAG'
p3558
I30684
sS'TCAAAA'
p3559
I33649
sS'GTCCAA'
p3560
I14021
sS'CGGCGG'
p3561
I45561
sS'TTGATG'
p3562
I16612
sS'ATCGAG'
p3563
I4865
sS'CGGCGC'
p3564
I33374
sS'TTGATC'
p3565
I11958
sS'CGGCGA'
p3566
I11572
sS'CGTACA'
p3567
I3215
sS'AAGTGA'
p3568
I30917
sS'TTGATT'
p3569
I20840
sS'CGGCGT'
p3570
I9809
sS'GTACGC'
p3571
I2843
sS'ATCGAC'
p3572
I2674
sS'CCATTA'
p3573
I14614
sS'ATCCCC'
p3574
I29235
sS'CGGTTA'
p3575
I3904
sS'GGTTTA'
p3576
I15359
sS'CGGTTC'
p3577
I9082
sS'GGTTTC'
p3578
I29721
sS'CGGTTG'
p3579
I6947
sS'GGTTTG'
p3580
I25381
sS'CCATTG'
p3581
I19869
sS'TCCAAA'
p3582
I32881
sS'GCTGTG'
p3583
I51631
sS'GCTGTC'
p3584
I31905
sS'CGGTTT'
p3585
I8857
sS'GCTGTA'
p3586
I18096
sS'TATGCG'
p3587
I3044
sS'AGGTTG'
p3588
I24159
sS'GAATTA'
p3589
I17501
sS'AGGTTC'
p3590
I20819
sS'AGGTTA'
p3591
I15872
sS'CNNNNN'
p3592
I3
sS'GAGGGA'
p3593
I69689
sS'TTTTTC'
p3594
I56678
sS'GAGGGC'
p3595
I55053
sS'TTTTTA'
p3596
I52281
sS'TTTTTG'
p3597
I45884
sS'GAGGGG'
p3598
I82268
sS'TTAAAT'
p3599
I32819
sS'AGGTTT'
p3600
I29200
sS'TATGCC'
p3601
I10570
sS'TTAAAC'
p3602
I20401
sS'ATACGT'
p3603
I3351
sS'TTAAAA'
p3604
I56727
sS'ACTCCG'
p3605
I12384
sS'TTAAAG'
p3606
I29390
sS'ACTCCA'
p3607
I33422
sS'TTTTTT'
p3608
I165662
sS'ACTCCC'
p3609
I34607
sS'TAGGCT'
p3610
I17260
sS'GTCACG'
p3611
I8379
sS'CTGTAC'
p3612
I13487
sS'GCAACT'
p3613
I17606
sS'GTCACC'
p3614
I24825
sS'CTGTAG'
p3615
I22546
sS'GTCACA'
p3616
I23901
sS'GCAACG'
p3617
I7195
sS'GGTCTT'
p3618
I22708
sS'GTCACT'
p3619
I23876
sS'TAGGCG'
p3620
I7040
sS'GCAACC'
p3621
I19503
sS'CTGTAT'
p3622
I16960
sS'GCAACA'
p3623
I22791
sS'TAGGCC'
p3624
I15210
sS'ATTCAT'
p3625
I23208
sS'GTAAAA'
p3626
I24706
sS'GCGATT'
p3627
I6170
sS'TCGTGT'
p3628
I6157
sS'TTCACT'
p3629
I28859
sS'GTCTCT'
p3630
I37311
sS'AACATT'
p3631
I25800
sS'ATTCAG'
p3632
I27775
sS'ATTCAA'
p3633
I22939
sS'ATTCAC'
p3634
I19562
sS'GTCTCC'
p3635
I38485
sS'TCGTGG'
p3636
I10185
sS'GCGATG'
p3637
I8434
sS'TTCACC'
p3638
I25978
sS'GCGATA'
p3639
I2780
sS'TTCACA'
p3640
I30889
sS'GCGATC'
p3641
I7038
sS'GAAGGC'
p3642
I39072
sS'GAAGGA'
p3643
I52170
sS'TTGTAC'
p3644
I9824
sS'GAAGGG'
p3645
I56354
sS'CGATTA'
p3646
I2838
sS'GGAACC'
p3647
I26761
sS'AGACTT'
p3648
I23483
sS'GGAACA'
p3649
I27855
sS'GGAACG'
p3650
I11212
sS'TGACGA'
p3651
I4792
sS'TACTGC'
p3652
I16228
sS'CGATTT'
p3653
I6429
sS'GAAGGT'
p3654
I26518
sS'CTCGCT'
p3655
I18288
sS'CAATCG'
p3656
I4011
sS'CAATCA'
p3657
I18404
sS'GGAACT'
p3658
I26245
sS'CCAAGT'
p3659
I26433
sS'AGTCCA'
p3660
I21522
sS'TCCTGC'
p3661
I59166
sS'AGTCCC'
p3662
I33824
sS'ACTAAA'
p3663
I19354
sS'TCCTGG'
p3664
I68329
sS'ACTAAC'
p3665
I9912
sS'TAACGC'
p3666
I3795
sS'CAGCTG'
p3667
I67501
sS'CAGCTA'
p3668
I23324
sS'CAGCTC'
p3669
I58735
sS'ACTAAT'
p3670
I11397
sS'GATTGT'
p3671
I12953
sS'AGTCCT'
p3672
I29081
sS'TCCTGT'
p3673
I39464
sS'TAATGT'
p3674
I15225
sS'CAGCTT'
p3675
I40173
sS'GGTTAG'
p3676
I13245
sS'TAACGT'
p3677
I4154
sS'AGCCAG'
p3678
I60520
sS'GTACTT'
p3679
I12659
sS'CGACAT'
p3680
I4168
sS'TTGTTC'
p3681
I24022
sS'CGCAAG'
p3682
I8892
sS'CCGAGG'
p3683
I31218
sS'CCGAGA'
p3684
I16895
sS'AGGAAG'
p3685
I74491
sS'CCGAGC'
p3686
I23090
sS'CCGCGT'
p3687
I11714
sS'CGACAC'
p3688
I6609
sS'CGACAA'
p3689
I4694
sS'CGACAG'
p3690
I10677
sS'GTACTA'
p3691
I5897
sS'CCGCGC'
p3692
I40918
sS'AGCCAC'
p3693
I43423
sS'CCGCGA'
p3694
I11803
sS'TACGCA'
p3695
I3721
sS'CCGCGG'
p3696
I38283
sS'TTGTTT'
p3697
I52101
sS'GCATAT'
p3698
I11810
sS'AACATG'
p3699
I20878
sS'AGCCAA'
p3700
I32222
sS'AATAAC'
p3701
I17283
sS'AATAAA'
p3702
I48311
sS'AATAAG'
p3703
I19902
sS'AAGGCT'
p3704
I35068
sS'ATCGTT'
p3705
I3852
sS'CGCCAT'
p3706
I11027
sS'GGATTG'
p3707
I16617
sS'AATAAT'
p3708
I25969
sS'CCAACC'
p3709
I27210
sS'CCAACA'
p3710
I25564
sS'TTATGC'
p3711
I12212
sS'CCAACG'
p3712
I7734
sS'CGCCGC'
p3713
I50574
sS'AGTAAA'
p3714
I24999
sS'CGCCGA'
p3715
I11081
sS'GAGTAG'
p3716
I17243
sS'CGCCGG'
p3717
I28647
sS'GAGTAA'
p3718
I15515
sS'GAGTAC'
p3719
I8841
sS'CTCAGG'
p3720
I57152
sS'CTAAAA'
p3721
I28325
sS'CTCAGC'
p3722
I57530
sS'CCAACT'
p3723
I22286
sS'TATTGC'
p3724
I11361
sS'TCGAGA'
p3725
I7489
sS'GTGTAG'
p3726
I13046
sS'TCGAGC'
p3727
I6743
sS'AGTAAT'
p3728
I14954
sS'GTGTAC'
p3729
I8448
sS'CGCCGT'
p3730
I9734
sS'GTGGCA'
p3731
I32351
sS'GTGGCC'
p3732
I41761
sS'CTCGGA'
p3733
I14833
sS'CTCGGC'
p3734
I28591
sS'GCCGCC'
p3735
I60821
sS'GCCGCA'
p3736
I20326
sS'GCCGCG'
p3737
I37169
sS'ACACTT'
p3738
I22299
sS'CTCGGT'
p3739
I12142
sS'AGATAT'
p3740
I13021
sS'GTGGCT'
p3741
I43242
sS'CATATA'
p3742
I11138
sS'TCAGCA'
p3743
I38392
sS'ACACTC'
p3744
I21573
sS'ACACTA'
p3745
I11560
sS'ACACTG'
p3746
I29897
sS'GCCGCT'
p3747
I26244
sS'ACCGGA'
p3748
I8024
sS'AAATAA'
p3749
I50355
sS'ACCGGC'
p3750
I12735
sS'GTCAGA'
p3751
I24188
sS'CTTTAA'
p3752
I29132
sS'AATCCT'
p3753
I25374
sS'CTTTAC'
p3754
I18237
sS'CACGAG'
p3755
I10191
sS'CAGGTA'
p3756
I22523
sS'AACTTC'
p3757
I23896
sS'CAGGTC'
p3758
I31299
sS'CACGAC'
p3759
I6332
sS'AACTTG'
p3760
I21626
sS'CAGGTG'
p3761
I53905
sS'CTTTAT'
p3762
I24091
sS'AATCCC'
p3763
I28905
sS'GCTCGT'
p3764
I6905
sS'AATCCA'
p3765
I22995
sS'AAATAT'
p3766
I31916
sS'AATCCG'
p3767
I6333
sS'GATACA'
p3768
I11912
sS'GCAAGT'
p3769
I19643
sS'CAGGTT'
p3770
I29543
sS'AACTTT'
p3771
I28085
sS'TCTGTC'
p3772
I38258
sS'GGGATA'
p3773
I13829
sS'GGGATC'
p3774
I21794
sS'GGGTGT'
p3775
I28817
sS'GGGATG'
p3776
I36096
sS'GATGCT'
p3777
I23226
sS'CGCAGT'
p3778
I12493
sS'ATTGGG'
p3779
I16686
sS'GAGCCT'
p3780
I41825
sS'GGAGAC'
p3781
I38558
sS'GGCGGC'
p3782
I61112
sS'GGAGAA'
p3783
I54570
sS'GGGTGC'
p3784
I33722
sS'GGAGAG'
p3785
I73515
sS'GGGTGG'
p3786
I69713
sS'GAGCCA'
p3787
I45425
sS'CGCAGG'
p3788
I29678
sS'GATGCG'
p3789
I8377
sS'CGCAGA'
p3790
I17221
sS'GATGCA'
p3791
I20242
sS'CGCAGC'
p3792
I32197
sS'GATGCC'
p3793
I21468
sS'CGGATT'
p3794
I6415
sS'GGTAGT'
p3795
I10491
sS'ACCCCT'
p3796
I35909
sS'GCCAAT'
p3797
I16481
sS'AACCGC'
p3798
I8900
sS'AGAGTC'
p3799
I24459
sS'AGAAGT'
p3800
I28603
sS'ACCCCA'
p3801
I42610
sS'GGTAGA'
p3802
I16780
sS'GCCAAA'
p3803
I25403
sS'CGGATG'
p3804
I8735
sS'GCCAAG'
p3805
I36836
sS'CGGATA'
p3806
I3287
sS'ACCCCG'
p3807
I23473
sS'GGTAGG'
p3808
I22104
sS'AGAAGA'
p3809
I43448
sS'AGAAGC'
p3810
I40370
sS'GCAAGA'
p3811
I26713
sS'AGAAGG'
p3812
I51592
sS'CACTCC'
p3813
I39221
sS'CACTCA'
p3814
I29156
sS'CACTCG'
p3815
I10306
sS'TGCGTT'
p3816
I7860
sS'GCAAGG'
p3817
I32937
sS'AGCTTT'
p3818
I33766
sS'CCCCGG'
p3819
I48396
sS'TGCGTA'
p3820
I3745
sS'CCCCGC'
p3821
I70142
sS'CACTCT'
p3822
I31268
sS'AGCTTC'
p3823
I34078
sS'AGCTTA'
p3824
I14861
sS'AGCTTG'
p3825
I26505
sS'ATACGA'
p3826
I2530
sS'AGACCA'
p3827
I28079
sS'TTAGCT'
p3828
I18987
sS'TTAGCC'
p3829
I16701
sS'TTAGCA'
p3830
I20676
sS'GACCAT'
p3831
I12646
sS'TTAGCG'
p3832
I4829
sS'TACCGG'
p3833
I4799
sS'TCATAT'
p3834
I12261
sS'AAGGGG'
p3835
I47316
sS'ATAAGG'
p3836
I15162
sS'TGTGCT'
p3837
I34160
sS'AAGGGC'
p3838
I35283
sS'ATAAGC'
p3839
I12031
sS'AAGGGA'
p3840
I48809
sS'ATAAGA'
p3841
I16938
sS'CCAGAC'
p3842
I33895
sS'CCAGAA'
p3843
I43185
sS'CCAGAG'
p3844
I61758
sS'TGTGCG'
p3845
I13440
sS'ATAAGT'
p3846
I10886
sS'AAGGGT'
p3847
I23554
sS'TGTGCC'
p3848
I32359
sS'ATAGGA'
p3849
I15628
sS'TGTGCA'
p3850
I28881
sS'ATAGGC'
p3851
I10927
sS'GCTCGC'
p3852
I18280
sS'TTTGCG'
p3853
I7725
sS'CCAGAT'
p3854
I26549
sS'AGACAA'
p3855
I28056
sS'AACAAG'
p3856
I26455
sS'AGACAC'
p3857
I28116
sS'AGACAG'
p3858
I44905
sS'TTTTCT'
p3859
I73144
sS'CGCTGT'
p3860
I15278
sS'CCCACG'
p3861
I22120
sS'TCAAGA'
p3862
I23333
sS'CGTGGG'
p3863
I22435
sS'CTATAG'
p3864
I8829
sS'AGACAT'
p3865
I20863
sS'CGTGGA'
p3866
I13422
sS'TTTTCG'
p3867
I7246
sS'AACAAC'
p3868
I21011
sS'CGCTGC'
p3869
I32735
sS'TTTTCC'
p3870
I55791
sS'TTTTCA'
p3871
I43977
sS'CGCTGG'
p3872
I28803
sS'TATGGA'
p3873
I13223
sS'TATGGC'
p3874
I10655
sS'CGTAGG'
p3875
I5795
sS'ATCGTC'
p3876
I3751
sS'CGTAGA'
p3877
I4342
sS'TATGGG'
p3878
I13023
sS'CGTAGC'
p3879
I5102
sS'TACCGT'
p3880
I3497
sS'AAGTGT'
p3881
I22156
sS'TGGACT'
p3882
I21746
sS'CGTAGT'
p3883
I3721
sS'GCTCGA'
p3884
I6659
sS'TATGGT'
p3885
I10072
sS'TGGACA'
p3886
I24182
sS'TGGACC'
p3887
I19870
sS'TGGACG'
p3888
I10086
sS'GGCGGN'
p3889
I1
sS'CCGGTT'
p3890
I8583
sS'GACCAA'
p3891
I16997
sS'GCTTGA'
p3892
I20716
sS'TGAGAC'
p3893
I27913
sS'GCTTGC'
p3894
I22966
sS'TGAGAA'
p3895
I41789
sS'TGAGAG'
p3896
I38597
sS'GCTTGG'
p3897
I33520
sS'CCTGTT'
p3898
I32431
sS'CCGGTG'
p3899
I15851
sS'CCGGTC'
p3900
I11788
sS'ACTTAT'
p3901
I10958
sS'CCTGTC'
p3902
I39270
sS'CCTGTA'
p3903
I25124
sS'CTCGCC'
p3904
I24752
sS'GCTTGT'
p3905
I20336
sS'TGAGAT'
p3906
I26072
sS'GGTTGT'
p3907
I16760
sS'AGGGAT'
p3908
I27688
sS'TATCAG'
p3909
I13741
sS'AATTCN'
p3910
I2
sS'TACACG'
p3911
I4649
sS'TAGCGT'
p3912
I3884
sS'GGTTGG'
p3913
I27320
sS'GGTTGA'
p3914
I15314
sS'GGTTGC'
p3915
I19414
sS'TCCCGC'
p3916
I32173
sS'TCCCGA'
p3917
I14092
sS'GTAACA'
p3918
I14364
sS'GTAACC'
p3919
I10862
sS'CGTTTT'
p3920
I11669
sS'ATTCTC'
p3921
I28979
sS'ATTCTA'
p3922
I18205
sS'ATTCTG'
p3923
I30165
sS'TCATTT'
p3924
I39796
sS'GTAACT'
p3925
I14153
sS'CAGCGC'
p3926
I31594
sS'TGCTAG'
p3927
I16581
sS'TCCCGT'
p3928
I11645
sS'AGGATC'
p3929
I20899
sS'TCATTC'
p3930
I28199
sS'CGTTTG'
p3931
I8637
sS'TCATTG'
p3932
I19488
sS'ATTCTT'
p3933
I31416
sS'CGTTTC'
p3934
I11540
sS'ACCGGG'
p3935
I15081
sS'TGGCAA'
p3936
I26390
sS'AGCCTG'
p3937
I62215
sS'TGGCAG'
p3938
I50142
sS'GCTGAG'
p3939
I57890
sS'GCTGAA'
p3940
I32599
sS'GCTGAC'
p3941
I25443
sS'TGGCAT'
p3942
I23816
sS'GGCCGG'
p3943
I48300
sS'GTTCAA'
p3944
I17020
sS'NNGATC'
p3945
I1
sS'AGCCTC'
p3946
I54846
sS'GGCCGC'
p3947
I45801
sS'GAACTT'
p3948
I20792
sS'GGCCGA'
p3949
I19631
sS'GGCAAT'
p3950
I15458
sS'CGCTCG'
p3951
I13011
sS'CTATAA'
p3952
I11951
sS'CTGATT'
p3953
I25951
sS'CCATCG'
p3954
I7793
sS'CTAAAT'
p3955
I19293
sS'CCATCC'
p3956
I35736
sS'CCATCA'
p3957
I23651
sS'CTGATC'
p3958
I17486
sS'CTGATA'
p3959
I13832
sS'GTACCA'
p3960
I9701
sS'CTGATG'
p3961
I26124
sS'GGCAAA'
p3962
I29562
sS'CTAAAG'
p3963
I20423
sS'CCATCT'
p3964
I36106
sS'CTAAAC'
p3965
I14995
sS'TTGCGT'
p3966
I5454
sS'GACACC'
p3967
I22981
sS'GACACA'
p3968
I27629
sS'GACACG'
p3969
I9533
sS'CCAAGA'
p3970
I33180
sS'GCGCCT'
p3971
I26932
sS'CGTATA'
p3972
I2064
sS'TACGAG'
p3973
I3468
sS'TACGAC'
p3974
I2332
sS'GGAAAG'
p3975
I56092
sS'GACACT'
p3976
I20812
sS'GGCGAT'
p3977
I7484
sS'ACGCTG'
p3978
I14495
sS'CTATTA'
p3979
I11712
sS'CTATTC'
p3980
I13979
sS'TCGATG'
p3981
I4265
sS'TCGATA'
p3982
I2001
sS'TCGATC'
p3983
I3396
sS'CTATTT'
p3984
I24497
sS'CGCGAA'
p3985
I5060
sS'CAGCCT'
p3986
I75241
sS'TCGATT'
p3987
I4002
sS'CTACCG'
p3988
I5771
sS'AGGCAC'
p3989
I33279
sS'ACAATG'
p3990
I20972
sS'AACCAA'
p3991
I24201
sS'TGCCGG'
p3992
I18841
sS'AACCAC'
p3993
I22926
sS'TGCCGC'
p3994
I20105
sS'AACCAG'
p3995
I29695
sS'TGCCGA'
p3996
I8412
sS'TTGGAC'
p3997
I14214
sS'TCTGGA'
p3998
I39852
sS'AGGCAG'
p3999
I75233
sS'TGCCGT'
p4000
I8799
sS'AACCAT'
p4001
I15676
sS'AACAGA'
p4002
I34722
sS'ACGTCG'
p4003
I3374
sS'AACAGC'
p4004
I31389
sS'CTACCC'
p4005
I19945
sS'AACAGG'
p4006
I32401
sS'ACGTCA'
p4007
I6916
sS'CCCAAG'
p4008
I42615
sS'AGCAGC'
p4009
I61376
sS'GACGAA'
p4010
I5395
sS'CCCAAC'
p4011
I29474
sS'CCCAAA'
p4012
I42272
sS'GGGAGG'
p4013
I125565
sS'GGGAGA'
p4014
I65852
sS'AACAGT'
p4015
I21152
sS'GGGAGC'
p4016
I62583
sS'ACGAAG'
p4017
I7806
sS'CCCAAT'
p4018
I16718
sS'GACGAT'
p4019
I3895
sS'GGGCGC'
p4020
I48076
sS'GGGCGA'
p4021
I20200
sS'GGGCGG'
p4022
I71439
sS'TCTCTT'
p4023
I47374
sS'GTACAG'
p4024
I13595
sS'CGTTAA'
p4025
I4321
sS'CAGAAT'
p4026
I29924
sS'ACGACT'
p4027
I4833
sS'TCTCTC'
p4028
I64987
sS'TCTCTA'
p4029
I26597
sS'TCTCTG'
p4030
I59649
sS'GGGCGT'
p4031
I18363
sS'CAGAAA'
p4032
I53771
sS'CAGAAC'
p4033
I29126
sS'ACGACG'
p4034
I3469
sS'CAGAAG'
p4035
I47017
sS'CACTTT'
p4036
I35219
sS'CCTAAT'
p4037
I14757
sS'TGATCG'
p4038
I3818
sS'GTCATT'
p4039
I20206
sS'CACTTG'
p4040
I26129
sS'CCTAAC'
p4041
I15040
sS'CCTAAA'
p4042
I22222
sS'CACTTC'
p4043
I31721
sS'CCTAAG'
p4044
I19870
sS'CACTTA'
p4045
I17675
sS'GCGGAT'
p4046
I8790
sS'CTGCGG'
p4047
I34096
sS'AAGATT'
p4048
I21299
sS'AACTAG'
p4049
I13128
sS'CTCATG'
p4050
I22282
sS'GACTCG'
p4051
I9472
sS'CTCATC'
p4052
I25935
sS'GACTCC'
p4053
I29859
sS'CTCATA'
p4054
I12476
sS'GACTCA'
p4055
I23817
sS'AAGATA'
p4056
I17795
sS'CTCCAA'
p4057
I34957
sS'AAGATG'
p4058
I27874
sS'GACTCT'
p4059
I24653
sS'CTCATT'
p4060
I31105
sS'ATCGAA'
p4061
I3447
sS'AGTCGA'
p4062
I4292
sS'ATATTT'
p4063
I31834
sS'ACGGTA'
p4064
I3511
sS'AACTAA'
p4065
I16579
sS'ATAGTT'
p4066
I11929
sS'TACTGT'
p4067
I16164
sS'ATATTC'
p4068
I14798
sS'ATATTA'
p4069
I14267
sS'ATATTG'
p4070
I12125
sS'ATAGTA'
p4071
I9214
sS'TACTGA'
p4072
I16502
sS'TACTGG'
p4073
I16560
sS'ATAGTG'
p4074
I11153
sS'ATAGAC'
p4075
I8680
sS'CAGGCA'
p4076
I58515
sS'ACGGAA'
p4077
I8692
sS'CATCCG'
p4078
I8783
sS'AGGAAA'
p4079
I68518
sS'CATCCA'
p4080
I25014
sS'CAGGCG'
p4081
I32232
sS'CATCCC'
p4082
I35820
sS'TTATGA'
p4083
I13813
sS'ACGGTG'
p4084
I10783
sS'CGGAGT'
p4085
I12639
sS'TTATGG'
p4086
I13290
sS'CATCCT'
p4087
I33741
sS'AGGAAT'
p4088
I36694
sS'CAGGCT'
p4089
I61987
sS'ACGGAT'
p4090
I4771
sS'CGGAGA'
p4091
I18820
sS'CGGAGC'
p4092
I29792
sS'TTATGT'
p4093
I16740
sS'CAGGCC'
p4094
I64427
sS'CGGAGG'
p4095
I33229
sS'ATGGAA'
p4096
I29462
sS'ATGGAC'
p4097
I13428
sS'ATGGAG'
p4098
I32897
sS'CGCTTG'
p4099
I11309
sS'CGCTTA'
p4100
I4783
sS'CGCTTC'
p4101
I16031
sS'ATGGAT'
p4102
I15861
sS'TTTGCA'
p4103
I38319
sS'CGCTTT'
p4104
I12053
sS'ACTTGG'
p4105
I26623
sS'TGCGGA'
p4106
I13268
sS'GAAAAG'
p4107
I50846
sS'GAAAAC'
p4108
I34859
sS'ATAGAT'
p4109
I11573
sS'GAAAAA'
p4110
I56883
sS'CAAGCG'
p4111
I11113
sS'GAAAAT'
p4112
I37987
sS'ACAAGG'
p4113
I27142
sS'GCCTAA'
p4114
I14519
sS'ACAAGA'
p4115
I24507
sS'AAAAAA'
p4116
I164384
sS'ACAAGC'
p4117
I20277
sS'ACACGT'
p4118
I8132
sS'CTGCGT'
p4119
I14601
sS'GCGGAG'
p4120
I35864
sS'CATAAG'
p4121
I11842
sS'GCGGAA'
p4122
I13147
sS'CATAAA'
p4123
I20788
sS'GCGGAC'
p4124
I13022
sS'CATAAC'
p4125
I9955
sS'ACACGC'
p4126
I11665
sS'ACAAGT'
p4127
I17365
sS'ACACGA'
p4128
I6052
sS'ACACGG'
p4129
I11300
sS'CATAAT'
p4130
I12858
sS'GTCCCA'
p4131
I31715
sS'GTCCCC'
p4132
I43334
sS'CTGCGA'
p4133
I12938
sS'GAAATA'
p4134
I27567
sS'CGGCAA'
p4135
I8459
sS'CGGCAC'
p4136
I12742
sS'CGGCAG'
p4137
I27535
sS'CCTCCT'
p4138
I90059
sS'NNNGAA'
p4139
I2
sS'CGGCAT'
p4140
I7108
sS'CCTCCC'
p4141
I124927
sS'CCTCCA'
p4142
I61140
sS'CACGCC'
p4143
I22246
sS'CCTCCG'
p4144
I33042
s.