(dp0
S'GGGCTT'
p1
I14491
sS'GAACGT'
p2
I3116
sS'CTTCTT'
p3
I18984
sS'CACCCT'
p4
I15758
sS'ATTGAA'
p5
I11220
sS'GAACGG'
p6
I4006
sS'GAACGC'
p7
I4180
sS'GAACGA'
p8
I2863
sS'CAACAT'
p9
I11741
sS'CACCCA'
p10
I17718
sS'CTTCTA'
p11
I11063
sS'CACCCC'
p12
I18583
sS'CTTCTC'
p13
I21396
sS'CACCCG'
p14
I7498
sS'CTTCTG'
p15
I22281
sS'CGTGTG'
p16
I6204
sS'TAAGGT'
p17
I7116
sS'CGTGTC'
p18
I4248
sS'CGTGTA'
p19
I2398
sS'AGGCAA'
p20
I16115
sS'GGAAAT'
p21
I20745
sS'TAAGGG'
p22
I8183
sS'CGTGTT'
p23
I4213
sS'TAAGGC'
p24
I7452
sS'TAAGGA'
p25
I10409
sS'ACCACG'
p26
I4994
sS'GTCAAC'
p27
I6542
sS'GTCAAG'
p28
I8401
sS'CTGTCC'
p29
I17830
sS'TCAGAG'
p30
I21184
sS'CTGTCA'
p31
I15644
sS'CTGTCG'
p32
I4430
sS'TCAGAC'
p33
I10998
sS'TCAGAA'
p34
I19936
sS'TCATAA'
p35
I10066
sS'GTCAAT'
p36
I7106
sS'GTATCA'
p37
I5565
sS'TCAGAT'
p38
I12588
sS'GTATCG'
p39
I1117
sS'CTGTCT'
p40
I19526
sS'GGTGTC'
p41
I9207
sS'GGTGTA'
p42
I5448
sS'GGTGTG'
p43
I13383
sS'TATCCT'
p44
I8267
sS'CCGGGG'
p45
I15708
sS'TTCTGT'
p46
I22985
sS'ATTCCT'
p47
I15844
sS'CCGGGC'
p48
I18194
sS'CCGGGA'
p49
I13141
sS'TATCCA'
p50
I7931
sS'TATCCC'
p51
I6392
sS'TGGTTG'
p52
I11399
sS'TATCCG'
p53
I1593
sS'GGTGTT'
p54
I10111
sS'ATTCCG'
p55
I3084
sS'TTCTGG'
p56
I21189
sS'CCGGGT'
p57
I7983
sS'ATTCCC'
p58
I12365
sS'TTCTGC'
p59
I18366
sS'ATTCCA'
p60
I16447
sS'TTCTGA'
p61
I19937
sS'CTTGGA'
p62
I14537
sS'GGNCCC'
p63
I1
sS'GGNCCG'
p64
I1
sS'CGTCAT'
p65
I3294
sS'CGCGGT'
p66
I5136
sS'AGGGAG'
p67
I28873
sS'ACGAAC'
p68
I2089
sS'CGCGGG'
p69
I13969
sS'NCCGCC'
p70
I1
sS'CGCGGC'
p71
I15671
sS'CGCGGA'
p72
I6748
sS'NCCCAC'
p73
I1
sS'ACCTGT'
p74
I11632
sS'TCATGT'
p75
I11612
sS'CTCCGA'
p76
I5441
sS'TTACAG'
p77
I14823
sS'CTCCGC'
p78
I15193
sS'TTACAA'
p79
I13344
sS'TTACAC'
p80
I8938
sS'CTCCGG'
p81
I11280
sS'TCATGC'
p82
I9540
sS'ACCTGG'
p83
I17505
sS'TCATGA'
p84
I10976
sS'GTAAGC'
p85
I5866
sS'TCATGG'
p86
I10987
sS'ACCTGC'
p87
I14285
sS'GCGCNN'
p88
I1
sS'ACCTGA'
p89
I11922
sS'TTACAT'
p90
I12459
sS'CTCGAT'
p91
I2080
sS'CTCCGT'
p92
I5870
sS'GAATTT'
p93
I16644
sS'GCCTGA'
p94
I15578
sS'GCCTGC'
p95
I21567
sS'GCCTGG'
p96
I31299
sS'TAAAGG'
p97
I12669
sS'CAAATT'
p98
I15406
sS'TAAAGA'
p99
I15229
sS'GCATAA'
p100
I7092
sS'TAAAGC'
p101
I10626
sS'GCCTGT'
p102
I16557
sS'CGTCAA'
p103
I2182
sS'TAAAGT'
p104
I13045
sS'CAAATA'
p105
I18267
sS'CAAATC'
p106
I11964
sS'CGTGCT'
p107
I4940
sS'CAAATG'
p108
I17398
sS'AATACT'
p109
I11251
sS'TATCTC'
p110
I9033
sS'GGCATG'
p111
I11218
sS'GGCATA'
p112
I5800
sS'GGCATC'
p113
I8355
sS'AATACG'
p114
I2280
sS'AATACA'
p115
I14302
sS'AATACC'
p116
I7517
sS'GGCATT'
p117
I11441
sS'CGTCAG'
p118
I5147
sS'TGCACA'
p119
I14917
sS'GAGCAC'
p120
I10983
sS'GAGCAA'
p121
I14237
sS'CATATC'
p122
I5856
sS'GAGCAG'
p123
I20948
sS'AGTAGT'
p124
I7175
sS'TCTCGC'
p125
I5946
sS'TCTCGA'
p126
I2841
sS'TCTCGG'
p127
I6363
sS'ACTGAG'
p128
I16615
sS'AGTAGA'
p129
I9828
sS'AGTAGG'
p130
I9123
sS'ACTGAA'
p131
I17213
sS'TTGAAC'
p132
I10429
sS'TCTCGT'
p133
I3188
sS'GTGTCG'
p134
I2849
sS'TCGAAC'
p135
I1992
sS'TCGAAA'
p136
I2728
sS'GTGTCC'
p137
I11529
sS'TCGAAG'
p138
I2649
sS'GTGTCA'
p139
I10881
sS'CTTGCT'
p140
I15961
sS'AGACAC'
p141
I12386
sS'CCGTCT'
p142
I5391
sS'GTGTCT'
p143
I12390
sS'TTGAAG'
p144
I12388
sS'TCGAAT'
p145
I2239
sS'CTTGCG'
p146
I4191
sS'CTTGCA'
p147
I12064
sS'CTTGCC'
p148
I14212
sS'CGAAAG'
p149
I4329
sS'CGAAAA'
p150
I3600
sS'CGAAAC'
p151
I3178
sS'AAGGTT'
p152
I12207
sS'CACGGA'
p153
I5035
sS'AAATGC'
p154
I16922
sS'CACGGC'
p155
I6782
sS'AAATGA'
p156
I25022
sS'ACAGTC'
p157
I10849
sS'CACGGG'
p158
I6235
sS'ACAGTA'
p159
I10237
sS'CGAAAT'
p160
I2824
sS'ACAGTT'
p161
I13670
sS'AATCAG'
p162
I14808
sS'CACGGT'
p163
I4292
sS'AAATGT'
p164
I23826
sS'AATCAC'
p165
I11447
sS'TTTGTA'
p166
I16743
sS'TCTAGT'
p167
I9080
sS'TTGCCG'
p168
I3831
sS'TTGCCA'
p169
I15451
sS'TTGCCC'
p170
I13940
sS'TTGCCT'
p171
I16116
sS'TCTAGG'
p172
I10199
sS'ATACGC'
p173
I1394
sS'TCTAGA'
p174
I10082
sS'GGGTAG'
p175
I8116
sS'TCTAGC'
p176
I7681
sS'ATACGG'
p177
I1743
sS'TGACTA'
p178
I8076
sS'ATACAT'
p179
I9755
sS'GTCAAA'
p180
I10871
sS'AGATGT'
p181
I11163
sS'TCGCCC'
p182
I7530
sS'TCGCCA'
p183
I4463
sS'ATAGTC'
p184
I5331
sS'TCGCCG'
p185
I5195
sS'GGTAAT'
p186
I6850
sS'ACCCAT'
p187
I8003
sS'GTGTAT'
p188
I7864
sS'ACCCAC'
p189
I12237
sS'GGTAAC'
p190
I6130
sS'ACCCAA'
p191
I10989
sS'AGATGG'
p192
I14880
sS'ACCCAG'
p193
I20162
sS'GGTAAG'
p194
I7654
sS'TCGCCT'
p195
I5504
sS'AGATGC'
p196
I9389
sS'CCCCAT'
p197
I12342
sS'TTGGGT'
p198
I10985
sS'CACTAG'
p199
I8573
sS'CACTAA'
p200
I8505
sS'CACTAC'
p201
I6244
sS'CCCCAA'
p202
I15561
sS'CCCCAC'
p203
I22183
sS'CCCCAG'
p204
I28302
sS'CACTAT'
p205
I6984
sS'TTGGGG'
p206
I15537
sS'CCGTCC'
p207
I7100
sS'TTGGGA'
p208
I16166
sS'TTGGGC'
p209
I11916
sS'TGCCTG'
p210
I23966
sS'TGCAGA'
p211
I18209
sS'TTTCTG'
p212
I28646
sS'TGCAGC'
p213
I18339
sS'TGCCTC'
p214
I18526
sS'TTTCTC'
p215
I27310
sS'TGCAGG'
p216
I19437
sS'GTATCT'
p217
I7066
sS'TTTCTT'
p218
I34449
sS'ACGTGC'
p219
I4573
sS'TGCCTT'
p220
I17650
sS'TGCAGT'
p221
I16496
sS'ACGATG'
p222
I2539
sS'ACAATT'
p223
I11471
sS'AAGGAA'
p224
I26565
sS'AAGGAC'
p225
I12018
sS'AAGGAG'
p226
I19752
sS'ATATGC'
p227
I6402
sS'GTTCCA'
p228
I11542
sS'ATATGA'
p229
I8666
sS'TACGAA'
p230
I1987
sS'ATATGG'
p231
I6634
sS'AAGGAT'
p232
I10856
sS'TGGTTT'
p233
I18083
sS'ATATGT'
p234
I10042
sS'ACTATT'
p235
I9837
sS'GGTCCC'
p236
I12530
sS'GCCCAG'
p237
I30302
sS'GGTCCA'
p238
I8406
sS'GCCCAA'
p239
I11921
sS'GGTCCG'
p240
I4930
sS'GCCCAC'
p241
I14471
sS'ATGGCG'
p242
I5485
sS'AGACCC'
p243
I10607
sS'CTTCGG'
p244
I5259
sS'CTTCGA'
p245
I2644
sS'CTTCGC'
p246
I5109
sS'CTTAGT'
p247
I8152
sS'GCCCAT'
p248
I9220
sS'AGGTCA'
p249
I17987
sS'AAAGTT'
p250
I18847
sS'TCCGGC'
p251
I8728
sS'GGTCCT'
p252
I10516
sS'TCCGGA'
p253
I5950
sS'CTTAGC'
p254
I8232
sS'ATTGTG'
p255
I11699
sS'CTTAGA'
p256
I9652
sS'ATGCAC'
p257
I7749
sS'CTTAGG'
p258
I8853
sS'GTATCC'
p259
I4554
sS'TGTGTG'
p260
I33043
sS'GCCTTT'
p261
I17017
sS'ATTTTG'
p262
I20215
sS'TCCAGG'
p263
I24048
sS'ATTTTA'
p264
I26036
sS'GAGGTA'
p265
I8019
sS'ATTTTC'
p266
I21551
sS'GAGGTC'
p267
I12130
sS'TAGCAG'
p268
I10232
sS'GATACT'
p269
I5870
sS'TAGCAC'
p270
I7082
sS'TAGCAA'
p271
I10158
sS'TAAATA'
p272
I22070
sS'ATTTTT'
p273
I35037
sS'GCCTTG'
p274
I14500
sS'GTGGGG'
p275
I22191
sS'GCCTTA'
p276
I7444
sS'TTGACA'
p277
I10633
sS'GCCTTC'
p278
I15788
sS'GATACG'
p279
I1524
sS'TAGCAT'
p280
I7459
sS'GATACC'
p281
I4062
sS'GATTTC'
p282
I13331
sS'TGAGCT'
p283
I15952
sS'GATCAT'
p284
I6851
sS'ACCGAG'
p285
I4854
sS'AAGACC'
p286
I9364
sS'GTGGGC'
p287
I14478
sS'AAGACG'
p288
I3763
sS'GATCAG'
p289
I8569
sS'TGAGCG'
p290
I5514
sS'CTCGAG'
p291
I4312
sS'TGAGCA'
p292
I15632
sS'TGAGCC'
p293
I16540
sS'AAGACT'
p294
I11766
sS'GCGGTC'
p295
I5045
sS'GCGGTA'
p296
I2520
sS'CGTGCA'
p297
I4205
sS'GCGGTG'
p298
I9741
sS'CTATCG'
p299
I1357
sS'CGGTGT'
p300
I3996
sS'TCGTTA'
p301
I1895
sS'TCGTTC'
p302
I2859
sS'ATGTGG'
p303
I12819
sS'ACTTGT'
p304
I10444
sS'GAGTTT'
p305
I14645
sS'GCGGTT'
p306
I4151
sS'ACTTGC'
p307
I10084
sS'ACCACC'
p308
I11321
sS'ACTTGA'
p309
I10465
sS'CGGTGG'
p310
I8684
sS'ACTTGG'
p311
I13590
sS'CGGTGA'
p312
I5198
sS'CGGTGC'
p313
I6637
sS'TTCCTA'
p314
I14214
sS'TAGACT'
p315
I7045
sS'TTCCTC'
p316
I25141
sS'ACTGAC'
p317
I10765
sS'ACCACA'
p318
I13651
sS'TTCCTG'
p319
I29807
sS'TCCTTT'
p320
I23909
sS'CAGTTG'
p321
I12053
sS'TAGACG'
p322
I1893
sS'TTCCTT'
p323
I26544
sS'TAGACC'
p324
I4710
sS'GTAGTG'
p325
I6242
sS'TCCTTG'
p326
I14744
sS'TCCTTA'
p327
I10411
sS'TCCTTC'
p328
I20067
sS'ATCTCT'
p329
I14737
sS'TCCGCA'
p330
I4944
sS'ACCGTT'
p331
I2607
sS'TGGCGC'
p332
I8548
sS'TGGCGA'
p333
I4466
sS'TGGCGG'
p334
I11019
sS'AATGCA'
p335
I14208
sS'ATCTCG'
p336
I2948
sS'ATCTCA'
p337
I12722
sS'ATCTCC'
p338
I11520
sS'GGCCAA'
p339
I15201
sS'ACGGAG'
p340
I5874
sS'GGCCAC'
p341
I16929
sS'AGGTAG'
p342
I9381
sS'ATGCAG'
p343
I12963
sS'GGCCAG'
p344
I25555
sS'ACCGTC'
p345
I3070
sS'AGAATT'
p346
I16591
sS'GGCAGT'
p347
I15228
sS'CCATAA'
p348
I7305
sS'CAAAGG'
p349
I20074
sS'CCATAC'
p350
I4630
sS'CAAAGA'
p351
I18794
sS'AGATTC'
p352
I10461
sS'CAAAGC'
p353
I16796
sS'CCATAG'
p354
I6615
sS'GGCAGA'
p355
I21534
sS'GGCAGC'
p356
I24783
sS'AACGTA'
p357
I2264
sS'GGCAGG'
p358
I30117
sS'CAACGC'
p359
I3555
sS'CTAACA'
p360
I8965
sS'CAACGA'
p361
I2464
sS'CTAACC'
p362
I6786
sS'CCATAT'
p363
I6629
sS'CTAACG'
p364
I2280
sS'GGGGGT'
p365
I11770
sS'TACGCT'
p366
I1842
sS'AGATTG'
p367
I9586
sS'CGATCT'
p368
I2485
sS'CTCTAG'
p369
I11242
sS'CTCTAA'
p370
I11036
sS'CTCTAC'
p371
I8832
sS'GGGGGG'
p372
I12387
sS'CGATCC'
p373
I2665
sS'TACGCC'
p374
I2064
sS'GGGGGC'
p375
I21633
sS'CGATCG'
p376
I1028
sS'GGGGGA'
p377
I17196
sS'TACGCG'
p378
I1312
sS'CTCTAT'
p379
I8640
sS'CCCCGC'
p380
I28471
sS'CAGACC'
p381
I12211
sS'CAGACA'
p382
I17230
sS'CAGACG'
p383
I5393
sS'CGCTAA'
p384
I2259
sS'TAGTTG'
p385
I7087
sS'GCTAAT'
p386
I7351
sS'TAGTTC'
p387
I7755
sS'TAGTTA'
p388
I7725
sS'CAGACT'
p389
I13857
sS'GCGAAC'
p390
I2658
sS'TAGTTT'
p391
I13153
sS'GCTAAC'
p392
I5568
sS'GCTAAA'
p393
I9785
sS'CGAGTA'
p394
I1888
sS'TCTTGG'
p395
I14931
sS'GCGAAA'
p396
I3679
sS'AACCCT'
p397
I12005
sS'TATCAA'
p398
I7886
sS'ATCNNN'
p399
I1
sS'AACCCC'
p400
I10893
sS'AACCCA'
p401
I13432
sS'AACCCG'
p402
I4865
sS'TGCATC'
p403
I8418
sS'CATGAC'
p404
I9266
sS'AGATTT'
p405
I16748
sS'AGTTTG'
p406
I15024
sS'AACTGG'
p407
I14588
sS'AGTTTC'
p408
I17263
sS'AACTGC'
p409
I13345
sS'CCCAGA'
p410
I23835
sS'CCCAGC'
p411
I33212
sS'CCCAGG'
p412
I33894
sS'AACTGT'
p413
I13667
sS'AGTTTT'
p414
I20466
sS'TTGCAT'
p415
I12603
sS'CTACAT'
p416
I7661
sS'CGAGTC'
p417
I4301
sS'CCCAGT'
p418
I17331
sS'TTGACG'
p419
I2184
sS'GTTACG'
p420
I1978
sS'ATACTG'
p421
I8665
sS'CGCATC'
p422
I2697
sS'ATACTA'
p423
I6085
sS'ATACTC'
p424
I5840
sS'CGCATG'
p425
I4386
sS'GCGCAA'
p426
I3845
sS'GCGAAT'
p427
I2074
sS'ATACTT'
p428
I9822
sS'CTTTTC'
p429
I23794
sS'AGGCCC'
p430
I18696
sS'GCTCCG'
p431
I12201
sS'TATTGT'
p432
I9756
sS'GCTCCC'
p433
I20969
sS'GCTCCA'
p434
I16723
sS'CCTACT'
p435
I9133
sS'TGTACT'
p436
I9559
sS'TTTAGT'
p437
I12007
sS'TATTGG'
p438
I7914
sS'GCTCCT'
p439
I18863
sS'AGGCCG'
p440
I10912
sS'TATTGA'
p441
I10066
sS'TTTAGG'
p442
I11039
sS'TGTACG'
p443
I1819
sS'CCTACG'
p444
I2799
sS'TGTACA'
p445
I10045
sS'TTTAGC'
p446
I9775
sS'ACAGTG'
p447
I16870
sS'CCTACC'
p448
I8955
sS'ACTTCA'
p449
I13624
sS'TTCGCG'
p450
I2481
sS'TTCGCA'
p451
I2774
sS'TTCGCC'
p452
I4326
sS'AGTATC'
p453
I5868
sS'GACTAA'
p454
I6792
sS'AGTATA'
p455
I6434
sS'GACTAC'
p456
I5167
sS'AGTATG'
p457
I6877
sS'TTTGGA'
p458
I19144
sS'TTTGGC'
p459
I15745
sS'TTCGCT'
p460
I3933
sS'GATCNN'
p461
I1
sS'TTTGGT'
p462
I14243
sS'GACTAT'
p463
I5330
sS'AGTATT'
p464
I11255
sS'TTACTC'
p465
I9536
sS'TTACTA'
p466
I8715
sS'TTACTG'
p467
I12434
sS'ACCTTG'
p468
I12415
sS'ACCTTC'
p469
I11481
sS'ACCTTA'
p470
I7112
sS'TATATC'
p471
I5286
sS'CTAATA'
p472
I7611
sS'TTACTT'
p473
I14530
sS'ACGCTT'
p474
I3436
sS'ACCTTT'
p475
I15763
sS'ACAGGG'
p476
I16875
sS'CTGGGA'
p477
I29502
sS'CTGGGC'
p478
I30292
sS'ACAGGC'
p479
I16591
sS'ACAGGA'
p480
I19145
sS'CTGGGG'
p481
I28265
sS'CAGGAC'
p482
I16056
sS'GCAGCT'
p483
I20636
sS'CAGGAA'
p484
I29830
sS'TCGCTT'
p485
I4224
sS'CAGGAG'
p486
I26945
sS'AGGACA'
p487
I17495
sS'AGGCCT'
p488
I18514
sS'TTATAC'
p489
I6134
sS'ACAGGT'
p490
I11635
sS'CTGGGT'
p491
I20178
sS'TTATAG'
p492
I7771
sS'TCGCTG'
p493
I6131
sS'GAGTTG'
p494
I11038
sS'GCAGCG'
p495
I12190
sS'AGGACT'
p496
I13929
sS'TCGCTC'
p497
I5807
sS'GCAGCC'
p498
I25358
sS'CAGGAT'
p499
I14272
sS'CCTCAG'
p500
I23154
sS'CCTCAA'
p501
I12046
sS'CCTCAC'
p502
I16211
sS'TATGTT'
p503
I10798
sS'ATGGGC'
p504
I9216
sS'TCTTTG'
p505
I18804
sS'ATGGGA'
p506
I13107
sS'TCTTTA'
p507
I15228
sS'ATGGGG'
p508
I12338
sS'TCTTTC'
p509
I23507
sS'CCTCAT'
p510
I13391
sS'TGCGAT'
p511
I2116
sS'TATGTG'
p512
I10726
sS'TATGTA'
p513
I9748
sS'ATGGGT'
p514
I8002
sS'TATGTC'
p515
I6353
sS'GAAAGA'
p516
I23513
sS'ATCAAG'
p517
I8546
sS'GAAAGC'
p518
I16289
sS'ATCAAC'
p519
I6618
sS'GAAAGG'
p520
I21586
sS'TCAAAA'
p521
I19693
sS'GGAACT'
p522
I13161
sS'GTCAGG'
p523
I14465
sS'CATGAG'
p524
I11842
sS'ATCAAT'
p525
I9021
sS'GTCCAA'
p526
I9114
sS'GAAAGT'
p527
I15760
sS'CATGAA'
p528
I12862
sS'GTAGCG'
p529
I2569
sS'CAAGTT'
p530
I12856
sS'GCGGCT'
p531
I11204
sS'GTAGCC'
p532
I6515
sS'GCTTTC'
p533
I16288
sS'AAAGTA'
p534
I15684
sS'GCGGCG'
p535
I21436
sS'CAAGTG'
p536
I12461
sS'GTAGCT'
p537
I8128
sS'TTCTTT'
p538
I32959
sS'GCGGCC'
p539
I18229
sS'CAAGTC'
p540
I10781
sS'GCGGCA'
p541
I8102
sS'CAAGTA'
p542
I8492
sS'ATTGCT'
p543
I12262
sS'CGTACG'
p544
I914
sS'TAATCG'
p545
I1555
sS'GGTCTT'
p546
I9359
sS'TAATCA'
p547
I10585
sS'TAATCC'
p548
I8846
sS'TGCGAA'
p549
I2778
sS'CGGCCC'
p550
I16191
sS'CGACTA'
p551
I1400
sS'CGGCCA'
p552
I9198
sS'CGCTAT'
p553
I1737
sS'CGGCCG'
p554
I13673
sS'TCGTGA'
p555
I2848
sS'CTTGTA'
p556
I8308
sS'GGTCTG'
p557
I12213
sS'GAGTTC'
p558
I11131
sS'GGTCTC'
p559
I11403
sS'GGTCTA'
p560
I4712
sS'AAAATG'
p561
I27961
sS'AAAATC'
p562
I17678
sS'TCAATA'
p563
I10066
sS'CGGCCT'
p564
I10909
sS'TTCAGC'
p565
I15353
sS'TCGTCC'
p566
I3549
sS'TTCAGG'
p567
I16658
sS'GAACAT'
p568
I10149
sS'TCGTCG'
p569
I1529
sS'TGTTTT'
p570
I32262
sS'GAACAA'
p571
I13079
sS'ATCCCG'
p572
I4418
sS'GAACAC'
p573
I10044
sS'ATCCCC'
p574
I9559
sS'GAACAG'
p575
I14539
sS'ATCCCA'
p576
I13223
sS'AACGGA'
p577
I3843
sS'CACCAC'
p578
I14590
sS'CACCAA'
p579
I11896
sS'CACCAG'
p580
I17197
sS'TCCGTG'
p581
I5033
sS'ATTGCG'
p582
I2430
sS'AGGCGT'
p583
I5370
sS'TCCGTC'
p584
I4493
sS'TCCGTA'
p585
I2280
sS'ACCAGA'
p586
I13282
sS'CACCAT'
p587
I10869
sS'AACATG'
p588
I13217
sS'AACATA'
p589
I10792
sS'AACATC'
p590
I10120
sS'TCAGCA'
p591
I17697
sS'GCACGG'
p592
I5773
sS'TCAGCC'
p593
I18753
sS'GCACGA'
p594
I2897
sS'CAGTCC'
p595
I14179
sS'GCACGC'
p596
I6418
sS'CAGTCA'
p597
I14624
sS'GCAAGC'
p598
I10367
sS'GCACGT'
p599
I4577
sS'CAGTCT'
p600
I14258
sS'GCAAGG'
p601
I13333
sS'GTCAGT'
p602
I10761
sS'TATCTA'
p603
I7749
sS'GTATAC'
p604
I3388
sS'TTCCGT'
p605
I4613
sS'ACGGCT'
p606
I4229
sS'GTATAG'
p607
I3604
sS'CCGGAA'
p608
I8946
sS'CCGGAC'
p609
I5816
sS'CCGGAG'
p610
I11276
sS'TATCAT'
p611
I7777
sS'CTCGTA'
p612
I1683
sS'TTCCGG'
p613
I8943
sS'TTCCGA'
p614
I3699
sS'TTCCGC'
p615
I6993
sS'GTATAT'
p616
I6632
sS'CGTCTC'
p617
I6069
sS'CGTCTA'
p618
I1891
sS'CGTCTG'
p619
I5387
sS'CCGGAT'
p620
I3725
sS'CTCTTC'
p621
I20851
sS'TGTTAT'
p622
I10621
sS'CTCTTA'
p623
I10837
sS'CTCTTG'
p624
I15747
sS'CCCGAT'
p625
I2591
sS'TACGTA'
p626
I2075
sS'TACGTC'
p627
I1899
sS'TCTGGT'
p628
I13268
sS'CGCGAT'
p629
I1984
sS'TACGTG'
p630
I2927
sS'TGTTAG'
p631
I8961
sS'GGTTTC'
p632
I13967
sS'TGTTAC'
p633
I8962
sS'CTCTTT'
p634
I23310
sS'TGTTAA'
p635
I13009
sS'TCTGGG'
p636
I23830
sS'CGCGAC'
p637
I3635
sS'GATATT'
p638
I9200
sS'TCTGGC'
p639
I18104
sS'TACGTT'
p640
I2264
sS'TCTGGA'
p641
I18724
sS'AGTCGT'
p642
I2388
sS'TTACCT'
p643
I11037
sS'CTCCAT'
p644
I13415
sS'TTACCG'
p645
I2399
sS'CTCCAC'
p646
I17649
sS'CTCCAA'
p647
I15375
sS'TTACCC'
p648
I7967
sS'CTCCAG'
p649
I27106
sS'TTACCA'
p650
I10067
sS'AGTCGC'
p651
I3644
sS'AATGCC'
p652
I11430
sS'GTACCG'
p653
I1802
sS'CCGACT'
p654
I4199
sS'GCCTAC'
p655
I6275
sS'GCCTAA'
p656
I7235
sS'GCCTAG'
p657
I9125
sS'CCGACA'
p658
I3371
sS'GATATC'
p659
I4316
sS'CCGACC'
p660
I5316
sS'CCGACG'
p661
I3156
sS'GCCTAT'
p662
I5764
sS'AAGCTA'
p663
I9180
sS'CCTACA'
p664
I8260
sS'ACGCGG'
p665
I4767
sS'CCCGAG'
p666
I9885
sS'CTCGTT'
p667
I3401
sS'GCTGTC'
p668
I13584
sS'CGCACA'
p669
I4987
sS'ATACAC'
p670
I7868
sS'CGCACC'
p671
I6020
sS'GGGTCG'
p672
I5107
sS'ACTGCT'
p673
I14830
sS'GGGTCA'
p674
I12483
sS'CGCACG'
p675
I4656
sS'GGGTCC'
p676
I11217
sS'GAGCGT'
p677
I4238
sS'CTCACT'
p678
I17301
sS'GGGTCT'
p679
I10615
sS'ACTGCA'
p680
I16506
sS'TTTGTC'
p681
I14552
sS'ACTGCC'
p682
I15236
sS'CGCACT'
p683
I4464
sS'TTTGTG'
p684
I18963
sS'ACTGCG'
p685
I5736
sS'CTCACC'
p686
I16229
sS'CTCACA'
p687
I15896
sS'CTCACG'
p688
I5780
sS'GTGGGT'
p689
I12231
sS'GTGAGG'
p690
I16193
sS'GATTTT'
p691
I17681
sS'TAGTGC'
p692
I5978
sS'GTGAGC'
p693
I13236
sS'TAGTGA'
p694
I8538
sS'GTGAGA'
p695
I13312
sS'TCGACG'
p696
I1100
sS'TCGACA'
p697
I1713
sS'TCGACC'
p698
I2008
sS'GATTTG'
p699
I11955
sS'GTGAGT'
p700
I12466
sS'TAGTGT'
p701
I7459
sS'GTGGGA'
p702
I16360
sS'CCAGTA'
p703
I9007
sS'TCGACT'
p704
I1974
sS'GTGGGN'
p705
I1
sS'ACGTAA'
p706
I2811
sS'CTGGTT'
p707
I14933
sS'TTGAGT'
p708
I10744
sS'CGAACG'
p709
I1670
sS'CGAACC'
p710
I2896
sS'CGAACA'
p711
I2367
sS'CGGNCC'
p712
I1
sS'CTGGTG'
p713
I17185
sS'CTGGTA'
p714
I8659
sS'CTGGTC'
p715
I12308
sS'CTGCAA'
p716
I15994
sS'CGAACT'
p717
I2835
sS'CAATTG'
p718
I7347
sS'GACGAG'
p719
I3899
sS'NNGAAT'
p720
I2
sS'CGTCTT'
p721
I3761
sS'TTGCAG'
p722
I15993
sS'GAGGGA'
p723
I23563
sS'TTGCAC'
p724
I10314
sS'TTGCAA'
p725
I15366
sS'ACGTAC'
p726
I1784
sS'GAGGGC'
p727
I20549
sS'TCGCAT'
p728
I1718
sS'GTCGTG'
p729
I2746
sS'GTCGTA'
p730
I1244
sS'GTCGTC'
p731
I2564
sS'CCGTTT'
p732
I4736
sS'ACTGAT'
p733
I10201
sS'ATATCG'
p734
I1124
sS'GTCGTT'
p735
I2274
sS'TCGCAG'
p736
I5096
sS'TCCATG'
p737
I11981
sS'CCAAGC'
p738
I13958
sS'TCGCAC'
p739
I2683
sS'CCGTTG'
p740
I3177
sS'TTAAAT'
p741
I20553
sS'CCGTTA'
p742
I2195
sS'CCGTTC'
p743
I4009
sS'AATGCT'
p744
I13721
sS'GGTACG'
p745
I1670
sS'GGTACA'
p746
I6414
sS'GGTACC'
p747
I4500
sS'TATTTG'
p748
I18264
sS'CCAGTT'
p749
I14591
sS'TATTTC'
p750
I17960
sS'TATTTA'
p751
I22046
sS'CCCCCT'
p752
I17110
sS'GGTACT'
p753
I5373
sS'AATGCG'
p754
I2747
sS'TTGAGA'
p755
I14306
sS'GCCGTG'
p756
I6786
sS'CCCCCC'
p757
I12386
sS'CCCCCA'
p758
I20113
sS'TATTTT'
p759
I32617
sS'CCCCCG'
p760
I13384
sS'CTTGAG'
p761
I11856
sS'ATGATG'
p762
I10663
sS'GAAGTA'
p763
I9532
sS'ATGATA'
p764
I7771
sS'AGACGC'
p765
I5165
sS'TGCAAC'
p766
I10323
sS'TGCAAA'
p767
I19431
sS'TGCAAG'
p768
I12068
sS'GCCGTC'
p769
I5362
sS'ATGATT'
p770
I13119
sS'CTTGAT'
p771
I8556
sS'CGAATC'
p772
I2251
sS'TTGAGG'
p773
I12035
sS'GCCATT'
p774
I10935
sS'CAATGT'
p775
I10701
sS'TTGAGC'
p776
I10569
sS'TGCAAT'
p777
I12490
sS'GAGAAT'
p778
I13181
sS'TGTCTT'
p779
I15359
sS'CGAATA'
p780
I1575
sS'TTCAGA'
p781
I19212
sS'AGTAGC'
p782
I7811
sS'AAGGCC'
p783
I15055
sS'ATAACC'
p784
I6656
sS'AAGGCA'
p785
I17636
sS'ATAACA'
p786
I10615
sS'AAGGCG'
p787
I6923
sS'TCCAGA'
p788
I18714
sS'TATGCT'
p789
I7528
sS'GAGGGT'
p790
I12412
sS'TGTCTG'
p791
I17237
sS'GAGAAG'
p792
I21405
sS'GAGAAA'
p793
I27326
sS'TGTCTC'
p794
I15509
sS'GAGAAC'
p795
I12400
sS'TGTCTA'
p796
I8182
sS'TGTGGC'
p797
I16530
sS'TGTGGA'
p798
I15090
sS'TGTGGG'
p799
I17782
sS'ATAACT'
p800
I9310
sS'AAGGCT'
p801
I15122
sS'GGTATT'
p802
I7524
sS'GCCCCG'
p803
I23674
sS'ACCAAG'
p804
I11572
sS'GGTCAG'
p805
I15613
sS'GCCCCC'
p806
I21635
sS'AAGCAG'
p807
I20605
sS'ACCAAC'
p808
I8160
sS'GGTCAC'
p809
I12232
sS'GGTCAT'
p810
I8747
sS'ACCAAT'
p811
I8570
sS'TGTGGT'
p812
I13643
sS'GAACTG'
p813
I14392
sS'AGGTAA'
p814
I11035
sS'CAAACT'
p815
I15025
sS'TTTTGC'
p816
I17094
sS'TCTTAC'
p817
I8452
sS'AATTGG'
p818
I9321
sS'TCTTAA'
p819
I12015
sS'AATTGA'
p820
I10421
sS'TCTTAG'
p821
I9431
sS'AATTGC'
p822
I9726
sS'TAGCCA'
p823
I9555
sS'TGGGGT'
p824
I14467
sS'CGCTCG'
p825
I5679
sS'GATAAT'
p826
I8144
sS'CGCTCA'
p827
I5514
sS'CGCTCC'
p828
I11743
sS'AATTGT'
p829
I11465
sS'AATCTT'
p830
I12577
sS'TCTTAT'
p831
I9886
sS'TTTTGT'
p832
I26226
sS'CGCTCT'
p833
I7702
sS'TGGGGG'
p834
I20100
sS'GATAAC'
p835
I5557
sS'TAGCCT'
p836
I8503
sS'TGGGGC'
p837
I20948
sS'TGGGGA'
p838
I22799
sS'GATCCT'
p839
I8605
sS'AAGAAT'
p840
I16476
sS'CATTTG'
p841
I17392
sS'AAGAAC'
p842
I13299
sS'GATCCA'
p843
I7806
sS'AAGAAA'
p844
I34499
sS'GATCCC'
p845
I7917
sS'AAGAAG'
p846
I18981
sS'GATCCG'
p847
I3277
sS'GTTATA'
p848
I5758
sS'TATTAA'
p849
I13654
sS'CAAGGG'
p850
I13994
sS'CAAGGC'
p851
I14500
sS'GGTTCT'
p852
I11095
sS'CAAGGA'
p853
I14750
sS'TTGATA'
p854
I7882
sS'GGCGCN'
p855
I1
sS'GGTTCA'
p856
I9424
sS'GCAACC'
p857
I9164
sS'GGTTCC'
p858
I11063
sS'CAAGGT'
p859
I12416
sS'TGCATT'
p860
I14198
sS'GGTTCG'
p861
I2897
sS'CTGTAT'
p862
I9844
sS'ATTATA'
p863
I10474
sS'ATTATC'
p864
I8144
sS'TAGAAT'
p865
I11276
sS'GATAGT'
p866
I4859
sS'ATTATG'
p867
I9270
sS'AGTCTT'
p868
I11755
sS'TCCCAA'
p869
I16190
sS'TAGAAA'
p870
I18725
sS'TAGAAC'
p871
I7894
sS'ATTATT'
p872
I18163
sS'TAGAAG'
p873
I11066
sS'AGTCTA'
p874
I7045
sS'AGTCTC'
p875
I12418
sS'AGTCTG'
p876
I13854
sS'TAACTC'
p877
I8381
sS'TAACTA'
p878
I7726
sS'TAACTG'
p879
I10789
sS'ATCTAT'
p880
I7840
sS'ACGCGT'
p881
I1880
sS'AGGTAT'
p882
I7134
sS'TAACTT'
p883
I12216
sS'ATCTAG'
p884
I7398
sS'ATCTAC'
p885
I6128
sS'ATCTAA'
p886
I8431
sS'CATAGC'
p887
I6853
sS'CCATGT'
p888
I12041
sS'ACCAAA'
p889
I14247
sS'TGGAGG'
p890
I21502
sS'TGGAGA'
p891
I20213
sS'TGGAGC'
p892
I16716
sS'CCATGC'
p893
I9876
sS'CCATGA'
p894
I10989
sS'GCCCCA'
p895
I20954
sS'TGGAGT'
p896
I15052
sS'ATTACG'
p897
I1957
sS'TCAGTA'
p898
I10588
sS'TCAGTC'
p899
I11519
sS'CTCTCT'
p900
I28647
sS'GGGGAT'
p901
I9570
sS'TCAGTG'
p902
I16762
sS'CGATAT'
p903
I1123
sS'GGGGAA'
p904
I21074
sS'GGGGAC'
p905
I13938
sS'CTCTCC'
p906
I25553
sS'TCAGTT'
p907
I15882
sS'GGGGAG'
p908
I28799
sS'CGATAG'
p909
I1358
sS'CGATAA'
p910
I1557
sS'ATGCTG'
p911
I14030
sS'CGATAC'
p912
I1118
sS'CTAAGG'
p913
I8814
sS'GTGTTT'
p914
I18586
sS'GCTACT'
p915
I7809
sS'GTGGTT'
p916
I11796
sS'GTGTTC'
p917
I10036
sS'GTGTTA'
p918
I7793
sS'GTGTTG'
p919
I10977
sS'CGTGCC'
p920
I5843
sS'GTGGTA'
p921
I6778
sS'GCTACA'
p922
I7616
sS'GTGGTC'
p923
I7781
sS'GCTACC'
p924
I6170
sS'GTGGTG'
p925
I14567
sS'GCTACG'
p926
I2678
sS'GCCCCT'
p927
I20422
sS'TTTCGT'
p928
I3598
sS'TGCCCT'
p929
I21337
sS'AGCGTT'
p930
I3827
sS'AAGTTG'
p931
I11655
sS'CGTGCG'
p932
I4654
sS'TGCCCC'
p933
I17389
sS'TGCCCA'
p934
I18997
sS'TGCCCG'
p935
I8089
sS'TTTCGG'
p936
I3926
sS'AGCGTA'
p937
I1840
sS'AGCGTC'
p938
I4721
sS'AGCGTG'
p939
I5388
sS'GGCCCC'
p940
I22786
sS'GGCCCA'
p941
I16986
sS'CACGTG'
p942
I9562
sS'GGCCCG'
p943
I14295
sS'CACGTA'
p944
I2927
sS'TGTACC'
p945
I6413
sS'CACGTC'
p946
I4695
sS'CTACGC'
p947
I2566
sS'CTACGT'
p948
I2553
sS'ACGTGA'
p949
I5403
sS'GGGACT'
p950
I13742
sS'AAATGG'
p951
I18167
sS'CACGTT'
p952
I4487
sS'CTAAGT'
p953
I8537
sS'GNCCCA'
p954
I1
sS'GGCCCT'
p955
I17931
sS'GGGACA'
p956
I15062
sS'TTTTGG'
p957
I17999
sS'GGGACC'
p958
I12517
sS'AGGGAC'
p959
I14363
sS'GTCTCA'
p960
I11476
sS'ACGTGT'
p961
I4449
sS'AGAGAG'
p962
I28646
sS'AGAGAA'
p963
I27577
sS'AGAGAC'
p964
I15321
sS'TTCACC'
p965
I12029
sS'GTCTTT'
p966
I13607
sS'TCTATC'
p967
I6738
sS'TCTATG'
p968
I7788
sS'AGAGAT'
p969
I14737
sS'TTCACA'
p970
I17436
sS'ATGCTC'
p971
I8641
sS'GTCTTG'
p972
I9363
sS'TCTATT'
p973
I12316
sS'GTCTTC'
p974
I10784
sS'GTCTTA'
p975
I6468
sS'GCAGAG'
p976
I26440
sS'GCTCAA'
p977
I10567
sS'GCTCAC'
p978
I13221
sS'GCAGAC'
p979
I11028
sS'GCAGAA'
p980
I18387
sS'GCTCAG'
p981
I19977
sS'AGACGT'
p982
I3449
sS'ATGCGT'
p983
I2553
sS'TTGCTG'
p984
I18239
sS'CTTGAC'
p985
I8402
sS'TTGCTA'
p986
I10151
sS'TTGCTC'
p987
I14226
sS'GCAGAT'
p988
I11463
sS'GCTCAT'
p989
I9852
sS'GTACGG'
p990
I1758
sS'TTGCTT'
p991
I19218
sS'CGATTC'
p992
I2697
sS'TAGCCG'
p993
I2863
sS'ATGCGC'
p994
I3964
sS'ATGCGA'
p995
I1718
sS'TGTAAG'
p996
I9463
sS'GGCTAG'
p997
I7809
sS'TGTAAC'
p998
I8941
sS'GGCTAC'
p999
I6522
sS'GACTGT'
p1000
I10847
sS'GGCTAA'
p1001
I7821
sS'TTCGAG'
p1002
I3125
sS'TTGGTA'
p1003
I7997
sS'ACTGTC'
p1004
I10743
sS'TTGGTC'
p1005
I8870
sS'TTCGAC'
p1006
I1695
sS'ACTGTG'
p1007
I16996
sS'TTGGTG'
p1008
I11896
sS'GACTGC'
p1009
I10920
sS'GGCTAT'
p1010
I5874
sS'TGTAAT'
p1011
I13777
sS'GACTGG'
p1012
I13634
sS'TTCGAT'
p1013
I2060
sS'TTGGTT'
p1014
I13776
sS'ACTGTT'
p1015
I13861
sS'GTTTCT'
p1016
I19886
sS'AGGTCC'
p1017
I10393
sS'ATAATT'
p1018
I14883
sS'CCTTTT'
p1019
I22499
sS'GTTTCG'
p1020
I3179
sS'GTTTCC'
p1021
I18109
sS'GTTTCA'
p1022
I15376
sS'ATAATG'
p1023
I10485
sS'CCTTTA'
p1024
I12667
sS'CCTTTC'
p1025
I21600
sS'ATAATC'
p1026
I7843
sS'NNNNGA'
p1027
I3
sS'ATAATA'
p1028
I12849
sS'CCTTTG'
p1029
I20067
sS'ACAGAA'
p1030
I22994
sS'CTCTCG'
p1031
I6397
sS'ACAGAC'
p1032
I12824
sS'ACAGAG'
p1033
I23572
sS'TTATCT'
p1034
I14149
sS'CTGGAC'
p1035
I14347
sS'CTGGAA'
p1036
I24632
sS'CTGGAG'
p1037
I27091
sS'ATATAA'
p1038
I11752
sS'GTCGAT'
p1039
I1219
sS'GATAAG'
p1040
I7544
sS'TTATCA'
p1041
I10555
sS'CTGGAT'
p1042
I12960
sS'TTATCC'
p1043
I7452
sS'CCAATG'
p1044
I10085
sS'AAACCG'
p1045
I4309
sS'AAACCA'
p1046
I18093
sS'CCAATC'
p1047
I10196
sS'AAACCC'
p1048
I13399
sS'CCAATA'
p1049
I7914
sS'TGTCGG'
p1050
I3377
sS'GAGATC'
p1051
I8253
sS'CCCTAT'
p1052
I6383
sS'GAGATA'
p1053
I9034
sS'TGTCGC'
p1054
I3683
sS'GAGATG'
p1055
I13282
sS'TGTCGA'
p1056
I1715
sS'ATTTGA'
p1057
I15292
sS'CCAATT'
p1058
I9332
sS'ATTTGC'
p1059
I13976
sS'GGGTAT'
p1060
I4849
sS'ATTTGG'
p1061
I15531
sS'CCCTAG'
p1062
I9846
sS'TGTCGT'
p1063
I2511
sS'CCCTAC'
p1064
I7938
sS'GAGATT'
p1065
I11383
sS'CCCTAA'
p1066
I8777
sS'CATTAT'
p1067
I10481
sS'TGTTTG'
p1068
I22049
sS'TGGATT'
p1069
I12804
sS'ATCACA'
p1070
I12825
sS'ATCACC'
p1071
I8893
sS'CATGCT'
p1072
I11885
sS'TGACAC'
p1073
I10887
sS'TGACAA'
p1074
I12016
sS'TGGATA'
p1075
I7934
sS'AGGAAC'
p1076
I14015
sS'CATTAG'
p1077
I8062
sS'CATTAA'
p1078
I12014
sS'TGGATG'
p1079
I11415
sS'AGCATT'
p1080
I13718
sS'CATGCA'
p1081
I11282
sS'TGACAT'
p1082
I12307
sS'CATGCC'
p1083
I11199
sS'ATCACT'
p1084
I11209
sS'CATGCG'
p1085
I4381
sS'GTAGAA'
p1086
I9541
sS'GTAGAC'
p1087
I4545
sS'GTAGAG'
p1088
I8842
sS'ACAACA'
p1089
I13457
sS'ACAACC'
p1090
I8634
sS'GATTGC'
p1091
I7567
sS'GATTGA'
p1092
I6933
sS'TAAATT'
p1093
I16932
sS'ACTAAG'
p1094
I8152
sS'GTAGAT'
p1095
I6132
sS'TGCTAC'
p1096
I7058
sS'GGGTAC'
p1097
I4592
sS'TGATGC'
p1098
I8232
sS'GATTGT'
p1099
I7594
sS'ACAACT'
p1100
I10542
sS'GTCGAA'
p1101
I1694
sS'TAATAG'
p1102
I8090
sS'GTCCGG'
p1103
I5813
sS'TAATAC'
p1104
I7105
sS'GTCCGA'
p1105
I2708
sS'TAATAA'
p1106
I15311
sS'GTCCGC'
p1107
I5644
sS'TGTTTA'
p1108
I19262
sS'CACATC'
p1109
I10451
sS'GTCCGT'
p1110
I2916
sS'TAATAT'
p1111
I11435
sS'CGTAAC'
p1112
I1977
sS'ATTCGC'
p1113
I2074
sS'TTCTCC'
p1114
I21790
sS'ATTCGA'
p1115
I2240
sS'TTCTCA'
p1116
I20232
sS'ATCCAT'
p1117
I8364
sS'TTCTCG'
p1118
I4643
sS'TCGTAC'
p1119
I1117
sS'TACCTT'
p1120
I9478
sS'TCGTAA'
p1121
I1881
sS'TCGTAG'
p1122
I1862
sS'TCGTCA'
p1123
I2631
sS'GAACCT'
p1124
I9961
sS'TGAACG'
p1125
I3115
sS'ATCCAC'
p1126
I8541
sS'TGAACC'
p1127
I9438
sS'TTCTCT'
p1128
I27564
sS'ATCCAG'
p1129
I12969
sS'GAACCC'
p1130
I9751
sS'GAACCA'
p1131
I10695
sS'GAACCG'
p1132
I4100
sS'TACCTC'
p1133
I8011
sS'TCGTAT'
p1134
I1395
sS'ACCATC'
p1135
I7651
sS'ACCATA'
p1136
I6023
sS'ACCATG'
p1137
I10066
sS'ATGTTG'
p1138
I11746
sS'AGCTCT'
p1139
I18656
sS'TGTCCT'
p1140
I17503
sS'AGTGGT'
p1141
I10978
sS'TGATGT'
p1142
I11503
sS'ATGTTT'
p1143
I20222
sS'ACCATT'
p1144
I9619
sS'AGTGGA'
p1145
I14196
sS'AGTGGC'
p1146
I14989
sS'AGCTCC'
p1147
I18600
sS'AGCTCA'
p1148
I15951
sS'CAGTAA'
p1149
I12436
sS'CAGTAC'
p1150
I7145
sS'AGTCAG'
p1151
I15672
sS'CAGTAG'
p1152
I10104
sS'TTAATA'
p1153
I13633
sS'CAGTAT'
p1154
I8662
sS'ATTAGT'
p1155
I7668
sS'AAAGTC'
p1156
I15280
sS'CCGGCT'
p1157
I11071
sS'GATCTA'
p1158
I4934
sS'GATCTC'
p1159
I8251
sS'ATTGAC'
p1160
I7100
sS'GATCTG'
p1161
I10331
sS'TTTCAG'
p1162
I22868
sS'CCGGCC'
p1163
I18190
sS'ATTAGG'
p1164
I7944
sS'CCGGCG'
p1165
I12066
sS'CACATT'
p1166
I15701
sS'GTTCCC'
p1167
I13025
sS'TCCCTC'
p1168
I23575
sS'TGTCCG'
p1169
I3975
sS'TCCCTA'
p1170
I10194
sS'TTAATG'
p1171
I12010
sS'TCCCTG'
p1172
I25428
sS'GATCTT'
p1173
I8600
sS'CTAGAC'
p1174
I6041
sS'ATAGAA'
p1175
I11829
sS'AAGTGA'
p1176
I17155
sS'AAGTGC'
p1177
I12861
sS'TGTTCT'
p1178
I18024
sS'AAGTGG'
p1179
I14336
sS'TGATTG'
p1180
I11501
sS'TGCGCA'
p1181
I7030
sS'TCTGAT'
p1182
I13135
sS'TGTATT'
p1183
I14312
sS'TGATTA'
p1184
I10596
sS'TGTTCA'
p1185
I13435
sS'CACAAG'
p1186
I12784
sS'TGTTCC'
p1187
I13951
sS'CACAAA'
p1188
I18973
sS'CACAAC'
p1189
I10200
sS'TGTTCG'
p1190
I2367
sS'TCTGAA'
p1191
I19226
sS'TGATTT'
p1192
I19298
sS'TCTGAG'
p1193
I19411
sS'CGCGCC'
p1194
I15092
sS'CGCGCA'
p1195
I6982
sS'GGTAAA'
p1196
I10857
sS'CGCGCG'
p1197
I14258
sS'CTCCCT'
p1198
I28861
sS'AGCGGG'
p1199
I10120
sS'AGCGGA'
p1200
I6364
sS'ACCTCT'
p1201
I15318
sS'AGATGA'
p1202
I14995
sS'GAAATA'
p1203
I17958
sS'GACATT'
p1204
I11320
sS'CGCGCT'
p1205
I7817
sS'ACCTCC'
p1206
I15830
sS'ACCTCA'
p1207
I13624
sS'CTATTG'
p1208
I7868
sS'CTCCCA'
p1209
I25334
sS'CTCCCC'
p1210
I28792
sS'GCCTCT'
p1211
I21266
sS'TAAGCC'
p1212
I7850
sS'TAGCTC'
p1213
I8341
sS'CCCATG'
p1214
I11370
sS'CGGGAA'
p1215
I9168
sS'TAATTT'
p1216
I20154
sS'CGGGAC'
p1217
I8325
sS'CCCATC'
p1218
I11936
sS'CCGAGA'
p1219
I6363
sS'CCTGCT'
p1220
I23126
sS'CCGAAT'
p1221
I2470
sS'CCCATT'
p1222
I12950
sS'CGGGAT'
p1223
I4423
sS'GCCTCG'
p1224
I10027
sS'GCCTCA'
p1225
I17072
sS'TAAGCT'
p1226
I8272
sS'GCCTCC'
p1227
I27133
sS'CCGAAC'
p1228
I3023
sS'CCTGCG'
p1229
I11506
sS'CCGAAA'
p1230
I3925
sS'CCGAAG'
p1231
I5266
sS'CCTGCC'
p1232
I30111
sS'CCTGCA'
p1233
I19438
sS'GTACTG'
p1234
I7149
sS'CCATTC'
p1235
I12164
sS'CCATTA'
p1236
I7973
sS'TATAAA'
p1237
I16281
sS'TATAAC'
p1238
I5758
sS'GCNNNN'
p1239
I1
sS'CNNNNN'
p1240
I4
sS'TATAAT'
p1241
I10488
sS'CCATTT'
p1242
I18176
sS'TCTACA'
p1243
I9167
sS'TCTACC'
p1244
I7881
sS'CTAACT'
p1245
I8206
sS'TCTACG'
p1246
I2152
sS'CACCGT'
p1247
I4487
sS'CGCAAC'
p1248
I2930
sS'TGCTTA'
p1249
I11200
sS'CGCAAA'
p1250
I3678
sS'ATACCG'
p1251
I1488
sS'CGCAAG'
p1252
I4192
sS'ATACCA'
p1253
I7187
sS'ATACCC'
p1254
I4837
sS'TCTACT'
p1255
I9830
sS'ATACCT'
p1256
I7134
sS'CGCAAT'
p1257
I2428
sS'TAGTAA'
p1258
I8722
sS'ATTTCT'
p1259
I23696
sS'TAGTAC'
p1260
I4370
sS'CTCAAG'
p1261
I11857
sS'CTCAAA'
p1262
I16902
sS'TAGTAG'
p1263
I5917
sS'CTCAAC'
p1264
I9341
sS'GTGTGC'
p1265
I11784
sS'GTGTGA'
p1266
I12591
sS'GTGTGG'
p1267
I15222
sS'TAACGG'
p1268
I2195
sS'TTGCGT'
p1269
I3158
sS'CTCAAT'
p1270
I9611
sS'TAGTAT'
p1271
I6087
sS'GTTCTC'
p1272
I12399
sS'CTCCCG'
p1273
I14822
sS'GTGTGT'
p1274
I27465
sS'ATCTTT'
p1275
I16272
sS'GTTGGG'
p1276
I11724
sS'GTTGGA'
p1277
I9620
sS'GTTGGC'
p1278
I10124
sS'CCTTGG'
p1279
I17759
sS'CCTTGA'
p1280
I11795
sS'GCGTAT'
p1281
I1396
sS'AGGATT'
p1282
I13099
sS'GACCTA'
p1283
I6120
sS'GTTGGT'
p1284
I8170
sS'ATCTTG'
p1285
I10316
sS'ATCTTA'
p1286
I8190
sS'ATCTTC'
p1287
I10643
sS'CCTTGT'
p1288
I12783
sS'AGGATA'
p1289
I8260
sS'AGGATG'
p1290
I13198
sS'GACATG'
p1291
I8849
sS'GACATC'
p1292
I7459
sS'GACATA'
p1293
I6352
sS'TCGGCG'
p1294
I4929
sS'GAATAT'
p1295
I9501
sS'GGTGCA'
p1296
I9857
sS'TCGGCC'
p1297
I7839
sS'TCGGCA'
p1298
I3550
sS'TTGCGA'
p1299
I2365
sS'TTGCGC'
p1300
I3845
sS'TTGCGG'
p1301
I3856
sS'GAATAG'
p1302
I7677
sS'TCGGCT'
p1303
I5829
sS'ATCAGC'
p1304
I10301
sS'GAATAC'
p1305
I6131
sS'GAATAA'
p1306
I12460
sS'ACTTTT'
p1307
I20426
sS'ATACAA'
p1308
I10619
sS'GGACGA'
p1309
I3553
sS'TTTCTA'
p1310
I18719
sS'TTATAA'
p1311
I13120
sS'GAAATG'
p1312
I21365
sS'AATGAT'
p1313
I13241
sS'TGCCTA'
p1314
I9673
sS'GAAATC'
p1315
I13333
sS'ACCGGT'
p1316
I2224
sS'GAAATT'
p1317
I16719
sS'AATGAA'
p1318
I22162
sS'AATGAC'
p1319
I12418
sS'AATGAG'
p1320
I16837
sS'TGCACT'
p1321
I12432
sS'CTTGGC'
p1322
I17854
sS'GTATTG'
p1323
I6194
sS'GTCCTT'
p1324
I12006
sS'CTTGGG'
p1325
I16252
sS'ATACAG'
p1326
I9849
sS'AGCCCT'
p1327
I18694
sS'GCGTAA'
p1328
I1938
sS'TAGACA'
p1329
I8186
sS'TTGAAT'
p1330
I13097
sS'GTCCTA'
p1331
I6527
sS'GTCCTC'
p1332
I13193
sS'TGCACG'
p1333
I4205
sS'CTTGGT'
p1334
I11572
sS'GTCCTG'
p1335
I16047
sS'TGCACC'
p1336
I9870
sS'TTGAAA'
p1337
I20958
sS'AGCCCG'
p1338
I10156
sS'AGCCCA'
p1339
I18678
sS'AGCCCC'
p1340
I19699
sS'TTAACT'
p1341
I12771
sS'ATAAAT'
p1342
I20830
sS'TGGTCG'
p1343
I2809
sS'TGGTCA'
p1344
I11505
sS'TGGTCC'
p1345
I9246
sS'ACGATT'
p1346
I2198
sS'GAGACT'
p1347
I12435
sS'GATTCA'
p1348
I10073
sS'TGGTCT'
p1349
I11523
sS'ATAAAG'
p1350
I14540
sS'ATAAAA'
p1351
I25848
sS'CTAAGC'
p1352
I8111
sS'ATAAAC'
p1353
I12788
sS'GAGACG'
p1354
I6070
sS'GATTCG'
p1355
I2256
sS'CTACAG'
p1356
I10782
sS'GAGACC'
p1357
I11394
sS'ACGATC'
p1358
I1590
sS'GAGACA'
p1359
I15498
sS'ACGATA'
p1360
I1286
sS'GGTTAC'
p1361
I6077
sS'ATGTGT'
p1362
I14405
sS'GGTTAA'
p1363
I9027
sS'ACCACT'
p1364
I10980
sS'GGTTAG'
p1365
I6793
sS'CTTCCT'
p1366
I31706
sS'TCCATT'
p1367
I15080
sS'CGTGAA'
p1368
I3768
sS'CTCAGT'
p1369
I16605
sS'TCCGCT'
p1370
I6366
sS'CTTCCA'
p1371
I19513
sS'CTTCCC'
p1372
I27625
sS'ATGTGA'
p1373
I13914
sS'CGTATG'
p1374
I1567
sS'ATGTGC'
p1375
I10090
sS'GGTTAT'
p1376
I6666
sS'TCCGCC'
p1377
I13064
sS'AGCGAT'
p1378
I2932
sS'TCCGCG'
p1379
I6754
sS'AACGTC'
p1380
I3077
sS'CGTGAG'
p1381
I5790
sS'AACGTG'
p1382
I4485
sS'CGTGAC'
p1383
I5168
sS'GGTAGC'
p1384
I6170
sS'AGTGTG'
p1385
I14461
sS'TCTTCG'
p1386
I3688
sS'AGTGTA'
p1387
I8011
sS'TCTTCA'
p1388
I15963
sS'AGTGTC'
p1389
I10265
sS'TCTTCC'
p1390
I22350
sS'TAAGTG'
p1391
I10056
sS'ACTCAA'
p1392
I10746
sS'TAAGTC'
p1393
I6740
sS'AACGTT'
p1394
I3613
sS'CAATTT'
p1395
I14552
sS'TCTTCT'
p1396
I20523
sS'AGTGTT'
p1397
I13998
sS'GTTTTG'
p1398
I17541
sS'TTGGCA'
p1399
I16540
sS'AAAGGT'
p1400
I15774
sS'TTGGCC'
p1401
I15203
sS'CCGTGC'
p1402
I5769
sS'TTAACG'
p1403
I2224
sS'TTGGCG'
p1404
I4672
sS'GACTTC'
p1405
I11372
sS'TCGAGT'
p1406
I2455
sS'GACTTA'
p1407
I6745
sS'GACTTG'
p1408
I10777
sS'ACGTAG'
p1409
I2551
sS'AAAGGG'
p1410
I20128
sS'AAAGGA'
p1411
I23915
sS'TTGGCT'
p1412
I18159
sS'AAAGGC'
p1413
I17012
sS'AGTAAG'
p1414
I9703
sS'GTATGG'
p1415
I4626
sS'GACTTT'
p1416
I15276
sS'TAAACC'
p1417
I8533
sS'CTGTAA'
p1418
I14808
sS'CAAGAA'
p1419
I15646
sS'AGCGAG'
p1420
I7297
sS'CAAGAC'
p1421
I9356
sS'TCAGCG'
p1422
I6162
sS'CGTATT'
p1423
I2278
sS'TTCTTG'
p1424
I15643
sS'TTCTTC'
p1425
I20265
sS'TTCTTA'
p1426
I14271
sS'CAAGAT'
p1427
I10313
sS'AGGGCT'
p1428
I18696
sS'TACGGG'
p1429
I2295
sS'TACGGA'
p1430
I2279
sS'TACGGC'
p1431
I2127
sS'CTCAGA'
p1432
I19421
sS'TAGAGT'
p1433
I8124
sS'TACGGT'
p1434
I1814
sS'AGGGCG'
p1435
I12208
sS'AGGGCA'
p1436
I21345
sS'AGGGCC'
p1437
I17930
sS'TAGAGC'
p1438
I8201
sS'TAGAGA'
p1439
I12737
sS'TAGAGG'
p1440
I10684
sS'CCGTGT'
p1441
I4681
sS'GTGCTG'
p1442
I18310
sS'GTGCTA'
p1443
I7080
sS'ATCTGT'
p1444
I13801
sS'GTGCTC'
p1445
I10983
sS'GCTCGT'
p1446
I3024
sS'TAGGAC'
p1447
I6530
sS'ATCTGA'
p1448
I12579
sS'GTGCTT'
p1449
I12606
sS'ATCTGC'
p1450
I11464
sS'TCGAGG'
p1451
I3961
sS'CGAATG'
p1452
I2939
sS'ATCTGG'
p1453
I12975
sS'CAATTA'
p1454
I9075
sS'ATCATA'
p1455
I7378
sS'GATAGC'
p1456
I4459
sS'ATCATC'
p1457
I8612
sS'GATAGA'
p1458
I6744
sS'AAGCAA'
p1459
I19223
sS'GATAGG'
p1460
I6097
sS'AAGCAC'
p1461
I12613
sS'GGCTCA'
p1462
I16516
sS'CATTTC'
p1463
I21361
sS'CTAGGT'
p1464
I8125
sS'CATTTA'
p1465
I17228
sS'ACGCAT'
p1466
I2556
sS'GTTATC'
p1467
I5559
sS'TGATCG'
p1468
I1791
sS'CAAACA'
p1469
I22051
sS'AAGCAT'
p1470
I11706
sS'CAAACC'
p1471
I12141
sS'GTGGCC'
p1472
I16917
sS'ATCATT'
p1473
I13238
sS'CAAACG'
p1474
I4158
sS'CTAGGG'
p1475
I9846
sS'GTTATT'
p1476
I10971
sS'CTAGGC'
p1477
I9122
sS'CATTTT'
p1478
I27956
sS'CTAGGA'
p1479
I10707
sS'AAGTTT'
p1480
I17699
sS'TACAGT'
p1481
I10021
sS'CTCGAA'
p1482
I3124
sS'GCGCCT'
p1483
I10779
sS'CTAAGA'
p1484
I9431
sS'GGGGCT'
p1485
I19679
sS'TACAGG'
p1486
I11157
sS'CTTCCG'
p1487
I10097
sS'GGATGC'
p1488
I8093
sS'AAGTTA'
p1489
I12219
sS'TACAGC'
p1490
I9135
sS'AAGTTC'
p1491
I12863
sS'TACAGA'
p1492
I13286
sS'GGGGCC'
p1493
I22773
sS'CGGGGG'
p1494
I13382
sS'GGGGCA'
p1495
I17377
sS'GGGGCG'
p1496
I26783
sS'CCATGG'
p1497
I12972
sS'AGCGGT'
p1498
I4012
sS'TATATA'
p1499
I13415
sS'TGTATA'
p1500
I8185
sS'TATATG'
p1501
I7549
sS'AGTTCT'
p1502
I14904
sS'TCCGGT'
p1503
I4341
sS'CTATTC'
p1504
I7667
sS'TATATT'
p1505
I13158
sS'TGATGG'
p1506
I10111
sS'CATATG'
p1507
I7165
sS'ATGAGT'
p1508
I11119
sS'AGGTCT'
p1509
I11542
sS'TGATGA'
p1510
I12756
sS'TGCCAT'
p1511
I12062
sS'ACTCTT'
p1512
I12950
sS'TGTTTC'
p1513
I19838
sS'CACATA'
p1514
I10739
sS'TTAATT'
p1515
I16824
sS'CACATG'
p1516
I14357
sS'TTTCAT'
p1517
I21072
sS'ATGAGA'
p1518
I13745
sS'ATGAGC'
p1519
I9850
sS'AGTAAC'
p1520
I8802
sS'ATGAGG'
p1521
I13384
sS'TTTCAC'
p1522
I17356
sS'ACTCTG'
p1523
I18441
sS'TGCCAG'
p1524
I21888
sS'ACTCTA'
p1525
I8123
sS'ATTGTT'
p1526
I12729
sS'ACTCTC'
p1527
I11873
sS'TGCCAC'
p1528
I14661
sS'AAATTC'
p1529
I16632
sS'GACTGA'
p1530
I11522
sS'AAATTA'
p1531
I20135
sS'AAATTG'
p1532
I14557
sS'AGACCG'
p1533
I4003
sS'CGTACC'
p1534
I1669
sS'TTAATC'
p1535
I9518
sS'AAATTT'
p1536
I22318
sS'TTCGAA'
p1537
I2726
sS'GTCTAT'
p1538
I5249
sS'GGGAAC'
p1539
I13031
sS'GGTGCG'
p1540
I6013
sS'GGGAAA'
p1541
I25950
sS'GGGAAG'
p1542
I27640
sS'GGTGCC'
p1543
I12446
sS'TCCGGG'
p1544
I10746
sS'AGAGCG'
p1545
I7702
sS'GCGACT'
p1546
I3644
sS'AGAGCC'
p1547
I18399
sS'AGAGCA'
p1548
I18877
sS'GCGTAG'
p1549
I2565
sS'GGTGCT'
p1550
I12267
sS'GCGTAC'
p1551
I1533
sS'GGGAAT'
p1552
I12369
sS'GCGACG'
p1553
I3932
sS'AGAGCT'
p1554
I18656
sS'GCGACA'
p1555
I3689
sS'TATCGG'
p1556
I1215
sS'GCGACC'
p1557
I4829
sS'AGGTCG'
p1558
I3881
sS'GCAGGA'
p1559
I22143
sS'GCAGGC'
p1560
I21567
sS'GCAGGG'
p1561
I26203
sS'CCGTGA'
p1562
I4636
sS'GCACTA'
p1563
I5977
sS'GCTCGA'
p1564
I2793
sS'GCTCGG'
p1565
I8988
sS'TATTCT'
p1566
I12924
sS'CCGTGG'
p1567
I7259
sS'ACTTAC'
p1568
I7727
sS'CTTTAG'
p1569
I10854
sS'GCAGGT'
p1570
I14292
sS'TCTTGA'
p1571
I10734
sS'TATTCC'
p1572
I9248
sS'GGCGAG'
p1573
I9512
sS'TATTCA'
p1574
I12039
sS'GGCGAA'
p1575
I4328
sS'TATTCG'
p1576
I1577
sS'GGCGAC'
p1577
I5849
sS'TGTAGA'
p1578
I9176
sS'TTTACC'
p1579
I10848
sS'TGTAGC'
p1580
I7624
sS'GGCTCC'
p1581
I22247
sS'TTTACG'
p1582
I2561
sS'TGTAGG'
p1583
I8264
sS'GGCTCG'
p1584
I7570
sS'TTCGGA'
p1585
I3229
sS'TTCGGC'
p1586
I3957
sS'CTTTAC'
p1587
I9803
sS'TTCAAG'
p1588
I13129
sS'TTCGGG'
p1589
I4573
sS'ATTGTC'
p1590
I7230
sS'AGCATG'
p1591
I11882
sS'GGCTCT'
p1592
I18405
sS'TGTAGT'
p1593
I9318
sS'TTTACT'
p1594
I16694
sS'AGCATA'
p1595
I7518
sS'AACCTT'
p1596
I12197
sS'AGACCT'
p1597
I11531
sS'TTCGGT'
p1598
I2923
sS'GAGCAT'
p1599
I8640
sS'GTTTAT'
p1600
I12786
sS'CTCTCA'
p1601
I16764
sS'CGCTAC'
p1602
I2570
sS'TGCTTG'
p1603
I13384
sS'GTTTAA'
p1604
I12623
sS'GAGGTG'
p1605
I17373
sS'CACGAA'
p1606
I3273
sS'CGAATT'
p1607
I2276
sS'GTTTAG'
p1608
I8447
sS'TCTTTT'
p1609
I28593
sS'CGCTAG'
p1610
I3142
sS'CTGGCT'
p1611
I25706
sS'AGGCGG'
p1612
I16298
sS'AGGCGA'
p1613
I5496
sS'AGGCGC'
p1614
I10777
sS'AGGAGT'
p1615
I13891
sS'ACAGCC'
p1616
I17510
sS'GATAAA'
p1617
I12493
sS'ACAGCA'
p1618
I18903
sS'TCCAGC'
p1619
I21364
sS'ACAGCG'
p1620
I6379
sS'AGGAGC'
p1621
I18850
sS'GTCGGA'
p1622
I2941
sS'AGGAGA'
p1623
I22548
sS'CTGGCG'
p1624
I9937
sS'AGGAGG'
p1625
I30300
sS'CTGGCA'
p1626
I21881
sS'CTGGCC'
p1627
I25552
sS'GCATCG'
p1628
I2456
sS'ATGCAA'
p1629
I12606
sS'ACAGCT'
p1630
I17361
sS'GGAAAA'
p1631
I28277
sS'ATTGGT'
p1632
I8566
sS'AATTTT'
p1633
I24605
sS'AAACAG'
p1634
I24733
sS'TGTCAC'
p1635
I13218
sS'CCCTCT'
p1636
I23130
sS'GCTCTA'
p1637
I8203
sS'ATTTAT'
p1638
I20824
sS'ATTGGG'
p1639
I8538
sS'AATTTA'
p1640
I16910
sS'AATTTC'
p1641
I16708
sS'ATTGGC'
p1642
I10852
sS'AACGCA'
p1643
I3534
sS'AATTTG'
p1644
I15413
sS'ATTTAC'
p1645
I13247
sS'TTCGTG'
p1646
I3269
sS'CCCTCC'
p1647
I33358
sS'TGTCAT'
p1648
I12687
sS'CCCTCG'
p1649
I8802
sS'TCCAGT'
p1650
I14943
sS'CACGAT'
p1651
I2444
sS'GGCGTT'
p1652
I4320
sS'TGACCA'
p1653
I11504
sS'TGACCC'
p1654
I12489
sS'TAAATC'
p1655
I10306
sS'TGACCG'
p1656
I3621
sS'NGATCC'
p1657
I1
sS'CATTCG'
p1658
I2933
sS'TGACCT'
p1659
I18000
sS'CATTCA'
p1660
I15141
sS'TCCATA'
p1661
I7102
sS'GAATGG'
p1662
I12162
sS'TAAATG'
p1663
I17238
sS'ACAAAT'
p1664
I18204
sS'GATTAA'
p1665
I9510
sS'GTAGGC'
p1666
I6267
sS'GATTAC'
p1667
I7210
sS'CTGACA'
p1668
I14309
sS'GTAGGG'
p1669
I7933
sS'GATTAG'
p1670
I6506
sS'GCGGGT'
p1671
I7365
sS'ACAAAC'
p1672
I15733
sS'TTTCAA'
p1673
I20964
sS'ACAAAA'
p1674
I26250
sS'ACAAAG'
p1675
I19592
sS'GCGGGC'
p1676
I16890
sS'GTCGGT'
p1677
I2560
sS'GCGGGA'
p1678
I13279
sS'GCGGGG'
p1679
I28472
sS'GATTAT'
p1680
I7843
sS'GTAGGT'
p1681
I6745
sS'GGCGTC'
p1682
I6456
sS'TAATGA'
p1683
I12156
sS'GATGTT'
p1684
I10127
sS'TAATGC'
p1685
I7088
sS'GGAGAT'
p1686
I11513
sS'GCCCTT'
p1687
I15685
sS'CAATAA'
p1688
I12493
sS'GCCCTC'
p1689
I20555
sS'GATGTG'
p1690
I10447
sS'GCCCTA'
p1691
I7745
sS'GATGTA'
p1692
I5888
sS'GCCCTG'
p1693
I26184
sS'GATGTC'
p1694
I7459
sS'AACCTC'
p1695
I12255
sS'TGAAAT'
p1696
I22078
sS'TTCTAG'
p1697
I12360
sS'TTCTAA'
p1698
I15195
sS'ATCCGT'
p1699
I2248
sS'TTCTAC'
p1700
I9536
sS'GAATGT'
p1701
I12491
sS'TTGGAT'
p1702
I10093
sS'TGAAAC'
p1703
I15384
sS'TGAAAG'
p1704
I19365
sS'TTCTAT'
p1705
I11824
sS'ATCCGC'
p1706
I3282
sS'ATCCGA'
p1707
I2109
sS'ATCCGG'
p1708
I3728
sS'TGGCTC'
p1709
I19641
sS'TGGCTA'
p1710
I9552
sS'TGGCTG'
p1711
I25645
sS'GGGTGA'
p1712
I13797
sS'AGTTGT'
p1713
I10540
sS'AGCTAT'
p1714
I8219
sS'AAGACA'
p1715
I15339
sS'GTCGGC'
p1716
I4771
sS'TGGCTT'
p1717
I18718
sS'AGTTGG'
p1718
I11623
sS'GGGATT'
p1719
I11974
sS'AGCTAC'
p1720
I8133
sS'AGTTGC'
p1721
I9737
sS'AGTTGA'
p1722
I9914
sS'AGCTAG'
p1723
I8736
sS'CGTTGA'
p1724
I2298
sS'GCACCT'
p1725
I11217
sS'CAGTGT'
p1726
I16505
sS'TAACAA'
p1727
I11783
sS'TCAGGT'
p1728
I11929
sS'TCAAGG'
p1729
I11786
sS'GTCGGG'
p1730
I5759
sS'TCAAGC'
p1731
I8930
sS'CTGCAC'
p1732
I15218
sS'GCACCA'
p1733
I11327
sS'CAGTGC'
p1734
I15786
sS'GCACCC'
p1735
I11453
sS'CAGTGA'
p1736
I19325
sS'CAGTGG'
p1737
I19238
sS'CTAATG'
p1738
I8059
sS'TCAAGT'
p1739
I10464
sS'GCACAT'
p1740
I10096
sS'TCAGGA'
p1741
I18206
sS'ACTAGT'
p1742
I5525
sS'TCAGGC'
p1743
I15580
sS'CGAGCT'
p1744
I5080
sS'TCCTAA'
p1745
I11268
sS'CAACCA'
p1746
I11399
sS'AGTCAA'
p1747
I11076
sS'TTCCCT'
p1748
I24780
sS'CGAGCG'
p1749
I5681
sS'CGAGCA'
p1750
I4124
sS'GAGCCG'
p1751
I11417
sS'CGAGCC'
p1752
I7558
sS'TTCCCA'
p1753
I23911
sS'TTCCCC'
p1754
I21054
sS'GTTCAC'
p1755
I8587
sS'TTCCCG'
p1756
I9171
sS'GATCAC'
p1757
I7509
sS'GGACCT'
p1758
I10395
sS'CTTACT'
p1759
I9700
sS'TCCACC'
p1760
I15149
sS'AAGTAC'
p1761
I8481
sS'CACACT'
p1762
I14459
sS'TACATC'
p1763
I5893
sS'AAGTAG'
p1764
I10068
sS'TACATA'
p1765
I9760
sS'GCACAC'
p1766
I11794
sS'GGACCG'
p1767
I5528
sS'AACGCT'
p1768
I3830
sS'GGACCA'
p1769
I9243
sS'CTTTCT'
p1770
I27967
sS'GGACCC'
p1771
I11211
sS'CACACG'
p1772
I6208
sS'TACATT'
p1773
I12161
sS'CACACC'
p1774
I13380
sS'CTGCAT'
p1775
I12969
sS'CACACA'
p1776
I33075
sS'TCTGCC'
p1777
I21529
sS'TCTGCA'
p1778
I18198
sS'TCTGCG'
p1779
I6778
sS'TAGATT'
p1780
I8885
sS'ATTGCC'
p1781
I8976
sS'CCCGTC'
p1782
I6541
sS'TTAAGG'
p1783
I9164
sS'CCCGTA'
p1784
I2293
sS'CGTCGA'
p1785
I1100
sS'CCCGTG'
p1786
I6238
sS'TTAAGC'
p1787
I8243
sS'TTACGT'
p1788
I2809
sS'TAGATC'
p1789
I4939
sS'TGTCAA'
p1790
I10642
sS'AGTAAT'
p1791
I10030
sS'TTTCGC'
p1792
I3678
sS'TAGATG'
p1793
I8248
sS'TCTGCT'
p1794
I20747
sS'TTACGC'
p1795
I1936
sS'TTAAGT'
p1796
I11141
sS'TTACGA'
p1797
I1882
sS'TTACGG'
p1798
I2186
sS'CCCGTT'
p1799
I4036
sS'AGTGAC'
p1800
I13942
sS'AGTGAA'
p1801
I15937
sS'GCTAGT'
p1802
I5666
sS'AGTGAG'
p1803
I17300
sS'CGGGCG'
p1804
I13886
sS'AAACAC'
p1805
I18589
sS'TAAGAG'
p1806
I10846
sS'CCTGAT'
p1807
I10902
sS'TAAGAA'
p1808
I14291
sS'CGGGCA'
p1809
I8080
sS'TAAGAC'
p1810
I6468
sS'AAACAA'
p1811
I29923
sS'AGTGAT'
p1812
I11210
sS'GGGNCC'
p1813
I1
sS'TAAGAT'
p1814
I8186
sS'CCTGAA'
p1815
I16664
sS'CCTGAC'
p1816
I14476
sS'CCTGAG'
p1817
I21366
sS'GTTAGG'
p1818
I7483
sS'ACCCCA'
p1819
I14472
sS'TCATCT'
p1820
I15003
sS'GTTAGC'
p1821
I5570
sS'GTTAGA'
p1822
I7160
sS'GCCAAA'
p1823
I15747
sS'TGAATT'
p1824
I15251
sS'TATACG'
p1825
I1189
sS'GTTAGT'
p1826
I6003
sS'TATACC'
p1827
I3967
sS'TATACA'
p1828
I8188
sS'AACGCC'
p1829
I4316
sS'CGTATA'
p1830
I1186
sS'TCTTGT'
p1831
I12678
sS'GTAATG'
p1832
I7422
sS'TTTATT'
p1833
I31679
sS'GTAATA'
p1834
I7804
sS'ATTGGA'
p1835
I9523
sS'GTAATC'
p1836
I7200
sS'TCTAAC'
p1837
I7168
sS'CGTTCT'
p1838
I4386
sS'CCACCG'
p1839
I8691
sS'GGTAGG'
p1840
I8960
sS'CCACCA'
p1841
I16706
sS'CCACCC'
p1842
I22983
sS'GTTCGT'
p1843
I2092
sS'TTTATG'
p1844
I13498
sS'ACTAGG'
p1845
I8059
sS'GTAACG'
p1846
I2008
sS'TTTATC'
p1847
I12476
sS'ACTAGC'
p1848
I5659
sS'TTTATA'
p1849
I16260
sS'CCCTCA'
p1850
I16096
sS'CCACCT'
p1851
I19232
sS'CGTTCG'
p1852
I1668
sS'TCGTTG'
p1853
I2463
sS'CGTTCA'
p1854
I3112
sS'CGTTCC'
p1855
I4989
sS'TCTAAT'
p1856
I9476
sS'CTTTGT'
p1857
I19597
sS'ACTGGG'
p1858
I17330
sS'ACTGGA'
p1859
I14941
sS'ACTGGC'
p1860
I13439
sS'TAGTCC'
p1861
I6316
sS'GTGACC'
p1862
I12225
sS'TAGTCA'
p1863
I8075
sS'GTGACA'
p1864
I13220
sS'TAGTCG'
p1865
I1403
sS'GTGACG'
p1866
I5619
sS'ATTTAG'
p1867
I11858
sS'ACTGGT'
p1868
I9285
sS'CTTTGG'
p1869
I20145
sS'CCTATG'
p1870
I6699
sS'GTATTT'
p1871
I15943
sS'CTTTGC'
p1872
I17691
sS'CTTTGA'
p1873
I17145
sS'GTGACT'
p1874
I14423
sS'TAGTCT'
p1875
I7442
sS'GTGCAC'
p1876
I8118
sS'GCGCTT'
p1877
I5583
sS'ACCTAG'
p1878
I8127
sS'CGACGA'
p1879
I1525
sS'ACCTAA'
p1880
I8039
sS'CGACGC'
p1881
I3494
sS'CGAAGT'
p1882
I3126
sS'CCGCAG'
p1883
I12290
sS'CCGCAA'
p1884
I3860
sS'CCGCAC'
p1885
I6507
sS'ACGTGG'
p1886
I7232
sS'CGAAGC'
p1887
I4605
sS'CGACGT'
p1888
I1666
sS'CGAAGA'
p1889
I3689
sS'CCCCGT'
p1890
I6365
sS'CGAAGG'
p1891
I5132
sS'GCGCTC'
p1892
I9937
sS'GTGCAT'
p1893
I7741
sS'GCGCTA'
p1894
I2683
sS'CCGCAT'
p1895
I2929
sS'GTTCGC'
p1896
I2656
sS'GAAGAT'
p1897
I10641
sS'GGATCT'
p1898
I8261
sS'TCGTTT'
p1899
I4127
sS'TCGGAC'
p1900
I2708
sS'GAATCT'
p1901
I10458
sS'CCTATA'
p1902
I4751
sS'TCGGAG'
p1903
I5442
sS'GGATCG'
p1904
I2666
sS'GAAGAG'
p1905
I20851
sS'GAAGAA'
p1906
I20267
sS'GGATCC'
p1907
I8495
sS'GAAGAC'
p1908
I10790
sS'GGATCA'
p1909
I8172
sS'GGATCN'
p1910
I1
sS'GAATCA'
p1911
I11756
sS'GAATCC'
p1912
I9111
sS'TCGGAT'
p1913
I2106
sS'GAATCG'
p1914
I2702
sS'ATGGTC'
p1915
I6112
sS'CAGATG'
p1916
I15754
sS'ATGGTA'
p1917
I7012
sS'CATTCT'
p1918
I16540
sS'ATGGTG'
p1919
I10850
sS'CAGATC'
p1920
I10338
sS'ACGCCC'
p1921
I7525
sS'CAGATA'
p1922
I10780
sS'TGTCAG'
p1923
I14324
sS'ACGCCT'
p1924
I5361
sS'CAGATT'
p1925
I13979
sS'CTCGAC'
p1926
I2529
sS'ATGGTT'
p1927
I9338
sS'TCGCAA'
p1928
I2363
sS'TGCGTC'
p1929
I4435
sS'AATGGT'
p1930
I9618
sS'GGGACG'
p1931
I7985
sS'AGCCAC'
p1932
I18124
sS'AATGGA'
p1933
I15076
sS'AATGGG'
p1934
I12939
sS'CAATAC'
p1935
I6191
sS'GATCAA'
p1936
I7215
sS'CCCCGA'
p1937
I7462
sS'AATAGA'
p1938
I12308
sS'AACGCG'
p1939
I2755
sS'ACAATA'
p1940
I9758
sS'AATAGC'
p1941
I8796
sS'GTGAAT'
p1942
I10404
sS'AGCCAG'
p1943
I25706
sS'GGAGGG'
p1944
I33364
sS'AAAAGT'
p1945
I20422
sS'GGAGGA'
p1946
I28723
sS'GGAGGC'
p1947
I27125
sS'TGGTAG'
p1948
I8056
sS'CGCCAT'
p1949
I5491
sS'GAGTGT'
p1950
I10230
sS'TGGTAC'
p1951
I5137
sS'TGGTAA'
p1952
I10068
sS'AAAAGG'
p1953
I22498
sS'GGAGGT'
p1954
I15826
sS'AGCCAT'
p1955
I11574
sS'AAAAGC'
p1956
I18904
sS'AAAAGA'
p1957
I28612
sS'TTGACT'
p1958
I11082
sS'GAGTGG'
p1959
I14371
sS'CGCCAG'
p1960
I9936
sS'TGGTAT'
p1961
I7189
sS'CGCCAA'
p1962
I4669
sS'GAGTGC'
p1963
I10321
sS'CGCCAC'
p1964
I8648
sS'GAGTGA'
p1965
I13381
sS'GCCAGG'
p1966
I29987
sS'GCCAGA'
p1967
I18107
sS'GCCAGC'
p1968
I21584
sS'GCCCGT'
p1969
I5022
sS'TACCGA'
p1970
I1728
sS'TACCGC'
p1971
I2521
sS'TACCGG'
p1972
I2348
sS'GCCCGC'
p1973
I16910
sS'GCCAGT'
p1974
I13449
sS'GCCCGA'
p1975
I6330
sS'GCCCGG'
p1976
I18196
sS'CTTCAC'
p1977
I12847
sS'CTTCAA'
p1978
I12387
sS'CTTCAG'
p1979
I18019
sS'TCCGAG'
p1980
I5778
sS'TCCGAA'
p1981
I3228
sS'TCCGAC'
p1982
I2941
sS'TAGCGT'
p1983
I1971
sS'TATTAG'
p1984
I7612
sS'AATTCC'
p1985
I13745
sS'AATTCG'
p1986
I2281
sS'TCCGAT'
p1987
I2018
sS'NNNGAT'
p1988
I1
sS'TAGCGG'
p1989
I3081
sS'TAGCGA'
p1990
I1967
sS'TAGCGC'
p1991
I2685
sS'GTCATC'
p1992
I8959
sS'GTCATA'
p1993
I6462
sS'GTAGGA'
p1994
I8175
sS'GTCATG'
p1995
I9259
sS'AGCAGG'
p1996
I23116
sS'CCAGGT'
p1997
I17510
sS'TTGGAA'
p1998
I18242
sS'AGCAGC'
p1999
I22999
sS'AGCAGA'
p2000
I20748
sS'GTCATT'
p2001
I12419
sS'CCAGGG'
p2002
I27741
sS'AGCAGT'
p2003
I14810
sS'CCAGGA'
p2004
I27570
sS'CCAGGC'
p2005
I31277
sS'AGCGCT'
p2006
I6612
sS'ATAGAG'
p2007
I8646
sS'CATCTG'
p2008
I15744
sS'GATCGG'
p2009
I2164
sS'CATCTA'
p2010
I8249
sS'GATCGA'
p2011
I1576
sS'CATCTC'
p2012
I13271
sS'GATCGC'
p2013
I2631
sS'GGATGG'
p2014
I12252
sS'GATCGT'
p2015
I1591
sS'CATCTT'
p2016
I13194
sS'CAAGCA'
p2017
I13375
sS'CAAGCG'
p2018
I4633
sS'GTTCTT'
p2019
I13303
sS'ACATGA'
p2020
I11596
sS'CGTAAT'
p2021
I1956
sS'ACATGC'
p2022
I9709
sS'ACATGG'
p2023
I12027
sS'CCCGCT'
p2024
I10124
sS'GTACAT'
p2025
I6668
sS'GGCCAT'
p2026
I9914
sS'CGTAAG'
p2027
I2325
sS'GTTCTG'
p2028
I14804
sS'ACATGT'
p2029
I11830
sS'GTTCTA'
p2030
I7893
sS'CGTAAA'
p2031
I2566
sS'CCCGCG'
p2032
I13975
sS'GGATAC'
p2033
I4560
sS'CCCGCC'
p2034
I33570
sS'AGGGAA'
p2035
I24791
sS'AAACTA'
p2036
I13147
sS'AGCGCA'
p2037
I5319
sS'GTTGTT'
p2038
I11478
sS'ATCCTT'
p2039
I10855
sS'TTGTCG'
p2040
I2067
sS'TTGTCC'
p2041
I11317
sS'TTGTCA'
p2042
I12011
sS'ATCCTC'
p2043
I10768
sS'GTTGTA'
p2044
I6735
sS'ATCCTA'
p2045
I7290
sS'GTTGTC'
p2046
I6884
sS'ATCCTG'
p2047
I14261
sS'GTTGTG'
p2048
I10203
sS'TTGTCT'
p2049
I13667
sS'CTATGC'
p2050
I5584
sS'TCTTGC'
p2051
I12679
sS'TGGGCC'
p2052
I16977
sS'TGACTC'
p2053
I15193
sS'TGGGCA'
p2054
I18980
sS'TGGGCG'
p2055
I11240
sS'TGACTG'
p2056
I14632
sS'AAGCCG'
p2057
I6238
sS'NNNNGC'
p2058
I1
sS'AAGCCC'
p2059
I14494
sS'AAGCCA'
p2060
I18710
sS'CAAAAT'
p2061
I20220
sS'TGACTT'
p2062
I15663
sS'TGGGCT'
p2063
I18679
sS'CAAAAC'
p2064
I17545
sS'CAAAAA'
p2065
I24462
sS'AAGCCT'
p2066
I14953
sS'CAAAAG'
p2067
I18873
sS'TCAATG'
p2068
I9544
sS'CCCTTA'
p2069
I8185
sS'ACCGTG'
p2070
I4290
sS'TCAATC'
p2071
I6931
sS'CGTCGT'
p2072
I1568
sS'CAGTTC'
p2073
I14398
sS'GACCCG'
p2074
I6666
sS'GACCCA'
p2075
I11308
sS'GACCCC'
p2076
I10738
sS'CTCTGT'
p2077
I23555
sS'TCAATT'
p2078
I10428
sS'TGGCGT'
p2079
I4694
sS'CTCTGC'
p2080
I26419
sS'GACCCT'
p2081
I10724
sS'CTCTGA'
p2082
I21174
sS'CTCTGG'
p2083
I25943
sS'CAGTTT'
p2084
I20248
sS'GCGAAG'
p2085
I5111
sS'CTACTC'
p2086
I7858
sS'TGCTGG'
p2087
I23704
sS'CGAGGT'
p2088
I5001
sS'TGCTGA'
p2089
I17700
sS'GAGTCT'
p2090
I11150
sS'TGCTGC'
p2091
I20206
sS'TAGGGA'
p2092
I10182
sS'GCTGGT'
p2093
I14360
sS'GTGATT'
p2094
I11444
sS'CTACTA'
p2095
I5899
sS'TGCTGT'
p2096
I18908
sS'AGCTGA'
p2097
I17986
sS'TAATGG'
p2098
I7976
sS'ATGCGG'
p2099
I2929
sS'GTGATG'
p2100
I10531
sS'GCTGGG'
p2101
I33212
sS'GTGATC'
p2102
I7520
sS'GCTGGC'
p2103
I21575
sS'GTGATA'
p2104
I6632
sS'GCTGGA'
p2105
I21354
sS'TGATAA'
p2106
I10562
sS'TGATAC'
p2107
I5561
sS'TGATAG'
p2108
I6757
sS'CTTGTT'
p2109
I14569
sS'GACGGT'
p2110
I3071
sS'GCTAGG'
p2111
I8785
sS'GCTAGA'
p2112
I7677
sS'ATGAAT'
p2113
I14125
sS'GCTAGC'
p2114
I5795
sS'ATAGGG'
p2115
I6376
sS'TGATAT'
p2116
I8002
sS'GAGGTT'
p2117
I12262
sS'CTGTGC'
p2118
I18265
sS'ATGAAC'
p2119
I9467
sS'GACGGG'
p2120
I6547
sS'CTTGTG'
p2121
I12778
sS'GACGGA'
p2122
I4490
sS'ATGAAG'
p2123
I13697
sS'GACGGC'
p2124
I5362
sS'CTTGTC'
p2125
I10415
sS'GCACTT'
p2126
I12850
sS'GNCCGC'
p2127
I1
sS'CAACGT'
p2128
I3070
sS'GGTGAA'
p2129
I12030
sS'GGTGAC'
p2130
I12357
sS'GCGTCT'
p2131
I5168
sS'TGTAAA'
p2132
I17365
sS'GGTGAG'
p2133
I16216
sS'GGAATG'
p2134
I14757
sS'CGTCCT'
p2135
I5855
sS'GGAATC'
p2136
I10030
sS'GGAATA'
p2137
I9243
sS'GCGTCA'
p2138
I4502
sS'GTTATG'
p2139
I6312
sS'GCGTCC'
p2140
I7378
sS'GGTGAT'
p2141
I8896
sS'GCGTCG'
p2142
I3494
sS'CGTCCG'
p2143
I3911
sS'GGAATT'
p2144
I13760
sS'CGTCCC'
p2145
I7980
sS'CGTCCA'
p2146
I4127
sS'TTTCGA'
p2147
I2726
sS'CCGTAT'
p2148
I1745
sS'GAAGTC'
p2149
I11382
sS'CTACTT'
p2150
I10058
sS'GAAGTG'
p2151
I15987
sS'GCCGTA'
p2152
I2130
sS'CCGTAC'
p2153
I1757
sS'CCGTAA'
p2154
I2188
sS'CCGTAG'
p2155
I2833
sS'CAAAGT'
p2156
I18953
sS'GCCGTT'
p2157
I3629
sS'GAAGTT'
p2158
I13523
sS'GGCGCG'
p2159
I15093
sS'ATGCCC'
p2160
I9538
sS'TTAGTT'
p2161
I10678
sS'GCACTC'
p2162
I10343
sS'GGCGCC'
p2163
I15778
sS'ATGCCG'
p2164
I2978
sS'GGCGCA'
p2165
I8048
sS'TATTAC'
p2166
I7803
sS'ACTATG'
p2167
I7438
sS'CAACGG'
p2168
I3178
sS'TTTAAG'
p2169
I14929
sS'ACTATC'
p2170
I4860
sS'TTTAAA'
p2171
I36640
sS'ACTATA'
p2172
I5957
sS'TTTAAC'
p2173
I12865
sS'TATTAT'
p2174
I12851
sS'TTAGTG'
p2175
I8491
sS'GGCGCT'
p2176
I10341
sS'TTAGTC'
p2177
I6781
sS'ATGCCT'
p2178
I11715
sS'TTAGTA'
p2179
I7847
sS'TTTAAT'
p2180
I19764
sS'GCACTG'
p2181
I15805
sS'GGGCAT'
p2182
I9550
sS'TTTCCG'
p2183
I6501
sS'TTTCCA'
p2184
I25906
sS'TTTCCC'
p2185
I25938
sS'GTACGT'
p2186
I1784
sS'GTTTGT'
p2187
I15726
sS'TTTCCT'
p2188
I34211
sS'GGGCAG'
p2189
I28912
sS'GTCTGT'
p2190
I12817
sS'GGGCAA'
p2191
I13939
sS'GGGCAC'
p2192
I13402
sS'GTTTGC'
p2193
I12582
sS'GTTTGA'
p2194
I11365
sS'GTTTGG'
p2195
I13667
sS'GTACGA'
p2196
I1117
sS'CCGCTC'
p2197
I10656
sS'GCATGT'
p2198
I9704
sS'CCGCTA'
p2199
I3080
sS'CCGCTG'
p2200
I11353
sS'TGAAAA'
p2201
I25530
sS'GCGCGG'
p2202
I16464
sS'GCGCGC'
p2203
I17602
sS'GCGCGA'
p2204
I4944
sS'GCATGG'
p2205
I9881
sS'GCATGC'
p2206
I9649
sS'CCGCTT'
p2207
I6301
sS'GCATGA'
p2208
I9551
sS'GTCGAC'
p2209
I1359
sS'GCGCGT'
p2210
I5134
sS'GTCGAG'
p2211
I2532
sS'AGACAT'
p2212
I10664
sS'GAGCTA'
p2213
I8352
sS'TGCGCT'
p2214
I5319
sS'GAGCTC'
p2215
I14814
sS'ATTGAT'
p2216
I9014
sS'GAGCTG'
p2217
I22659
sS'AAACGA'
p2218
I4132
sS'AAACGC'
p2219
I4678
sS'GTAACA'
p2220
I8965
sS'GTAGTA'
p2221
I4926
sS'AAACGG'
p2222
I4735
sS'TGTCCC'
p2223
I15061
sS'TGCGCG'
p2224
I6984
sS'TGTCCA'
p2225
I13227
sS'GAGCTT'
p2226
I12473
sS'TGCGCC'
p2227
I8041
sS'ATTGAG'
p2228
I9606
sS'CGCTGA'
p2229
I6157
sS'TAGTGG'
p2230
I8322
sS'ACCGAC'
p2231
I2562
sS'AAACGT'
p2232
I4855
sS'TGGGTT'
p2233
I13424
sS'ATTTCA'
p2234
I22068
sS'ATTTCC'
p2235
I20734
sS'ATCAGT'
p2236
I10193
sS'ATCGGG'
p2237
I2588
sS'CATAGT'
p2238
I7437
sS'ATCGGC'
p2239
I2315
sS'ATCGGA'
p2240
I2016
sS'TGGGTG'
p2241
I17703
sS'CGATCA'
p2242
I1788
sS'TGGGTC'
p2243
I11298
sS'TGGGTA'
p2244
I8931
sS'CATAGG'
p2245
I6702
sS'ATCGGT'
p2246
I1597
sS'ATCAGG'
p2247
I10903
sS'ATCAGA'
p2248
I13137
sS'CATAGA'
p2249
I7786
sS'GGTCAA'
p2250
I9012
sS'ACGGGT'
p2251
I2695
sS'GTCTGA'
p2252
I10998
sS'ATTCGG'
p2253
I2471
sS'GATTCT'
p2254
I11652
sS'CTTTTG'
p2255
I18878
sS'TACTAG'
p2256
I5354
sS'TACTAA'
p2257
I7855
sS'CTTTTA'
p2258
I17996
sS'GATTCC'
p2259
I10014
sS'ACGGGG'
p2260
I6357
sS'ACGGGA'
p2261
I5038
sS'ACGGGC'
p2262
I5021
sS'TACTAT'
p2263
I6948
sS'CTTTTT'
p2264
I29698
sS'CGTAGA'
p2265
I2150
sS'TCACGA'
p2266
I2850
sS'TCACGC'
p2267
I5019
sS'CGATTG'
p2268
I2542
sS'TCACGG'
p2269
I4629
sS'TCACGT'
p2270
I5400
sS'TTCCAC'
p2271
I14971
sS'TTCCAA'
p2272
I18247
sS'TTCCAG'
p2273
I24631
sS'ACCCTT'
p2274
I10665
sS'TGAAGT'
p2275
I13632
sS'ATGCTT'
p2276
I11703
sS'TTCCAT'
p2277
I15548
sS'TGAAGC'
p2278
I12723
sS'ACCCTC'
p2279
I12419
sS'TGAAGG'
p2280
I14659
sS'ACCCTG'
p2281
I16629
sS'CTGACT'
p2282
I15667
sS'CCCCTT'
p2283
I16543
sS'AGTTAT'
p2284
I9314
sS'ACATAT'
p2285
I10032
sS'CTGACG'
p2286
I5147
sS'CTGACC'
p2287
I15618
sS'TCCTCT'
p2288
I24065
sS'AGTTAA'
p2289
I12778
sS'CCCCTG'
p2290
I20254
sS'AGTTAC'
p2291
I8806
sS'CCCCTC'
p2292
I24825
sS'AGTTAG'
p2293
I8203
sS'CCCCTA'
p2294
I8341
sS'ACACAG'
p2295
I22090
sS'ACACAA'
p2296
I15556
sS'ACACAC'
p2297
I27469
sS'AATGTT'
p2298
I18609
sS'CTGCAG'
p2299
I28321
sS'CATGGG'
p2300
I11361
sS'CATGGA'
p2301
I11983
sS'CATGGC'
p2302
I12446
sS'AATGTC'
p2303
I11310
sS'ACACAT'
p2304
I14403
sS'AATGTA'
p2305
I12160
sS'AATGTG'
p2306
I15706
sS'AGCTAA'
p2307
I10084
sS'CATGGT'
p2308
I10058
sS'GCACAA'
p2309
I11094
sS'GCACAG'
p2310
I18258
sS'ACATTT'
p2311
I23828
sS'ATGTTC'
p2312
I10140
sS'CGAGAT'
p2313
I2955
sS'ATTACT'
p2314
I10035
sS'CACAAT'
p2315
I11691
sS'ACATTG'
p2316
I10705
sS'ACATTA'
p2317
I10758
sS'ACATTC'
p2318
I12489
sS'ATTACA'
p2319
I13788
sS'GATACA'
p2320
I6844
sS'ATTACC'
p2321
I6845
sS'CGAGAC'
p2322
I4354
sS'CGAGAA'
p2323
I4646
sS'AAGTCT'
p2324
I12253
sS'ACCCTA'
p2325
I6640
sS'GCTATT'
p2326
I8799
sS'GGACAT'
p2327
I9067
sS'GCTATA'
p2328
I4618
sS'GCTATC'
p2329
I4453
sS'AAGTCG'
p2330
I2956
sS'AACCTA'
p2331
I7689
sS'AAGTCA'
p2332
I15661
sS'GCTATG'
p2333
I6856
sS'AAGTCC'
p2334
I13306
sS'GGACAG'
p2335
I17832
sS'GGACAC'
p2336
I11539
sS'GGACAA'
p2337
I11330
sS'CTAATT'
p2338
I10282
sS'AGGGTT'
p2339
I11998
sS'GAGGCG'
p2340
I15430
sS'TGTTGG'
p2341
I12669
sS'GAGGCA'
p2342
I18522
sS'TGTTGA'
p2343
I12982
sS'GAGGCC'
p2344
I21598
sS'TGTTGC'
p2345
I12354
sS'ACTCGA'
p2346
I2452
sS'TAAAAT'
p2347
I26058
sS'ACTCGC'
p2348
I3870
sS'AAGCTT'
p2349
I12853
sS'ACTCGG'
p2350
I5099
sS'TGTTGT'
p2351
I13451
sS'GAGGCT'
p2352
I19948
sS'AGCGCC'
p2353
I10350
sS'AGGGTG'
p2354
I15742
sS'AGGGTA'
p2355
I7837
sS'AGCGCG'
p2356
I7819
sS'AGGGTC'
p2357
I10726
sS'TAAAAG'
p2358
I18016
sS'ACTCGT'
p2359
I2311
sS'TAAAAC'
p2360
I15370
sS'TAAAAA'
p2361
I31852
sS'ACGTTC'
p2362
I3115
sS'AGCTGC'
p2363
I20631
sS'ACGTTA'
p2364
I2397
sS'TAGGGC'
p2365
I7745
sS'CTACTG'
p2366
I10099
sS'AGCTGG'
p2367
I24308
sS'TAGGGG'
p2368
I8331
sS'AGTGCG'
p2369
I4464
sS'AGTGCA'
p2370
I12431
sS'AGAGTT'
p2371
I14952
sS'AGTGCC'
p2372
I12928
sS'CCAAAA'
p2373
I18019
sS'ACAATG'
p2374
I11544
sS'TAGGGT'
p2375
I6628
sS'AGCTGT'
p2376
I17359
sS'ACGTTT'
p2377
I4852
sS'AGTGCT'
p2378
I15109
sS'AGAGTC'
p2379
I12253
sS'AGAGTA'
p2380
I9512
sS'AGAGTG'
p2381
I14666
sS'TAACCC'
p2382
I7127
sS'GTTAAA'
p2383
I12860
sS'CCTGGC'
p2384
I29967
sS'GTTAAC'
p2385
I6526
sS'CCTGGA'
p2386
I24040
sS'CCTGGG'
p2387
I33882
sS'GTTAAG'
p2388
I7787
sS'TTCGTC'
p2389
I2664
sS'CTAATC'
p2390
I6508
sS'GTCTGG'
p2391
I13831
sS'GTCTGC'
p2392
I11020
sS'GTTAAT'
p2393
I9857
sS'CCTGGT'
p2394
I16165
sS'GCGGNC'
p2395
I1
sS'CCGGTC'
p2396
I5166
sS'GGAAGG'
p2397
I27467
sS'ATAACG'
p2398
I1999
sS'CCACAT'
p2399
I12820
sS'GGAAGC'
p2400
I20747
sS'GCACCG'
p2401
I6644
sS'GGAAGA'
p2402
I22364
sS'GCGTTA'
p2403
I2024
sS'CAATGA'
p2404
I12330
sS'CCCGCA'
p2405
I8383
sS'CAATGC'
p2406
I8506
sS'GCGTTG'
p2407
I3555
sS'CAATGG'
p2408
I10279
sS'CCACAG'
p2409
I22115
sS'GGAAGT'
p2410
I18409
sS'CCACAC'
p2411
I15229
sS'CCACAA'
p2412
I12925
sS'ATTTGT'
p2413
I18199
sS'TCCTCG'
p2414
I6512
sS'TGTATG'
p2415
I8749
sS'TCCTCA'
p2416
I17965
sS'GCGTTT'
p2417
I4678
sS'TCCTCC'
p2418
I28716
sS'TGTATC'
p2419
I6844
sS'CGTTAG'
p2420
I2278
sS'TAACCG'
p2421
I2019
sS'TCATAG'
p2422
I8222
sS'TCAGGG'
p2423
I17676
sS'CGTTAC'
p2424
I2005
sS'TTCGTA'
p2425
I1986
sS'TCATAC'
p2426
I5839
sS'TAACCA'
p2427
I9656
sS'ACCGCT'
p2428
I4013
sS'TCGCGA'
p2429
I2545
sS'TGCATG'
p2430
I11288
sS'TTCGTT'
p2431
I3544
sS'TCATAT'
p2432
I8672
sS'TAACCT'
p2433
I9742
sS'GTGAAG'
p2434
I12854
sS'GTGAAA'
p2435
I17364
sS'GTGAAC'
p2436
I8594
sS'CAATAG'
p2437
I7868
sS'TGCATA'
p2438
I8542
sS'ACCGCG'
p2439
I5149
sS'ACCGCA'
p2440
I4141
sS'AACGAG'
p2441
I3406
sS'ACCGCC'
p2442
I8198
sS'AGTTCC'
p2443
I13158
sS'CCGCCT'
p2444
I16304
sS'AGGCTT'
p2445
I14944
sS'CCTTCT'
p2446
I20643
sS'GTTGCA'
p2447
I10326
sS'AACGAA'
p2448
I3546
sS'GTTGCC'
p2449
I10009
sS'GTGCCG'
p2450
I5099
sS'GTGCCA'
p2451
I13413
sS'GTTGCG'
p2452
I2930
sS'GTGCCC'
p2453
I13397
sS'CCGCCG'
p2454
I18775
sS'AGGCTA'
p2455
I8501
sS'CCTTCC'
p2456
I27466
sS'AGGCTC'
p2457
I15789
sS'CCGCCC'
p2458
I33122
sS'AACGAC'
p2459
I2275
sS'CCGCCA'
p2460
I11022
sS'AGGCTG'
p2461
I28158
sS'GTGCCT'
p2462
I13959
sS'GTTGCT'
p2463
I11569
sS'NNNGCG'
p2464
I1
sS'GGATAT'
p2465
I6455
sS'ATAGGT'
p2466
I6091
sS'TCGGGT'
p2467
I3732
sS'AAACCT'
p2468
I14757
sS'GCAGTT'
p2469
I13340
sS'GAAGCT'
p2470
I15041
sS'GGATAA'
p2471
I7447
sS'ATGCCA'
p2472
I12525
sS'TCGGGA'
p2473
I5277
sS'NNNNNG'
p2474
I4
sS'TCGGGG'
p2475
I7458
sS'GGATAG'
p2476
I5725
sS'GAAGCG'
p2477
I7202
sS'GCAGTG'
p2478
I19488
sS'GAAGCC'
p2479
I16788
sS'GCAGTA'
p2480
I8515
sS'GAAGCA'
p2481
I16344
sS'GCAGTC'
p2482
I10918
sS'CGCCCG'
p2483
I13897
sS'GAGAGA'
p2484
I25069
sS'GTTCAT'
p2485
I9465
sS'GAGAGG'
p2486
I24712
sS'CGCCCA'
p2487
I11241
sS'CTACAA'
p2488
I9317
sS'ACGCAG'
p2489
I6196
sS'NNNNNN'
p2490
I506
sS'GCATTC'
p2491
I9595
sS'GCATTA'
p2492
I7092
sS'CTCGCA'
p2493
I4340
sS'CGCCCT'
p2494
I12200
sS'CTCGCG'
p2495
I6697
sS'AAACAT'
p2496
I20229
sS'CTATAT'
p2497
I6169
sS'AACTGA'
p2498
I15876
sS'GCCGGG'
p2499
I19921
sS'AGCATC'
p2500
I8707
sS'TACCCG'
p2501
I2746
sS'GCCGGC'
p2502
I14867
sS'CATGTT'
p2503
I13210
sS'GCCGGA'
p2504
I8726
sS'AGATCT'
p2505
I10137
sS'AGTTTA'
p2506
I12977
sS'TACCCA'
p2507
I8938
sS'CATGTA'
p2508
I8747
sS'CATGTC'
p2509
I8851
sS'GCCGGT'
p2510
I5329
sS'CATGTG'
p2511
I14357
sS'TACCCC'
p2512
I6007
sS'GTACTC'
p2513
I4846
sS'TCACTT'
p2514
I17149
sS'GGCCTC'
p2515
I21596
sS'NNGCGC'
p2516
I1
sS'GGCCTA'
p2517
I7239
sS'TTTGTT'
p2518
I29424
sS'AATCGG'
p2519
I2648
sS'AATCGC'
p2520
I2671
sS'AATCGA'
p2521
I2331
sS'GTTCAG'
p2522
I12701
sS'GGCCTT'
p2523
I15068
sS'TCACTA'
p2524
I8545
sS'TCACTC'
p2525
I13372
sS'AATCGT'
p2526
I2200
sS'AGCCGA'
p2527
I5835
sS'CCTTCA'
p2528
I14637
sS'AGCCGC'
p2529
I11198
sS'TAATTG'
p2530
I9091
sS'AAAAAT'
p2531
I35033
sS'AGCCGG'
p2532
I11062
sS'GTTTTT'
p2533
I22809
sS'TGGTGA'
p2534
I14525
sS'TCTCAT'
p2535
I13753
sS'TGGTGC'
p2536
I11314
sS'GATGGC'
p2537
I10069
sS'GGGCTG'
p2538
I27756
sS'TGGTGG'
p2539
I16704
sS'GATGGG'
p2540
I11933
sS'AAAAAA'
p2541
I77430
sS'CAGCTG'
p2542
I28072
sS'AAAAAC'
p2543
I22815
sS'GGGCTC'
p2544
I17888
sS'GAGCGA'
p2545
I5815
sS'AGCCGT'
p2546
I4235
sS'GAGCGC'
p2547
I9933
sS'TGACAG'
p2548
I15651
sS'CCAAGG'
p2549
I17750
sS'ACGTAT'
p2550
I2022
sS'TCTCAG'
p2551
I19830
sS'GATGGT'
p2552
I7646
sS'TGGTGT'
p2553
I11920
sS'TCTCAC'
p2554
I13305
sS'ATTCGT'
p2555
I2269
sS'AGAACT'
p2556
I14912
sS'CCTTCG'
p2557
I5133
sS'TACCAT'
p2558
I7019
sS'CCTATT'
p2559
I9343
sS'ACCCGG'
p2560
I7986
sS'ACCCGA'
p2561
I3734
sS'ATGTCT'
p2562
I10670
sS'ACCCGC'
p2563
I7376
sS'ACCAGT'
p2564
I9288
sS'TACCAC'
p2565
I6770
sS'AGAACG'
p2566
I4390
sS'TACCAA'
p2567
I8003
sS'AGAACA'
p2568
I18014
sS'TACCAG'
p2569
I8653
sS'AGAACC'
p2570
I11093
sS'ACCAGC'
p2571
I14355
sS'CACTGG'
p2572
I17786
sS'ATGTCC'
p2573
I9070
sS'ATCACG'
p2574
I3186
sS'ACCAGG'
p2575
I16166
sS'CACTGC'
p2576
I19484
sS'CCTATC'
p2577
I6102
sS'CAGCGT'
p2578
I6135
sS'GAGTCA'
p2579
I15188
sS'TAGGTT'
p2580
I7685
sS'GTTTAC'
p2581
I9810
sS'AATTAT'
p2582
I14883
sS'CTGTTG'
p2583
I15344
sS'TGCTAT'
p2584
I8887
sS'TGGATC'
p2585
I7808
sS'CGGGTT'
p2586
I4855
sS'CTGTTA'
p2587
I11364
sS'AATTAC'
p2588
I10182
sS'TACATG'
p2589
I8764
sS'AATTAA'
p2590
I16826
sS'AATTAG'
p2591
I10272
sS'TAGGTC'
p2592
I6121
sS'CGGGTC'
p2593
I6661
sS'CTGTTT'
p2594
I24736
sS'CGGGTA'
p2595
I2746
sS'CGGGTG'
p2596
I7491
sS'CCAAAC'
p2597
I13684
sS'AAGTAA'
p2598
I14537
sS'CATTAC'
p2599
I7418
sS'TTAGGG'
p2600
I8765
sS'ATATAT'
p2601
I14834
sS'AGCAAC'
p2602
I11575
sS'TTAGGC'
p2603
I7233
sS'AAAGCT'
p2604
I17252
sS'AGCAAG'
p2605
I15975
sS'ATGCTA'
p2606
I7449
sS'AAAGCA'
p2607
I23216
sS'ATATAG'
p2608
I6166
sS'TTAGGT'
p2609
I8024
sS'GAGTCG'
p2610
I3989
sS'AGCAAT'
p2611
I12261
sS'ATATAC'
p2612
I6642
sS'TACTTC'
p2613
I9537
sS'ATAGCC'
p2614
I5874
sS'TACTTG'
p2615
I8484
sS'ATAGCG'
p2616
I1735
sS'CAGCAT'
p2617
I14042
sS'TGCTAA'
p2618
I10751
sS'ATAGCT'
p2619
I8217
sS'TACTTT'
p2620
I15700
sS'CGCATA'
p2621
I1348
sS'GGGTAA'
p2622
I7965
sS'CGAGTT'
p2623
I3286
sS'TCCAAT'
p2624
I9531
sS'CGTACT'
p2625
I1787
sS'CAGCGG'
p2626
I11347
sS'ACATAC'
p2627
I7711
sS'CTTAAG'
p2628
I8253
sS'ACATAA'
p2629
I11537
sS'CTTAAA'
p2630
I14939
sS'AGGGGT'
p2631
I11877
sS'CTTAAC'
p2632
I7790
sS'TCCAAG'
p2633
I14538
sS'CGAGTG'
p2634
I4248
sS'TTGTTA'
p2635
I11777
sS'TCCAAC'
p2636
I9632
sS'TCCAAA'
p2637
I19166
sS'AGGGGA'
p2638
I20524
sS'CTTAAT'
p2639
I9601
sS'AGGGGC'
p2640
I20416
sS'TATGCA'
p2641
I8542
sS'AGGGGG'
p2642
I17105
sS'CGTTTG'
p2643
I4156
sS'CGACTT'
p2644
I2953
sS'GCGTTC'
p2645
I4184
sS'TTGTAA'
p2646
I13334
sS'TTGTAC'
p2647
I7222
sS'GTACCT'
p2648
I6429
sS'TTGTAG'
p2649
I9316
sS'TGAATC'
p2650
I10078
sS'GATTGG'
p2651
I10191
sS'TGAATA'
p2652
I12022
sS'CGACTC'
p2653
I3988
sS'TGAATG'
p2654
I15157
sS'AAGTAT'
p2655
I9836
sS'CGACTG'
p2656
I3862
sS'TTGTAT'
p2657
I10619
sS'ATCGTG'
p2658
I2445
sS'GCTTCG'
p2659
I4606
sS'GCTTCA'
p2660
I12731
sS'GCTTCC'
p2661
I20746
sS'TGGGAG'
p2662
I25333
sS'TGGGAA'
p2663
I23920
sS'TGGGAC'
p2664
I12673
sS'GCTTCT'
p2665
I17301
sS'ATCGTT'
p2666
I2135
sS'ACAACG'
p2667
I2676
sS'TGGGAT'
p2668
I13247
sS'GGGCTA'
p2669
I7086
sS'CTAGCC'
p2670
I7803
sS'CTAGCA'
p2671
I8221
sS'CTAGCG'
p2672
I3142
sS'CGCATT'
p2673
I2750
sS'ACTTAG'
p2674
I8536
sS'ACTTAA'
p2675
I11140
sS'CGGTAC'
p2676
I1805
sS'TACACT'
p2677
I8012
sS'CGGTAA'
p2678
I2401
sS'GACCAG'
p2679
I12297
sS'GACCAC'
p2680
I7773
sS'CTAGCT'
p2681
I8739
sS'TACACC'
p2682
I5454
sS'CGGTAT'
p2683
I1488
sS'TACACA'
p2684
I13375
sS'TACACG'
p2685
I2403
sS'CGTTTA'
p2686
I2897
sS'GCGAGA'
p2687
I5951
sS'GAGAGC'
p2688
I15741
sS'GCGAGC'
p2689
I7655
sS'GGCCGT'
p2690
I5710
sS'GCGAGG'
p2691
I10359
sS'TTAAGA'
p2692
I12000
sS'CAGCCG'
p2693
I11815
sS'CAGCCA'
p2694
I25638
sS'CAGCCC'
p2695
I27746
sS'GCTGAA'
p2696
I15359
sS'GCGAGT'
p2697
I3871
sS'CTCGCT'
p2698
I7292
sS'GAACTC'
p2699
I11142
sS'GAACTA'
p2700
I7746
sS'GGACTT'
p2701
I13309
sS'CACCTA'
p2702
I8569
sS'AACTAT'
p2703
I8844
sS'CACCTC'
p2704
I17372
sS'CACCTG'
p2705
I18339
sS'TGATCC'
p2706
I8176
sS'AACACT'
p2707
I14002
sS'TGATCA'
p2708
I8937
sS'ATTTAA'
p2709
I20570
sS'TAGATA'
p2710
I7744
sS'AACTAG'
p2711
I8453
sS'GGACTG'
p2712
I14185
sS'CACCTT'
p2713
I13064
sS'GGACTA'
p2714
I6312
sS'GGACTC'
p2715
I12051
sS'AACGAT'
p2716
I2138
sS'AACACG'
p2717
I4216
sS'AACACA'
p2718
I19118
sS'AACACC'
p2719
I10106
sS'TGATCT'
p2720
I11245
sS'AAAGAC'
p2721
I13620
sS'ACGCAC'
p2722
I4075
sS'CAACAG'
p2723
I15350
sS'GACAGT'
p2724
I10743
sS'CAACAA'
p2725
I13415
sS'AAAGAA'
p2726
I32994
sS'CAACAC'
p2727
I10993
sS'GCTGAT'
p2728
I10316
sS'ACGCAA'
p2729
I3157
sS'GACAGG'
p2730
I16027
sS'AAAGAG'
p2731
I23312
sS'GACAGC'
p2732
I13586
sS'GACAGA'
p2733
I17075
sS'GTATTA'
p2734
I7100
sS'GTATTC'
p2735
I6136
sS'GTAAGT'
p2736
I7726
sS'ATATCA'
p2737
I8005
sS'AGAGGT'
p2738
I15329
sS'GGTGGC'
p2739
I18379
sS'TCCCCT'
p2740
I20529
sS'GGTGGA'
p2741
I15137
sS'TATCTT'
p2742
I11055
sS'GGTGGG'
p2743
I22725
sS'AGAGGC'
p2744
I21276
sS'GTAAGA'
p2745
I8445
sS'AGAGGA'
p2746
I24062
sS'CTCGCC'
p2747
I9517
sS'AGAGGG'
p2748
I23125
sS'GTAAGG'
p2749
I7094
sS'TCCCCG'
p2750
I12828
sS'CGTCAC'
p2751
I5623
sS'TCCCCC'
p2752
I17182
sS'GGTGGT'
p2753
I11322
sS'TCCCCA'
p2754
I22792
sS'GTCGCG'
p2755
I3637
sS'GTCGCA'
p2756
I2633
sS'GTCGCC'
p2757
I5848
sS'TCGGTC'
p2758
I2969
sS'TCGGTA'
p2759
I1731
sS'GAGAGT'
p2760
I11868
sS'TCGGTG'
p2761
I4171
sS'GTCGCT'
p2762
I3975
sS'TACCTA'
p2763
I6607
sS'GTAACT'
p2764
I8806
sS'CCGTCG'
p2765
I3070
sS'CCGTCA'
p2766
I3929
sS'TCGGTT'
p2767
I3058
sS'GGCTGT'
p2768
I17515
sS'CGCGTG'
p2769
I4845
sS'GCATTT'
p2770
I16923
sS'CGCGTC'
p2771
I4934
sS'CGCGTA'
p2772
I1312
sS'GTTTTA'
p2773
I15353
sS'CCACTG'
p2774
I19255
sS'CCACTA'
p2775
I8312
sS'CCACTC'
p2776
I14367
sS'CGCGTT'
p2777
I2755
sS'GGCTGG'
p2778
I31737
sS'GGCTGA'
p2779
I18764
sS'GGCTGC'
p2780
I25363
sS'CCACTT'
p2781
I14335
sS'TTTAGA'
p2782
I14366
sS'TTGACC'
p2783
I9016
sS'ATGACG'
p2784
I3294
sS'GGAGTT'
p2785
I13340
sS'ATGACA'
p2786
I12678
sS'ATGACC'
p2787
I8739
sS'CGGGCC'
p2788
I14290
sS'GGGCCT'
p2789
I18723
sS'ATGACT'
p2790
I12376
sS'GGAGTA'
p2791
I7094
sS'GGAGTC'
p2792
I11907
sS'GGAGTG'
p2793
I15405
sS'GGGCCG'
p2794
I16187
sS'GGGCCC'
p2795
I19340
sS'GGGCCA'
p2796
I17760
sS'GGCAAG'
p2797
I14221
sS'ACGAGT'
p2798
I2311
sS'TTCNNN'
p2799
I2
sS'AGGCCA'
p2800
I20324
sS'GCGCAC'
p2801
I6855
sS'GCGCAG'
p2802
I12711
sS'ACGAGG'
p2803
I4864
sS'ACGAGC'
p2804
I3018
sS'ACGAGA'
p2805
I3188
sS'GGCAAC'
p2806
I10014
sS'GCGCAT'
p2807
I3964
sS'GATTTA'
p2808
I10299
sS'AGACGG'
p2809
I5376
sS'GGGTTG'
p2810
I10899
sS'TTTGGG'
p2811
I18147
sS'GGGTTA'
p2812
I7126
sS'GGGTTC'
p2813
I9745
sS'TTTGAT'
p2814
I13513
sS'TGAACT'
p2815
I15239
sS'CTACGA'
p2816
I1861
sS'AACGGT'
p2817
I2605
sS'GGGTTT'
p2818
I13400
sS'TGCGAC'
p2819
I2631
sS'AGAAAT'
p2820
I23713
sS'TGCGAG'
p2821
I4342
sS'AACGGC'
p2822
I3629
sS'TTTGAG'
p2823
I16881
sS'ATTGCA'
p2824
I12470
sS'GACTAG'
p2825
I5947
sS'AACGGG'
p2826
I4035
sS'TTTGAC'
p2827
I10866
sS'TTTGAA'
p2828
I22161
sS'CGGGCT'
p2829
I10146
sS'TGACGT'
p2830
I5174
sS'AGTCGG'
p2831
I4200
sS'CTCGTC'
p2832
I3899
sS'CCCTGG'
p2833
I27750
sS'CCCTGA'
p2834
I17676
sS'CTCGTG'
p2835
I4410
sS'CCCTGC'
p2836
I26198
sS'CCCTGT'
p2837
I16868
sS'AAGCTC'
p2838
I12479
sS'GATATA'
p2839
I5280
sS'TGACGG'
p2840
I3927
sS'GATATG'
p2841
I5852
sS'AAGCTG'
p2842
I18468
sS'TGACGC'
p2843
I4503
sS'TACTCT'
p2844
I9516
sS'CATCGT'
p2845
I2537
sS'CAGGGT'
p2846
I16623
sS'CTACGG'
p2847
I2834
sS'CCAGTC'
p2848
I13641
sS'TACGAT'
p2849
I1343
sS'CCAGTG'
p2850
I17777
sS'TACTCG'
p2851
I1890
sS'CATCGA'
p2852
I2041
sS'CATCGC'
p2853
I3307
sS'TACTCC'
p2854
I7100
sS'NGAATT'
p2855
I2
sS'TACTCA'
p2856
I9587
sS'CATCGG'
p2857
I2499
sS'CAGGGG'
p2858
I20256
sS'CAGGGA'
p2859
I25417
sS'CAGGGC'
p2860
I26182
sS'AATCTG'
p2861
I13979
sS'CGGACT'
p2862
I4269
sS'AATCTC'
p2863
I11368
sS'AGTCGA'
p2864
I1974
sS'AATCTA'
p2865
I8885
sS'ATCCAA'
p2866
I10088
sS'TCACAC'
p2867
I12599
sS'TCACAA'
p2868
I14068
sS'TCACAG'
p2869
I19642
sS'GCCATA'
p2870
I5603
sS'CGGACG'
p2871
I3911
sS'GCCATC'
p2872
I10082
sS'CGGACA'
p2873
I3968
sS'CGGACC'
p2874
I4934
sS'GCCATG'
p2875
I12450
sS'TTTTAA'
p2876
I34635
sS'CGCNNN'
p2877
I1
sS'TCACAT'
p2878
I13917
sS'ATTAAC'
p2879
I9854
sS'ATTAAA'
p2880
I19755
sS'ATTAAG'
p2881
I9604
sS'CTTACA'
p2882
I9459
sS'GGCCTG'
p2883
I24594
sS'TCCACG'
p2884
I5538
sS'GTGCAG'
p2885
I15205
sS'ATTAAT'
p2886
I12782
sS'ATCATG'
p2887
I9163
sS'TACCTG'
p2888
I9877
sS'GGTATG'
p2889
I5119
sS'GGTATA'
p2890
I3967
sS'GGTATC'
p2891
I4064
sS'CGAGAG'
p2892
I6403
sS'CTGAAA'
p2893
I22886
sS'CTGAAC'
p2894
I12704
sS'GGAACC'
p2895
I11058
sS'CTGAAG'
p2896
I18016
sS'ATTGTA'
p2897
I8718
sS'CCCGAA'
p2898
I4577
sS'TAGGTA'
p2899
I6603
sS'CATTGC'
p2900
I10644
sS'TATGAG'
p2901
I7868
sS'CATTGA'
p2902
I9539
sS'CTAGTT'
p2903
I8452
sS'CATTGG'
p2904
I10083
sS'TCAACT'
p2905
I9924
sS'ATGTTA'
p2906
I10613
sS'ACACCG'
p2907
I4001
sS'CTGCCA'
p2908
I23745
sS'CTGCCC'
p2909
I28907
sS'ACACCC'
p2910
I11289
sS'ACACCA'
p2911
I11925
sS'CTGCCG'
p2912
I11001
sS'CTAGTG'
p2913
I8573
sS'TCAACC'
p2914
I7670
sS'TCAACA'
p2915
I12979
sS'CTAGTC'
p2916
I5945
sS'TCAACG'
p2917
I2301
sS'CTAGTA'
p2918
I5356
sS'CATTGT'
p2919
I11544
sS'TATGAC'
p2920
I6463
sS'ACACCT'
p2921
I10929
sS'CTGCCT'
p2922
I28000
sS'TATCAC'
p2923
I6636
sS'CCTCGT'
p2924
I4873
sS'TATGAA'
p2925
I11070
sS'GAGGAC'
p2926
I13195
sS'AGACTG'
p2927
I14248
sS'TCACTG'
p2928
I19322
sS'AGACTA'
p2929
I7442
sS'CCTCGG'
p2930
I11175
sS'CCTCGC'
p2931
I10373
sS'CCCGAC'
p2932
I5768
sS'CCTCGA'
p2933
I3958
sS'CGAGGA'
p2934
I6505
sS'CGAGGC'
p2935
I10015
sS'CGAGGG'
p2936
I8802
sS'ACTTTC'
p2937
I15760
sS'ACTTTA'
p2938
I13032
sS'ACTTTG'
p2939
I18942
sS'GACCTG'
p2940
I13498
sS'GGACGT'
p2941
I3846
sS'GACCTC'
p2942
I12149
sS'CACCGG'
p2943
I6142
sS'GCATAG'
p2944
I5586
sS'CACCGA'
p2945
I4175
sS'CACCGC'
p2946
I9755
sS'GACCTT'
p2947
I12051
sS'GGACGC'
p2948
I7384
sS'GGACGG'
p2949
I7099
sS'ACGCTA'
p2950
I1972
sS'CACAGC'
p2951
I21654
sS'CTTATC'
p2952
I7542
sS'CACAGA'
p2953
I22709
sS'CTTATA'
p2954
I6292
sS'CACAGG'
p2955
I20769
sS'CTTATG'
p2956
I6920
sS'ACTCAT'
p2957
I11117
sS'GAGGAG'
p2958
I28159
sS'GACGTA'
p2959
I1899
sS'CGTATC'
p2960
I1522
sS'GACGTC'
p2961
I4464
sS'TAAACT'
p2962
I12982
sS'GAGGAA'
p2963
I25152
sS'GACGTG'
p2964
I4692
sS'TTAACA'
p2965
I13002
sS'ACTCAC'
p2966
I12471
sS'TTAACC'
p2967
I9026
sS'TTGTGA'
p2968
I14052
sS'ACTCAG'
p2969
I16818
sS'CTTATT'
p2970
I12380
sS'CACAGT'
p2971
I17000
sS'AGCGAC'
p2972
I3976
sS'TAAACA'
p2973
I19272
sS'AGCGAA'
p2974
I3930
sS'GAGGAT'
p2975
I10756
sS'GACGTT'
p2976
I3075
sS'TCTAAA'
p2977
I14374
sS'TAAACG'
p2978
I2898
sS'CTGTGG'
p2979
I22118
sS'GTATGT'
p2980
I7713
sS'AGTTCA'
p2981
I15223
sS'TACTTA'
p2982
I9182
sS'AGTTCG'
p2983
I2830
sS'TAGCCC'
p2984
I7080
sS'CTGTGA'
p2985
I19628
sS'CGGGGT'
p2986
I8107
sS'TCTAAG'
p2987
I9644
sS'GCAAAG'
p2988
I17699
sS'TAGGAA'
p2989
I14222
sS'GCAAAA'
p2990
I17103
sS'TAGGAG'
p2991
I10757
sS'GCAAAC'
p2992
I12583
sS'CGGGGC'
p2993
I23661
sS'CGGGGA'
p2994
I12820
sS'CTGTGT'
p2995
I22082
sS'GTATGA'
p2996
I5835
sS'GTATGC'
p2997
I4136
sS'AGCTCG'
p2998
I5080
sS'GCAAAT'
p2999
I13981
sS'TAGGAT'
p3000
I7287
sS'TAATTA'
p3001
I12744
sS'TTCAAT'
p3002
I11221
sS'TGCTTT'
p3003
I23214
sS'TTATAT'
p3004
I11751
sS'TGGGNC'
p3005
I1
sS'GTAATT'
p3006
I10188
sS'GTTACC'
p3007
I6123
sS'GTTACA'
p3008
I8939
sS'TAATTC'
p3009
I10226
sS'TATCGA'
p3010
I1229
sS'TATCGC'
p3011
I1422
sS'TATAGT'
p3012
I5962
sS'GTCTAA'
p3013
I5992
sS'AGGACG'
p3014
I5849
sS'GTCTAC'
p3015
I4543
sS'TGCTTC'
p3016
I16335
sS'TTCAAA'
p3017
I22162
sS'TTCAAC'
p3018
I10362
sS'GATGGA'
p3019
I10601
sS'TATAGC'
p3020
I4609
sS'TATCGT'
p3021
I1286
sS'TATAGA'
p3022
I6715
sS'AGTGGG'
p3023
I16056
sS'TATAGG'
p3024
I4752
sS'GTGGCG'
p3025
I8649
sS'GTTACT'
p3026
I8798
sS'GCTCTC'
p3027
I15744
sS'GGAAAC'
p3028
I18110
sS'CCAAGT'
p3029
I13589
sS'GCTCTG'
p3030
I24456
sS'CCACGT'
p3031
I7239
sS'GGAAAG'
p3032
I25485
sS'AGGACC'
p3033
I10515
sS'ACTAGA'
p3034
I9078
sS'GAATGA'
p3035
I15141
sS'ACTACT'
p3036
I7175
sS'GAATGC'
p3037
I9591
sS'CCACGA'
p3038
I4148
sS'AACCTG'
p3039
I13652
sS'CCACGC'
p3040
I9069
sS'GGCGTA'
p3041
I2066
sS'GTTCCG'
p3042
I4578
sS'GGCGTG'
p3043
I9437
sS'CCACGG'
p3044
I7265
sS'GCTCTT'
p3045
I15216
sS'GGCTTA'
p3046
I7853
sS'ACTACC'
p3047
I5384
sS'GGCTTC'
p3048
I16797
sS'ACTACA'
p3049
I9313
sS'ACTACG'
p3050
I2182
sS'GGCTTG'
p3051
I13014
sS'TCCTAG'
p3052
I10702
sS'GTTTTC'
p3053
I18726
sS'CGTTGC'
p3054
I3593
sS'TAACAC'
p3055
I7807
sS'TCCTAC'
p3056
I8175
sS'AGTCAC'
p3057
I14431
sS'CGTTGG'
p3058
I3690
sS'TAACAG'
p3059
I11363
sS'TCATCG'
p3060
I2822
sS'GAATTG'
p3061
I9974
sS'AAGCGT'
p3062
I3437
sS'TCATCC'
p3063
I10805
sS'GAGCGG'
p3064
I10649
sS'TCATCA'
p3065
I12752
sS'AGTCAT'
p3066
I12375
sS'TCCTAT'
p3067
I8650
sS'TAACAT'
p3068
I10625
sS'CGTTGT'
p3069
I2680
sS'CTTTCC'
p3070
I25476
sS'TACCCT'
p3071
I7842
sS'CTTTCA'
p3072
I19354
sS'CTTTCG'
p3073
I4325
sS'AAAAAG'
p3074
I29715
sS'GTTGAT'
p3075
I6619
sS'CGACCA'
p3076
I2810
sS'CGACCC'
p3077
I5109
sS'GCATAC'
p3078
I4132
sS'CGACCG'
p3079
I2719
sS'CCTTAT'
p3080
I8079
sS'GTTGAC'
p3081
I6544
sS'GTTGAA'
p3082
I10356
sS'GTTGAG'
p3083
I9339
sS'CCTTAC'
p3084
I7100
sS'CCTTAA'
p3085
I9168
sS'CCTTAG'
p3086
I8810
sS'CGACCT'
p3087
I3880
sS'CAACTC'
p3088
I11050
sS'CAACTA'
p3089
I7091
sS'CAACTG'
p3090
I12050
sS'AATAGG'
p3091
I9340
sS'GCAGCA'
p3092
I20203
sS'GGGGTT'
p3093
I10898
sS'GTCCCT'
p3094
I14360
sS'ATTCNN'
p3095
I2
sS'GGATGT'
p3096
I9180
sS'AATAGT'
p3097
I9848
sS'TCGCTA'
p3098
I1969
sS'CAACTT'
p3099
I11648
sS'ACTGTA'
p3100
I10027
sS'GGGGTG'
p3101
I18579
sS'GGATGA'
p3102
I10813
sS'GGGGTC'
p3103
I10731
sS'GGGGTA'
p3104
I6002
sS'TCTCCG'
p3105
I7532
sS'GAGTCC'
p3106
I12054
sS'AAACTG'
p3107
I20252
sS'TCTCCC'
p3108
I22800
sS'CCCTTT'
p3109
I20138
sS'TCTCCA'
p3110
I20222
sS'AAACTC'
p3111
I14653
sS'ACGCGA'
p3112
I2062
sS'AGTACG'
p3113
I1788
sS'ACGCGC'
p3114
I5137
sS'GCTAAG'
p3115
I8234
sS'AGTACC'
p3116
I5374
sS'CTATGG'
p3117
I6610
sS'AGTACA'
p3118
I9551
sS'AAACTT'
p3119
I17713
sS'CCCTTC'
p3120
I20572
sS'TCTCCT'
p3121
I22546
sS'CCCTTG'
p3122
I13990
sS'TGCCAA'
p3123
I16545
sS'AGTACT'
p3124
I8126
sS'CTATGT'
p3125
I8351
sS'GCCGAA'
p3126
I3956
sS'GTGGAG'
p3127
I17653
sS'GCCGAC'
p3128
I4768
sS'GTGGAC'
p3129
I8796
sS'GCCGAG'
p3130
I11108
sS'GTGGAA'
p3131
I14984
sS'GTGGAT'
p3132
I8543
sS'GCCGAT'
p3133
I2316
sS'AGATAG'
p3134
I8313
sS'TATCTG'
p3135
I10786
sS'CACTGT'
p3136
I16873
sS'GTAGTC'
p3137
I5173
sS'AAATCG'
p3138
I3051
sS'CACGCG'
p3139
I4843
sS'TTATCG'
p3140
I1554
sS'CACGCA'
p3141
I5805
sS'AAATCC'
p3142
I14177
sS'ACCGAA'
p3143
I2922
sS'AAATCA'
p3144
I19288
sS'GGCTTT'
p3145
I16727
sS'AGATAC'
p3146
I7059
sS'CACGCT'
p3147
I5392
sS'AAATCT'
p3148
I16736
sS'ACCGAT'
p3149
I1601
sS'CTTGAA'
p3150
I13139
sS'GTAGTT'
p3151
I7731
sS'AGATAA'
p3152
I14155
sS'CGTTAT'
p3153
I1998
sS'GATGAT'
p3154
I8622
sS'GGAGCA'
p3155
I16161
sS'GGAGCC'
p3156
I22237
sS'AAAGTG'
p3157
I18372
sS'CCAAAT'
p3158
I15542
sS'GGAGCG'
p3159
I11742
sS'AAAACT'
p3160
I20480
sS'GATGAC'
p3161
I8956
sS'GATGAA'
p3162
I12257
sS'GATGAG'
p3163
I11566
sS'AAAACC'
p3164
I15903
sS'AAAACA'
p3165
I32255
sS'AAAACG'
p3166
I5836
sS'GGAGCT'
p3167
I18599
sS'CCAAAG'
p3168
I20164
sS'TCGCGG'
p3169
I5254
sS'CTAGAG'
p3170
I11242
sS'TCGCGC'
p3171
I4946
sS'GGGAGT'
p3172
I13467
sS'GCCACA'
p3173
I16532
sS'AGATCA'
p3174
I11244
sS'GCCACC'
p3175
I18377
sS'AGATCC'
p3176
I8259
sS'CGACGG'
p3177
I3064
sS'GCCACG'
p3178
I8460
sS'AGATCG'
p3179
I2481
sS'ATGTCA'
p3180
I12304
sS'TCGCGT'
p3181
I2062
sS'GTGCAA'
p3182
I10311
sS'ACCCGT'
p3183
I2692
sS'AGAAAG'
p3184
I27976
sS'TCCCTT'
p3185
I19981
sS'AGAAAC'
p3186
I19894
sS'GCCACT'
p3187
I15020
sS'AGAAAA'
p3188
I37683
sS'CTACCC'
p3189
I8118
sS'ATGTAC'
p3190
I6665
sS'ACTTCG'
p3191
I3125
sS'ATGTAA'
p3192
I12451
sS'ATGTAG'
p3193
I7660
sS'GTTCGA'
p3194
I1993
sS'CTACCA'
p3195
I8051
sS'CCGGCA'
p3196
I7555
sS'GACGAC'
p3197
I2564
sS'ATGTCG'
p3198
I1936
sS'CTATGA'
p3199
I8220
sS'ATGTAT'
p3200
I9755
sS'ATTAGA'
p3201
I9476
sS'CACTGA'
p3202
I16764
sS'ATTAGC'
p3203
I7338
sS'AGCACT'
p3204
I15102
sS'TTAGAA'
p3205
I15208
sS'CGGCTG'
p3206
I11823
sS'TTAGAC'
p3207
I5996
sS'CGGCTC'
p3208
I11416
sS'TTAGAG'
p3209
I11022
sS'CGGCTA'
p3210
I2863
sS'AGCACC'
p3211
I12264
sS'AGCACA'
p3212
I16664
sS'AGCACG'
p3213
I4949
sS'GGTCGG'
p3214
I5310
sS'CGGCTT'
p3215
I6234
sS'TTAGAT'
p3216
I8443
sS'CCAGCA'
p3217
I23694
sS'ACCTAT'
p3218
I6094
sS'CCAGCC'
p3219
I31761
sS'ATATCC'
p3220
I6446
sS'CCAGCG'
p3221
I10774
sS'GCGCTG'
p3222
I11885
sS'TTATTT'
p3223
I32916
sS'TGTGAG'
p3224
I15902
sS'TGTGAA'
p3225
I17453
sS'ACGTCT'
p3226
I3452
sS'TGTGAC'
p3227
I14037
sS'ATATCT'
p3228
I9069
sS'CCAGCT'
p3229
I24318
sS'AAAGAT'
p3230
I16286
sS'TGTGAT'
p3231
I12827
sS'TTATTG'
p3232
I12488
sS'TTATTA'
p3233
I15289
sS'CATGAT'
p3234
I9162
sS'TTATTC'
p3235
I12451
sS'ACATCT'
p3236
I11187
sS'TTTTAT'
p3237
I25829
sS'TACAAG'
p3238
I8308
sS'TCCACT'
p3239
I14198
sS'TACAAA'
p3240
I16751
sS'AGACGA'
p3241
I3107
sS'TACAAC'
p3242
I6737
sS'CCTCTG'
p3243
I27939
sS'AGGTGG'
p3244
I19228
sS'CCTCTC'
p3245
I24720
sS'AGGTGC'
p3246
I11212
sS'CCTCTA'
p3247
I10687
sS'AGGTGA'
p3248
I15966
sS'CTTACG'
p3249
I2322
sS'TCCACA'
p3250
I15102
sS'TTTTAG'
p3251
I16054
sS'ACATCG'
p3252
I2078
sS'CTTACC'
p3253
I7653
sS'ACATCA'
p3254
I11505
sS'TTTTAC'
p3255
I14623
sS'ACATCC'
p3256
I9178
sS'AGGTGT'
p3257
I10937
sS'CCTCTT'
p3258
I20444
sS'CGTCGG'
p3259
I3152
sS'CCCGGC'
p3260
I19925
sS'CCCGGA'
p3261
I10747
sS'CCCGGG'
p3262
I18567
sS'TTGTGT'
p3263
I15549
sS'TGGAAT'
p3264
I16463
sS'TAGGTG'
p3265
I8569
sS'TTGTGC'
p3266
I11091
sS'TATGAT'
p3267
I7383
sS'TTGTGG'
p3268
I12913
sS'CCCGGT'
p3269
I5793
sS'TGGAAG'
p3270
I19528
sS'TGGAAC'
p3271
I11543
sS'TGGAAA'
p3272
I25920
sS'TGAGGA'
p3273
I17971
sS'AAGAGG'
p3274
I20447
sS'TGAGGC'
p3275
I17074
sS'AAGAGA'
p3276
I22142
sS'AAGAGC'
p3277
I15224
sS'TGAGGG'
p3278
I16083
sS'GCTTAG'
p3279
I8115
sS'GCTTAC'
p3280
I5866
sS'GCTTAA'
p3281
I8250
sS'TGATTC'
p3282
I11752
sS'AAGCGC'
p3283
I5585
sS'AAGAGT'
p3284
I12947
sS'AAGCGA'
p3285
I4221
sS'NGCGCC'
p3286
I1
sS'TGAGGT'
p3287
I13631
sS'GCTTAT'
p3288
I7388
sS'GTTCGG'
p3289
I3027
sS'CTGCTA'
p3290
I10232
sS'GCGTGT'
p3291
I4972
sS'CTGCTC'
p3292
I20944
sS'ACTTCT'
p3293
I15256
sS'GACCGT'
p3294
I2690
sS'CTGCTG'
p3295
I29918
sS'CGGTCA'
p3296
I3623
sS'GGTCGT'
p3297
I2361
sS'CGGTCC'
p3298
I5524
sS'CTAGAA'
p3299
I12365
sS'CGGTCG'
p3300
I2717
sS'GACCGA'
p3301
I2970
sS'GACCGC'
p3302
I5046
sS'ACTTCC'
p3303
I18404
sS'CTGCTT'
p3304
I20608
sS'GACCGG'
p3305
I5159
sS'TCGGAA'
p3306
I3699
sS'CTAGAT'
p3307
I7398
sS'AAGTGT'
p3308
I12543
sS'CGGTCT'
p3309
I3999
sS'GGTCGC'
p3310
I4831
sS'GGTCGA'
p3311
I2012
sS'CGTCGC'
p3312
I3933
sS'GCGTGG'
p3313
I9065
sS'GCGTGA'
p3314
I5019
sS'GCGTGC'
p3315
I6415
sS'TGCTCA'
p3316
I15641
sS'TTCATC'
p3317
I12262
sS'TGCTCC'
p3318
I16153
sS'TTCATA'
p3319
I11073
sS'TTCATG'
p3320
I12863
sS'TGCTCG'
p3321
I4124
sS'GTACAA'
p3322
I7224
sS'CAGCAG'
p3323
I29923
sS'GCTTTG'
p3324
I16800
sS'CAGCAC'
p3325
I18300
sS'CAGCAA'
p3326
I18247
sS'GTACAC'
p3327
I5831
sS'TCTGAC'
p3328
I12921
sS'TTCATT'
p3329
I22148
sS'GCTTTA'
p3330
I10636
sS'GCTGCC'
p3331
I24786
sS'GCTGCA'
p3332
I18340
sS'AACTCT'
p3333
I14958
sS'TGGCCC'
p3334
I17743
sS'TGGCCA'
p3335
I20302
sS'GTAGCA'
p3336
I7062
sS'TGCTCT'
p3337
I18879
sS'AGCAAA'
p3338
I22069
sS'TGGCCT'
p3339
I20327
sS'AACTCC'
p3340
I13356
sS'GCTGCT'
p3341
I23005
sS'AACTCG'
p3342
I3291
sS'CAGTCG'
p3343
I3864
sS'TGAAGA'
p3344
I15965
sS'AATATT'
p3345
I22218
sS'CAACCT'
p3346
I11352
sS'CAGTTA'
p3347
I10783
sS'TGGCCG'
p3348
I9198
sS'GGCACG'
p3349
I5846
sS'GGCACA'
p3350
I14662
sS'GACAAT'
p3351
I7227
sS'GGCACC'
p3352
I12455
sS'CAACCG'
p3353
I3497
sS'ACGACC'
p3354
I2361
sS'AATATG'
p3355
I11166
sS'CAACCC'
p3356
I10898
sS'TTAGGA'
p3357
I11262
sS'AATATC'
p3358
I9192
sS'CTTCGT'
p3359
I3514
sS'GACAAA'
p3360
I14568
sS'GGCACT'
p3361
I12948
sS'GACAAC'
p3362
I6890
sS'ACGACA'
p3363
I2509
sS'GACAAG'
p3364
I10420
sS'GCTGCG'
p3365
I12273
sS'GCTTTT'
p3366
I18906
sS'GCAATA'
p3367
I8239
sS'GCAATG'
p3368
I10647
sS'CGATGG'
p3369
I3035
sS'TCCCAT'
p3370
I13111
sS'CGATGC'
p3371
I2463
sS'GTAAAT'
p3372
I13236
sS'CGATGA'
p3373
I2820
sS'GAATTA'
p3374
I10223
sS'GAATTC'
p3375
I11048
sS'GCAATT'
p3376
I9738
sS'GTAAAC'
p3377
I9815
sS'CGATGT'
p3378
I2077
sS'GTAAAA'
p3379
I14624
sS'GTAAAG'
p3380
I9808
sS'TCCCAG'
p3381
I29488
sS'GGATTT'
p3382
I14183
sS'GTGCGT'
p3383
I4077
sS'ACGCCG'
p3384
I4688
sS'GGATTC'
p3385
I9107
sS'GGATTA'
p3386
I8868
sS'GGATTG'
p3387
I8663
sS'AGCGGC'
p3388
I10868
sS'CTATCA'
p3389
I6759
sS'AAAGCC'
p3390
I16733
sS'TCTGTG'
p3391
I22696
sS'TCTGTC'
p3392
I17075
sS'GTCCCG'
p3393
I8324
sS'AACTCA'
p3394
I13643
sS'GGCGGC'
p3395
I24338
sS'CTCCTT'
p3396
I19740
sS'GGCGGA'
p3397
I13060
sS'GGCGGG'
p3398
I33565
sS'AACCGA'
p3399
I3059
sS'CTATCC'
p3400
I5728
sS'TCTGTT'
p3401
I20098
sS'AAAGCG'
p3402
I5423
sS'CTCCTG'
p3403
I26949
sS'AACCGT'
p3404
I2675
sS'CTCCTA'
p3405
I10755
sS'CTCCTC'
p3406
I28159
sS'GGCGGT'
p3407
I8196
sS'AACAAG'
p3408
I14568
sS'CCCACG'
p3409
I8707
sS'CCCACA'
p3410
I17787
sS'CCCACC'
p3411
I22743
sS'ATAGCA'
p3412
I8892
sS'AGCCTT'
p3413
I15114
sS'CCGATT'
p3414
I2648
sS'CCCACT'
p3415
I16069
sS'AACAAT'
p3416
I12721
sS'GACGCT'
p3417
I4717
sS'AAATAC'
p3418
I15942
sS'GTGCGA'
p3419
I2682
sS'CCGATA'
p3420
I1216
sS'AGCCTG'
p3421
I24091
sS'AGCCTA'
p3422
I8251
sS'AGCCTC'
p3423
I19939
sS'GTACCC'
p3424
I4594
sS'GTGCGC'
p3425
I6853
sS'TGGTTA'
p3426
I9656
sS'CGCCTT'
p3427
I6924
sS'AGGCAT'
p3428
I11725
sS'TCNNNN'
p3429
I3
sS'CAGAGT'
p3430
I18448
sS'ACGCCA'
p3431
I4700
sS'GCATCT'
p3432
I9390
sS'ACCTCG'
p3433
I5003
sS'AGGCAC'
p3434
I13955
sS'CGCCTC'
p3435
I15429
sS'GCGCCA'
p3436
I8558
sS'CGCCTA'
p3437
I3226
sS'AGGCAG'
p3438
I28002
sS'CGCCTG'
p3439
I12364
sS'GAGTTA'
p3440
I8366
sS'CAGAGG'
p3441
I27936
sS'GCATCC'
p3442
I8094
sS'GTGCGG'
p3443
I6501
sS'CAGAGC'
p3444
I24476
sS'AAAATT'
p3445
I24611
sS'CAGAGA'
p3446
I26320
sS'AATCAT'
p3447
I13119
sS'TAGCTA'
p3448
I6513
sS'CCGATC'
p3449
I2168
sS'AGACTC'
p3450
I11153
sS'CCTAGA'
p3451
I10202
sS'CCTAGC'
p3452
I8782
sS'TTTGCT'
p3453
I22073
sS'CGGGAG'
p3454
I14824
sS'TGCGGT'
p3455
I4132
sS'CCTAGG'
p3456
I10757
sS'TAAGCA'
p3457
I11200
sS'ACGTTG'
p3458
I3069
sS'GTCTAG'
p3459
I6039
sS'TGCGGC'
p3460
I8098
sS'TTTGCC'
p3461
I16149
sS'CCTAGT'
p3462
I8056
sS'TGCGGG'
p3463
I8378
sS'CCCATA'
p3464
I6441
sS'TGAGTT'
p3465
I13648
sS'TAGCTG'
p3466
I11118
sS'ATCGCT'
p3467
I2931
sS'TAATCT'
p3468
I10048
sS'ATCGCC'
p3469
I2999
sS'TGAGTG'
p3470
I13991
sS'ATCGCA'
p3471
I2116
sS'TGAGTA'
p3472
I9586
sS'ATCGCG'
p3473
I1989
sS'TGAGTC'
p3474
I13924
sS'AAGGTG'
p3475
I13063
sS'AAGGTC'
p3476
I12046
sS'CATCAT'
p3477
I10661
sS'AAGGTA'
p3478
I9475
sS'ATTTCG'
p3479
I2823
sS'AAGCGG'
p3480
I6299
sS'ACGGCA'
p3481
I3702
sS'CATCAC'
p3482
I10534
sS'ACGGCC'
p3483
I5712
sS'CATCAA'
p3484
I8845
sS'CATCAG'
p3485
I12575
sS'ACGGCG'
p3486
I4254
sS'TCACCT'
p3487
I15966
sS'CGGAAT'
p3488
I3080
sS'CAATTC'
p3489
I9974
sS'ATCGAT'
p3490
I1818
sS'TCACCG'
p3491
I5203
sS'TCACCA'
p3492
I14540
sS'TCACCC'
p3493
I13790
sS'CGGAAG'
p3494
I10100
sS'AATATA'
p3495
I13148
sS'AAAATA'
p3496
I32607
sS'CGGAAC'
p3497
I4572
sS'CGGAAA'
p3498
I6496
sS'TAGCTT'
p3499
I9184
sS'TGTGTC'
p3500
I13942
sS'TGTGTA'
p3501
I13370
sS'ATGGCC'
p3502
I9912
sS'ATGGCA'
p3503
I12057
sS'ATCCCT'
p3504
I11153
sS'ATGGCT'
p3505
I11579
sS'TGTGTT'
p3506
I19111
sS'AGATTA'
p3507
I10048
sS'GAAACG'
p3508
I5501
sS'GAAACA'
p3509
I19856
sS'GAAACC'
p3510
I13964
sS'ATGCAT'
p3511
I9137
sS'CTGAGT'
p3512
I16815
sS'AGGTAC'
p3513
I6422
sS'GAAACT'
p3514
I17258
sS'AGAATG'
p3515
I16545
sS'AGAATA'
p3516
I12913
sS'AGAATC'
p3517
I11658
sS'CTGAGC'
p3518
I19967
sS'CTGAGA'
p3519
I19831
sS'CTGAGG'
p3520
I23145
sS'CATACC'
p3521
I5114
sS'CATACA'
p3522
I8748
sS'CATACG'
p3523
I1565
sS'GCAATC'
p3524
I7566
sS'TCAAAT'
p3525
I15297
sS'GTCCAT'
p3526
I7431
sS'ACATAG'
p3527
I8358
sS'CATACT'
p3528
I6872
sS'AATGGC'
p3529
I10927
sS'GTCCAG'
p3530
I14353
sS'TCAAAG'
p3531
I17158
sS'GTCCAC'
p3532
I8794
sS'TCAAAC'
p3533
I11376
sS'CGGCGG'
p3534
I18758
sS'TTGATG'
p3535
I8837
sS'ATCGAG'
p3536
I2075
sS'CGGCGC'
p3537
I14018
sS'TTGATC'
p3538
I7212
sS'CGGCGA'
p3539
I5196
sS'CGTACA'
p3540
I1819
sS'CTATCT'
p3541
I8314
sS'ACCGTA'
p3542
I1818
sS'TTGATT'
p3543
I13759
sS'CGGCGT'
p3544
I4684
sS'GTACGC'
p3545
I1532
sS'ATCGAC'
p3546
I1218
sS'TATAAG'
p3547
I6288
sS'TCGTCT'
p3548
I3108
sS'CGGTTA'
p3549
I2018
sS'GGTTTA'
p3550
I8529
sS'CGGTTC'
p3551
I4092
sS'GCTGTT'
p3552
I15780
sS'TTTACA'
p3553
I17345
sS'CGGTTG'
p3554
I3494
sS'GGTTTG'
p3555
I12147
sS'CCATTG'
p3556
I10282
sS'TTCAGT'
p3557
I17200
sS'GCTGTG'
p3558
I21652
sS'GGTTTT'
p3559
I15906
sS'CGGTTT'
p3560
I4304
sS'GCTGTA'
p3561
I9126
sS'TATGCG'
p3562
I1348
sS'TCTCAA'
p3563
I14323
sS'AGGTTG'
p3564
I11357
sS'AGGTTC'
p3565
I9958
sS'AGGTTA'
p3566
I9742
sS'ATGAAA'
p3567
I21086
sS'ACTCCT'
p3568
I13909
sS'TTTTTC'
p3569
I31019
sS'TCCATC'
p3570
I10609
sS'TTTTTA'
p3571
I31792
sS'TTTTTG'
p3572
I24431
sS'GAGGGG'
p3573
I24820
sS'CGCCCC'
p3574
I26784
sS'AGGTTT'
p3575
I14754
sS'TAAGCG'
p3576
I2286
sS'TATGCC'
p3577
I5807
sS'TTAAAC'
p3578
I12618
sS'ATACGT'
p3579
I2019
sS'TTAAAA'
p3580
I34645
sS'ACTCCG'
p3581
I5395
sS'TTAAAG'
p3582
I16360
sS'ACTCCA'
p3583
I15067
sS'TTTTTT'
p3584
I77239
sS'ACTCCC'
p3585
I13464
sS'TAGGCT'
p3586
I8252
sS'GTCACG'
p3587
I5172
sS'CTGTAC'
p3588
I8109
sS'GCAACT'
p3589
I9735
sS'GTCACC'
p3590
I12335
sS'CTGTAG'
p3591
I10786
sS'GTCACA'
p3592
I14028
sS'ACTTAT'
p3593
I7775
sS'ACCTAC'
p3594
I6754
sS'GCAACG'
p3595
I3594
sS'GTCACT'
p3596
I13949
sS'TAGGCG'
p3597
I3227
sS'ACGAAA'
p3598
I3596
sS'TAGGCA'
p3599
I9670
sS'GCAACA'
p3600
I12357
sS'TAGGCC'
p3601
I7236
sS'ATTCAT'
p3602
I14118
sS'TCCCAC'
p3603
I16367
sS'GCGATT'
p3604
I2673
sS'TCGTGT'
p3605
I2971
sS'TTCACT'
p3606
I15940
sS'ACAGAT'
p3607
I13812
sS'GTCTCT'
p3608
I15320
sS'AACATT'
p3609
I18608
sS'ATTCAG'
p3610
I14874
sS'ATATTA'
p3611
I11429
sS'ATTCAA'
p3612
I13107
sS'ATTCAC'
p3613
I10398
sS'GTCTCC'
p3614
I14244
sS'TCGTGG'
p3615
I4143
sS'GCGATG'
p3616
I3303
sS'GTCTCG'
p3617
I4351
sS'GCGATA'
p3618
I1423
sS'TCGTGC'
p3619
I2899
sS'GCGATC'
p3620
I2629
sS'GAAGGC'
p3621
I15792
sS'GAAGGA'
p3622
I20071
sS'GAAGGG'
p3623
I20569
sS'CGATTA'
p3624
I1557
sS'CAATCT'
p3625
I9579
sS'AGACTT'
p3626
I12258
sS'GGAACA'
p3627
I13954
sS'GGAACG'
p3628
I4992
sS'TGACGA'
p3629
I2632
sS'TACTGC'
p3630
I8519
sS'CGATTT'
p3631
I3052
sS'GAAGGT'
p3632
I11484
sS'CAATCG'
p3633
I2542
sS'CAATCA'
p3634
I11492
sS'CAATCC'
p3635
I8664
sS'TCCTGA'
p3636
I18209
sS'AGTCCA'
p3637
I13927
sS'TCCTGC'
p3638
I22125
sS'AGTCCC'
p3639
I13728
sS'ACTAAA'
p3640
I12008
sS'TCCTGG'
p3641
I27541
sS'ACTAAC'
p3642
I6009
sS'TAACGC'
p3643
I2026
sS'TAACGA'
p3644
I1895
sS'CAGCTA'
p3645
I11110
sS'CAGCTC'
p3646
I22653
sS'ACTAAT'
p3647
I7676
sS'AGTCCT'
p3648
I13925
sS'TCCTGT'
p3649
I19145
sS'TAATGT'
p3650
I10772
sS'CAGCTT'
p3651
I18460
sS'TAACGT'
p3652
I2398
sS'ACGGAC'
p3653
I2915
sS'GTACTT'
p3654
I8473
sS'CGACAT'
p3655
I1935
sS'TTGTTC'
p3656
I13066
sS'CCGAGG'
p3657
I11160
sS'TTGTTG'
p3658
I13408
sS'AGGAAG'
p3659
I31698
sS'CCGAGC'
p3660
I8987
sS'CCGCGT'
p3661
I4770
sS'CGACAC'
p3662
I2850
sS'CGACAA'
p3663
I2067
sS'CGACAG'
p3664
I4433
sS'GTACTA'
p3665
I4373
sS'CCGCGC'
p3666
I16469
sS'CCGAGT'
p3667
I5096
sS'CCGCGA'
p3668
I5253
sS'TACGCA'
p3669
I2211
sS'CCGCGG'
p3670
I15074
sS'TTGTTT'
p3671
I29890
sS'GCATAT'
p3672
I6399
sS'TCCGTT'
p3673
I3842
sS'AGCCAA'
p3674
I18160
sS'AATAAC'
p3675
I10972
sS'AATAAA'
p3676
I31702
sS'AATAAG'
p3677
I12376
sS'CATTCC'
p3678
I14749
sS'TACAAT'
p3679
I8720
sS'AATAAT'
p3680
I18158
sS'ACGGTG'
p3681
I4484
sS'CCAACC'
p3682
I11681
sS'CCAACA'
p3683
I12682
sS'TTATGC'
p3684
I7086
sS'CCAACG'
p3685
I3693
sS'CGCCGC'
p3686
I21435
sS'AGTAAA'
p3687
I16695
sS'CGCCGA'
p3688
I4934
sS'GAGTAG'
p3689
I7858
sS'CGCCGG'
p3690
I12060
sS'GAGTAA'
p3691
I9532
sS'GAGTAC'
p3692
I4849
sS'CTCAGG'
p3693
I21359
sS'CTAAAA'
p3694
I16060
sS'CTCAGC'
p3695
I22368
sS'CCAACT'
p3696
I11632
sS'GAGTAT'
p3697
I5842
sS'TCGAGA'
p3698
I2837
sS'GTGTAG'
p3699
I6594
sS'TCGAGC'
p3700
I2793
sS'GTGTAA'
p3701
I8938
sS'GTGTAC'
p3702
I5833
sS'CGCCGT'
p3703
I4254
sS'GTGGCA'
p3704
I14656
sS'CTCGGG'
p3705
I9886
sS'CTCGGA'
p3706
I5771
sS'CTCGGC'
p3707
I11112
sS'GCCGCC'
p3708
I24349
sS'GCCGCA'
p3709
I8107
sS'GCCGCG'
p3710
I15681
sS'ACACTT'
p3711
I12542
sS'CTCGGT'
p3712
I4852
sS'AGATAT'
p3713
I9070
sS'GTGGCT'
p3714
I18112
sS'CATATA'
p3715
I7543
sS'GTCAGC'
p3716
I12585
sS'TACTAC'
p3717
I4923
sS'ACACTC'
p3718
I10228
sS'ACACTA'
p3719
I7461
sS'ACACTG'
p3720
I16515
sS'GCCGCT'
p3721
I10873
sS'ACCGGA'
p3722
I4341
sS'AAATAA'
p3723
I32929
sS'ACCGGC'
p3724
I5327
sS'GTCAGA'
p3725
I12918
sS'CTTTAA'
p3726
I16366
sS'ACCGGG'
p3727
I5800
sS'AAATAG'
p3728
I16660
sS'CACGAG'
p3729
I4409
sS'CAGGTA'
p3730
I9872
sS'AACTTC'
p3731
I13517
sS'CAGGTC'
p3732
I13509
sS'CACGAC'
p3733
I2746
sS'AACTTG'
p3734
I12862
sS'CAGGTG'
p3735
I18339
sS'CTTTAT'
p3736
I14543
sS'AATCCC'
p3737
I11946
sS'AATCCA'
p3738
I12798
sS'AAATAT'
p3739
I25388
sS'AATCCG'
p3740
I2918
sS'GCAAGT'
p3741
I10088
sS'CAGGTT'
p3742
I13658
sS'AACTTT'
p3743
I18842
sS'GGCGGN'
p3744
I1
sS'GGGATA'
p3745
I6396
sS'GGGATC'
p3746
I7910
sS'GGGTGT'
p3747
I11287
sS'GGGATG'
p3748
I12142
sS'GATGCT'
p3749
I8713
sS'CGCAGT'
p3750
I5734
sS'TCTGTA'
p3751
I13274
sS'GAGCCT'
p3752
I15789
sS'GGAGAC'
p3753
I14246
sS'AACCGG'
p3754
I4038
sS'GGAGAA'
p3755
I21819
sS'GGGTGC'
p3756
I11446
sS'GGAGAG'
p3757
I25559
sS'AATCAA'
p3758
I13756
sS'GGGTGG'
p3759
I22974
sS'GAGCCA'
p3760
I19653
sS'CGCAGG'
p3761
I11505
sS'GATGCG'
p3762
I2691
sS'CGCAGA'
p3763
I6778
sS'GATGCA'
p3764
I8418
sS'CGCAGC'
p3765
I12269
sS'GATGCC'
p3766
I8351
sS'CGGATT'
p3767
I2921
sS'GGTAGT'
p3768
I5389
sS'ACCCCT'
p3769
I11884
sS'GCCAAT'
p3770
I10860
sS'AACCGC'
p3771
I4154
sS'AGAAGT'
p3772
I15243
sS'GCCAAC'
p3773
I10130
sS'GGTAGA'
p3774
I7885
sS'ACCCCC'
p3775
I11771
sS'CGGATG'
p3776
I3575
sS'GCCAAG'
p3777
I17861
sS'CGGATA'
p3778
I1590
sS'ACCCCG'
p3779
I8109
sS'CGGATC'
p3780
I3268
sS'AGAAGA'
p3781
I20525
sS'AGAAGC'
p3782
I17294
sS'GCAAGA'
p3783
I12694
sS'AGAAGG'
p3784
I20650
sS'CACTCC'
p3785
I15421
sS'CACTCA'
p3786
I13991
sS'CACTCG'
p3787
I4249
sS'TGCGTT'
p3788
I3537
sS'TCAGCT'
p3789
I18002
sS'AGCTTT'
p3790
I17258
sS'CCCCGG'
p3791
I15716
sS'TGCGTA'
p3792
I2210
sS'TGCGTG'
p3793
I5807
sS'CACTCT'
p3794
I14658
sS'AGCTTC'
p3795
I15031
sS'GAGCCC'
p3796
I17880
sS'AGCTTA'
p3797
I8269
sS'AGCTTG'
p3798
I12407
sS'ATACGA'
p3799
I1393
sS'AGACCA'
p3800
I11514
sS'CAAGAG'
p3801
I15754
sS'TTAGCT'
p3802
I10071
sS'GTATAA'
p3803
I6142
sS'TTAGCC'
p3804
I7810
sS'TTAGCA'
p3805
I10737
sS'GACCAT'
p3806
I6108
sS'TTAGCG'
p3807
I2258
sS'CTTCAT'
p3808
I13696
sS'AACTTA'
p3809
I9216
sS'AAGGGG'
p3810
I16538
sS'ATAAGG'
p3811
I8080
sS'TGTGCT'
p3812
I16662
sS'AAGGGC'
p3813
I15686
sS'ATAAGC'
p3814
I7387
sS'AAGGGA'
p3815
I19992
sS'ATAAGA'
p3816
I9890
sS'CCAGAC'
p3817
I13841
sS'CCAGAA'
p3818
I21199
sS'CCAGAG'
p3819
I25967
sS'TGTGCG'
p3820
I4989
sS'CTACCT'
p3821
I9369
sS'ATAAGT'
p3822
I7782
sS'AAGGGT'
p3823
I10666
sS'TGTGCC'
p3824
I14664
sS'ATAGGA'
p3825
I8642
sS'TGTGCA'
p3826
I14906
sS'ATAGGC'
p3827
I5767
sS'GCTCGC'
p3828
I7657
sS'TAAGTT'
p3829
I9216
sS'TTTGCG'
p3830
I3674
sS'CCAGAT'
p3831
I12977
sS'AGACAA'
p3832
I13668
sS'GACGCA'
p3833
I4435
sS'CGTGGT'
p3834
I4988
sS'AGACAG'
p3835
I19516
sS'TTTTCT'
p3836
I37668
sS'CGCTGT'
p3837
I6375
sS'GACGCC'
p3838
I6454
sS'TCAAGA'
p3839
I10747
sS'CGTGGG'
p3840
I8696
sS'CTATAG'
p3841
I4494
sS'CGTGGC'
p3842
I8464
sS'CGTGGA'
p3843
I5532
sS'TTTTCG'
p3844
I3601
sS'AACAAC'
p3845
I11485
sS'CGCTGC'
p3846
I12190
sS'TTTTCC'
p3847
I28267
sS'TTTTCA'
p3848
I25496
sS'CGCTGG'
p3849
I10766
sS'TATGGA'
p3850
I7098
sS'TATGGC'
p3851
I5599
sS'CGTAGG'
p3852
I2795
sS'ATCGTC'
p3853
I1690
sS'AACAAA'
p3854
I29456
sS'TATGGG'
p3855
I6443
sS'CGTAGC'
p3856
I2678
sS'TACCGT'
p3857
I1930
sS'TGGACT'
p3858
I13915
sS'CGTAGT'
p3859
I2182
sS'TATGGT'
p3860
I6020
sS'TGGACA'
p3861
I13221
sS'TGGACC'
p3862
I8414
sS'TGGACG'
p3863
I4130
sS'CCGGTT'
p3864
I4041
sS'GACCAA'
p3865
I8876
sS'GCTTGA'
p3866
I8939
sS'TGAGAC'
p3867
I11478
sS'GCTTGC'
p3868
I10371
sS'TGAGAA'
p3869
I20242
sS'TGAGAG'
p3870
I16781
sS'GCTTGG'
p3871
I13961
sS'CCTGTT'
p3872
I16246
sS'CCGGTG'
p3873
I6143
sS'CCTTGC'
p3874
I13322
sS'CCGGTA'
p3875
I2346
sS'CCTGTC'
p3876
I16030
sS'CCTGTA'
p3877
I11139
sS'CCTGTG'
p3878
I20761
sS'GCTTGT'
p3879
I10175
sS'TGAGAT'
p3880
I12718
sS'ATCGTA'
p3881
I1340
sS'GGTTGT'
p3882
I8641
sS'AGGGAT'
p3883
I11155
sS'TATCAG'
p3884
I8602
sS'TATTGC'
p3885
I8229
sS'AATTCN'
p3886
I2
sS'AATTCA'
p3887
I15260
sS'GGTTGG'
p3888
I11675
sS'CTGAAT'
p3889
I14887
sS'GGTTGA'
p3890
I7669
sS'TTCACG'
p3891
I3768
sS'GGTTGC'
p3892
I9158
sS'CGGTAG'
p3893
I2837
sS'TCCCGC'
p3894
I13275
sS'TCCCGA'
p3895
I5280
sS'TCCCGG'
p3896
I13136
sS'GTAACC'
p3897
I6074
sS'CGTTTT'
p3898
I5834
sS'ATTCTC'
p3899
I13179
sS'CTATAC'
p3900
I3608
sS'ATTCTA'
p3901
I11268
sS'ATTCTG'
p3902
I16785
sS'TCATTT'
p3903
I25035
sS'CAGCGA'
p3904
I6128
sS'CAGCGC'
p3905
I11886
sS'TATACT'
p3906
I6434
sS'TGCTAG'
p3907
I8230
sS'TCCCGT'
p3908
I5033
sS'AGGATC'
p3909
I8610
sS'TCATTC'
p3910
I15150
sS'TCATTA'
p3911
I12153
sS'TCATTG'
p3912
I12331
sS'ATTCTT'
p3913
I16462
sS'CGTTTC'
p3914
I5498
sS'TGGCAA'
p3915
I15457
sS'TGGCAC'
p3916
I13423
sS'TGGCAG'
p3917
I23752
sS'GCTGAG'
p3918
I22387
sS'ACAATC'
p3919
I7599
sS'GCTGAC'
p3920
I12594
sS'TGGCAT'
p3921
I12533
sS'GGCCGG'
p3922
I18179
sS'GTTCAA'
p3923
I10418
sS'NNGATC'
p3924
I1
sS'CCGATG'
p3925
I2500
sS'GGCCGC'
p3926
I18238
sS'GAACTT'
p3927
I12865
sS'GGCCGA'
p3928
I7836
sS'GGCAAT'
p3929
I8987
sS'CTATAA'
p3930
I7770
sS'CTGATT'
p3931
I14799
sS'CCATCG'
p3932
I3032
sS'CTAAAT'
p3933
I11864
sS'CCATCC'
p3934
I12253
sS'CCATCA'
p3935
I10106
sS'CTGATC'
p3936
I8564
sS'CTGATA'
p3937
I8599
sS'GTACCA'
p3938
I5141
sS'CTGATG'
p3939
I12570
sS'GGCAAA'
p3940
I16165
sS'CTAAAG'
p3941
I10855
sS'CCATCT'
p3942
I14891
sS'CTAAAC'
p3943
I8444
sS'ACGAAT'
p3944
I2264
sS'GACACC'
p3945
I9200
sS'GACACA'
p3946
I13933
sS'GACACG'
p3947
I4246
sS'CTACAC'
p3948
I6590
sS'CCAAGA'
p3949
I14948
sS'TGGTTC'
p3950
I10690
sS'AATTCT'
p3951
I16595
sS'TACGAG'
p3952
I1682
sS'TACGAC'
p3953
I1243
sS'GACACT'
p3954
I10264
sS'GGCGAT'
p3955
I2999
sS'AGTCCG'
p3956
I4266
sS'ACGCTG'
p3957
I6136
sS'CTATTA'
p3958
I8079
sS'ACGCTC'
p3959
I4239
sS'TCGATG'
p3960
I2046
sS'TCGATA'
p3961
I1227
sS'TCGATC'
p3962
I1579
sS'CTATTT'
p3963
I16648
sS'CGCGAA'
p3964
I2481
sS'GCATTG'
p3965
I8502
sS'CAGCCT'
p3966
I28175
sS'TCGATT'
p3967
I2331
sS'CTACCG'
p3968
I2839
sS'GCGCCC'
p3969
I15940
sS'TTTTGA'
p3970
I19648
sS'AACCAA'
p3971
I13776
sS'TGCCGG'
p3972
I7546
sS'AACCAC'
p3973
I11798
sS'TGCCGC'
p3974
I8104
sS'AACCAG'
p3975
I14931
sS'TGCCGA'
p3976
I3550
sS'TTGGAC'
p3977
I9108
sS'TCGGGC'
p3978
I6332
sS'CGCGAG'
p3979
I6695
sS'ATGATC'
p3980
I6845
sS'GCGCCG'
p3981
I14027
sS'TGCCGT'
p3982
I3701
sS'AACCAT'
p3983
I9346
sS'CTGTTC'
p3984
I14528
sS'AACAGA'
p3985
I20088
sS'ACGTCG'
p3986
I1664
sS'AACAGC'
p3987
I15782
sS'ACGTCC'
p3988
I3848
sS'AACAGG'
p3989
I16249
sS'ACGTCA'
p3990
I5182
sS'CCCAAG'
p3991
I16270
sS'TTGGAG'
p3992
I15371
sS'GACGAA'
p3993
I2667
sS'CCCAAC'
p3994
I11735
sS'CCCAAA'
p3995
I18182
sS'CAATAT'
p3996
I9424
sS'GGGAGG'
p3997
I40590
sS'GGGAGA'
p3998
I22810
sS'AACAGT'
p3999
I13864
sS'GGGAGC'
p4000
I20976
sS'ACGAAG'
p4001
I3526
sS'CCCAAT'
p4002
I8548
sS'GACGAT'
p4003
I1689
sS'GGGCGC'
p4004
I15919
sS'GGGCGA'
p4005
I7532
sS'GCATCA'
p4006
I8238
sS'GGGCGG'
p4007
I33107
sS'TCTCTT'
p4008
I22153
sS'GTACAG'
p4009
I8112
sS'CGTTAA'
p4010
I2221
sS'CAGAAT'
p4011
I16778
sS'ACGACT'
p4012
I2395
sS'TCTCTC'
p4013
I25052
sS'TCTCTA'
p4014
I12739
sS'TCTCTG'
p4015
I26327
sS'GGGCGT'
p4016
I7513
sS'CAGAAA'
p4017
I28667
sS'CAGAAC'
p4018
I14816
sS'ACGACG'
p4019
I1569
sS'CAGAAG'
p4020
I22271
sS'CACTTT'
p4021
I18362
sS'CATATT'
p4022
I11172
sS'CCTAAT'
p4023
I7949
sS'TCTATA'
p4024
I6709
sS'CACTTG'
p4025
I12462
sS'CCTAAC'
p4026
I7490
sS'CCTAAA'
p4027
I11046
sS'CACTTC'
p4028
I15984
sS'CCTAAG'
p4029
I8862
sS'CACTTA'
p4030
I10043
sS'GCGGAT'
p4031
I3280
sS'AATCCT'
p4032
I13094
sS'CTGCGG'
p4033
I12289
sS'AAGATT'
p4034
I12574
sS'CTCATG'
p4035
I11827
sS'GACTCG'
p4036
I4303
sS'CTCATC'
p4037
I11551
sS'GACTCC'
p4038
I11925
sS'CTCATA'
p4039
I7867
sS'GACTCA'
p4040
I13923
sS'AAGATA'
p4041
I11040
sS'AAGATC'
p4042
I8598
sS'AAGATG'
p4043
I13187
sS'GACTCT'
p4044
I12255
sS'CTCATT'
p4045
I16844
sS'ATCGAA'
p4046
I2059
sS'AACTAC'
p4047
I7730
sS'ATATTT'
p4048
I25395
sS'ACGGTA'
p4049
I1931
sS'AACTAA'
p4050
I10678
sS'ATAGTT'
p4051
I8849
sS'TACTGT'
p4052
I10241
sS'ATATTC'
p4053
I9499
sS'ACGGTC'
p4054
I2691
sS'ATATTG'
p4055
I9427
sS'ATAGTA'
p4056
I6943
sS'TACTGA'
p4057
I10597
sS'TACTGG'
p4058
I9003
sS'ATAGTG'
p4059
I6989
sS'ATAGAC'
p4060
I5248
sS'CAGGCA'
p4061
I23962
sS'ACGGAA'
p4062
I4614
sS'CATCCG'
p4063
I3572
sS'AGGAAA'
p4064
I34220
sS'CATCCA'
p4065
I11418
sS'CAGGCG'
p4066
I12368
sS'CATCCC'
p4067
I12140
sS'TTATGA'
p4068
I10059
sS'CAAGCT'
p4069
I12405
sS'CGGAGT'
p4070
I5392
sS'TTATGG'
p4071
I7299
sS'CATCCT'
p4072
I13205
sS'AGGAAT'
p4073
I15844
sS'CAGGCT'
p4074
I24098
sS'ACGGAT'
p4075
I2249
sS'CGGAGA'
p4076
I7536
sS'CGGAGC'
p4077
I12201
sS'TTATGT'
p4078
I11537
sS'CAGGCC'
p4079
I24584
sS'CGGAGG'
p4080
I12645
sS'ATGGAA'
p4081
I15550
sS'ATGGAC'
p4082
I7436
sS'ATGGAG'
p4083
I13399
sS'CGCTTG'
p4084
I4632
sS'CGCTTA'
p4085
I2285
sS'CGCTTC'
p4086
I7206
sS'TGAACA'
p4087
I13435
sS'ATGGAT'
p4088
I8357
sS'TTTGCA'
p4089
I19417
sS'CGCTTT'
p4090
I5416
sS'CAAGCC'
p4091
I13016
sS'TGCGGA'
p4092
I4940
sS'GAAAAG'
p4093
I23820
sS'GAAAAC'
p4094
I18738
sS'ATAGAT'
p4095
I7844
sS'GAAAAA'
p4096
I31039
sS'GTTCCT'
p4097
I14008
sS'TAAGTA'
p4098
I9175
sS'ACGGTT'
p4099
I2675
sS'GAAAAT'
p4100
I21548
sS'ACAAGG'
p4101
I12780
sS'ACAAGA'
p4102
I12680
sS'ACAAGC'
p4103
I10182
sS'ACACGT'
p4104
I4450
sS'CTGCGT'
p4105
I6197
sS'GCGGAG'
p4106
I15187
sS'CATAAG'
p4107
I6920
sS'GCGGAA'
p4108
I7001
sS'CATAAA'
p4109
I13506
sS'GCGGAC'
p4110
I5643
sS'CATAAC'
p4111
I6312
sS'ACACGC'
p4112
I4971
sS'ACAAGT'
p4113
I10444
sS'ACACGA'
p4114
I2975
sS'ACACGG'
p4115
I4680
sS'CATAAT'
p4116
I9268
sS'GTCCCA'
p4117
I12667
sS'GTCCCC'
p4118
I13934
sS'CTGCGA'
p4119
I5098
sS'CTGCGC'
p4120
I12717
sS'CGGCAA'
p4121
I3835
sS'CGGCAC'
p4122
I5101
sS'CGGCAG'
p4123
I10996
sS'GACGCG'
p4124
I4936
sS'CCTCCT'
p4125
I30295
sS'ATCAAA'
p4126
I13515
sS'NNNGAA'
p4127
I2
sS'CGGCAT'
p4128
I2979
sS'CCTCCC'
p4129
I40596
sS'CCTCCA'
p4130
I21502
sS'CACGCC'
p4131
I9427
sS'CCTCCG'
p4132
I12651
sS'CGTGAT'
p4133
I3193
s.