(dp0
S'AAAAAC'
p1
I11399
sS'GAACGT'
p2
I1523
sS'CTTCTT'
p3
I9326
sS'CACCCT'
p4
I7902
sS'ATTGAA'
p5
I5697
sS'GAACGG'
p6
I1987
sS'GAACGC'
p7
I2079
sS'GAACGA'
p8
I1439
sS'CACCCA'
p9
I8815
sS'CTTCTA'
p10
I5483
sS'CACCCC'
p11
I9303
sS'CTTCTC'
p12
I10692
sS'CACCCG'
p13
I3800
sS'CTTCTG'
p14
I11099
sS'CGTGTG'
p15
I3049
sS'TAAGGT'
p16
I3550
sS'CGTGTC'
p17
I2100
sS'CGTGTA'
p18
I1184
sS'AGGCAA'
p19
I8113
sS'GGAAAT'
p20
I10410
sS'TAAGGG'
p21
I4092
sS'CGTGTT'
p22
I2122
sS'TAAGGC'
p23
I3739
sS'TAAGGA'
p24
I5226
sS'ACCACG'
p25
I2526
sS'GTCAAC'
p26
I3212
sS'GTCAAG'
p27
I4174
sS'CTGTCC'
p28
I8970
sS'TCAGAG'
p29
I10493
sS'CTGTCA'
p30
I7795
sS'CTGTCG'
p31
I2183
sS'TCAGAC'
p32
I5539
sS'TCAGAA'
p33
I9960
sS'GTCAAT'
p34
I3618
sS'GTATCA'
p35
I2796
sS'TCAGAT'
p36
I6353
sS'GTATCG'
p37
I573
sS'CTGTCT'
p38
I9860
sS'GGTGTC'
p39
I4625
sS'GGTGTA'
p40
I2697
sS'GGTGTG'
p41
I6662
sS'TATCCT'
p42
I4137
sS'CCGGGG'
p43
I7843
sS'TTCTGT'
p44
I11406
sS'ATTCCT'
p45
I7957
sS'CCGGGC'
p46
I9083
sS'CCGGGA'
p47
I6692
sS'TATCCA'
p48
I3942
sS'TATCCC'
p49
I3184
sS'TGGTTG'
p50
I5612
sS'TATCCG'
p51
I817
sS'GGTGTT'
p52
I5006
sS'ATTCCG'
p53
I1501
sS'TTCTGG'
p54
I10575
sS'CCGGGT'
p55
I3959
sS'ATTCCC'
p56
I6121
sS'TTCTGC'
p57
I9132
sS'ATTCCA'
p58
I8348
sS'TTCTGA'
p59
I9977
sS'CTTGGA'
p60
I7259
sS'GGNCCG'
p61
I1
sS'TATCTT'
p62
I5463
sS'CGCGGT'
p63
I2546
sS'CCCGCG'
p64
I6985
sS'ACGAAC'
p65
I1087
sS'CGCGGG'
p66
I6980
sS'NCCGCC'
p67
I1
sS'CGCGGC'
p68
I8012
sS'CGCGGA'
p69
I3295
sS'ACCTGT'
p70
I5794
sS'ATACTA'
p71
I3015
sS'TCATGT'
p72
I5829
sS'CTCCGA'
p73
I2757
sS'TTACAG'
p74
I7530
sS'CTCCGC'
p75
I7724
sS'TTACAA'
p76
I6780
sS'TTACAC'
p77
I4439
sS'CTCCGG'
p78
I5669
sS'TCATGC'
p79
I4760
sS'ACCTGG'
p80
I8837
sS'TCATGA'
p81
I5490
sS'GTAAGC'
p82
I2908
sS'TCATGG'
p83
I5469
sS'ACCTGC'
p84
I7141
sS'ACCTGA'
p85
I5944
sS'TTACAT'
p86
I6221
sS'CTCGAT'
p87
I1049
sS'CTCCGT'
p88
I2967
sS'GCCTGA'
p89
I7930
sS'GCCTGC'
p90
I10690
sS'GCCTGG'
p91
I15809
sS'TAAAGG'
p92
I6366
sS'CAAATT'
p93
I7601
sS'TAAAGA'
p94
I7675
sS'GCATAA'
p95
I3525
sS'TAAAGC'
p96
I5256
sS'GCCTGT'
p97
I8396
sS'CGTCAA'
p98
I1106
sS'TAAAGT'
p99
I6558
sS'CAAATA'
p100
I9076
sS'CAAATC'
p101
I5973
sS'CGTGCT'
p102
I2490
sS'CAAATG'
p103
I8701
sS'AATACT'
p104
I5714
sS'TATCTC'
p105
I4541
sS'GGCATG'
p106
I5652
sS'GGCATA'
p107
I2867
sS'GGCATC'
p108
I4217
sS'AATACG'
p109
I1127
sS'AATACA'
p110
I7152
sS'AATACC'
p111
I3788
sS'GGCATT'
p112
I5638
sS'CGTCAG'
p113
I2536
sS'TGCACA'
p114
I7336
sS'GAGCAC'
p115
I5384
sS'GAGCAA'
p116
I7161
sS'CATATC'
p117
I2888
sS'GAGCAG'
p118
I10418
sS'AGTAGT'
p119
I3597
sS'TCTCGC'
p120
I3028
sS'TCTCGA'
p121
I1406
sS'TCTCGG'
p122
I3174
sS'ACTGAG'
p123
I8394
sS'CCTACT'
p124
I4609
sS'ATACAA'
p125
I5310
sS'AGTAGG'
p126
I4516
sS'GAGCAT'
p127
I4261
sS'TTGAAC'
p128
I5242
sS'TCTCGT'
p129
I1598
sS'GTGTCG'
p130
I1458
sS'TCGAAC'
p131
I1011
sS'TCGAAA'
p132
I1342
sS'GTGTCC'
p133
I5786
sS'TCGAAG'
p134
I1327
sS'GTGTCA'
p135
I5498
sS'CTTGCT'
p136
I7969
sS'AGACAC'
p137
I6238
sS'TCGGTC'
p138
I1482
sS'CCACAA'
p139
I6352
sS'GTGTCT'
p140
I6151
sS'TTGAAG'
p141
I6204
sS'TCGAAT'
p142
I1103
sS'CTTGCG'
p143
I2081
sS'CTTGCA'
p144
I6073
sS'CTTGCC'
p145
I7110
sS'CGAAAG'
p146
I2176
sS'CGAAAA'
p147
I1785
sS'CGAAAC'
p148
I1563
sS'CACGGA'
p149
I2567
sS'ACAGTG'
p150
I8384
sS'CACGGC'
p151
I3362
sS'AAATGA'
p152
I12481
sS'ACAGTC'
p153
I5410
sS'CACGGG'
p154
I3099
sS'ACAGTA'
p155
I5114
sS'ATAGTA'
p156
I3521
sS'CGAAAT'
p157
I1457
sS'ACAGTT'
p158
I6815
sS'AATCAG'
p159
I7351
sS'CACGGT'
p160
I2154
sS'AAATGT'
p161
I11894
sS'AATCAC'
p162
I5769
sS'TTTGTA'
p163
I8278
sS'TCTAGT'
p164
I4540
sS'TTGCCG'
p165
I1930
sS'TTGCCA'
p166
I7613
sS'GGGTAT'
p167
I2369
sS'TTGCCT'
p168
I8006
sS'TCTAGG'
p169
I5119
sS'ATACGC'
p170
I707
sS'TCTAGA'
p171
I5044
sS'GGGTAG'
p172
I4097
sS'TCTAGC'
p173
I3862
sS'ATACGG'
p174
I852
sS'TGACTA'
p175
I3952
sS'ATACAT'
p176
I4890
sS'GTCAAA'
p177
I5430
sS'AGATGT'
p178
I5650
sS'TCGCCC'
p179
I3740
sS'TCGCCA'
p180
I2193
sS'ATAGTC'
p181
I2657
sS'TCGCCG'
p182
I2652
sS'GGTAAT'
p183
I3437
sS'ACCCAT'
p184
I3984
sS'GTGTAT'
p185
I3927
sS'ACCCAC'
p186
I6111
sS'GGTAAC'
p187
I3081
sS'ACCCAA'
p188
I5523
sS'GGTAAA'
p189
I5503
sS'ACCCAG'
p190
I10118
sS'GGTAAG'
p191
I3805
sS'TCGCCT'
p192
I2770
sS'AGATGC'
p193
I4677
sS'CCCCAT'
p194
I6175
sS'TTGGGT'
p195
I5464
sS'CACTAG'
p196
I4299
sS'CACTAA'
p197
I4218
sS'CACTAC'
p198
I3026
sS'CCCCAA'
p199
I7881
sS'CCCCAC'
p200
I11120
sS'CCCCAG'
p201
I14168
sS'CACTAT'
p202
I3542
sS'TTGGGG'
p203
I7669
sS'CCGTCC'
p204
I3529
sS'TTGGGA'
p205
I8166
sS'TTGGGC'
p206
I5938
sS'ATAAAA'
p207
I12961
sS'TGCCTG'
p208
I12155
sS'TGCAGA'
p209
I9201
sS'TTTCTG'
p210
I14217
sS'TGCAGC'
p211
I9159
sS'TGCCTC'
p212
I9236
sS'TTTCTC'
p213
I13776
sS'TGCAGG'
p214
I9692
sS'TTTCCG'
p215
I3303
sS'GTATCT'
p216
I3529
sS'TTTCTT'
p217
I17412
sS'TGCCTT'
p218
I8754
sS'TGCAGT'
p219
I8276
sS'ACGATG'
p220
I1305
sS'TAGTGC'
p221
I3021
sS'AAGGAA'
p222
I13314
sS'AAGGAC'
p223
I5909
sS'AAGGAG'
p224
I9958
sS'ATATGC'
p225
I3161
sS'ATATGA'
p226
I4344
sS'ATATGG'
p227
I3335
sS'GATGGA'
p228
I5276
sS'AAGGAT'
p229
I5426
sS'CTATCA'
p230
I3461
sS'ATATGT'
p231
I5030
sS'GGTCCC'
p232
I6242
sS'GCCCAG'
p233
I15018
sS'GGTCCA'
p234
I4253
sS'GCCCAA'
p235
I5979
sS'GGTCCG'
p236
I2474
sS'GCCCAC'
p237
I7099
sS'TGTGTC'
p238
I7041
sS'AGACCC'
p239
I5334
sS'ATTGTT'
p240
I6311
sS'AGACCG'
p241
I2017
sS'CTTCGC'
p242
I2593
sS'CTTAGT'
p243
I4166
sS'TCCGGG'
p244
I5393
sS'AGGTCA'
p245
I8952
sS'AAAGTT'
p246
I9482
sS'TCCGGC'
p247
I4388
sS'GGTCCT'
p248
I5267
sS'TCCGGA'
p249
I2973
sS'CTTAGC'
p250
I4158
sS'ATTGTG'
p251
I5993
sS'CTTAGA'
p252
I4816
sS'CCACTC'
p253
I7243
sS'CTTAGG'
p254
I4385
sS'GTATCC'
p255
I2260
sS'AGACCT'
p256
I5774
sS'GCCTTT'
p257
I8442
sS'ATTTTG'
p258
I10166
sS'GAGGTG'
p259
I8655
sS'ATTTTA'
p260
I13120
sS'GAGGTA'
p261
I4064
sS'ATTTTC'
p262
I10831
sS'GAGGTC'
p263
I6151
sS'TAGCAG'
p264
I5119
sS'GATACT'
p265
I2941
sS'TAGCAC'
p266
I3504
sS'TAGCAA'
p267
I5065
sS'TAAATA'
p268
I10947
sS'ATTTTT'
p269
I17480
sS'GCCTTG'
p270
I7347
sS'GTGGGG'
p271
I11068
sS'GCCTTA'
p272
I3710
sS'TTGACA'
p273
I5346
sS'GCCTTC'
p274
I7807
sS'GATACG'
p275
I760
sS'TAGCAT'
p276
I3674
sS'GATACC'
p277
I2043
sS'GATACA'
p278
I3402
sS'TGAGCT'
p279
I8043
sS'GATCAT'
p280
I3348
sS'AAGACA'
p281
I7663
sS'AAGACC'
p282
I4667
sS'ACAATG'
p283
I5763
sS'AAGACG'
p284
I1885
sS'GATCAG'
p285
I4294
sS'TGAGCG'
p286
I2777
sS'CTCGAG'
p287
I2154
sS'TGAGCA'
p288
I7760
sS'TGAGCC'
p289
I8377
sS'AAGACT'
p290
I5899
sS'GCGGTC'
p291
I2446
sS'GCGGTA'
p292
I1265
sS'CGTGCA'
p293
I2073
sS'GCGGTG'
p294
I4859
sS'CTATCG'
p295
I696
sS'CGGTGT'
p296
I2001
sS'TCGTTA'
p297
I993
sS'TCGTTC'
p298
I1423
sS'CGCTAG'
p299
I1607
sS'ACTTGT'
p300
I5246
sS'TTGGAG'
p301
I7669
sS'GAGTTT'
p302
I7281
sS'GCGGTT'
p303
I2094
sS'ACTTGC'
p304
I5012
sS'ACCACC'
p305
I5659
sS'ACTTGA'
p306
I5224
sS'CGGTGG'
p307
I4385
sS'ACTTGG'
p308
I6736
sS'CGGTGA'
p309
I2596
sS'CGGTGC'
p310
I3288
sS'TTCCTA'
p311
I7132
sS'TAGACT'
p312
I3499
sS'TTCCTC'
p313
I12497
sS'ACTGAC'
p314
I5415
sS'CTTCCG'
p315
I5005
sS'TTCCTG'
p316
I14901
sS'TCCTTT'
p317
I12009
sS'CAGTTG'
p318
I6013
sS'TAGACG'
p319
I981
sS'TTCCTT'
p320
I13241
sS'TAGACC'
p321
I2337
sS'TAGACA'
p322
I4104
sS'TCCTTG'
p323
I7358
sS'TCCTTA'
p324
I5191
sS'TCCTTC'
p325
I10019
sS'AGTCAG'
p326
I7902
sS'TCCGCA'
p327
I2518
sS'ACCGTT'
p328
I1315
sS'TGGCGC'
p329
I4329
sS'TTTACG'
p330
I1266
sS'TGGCGA'
p331
I2270
sS'TGGCGG'
p332
I5497
sS'AATGCA'
p333
I7102
sS'ATCTCG'
p334
I1501
sS'ATCTCA'
p335
I6364
sS'ATCTCC'
p336
I5720
sS'GGCCAA'
p337
I7568
sS'GGCCAC'
p338
I8483
sS'ACCGTG'
p339
I2137
sS'ATGCAG'
p340
I6529
sS'GGCCAG'
p341
I12672
sS'ACCGTC'
p342
I1555
sS'ACTGAA'
p343
I8604
sS'AGATTA'
p344
I4967
sS'GGCAGT'
p345
I7596
sS'CCATAA'
p346
I3654
sS'CAAAGG'
p347
I10095
sS'CCATAC'
p348
I2340
sS'CAAAGA'
p349
I9541
sS'AGATTC'
p350
I5220
sS'CAAAGC'
p351
I8293
sS'CCATAG'
p352
I3291
sS'GGCAGA'
p353
I10772
sS'GGCAGC'
p354
I12310
sS'AACGTA'
p355
I1132
sS'GGCAGG'
p356
I15124
sS'CAACGC'
p357
I1788
sS'GCACTA'
p358
I2956
sS'CAACGA'
p359
I1236
sS'CTAACC'
p360
I3410
sS'CAACGG'
p361
I1561
sS'GCACTG'
p362
I7882
sS'TCCTAT'
p363
I4354
sS'GGGGGT'
p364
I5852
sS'TACGCT'
p365
I913
sS'AGATTG'
p366
I4816
sS'CGATCT'
p367
I1265
sS'CTCTAG'
p368
I5608
sS'CTCTAA'
p369
I5503
sS'CTCTAC'
p370
I4524
sS'GGGGGG'
p371
I6248
sS'CGATCC'
p372
I1330
sS'TACGCC'
p373
I1038
sS'GGGGGC'
p374
I10824
sS'CGATCG'
p375
I514
sS'GGGGGA'
p376
I8665
sS'TACGCG'
p377
I663
sS'CTCTAT'
p378
I4447
sS'CAGACC'
p379
I6126
sS'CAGACA'
p380
I8641
sS'CAGACG'
p381
I2662
sS'TAGTTG'
p382
I3524
sS'GCTAAT'
p383
I3685
sS'TAGTTC'
p384
I3923
sS'TAGTTA'
p385
I3871
sS'CAGACT'
p386
I6863
sS'GCTAAG'
p387
I4073
sS'TAGTTT'
p388
I6649
sS'GCTAAC'
p389
I2851
sS'GCTAAA'
p390
I4870
sS'CGAGTA'
p391
I942
sS'TGCATT'
p392
I7104
sS'GCGAAA'
p393
I1802
sS'AACCCT'
p394
I5992
sS'ATCNNN'
p395
I1
sS'AACCCC'
p396
I5436
sS'AACCCA'
p397
I6738
sS'AACCCG'
p398
I2451
sS'TGCATC'
p399
I4253
sS'AGATTT'
p400
I8364
sS'CTACAA'
p401
I4596
sS'AACTGG'
p402
I7347
sS'AGTTTC'
p403
I8744
sS'AACTGC'
p404
I6657
sS'CCCAGA'
p405
I11918
sS'CCCAGC'
p406
I16661
sS'CCCAGG'
p407
I16899
sS'AACTGT'
p408
I6856
sS'AGTTTT'
p409
I10277
sS'TTGCAT'
p410
I6344
sS'CTACAT'
p411
I3895
sS'AGTCAA'
p412
I5495
sS'CGAGTC'
p413
I2196
sS'CCCAGT'
p414
I8610
sS'TATAAT'
p415
I5275
sS'CGCATA'
p416
I690
sS'ATACTG'
p417
I4351
sS'CGCATC'
p418
I1391
sS'CTTGAA'
p419
I6505
sS'ATACTC'
p420
I2978
sS'CGCATG'
p421
I2178
sS'GCGCAA'
p422
I1916
sS'GCGAAT'
p423
I1026
sS'ATACTT'
p424
I4932
sS'CGCATT'
p425
I1408
sS'GCGCAC'
p426
I3489
sS'GCTCCG'
p427
I6232
sS'TATTGT'
p428
I4876
sS'GCTCCC'
p429
I10555
sS'AACCGG'
p430
I2012
sS'CCTACA'
p431
I4129
sS'TGTACT'
p432
I4794
sS'TTTAGT'
p433
I6000
sS'TATTGG'
p434
I3864
sS'GCTCCT'
p435
I9394
sS'GCGCAG'
p436
I6382
sS'TATTGA'
p437
I5103
sS'TTTAGG'
p438
I5510
sS'TGTACG'
p439
I896
sS'CCTACG'
p440
I1383
sS'TGTACA'
p441
I5022
sS'TTTAGC'
p442
I4908
sS'TGTACC'
p443
I3204
sS'CCTACC'
p444
I4488
sS'TTCGCG'
p445
I1190
sS'TTCGCA'
p446
I1457
sS'TTCGCC'
p447
I2186
sS'AGTATC'
p448
I2929
sS'GACTAA'
p449
I3346
sS'AGTATA'
p450
I3213
sS'GACTAC'
p451
I2563
sS'AGTATG'
p452
I3469
sS'TTTGGA'
p453
I9522
sS'TTTGGC'
p454
I7852
sS'TTCGCT'
p455
I2000
sS'GATCNN'
p456
I1
sS'TTTGGT'
p457
I7196
sS'GACTAT'
p458
I2674
sS'AGTTTG'
p459
I7449
sS'AGTATT'
p460
I5541
sS'TTACTC'
p461
I4746
sS'TTACTA'
p462
I4334
sS'TTACTG'
p463
I6159
sS'ACCTTG'
p464
I6305
sS'ACCTTC'
p465
I5728
sS'ACCTTA'
p466
I3564
sS'CTAATA'
p467
I3817
sS'TTACTT'
p468
I7186
sS'ACCTTT'
p469
I7905
sS'ACAGGG'
p470
I8346
sS'CTGGGA'
p471
I14729
sS'CTGGGC'
p472
I15286
sS'ACAGGC'
p473
I8183
sS'ACAGGA'
p474
I9624
sS'CTGGGG'
p475
I14121
sS'CAGGAC'
p476
I8014
sS'GCAGCT'
p477
I10332
sS'CAGGAA'
p478
I14911
sS'TCGCTT'
p479
I2190
sS'CAGGAG'
p480
I13469
sS'AGGACA'
p481
I8606
sS'AGGCCT'
p482
I9260
sS'TTATAC'
p483
I3086
sS'ACAGGT'
p484
I5843
sS'CTGGGT'
p485
I10054
sS'TTATAG'
p486
I3827
sS'TCGCTG'
p487
I3067
sS'GAGTTG'
p488
I5556
sS'GCAGCG'
p489
I6097
sS'AGGACT'
p490
I6959
sS'GCAGCA'
p491
I10020
sS'GCAGCC'
p492
I12717
sS'CAGGAT'
p493
I6995
sS'CCTCAG'
p494
I11522
sS'CCTCAA'
p495
I6002
sS'CCTCAC'
p496
I8075
sS'TATGTT'
p497
I5396
sS'ATGGGC'
p498
I4535
sS'TCTTTG'
p499
I9261
sS'ATGGGA'
p500
I6602
sS'TCTTTA'
p501
I7550
sS'ATGGGG'
p502
I6162
sS'TCTTTC'
p503
I11786
sS'CCTCAT'
p504
I6721
sS'TCTTTT'
p505
I14373
sS'TATGTG'
p506
I5342
sS'TATGTA'
p507
I4858
sS'ATGGGT'
p508
I4019
sS'TATGTC'
p509
I3227
sS'GAAAGA'
p510
I11721
sS'ATCAAG'
p511
I4240
sS'GAAAGC'
p512
I8195
sS'GATGGT'
p513
I3818
sS'GAAAGG'
p514
I10843
sS'ATCAAA'
p515
I6747
sS'GGAACT'
p516
I6563
sS'CTATTC'
p517
I3835
sS'CATGAG'
p518
I5863
sS'ATCAAT'
p519
I4556
sS'TCAAAC'
p520
I5693
sS'GAAAGT'
p521
I7915
sS'CATGAA'
p522
I6495
sS'GTAGCG'
p523
I1301
sS'CAAGTT'
p524
I6454
sS'GCGGCT'
p525
I5666
sS'GTAGCC'
p526
I3238
sS'GCTTTC'
p527
I8094
sS'AAAGTA'
p528
I7983
sS'GCGGCG'
p529
I10722
sS'CAAGTG'
p530
I6228
sS'GTAGCT'
p531
I4146
sS'GCGGCC'
p532
I9239
sS'CAAGTC'
p533
I5423
sS'GCGGCA'
p534
I4024
sS'CAAGTA'
p535
I4253
sS'ATTGCT'
p536
I6107
sS'CGTACG'
p537
I457
sS'ACCCTC'
p538
I6138
sS'TAATCG'
p539
I760
sS'GGTCTT'
p540
I4697
sS'TAATCA'
p541
I5294
sS'TAATCC'
p542
I4450
sS'TGCGAA'
p543
I1319
sS'CGGCCC'
p544
I8242
sS'CGACTA'
p545
I668
sS'AAAATT'
p546
I12253
sS'TTGATA'
p547
I3829
sS'CGGCCG'
p548
I6835
sS'CTTGTA'
p549
I4190
sS'GGTCTG'
p550
I6091
sS'GAGTTC'
p551
I5519
sS'AGTTTA'
p552
I6519
sS'GGTCTC'
p553
I5686
sS'GGTCTA'
p554
I2374
sS'AAAATG'
p555
I13886
sS'AAAATC'
p556
I8832
sS'CGGCCT'
p557
I5466
sS'TTCAGC'
p558
I7567
sS'TCGTCC'
p559
I1766
sS'TTCAGG'
p560
I8293
sS'ATATCC'
p561
I3187
sS'TCGTCG'
p562
I746
sS'TGTTTT'
p563
I16103
sS'GAACAA'
p564
I6519
sS'ATCCCG'
p565
I2194
sS'GAACAC'
p566
I5045
sS'ATCCCC'
p567
I4831
sS'GAACAG'
p568
I7334
sS'TTCAGT'
p569
I8596
sS'CACGCT'
p570
I2599
sS'CACCAC'
p571
I7305
sS'CACCAA'
p572
I5965
sS'CACCAG'
p573
I8597
sS'TCCGTG'
p574
I2466
sS'ATTGCG'
p575
I1178
sS'TCCGTC'
p576
I2285
sS'TCCGTA'
p577
I1130
sS'ACCAGA'
p578
I6677
sS'AAATGC'
p579
I8454
sS'CACCAT'
p580
I5524
sS'AACATG'
p581
I6622
sS'AACATA'
p582
I5397
sS'AACATC'
p583
I5102
sS'TCAGCA'
p584
I8763
sS'GCACGG'
p585
I2855
sS'TCAGCC'
p586
I9427
sS'GCACGA'
p587
I1429
sS'GTCAGG'
p588
I7232
sS'GCACGC'
p589
I3243
sS'CAGTCA'
p590
I7259
sS'GCAAGC'
p591
I5149
sS'GCACGT'
p592
I2336
sS'CAGTCT'
p593
I7179
sS'TCAGCT'
p594
I8909
sS'GTCAGT'
p595
I5345
sS'TATCTA'
p596
I3966
sS'GTATAC'
p597
I1694
sS'TTCCGT'
p598
I2291
sS'ACGGCT'
p599
I2084
sS'GTATAG'
p600
I1824
sS'CCGGAA'
p601
I4419
sS'CCGGAC'
p602
I2916
sS'CCGGAG'
p603
I5609
sS'CGTCTT'
p604
I1874
sS'CTCGTA'
p605
I840
sS'TTCCGG'
p606
I4524
sS'TTCCGA'
p607
I1860
sS'TTCCGC'
p608
I3507
sS'GTATAT'
p609
I3273
sS'CGTCTC'
p610
I3125
sS'TATCAA'
p611
I4054
sS'CGTCTG'
p612
I2726
sS'CCGGAT'
p613
I1857
sS'CTCTTC'
p614
I10480
sS'TGTTAT'
p615
I5325
sS'CTCTTA'
p616
I5400
sS'CTCTTG'
p617
I7797
sS'CCCGAT'
p618
I1300
sS'TACGTA'
p619
I1037
sS'TACGTC'
p620
I943
sS'TCTGGT'
p621
I6598
sS'CGCGAT'
p622
I1008
sS'TACGTG'
p623
I1464
sS'TGTTAG'
p624
I4582
sS'GGTTTC'
p625
I6936
sS'TGTTAC'
p626
I4450
sS'CTCTTT'
p627
I11615
sS'TGTTAA'
p628
I6619
sS'CGCGAA'
p629
I1290
sS'CGCGAC'
p630
I1778
sS'GATATT'
p631
I4608
sS'TCTGGC'
p632
I9103
sS'TACGTT'
p633
I1129
sS'TCTGGA'
p634
I9410
sS'AGTCGT'
p635
I1177
sS'TTACCT'
p636
I5490
sS'CTCCAT'
p637
I6612
sS'AATGCG'
p638
I1339
sS'TACGGC'
p639
I1066
sS'ACTAGA'
p640
I4537
sS'TTACCG'
p641
I1168
sS'CTCCAC'
p642
I8909
sS'CTCCAA'
p643
I7701
sS'TTACCC'
p644
I4027
sS'CTCCAG'
p645
I13382
sS'TTACCA'
p646
I4981
sS'AGTCGC'
p647
I1876
sS'CCGACT'
p648
I2066
sS'GCCTAC'
p649
I3150
sS'GCCTAA'
p650
I3559
sS'GCCTAG'
p651
I4562
sS'CCGACA'
p652
I1653
sS'GATATC'
p653
I2156
sS'CCGACC'
p654
I2727
sS'CCGACG'
p655
I1532
sS'GCCTAT'
p656
I2890
sS'AAGCTA'
p657
I4542
sS'CCCGAG'
p658
I5013
sS'CTCGTT'
p659
I1729
sS'CTAAGT'
p660
I4286
sS'GCTGTC'
p661
I6766
sS'CGCACA'
p662
I2504
sS'ATACAC'
p663
I3940
sS'CGCACC'
p664
I3065
sS'GGGTCG'
p665
I2515
sS'ACTGCT'
p666
I7422
sS'GGGTCA'
p667
I6119
sS'CGCACG'
p668
I2352
sS'GGGTCC'
p669
I5635
sS'GAGCGT'
p670
I2202
sS'CTCACT'
p671
I8644
sS'GGGTCT'
p672
I5276
sS'ACTGCA'
p673
I8225
sS'TTTGTC'
p674
I7242
sS'ACTGCC'
p675
I7634
sS'CGCACT'
p676
I2248
sS'TTTGTG'
p677
I9456
sS'ACTGCG'
p678
I2841
sS'CTCACC'
p679
I8114
sS'CTCACA'
p680
I7902
sS'CTCACG'
p681
I2907
sS'GTGGGT'
p682
I6124
sS'GTGAGG'
p683
I8126
sS'GATTTT'
p684
I8844
sS'ACAATT'
p685
I5746
sS'GTGAGC'
p686
I6570
sS'TAGTGA'
p687
I4327
sS'GTGAGA'
p688
I6679
sS'TCGACG'
p689
I566
sS'TCGACA'
p690
I865
sS'TCGACC'
p691
I1024
sS'GATTTG'
p692
I5986
sS'GTGAGT'
p693
I6252
sS'TAGTGT'
p694
I3731
sS'GTGGGA'
p695
I8138
sS'GTGGGC'
p696
I7376
sS'TCGACT'
p697
I978
sS'GTGGGN'
p698
I1
sS'CTGGTT'
p699
I7394
sS'TTGAGT'
p700
I5382
sS'TCAAAA'
p701
I9840
sS'CGAACG'
p702
I875
sS'CGAACC'
p703
I1462
sS'CGAACA'
p704
I1219
sS'CTGGTG'
p705
I8594
sS'CTGGTA'
p706
I4361
sS'CTGGTC'
p707
I6240
sS'CTGCAA'
p708
I7913
sS'CGAACT'
p709
I1394
sS'CAATTG'
p710
I3671
sS'GACGAG'
p711
I1987
sS'NNGAAT'
p712
I1
sS'TTGCAG'
p713
I8069
sS'GAGGGA'
p714
I11619
sS'TTGCAC'
p715
I5174
sS'TTGCAA'
p716
I7683
sS'ACGTAC'
p717
I868
sS'GAGGGC'
p718
I10258
sS'TCGCAT'
p719
I912
sS'GTCGTG'
p720
I1358
sS'GTCGTA'
p721
I662
sS'GTCGTC'
p722
I1267
sS'CCGTTT'
p723
I2367
sS'ACTGAT'
p724
I4976
sS'GTCGTT'
p725
I1142
sS'TCGCAG'
p726
I2571
sS'TCCATG'
p727
I5953
sS'TCGCAC'
p728
I1341
sS'CCGTTG'
p729
I1617
sS'TTAAAT'
p730
I10272
sS'CCGTTA'
p731
I1079
sS'CCGTTC'
p732
I2021
sS'AATGCT'
p733
I6866
sS'GGTACG'
p734
I883
sS'GGTACA'
p735
I3213
sS'GGTACC'
p736
I2250
sS'TATTTG'
p737
I9193
sS'CCAGTT'
p738
I7237
sS'TATTTC'
p739
I8961
sS'TATTTA'
p740
I11118
sS'CCCCCT'
p741
I8566
sS'GGTACT'
p742
I2683
sS'TCCAGG'
p743
I11848
sS'AATCTT'
p744
I6349
sS'AATGCC'
p745
I5799
sS'GCCGTG'
p746
I3422
sS'CCCCCC'
p747
I6133
sS'CCCCCA'
p748
I9997
sS'TATTTT'
p749
I16350
sS'CCCCCG'
p750
I6693
sS'CTTGAG'
p751
I5898
sS'ATGATG'
p752
I5269
sS'ATGATA'
p753
I3782
sS'CAGGGT'
p754
I8209
sS'TGCAAC'
p755
I5195
sS'TGCAAA'
p756
I9611
sS'TGCAAG'
p757
I5996
sS'GCCGTC'
p758
I2745
sS'ATGATT'
p759
I6465
sS'CTTGAT'
p760
I4314
sS'CGAATC'
p761
I1107
sS'TTGAGG'
p762
I6036
sS'GCCATT'
p763
I5466
sS'TTGAGC'
p764
I5322
sS'TTGAGA'
p765
I7089
sS'GAGAAT'
p766
I6483
sS'TGTCTT'
p767
I7687
sS'AGTAGC'
p768
I3938
sS'AAGGCC'
p769
I7535
sS'ATAACC'
p770
I3334
sS'AAGGCA'
p771
I8893
sS'ATAACA'
p772
I5297
sS'AAGGCG'
p773
I3439
sS'ATAACG'
p774
I930
sS'TCCATT'
p775
I7536
sS'TGTCTG'
p776
I8594
sS'GAGAAG'
p777
I10716
sS'AGTAGA'
p778
I4914
sS'GAGAAA'
p779
I13543
sS'TGTCTC'
p780
I7765
sS'GAGAAC'
p781
I6284
sS'TGTCTA'
p782
I4078
sS'TGTGGC'
p783
I8316
sS'TGTGGA'
p784
I7431
sS'TGTGGG'
p785
I8905
sS'ATAACT'
p786
I4668
sS'AAGGCT'
p787
I7575
sS'CTGTAA'
p788
I7284
sS'GCCCCG'
p789
I11942
sS'ACCAAG'
p790
I5895
sS'GGTCAG'
p791
I7735
sS'GCCCCC'
p792
I10806
sS'GGTCAA'
p793
I4538
sS'GCCCCA'
p794
I10515
sS'GGTCAC'
p795
I6081
sS'GATAGA'
p796
I3275
sS'ACGCCT'
p797
I2653
sS'GGTCAT'
p798
I4340
sS'CGTGCC'
p799
I2925
sS'TGTGGT'
p800
I6928
sS'AGGTAA'
p801
I5544
sS'CAAACT'
p802
I7577
sS'TTTTGC'
p803
I8604
sS'TCTTAC'
p804
I4273
sS'AATTGG'
p805
I4793
sS'TCTTAA'
p806
I6012
sS'AATTGA'
p807
I5207
sS'TCTTAG'
p808
I4749
sS'AATTGC'
p809
I4849
sS'TAGCCA'
p810
I4761
sS'TGGGGT'
p811
I7171
sS'CGCTCG'
p812
I2882
sS'GATAAT'
p813
I4025
sS'CGCTCA'
p814
I2736
sS'CGCTCC'
p815
I5884
sS'AATTGT'
p816
I5715
sS'GCCATC'
p817
I5105
sS'TCTTAT'
p818
I4953
sS'TTTTGT'
p819
I13154
sS'CGCTCT'
p820
I3804
sS'TGGGGG'
p821
I10106
sS'GATAAC'
p822
I2772
sS'TAGCCT'
p823
I4167
sS'TGGGGC'
p824
I10435
sS'TGGGGA'
p825
I11291
sS'AACGGA'
p826
I1925
sS'GATCCT'
p827
I4342
sS'AAGAAT'
p828
I8234
sS'GGGGTG'
p829
I9278
sS'GTTATC'
p830
I2788
sS'AAGAAC'
p831
I6713
sS'GATCCA'
p832
I3922
sS'AAGAAA'
p833
I17064
sS'GATCCC'
p834
I3931
sS'AAGAAG'
p835
I9655
sS'GATCCG'
p836
I1626
sS'GTTATA'
p837
I2932
sS'ATACCA'
p838
I3564
sS'TATTAA'
p839
I6814
sS'CAAGGG'
p840
I6934
sS'CAAGGC'
p841
I7158
sS'GGTTCT'
p842
I5561
sS'CAAGGA'
p843
I7394
sS'GGTTCA'
p844
I4770
sS'GCAACC'
p845
I4538
sS'GGTTCC'
p846
I5616
sS'CAAGGT'
p847
I6113
sS'GGTTCG'
p848
I1434
sS'CTGTAT'
p849
I4888
sS'ATTATA'
p850
I5204
sS'ATTATC'
p851
I4117
sS'TAGAAT'
p852
I5589
sS'GATAGT'
p853
I2449
sS'ATTATG'
p854
I4673
sS'AGTCTT'
p855
I5863
sS'TCCCAA'
p856
I8013
sS'TAGAAA'
p857
I9379
sS'TAGAAC'
p858
I3907
sS'ATTATT'
p859
I9045
sS'TAGAAG'
p860
I5584
sS'AGTCTA'
p861
I3544
sS'AGTCTC'
p862
I6250
sS'AGTCTG'
p863
I6991
sS'TAACTC'
p864
I4091
sS'TAACTA'
p865
I3858
sS'TAACTG'
p866
I5437
sS'ATCTAT'
p867
I3986
sS'AGGTAT'
p868
I3567
sS'TAACTT'
p869
I6125
sS'ATCTAG'
p870
I3694
sS'ATCTAC'
p871
I3038
sS'ATCTAA'
p872
I4263
sS'CATAGC'
p873
I3410
sS'CCATGT'
p874
I6025
sS'ACCAAA'
p875
I7052
sS'TGGAGG'
p876
I10716
sS'TGGAGA'
p877
I10180
sS'TGGAGC'
p878
I8465
sS'CCATGC'
p879
I4985
sS'CCATGA'
p880
I5522
sS'CCATGG'
p881
I6487
sS'TGGAGT'
p882
I7545
sS'ATTACG'
p883
I1001
sS'TCAGTA'
p884
I5276
sS'TCAGTC'
p885
I5757
sS'CTCTCT'
p886
I14465
sS'GGGGAT'
p887
I4734
sS'TCAGTG'
p888
I8430
sS'CGATAT'
p889
I565
sS'GGGGAA'
p890
I10452
sS'GGGGAC'
p891
I7035
sS'CTCTCC'
p892
I12642
sS'TCAGTT'
p893
I7901
sS'GGGGAG'
p894
I14444
sS'CGATAG'
p895
I661
sS'CGATAA'
p896
I757
sS'ATGCTG'
p897
I7083
sS'CGATAC'
p898
I544
sS'CTAAGG'
p899
I4420
sS'GTGTTT'
p900
I9220
sS'GCTACT'
p901
I3870
sS'GTGGTT'
p902
I5918
sS'GTGTTC'
p903
I4992
sS'GTGTTA'
p904
I3903
sS'GTGTTG'
p905
I5589
sS'ACCAAT'
p906
I4289
sS'GTGGTA'
p907
I3429
sS'GCTACA'
p908
I3824
sS'GTGGTC'
p909
I3905
sS'CTAAGC'
p910
I3973
sS'GTGGTG'
p911
I7270
sS'GCTACG'
p912
I1311
sS'GCCCCT'
p913
I10301
sS'TTTCGT'
p914
I1755
sS'TGCCCT'
p915
I10718
sS'AGCGTT'
p916
I1934
sS'CGTGCG'
p917
I2303
sS'TGCCCC'
p918
I8697
sS'TGCCCA'
p919
I9443
sS'TGCCCG'
p920
I4021
sS'TTTCGG'
p921
I1931
sS'AGCGTA'
p922
I927
sS'AGCGTC'
p923
I2406
sS'AGCGTG'
p924
I2791
sS'GGCCCC'
p925
I11542
sS'GGCCCA'
p926
I8471
sS'CACGTG'
p927
I4780
sS'GGCCCG'
p928
I7263
sS'CACGTA'
p929
I1462
sS'CACGTC'
p930
I2411
sS'CTACGC'
p931
I1280
sS'CTACGT'
p932
I1241
sS'ACGTGA'
p933
I2703
sS'ACGTGG'
p934
I3575
sS'AAATGG'
p935
I9144
sS'CACGTT'
p936
I2237
sS'TTCACG'
p937
I1890
sS'GGCCCT'
p938
I8970
sS'GGGACA'
p939
I7527
sS'TTTTGG'
p940
I9020
sS'GGGACC'
p941
I6279
sS'AGGGAC'
p942
I7132
sS'GTCTCA'
p943
I5684
sS'ACGTGT'
p944
I2258
sS'AGAGAG'
p945
I14186
sS'AGAGAA'
p946
I13755
sS'AGAGAC'
p947
I7567
sS'TCGTGA'
p948
I1415
sS'GTCTTT'
p949
I6800
sS'TCTATC'
p950
I3466
sS'TCTATG'
p951
I3854
sS'AGAGAT'
p952
I7356
sS'TCGTGC'
p953
I1469
sS'GTCTTG'
p954
I4648
sS'TCTATT'
p955
I6154
sS'GTCTTC'
p956
I5360
sS'GTCTTA'
p957
I3305
sS'GCAGAG'
p958
I13247
sS'GCTCAA'
p959
I5247
sS'GCTCAC'
p960
I6655
sS'GCAGAC'
p961
I5522
sS'GCAGAA'
p962
I9244
sS'GCTCAG'
p963
I9932
sS'AGACGT'
p964
I1726
sS'ATGCGT'
p965
I1244
sS'TTGCTG'
p966
I9298
sS'CTTGAC'
p967
I4223
sS'TTGCTA'
p968
I5091
sS'TTGCTC'
p969
I7063
sS'GCAGAT'
p970
I5710
sS'GCTCAT'
p971
I4834
sS'CGAATT'
p972
I1131
sS'GTACGG'
p973
I920
sS'TTGCTT'
p974
I9602
sS'CGATTC'
p975
I1334
sS'TAGCCG'
p976
I1463
sS'ATGCGC'
p977
I2004
sS'ATGCGA'
p978
I807
sS'TGTAAG'
p979
I4656
sS'GGCTAG'
p980
I3920
sS'TGTAAC'
p981
I4372
sS'GGCTAC'
p982
I3281
sS'GACTGT'
p983
I5436
sS'GGCTAA'
p984
I3920
sS'TTCGAG'
p985
I1580
sS'TTGGTA'
p986
I3940
sS'ACTGTC'
p987
I5425
sS'TTGGTC'
p988
I4427
sS'TTCGAC'
p989
I867
sS'ACTGTG'
p990
I8487
sS'TTGGTG'
p991
I5931
sS'GACTGC'
p992
I5441
sS'GGCTAT'
p993
I2919
sS'GACTGA'
p994
I5758
sS'GACTGG'
p995
I6773
sS'TGTAAT'
p996
I6872
sS'TTCGAT'
p997
I1013
sS'TTGGTT'
p998
I6937
sS'ACTGTT'
p999
I6902
sS'GTTTCT'
p1000
I10016
sS'AGGTCC'
p1001
I5211
sS'ATAATT'
p1002
I7404
sS'CCTTTT'
p1003
I11369
sS'GTTTCG'
p1004
I1616
sS'GTTTCC'
p1005
I9120
sS'GTTTCA'
p1006
I7637
sS'ATAATG'
p1007
I5146
sS'CCTTTA'
p1008
I6305
sS'CCTTTC'
p1009
I10749
sS'ATAATC'
p1010
I3928
sS'NNNNGA'
p1011
I1
sS'ATAATA'
p1012
I6533
sS'CCTTTG'
p1013
I9975
sS'ACAGAA'
p1014
I11588
sS'CTCTCG'
p1015
I3218
sS'ACAGAC'
p1016
I6320
sS'ACAGAG'
p1017
I11881
sS'TTATCT'
p1018
I7084
sS'CTGGAC'
p1019
I7195
sS'CTGGAA'
p1020
I12353
sS'CTGGAG'
p1021
I13718
sS'ATATAA'
p1022
I5760
sS'CGATTT'
p1023
I1501
sS'ACAGAT'
p1024
I6878
sS'GATAAG'
p1025
I3778
sS'TTATCA'
p1026
I5292
sS'CTGGAT'
p1027
I6575
sS'TTATCC'
p1028
I3728
sS'CCAATG'
p1029
I5046
sS'AAACCG'
p1030
I2177
sS'AAACCA'
p1031
I9021
sS'CCAATC'
p1032
I5069
sS'AAACCC'
p1033
I6686
sS'CCAATA'
p1034
I4053
sS'TGTCGG'
p1035
I1722
sS'ATACGT'
p1036
I1003
sS'CCCTAT'
p1037
I3229
sS'GAGATA'
p1038
I4496
sS'TGTCGC'
p1039
I1788
sS'GAGATG'
p1040
I6618
sS'TGTCGA'
p1041
I849
sS'ATTTGA'
p1042
I7754
sS'CCAATT'
p1043
I4533
sS'ATTTGC'
p1044
I7024
sS'GTCGAT'
p1045
I592
sS'ATTTGG'
p1046
I7796
sS'CCCTAG'
p1047
I4842
sS'TGTCGT'
p1048
I1308
sS'CCCTAC'
p1049
I4042
sS'GAGATT'
p1050
I5686
sS'CCCTAA'
p1051
I4522
sS'TACAAC'
p1052
I3371
sS'CATTAT'
p1053
I5337
sS'TGTTTG'
p1054
I10999
sS'TGGATT'
p1055
I6449
sS'ATCACA'
p1056
I6480
sS'ATCACC'
p1057
I4501
sS'CATGCT'
p1058
I5993
sS'TGACAC'
p1059
I5385
sS'ATCACG'
p1060
I1571
sS'TGGATA'
p1061
I3991
sS'CATTAG'
p1062
I3989
sS'CATTAA'
p1063
I6002
sS'TGGATG'
p1064
I5681
sS'AGCATT'
p1065
I6845
sS'CATGCA'
p1066
I5669
sS'TGACAT'
p1067
I6186
sS'CATGCC'
p1068
I5559
sS'ATCACT'
p1069
I5633
sS'CATGCG'
p1070
I2208
sS'GTAGAA'
p1071
I4795
sS'GTAGAC'
p1072
I2270
sS'GTAGAG'
p1073
I4316
sS'GATTGG'
p1074
I5120
sS'ACAACC'
p1075
I4377
sS'GATTGC'
p1076
I3736
sS'GATTGA'
p1077
I3454
sS'TAAATT'
p1078
I8424
sS'ACTAAG'
p1079
I3988
sS'GTAGAT'
p1080
I3092
sS'GGGTAC'
p1081
I2351
sS'TGATGC'
p1082
I4069
sS'GATTGT'
p1083
I3898
sS'ACAACT'
p1084
I5277
sS'GTCGAA'
p1085
I828
sS'TAATAG'
p1086
I4096
sS'GTCCGG'
p1087
I2898
sS'TAATAC'
p1088
I3619
sS'GTCCGA'
p1089
I1356
sS'TAATAA'
p1090
I7585
sS'GTCCGC'
p1091
I2817
sS'TGCCAT'
p1092
I5985
sS'TCAACA'
p1093
I6386
sS'ACTCTT'
p1094
I6507
sS'GTCCGT'
p1095
I1438
sS'TAATAT'
p1096
I5759
sS'ATTCGC'
p1097
I1046
sS'TTCTCC'
p1098
I10888
sS'ATTCGA'
p1099
I1136
sS'TTCTCA'
p1100
I10232
sS'ATCCAT'
p1101
I4258
sS'TTCTCG'
p1102
I2331
sS'GAGCTA'
p1103
I4133
sS'TCGTAC'
p1104
I575
sS'TACCTT'
p1105
I4760
sS'TCGTAA'
p1106
I939
sS'TCGTAG'
p1107
I935
sS'TCGTCA'
p1108
I1274
sS'GAACCT'
p1109
I4971
sS'ATCCAA'
p1110
I5016
sS'ATCCAC'
p1111
I4304
sS'TGAACC'
p1112
I4660
sS'TTCTCT'
p1113
I13819
sS'ATCCAG'
p1114
I6389
sS'GAACCC'
p1115
I4888
sS'GAACCA'
p1116
I5280
sS'GAACCG'
p1117
I1972
sS'TACCTC'
p1118
I3951
sS'TCGTAT'
p1119
I695
sS'ACCATC'
p1120
I3827
sS'ACCATA'
p1121
I3024
sS'ACCATG'
p1122
I5057
sS'ATGTTG'
p1123
I5805
sS'AGCTCT'
p1124
I9322
sS'TGTCCT'
p1125
I8897
sS'AGTGGT'
p1126
I5474
sS'ATGAGC'
p1127
I5013
sS'ATGTTT'
p1128
I10010
sS'ACCATT'
p1129
I4825
sS'AGTGGA'
p1130
I6978
sS'AGTGGC'
p1131
I7480
sS'AGCTCC'
p1132
I9288
sS'AGCTCA'
p1133
I7917
sS'CAGTAA'
p1134
I6276
sS'CAGTAC'
p1135
I3541
sS'CAGTAG'
p1136
I4992
sS'TTTCAC'
p1137
I8654
sS'CAGTAT'
p1138
I4307
sS'ATTAGT'
p1139
I3898
sS'AAAGTC'
p1140
I7606
sS'CCGGCT'
p1141
I5533
sS'GATCTA'
p1142
I2428
sS'GATCTC'
p1143
I4073
sS'ATTGAC'
p1144
I3486
sS'GATCTG'
p1145
I5255
sS'TCCCTT'
p1146
I9979
sS'CCGGCC'
p1147
I9101
sS'ATTAGG'
p1148
I3856
sS'CCGGCG'
p1149
I5994
sS'ACTCTC'
p1150
I5851
sS'GTTCCC'
p1151
I6537
sS'TCCCTC'
p1152
I11953
sS'TGTCCG'
p1153
I1974
sS'TCCCTA'
p1154
I5140
sS'TTAATG'
p1155
I6014
sS'TCCCTG'
p1156
I12797
sS'GATCTT'
p1157
I4290
sS'AAGTGA'
p1158
I8492
sS'AAGTGC'
p1159
I6432
sS'TGTTCT'
p1160
I8956
sS'AAGTGG'
p1161
I7237
sS'TGATTG'
p1162
I5810
sS'TGCGCA'
p1163
I3514
sS'TCTGAT'
p1164
I6618
sS'TGTATT'
p1165
I7159
sS'TGATTA'
p1166
I5300
sS'TGTTCA'
p1167
I6745
sS'CACAAG'
p1168
I6385
sS'TGTTCC'
p1169
I6956
sS'CACAAA'
p1170
I9514
sS'CACAAC'
p1171
I5073
sS'TGTTCG'
p1172
I1150
sS'TCTGAA'
p1173
I9600
sS'TCTGAC'
p1174
I6396
sS'TCTGAG'
p1175
I9738
sS'CGCGCC'
p1176
I7513
sS'CGCGCA'
p1177
I3564
sS'AGATGG'
p1178
I7392
sS'CGCGCG'
p1179
I7132
sS'CTCCCT'
p1180
I14670
sS'AGCGGG'
p1181
I5007
sS'AGCGGA'
p1182
I3141
sS'AGCGGC'
p1183
I5426
sS'AGATGA'
p1184
I7473
sS'GAAATA'
p1185
I8993
sS'GACATT'
p1186
I5679
sS'CGCGCT'
p1187
I3877
sS'ACCTCC'
p1188
I8001
sS'GTGCGC'
p1189
I3363
sS'CTCCCA'
p1190
I12652
sS'CTCCCC'
p1191
I14356
sS'GCCTCT'
p1192
I10502
sS'TAAGCC'
p1193
I3892
sS'CGGGAG'
p1194
I7504
sS'CCCATG'
p1195
I5740
sS'CGGGAA'
p1196
I4604
sS'CCCATA'
p1197
I3230
sS'CGGGAC'
p1198
I4212
sS'CCCATC'
p1199
I5962
sS'CCGAGA'
p1200
I3190
sS'CCTGCT'
p1201
I11679
sS'CCGAAT'
p1202
I1231
sS'CCCATT'
p1203
I6437
sS'CGGGAT'
p1204
I2228
sS'GCCTCG'
p1205
I4994
sS'GCCTCA'
p1206
I8497
sS'TAAGCT'
p1207
I4101
sS'GCCTCC'
p1208
I13536
sS'CCGAAC'
p1209
I1512
sS'CCTGCG'
p1210
I5691
sS'CCGAAA'
p1211
I1993
sS'CCGAAG'
p1212
I2617
sS'CCTGCC'
p1213
I14992
sS'CCTGCA'
p1214
I9740
sS'GTACTG'
p1215
I3606
sS'CCATTC'
p1216
I6131
sS'TATAAG'
p1217
I3082
sS'TATAAA'
p1218
I8162
sS'TATAAC'
p1219
I2827
sS'CNNNNN'
p1220
I2
sS'GTACTC'
p1221
I2443
sS'GTTCTA'
p1222
I3988
sS'CCATTT'
p1223
I9025
sS'TCTACA'
p1224
I4641
sS'TCTACC'
p1225
I3918
sS'CTAACT'
p1226
I4136
sS'TCTACG'
p1227
I1102
sS'CACCGT'
p1228
I2261
sS'CGCAAC'
p1229
I1473
sS'ACTCCA'
p1230
I7515
sS'CGCAAA'
p1231
I1801
sS'ATACCG'
p1232
I774
sS'CGCAAG'
p1233
I2110
sS'AAAGAC'
p1234
I6815
sS'ATACCC'
p1235
I2476
sS'TCTACT'
p1236
I4914
sS'CCGAGT'
p1237
I2561
sS'ATACCT'
p1238
I3569
sS'CGCAAT'
p1239
I1250
sS'TAGTAA'
p1240
I4381
sS'ATTTCT'
p1241
I11893
sS'TAGTAC'
p1242
I2160
sS'CTCAAG'
p1243
I5957
sS'CTCAAA'
p1244
I8444
sS'TAGTAG'
p1245
I3004
sS'CTCAAC'
p1246
I4651
sS'GTGTGC'
p1247
I5965
sS'GTGTGA'
p1248
I6259
sS'GTGTGG'
p1249
I7490
sS'TAACGG'
p1250
I1115
sS'TTGCGT'
p1251
I1564
sS'CTCAAT'
p1252
I4791
sS'TAGTAT'
p1253
I3071
sS'GTTCTC'
p1254
I6119
sS'GTGTGT'
p1255
I13863
sS'ATCTTT'
p1256
I8110
sS'GTTGGG'
p1257
I5824
sS'GTTGGA'
p1258
I4708
sS'GTTGGC'
p1259
I5128
sS'CCTTGG'
p1260
I8903
sS'CCTTGA'
p1261
I5950
sS'GCGTAT'
p1262
I690
sS'AGGATT'
p1263
I6464
sS'GACCTA'
p1264
I3074
sS'GTTGGT'
p1265
I4082
sS'ATCTTG'
p1266
I5224
sS'ATCTTA'
p1267
I4125
sS'ATCTTC'
p1268
I5309
sS'CCTTGT'
p1269
I6540
sS'AGGATA'
p1270
I4131
sS'AGGATG'
p1271
I6554
sS'GACATG'
p1272
I4357
sS'ATCAGG'
p1273
I5383
sS'GACATC'
p1274
I3769
sS'GACATA'
p1275
I3123
sS'TCGGCG'
p1276
I2469
sS'GAATAT'
p1277
I4760
sS'TCGGCC'
p1278
I3940
sS'TCGGCA'
p1279
I1785
sS'TTGCGA'
p1280
I1136
sS'TTGCGC'
p1281
I1929
sS'TTGCGG'
p1282
I1960
sS'GAATAG'
p1283
I3840
sS'TCGGCT'
p1284
I2843
sS'ATCAGC'
p1285
I5117
sS'GAATAC'
p1286
I3073
sS'GCATCG'
p1287
I1211
sS'ACTTTT'
p1288
I10099
sS'GGACGA'
p1289
I1785
sS'TTTCTA'
p1290
I9346
sS'ACGTCG'
p1291
I831
sS'GAAATG'
p1292
I10692
sS'AATGAT'
p1293
I6642
sS'TGCCTA'
p1294
I4858
sS'GAAATC'
p1295
I6692
sS'GAAATT'
p1296
I8334
sS'AATGAA'
p1297
I10995
sS'AATGAC'
p1298
I6233
sS'AATGAG'
p1299
I8362
sS'AGGAAA'
p1300
I17197
sS'TACTAG'
p1301
I2670
sS'TGCACT'
p1302
I6208
sS'CTTGGC'
p1303
I8882
sS'GTATTG'
p1304
I3114
sS'GTCCTT'
p1305
I6106
sS'CTTGGG'
p1306
I8173
sS'ATACAG'
p1307
I4953
sS'AGCCCT'
p1308
I9403
sS'GCGTAA'
p1309
I957
sS'TTGAAT'
p1310
I6687
sS'GTCCTA'
p1311
I3257
sS'GTCCTC'
p1312
I6672
sS'TGCACG'
p1313
I2135
sS'CTTGGT'
p1314
I5679
sS'GTCCTG'
p1315
I8038
sS'TGCACC'
p1316
I5024
sS'TTGAAA'
p1317
I10431
sS'AGCCCG'
p1318
I5062
sS'AGCCCA'
p1319
I9342
sS'AGCCCC'
p1320
I9812
sS'TTAACT'
p1321
I6440
sS'ATAAAT'
p1322
I10284
sS'TGGTCG'
p1323
I1413
sS'TGGTCA'
p1324
I5792
sS'TGGTCC'
p1325
I4668
sS'ACGATT'
p1326
I1081
sS'GAGACT'
p1327
I6178
sS'GATTCA'
p1328
I4987
sS'TGGTCT'
p1329
I5807
sS'ATAAAG'
p1330
I7288
sS'AGGAAC'
p1331
I7008
sS'ATAAAC'
p1332
I6342
sS'GAGACG'
p1333
I2945
sS'GATTCG'
p1334
I1147
sS'CTACAG'
p1335
I5372
sS'GAGACC'
p1336
I5716
sS'ACGATC'
p1337
I761
sS'GAGACA'
p1338
I7735
sS'ACGATA'
p1339
I619
sS'GGTTAC'
p1340
I3007
sS'ATGTGT'
p1341
I7184
sS'GGTTAA'
p1342
I4452
sS'ACCACT'
p1343
I5505
sS'GGTTAG'
p1344
I3379
sS'CTTCCT'
p1345
I15833
sS'GAGGAC'
p1346
I6522
sS'CGTGAA'
p1347
I1879
sS'CTCAGT'
p1348
I8219
sS'TCCGCT'
p1349
I3224
sS'CTTCCA'
p1350
I9755
sS'CTTCCC'
p1351
I13849
sS'ATGTGA'
p1352
I6940
sS'CGTATG'
p1353
I789
sS'ATGTGC'
p1354
I5106
sS'GGTTAT'
p1355
I3331
sS'TCCGCC'
p1356
I6548
sS'GACGTG'
p1357
I2283
sS'TCCGCG'
p1358
I3455
sS'AACGTC'
p1359
I1518
sS'CGTGAG'
p1360
I2876
sS'AACGTG'
p1361
I2249
sS'CGTGAC'
p1362
I2579
sS'GGTAGC'
p1363
I3090
sS'AGTGTG'
p1364
I7162
sS'TCTTCG'
p1365
I1862
sS'AGTGTA'
p1366
I4051
sS'TCTTCA'
p1367
I7959
sS'AGTGTC'
p1368
I5138
sS'TCTTCC'
p1369
I11173
sS'CGTGAT'
p1370
I1618
sS'TAAGTC'
p1371
I3342
sS'AACGTT'
p1372
I1808
sS'CAATTT'
p1373
I7212
sS'TCTTCT'
p1374
I10222
sS'AGTGTT'
p1375
I7052
sS'GTTTTG'
p1376
I8722
sS'TTGGCA'
p1377
I8318
sS'AAAGGT'
p1378
I7862
sS'TTGGCC'
p1379
I7631
sS'CCGTGC'
p1380
I2915
sS'TTAACG'
p1381
I1124
sS'TTGGCG'
p1382
I2388
sS'GACTTC'
p1383
I5648
sS'TCGAGT'
p1384
I1202
sS'GACTTA'
p1385
I3401
sS'GACTTG'
p1386
I5353
sS'AAAGGG'
p1387
I10101
sS'AAAGGA'
p1388
I11906
sS'TTGGCT'
p1389
I9022
sS'AAAGGC'
p1390
I8574
sS'GAGTAC'
p1391
I2406
sS'GTATGG'
p1392
I2288
sS'GACTTT'
p1393
I7675
sS'TTCTTT'
p1394
I16465
sS'CAAGAA'
p1395
I7801
sS'AGCGAG'
p1396
I3610
sS'CAAGAC'
p1397
I4705
sS'CAAGAG'
p1398
I7949
sS'CGTATT'
p1399
I1153
sS'TTCTTG'
p1400
I7847
sS'TTCTTC'
p1401
I10073
sS'TTCTTA'
p1402
I7151
sS'CAAGAT'
p1403
I5092
sS'AGGGCT'
p1404
I9294
sS'TACGGG'
p1405
I1195
sS'TACGGA'
p1406
I1150
sS'TCAGCG'
p1407
I3045
sS'CTAACA'
p1408
I4383
sS'CCAACT'
p1409
I5856
sS'TAGAGT'
p1410
I3926
sS'TACGGT'
p1411
I892
sS'AGGGCG'
p1412
I6141
sS'AGGGCA'
p1413
I10619
sS'AGGGCC'
p1414
I8953
sS'TCGAGA'
p1415
I1428
sS'TAGAGC'
p1416
I4065
sS'TAGAGA'
p1417
I6384
sS'TAGAGG'
p1418
I5286
sS'GGCGAA'
p1419
I2141
sS'GTGCTG'
p1420
I9158
sS'GTGCTA'
p1421
I3578
sS'ATCTGT'
p1422
I6930
sS'GTGCTC'
p1423
I5597
sS'GCTCGT'
p1424
I1556
sS'ATCTGA'
p1425
I6230
sS'GTGCTT'
p1426
I6392
sS'ATCTGC'
p1427
I5753
sS'CGAATA'
p1428
I769
sS'CGAATG'
p1429
I1501
sS'ATCTGG'
p1430
I6510
sS'CAATTA'
p1431
I4557
sS'ATCATA'
p1432
I3768
sS'GATAGC'
p1433
I2198
sS'AAGCAG'
p1434
I10231
sS'TAGGAA'
p1435
I7085
sS'AAGCAA'
p1436
I9617
sS'GATAGG'
p1437
I2953
sS'AAGCAC'
p1438
I6220
sS'TTTACC'
p1439
I5346
sS'CATTTC'
p1440
I10669
sS'CTAGGT'
p1441
I4087
sS'CATTTA'
p1442
I8516
sS'ACGCAT'
p1443
I1311
sS'CATTTG'
p1444
I8694
sS'TGATCG'
p1445
I889
sS'CAAACA'
p1446
I11044
sS'AAGCAT'
p1447
I5872
sS'CAAACC'
p1448
I6016
sS'GTGGCC'
p1449
I8438
sS'ATCATT'
p1450
I6598
sS'CAAACG'
p1451
I2064
sS'CTAGGG'
p1452
I5004
sS'GTTATT'
p1453
I5521
sS'CTAGGC'
p1454
I4562
sS'CATTTT'
p1455
I14071
sS'CTAGGA'
p1456
I5322
sS'AAGTTT'
p1457
I8909
sS'TACAGT'
p1458
I4941
sS'CTCGAA'
p1459
I1543
sS'ATTTCA'
p1460
I11029
sS'CTCGGC'
p1461
I5549
sS'CTAAGA'
p1462
I4684
sS'GGGGCT'
p1463
I9873
sS'TACAGG'
p1464
I5561
sS'AAGTTG'
p1465
I5826
sS'AAGTTA'
p1466
I6093
sS'TACAGC'
p1467
I4644
sS'AAGTTC'
p1468
I6515
sS'TACAGA'
p1469
I6758
sS'GGGGCC'
p1470
I11242
sS'CGGGGG'
p1471
I6688
sS'GGGGCA'
p1472
I8684
sS'GGGGCG'
p1473
I13285
sS'TTCAAC'
p1474
I5107
sS'TATATC'
p1475
I2671
sS'TATATA'
p1476
I6709
sS'TGTATA'
p1477
I4073
sS'TATATG'
p1478
I3794
sS'TCCGGT'
p1479
I2192
sS'GCCCAT'
p1480
I4688
sS'TTAATA'
p1481
I6818
sS'TATATT'
p1482
I6632
sS'CGTCTA'
p1483
I911
sS'TGATGG'
p1484
I5102
sS'CATATG'
p1485
I3580
sS'ATGAGT'
p1486
I5547
sS'AGGTCT'
p1487
I5767
sS'TGATGA'
p1488
I6375
sS'TGTTTA'
p1489
I9607
sS'CACATC'
p1490
I5221
sS'TGTTTC'
p1491
I9926
sS'CACATA'
p1492
I5388
sS'TTAATT'
p1493
I8495
sS'CACATG'
p1494
I7157
sS'TTTCAT'
p1495
I10568
sS'ATGAGA'
p1496
I6754
sS'TGATGT'
p1497
I5558
sS'AGTAAC'
p1498
I4441
sS'ATGAGG'
p1499
I6670
sS'CGCAGG'
p1500
I5816
sS'ACTCTG'
p1501
I9184
sS'TGCCAG'
p1502
I10943
sS'ACTCTA'
p1503
I4196
sS'CTTCGG'
p1504
I2643
sS'CACATT'
p1505
I7834
sS'TGCCAC'
p1506
I7162
sS'AAATTC'
p1507
I8172
sS'ACCGTA'
p1508
I925
sS'AAATTA'
p1509
I9933
sS'AAATTG'
p1510
I7342
sS'TCCACT'
p1511
I7213
sS'TTCAAT'
p1512
I5524
sS'GTATTT'
p1513
I7932
sS'CGTACC'
p1514
I786
sS'TTAATC'
p1515
I4792
sS'AAATTT'
p1516
I11162
sS'TTCGAA'
p1517
I1364
sS'GTCTAT'
p1518
I2597
sS'GGGAAC'
p1519
I6490
sS'GGTGCG'
p1520
I2952
sS'GGGAAA'
p1521
I12866
sS'GGGAAG'
p1522
I13782
sS'GGTGCC'
p1523
I6154
sS'GGTGCA'
p1524
I4839
sS'AGAGCG'
p1525
I3898
sS'GCGACT'
p1526
I1768
sS'AGAGCC'
p1527
I9177
sS'AGAGCA'
p1528
I9377
sS'GCGTAG'
p1529
I1286
sS'GGTGCT'
p1530
I6198
sS'GCGTAC'
p1531
I763
sS'TAATTT'
p1532
I10214
sS'GGGAAT'
p1533
I6244
sS'GCGACG'
p1534
I1968
sS'AGAGCT'
p1535
I9336
sS'GCGACA'
p1536
I1898
sS'TATCGG'
p1537
I600
sS'GCGACC'
p1538
I2392
sS'AGGTCG'
p1539
I1926
sS'GCAGGA'
p1540
I11023
sS'GCAGGC'
p1541
I10876
sS'GCAGGG'
p1542
I13033
sS'CCGTGA'
p1543
I2325
sS'GCTCGA'
p1544
I1380
sS'GCTCGG'
p1545
I4494
sS'TATTCT'
p1546
I6477
sS'CCGTGG'
p1547
I3636
sS'CTTTAG'
p1548
I5381
sS'GCAGGT'
p1549
I7148
sS'TCTTGA'
p1550
I5410
sS'ACGTCT'
p1551
I1723
sS'TATTCC'
p1552
I4680
sS'GGCGAG'
p1553
I4709
sS'TATTCA'
p1554
I5963
sS'CCGTGT'
p1555
I2285
sS'TATTCG'
p1556
I806
sS'GGCGAC'
p1557
I2966
sS'TGTAGA'
p1558
I4532
sS'GGCTCA'
p1559
I8145
sS'TGTAGC'
p1560
I3796
sS'GGCTCC'
p1561
I11135
sS'AATCCT'
p1562
I6631
sS'TGTAGG'
p1563
I4137
sS'GGCTCG'
p1564
I3794
sS'TTCGGA'
p1565
I1587
sS'TTCGGC'
p1566
I1965
sS'CTTTAC'
p1567
I4912
sS'TTCAAG'
p1568
I6631
sS'TTCGGG'
p1569
I2314
sS'ATTGTC'
p1570
I3656
sS'AGCATG'
p1571
I5890
sS'GGCTCT'
p1572
I9222
sS'TGTAGT'
p1573
I4690
sS'TTTACT'
p1574
I8231
sS'AGCATA'
p1575
I3704
sS'AACCTT'
p1576
I6156
sS'TCTTGG'
p1577
I7436
sS'TTCGGT'
p1578
I1463
sS'GTTTAT'
p1579
I6450
sS'CTCTCA'
p1580
I8356
sS'CGCTAC'
p1581
I1268
sS'TGCTTG'
p1582
I6695
sS'GTTTAA'
p1583
I6363
sS'CGCTAA'
p1584
I1159
sS'CACGAA'
p1585
I1645
sS'CAATCT'
p1586
I4765
sS'GTTTAG'
p1587
I4242
sS'TCCAGA'
p1588
I9306
sS'CTGGCT'
p1589
I13047
sS'AGGCGG'
p1590
I8115
sS'AGGCGA'
p1591
I2728
sS'AGGCGC'
p1592
I5393
sS'AGGAGT'
p1593
I7008
sS'ACAGCC'
p1594
I8764
sS'GATAAA'
p1595
I6255
sS'ACAGCA'
p1596
I9474
sS'TCCAGC'
p1597
I10546
sS'ACAGCG'
p1598
I3215
sS'AGGAGC'
p1599
I9465
sS'GTCGGA'
p1600
I1491
sS'AGGAGA'
p1601
I11307
sS'CTGGCG'
p1602
I4943
sS'AGGAGG'
p1603
I15151
sS'CTGGCA'
p1604
I10946
sS'CTGGCC'
p1605
I12878
sS'ATGCAA'
p1606
I6261
sS'ACCGGT'
p1607
I1112
sS'GCTCTC'
p1608
I7804
sS'ATTGGT'
p1609
I4282
sS'AATTTT'
p1610
I12349
sS'AAACAG'
p1611
I12264
sS'TGTCAC'
p1612
I6685
sS'AAACAC'
p1613
I9366
sS'GCTCTA'
p1614
I4134
sS'AAACAA'
p1615
I14955
sS'ATTGGG'
p1616
I4266
sS'AATTTA'
p1617
I8505
sS'AATTTC'
p1618
I8377
sS'ATTGGC'
p1619
I5501
sS'AACGCA'
p1620
I1749
sS'AATTTG'
p1621
I7812
sS'ATTTAC'
p1622
I6589
sS'AAACAT'
p1623
I10222
sS'TGTCAT'
p1624
I6273
sS'CCCTCG'
p1625
I4428
sS'GAGGTT'
p1626
I6076
sS'GGCGTT'
p1627
I2173
sS'TGACCA'
p1628
I5712
sS'TGACCC'
p1629
I6364
sS'TAAATC'
p1630
I5100
sS'GGGTTA'
p1631
I3532
sS'TGACCG'
p1632
I1787
sS'CATTCG'
p1633
I1434
sS'CATTCC'
p1634
I7448
sS'CATTCA'
p1635
I7548
sS'TCCATA'
p1636
I3520
sS'TAAATG'
p1637
I8710
sS'ACAAAT'
p1638
I9101
sS'GATTAA'
p1639
I4722
sS'GTAGGC'
p1640
I3123
sS'GATTAC'
p1641
I3580
sS'GTAGGA'
p1642
I4158
sS'GTAGGG'
p1643
I3894
sS'GATTAG'
p1644
I3251
sS'GCGGGT'
p1645
I3695
sS'ACAAAC'
p1646
I7873
sS'TTTCAA'
p1647
I10529
sS'ACAAAA'
p1648
I13080
sS'ACAAAG'
p1649
I9844
sS'GCGGGC'
p1650
I8452
sS'GTCGGT'
p1651
I1308
sS'GCGGGA'
p1652
I6650
sS'GCGGGG'
p1653
I14127
sS'GATTAT'
p1654
I3917
sS'GTAGGT'
p1655
I3355
sS'GGCGTC'
p1656
I3232
sS'AAGGTT'
p1657
I6048
sS'GATGTT'
p1658
I5018
sS'TAATGC'
p1659
I3590
sS'GGAGAT'
p1660
I5803
sS'TAATGG'
p1661
I3996
sS'CAATAA'
p1662
I6192
sS'GCCCTC'
p1663
I10299
sS'GATGTG'
p1664
I5227
sS'GCCCTA'
p1665
I3973
sS'GATGTA'
p1666
I2961
sS'GCCCTG'
p1667
I13110
sS'GATGTC'
p1668
I3688
sS'AACCTC'
p1669
I6182
sS'TGAAAT'
p1670
I11042
sS'TTCTAG'
p1671
I6218
sS'TTTCAG'
p1672
I11353
sS'ATTTAT'
p1673
I10537
sS'TTCTAC'
p1674
I4743
sS'GAATGT'
p1675
I6175
sS'TTGGAT'
p1676
I5076
sS'TGAAAC'
p1677
I7743
sS'TGAAAG'
p1678
I9699
sS'TTCTAT'
p1679
I5861
sS'ATCCGC'
p1680
I1691
sS'ATCCGA'
p1681
I1056
sS'ATCCGG'
p1682
I1868
sS'TGGCTC'
p1683
I9766
sS'TGGCTA'
p1684
I4795
sS'GCTACC'
p1685
I3076
sS'TGGCTG'
p1686
I12890
sS'AGGCGT'
p1687
I2712
sS'AGTTGT'
p1688
I5264
sS'AGCTAT'
p1689
I4139
sS'GTCGGC'
p1690
I2394
sS'TGGCTT'
p1691
I9470
sS'AGTTGG'
p1692
I5771
sS'AGCTAA'
p1693
I4966
sS'AGCTAC'
p1694
I3985
sS'AGTTGC'
p1695
I4908
sS'AGTTGA'
p1696
I4969
sS'AGCTAG'
p1697
I4390
sS'CGTTGA'
p1698
I1136
sS'TCCAGT'
p1699
I7510
sS'GCACCT'
p1700
I5630
sS'CAGTGT'
p1701
I8315
sS'TAACAA'
p1702
I5858
sS'TCAGGT'
p1703
I5978
sS'TCAAGG'
p1704
I5837
sS'GTCGGG'
p1705
I2859
sS'TCAAGC'
p1706
I4588
sS'CTGCAC'
p1707
I7637
sS'GCACCA'
p1708
I5768
sS'CAGTGC'
p1709
I7911
sS'GCACCC'
p1710
I5720
sS'CAGTGA'
p1711
I9523
sS'CAGTGG'
p1712
I9591
sS'CTAATG'
p1713
I4070
sS'TCAAGT'
p1714
I5237
sS'TCAGGG'
p1715
I8812
sS'TCAGGA'
p1716
I8990
sS'ACTAGT'
p1717
I2763
sS'TCAGGC'
p1718
I7651
sS'CGAGCT'
p1719
I2542
sS'CGTTGG'
p1720
I1876
sS'CAACCA'
p1721
I5789
sS'GTTCAT'
p1722
I4731
sS'TTCCCT'
p1723
I12447
sS'ACCACA'
p1724
I6719
sS'CGAGCA'
p1725
I2045
sS'GAGCCG'
p1726
I5723
sS'CGAGCC'
p1727
I3766
sS'TTCCCA'
p1728
I11936
sS'TTCCCC'
p1729
I10611
sS'ACAGCT'
p1730
I8631
sS'GTTCAC'
p1731
I4324
sS'TTCCCG'
p1732
I4563
sS'GATCAC'
p1733
I3790
sS'GGACCT'
p1734
I5187
sS'CTTACT'
p1735
I4898
sS'TACATG'
p1736
I4449
sS'AAGTAC'
p1737
I4321
sS'CACACT'
p1738
I7293
sS'TACATC'
p1739
I2927
sS'AAGTAG'
p1740
I5076
sS'TACATA'
p1741
I4905
sS'CATGGT'
p1742
I5005
sS'GGACCG'
p1743
I2802
sS'AACGCT'
p1744
I1894
sS'GGACCA'
p1745
I4577
sS'CTTTCT'
p1746
I13974
sS'GGACCC'
p1747
I5587
sS'CACACG'
p1748
I3156
sS'TACATT'
p1749
I6069
sS'CACACC'
p1750
I6721
sS'CTGCAT'
p1751
I6436
sS'CACACA'
p1752
I16333
sS'TCTGCC'
p1753
I10765
sS'TCTGCA'
p1754
I9002
sS'TCTGCG'
p1755
I3424
sS'TAGATT'
p1756
I4410
sS'CGCTAT'
p1757
I863
sS'CCCGTC'
p1758
I3206
sS'TTAAGG'
p1759
I4624
sS'CCCGTA'
p1760
I1098
sS'CGTCGA'
p1761
I535
sS'CCCGTG'
p1762
I3139
sS'TTAAGC'
p1763
I4076
sS'TTACGT'
p1764
I1418
sS'TAGATC'
p1765
I2507
sS'TGTCAA'
p1766
I5293
sS'AGTAAT'
p1767
I5080
sS'TTTCGC'
p1768
I1875
sS'TAGATG'
p1769
I4136
sS'TCTGCT'
p1770
I10362
sS'TTACGC'
p1771
I978
sS'TTAAGT'
p1772
I5607
sS'TTACGA'
p1773
I941
sS'TTACGG'
p1774
I1116
sS'CCCGTT'
p1775
I2030
sS'AGTGAC'
p1776
I6896
sS'AGTGAA'
p1777
I7940
sS'GCTAGT'
p1778
I2950
sS'AGTGAG'
p1779
I8655
sS'CGGGCG'
p1780
I6981
sS'CCCTCT'
p1781
I11662
sS'TAAGAG'
p1782
I5442
sS'CGGGCC'
p1783
I7030
sS'TAAGAA'
p1784
I7130
sS'CGGGCA'
p1785
I4067
sS'TAAGAC'
p1786
I3165
sS'TGTCAG'
p1787
I7254
sS'AGTGAT'
p1788
I5577
sS'GGGNCC'
p1789
I1
sS'TAAGAT'
p1790
I4060
sS'CCTGAA'
p1791
I8372
sS'CCTGAC'
p1792
I7236
sS'CCTGAG'
p1793
I10827
sS'GTTAGG'
p1794
I3758
sS'AACGCG'
p1795
I1373
sS'TCATCT'
p1796
I7525
sS'GTTAGC'
p1797
I2719
sS'GTTAGA'
p1798
I3604
sS'ACCCCC'
p1799
I5919
sS'TGAATT'
p1800
I7765
sS'TATACG'
p1801
I598
sS'GTTAGT'
p1802
I3063
sS'TATACC'
p1803
I1998
sS'TATACA'
p1804
I4119
sS'AACGCC'
p1805
I2147
sS'CGTATA'
p1806
I591
sS'TCTTGT'
p1807
I6322
sS'TCCACG'
p1808
I2744
sS'GTAATG'
p1809
I3750
sS'TTTATT'
p1810
I16025
sS'GTAATA'
p1811
I3860
sS'ATTGGA'
p1812
I4752
sS'GTAATC'
p1813
I3626
sS'TCTAAC'
p1814
I3560
sS'CGTTCT'
p1815
I2235
sS'CCACCG'
p1816
I4307
sS'GGTAGG'
p1817
I4473
sS'CCACCA'
p1818
I8379
sS'CCACCC'
p1819
I11540
sS'GTTCGT'
p1820
I1004
sS'TTTATG'
p1821
I6720
sS'ACTAGG'
p1822
I4090
sS'GTAACG'
p1823
I1012
sS'TTTATC'
p1824
I6227
sS'ACTAGC'
p1825
I2713
sS'TTTATA'
p1826
I8114
sS'CCCTCA'
p1827
I8020
sS'CCACCT'
p1828
I9521
sS'CGTTCG'
p1829
I793
sS'TCGTTG'
p1830
I1228
sS'CGTTCA'
p1831
I1548
sS'CGTTCC'
p1832
I2563
sS'TCTAAT'
p1833
I4843
sS'CTTTGT'
p1834
I9749
sS'CCCTCC'
p1835
I16652
sS'ACTGGA'
p1836
I7429
sS'ACTGGC'
p1837
I6828
sS'TAGTCC'
p1838
I3159
sS'GTGACC'
p1839
I6144
sS'TAGTCA'
p1840
I4121
sS'GTGACA'
p1841
I6531
sS'TAGTCG'
p1842
I734
sS'GTGACG'
p1843
I2793
sS'ATTTAG'
p1844
I5931
sS'ACTGGT'
p1845
I4618
sS'CTTTGG'
p1846
I9988
sS'CCTATG'
p1847
I3378
sS'CTTTGC'
p1848
I8914
sS'ACGTGC'
p1849
I2240
sS'GTGACT'
p1850
I7074
sS'TAGTCT'
p1851
I3702
sS'GTGCAC'
p1852
I4058
sS'CGACGG'
p1853
I1504
sS'GTGCAA'
p1854
I5140
sS'CGACGA'
p1855
I781
sS'ACCTAA'
p1856
I4061
sS'CGACGC'
p1857
I1742
sS'CGAAGT'
p1858
I1546
sS'CCGCAG'
p1859
I6223
sS'CCGCAA'
p1860
I1896
sS'CCGCAC'
p1861
I3263
sS'GGGACT'
p1862
I6924
sS'CGAAGC'
p1863
I2319
sS'GCGCTG'
p1864
I5947
sS'CGAAGA'
p1865
I1826
sS'CACTCA'
p1866
I6934
sS'CGAAGG'
p1867
I2504
sS'GCGCTC'
p1868
I4950
sS'GTGCAT'
p1869
I3924
sS'GCGCTA'
p1870
I1368
sS'CCGCAT'
p1871
I1473
sS'ATTACC'
p1872
I3417
sS'GAAGAT'
p1873
I5331
sS'GGATCT'
p1874
I4129
sS'TCGGAA'
p1875
I1838
sS'TCGGAC'
p1876
I1352
sS'GAATCT'
p1877
I5237
sS'CCTATA'
p1878
I2384
sS'TCGGAG'
p1879
I2686
sS'GGATCG'
p1880
I1336
sS'GAAGAG'
p1881
I10370
sS'GAAGAA'
p1882
I10193
sS'GGATCC'
p1883
I4246
sS'GAAGAC'
p1884
I5428
sS'GGATCA'
p1885
I4068
sS'GGATCN'
p1886
I1
sS'GAATCA'
p1887
I5881
sS'GAATCC'
p1888
I4596
sS'TCGGAT'
p1889
I1052
sS'GAATCG'
p1890
I1368
sS'ATGGTC'
p1891
I3102
sS'CAGATG'
p1892
I7933
sS'ACGCCG'
p1893
I2331
sS'CATTCT'
p1894
I8336
sS'ATGGTG'
p1895
I5328
sS'CAGATC'
p1896
I5081
sS'ACGCCC'
p1897
I3770
sS'CAGATA'
p1898
I5372
sS'CTATCT'
p1899
I4212
sS'CAGATT'
p1900
I7029
sS'CTCGAC'
p1901
I1262
sS'ATGGTT'
p1902
I4654
sS'TCGCAA'
p1903
I1228
sS'TGCGTC'
p1904
I2226
sS'AATGGT'
p1905
I4792
sS'GTTACG'
p1906
I1021
sS'GGGACG'
p1907
I4011
sS'CCCCGC'
p1908
I14341
sS'AATGGA'
p1909
I7542
sS'AATGGG'
p1910
I6504
sS'CAATAC'
p1911
I3083
sS'GATCAA'
p1912
I3664
sS'CCCCGA'
p1913
I3738
sS'AATAGA'
p1914
I6155
sS'ACAATA'
p1915
I4889
sS'CAACTA'
p1916
I3570
sS'GAGATC'
p1917
I4174
sS'GTGAAT'
p1918
I5226
sS'AGCCAG'
p1919
I12657
sS'GGAGGG'
p1920
I16702
sS'AAAAGT'
p1921
I10330
sS'TTGACG'
p1922
I1078
sS'GGAGGC'
p1923
I13589
sS'TGGTAG'
p1924
I3976
sS'TGACCT'
p1925
I9038
sS'GAGTGT'
p1926
I5104
sS'TGGTAC'
p1927
I2549
sS'TGGTAA'
p1928
I5087
sS'AAAAGG'
p1929
I11131
sS'GGAGGT'
p1930
I7831
sS'TTCGTC'
p1931
I1332
sS'AGCCAT'
p1932
I5811
sS'AAAAGC'
p1933
I9229
sS'AAAAGA'
p1934
I14221
sS'TTGACT'
p1935
I5591
sS'GAGTGG'
p1936
I7127
sS'CGCCAG'
p1937
I4991
sS'TGGTAT'
p1938
I3624
sS'CGCCAA'
p1939
I2284
sS'GAGTGC'
p1940
I5155
sS'CGCCAC'
p1941
I4266
sS'GAGTGA'
p1942
I6734
sS'GCCAGG'
p1943
I14880
sS'GCCAGA'
p1944
I8998
sS'GCCAGC'
p1945
I10783
sS'GCCCGT'
p1946
I2535
sS'TACCGA'
p1947
I853
sS'TACCGC'
p1948
I1254
sS'TACCGG'
p1949
I1191
sS'GCCCGC'
p1950
I8445
sS'GCCAGT'
p1951
I6621
sS'GCCCGA'
p1952
I3171
sS'GCCCGG'
p1953
I9113
sS'TGCGAT'
p1954
I1037
sS'CTTCAC'
p1955
I6452
sS'CTTCAA'
p1956
I6182
sS'CTTCAG'
p1957
I9000
sS'TCCGAG'
p1958
I2879
sS'TCCGAA'
p1959
I1643
sS'TCCGAC'
p1960
I1451
sS'AATTCA'
p1961
I7490
sS'TATTAG'
p1962
I3789
sS'AATTCC'
p1963
I6845
sS'AATTCG'
p1964
I1150
sS'TCCGAT'
p1965
I1060
sS'ACATAC'
p1966
I3842
sS'TAGCGG'
p1967
I1535
sS'TAGCGA'
p1968
I982
sS'TAGCGC'
p1969
I1316
sS'GTCATC'
p1970
I4450
sS'GTCATA'
p1971
I3194
sS'GTCATG'
p1972
I4608
sS'ATCTCT'
p1973
I7375
sS'AGCAGG'
p1974
I11443
sS'CCAGGT'
p1975
I8670
sS'TTGGAA'
p1976
I9034
sS'AGCAGC'
p1977
I11495
sS'AGCAGA'
p1978
I10384
sS'GTCATT'
p1979
I6183
sS'CCAGGG'
p1980
I13842
sS'AGCAGT'
p1981
I7396
sS'CCAGGA'
p1982
I13732
sS'CCAGGC'
p1983
I15476
sS'AGCGCT'
p1984
I3306
sS'ATAGAG'
p1985
I4203
sS'CATCTG'
p1986
I7818
sS'GATCGG'
p1987
I1055
sS'CATCTA'
p1988
I4115
sS'GATCGA'
p1989
I764
sS'CATCTC'
p1990
I6658
sS'CAAGCT'
p1991
I6206
sS'ATTAGA'
p1992
I4635
sS'GGATGG'
p1993
I6045
sS'CAAGCC'
p1994
I6528
sS'CATCTT'
p1995
I6666
sS'CAAGCA'
p1996
I6690
sS'CAAGCG'
p1997
I2390
sS'ACTCGA'
p1998
I1251
sS'GTTCTT'
p1999
I6591
sS'ACATGA'
p2000
I5777
sS'CGTAAT'
p2001
I956
sS'ACATGC'
p2002
I4871
sS'ACATGG'
p2003
I6013
sS'CCCGCT'
p2004
I5113
sS'GTACAT'
p2005
I3327
sS'GGCCAT'
p2006
I5057
sS'CGTAAG'
p2007
I1152
sS'GTTCTG'
p2008
I7470
sS'ACATGT'
p2009
I5911
sS'CGTAAC'
p2010
I957
sS'CGTAAA'
p2011
I1297
sS'AGGGAG'
p2012
I14202
sS'ACGGAA'
p2013
I2321
sS'GGATAC'
p2014
I2299
sS'CCCGCC'
p2015
I16765
sS'AGGGAA'
p2016
I12338
sS'AAACTA'
p2017
I6496
sS'AGCGCA'
p2018
I2638
sS'GTTGTT'
p2019
I5683
sS'ATTAGC'
p2020
I3663
sS'ATCCTT'
p2021
I5433
sS'TTGTCG'
p2022
I1041
sS'TTGTCC'
p2023
I5695
sS'TTGTCA'
p2024
I6074
sS'ATCCTC'
p2025
I5395
sS'GTTGTA'
p2026
I3365
sS'ATCCTA'
p2027
I3660
sS'GTTGTC'
p2028
I3425
sS'ATCCTG'
p2029
I7272
sS'GTTGTG'
p2030
I5131
sS'TTGTCT'
p2031
I6807
sS'ACCTCA'
p2032
I6726
sS'TCTTGC'
p2033
I6323
sS'TGGGCC'
p2034
I8514
sS'TGACTC'
p2035
I7532
sS'TGGGCA'
p2036
I9548
sS'TGGGCG'
p2037
I5730
sS'TGACTG'
p2038
I7364
sS'AAGCCG'
p2039
I3072
sS'NNNNGC'
p2040
I1
sS'AAGCCC'
p2041
I7237
sS'AAGCCA'
p2042
I9246
sS'CAAAAT'
p2043
I10048
sS'TGACTT'
p2044
I7816
sS'TGGGCT'
p2045
I9337
sS'CAAAAC'
p2046
I8821
sS'CAAAAA'
p2047
I12166
sS'AAGCCT'
p2048
I7443
sS'CAAAAG'
p2049
I9368
sS'TGATTT'
p2050
I9661
sS'TCAATG'
p2051
I4836
sS'CCCTTA'
p2052
I4094
sS'TCAATC'
p2053
I3477
sS'TCAATA'
p2054
I4966
sS'CAGTTC'
p2055
I7116
sS'GACCCG'
p2056
I3387
sS'GACCCA'
p2057
I5744
sS'GACCCC'
p2058
I5380
sS'CTCTGT'
p2059
I11681
sS'TAATGA'
p2060
I6050
sS'TCAATT'
p2061
I5219
sS'TGGCGT'
p2062
I2326
sS'CTCTGC'
p2063
I13172
sS'GACCCT'
p2064
I5378
sS'CTCTGA'
p2065
I10685
sS'ACAATC'
p2066
I3698
sS'CTCTGG'
p2067
I13024
sS'CAGTTT'
p2068
I10156
sS'GCGAAG'
p2069
I2515
sS'CTACTC'
p2070
I3951
sS'TGCTGG'
p2071
I11951
sS'CGAGGT'
p2072
I2529
sS'GCGAAC'
p2073
I1335
sS'GAGTCT'
p2074
I5629
sS'TGCTGC'
p2075
I10182
sS'TAGGGA'
p2076
I5051
sS'GCTGGT'
p2077
I7307
sS'GTGATT'
p2078
I5683
sS'CGCCGT'
p2079
I2188
sS'CTACTA'
p2080
I2907
sS'TGCTGT'
p2081
I9432
sS'AGCTGA'
p2082
I9082
sS'GCCCTT'
p2083
I7777
sS'TCGCTA'
p2084
I988
sS'ATGCGG'
p2085
I1457
sS'GTGATG'
p2086
I5193
sS'GCTGGG'
p2087
I16548
sS'GTGATC'
p2088
I3727
sS'GCTGGC'
p2089
I10796
sS'GTGATA'
p2090
I3343
sS'GCTGGA'
p2091
I10818
sS'TGATAA'
p2092
I5265
sS'TGATAC'
p2093
I2766
sS'TGATAG'
p2094
I3290
sS'CTTGTT'
p2095
I7353
sS'GACGGT'
p2096
I1515
sS'GCTAGG'
p2097
I4390
sS'GCTAGA'
p2098
I3812
sS'ATGAAT'
p2099
I7061
sS'GCTAGC'
p2100
I2895
sS'ATAGGG'
p2101
I3152
sS'TGATAT'
p2102
I3981
sS'GTAGTG'
p2103
I3216
sS'CTGTGC'
p2104
I8995
sS'ATGAAC'
p2105
I4733
sS'GACGGG'
p2106
I3336
sS'CTTGTG'
p2107
I6392
sS'GACGGA'
p2108
I2202
sS'ATGAAG'
p2109
I6875
sS'GACGGC'
p2110
I2619
sS'CTTGTC'
p2111
I5302
sS'GCACTT'
p2112
I6424
sS'GNCCGC'
p2113
I1
sS'CAACGT'
p2114
I1576
sS'GGTGAA'
p2115
I6041
sS'GGTGAC'
p2116
I6124
sS'GCGTCT'
p2117
I2622
sS'TGTAAA'
p2118
I8677
sS'GGTGAG'
p2119
I8109
sS'GGAATG'
p2120
I7304
sS'CGTCCT'
p2121
I2943
sS'GGAATC'
p2122
I5058
sS'GGAATA'
p2123
I4564
sS'GCGTCA'
p2124
I2236
sS'GTTATG'
p2125
I3125
sS'GCGTCC'
p2126
I3723
sS'GGTGAT'
p2127
I4394
sS'GCGTCG'
p2128
I1752
sS'CGTCCG'
p2129
I1931
sS'GGAATT'
p2130
I6906
sS'CGTCCC'
p2131
I3971
sS'CGTCCA'
p2132
I2086
sS'TTTCGA'
p2133
I1385
sS'CCGTAT'
p2134
I892
sS'GAAGTC'
p2135
I5731
sS'GAAGTA'
p2136
I4814
sS'GAAGTG'
p2137
I7981
sS'GCCGTA'
p2138
I1063
sS'CCGTAC'
p2139
I839
sS'CCGTAA'
p2140
I1072
sS'CCGTAG'
p2141
I1415
sS'CAAAGT'
p2142
I9507
sS'GCCGTT'
p2143
I1819
sS'GAAGTT'
p2144
I6750
sS'GGCGCG'
p2145
I7584
sS'ATGCCC'
p2146
I4747
sS'TTAGTT'
p2147
I5438
sS'GCACTC'
p2148
I5174
sS'GGCGCC'
p2149
I7889
sS'ATGCCG'
p2150
I1471
sS'GGCGCA'
p2151
I4029
sS'TATTAC'
p2152
I3940
sS'ACTATG'
p2153
I3786
sS'CCATAT'
p2154
I3301
sS'TTTAAG'
p2155
I7473
sS'ACTATC'
p2156
I2410
sS'TTTAAA'
p2157
I18322
sS'ACTATA'
p2158
I2976
sS'TTTAAC'
p2159
I6437
sS'TATTAT'
p2160
I6315
sS'TTAGTG'
p2161
I4280
sS'GGCGCT'
p2162
I5207
sS'TTAGTC'
p2163
I3441
sS'ATGCCT'
p2164
I5983
sS'TTAGTA'
p2165
I3951
sS'TTTAAT'
p2166
I10052
sS'CTAACG'
p2167
I1153
sS'GGGCAT'
p2168
I4800
sS'ACGTTT'
p2169
I2435
sS'TTTCCA'
p2170
I12863
sS'TTTCCC'
p2171
I13081
sS'GTACGT'
p2172
I916
sS'GTTTGT'
p2173
I7850
sS'TTCTAA'
p2174
I7670
sS'TTTCCT'
p2175
I17022
sS'GGGCAG'
p2176
I14454
sS'GTCTGT'
p2177
I6492
sS'GGGCAA'
p2178
I6941
sS'ATCCGT'
p2179
I1107
sS'GGGCAC'
p2180
I6746
sS'GTTTGC'
p2181
I6320
sS'CTATTT'
p2182
I8328
sS'GTTTGA'
p2183
I5677
sS'GTTTGG'
p2184
I6796
sS'GTACGA'
p2185
I542
sS'CCGCTC'
p2186
I5383
sS'GCATGT'
p2187
I4837
sS'CCGCTA'
p2188
I1545
sS'CCGCTG'
p2189
I5716
sS'TGAAAA'
p2190
I12703
sS'GCGCGG'
p2191
I8227
sS'GCGCGC'
p2192
I8799
sS'ATCAAC'
p2193
I3310
sS'GCGCGA'
p2194
I2518
sS'GCATGG'
p2195
I4895
sS'GCATGC'
p2196
I4823
sS'CCGCTT'
p2197
I3146
sS'GCATGA'
p2198
I4788
sS'GTCGAC'
p2199
I679
sS'GCGCGT'
p2200
I2528
sS'GTCGAG'
p2201
I1269
sS'AGACAT'
p2202
I5373
sS'ACCGAG'
p2203
I2395
sS'TGCGCT'
p2204
I2679
sS'GAGCTC'
p2205
I7410
sS'ATTGAT'
p2206
I4459
sS'GAGCTG'
p2207
I11509
sS'AAACGA'
p2208
I2079
sS'AAACGC'
p2209
I2285
sS'GTAACA'
p2210
I4512
sS'GTAGTA'
p2211
I2445
sS'AAACGG'
p2212
I2369
sS'TGTCCC'
p2213
I7536
sS'TGCGCG'
p2214
I3420
sS'TGTCCA'
p2215
I6709
sS'GAGCTT'
p2216
I6181
sS'TGCGCC'
p2217
I4016
sS'ATTGAG'
p2218
I4816
sS'CGCTGA'
p2219
I3117
sS'TAGTGG'
p2220
I4140
sS'ACCGAC'
p2221
I1253
sS'AAACGT'
p2222
I2418
sS'TGGGTT'
p2223
I6698
sS'CACGCC'
p2224
I4716
sS'ATTTCC'
p2225
I10337
sS'ATCAGT'
p2226
I5221
sS'ATCGGG'
p2227
I1288
sS'CATAGT'
p2228
I3646
sS'ATCGGC'
p2229
I1134
sS'ATCGGA'
p2230
I956
sS'TGGGTG'
p2231
I8900
sS'CGATCA'
p2232
I901
sS'TGGGTC'
p2233
I5559
sS'TGGGTA'
p2234
I4497
sS'CATAGG'
p2235
I3323
sS'ATCGGT'
p2236
I803
sS'CATGAC'
p2237
I4656
sS'ATCAGA'
p2238
I6523
sS'CATAGA'
p2239
I3930
sS'ACGGGT'
p2240
I1336
sS'CCTGGT'
p2241
I8064
sS'ATTCGG'
p2242
I1238
sS'GATTCT'
p2243
I5834
sS'CTTTTG'
p2244
I9506
sS'GCGTTC'
p2245
I2105
sS'CTTTTC'
p2246
I12044
sS'CAGCAA'
p2247
I8947
sS'CTTTTA'
p2248
I9000
sS'GATTCC'
p2249
I4964
sS'ACGGGG'
p2250
I3257
sS'ACGGGA'
p2251
I2558
sS'ACGGGC'
p2252
I2484
sS'TACTAT'
p2253
I3426
sS'CTTTTT'
p2254
I14939
sS'ACCAAC'
p2255
I4084
sS'CGTAGA'
p2256
I1050
sS'TCACGA'
p2257
I1434
sS'TCACGC'
p2258
I2515
sS'CGATTG'
p2259
I1272
sS'TCACGG'
p2260
I2309
sS'TCACGT'
p2261
I2696
sS'TTCCAC'
p2262
I7541
sS'TTCCAA'
p2263
I9209
sS'TTCCAG'
p2264
I12286
sS'ACCCTT'
p2265
I5430
sS'TGAAGT'
p2266
I6848
sS'ATGCTT'
p2267
I5831
sS'TTCCAT'
p2268
I7737
sS'TGAAGC'
p2269
I6382
sS'TGAAGA'
p2270
I8007
sS'TGAAGG'
p2271
I7260
sS'ACCCTG'
p2272
I8414
sS'CTGACT'
p2273
I7769
sS'CCCCTT'
p2274
I8301
sS'AGTTAT'
p2275
I4639
sS'ACATAT'
p2276
I5008
sS'CTGACG'
p2277
I2610
sS'CTGACC'
p2278
I7880
sS'CTGACA'
p2279
I7068
sS'AGTTAA'
p2280
I6333
sS'CCCCTG'
p2281
I10141
sS'AGTTAC'
p2282
I4547
sS'CCCCTC'
p2283
I12371
sS'AGTTAG'
p2284
I4069
sS'CCCCTA'
p2285
I4233
sS'ACACAG'
p2286
I10897
sS'ACACAA'
p2287
I7814
sS'ACACAC'
p2288
I13602
sS'AATGTT'
p2289
I9258
sS'CTGCAG'
p2290
I14164
sS'CATGGG'
p2291
I5623
sS'CATGGA'
p2292
I6030
sS'CATGGC'
p2293
I6191
sS'AATGTC'
p2294
I5641
sS'ACACAT'
p2295
I7219
sS'AATGTA'
p2296
I6081
sS'AATGTG'
p2297
I7870
sS'GCACAC'
p2298
I5822
sS'GCACAA'
p2299
I5451
sS'GCACAG'
p2300
I9266
sS'ACATTT'
p2301
I11933
sS'CGAGAT'
p2302
I1452
sS'ATTACT'
p2303
I4946
sS'ACATTG'
p2304
I5271
sS'ACATTA'
p2305
I5406
sS'ACATTC'
p2306
I6322
sS'ATTACA'
p2307
I6910
sS'ATGCTC'
p2308
I4382
sS'GTTCGC'
p2309
I1323
sS'CGAGAC'
p2310
I2191
sS'GTTCGG'
p2311
I1512
sS'AAGTCT'
p2312
I6154
sS'ACCCTA'
p2313
I3279
sS'GCTATT'
p2314
I4355
sS'GGACAT'
p2315
I4414
sS'GCTATA'
p2316
I2317
sS'GCTATC'
p2317
I2258
sS'AAGTCG'
p2318
I1445
sS'AACCTA'
p2319
I3851
sS'AAGTCA'
p2320
I7848
sS'GCTATG'
p2321
I3446
sS'AAGTCC'
p2322
I6651
sS'GGACAG'
p2323
I8860
sS'GGACAC'
p2324
I5744
sS'GGACAA'
p2325
I5632
sS'CTAATT'
p2326
I5242
sS'AGGGTT'
p2327
I6012
sS'GAGGCG'
p2328
I7703
sS'TGTTGG'
p2329
I6338
sS'GAGGCA'
p2330
I9293
sS'TGTTGA'
p2331
I6596
sS'GAGGCC'
p2332
I10916
sS'TGTTGC'
p2333
I6122
sS'CAATGT'
p2334
I5429
sS'TAAAAT'
p2335
I12918
sS'ACTCGC'
p2336
I1889
sS'AAGCTT'
p2337
I6429
sS'ACTCGG'
p2338
I2532
sS'TGTTGT'
p2339
I6738
sS'GAGGCT'
p2340
I10066
sS'AGCGCC'
p2341
I5140
sS'AGGGTG'
p2342
I7853
sS'AGGGTA'
p2343
I3861
sS'AGCGCG'
p2344
I3941
sS'AGGGTC'
p2345
I5348
sS'TAAAAG'
p2346
I9008
sS'ACTCGT'
p2347
I1208
sS'TAAAAC'
p2348
I7742
sS'TAAAAA'
p2349
I15890
sS'ACGTTC'
p2350
I1594
sS'AGCTGC'
p2351
I10306
sS'ACGTTA'
p2352
I1207
sS'TAGGGC'
p2353
I3767
sS'ACGTTG'
p2354
I1494
sS'AGCTGG'
p2355
I12247
sS'TAGGGG'
p2356
I4103
sS'AGTGCG'
p2357
I2218
sS'AGTGCA'
p2358
I6220
sS'AGAGTT'
p2359
I7434
sS'AGTGCC'
p2360
I6412
sS'CCAAAA'
p2361
I8982
sS'TAGGGT'
p2362
I3352
sS'GCATAG'
p2363
I2753
sS'AGCTGT'
p2364
I8730
sS'CTACTT'
p2365
I4987
sS'AGTGCT'
p2366
I7661
sS'AGAGTC'
p2367
I6191
sS'AGAGTA'
p2368
I4730
sS'AGAGTG'
p2369
I7299
sS'TTCGTA'
p2370
I969
sS'GTTAAA'
p2371
I6420
sS'CCTGGC'
p2372
I15095
sS'GTTAAC'
p2373
I3261
sS'CCTGGA'
p2374
I12186
sS'CCTGGG'
p2375
I16989
sS'GTTAAG'
p2376
I3875
sS'TAACCA'
p2377
I4850
sS'CTAATC'
p2378
I3256
sS'GTCTGG'
p2379
I6930
sS'GTCTGC'
p2380
I5502
sS'GTTAAT'
p2381
I4931
sS'GTCTGA'
p2382
I5457
sS'CCGGTC'
p2383
I2612
sS'GGAAGG'
p2384
I13824
sS'CCACAT'
p2385
I6406
sS'GGAAGC'
p2386
I10422
sS'GCACCG'
p2387
I3349
sS'GGAAGA'
p2388
I11178
sS'GCGTTA'
p2389
I1013
sS'TCCTCT'
p2390
I11890
sS'CCCGCA'
p2391
I4227
sS'CAATGC'
p2392
I4288
sS'GCGTTG'
p2393
I1767
sS'CAATGG'
p2394
I5149
sS'CCACAG'
p2395
I10984
sS'GGAAGT'
p2396
I9104
sS'CCACAC'
p2397
I7740
sS'ATGCTA'
p2398
I3781
sS'ATTTGT'
p2399
I9101
sS'TCCTCG'
p2400
I3267
sS'TGTATG'
p2401
I4320
sS'TCCTCA'
p2402
I9047
sS'GCGTTT'
p2403
I2394
sS'TCCTCC'
p2404
I14397
sS'TGTATC'
p2405
I3446
sS'CGTTAG'
p2406
I1124
sS'TAACCG'
p2407
I1007
sS'TCATAG'
p2408
I4086
sS'TTCGTG'
p2409
I1627
sS'TCATAA'
p2410
I5053
sS'TAACCC'
p2411
I3594
sS'CGTTAA'
p2412
I1098
sS'TCATAT'
p2413
I4327
sS'ACCGCT'
p2414
I2008
sS'TGCATG'
p2415
I5615
sS'TTCGTT'
p2416
I1728
sS'TACCCT'
p2417
I3980
sS'TAACCT'
p2418
I4932
sS'GTGAAG'
p2419
I6393
sS'GTGAAA'
p2420
I8703
sS'GATCGC'
p2421
I1308
sS'GTGAAC'
p2422
I4260
sS'CAATAG'
p2423
I3999
sS'TGCATA'
p2424
I4309
sS'ACCGCG'
p2425
I2598
sS'ACCGCA'
p2426
I2096
sS'AACGAG'
p2427
I1673
sS'ACCGCC'
p2428
I4115
sS'AGTTCC'
p2429
I6596
sS'CCGCCT'
p2430
I8182
sS'AGGCTT'
p2431
I7507
sS'CCTTCT'
p2432
I10194
sS'GTTGCA'
p2433
I5125
sS'AACGAA'
p2434
I1817
sS'GTTGCC'
p2435
I4962
sS'GTGCCG'
p2436
I2509
sS'GTGCCA'
p2437
I6700
sS'GTTGCG'
p2438
I1457
sS'GTGCCC'
p2439
I6652
sS'CCGCCG'
p2440
I9493
sS'AGGCTA'
p2441
I4336
sS'CCTTCC'
p2442
I13647
sS'AGGCTC'
p2443
I7912
sS'CCGCCC'
p2444
I16458
sS'AACGAC'
p2445
I1132
sS'CCGCCA'
p2446
I5526
sS'AGGCTG'
p2447
I13976
sS'GTGCCT'
p2448
I6891
sS'CAGCGA'
p2449
I3062
sS'GTTGCT'
p2450
I5846
sS'NNNGCG'
p2451
I1
sS'GGATAT'
p2452
I3259
sS'ATAGGT'
p2453
I3031
sS'TCGGGT'
p2454
I1806
sS'AAACCT'
p2455
I7458
sS'GCAGTT'
p2456
I6684
sS'GAAGCT'
p2457
I7659
sS'TCGGGC'
p2458
I3161
sS'ATGCCA'
p2459
I6221
sS'TCGGGA'
p2460
I2644
sS'NNNNNG'
p2461
I2
sS'TCGGGG'
p2462
I3726
sS'GGATAG'
p2463
I2826
sS'GAAGCG'
p2464
I3559
sS'ATGTGG'
p2465
I6406
sS'GCAGTG'
p2466
I9712
sS'GAAGCC'
p2467
I8313
sS'GCAGTA'
p2468
I4278
sS'GAAGCA'
p2469
I8200
sS'GCAGTC'
p2470
I5476
sS'CGCCCG'
p2471
I6911
sS'GAGAGA'
p2472
I12345
sS'GAGAGG'
p2473
I12390
sS'CGCCCA'
p2474
I5511
sS'ACGTAA'
p2475
I1390
sS'ACGCAG'
p2476
I3096
sS'NNNNNN'
p2477
I253
sS'GCATTC'
p2478
I4809
sS'GCATTA'
p2479
I3504
sS'CTCGCA'
p2480
I2195
sS'CGCCCT'
p2481
I6064
sS'GAGAGT'
p2482
I6018
sS'CTATAT'
p2483
I3117
sS'AACTGA'
p2484
I7979
sS'GCCGGG'
p2485
I10008
sS'AGCATC'
p2486
I4295
sS'TACCCG'
p2487
I1341
sS'GCCGGC'
p2488
I7433
sS'CATGTT'
p2489
I6591
sS'GCCGGA'
p2490
I4338
sS'AGATCT'
p2491
I5067
sS'ACGTAG'
p2492
I1309
sS'CGAGCG'
p2493
I2800
sS'GCCACT'
p2494
I7522
sS'CATGTA'
p2495
I4310
sS'CATGTC'
p2496
I4488
sS'GCCGGT'
p2497
I2653
sS'CATGTG'
p2498
I7205
sS'GTGCGA'
p2499
I1341
sS'TACCCC'
p2500
I3018
sS'GGCCTG'
p2501
I12389
sS'GGCCTC'
p2502
I10685
sS'NNGCGC'
p2503
I1
sS'GGCCTA'
p2504
I3572
sS'TTTGTT'
p2505
I14849
sS'AATCGG'
p2506
I1291
sS'AATCGC'
p2507
I1345
sS'AATCGA'
p2508
I1195
sS'GTTCAG'
p2509
I6421
sS'GGCCTT'
p2510
I7526
sS'TCACTA'
p2511
I4215
sS'TCACTC'
p2512
I6644
sS'AATCGT'
p2513
I1117
sS'AGCCGA'
p2514
I2989
sS'CCTTCA'
p2515
I7386
sS'AGCCGC'
p2516
I5536
sS'TAATTG'
p2517
I4522
sS'AAAAAT'
p2518
I17557
sS'AGCCGG'
p2519
I5534
sS'GTTTTT'
p2520
I11409
sS'TGGTGA'
p2521
I7246
sS'TCTCAT'
p2522
I6996
sS'TGGTGC'
p2523
I5550
sS'GATGGC'
p2524
I4965
sS'GGGCTG'
p2525
I13900
sS'TGGTGG'
p2526
I8328
sS'GATGGG'
p2527
I5979
sS'AAAAAA'
p2528
I38811
sS'CAGCTG'
p2529
I14038
sS'GTTTTA'
p2530
I7625
sS'GAGCGA'
p2531
I2883
sS'AGCCGT'
p2532
I2147
sS'GAGCGC'
p2533
I4985
sS'TGACAG'
p2534
I7848
sS'CCAAGG'
p2535
I8859
sS'ACGTAT'
p2536
I1019
sS'TCTCAG'
p2537
I9800
sS'CCAAGC'
p2538
I7032
sS'TGGTGT'
p2539
I5976
sS'TCTCAC'
p2540
I6628
sS'AGAACT'
p2541
I7500
sS'CCTTCG'
p2542
I2630
sS'TACCAT'
p2543
I3508
sS'GATTTC'
p2544
I6641
sS'CCTATT'
p2545
I4630
sS'ACCCGG'
p2546
I4027
sS'ACCCGA'
p2547
I1925
sS'AGATAC'
p2548
I3534
sS'ACCCGC'
p2549
I3676
sS'ACCAGT'
p2550
I4665
sS'TACCAC'
p2551
I3345
sS'AGAACG'
p2552
I2155
sS'TACCAA'
p2553
I4058
sS'ATTGCC'
p2554
I4470
sS'TACCAG'
p2555
I4295
sS'AGAACC'
p2556
I5537
sS'ACCAGC'
p2557
I7051
sS'CACTGG'
p2558
I8931
sS'ATGTCC'
p2559
I4653
sS'TGACAA'
p2560
I5942
sS'ACCAGG'
p2561
I8096
sS'CACTGC'
p2562
I9771
sS'CCTATC'
p2563
I3146
sS'TCCCGG'
p2564
I6447
sS'GAGTCA'
p2565
I7661
sS'TAGGTT'
p2566
I3837
sS'GTTTAC'
p2567
I4825
sS'AATTAT'
p2568
I7482
sS'CTGTTG'
p2569
I7663
sS'GTAACC'
p2570
I3070
sS'TGGATC'
p2571
I3887
sS'CGGGTT'
p2572
I2408
sS'CTGTTA'
p2573
I5739
sS'AATTAC'
p2574
I5074
sS'TAGGTG'
p2575
I4256
sS'AATTAG'
p2576
I5028
sS'TAGGTC'
p2577
I3046
sS'CGGGTC'
p2578
I3274
sS'CTGTTT'
p2579
I12468
sS'CGGGTA'
p2580
I1404
sS'CGGGTG'
p2581
I3694
sS'CCAAAC'
p2582
I6876
sS'AAGTAA'
p2583
I7348
sS'CATTAC'
p2584
I3674
sS'GCAATG'
p2585
I5309
sS'AGCAAA'
p2586
I10917
sS'ATATAT'
p2587
I7420
sS'AGCAAC'
p2588
I5727
sS'TTAGGC'
p2589
I3672
sS'AAAGCT'
p2590
I8538
sS'TTAGGA'
p2591
I5594
sS'AAAGCA'
p2592
I11521
sS'AAAGCC'
p2593
I8260
sS'TTAGGT'
p2594
I3971
sS'GAGTCG'
p2595
I2030
sS'AGCAAT'
p2596
I6154
sS'AAAGCG'
p2597
I2646
sS'TGCTAC'
p2598
I3557
sS'ATAGCC'
p2599
I2954
sS'TACTTG'
p2600
I4239
sS'ATAGCG'
p2601
I874
sS'CAGCAT'
p2602
I6952
sS'TGCTAA'
p2603
I5422
sS'ATAGCT'
p2604
I4077
sS'TACTTT'
p2605
I7706
sS'GGGTAA'
p2606
I3943
sS'CTTCGA'
p2607
I1319
sS'CGAGTT'
p2608
I1603
sS'TCCAAT'
p2609
I4773
sS'CGTACT'
p2610
I877
sS'TCCCGT'
p2611
I2475
sS'TATGCT'
p2612
I3817
sS'CTTAAG'
p2613
I4126
sS'ACATAA'
p2614
I5769
sS'CTTAAA'
p2615
I7453
sS'AGGGGT'
p2616
I5968
sS'CTTAAC'
p2617
I3912
sS'TCCAAG'
p2618
I7277
sS'CGAGTG'
p2619
I2103
sS'TTGTTA'
p2620
I5922
sS'TCCAAC'
p2621
I4922
sS'TCCAAA'
p2622
I9629
sS'AGGGGA'
p2623
I10252
sS'CTTAAT'
p2624
I4765
sS'AGGGGC'
p2625
I10122
sS'TATGCA'
p2626
I4234
sS'AGGGGG'
p2627
I8543
sS'CGTTTG'
p2628
I2093
sS'CGACTT'
p2629
I1510
sS'GGATAA'
p2630
I3726
sS'TTGTAA'
p2631
I6557
sS'TTGTAC'
p2632
I3562
sS'GTACCT'
p2633
I3201
sS'TTGTAG'
p2634
I4720
sS'TGAATC'
p2635
I5088
sS'ACAACA'
p2636
I6713
sS'TGAATA'
p2637
I6070
sS'CGACTC'
p2638
I1958
sS'TGAATG'
p2639
I7597
sS'AAGTAT'
p2640
I4899
sS'CGACTG'
p2641
I1888
sS'TTGTAT'
p2642
I5303
sS'ATCGTG'
p2643
I1217
sS'GCTTCG'
p2644
I2285
sS'GCTTCA'
p2645
I6341
sS'GCTTCC'
p2646
I10326
sS'TGGGAG'
p2647
I12678
sS'TGGGAA'
p2648
I11971
sS'TGGGAC'
p2649
I6356
sS'GCTTCT'
p2650
I8690
sS'ATCGTT'
p2651
I1098
sS'ACAACG'
p2652
I1333
sS'TGGGAT'
p2653
I6640
sS'GGGCTA'
p2654
I3503
sS'CTAGCC'
p2655
I3882
sS'CTAGCA'
p2656
I4086
sS'CTAGCG'
p2657
I1535
sS'CGGTAG'
p2658
I1397
sS'ACTTAG'
p2659
I4249
sS'ACTTAA'
p2660
I5536
sS'CGGTAC'
p2661
I903
sS'ACTTAC'
p2662
I3952
sS'CGGTAA'
p2663
I1233
sS'GACCAG'
p2664
I6064
sS'GACCAC'
p2665
I3868
sS'TTGCCC'
p2666
I7001
sS'CTAGCT'
p2667
I4349
sS'TACACC'
p2668
I2752
sS'CGGTAT'
p2669
I713
sS'TACACA'
p2670
I6721
sS'TACACG'
p2671
I1218
sS'CGTTTA'
p2672
I1451
sS'GCGAGA'
p2673
I2920
sS'GAGAGC'
p2674
I7934
sS'GCGAGC'
p2675
I3789
sS'GGCCGT'
p2676
I2842
sS'GCGAGG'
p2677
I5107
sS'TTAAGA'
p2678
I5994
sS'CAGCCG'
p2679
I5949
sS'CAGCCA'
p2680
I12753
sS'CAGCCC'
p2681
I13854
sS'GCGAGT'
p2682
I1982
sS'CTCGCT'
p2683
I3686
sS'GAACTC'
p2684
I5618
sS'GAACTA'
p2685
I3831
sS'GGACTT'
p2686
I6650
sS'CACCTA'
p2687
I4311
sS'AACTAT'
p2688
I4438
sS'CACCTC'
p2689
I8722
sS'CACCTG'
p2690
I9219
sS'TGATCC'
p2691
I4106
sS'AACACT'
p2692
I6942
sS'TGATCA'
p2693
I4468
sS'GCTCCA'
p2694
I8256
sS'ATTTAA'
p2695
I10289
sS'TAGATA'
p2696
I3785
sS'AACTAG'
p2697
I4199
sS'GGACTG'
p2698
I7100
sS'CACCTT'
p2699
I6536
sS'GGACTA'
p2700
I3155
sS'GGACTC'
p2701
I6025
sS'AACGAT'
p2702
I1039
sS'AACACG'
p2703
I2094
sS'AACACA'
p2704
I9568
sS'AACACC'
p2705
I5107
sS'TGATCT'
p2706
I5596
sS'CCAGCA'
p2707
I11748
sS'ACGCAC'
p2708
I2069
sS'CAACAG'
p2709
I7687
sS'GACAGT'
p2710
I5318
sS'CAACAA'
p2711
I6672
sS'AAAGAA'
p2712
I16515
sS'CAACAC'
p2713
I5400
sS'GCTGAT'
p2714
I5194
sS'ACGCAA'
p2715
I1593
sS'GACAGG'
p2716
I7977
sS'CAACAT'
p2717
I5939
sS'GACAGC'
p2718
I6819
sS'GACAGA'
p2719
I8500
sS'GTATTA'
p2720
I3486
sS'GTATTC'
p2721
I3060
sS'GTAAGT'
p2722
I3772
sS'ATATCA'
p2723
I4022
sS'AGAGGT'
p2724
I7681
sS'GGTGGC'
p2725
I9338
sS'TCCCCT'
p2726
I10275
sS'GGTGGA'
p2727
I7475
sS'CGTCAT'
p2728
I1666
sS'GGTGGG'
p2729
I11384
sS'ATCCCT'
p2730
I5502
sS'AGAGGC'
p2731
I10765
sS'GTAAGA'
p2732
I4175
sS'AGAGGA'
p2733
I12179
sS'CTCGCC'
p2734
I4805
sS'AGAGGG'
p2735
I11469
sS'GTAAGG'
p2736
I3549
sS'TCCCCG'
p2737
I6393
sS'CGTCAC'
p2738
I2825
sS'TCCCCC'
p2739
I8531
sS'GGTGGT'
p2740
I5665
sS'TCCCCA'
p2741
I11503
sS'GTCGCG'
p2742
I1858
sS'GTCGCA'
p2743
I1323
sS'GTCGCC'
p2744
I2881
sS'CCGTCT'
p2745
I2723
sS'TCGGTA'
p2746
I878
sS'CTCGCG'
p2747
I3366
sS'TCGGTG'
p2748
I2121
sS'GTCGCT'
p2749
I2007
sS'TACCTA'
p2750
I3305
sS'CCGTCG'
p2751
I1563
sS'CCGTCA'
p2752
I1989
sS'TCGGTT'
p2753
I1549
sS'GGCTGT'
p2754
I8749
sS'CGCGTG'
p2755
I2351
sS'GCATTT'
p2756
I8469
sS'CGCGTC'
p2757
I2470
sS'CGCGTA'
p2758
I650
sS'CCACTG'
p2759
I9646
sS'CCACTA'
p2760
I4181
sS'ATGCAC'
p2761
I3822
sS'CGCGTT'
p2762
I1381
sS'GGCTGG'
p2763
I15918
sS'GGCTGA'
p2764
I9330
sS'GGCTGC'
p2765
I12643
sS'CCACTT'
p2766
I7098
sS'TTTAGA'
p2767
I7177
sS'TTGACC'
p2768
I4476
sS'ATGACG'
p2769
I1628
sS'GGAGTT'
p2770
I6707
sS'ATGACA'
p2771
I6413
sS'ATGACC'
p2772
I4403
sS'CCTGAT'
p2773
I5519
sS'GGGCCT'
p2774
I9316
sS'TACTAC'
p2775
I2475
sS'ATGACT'
p2776
I6225
sS'GGAGTA'
p2777
I3527
sS'GGAGTC'
p2778
I6033
sS'GGAGTG'
p2779
I7662
sS'GGGCCG'
p2780
I7942
sS'GGGCCC'
p2781
I9671
sS'GGGCCA'
p2782
I8827
sS'GGCAAG'
p2783
I7112
sS'ACGAGT'
p2784
I1104
sS'TTCNNN'
p2785
I1
sS'AGGCCA'
p2786
I10212
sS'AGGCCC'
p2787
I9394
sS'AGGCCG'
p2788
I5444
sS'ACGAGG'
p2789
I2498
sS'ACGAGC'
p2790
I1466
sS'ACGAGA'
p2791
I1590
sS'GGCAAC'
p2792
I5046
sS'GCGCAT'
p2793
I1961
sS'GATTTA'
p2794
I5205
sS'AGACGG'
p2795
I2662
sS'GGGTTG'
p2796
I5465
sS'TTTGGG'
p2797
I9002
sS'CTTCGT'
p2798
I1781
sS'GGGTTC'
p2799
I4860
sS'TTTGAT'
p2800
I6769
sS'TGCAAT'
p2801
I6210
sS'TGAACT'
p2802
I7617
sS'CTACGA'
p2803
I927
sS'AACGGT'
p2804
I1292
sS'GGGTTT'
p2805
I6713
sS'TGCGAC'
p2806
I1310
sS'AGAAAT'
p2807
I11803
sS'TGCGAG'
p2808
I2148
sS'AACGGC'
p2809
I1810
sS'TTTGAG'
p2810
I8448
sS'ATTGCA'
p2811
I6271
sS'GACTAG'
p2812
I2939
sS'AACGGG'
p2813
I2005
sS'TTTGAC'
p2814
I5442
sS'TTTGAA'
p2815
I11111
sS'ATCATC'
p2816
I4415
sS'CGGGCT'
p2817
I5088
sS'TGACGT'
p2818
I2543
sS'AGTCGG'
p2819
I2133
sS'CTCGTC'
p2820
I1912
sS'CCCTGG'
p2821
I13902
sS'CCCTGA'
p2822
I8857
sS'CTCGTG'
p2823
I2251
sS'CCCTGC'
p2824
I13165
sS'CCCTGT'
p2825
I8529
sS'AAGCTC'
p2826
I6289
sS'GATATA'
p2827
I2613
sS'TGACGG'
p2828
I1938
sS'GATATG'
p2829
I2966
sS'AAGCTG'
p2830
I9249
sS'TGACGC'
p2831
I2268
sS'TACTCT'
p2832
I4784
sS'CATCGT'
p2833
I1233
sS'CCAGTA'
p2834
I4450
sS'CTACGG'
p2835
I1417
sS'CCAGTC'
p2836
I6864
sS'TACGAT'
p2837
I668
sS'CCAGTG'
p2838
I8854
sS'TACTCG'
p2839
I947
sS'CATCGA'
p2840
I1011
sS'CATCGC'
p2841
I1654
sS'TACTCC'
p2842
I3571
sS'NGAATT'
p2843
I1
sS'TACTCA'
p2844
I4823
sS'CATCGG'
p2845
I1243
sS'CAGGGG'
p2846
I10111
sS'CAGGGA'
p2847
I12629
sS'CAGGGC'
p2848
I13075
sS'AATCTG'
p2849
I6952
sS'CGGACT'
p2850
I2135
sS'AGGTAG'
p2851
I4775
sS'AGTCGA'
p2852
I996
sS'AATCTA'
p2853
I4473
sS'TGAACG'
p2854
I1567
sS'TCACAC'
p2855
I6334
sS'TCACAA'
p2856
I7054
sS'TCACAG'
p2857
I9840
sS'GCCATA'
p2858
I2802
sS'CGGACG'
p2859
I1978
sS'TCCACC'
p2860
I7664
sS'CGGACA'
p2861
I1998
sS'CGGACC'
p2862
I2459
sS'GCCATG'
p2863
I6253
sS'TTTTAA'
p2864
I17484
sS'TCACAT'
p2865
I6978
sS'ATTAAC'
p2866
I4923
sS'ATTAAA'
p2867
I9703
sS'ATTAAG'
p2868
I4840
sS'CTTACA'
p2869
I4803
sS'TCACTT'
p2870
I8656
sS'ATTCGT'
p2871
I1118
sS'GTGCAG'
p2872
I7573
sS'ATTAAT'
p2873
I6392
sS'ATCATG'
p2874
I4589
sS'TACCTG'
p2875
I4858
sS'GGTATG'
p2876
I2561
sS'GGTATA'
p2877
I1969
sS'GGTATC'
p2878
I2017
sS'CGAGAG'
p2879
I3185
sS'CAATGA'
p2880
I6080
sS'ACGAAT'
p2881
I1150
sS'GGTATT'
p2882
I3729
sS'CTGAAC'
p2883
I6281
sS'CTGAAG'
p2884
I9019
sS'ATTGTA'
p2885
I4321
sS'CCCGAA'
p2886
I2264
sS'TAGGTA'
p2887
I3298
sS'CATTGC'
p2888
I5334
sS'CCCGGC'
p2889
I9911
sS'CATTGA'
p2890
I4706
sS'CTAGTT'
p2891
I4255
sS'CATTGG'
p2892
I5037
sS'TCAACT'
p2893
I4950
sS'ATGTTA'
p2894
I5400
sS'ACACCG'
p2895
I1996
sS'CTGCCA'
p2896
I11757
sS'CTGCCC'
p2897
I14464
sS'ACACCC'
p2898
I5644
sS'ACACCA'
p2899
I5947
sS'CTGCCG'
p2900
I5556
sS'CTAGTG'
p2901
I4275
sS'TCAACC'
p2902
I3785
sS'ATGTTC'
p2903
I5049
sS'CTAGTC'
p2904
I3009
sS'TCAACG'
p2905
I1162
sS'CTAGTA'
p2906
I2686
sS'CATTGT'
p2907
I5779
sS'TATGAC'
p2908
I3271
sS'ACACCT'
p2909
I5572
sS'CTGCCT'
p2910
I14100
sS'TATCAC'
p2911
I3291
sS'CCTCGT'
p2912
I2372
sS'TATGAA'
p2913
I5517
sS'AGACTG'
p2914
I7068
sS'TCACTG'
p2915
I9797
sS'AGACTA'
p2916
I3740
sS'CCTCGG'
p2917
I5578
sS'CCTCGC'
p2918
I5260
sS'CCCGAC'
p2919
I2903
sS'CCTCGA'
p2920
I1974
sS'CGAGGA'
p2921
I3244
sS'CGAGGC'
p2922
I5026
sS'CGAGGG'
p2923
I4372
sS'ACTTTC'
p2924
I7843
sS'ACTTTA'
p2925
I6475
sS'ACTTTG'
p2926
I9442
sS'GACCTG'
p2927
I6831
sS'GGACGT'
p2928
I1928
sS'GACCTC'
p2929
I5992
sS'CACCGG'
p2930
I3070
sS'CTATTG'
p2931
I3867
sS'CACCGA'
p2932
I2051
sS'CACCGC'
p2933
I4889
sS'GACCTT'
p2934
I6059
sS'GGACGC'
p2935
I3658
sS'GGACGG'
p2936
I3571
sS'ACGCTA'
p2937
I994
sS'CACAGC'
p2938
I10815
sS'CTTATC'
p2939
I3768
sS'CACAGA'
p2940
I11414
sS'CTTATA'
p2941
I3207
sS'CACAGG'
p2942
I10256
sS'CTTATG'
p2943
I3481
sS'ACTCAT'
p2944
I5574
sS'GAGGAG'
p2945
I14131
sS'GACGTA'
p2946
I956
sS'CGTATC'
p2947
I763
sS'GACGTC'
p2948
I2231
sS'TAAACT'
p2949
I6463
sS'GAGGAA'
p2950
I12651
sS'AGCGAT'
p2951
I1451
sS'TTAACA'
p2952
I6391
sS'ACTCAC'
p2953
I6212
sS'TTAACC'
p2954
I4572
sS'ACTCAA'
p2955
I5364
sS'ACTCAG'
p2956
I8341
sS'CTTATT'
p2957
I6194
sS'CACAGT'
p2958
I8508
sS'AGCGAC'
p2959
I1970
sS'TAAACA'
p2960
I9667
sS'AGCGAA'
p2961
I1930
sS'TAAACC'
p2962
I4230
sS'GACGTT'
p2963
I1557
sS'TCTAAA'
p2964
I7190
sS'TAAACG'
p2965
I1445
sS'CTGTGG'
p2966
I11132
sS'GTATGT'
p2967
I3869
sS'AGTTCA'
p2968
I7615
sS'TACTTA'
p2969
I4613
sS'AGTTCG'
p2970
I1440
sS'TAGCCC'
p2971
I3581
sS'CTGTGA'
p2972
I9797
sS'CGGGGT'
p2973
I4093
sS'TAGGAC'
p2974
I3275
sS'GCAAAG'
p2975
I8782
sS'CCCGGT'
p2976
I2907
sS'GCAAAA'
p2977
I8489
sS'TAGGAG'
p2978
I5383
sS'GCAAAC'
p2979
I6267
sS'CGGGGC'
p2980
I11725
sS'CGGGGA'
p2981
I6431
sS'CTGTGT'
p2982
I11192
sS'GTATGA'
p2983
I2900
sS'GTATGC'
p2984
I2076
sS'AGTTCT'
p2985
I7410
sS'GCAAAT'
p2986
I6952
sS'AATCTC'
p2987
I5685
sS'CGAGAA'
p2988
I2311
sS'TAGGAT'
p2989
I3628
sS'TAATTA'
p2990
I6371
sS'GCATAT'
p2991
I3237
sS'TGCTTT'
p2992
I11687
sS'TTATAT'
p2993
I5993
sS'TGGGNC'
p2994
I1
sS'GTAATT'
p2995
I5119
sS'GTTACC'
p2996
I3048
sS'GTTACA'
p2997
I4571
sS'TAATTC'
p2998
I5164
sS'TATCGA'
p2999
I644
sS'TATCGC'
p3000
I716
sS'TATAGT'
p3001
I2985
sS'GTCTAA'
p3002
I2986
sS'AGGACG'
p3003
I2908
sS'GTCTAC'
p3004
I2271
sS'TGCTTC'
p3005
I8137
sS'TTCAAA'
p3006
I11050
sS'GTCTAG'
p3007
I3045
sS'GGGCTC'
p3008
I8947
sS'TATAGC'
p3009
I2302
sS'TATCGT'
p3010
I667
sS'TATAGA'
p3011
I3302
sS'AGTGGG'
p3012
I8125
sS'TATAGG'
p3013
I2368
sS'GTTACT'
p3014
I4360
sS'GGAAAA'
p3015
I14111
sS'GGAAAC'
p3016
I8990
sS'CCAAGT'
p3017
I6850
sS'GCTCTG'
p3018
I12217
sS'CCACGT'
p3019
I3665
sS'GGAAAG'
p3020
I12810
sS'AGGACC'
p3021
I5248
sS'GAATGG'
p3022
I6031
sS'GAATGA'
p3023
I7620
sS'ACTACT'
p3024
I3579
sS'GAATGC'
p3025
I4780
sS'CCACGA'
p3026
I2059
sS'AACCTG'
p3027
I6819
sS'CCACGC'
p3028
I4515
sS'GGCGTA'
p3029
I1028
sS'GTTCCG'
p3030
I2383
sS'GGCGTG'
p3031
I4716
sS'CCACGG'
p3032
I3623
sS'GCTCTT'
p3033
I7673
sS'GGCTTA'
p3034
I3959
sS'ACTACC'
p3035
I2663
sS'GGCTTC'
p3036
I8479
sS'ACTACA'
p3037
I4624
sS'ACTACG'
p3038
I1070
sS'GGCTTG'
p3039
I6484
sS'TCCTAG'
p3040
I5380
sS'GTTTTC'
p3041
I9369
sS'CGTTGC'
p3042
I1749
sS'TAACAC'
p3043
I3897
sS'TCCTAC'
p3044
I4016
sS'AGTCAC'
p3045
I7356
sS'TCCTAA'
p3046
I5668
sS'TAACAG'
p3047
I5625
sS'TCATCG'
p3048
I1413
sS'GAATTG'
p3049
I5051
sS'AAGCGT'
p3050
I1750
sS'TCATCC'
p3051
I5439
sS'GAGCGG'
p3052
I5269
sS'TCATCA'
p3053
I6377
sS'AGTCAT'
p3054
I6152
sS'TTATAA'
p3055
I6567
sS'TAACAT'
p3056
I5220
sS'CGTTGT'
p3057
I1348
sS'CTTTCC'
p3058
I12664
sS'CTTTCA'
p3059
I9664
sS'CTTTCG'
p3060
I2149
sS'AAAAAG'
p3061
I14766
sS'GTTGAT'
p3062
I3310
sS'CGACCA'
p3063
I1396
sS'CGACCC'
p3064
I2593
sS'GCATAC'
p3065
I2054
sS'CGACCG'
p3066
I1384
sS'CCTTAT'
p3067
I4081
sS'GTTGAC'
p3068
I3329
sS'GTTGAA'
p3069
I5253
sS'ACTGGG'
p3070
I8726
sS'GTTGAG'
p3071
I4684
sS'ATAGCA'
p3072
I4440
sS'CCTTAC'
p3073
I3549
sS'CCTTAA'
p3074
I4541
sS'CCTTAG'
p3075
I4391
sS'CGACCT'
p3076
I1952
sS'CAACTC'
p3077
I5490
sS'AATAGC'
p3078
I4436
sS'CAACTG'
p3079
I6038
sS'AATAGG'
p3080
I4715
sS'TCGCTC'
p3081
I2933
sS'GGGGTT'
p3082
I5456
sS'ATTCNN'
p3083
I1
sS'GGATGT'
p3084
I4623
sS'AATAGT'
p3085
I4946
sS'GGGCTT'
p3086
I7254
sS'CAACTT'
p3087
I5826
sS'ACTGTA'
p3088
I5083
sS'GGATGC'
p3089
I4024
sS'GGATGA'
p3090
I5374
sS'GGGGTC'
p3091
I5357
sS'GGGGTA'
p3092
I2987
sS'TCTCCG'
p3093
I3794
sS'GAGTCC'
p3094
I6027
sS'AAACTG'
p3095
I10092
sS'TCTCCC'
p3096
I11404
sS'CCCTTT'
p3097
I10036
sS'TCTCCA'
p3098
I10033
sS'AAACTC'
p3099
I7370
sS'ACGCGA'
p3100
I1010
sS'AGTACG'
p3101
I910
sS'ACGCGC'
p3102
I2608
sS'AGTACC'
p3103
I2691
sS'ACGCGG'
p3104
I2439
sS'AGTACA'
p3105
I4762
sS'AAACTT'
p3106
I8800
sS'CCCTTC'
p3107
I10315
sS'TCTCCT'
p3108
I11239
sS'CCCTTG'
p3109
I7060
sS'TGCCAA'
p3110
I8218
sS'AGTACT'
p3111
I4063
sS'ACGCGT'
p3112
I940
sS'GCCGAA'
p3113
I1992
sS'GTGGAG'
p3114
I8741
sS'GCCGAC'
p3115
I2375
sS'GTGGAC'
p3116
I4272
sS'GCCGAG'
p3117
I5560
sS'GTGGAA'
p3118
I7445
sS'TATCAT'
p3119
I3987
sS'GTGGAT'
p3120
I4241
sS'GCCGAT'
p3121
I1181
sS'AGATAG'
p3122
I4096
sS'TATCTG'
p3123
I5415
sS'CACTGT'
p3124
I8485
sS'GTAGTC'
p3125
I2608
sS'AAATCG'
p3126
I1552
sS'CACGCG'
p3127
I2496
sS'TTATCG'
p3128
I797
sS'CACGCA'
p3129
I2990
sS'AAATCC'
p3130
I7027
sS'ACCGAA'
p3131
I1460
sS'AAATCA'
p3132
I9630
sS'GGCTTT'
p3133
I8466
sS'CTTTGA'
p3134
I8519
sS'ATGTCT'
p3135
I5292
sS'CTATGG'
p3136
I3324
sS'AAATCT'
p3137
I8379
sS'ACCGAT'
p3138
I796
sS'GTAGTT'
p3139
I3852
sS'AGATAA'
p3140
I7073
sS'CGTTAT'
p3141
I1068
sS'GATGAT'
p3142
I4199
sS'GGAGCA'
p3143
I8044
sS'GGAGCC'
p3144
I11100
sS'AAAGTG'
p3145
I9236
sS'CCAAAT'
p3146
I7743
sS'GGAGCG'
p3147
I5861
sS'AAAACT'
p3148
I10201
sS'GATGAC'
p3149
I4512
sS'GATGAA'
p3150
I6161
sS'GATGAG'
p3151
I5771
sS'AAAACC'
p3152
I8052
sS'AGAACA'
p3153
I9064
sS'AAAACA'
p3154
I16152
sS'AAAACG'
p3155
I2928
sS'GGAGCT'
p3156
I9307
sS'CCAAAG'
p3157
I10162
sS'TCGCGG'
p3158
I2649
sS'CTAGAG'
p3159
I5632
sS'TCGCGC'
p3160
I2428
sS'TCGCGA'
p3161
I1273
sS'GCCACA'
p3162
I8211
sS'AGATCA'
p3163
I5653
sS'GCCACC'
p3164
I9047
sS'AGATCC'
p3165
I4129
sS'GCGCTT'
p3166
I2801
sS'GCCACG'
p3167
I4172
sS'AGATCG'
p3168
I1219
sS'ATGTCA'
p3169
I6115
sS'TCGCGT'
p3170
I1053
sS'ACCTAG'
p3171
I4039
sS'ACCCGT'
p3172
I1358
sS'AGAAAG'
p3173
I13998
sS'CTAGAC'
p3174
I2995
sS'AGAAAC'
p3175
I9872
sS'TACCCA'
p3176
I4438
sS'AGAAAA'
p3177
I18769
sS'CTACCC'
p3178
I4018
sS'ATGTAC'
p3179
I3342
sS'ACTTCG'
p3180
I1580
sS'ATGTAA'
p3181
I6232
sS'ATGTAG'
p3182
I3764
sS'GAGGAT'
p3183
I5365
sS'CTACCA'
p3184
I4080
sS'CCGGCA'
p3185
I3798
sS'GACGAC'
p3186
I1297
sS'ATGTCG'
p3187
I982
sS'CTATGA'
p3188
I4133
sS'ATGTAT'
p3189
I4861
sS'GTTCCA'
p3190
I5801
sS'CACTGA'
p3191
I8330
sS'ACTTCA'
p3192
I6778
sS'AGCACT'
p3193
I7445
sS'TTAGAA'
p3194
I7533
sS'CGGCTG'
p3195
I5874
sS'TTAGAC'
p3196
I3006
sS'CGGCTC'
p3197
I5689
sS'TTAGAG'
p3198
I5522
sS'CGGCTA'
p3199
I1400
sS'AGCACC'
p3200
I6070
sS'AGCACA'
p3201
I8284
sS'AGCACG'
p3202
I2450
sS'CGGCTT'
p3203
I3163
sS'TTAGAT'
p3204
I4178
sS'ATATCG'
p3205
I559
sS'ACCTAT'
p3206
I3059
sS'CCAGCC'
p3207
I15834
sS'AAAGAG'
p3208
I11696
sS'CCAGCG'
p3209
I5413
sS'CGACGT'
p3210
I835
sS'TTATTT'
p3211
I16476
sS'TGTGAG'
p3212
I7998
sS'TGTGAA'
p3213
I8721
sS'CTACCT'
p3214
I4604
sS'TGTGAC'
p3215
I6958
sS'CTATGC'
p3216
I2832
sS'ATATCT'
p3217
I4533
sS'CCAGCT'
p3218
I12070
sS'AAAGAT'
p3219
I8175
sS'TGTGAT'
p3220
I6349
sS'TTATTG'
p3221
I6298
sS'TTATTA'
p3222
I7717
sS'CATGAT'
p3223
I4570
sS'TTATTC'
p3224
I6265
sS'ACATCT'
p3225
I5528
sS'TTTTAT'
p3226
I12884
sS'TACAAG'
p3227
I4122
sS'AGACGC'
p3228
I2544
sS'TACAAA'
p3229
I8472
sS'AGACGA'
p3230
I1530
sS'CACAAT'
p3231
I5702
sS'CCTCTG'
p3232
I13939
sS'AGGTGG'
p3233
I9711
sS'CCTCTC'
p3234
I12322
sS'AGGTGC'
p3235
I5589
sS'CCTCTA'
p3236
I5397
sS'AGGTGA'
p3237
I7908
sS'CTTACG'
p3238
I1172
sS'TCCACA'
p3239
I7662
sS'TTTTAG'
p3240
I8064
sS'ACATCG'
p3241
I1006
sS'CTTACC'
p3242
I3851
sS'ACATCA'
p3243
I5941
sS'TTTTAC'
p3244
I7222
sS'ACATCC'
p3245
I4556
sS'AGGTGT'
p3246
I5362
sS'CCTCTT'
p3247
I10041
sS'CGTCGG'
p3248
I1620
sS'TATGAG'
p3249
I3992
sS'CCCGGA'
p3250
I5347
sS'CCCGGG'
p3251
I9284
sS'TTGTGT'
p3252
I7741
sS'TGGAAT'
p3253
I8114
sS'AATTAA'
p3254
I8326
sS'TTGTGC'
p3255
I5640
sS'TATGAT'
p3256
I3613
sS'TTGTGG'
p3257
I6570
sS'TTTTGA'
p3258
I9829
sS'TGGAAG'
p3259
I9766
sS'TGGAAC'
p3260
I5742
sS'TGGAAA'
p3261
I13045
sS'TGAGGA'
p3262
I8927
sS'AAGAGG'
p3263
I10404
sS'TGAGGC'
p3264
I8576
sS'AAGAGA'
p3265
I11064
sS'AAGAGC'
p3266
I7546
sS'TGAGGG'
p3267
I8070
sS'GCTTAG'
p3268
I4139
sS'GCTTAC'
p3269
I2957
sS'GCTTAA'
p3270
I4170
sS'TGATTC'
p3271
I5874
sS'AAGCGC'
p3272
I2779
sS'AAGAGT'
p3273
I6444
sS'AAGCGA'
p3274
I2031
sS'NGCGCC'
p3275
I1
sS'TGAGGT'
p3276
I6899
sS'GCTTAT'
p3277
I3702
sS'CTGCTA'
p3278
I5118
sS'GCGTGT'
p3279
I2440
sS'CTGCTC'
p3280
I10526
sS'ACTTCT'
p3281
I7483
sS'GACCGT'
p3282
I1350
sS'CTGCTG'
p3283
I14953
sS'CGGTCA'
p3284
I1832
sS'GGTCGT'
p3285
I1177
sS'CGGTCC'
p3286
I2724
sS'CTAGAA'
p3287
I6145
sS'CGGTCG'
p3288
I1335
sS'GACCGA'
p3289
I1489
sS'GACCGC'
p3290
I2599
sS'ACTTCC'
p3291
I9306
sS'CTGCTT'
p3292
I10378
sS'GACCGG'
p3293
I2550
sS'CTAGAT'
p3294
I3705
sS'GGTCGG'
p3295
I2582
sS'CGGTCT'
p3296
I1983
sS'GGTCGC'
p3297
I2439
sS'GGTCGA'
p3298
I987
sS'CGTCGC'
p3299
I1964
sS'GCGTGG'
p3300
I4552
sS'GCGTGA'
p3301
I2502
sS'GCGTGC'
p3302
I3172
sS'TGCTCA'
p3303
I7874
sS'TTCATC'
p3304
I6099
sS'TGCTCC'
p3305
I8111
sS'TTCATA'
p3306
I5559
sS'TTCATG'
p3307
I6367
sS'TGCTCG'
p3308
I2078
sS'GTACAA'
p3309
I3664
sS'CAGCAG'
p3310
I14967
sS'TACACT'
p3311
I3966
sS'GCTTTG'
p3312
I8507
sS'CAGCAC'
p3313
I9144
sS'CGTCGT'
p3314
I769
sS'ACGACT'
p3315
I1216
sS'TGCTCT'
p3316
I9504
sS'TTCATT'
p3317
I11156
sS'GCTTTA'
p3318
I5375
sS'GCTGCC'
p3319
I12473
sS'GCTGCA'
p3320
I9180
sS'AACTCT'
p3321
I7521
sS'GCTGCG'
p3322
I6065
sS'TGGCCA'
p3323
I10149
sS'GTAGCA'
p3324
I3501
sS'TTAGGG'
p3325
I4245
sS'TGGCCT'
p3326
I10112
sS'AACTCC'
p3327
I6637
sS'GCTGCT'
p3328
I11510
sS'AACTCG'
p3329
I1684
sS'CAGTCG'
p3330
I1975
sS'AATATT'
p3331
I11108
sS'GTTCGA'
p3332
I981
sS'CAACCT'
p3333
I5648
sS'CAGTTA'
p3334
I5347
sS'TGGCCG'
p3335
I4602
sS'GGCACG'
p3336
I2923
sS'GGCACA'
p3337
I7400
sS'GACAAT'
p3338
I3571
sS'GGCACC'
p3339
I6295
sS'CAACCG'
p3340
I1755
sS'ACGACC'
p3341
I1182
sS'AATATG'
p3342
I5519
sS'CAACCC'
p3343
I5433
sS'AGCAAG'
p3344
I7996
sS'AATATC'
p3345
I4593
sS'GACAAA'
p3346
I7317
sS'GGCACT'
p3347
I6526
sS'GACAAC'
p3348
I3462
sS'ACGACA'
p3349
I1202
sS'GACAAG'
p3350
I5114
sS'TGGCCC'
p3351
I8924
sS'GCTTTT'
p3352
I9678
sS'GCAATA'
p3353
I4109
sS'GAATTT'
p3354
I8468
sS'CGATGG'
p3355
I1518
sS'GACACT'
p3356
I5124
sS'TCCCAT'
p3357
I6512
sS'CGATGC'
p3358
I1251
sS'GTAAAT'
p3359
I6650
sS'CGATGA'
p3360
I1408
sS'GAATTA'
p3361
I5056
sS'GAATTC'
p3362
I5523
sS'GCAATT'
p3363
I4885
sS'GTAAAC'
p3364
I4985
sS'CGATGT'
p3365
I1073
sS'GTAAAA'
p3366
I7401
sS'GTAAAG'
p3367
I4894
sS'TCCCAG'
p3368
I14775
sS'GGATTT'
p3369
I7158
sS'GTGCGT'
p3370
I2007
sS'ATGGTA'
p3371
I3505
sS'GGATTC'
p3372
I4511
sS'GGATTA'
p3373
I4405
sS'GGATTG'
p3374
I4316
sS'ACCTCT'
p3375
I7643
sS'ACGCCA'
p3376
I2370
sS'ATATAG'
p3377
I3051
sS'TCTGTG'
p3378
I11283
sS'TCTGTC'
p3379
I8579
sS'GTCCCG'
p3380
I4114
sS'AACTCA'
p3381
I6735
sS'GGCGGC'
p3382
I12123
sS'CTCCTT'
p3383
I9790
sS'GGCGGA'
p3384
I6514
sS'GGCGGG'
p3385
I16799
sS'AACCGA'
p3386
I1509
sS'CTATCC'
p3387
I2899
sS'CAGTCC'
p3388
I7084
sS'ATATAC'
p3389
I3366
sS'CTCCTG'
p3390
I13484
sS'AACCGT'
p3391
I1331
sS'CTCCTA'
p3392
I5371
sS'CTCCTC'
p3393
I14028
sS'GGCGGT'
p3394
I4081
sS'AACAAG'
p3395
I7215
sS'GACGCC'
p3396
I3219
sS'CCCACA'
p3397
I8882
sS'CCCACC'
p3398
I11358
sS'TACTTC'
p3399
I4722
sS'AGCCTT'
p3400
I7539
sS'CCGATT'
p3401
I1357
sS'CCCACT'
p3402
I7932
sS'AACAAT'
p3403
I6417
sS'GACGCT'
p3404
I2315
sS'AAATAC'
p3405
I8012
sS'AGCGGT'
p3406
I2006
sS'CCGATA'
p3407
I616
sS'AGCCTG'
p3408
I12134
sS'AGCCTA'
p3409
I4104
sS'CCGATG'
p3410
I1256
sS'GTACCC'
p3411
I2246
sS'CTCCCG'
p3412
I7320
sS'TGGTTA'
p3413
I4805
sS'CGCCTT'
p3414
I3487
sS'AGGCAT'
p3415
I5740
sS'TCNNNN'
p3416
I2
sS'CAGAGT'
p3417
I9263
sS'GCATCT'
p3418
I4716
sS'ACCTCG'
p3419
I2473
sS'TGGTTT'
p3420
I9069
sS'CGCCTC'
p3421
I7730
sS'GCGCCA'
p3422
I4224
sS'CGCCTA'
p3423
I1623
sS'AGGCAG'
p3424
I13908
sS'CGCCTG'
p3425
I6151
sS'GAGTTA'
p3426
I4281
sS'CAGAGG'
p3427
I14002
sS'GCATCC'
p3428
I4071
sS'GTGCGG'
p3429
I3240
sS'CAGAGC'
p3430
I12245
sS'CGGCCA'
p3431
I4592
sS'CAGAGA'
p3432
I13069
sS'AATCAT'
p3433
I6657
sS'TAGCTA'
p3434
I3258
sS'CCGATC'
p3435
I1110
sS'AGACTC'
p3436
I5525
sS'CCTAGA'
p3437
I5081
sS'CCTAGC'
p3438
I4393
sS'TTTGCT'
p3439
I11153
sS'TAGCTC'
p3440
I4212
sS'TGCGGT'
p3441
I2041
sS'CCTAGG'
p3442
I5378
sS'TAAGCA'
p3443
I5521
sS'TGCGGC'
p3444
I4091
sS'TTTGCC'
p3445
I8004
sS'CCTAGT'
p3446
I3967
sS'TGCGGG'
p3447
I4155
sS'TTTGCG'
p3448
I1876
sS'TGAGTT'
p3449
I6913
sS'TAGCTG'
p3450
I5579
sS'ATCGCT'
p3451
I1480
sS'TAATCT'
p3452
I5087
sS'ATCGCC'
p3453
I1487
sS'TGAGTG'
p3454
I7058
sS'ATCGCA'
p3455
I1078
sS'TGAGTA'
p3456
I4763
sS'ATCGCG'
p3457
I980
sS'TGAGTC'
p3458
I6925
sS'AAGGTG'
p3459
I6527
sS'AAGGTC'
p3460
I5989
sS'CATCAT'
p3461
I5392
sS'AAGGTA'
p3462
I4725
sS'ATTTCG'
p3463
I1366
sS'AAGCGG'
p3464
I3152
sS'ACGGCA'
p3465
I1836
sS'CATCAC'
p3466
I5338
sS'ACGGCC'
p3467
I2867
sS'CATCAA'
p3468
I4402
sS'CATCAG'
p3469
I6359
sS'ACGGCG'
p3470
I2066
sS'TCACCT'
p3471
I8057
sS'TCTAAG'
p3472
I4835
sS'TCGTTT'
p3473
I2052
sS'CGGAAT'
p3474
I1579
sS'CAATTC'
p3475
I4920
sS'ATCGAT'
p3476
I909
sS'TCACCG'
p3477
I2607
sS'TCACCA'
p3478
I7281
sS'TCACCC'
p3479
I6886
sS'CGGAAG'
p3480
I5095
sS'AATATA'
p3481
I6510
sS'AAAATA'
p3482
I16253
sS'CGGAAC'
p3483
I2190
sS'AGCTCG'
p3484
I2539
sS'CGGAAA'
p3485
I3196
sS'TAGCTT'
p3486
I4640
sS'ATGGCG'
p3487
I2718
sS'TGTGTA'
p3488
I6649
sS'TGTGTG'
p3489
I16720
sS'ATGGCA'
p3490
I6076
sS'TTCAGA'
p3491
I9615
sS'ATGGCT'
p3492
I5762
sS'TGTGTT'
p3493
I9545
sS'GAACAT'
p3494
I5100
sS'AGAATT'
p3495
I8298
sS'GAAACG'
p3496
I2708
sS'GAAACA'
p3497
I9922
sS'GAAACC'
p3498
I7031
sS'ATGCAT'
p3499
I4573
sS'CTATGT'
p3500
I4166
sS'CTGAGT'
p3501
I8473
sS'AGGTAC'
p3502
I3222
sS'GAAACT'
p3503
I8509
sS'AGAATG'
p3504
I8211
sS'AGAATA'
p3505
I6446
sS'AGAATC'
p3506
I5825
sS'CTGAGC'
p3507
I10045
sS'CTGAGA'
p3508
I10036
sS'CTGAGG'
p3509
I11635
sS'CATACC'
p3510
I2558
sS'CATACA'
p3511
I4430
sS'CATACG'
p3512
I777
sS'GCAATC'
p3513
I3834
sS'TCAAAT'
p3514
I7543
sS'GTCCAT'
p3515
I3723
sS'ACATAG'
p3516
I4187
sS'CATACT'
p3517
I3406
sS'AATGGC'
p3518
I5461
sS'GTCCAG'
p3519
I7159
sS'TCAAAG'
p3520
I8640
sS'GTCCAC'
p3521
I4525
sS'GTCCAA'
p3522
I4657
sS'CGGCGG'
p3523
I9273
sS'TTGATG'
p3524
I4437
sS'ATCGAG'
p3525
I1030
sS'CGGCGC'
p3526
I7065
sS'TTGATC'
p3527
I3549
sS'CGGCGA'
p3528
I2541
sS'CGTACA'
p3529
I925
sS'TTGATT'
p3530
I7030
sS'CGGCGT'
p3531
I2355
sS'ATGGCC'
p3532
I4857
sS'GTACGC'
p3533
I771
sS'ATCGAC'
p3534
I626
sS'CCATTA'
p3535
I3979
sS'TCGTCT'
p3536
I1578
sS'CGGTTA'
p3537
I1011
sS'GGTTTA'
p3538
I4297
sS'CGGTTC'
p3539
I2123
sS'GCTGTT'
p3540
I7973
sS'TTTACA'
p3541
I8680
sS'CGGTTG'
p3542
I1741
sS'GGTTTG'
p3543
I6126
sS'CCATTG'
p3544
I5125
sS'ATCCCA'
p3545
I6599
sS'GCTGTG'
p3546
I10839
sS'GGTTTT'
p3547
I7855
sS'CGGTTT'
p3548
I2132
sS'GCTGTA'
p3549
I4489
sS'TATGCG'
p3550
I659
sS'TCTCAA'
p3551
I7223
sS'AGGTTG'
p3552
I5710
sS'AGGTTC'
p3553
I4981
sS'AGGTTA'
p3554
I4808
sS'ATGAAA'
p3555
I10503
sS'ACTCCT'
p3556
I6894
sS'TTTTTC'
p3557
I15478
sS'TCCATC'
p3558
I5327
sS'TTTTTA'
p3559
I15923
sS'TTTTTG'
p3560
I12280
sS'GAGGGG'
p3561
I12450
sS'CGCCCC'
p3562
I13501
sS'AGGTTT'
p3563
I7298
sS'TAAGCG'
p3564
I1125
sS'TATGCC'
p3565
I2938
sS'TTAAAC'
p3566
I6259
sS'TTAAAA'
p3567
I17147
sS'ACTCCG'
p3568
I2743
sS'TTAAAG'
p3569
I8202
sS'GAGGGT'
p3570
I6279
sS'TTTTTT'
p3571
I38530
sS'ACTCCC'
p3572
I6723
sS'TAGGCT'
p3573
I4146
sS'GTCACG'
p3574
I2593
sS'CTGTAC'
p3575
I4086
sS'GCAACT'
p3576
I4831
sS'GTCACC'
p3577
I6225
sS'CTGTAG'
p3578
I5415
sS'GTCACA'
p3579
I7077
sS'ACTTAT'
p3580
I3905
sS'ACCTAC'
p3581
I3393
sS'GCAACG'
p3582
I1846
sS'GTCACT'
p3583
I7050
sS'TAGGCG'
p3584
I1603
sS'ACGAAA'
p3585
I1844
sS'TAGGCA'
p3586
I4812
sS'GCAACA'
p3587
I6243
sS'TAGGCC'
p3588
I3663
sS'TGGTTC'
p3589
I5416
sS'ATTCAT'
p3590
I7060
sS'TCCCAC'
p3591
I8222
sS'GCGATT'
p3592
I1325
sS'TCGTGT'
p3593
I1476
sS'TTCACT'
p3594
I7996
sS'GTCTCT'
p3595
I7747
sS'AACATT'
p3596
I9350
sS'ATTCAG'
p3597
I7325
sS'ATATTA'
p3598
I5675
sS'ATTCAA'
p3599
I6416
sS'ATTCAC'
p3600
I5177
sS'GTCTCC'
p3601
I7231
sS'TCGTGG'
p3602
I2087
sS'GCGATG'
p3603
I1651
sS'GTCTCG'
p3604
I2161
sS'GCGATA'
p3605
I707
sS'TTCACA'
p3606
I8720
sS'GCGATC'
p3607
I1325
sS'GAAGGC'
p3608
I7979
sS'GAAGGA'
p3609
I10049
sS'GAAGGG'
p3610
I10260
sS'CGATTA'
p3611
I795
sS'GGAACC'
p3612
I5446
sS'AGACTT'
p3613
I6105
sS'GGAACA'
p3614
I6998
sS'GGAACG'
p3615
I2427
sS'AGCCAC'
p3616
I9027
sS'TGACGA'
p3617
I1356
sS'TACTGC'
p3618
I4234
sS'TCATAC'
p3619
I2937
sS'GAAGGT'
p3620
I5754
sS'CAATCG'
p3621
I1270
sS'CAATCA'
p3622
I5683
sS'CAATCC'
p3623
I4345
sS'TCCTGA'
p3624
I9212
sS'AGTCCA'
p3625
I7004
sS'TCCTGC'
p3626
I11104
sS'AGTCCC'
p3627
I6815
sS'ACTAAA'
p3628
I6004
sS'TCCTGG'
p3629
I13824
sS'ACTAAC'
p3630
I2943
sS'TAACGC'
p3631
I1012
sS'TAACGA'
p3632
I903
sS'CAGCTA'
p3633
I5535
sS'CAGCTC'
p3634
I11148
sS'ACTAAT'
p3635
I3775
sS'AGTCCT'
p3636
I6972
sS'TCCTGT'
p3637
I9524
sS'TAATGT'
p3638
I5360
sS'CAGCTT'
p3639
I9216
sS'TAACGT'
p3640
I1191
sS'ACGGAC'
p3641
I1477
sS'GTACTT'
p3642
I4161
sS'CGACAT'
p3643
I956
sS'TTGTTC'
p3644
I6554
sS'CCGAGG'
p3645
I5591
sS'TTGTTG'
p3646
I6736
sS'CAGGCC'
p3647
I12205
sS'CCGAGC'
p3648
I4492
sS'CCGCGT'
p3649
I2328
sS'CGACAC'
p3650
I1391
sS'CGACAA'
p3651
I1024
sS'CGACAG'
p3652
I2249
sS'GTACTA'
p3653
I2213
sS'CCGCGC'
p3654
I8242
sS'GGAGGA'
p3655
I14319
sS'CCGCGA'
p3656
I2609
sS'TACGCA'
p3657
I1123
sS'CCGCGG'
p3658
I7538
sS'TTGTTT'
p3659
I14951
sS'TCCGTT'
p3660
I1918
sS'AGCCAA'
p3661
I9142
sS'AATAAC'
p3662
I5451
sS'AATAAA'
p3663
I15664
sS'AATAAG'
p3664
I6188
sS'CGCCAT'
p3665
I2769
sS'TACAAT'
p3666
I4401
sS'TACTAA'
p3667
I3900
sS'AATAAT'
p3668
I9112
sS'ACGGTG'
p3669
I2225
sS'CCAACC'
p3670
I5921
sS'CCAACA'
p3671
I6340
sS'TTATGC'
p3672
I3569
sS'CCAACG'
p3673
I1817
sS'GGGATT'
p3674
I6020
sS'CGCCGC'
p3675
I10715
sS'AGTAAA'
p3676
I8458
sS'CGCCGA'
p3677
I2460
sS'GAGTAG'
p3678
I3903
sS'CGCCGG'
p3679
I6068
sS'GAGTAA'
p3680
I4787
sS'AGTAAG'
p3681
I4801
sS'CTCAGG'
p3682
I10534
sS'CTAAAA'
p3683
I8000
sS'CTCAGC'
p3684
I11148
sS'CTCAGA'
p3685
I9678
sS'GAGTAT'
p3686
I2868
sS'ATCGTC'
p3687
I854
sS'GTGTAG'
p3688
I3239
sS'TCGAGC'
p3689
I1413
sS'GTGTAA'
p3690
I4494
sS'GTGTAC'
p3691
I2917
sS'TCGAGG'
p3692
I1986
sS'GTGGCA'
p3693
I7503
sS'CTCGGG'
p3694
I4877
sS'CTCGGA'
p3695
I2894
sS'GTGGCG'
p3696
I4381
sS'GCCGCC'
p3697
I12211
sS'GCCGCA'
p3698
I4011
sS'GCCGCG'
p3699
I7668
sS'ACACTT'
p3700
I6282
sS'CTCGGT'
p3701
I2456
sS'AGATAT'
p3702
I4537
sS'GTGGCT'
p3703
I9088
sS'CATATA'
p3704
I3751
sS'GTCAGC'
p3705
I6307
sS'TGCTTA'
p3706
I5674
sS'ACACTC'
p3707
I5127
sS'ACACTA'
p3708
I3728
sS'ACACTG'
p3709
I8192
sS'GCCGCT'
p3710
I5444
sS'ACCGGA'
p3711
I2147
sS'AAATAA'
p3712
I16440
sS'ACCGGC'
p3713
I2675
sS'GTCAGA'
p3714
I6523
sS'CTTTAA'
p3715
I8160
sS'ACCGGG'
p3716
I2894
sS'AAATAG'
p3717
I8324
sS'CACGAG'
p3718
I2158
sS'CAGGTA'
p3719
I5018
sS'AACTTC'
p3720
I6773
sS'CAGGTC'
p3721
I6669
sS'CACGAC'
p3722
I1387
sS'AACTTG'
p3723
I6407
sS'CAGGTG'
p3724
I9126
sS'CTTTAT'
p3725
I7252
sS'AATCCC'
p3726
I5941
sS'AATCCA'
p3727
I6355
sS'AAATAT'
p3728
I12485
sS'AATCCG'
p3729
I1472
sS'CACGAT'
p3730
I1227
sS'CAGGTT'
p3731
I6842
sS'AACTTT'
p3732
I9359
sS'GGGATA'
p3733
I3208
sS'GGGATC'
p3734
I3983
sS'GGGTGT'
p3735
I5642
sS'GGGATG'
p3736
I6048
sS'GATGCT'
p3737
I4412
sS'CGCAGT'
p3738
I2897
sS'TCTGTA'
p3739
I6521
sS'GAGCCT'
p3740
I7877
sS'GGAGAC'
p3741
I7017
sS'GGGTGA'
p3742
I6906
sS'GGAGAA'
p3743
I10923
sS'GGGTGC'
p3744
I5728
sS'GGAGAG'
p3745
I12909
sS'AATCAA'
p3746
I6730
sS'GGGTGG'
p3747
I11438
sS'GAGCCA'
p3748
I9877
sS'GAGCCC'
p3749
I8936
sS'GATGCG'
p3750
I1304
sS'CGCAGA'
p3751
I3353
sS'GATGCA'
p3752
I4168
sS'CGCAGC'
p3753
I6204
sS'GATGCC'
p3754
I4139
sS'CGGATT'
p3755
I1447
sS'GGTAGT'
p3756
I2720
sS'ACCCCT'
p3757
I5905
sS'GCCAAT'
p3758
I5354
sS'AACCGC'
p3759
I2060
sS'AGAAGT'
p3760
I7767
sS'ACCCCA'
p3761
I7296
sS'GGTAGA'
p3762
I3967
sS'GCCAAA'
p3763
I7896
sS'CGGATG'
p3764
I1772
sS'GCCAAG'
p3765
I8983
sS'CGGATA'
p3766
I776
sS'ACCCCG'
p3767
I4014
sS'CGGATC'
p3768
I1647
sS'AGAAGA'
p3769
I10310
sS'AGAAGC'
p3770
I8606
sS'GCAAGA'
p3771
I6361
sS'AGAAGG'
p3772
I10451
sS'CACTCC'
p3773
I7760
sS'CCCCGT'
p3774
I3109
sS'CACTCG'
p3775
I2146
sS'TGCGTT'
p3776
I1787
sS'GCAAGG'
p3777
I6642
sS'TCTGTT'
p3778
I10116
sS'AGCTTT'
p3779
I8715
sS'CCCCGG'
p3780
I7868
sS'TGCGTA'
p3781
I1087
sS'TGCGTG'
p3782
I2815
sS'CACTCT'
p3783
I7367
sS'AGCTTC'
p3784
I7380
sS'AGCTTA'
p3785
I4169
sS'AGCTTG'
p3786
I6201
sS'ATACGA'
p3787
I700
sS'AGACCA'
p3788
I5712
sS'TTAGCT'
p3789
I5115
sS'GTATAA'
p3790
I3054
sS'TTAGCC'
p3791
I3894
sS'TTAGCA'
p3792
I5317
sS'GACCAT'
p3793
I3009
sS'TTAGCG'
p3794
I1099
sS'CTTCAT'
p3795
I6824
sS'AACTTA'
p3796
I4560
sS'AAGGGG'
p3797
I8234
sS'ATAAGG'
p3798
I4000
sS'TGTGCT'
p3799
I8377
sS'AAGGGC'
p3800
I7907
sS'ATAAGC'
p3801
I3687
sS'AAGGGA'
p3802
I10009
sS'ATAAGA'
p3803
I4932
sS'CCAGAC'
p3804
I6908
sS'CCAGAA'
p3805
I10623
sS'CCAGAG'
p3806
I12935
sS'GCAAGT'
p3807
I5073
sS'TGTGCG'
p3808
I2485
sS'ATAAGT'
p3809
I3873
sS'AAGGGT'
p3810
I5237
sS'TGTGCC'
p3811
I7266
sS'ATAGGA'
p3812
I4292
sS'TGTGCA'
p3813
I7576
sS'ATAGGC'
p3814
I2875
sS'GCTCGC'
p3815
I3870
sS'TAAGTT'
p3816
I4655
sS'CCAGAT'
p3817
I6459
sS'AGACAA'
p3818
I6858
sS'GACGCA'
p3819
I2208
sS'CGTGGT'
p3820
I2465
sS'AGACAG'
p3821
I9664
sS'TTTTCT'
p3822
I18907
sS'CGCTGT'
p3823
I3161
sS'CCCACG'
p3824
I4407
sS'TCAAGA'
p3825
I5329
sS'CGTGGG'
p3826
I4293
sS'CTATAG'
p3827
I2246
sS'CGTGGC'
p3828
I4290
sS'CGTGGA'
p3829
I2792
sS'TTTTCG'
p3830
I1816
sS'AACAAC'
p3831
I5802
sS'CGCTGC'
p3832
I6091
sS'TTTTCC'
p3833
I14161
sS'TTTTCA'
p3834
I12806
sS'CGCTGG'
p3835
I5358
sS'TATGGA'
p3836
I3580
sS'TATGGC'
p3837
I2802
sS'CGTAGG'
p3838
I1415
sS'AACAAA'
p3839
I14591
sS'TATGGG'
p3840
I3211
sS'CGTAGC'
p3841
I1368
sS'TACCGT'
p3842
I987
sS'AAGTGT'
p3843
I6262
sS'TGGACT'
p3844
I6916
sS'CGTAGT'
p3845
I1114
sS'TATGGT'
p3846
I2998
sS'TGGACA'
p3847
I6511
sS'TGGACC'
p3848
I4156
sS'TGGACG'
p3849
I2041
sS'CGTTAC'
p3850
I995
sS'CCGGTT'
p3851
I2027
sS'GACCAA'
p3852
I4449
sS'GCTTGA'
p3853
I4347
sS'TGAGAC'
p3854
I5798
sS'GCTTGC'
p3855
I5218
sS'TGAGAA'
p3856
I10010
sS'GCCAAC'
p3857
I5002
sS'TGAGAG'
p3858
I8414
sS'GCTTGG'
p3859
I6920
sS'CCTGTT'
p3860
I8084
sS'CCGGTG'
p3861
I3075
sS'CCTTGC'
p3862
I6689
sS'CCGGTA'
p3863
I1157
sS'CCTGTC'
p3864
I8041
sS'CCTGTA'
p3865
I5588
sS'CCTGTG'
p3866
I10509
sS'GCTTGT'
p3867
I5136
sS'TGAGAT'
p3868
I6355
sS'ATCGTA'
p3869
I672
sS'GGTTGT'
p3870
I4254
sS'AGGGAT'
p3871
I5648
sS'TATCAG'
p3872
I4243
sS'TATTGC'
p3873
I4120
sS'AATTCN'
p3874
I1
sS'TAGCGT'
p3875
I978
sS'GGTTGG'
p3876
I5759
sS'CTGAAT'
p3877
I7551
sS'GGTTGA'
p3878
I3882
sS'GGTTGC'
p3879
I4622
sS'ACTATT'
p3880
I4897
sS'TCCCGC'
p3881
I6629
sS'TCCCGA'
p3882
I2634
sS'CAGCGT'
p3883
I3130
sS'TGCTAT'
p3884
I4450
sS'CGTTTT'
p3885
I2906
sS'ATTCTC'
p3886
I6698
sS'CTATAC'
p3887
I1780
sS'ATTCTA'
p3888
I5687
sS'ATTCTG'
p3889
I8315
sS'TCATTT'
p3890
I12546
sS'GTAACT'
p3891
I4257
sS'CAGCGC'
p3892
I5940
sS'TATACT'
p3893
I3221
sS'TGCTAG'
p3894
I4137
sS'CAGCGG'
p3895
I5631
sS'AGGATC'
p3896
I4268
sS'TCATTC'
p3897
I7523
sS'TCATTA'
p3898
I6107
sS'TCATTG'
p3899
I6248
sS'ATTCTT'
p3900
I8230
sS'CGTTTC'
p3901
I2792
sS'TGGCAA'
p3902
I7841
sS'TGGCAC'
p3903
I6718
sS'TGGCAG'
p3904
I11993
sS'GCTGAG'
p3905
I11225
sS'GCTGAA'
p3906
I7787
sS'GCTGAC'
p3907
I6282
sS'TGGCAT'
p3908
I6304
sS'GGCCGG'
p3909
I9084
sS'GTTCAA'
p3910
I5183
sS'AGCCTC'
p3911
I9883
sS'GGCCGC'
p3912
I8995
sS'GAACTT'
p3913
I6350
sS'GGCCGA'
p3914
I3898
sS'GGCAAT'
p3915
I4513
sS'CTATAA'
p3916
I3946
sS'CTGATT'
p3917
I7455
sS'CCATCG'
p3918
I1514
sS'CTAAAT'
p3919
I5933
sS'CCATCC'
p3920
I6209
sS'CCATCA'
p3921
I5002
sS'CTGATC'
p3922
I4273
sS'CTGATA'
p3923
I4359
sS'GTACCA'
p3924
I2586
sS'CTGATG'
p3925
I6216
sS'GGCAAA'
p3926
I8152
sS'CTAAAG'
p3927
I5474
sS'CCATCT'
p3928
I7490
sS'CTAAAC'
p3929
I4205
sS'GTACCG'
p3930
I900
sS'GACACC'
p3931
I4579
sS'GACACA'
p3932
I6899
sS'GACACG'
p3933
I2146
sS'CTACAC'
p3934
I3351
sS'CCAAGA'
p3935
I7506
sS'GCGCCT'
p3936
I5386
sS'TTCACC'
p3937
I5990
sS'AATTCT'
p3938
I8292
sS'TACGAG'
p3939
I844
sS'TACGAC'
p3940
I581
sS'TACGAA'
p3941
I1019
sS'GGCGAT'
p3942
I1512
sS'AGTCCG'
p3943
I2132
sS'ACGCTG'
p3944
I3005
sS'CTATTA'
p3945
I3991
sS'ACGCTC'
p3946
I2037
sS'TCGATG'
p3947
I1032
sS'TCGATA'
p3948
I585
sS'TCGATC'
p3949
I812
sS'ACGCTT'
p3950
I1687
sS'TCTGGG'
p3951
I11912
sS'GCATTG'
p3952
I4222
sS'GAACTG'
p3953
I7279
sS'TCGATT'
p3954
I1137
sS'CTACCG'
p3955
I1441
sS'CAGCCT'
p3956
I14191
sS'GCGCCC'
p3957
I8012
sS'AACCAA'
p3958
I6840
sS'TGCCGG'
p3959
I3754
sS'AACCAC'
p3960
I5881
sS'TGCCGC'
p3961
I4077
sS'AACCAG'
p3962
I7535
sS'TGCCGA'
p3963
I1766
sS'TTGGAC'
p3964
I4455
sS'CGCGAG'
p3965
I3332
sS'ATGATC'
p3966
I3502
sS'GCGCCG'
p3967
I6958
sS'TGCCGT'
p3968
I1866
sS'AACCAT'
p3969
I4688
sS'CTGTTC'
p3970
I7199
sS'AACAGA'
p3971
I9977
sS'GGGAGT'
p3972
I6746
sS'AACAGC'
p3973
I7807
sS'CATAAG'
p3974
I3439
sS'ACGTCC'
p3975
I1919
sS'AACAGG'
p3976
I8165
sS'ACGTCA'
p3977
I2636
sS'CCCAAG'
p3978
I8091
sS'GTCCCT'
p3979
I7227
sS'GACGAA'
p3980
I1334
sS'CCCAAC'
p3981
I5905
sS'CCCAAA'
p3982
I9165
sS'CAATAT'
p3983
I4745
sS'GGGAGG'
p3984
I20279
sS'GGGAGA'
p3985
I11400
sS'AACAGT'
p3986
I6960
sS'GGGAGC'
p3987
I10425
sS'CCCAAT'
p3988
I4279
sS'GACGAT'
p3989
I834
sS'GGGCGC'
p3990
I7916
sS'GGGCGA'
p3991
I3792
sS'GCATCA'
p3992
I4166
sS'GGGCGG'
p3993
I16657
sS'TCTCTT'
p3994
I11085
sS'GTACAG'
p3995
I4030
sS'CAGAAT'
p3996
I8466
sS'GTACAC'
p3997
I2916
sS'TCTCTC'
p3998
I12718
sS'TCTCTA'
p3999
I6352
sS'TCTCTG'
p4000
I13267
sS'GGGCGT'
p4001
I3748
sS'CAGAAA'
p4002
I14441
sS'CAGAAC'
p4003
I7343
sS'GAATAA'
p4004
I6191
sS'ACGACG'
p4005
I799
sS'CAGAAG'
p4006
I11179
sS'TAAGTG'
p4007
I4971
sS'CACTTT'
p4008
I9130
sS'CATATT'
p4009
I5651
sS'CCTAAT'
p4010
I4092
sS'TCTATA'
p4011
I3410
sS'CACTTG'
p4012
I6233
sS'CCTAAC'
p4013
I3727
sS'CCTAAA'
p4014
I5531
sS'CACTTC'
p4015
I8002
sS'CCTAAG'
p4016
I4468
sS'CACTTA'
p4017
I5074
sS'GCGGAT'
p4018
I1591
sS'CTGCGG'
p4019
I6066
sS'AAGATT'
p4020
I6228
sS'CTCATG'
p4021
I5971
sS'GACTCG'
p4022
I2107
sS'CTCATC'
p4023
I5790
sS'GACTCC'
p4024
I5883
sS'CTCATA'
p4025
I3875
sS'GACTCA'
p4026
I6998
sS'AAGATA'
p4027
I5587
sS'AAGATC'
p4028
I4309
sS'AAGATG'
p4029
I6525
sS'GACTCT'
p4030
I6064
sS'CTCATT'
p4031
I8481
sS'ATCGAA'
p4032
I1047
sS'AACTAC'
p4033
I3879
sS'ATATTT'
p4034
I12897
sS'ACGGTA'
p4035
I945
sS'AACTAA'
p4036
I5239
sS'ATAGTT'
p4037
I4410
sS'TACTGT'
p4038
I5124
sS'ATATTC'
p4039
I4744
sS'ACGGTC'
p4040
I1341
sS'ATATTG'
p4041
I4681
sS'ACGAAG'
p4042
I1736
sS'TACTGA'
p4043
I5311
sS'TACTGG'
p4044
I4554
sS'ATAGTG'
p4045
I3444
sS'ATAGAC'
p4046
I2652
sS'CAGGCA'
p4047
I11812
sS'AGGAAG'
p4048
I15871
sS'CATCCG'
p4049
I1803
sS'ACGGAG'
p4050
I2905
sS'CATCCA'
p4051
I5738
sS'CAGGCG'
p4052
I6212
sS'CATCCC'
p4053
I6089
sS'TTATGA'
p4054
I5007
sS'ATAGAA'
p4055
I5966
sS'CGGAGT'
p4056
I2652
sS'TTATGG'
p4057
I3646
sS'CATCCT'
p4058
I6647
sS'AGGAAT'
p4059
I7882
sS'CAGGCT'
p4060
I11955
sS'ACGGAT'
p4061
I1142
sS'CGGAGA'
p4062
I3739
sS'CTGAAA'
p4063
I11521
sS'CGGAGC'
p4064
I5970
sS'TTATGT'
p4065
I5765
sS'CGGAGG'
p4066
I6305
sS'ATGGAA'
p4067
I7809
sS'ATGGAC'
p4068
I3713
sS'ATGGAG'
p4069
I6796
sS'CGCTTG'
p4070
I2246
sS'CGCTTA'
p4071
I1161
sS'CGCTTC'
p4072
I3644
sS'TGAACA'
p4073
I6695
sS'ATGGAT'
p4074
I4104
sS'TTTGCA'
p4075
I9811
sS'CGCTTT'
p4076
I2774
sS'GATCGT'
p4077
I829
sS'TGCGGA'
p4078
I2423
sS'TTGTGA'
p4079
I7010
sS'GAAAAG'
p4080
I11763
sS'GAAAAC'
p4081
I9365
sS'ATAGAT'
p4082
I3860
sS'GAAAAA'
p4083
I15558
sS'GTTCCT'
p4084
I6996
sS'TAAGTA'
p4085
I4567
sS'ACGGTT'
p4086
I1344
sS'GAAAAT'
p4087
I10722
sS'CTACTG'
p4088
I5113
sS'ACAAGG'
p4089
I6241
sS'ACAAGA'
p4090
I6357
sS'ACAAGC'
p4091
I5042
sS'ACACGT'
p4092
I2193
sS'CTGCGT'
p4093
I3100
sS'GCGGAG'
p4094
I7466
sS'TGCTGA'
p4095
I8939
sS'GCGGAA'
p4096
I3490
sS'CATAAA'
p4097
I6778
sS'GCGGAC'
p4098
I2826
sS'CATAAC'
p4099
I3186
sS'ACACGC'
p4100
I2531
sS'ACAAGT'
p4101
I5193
sS'ACACGA'
p4102
I1495
sS'ACACGG'
p4103
I2396
sS'CCTCCC'
p4104
I20319
sS'CATAAT'
p4105
I4595
sS'GTCCCA'
p4106
I6313
sS'GCACAT'
p4107
I4989
sS'GTCCCC'
p4108
I6902
sS'CTGCGA'
p4109
I2526
sS'CTGCGC'
p4110
I6338
sS'CGGCAA'
p4111
I1905
sS'CGGCAC'
p4112
I2592
sS'CGGCAG'
p4113
I5443
sS'GACGCG'
p4114
I2465
sS'CCTCCT'
p4115
I15145
sS'NNNGAA'
p4116
I1
sS'CGGCAT'
p4117
I1508
sS'AGGCAC'
p4118
I7068
sS'CCTCCA'
p4119
I10786
sS'CCTCCG'
p4120
I6344
s.