(dp0
S'GAACGT'
p1
I6147
sS'CGTCGT'
p2
I3147
sS'CTTCTT'
p3
I39322
sS'CACCCT'
p4
I33609
sS'GAACGG'
p5
I7844
sS'GAACGC'
p6
I8181
sS'GAACGA'
p7
I5665
sS'CACCCA'
p8
I37781
sS'CTTCTA'
p9
I20700
sS'CACCCC'
p10
I40343
sS'CTTCTC'
p11
I44546
sS'CACCCG'
p12
I16056
sS'CTTCTG'
p13
I42839
sS'GTCTCG'
p14
I10640
sS'CGTGTG'
p15
I12913
sS'TAAGGT'
p16
I13499
sS'CGTGTC'
p17
I8575
sS'CGTGTA'
p18
I4828
sS'TAAGGG'
p19
I15994
sS'CGTGTT'
p20
I8405
sS'TAAGGC'
p21
I14884
sS'TAAGGA'
p22
I21726
sS'GTCAAA'
p23
I17888
sS'GTCAAC'
p24
I11559
sS'GTCAAG'
p25
I16538
sS'CTGTCC'
p26
I34008
sS'TCAGAG'
p27
I39905
sS'CTGTCA'
p28
I29633
sS'CTGTCG'
p29
I9072
sS'GTATCT'
p30
I13509
sS'CTGTGC'
p31
I35870
sS'TCAGAA'
p32
I37281
sS'GTCAAT'
p33
I10981
sS'GTATCA'
p34
I10129
sS'GTATCC'
p35
I9075
sS'GTATCG'
p36
I2141
sS'GCCCTG'
p37
I50894
sS'GGTGTC'
p38
I19004
sS'GGTGTA'
p39
I10459
sS'GGTGTG'
p40
I30048
sS'TATCCT'
p41
I15779
sS'CCGGGG'
p42
I32720
sS'TTCTGT'
p43
I41060
sS'ATTCCT'
p44
I31848
sS'CCGGGC'
p45
I37030
sS'CCGGGA'
p46
I26761
sS'TATCCA'
p47
I14349
sS'TAACGC'
p48
I3918
sS'TATCCC'
p49
I12663
sS'TGGTTG'
p50
I20261
sS'AGAGGT'
p51
I28905
sS'TATCCG'
p52
I3194
sS'GGTGTT'
p53
I19523
sS'ATTCCG'
p54
I6203
sS'TTCTGG'
p55
I39491
sS'CCGGGT'
p56
I16814
sS'ATTCCC'
p57
I24203
sS'TTCTGC'
p58
I35386
sS'ATTCCA'
p59
I31824
sS'TTCTGA'
p60
I37273
sS'TGCACT'
p61
I25373
sS'GGNCCC'
p62
I1
sS'GGNCCG'
p63
I1
sS'CGTCAT'
p64
I5805
sS'GTTCTC'
p65
I23436
sS'CCCGCG'
p66
I27258
sS'CGCGGG'
p67
I27253
sS'NCCGCC'
p68
I1
sS'CGCGGC'
p69
I29298
sS'CGCGGA'
p70
I12841
sS'NCCCAC'
p71
I1
sS'ACCTGT'
p72
I22115
sS'TCATGT'
p73
I21573
sS'CTCCGA'
p74
I11265
sS'TTACAG'
p75
I30805
sS'CTCCGC'
p76
I28861
sS'TTACAA'
p77
I22769
sS'CCGGCA'
p78
I14644
sS'TTACAC'
p79
I15196
sS'CTCCGG'
p80
I22447
sS'TCATGC'
p81
I20087
sS'ACCTGG'
p82
I34051
sS'TCATGA'
p83
I21780
sS'TCATGG'
p84
I21724
sS'ACCTGC'
p85
I27638
sS'GCGCNN'
p86
I1
sS'ACCTGA'
p87
I22998
sS'AGAGGG'
p88
I47224
sS'CTCGAT'
p89
I4571
sS'CTCCGT'
p90
I12672
sS'GAATTT'
p91
I29358
sS'GCCTGA'
p92
I31158
sS'GCCTGC'
p93
I41596
sS'GCCTGG'
p94
I65273
sS'TCTTGC'
p95
I25234
sS'TAAAGG'
p96
I22707
sS'CAAATT'
p97
I25658
sS'TAAAGA'
p98
I27474
sS'TAAAGC'
p99
I19706
sS'GCCTGT'
p100
I35008
sS'TCCCCG'
p101
I26476
sS'TAAAGT'
p102
I21876
sS'CAAATA'
p103
I29739
sS'ACGTCC'
p104
I7580
sS'CAAATC'
p105
I22192
sS'CGTGCT'
p106
I9789
sS'CAAATG'
p107
I31318
sS'AATACT'
p108
I18336
sS'CGTCAC'
p109
I9080
sS'CCGGCG'
p110
I22690
sS'GGCATG'
p111
I24332
sS'GGCATA'
p112
I11300
sS'GGCATC'
p113
I18325
sS'AATACG'
p114
I4446
sS'AATACA'
p115
I26341
sS'AATACC'
p116
I13311
sS'GGCATT'
p117
I21291
sS'TATCTG'
p118
I18920
sS'TGCACA'
p119
I28723
sS'GAGCAC'
p120
I21298
sS'ACTGAT'
p121
I17580
sS'GAGCAG'
p122
I42417
sS'AGTAGT'
p123
I13126
sS'TCTCGC'
p124
I12208
sS'TCTCGA'
p125
I7235
sS'TCTCGG'
p126
I14071
sS'ACTGAG'
p127
I33178
sS'AGTAGA'
p128
I18710
sS'AGTAGG'
p129
I17341
sS'GAGCAT'
p130
I17381
sS'ACGGCC'
p131
I11028
sS'TTTGTT'
p132
I56010
sS'GTGTCG'
p133
I5690
sS'TCGAAC'
p134
I4822
sS'TCGAAA'
p135
I5110
sS'GTGTCC'
p136
I22371
sS'TCGAAG'
p137
I5630
sS'GTGTCA'
p138
I20744
sS'CTTGCT'
p139
I32230
sS'CCGTCT'
p140
I12604
sS'GTGTCT'
p141
I26208
sS'TTGAAG'
p142
I24456
sS'TCGAAT'
p143
I4834
sS'CTTGCG'
p144
I7642
sS'CTTGCA'
p145
I23768
sS'CTTGCC'
p146
I27541
sS'CGAAAG'
p147
I7889
sS'CGAAAA'
p148
I7048
sS'CGAAAC'
p149
I6168
sS'AATCAT'
p150
I22799
sS'AAATGC'
p151
I32306
sS'CACGGC'
p152
I13590
sS'AAATGA'
p153
I45052
sS'AAATGG'
p154
I34519
sS'CACGGG'
p155
I12848
sS'ACAGTA'
p156
I19066
sS'CGAAAT'
p157
I5306
sS'ACAGTT'
p158
I24211
sS'AATCAG'
p159
I25761
sS'AATCAA'
p160
I22313
sS'AAATGT'
p161
I40287
sS'AATCAC'
p162
I22257
sS'GGGTCT'
p163
I24782
sS'GCTCAA'
p164
I20875
sS'TCTAGT'
p165
I15056
sS'TTGCCG'
p166
I7325
sS'TTGCCA'
p167
I26402
sS'TTGCCC'
p168
I26191
sS'TTGCCT'
p169
I30097
sS'TCTAGG'
p170
I19356
sS'GGGTAA'
p171
I14644
sS'TCTAGA'
p172
I18398
sS'GGGTAG'
p173
I16382
sS'TCTAGC'
p174
I14493
sS'ATACGG'
p175
I3315
sS'ATACAT'
p176
I18180
sS'AGATGT'
p177
I22566
sS'TCGCCC'
p178
I15803
sS'AGNNNN'
p179
I1
sS'TCGCCA'
p180
I8937
sS'ATAGTC'
p181
I9191
sS'TCGCCG'
p182
I9878
sS'GGTAAT'
p183
I11585
sS'ACCCAT'
p184
I15834
sS'CGTCAG'
p185
I9069
sS'CTCACC'
p186
I34393
sS'ACCCAC'
p187
I25479
sS'GGTAAC'
p188
I10933
sS'ACCCAA'
p189
I21248
sS'AGATGG'
p190
I32154
sS'ACCCAG'
p191
I40907
sS'GGTAAG'
p192
I14940
sS'TCGCCT'
p193
I11481
sS'AGATGC'
p194
I21691
sS'CCCCAT'
p195
I27154
sS'TTGGGT'
p196
I21233
sS'CACTAG'
p197
I14855
sS'CACTAA'
p198
I15342
sS'CACTAC'
p199
I12214
sS'CCCCAA'
p200
I33822
sS'CCCCAC'
p201
I47609
sS'CCCCAG'
p202
I59480
sS'CACTAT'
p203
I12788
sS'TTGGGG'
p204
I33803
sS'TCGGTT'
p205
I6131
sS'TTGGGA'
p206
I34582
sS'TTGGGC'
p207
I22398
sS'TGCCTG'
p208
I48519
sS'TGCAGA'
p209
I37129
sS'TTTCTG'
p210
I52538
sS'TGCAGC'
p211
I38571
sS'TTTCTA'
p212
I32407
sS'TTTCTC'
p213
I51862
sS'TGCAGG'
p214
I40255
sS'GGGTCA'
p215
I22017
sS'TGNNNN'
p216
I2
sS'TCAGAC'
p217
I21458
sS'TTTCTT'
p218
I67131
sS'ACGTGC'
p219
I8987
sS'TGCCTT'
p220
I35963
sS'TGCAGT'
p221
I36163
sS'TAGTGC'
p222
I10718
sS'AAGGAA'
p223
I54449
sS'AAGGAC'
p224
I22853
sS'AAGGAG'
p225
I43802
sS'ATATGC'
p226
I12401
sS'ATATGA'
p227
I16153
sS'TACGAA'
p228
I3710
sS'ATATGG'
p229
I12577
sS'GAGTTC'
p230
I21715
sS'AAGGAT'
p231
I22649
sS'AGGGCC'
p232
I35664
sS'TGACTT'
p233
I29136
sS'GGTCCC'
p234
I27440
sS'GCCCAG'
p235
I62065
sS'CCACTG'
p236
I39332
sS'GCCCAA'
p237
I22405
sS'GGTCCG'
p238
I9737
sS'GCCCAC'
p239
I29455
sS'TGTGTC'
p240
I27625
sS'AGACCC'
p241
I24776
sS'ATTGTT'
p242
I23083
sS'CTTCGA'
p243
I5626
sS'CTTCGC'
p244
I10030
sS'ATGCAA'
p245
I22027
sS'GCCCAT'
p246
I18070
sS'AGGTCA'
p247
I29427
sS'TCCGGC'
p248
I15866
sS'GGTCCT'
p249
I22265
sS'TCCGGA'
p250
I11104
sS'CTTAGC'
p251
I16508
sS'ATTGTG'
p252
I20070
sS'CTTAGA'
p253
I18388
sS'ATGCAC'
p254
I16723
sS'CTTAGG'
p255
I18172
sS'ATTGTC'
p256
I13793
sS'TCTTGG'
p257
I31077
sS'CGCTAC'
p258
I4854
sS'ATTTTG'
p259
I34431
sS'GAGGTG'
p260
I37563
sS'ATTTTA'
p261
I43067
sS'TAAATT'
p262
I27406
sS'ATTTTC'
p263
I39396
sS'TCCAGC'
p264
I44445
sS'TAGCAG'
p265
I19022
sS'GATACT'
p266
I10736
sS'TAGCAC'
p267
I13480
sS'TAGCAA'
p268
I17698
sS'TCCAGT'
p269
I27443
sS'ATTTTT'
p270
I64332
sS'GCCTTG'
p271
I29536
sS'GTGGGG'
p272
I47589
sS'GCCTTA'
p273
I14877
sS'TTGACA'
p274
I18392
sS'GCCTTC'
p275
I32617
sS'GATACG'
p276
I3005
sS'TAGCAT'
p277
I14204
sS'CTGTCT'
p278
I41141
sS'GATACC'
p279
I8089
sS'GATACA'
p280
I13022
sS'TGAGCT'
p281
I32176
sS'ACGGAC'
p282
I5781
sS'GATCAT'
p283
I13322
sS'TACCGG'
p284
I4481
sS'ACCGAG'
p285
I10170
sS'AAGACC'
p286
I20376
sS'GATTTA'
p287
I18178
sS'AAGACG'
p288
I8479
sS'GATCAG'
p289
I16052
sS'TGAGCG'
p290
I10929
sS'CTCGAG'
p291
I9232
sS'TGAGCA'
p292
I30538
sS'TGAGCC'
p293
I37458
sS'CGGGGA'
p294
I26473
sS'AAGACT'
p295
I23795
sS'GCGGTC'
p296
I9849
sS'GCGGTA'
p297
I4702
sS'CGTGCA'
p298
I9242
sS'GCGGTG'
p299
I19390
sS'CTATCG'
p300
I2425
sS'CGGTGT'
p301
I8141
sS'TCGTTA'
p302
I3656
sS'TCGTTC'
p303
I5660
sS'CTTCCC'
p304
I57428
sS'TCGTTG'
p305
I4932
sS'TGTGTG'
p306
I67650
sS'GCGGTT'
p307
I7920
sS'ACTTGC'
p308
I19199
sS'ATGTGA'
p309
I25560
sS'ACTTGA'
p310
I22164
sS'CGGTGG'
p311
I17944
sS'ACTTGG'
p312
I25981
sS'CGGTGA'
p313
I10794
sS'CCGTTA'
p314
I4035
sS'CGGTGC'
p315
I12936
sS'TTCCTA'
p316
I26006
sS'TAGACT'
p317
I12578
sS'TTCCTC'
p318
I50179
sS'ACTGAC'
p319
I19796
sS'CTTCCG'
p320
I16810
sS'TTCCTG'
p321
I55955
sS'TCCTTT'
p322
I46388
sS'GACCCA'
p323
I22478
sS'ACGCTA'
p324
I3739
sS'TAGACG'
p325
I3860
sS'TTCCTT'
p326
I54432
sS'TAGACC'
p327
I9240
sS'TAGACA'
p328
I15486
sS'TCCTTG'
p329
I31712
sS'TCCTTA'
p330
I21705
sS'TCCTTC'
p331
I43889
sS'ATCTCT'
p332
I28700
sS'ACCGTT'
p333
I5006
sS'TGGCGC'
p334
I16610
sS'TGGCGA'
p335
I8939
sS'GGCCAT'
p336
I18859
sS'ATCTCG'
p337
I7169
sS'ATCTCA'
p338
I26307
sS'ATCTCC'
p339
I24589
sS'GGCCAA'
p340
I27461
sS'ACGGAG'
p341
I12666
sS'GGCCAC'
p342
I32451
sS'ACCGTG'
p343
I9192
sS'ACCGTA'
p344
I3541
sS'GGCCAG'
p345
I49027
sS'ACCGTC'
p346
I6104
sS'ACCGAC'
p347
I5144
sS'AGATTA'
p348
I16677
sS'NGATCC'
p349
I2
sS'GGCAGT'
p350
I28223
sS'CCATAA'
p351
I14545
sS'CAAAGG'
p352
I33826
sS'CCATAC'
p353
I9509
sS'CTAACT'
p354
I14828
sS'AGATTC'
p355
I20210
sS'CAAAGC'
p356
I31883
sS'CAACGT'
p357
I6087
sS'GGCAGA'
p358
I42064
sS'GGCAGC'
p359
I47511
sS'TAAGTT'
p360
I16479
sS'GGCAGG'
p361
I60049
sS'CAACGC'
p362
I6742
sS'CTAACA'
p363
I16754
sS'CAACGA'
p364
I4932
sS'CTAACC'
p365
I12505
sS'CCATAT'
p366
I12579
sS'GCACTG'
p367
I29587
sS'GGGGGT'
p368
I26715
sS'TACGCT'
p369
I3494
sS'GAAACC'
p370
I27511
sS'CGATCT'
p371
I6163
sS'NNNNNC'
p372
I3
sS'CTCTAG'
p373
I20623
sS'CTCTAA'
p374
I20290
sS'CTCTAC'
p375
I18652
sS'GGGGGG'
p376
I26740
sS'TACGCA'
p377
I3861
sS'TACGCC'
p378
I3848
sS'GGGGGC'
p379
I44495
sS'CGATCG'
p380
I1958
sS'GGGGGA'
p381
I37865
sS'TACGCG'
p382
I2334
sS'CTCTAT'
p383
I15557
sS'GCGCAG'
p384
I23683
sS'CAGACC'
p385
I25295
sS'CAGACA'
p386
I34784
sS'CAGACG'
p387
I11032
sS'ACGTGA'
p388
I9665
sS'TAGTTG'
p389
I12178
sS'GCTAAT'
p390
I14646
sS'TAGTTC'
p391
I12946
sS'TAGTTA'
p392
I11824
sS'CAGACT'
p393
I26519
sS'GCTAAG'
p394
I16516
sS'TAGTTT'
p395
I21753
sS'GCTAAC'
p396
I10334
sS'GCTAAA'
p397
I16912
sS'TGCATT'
p398
I28353
sS'TGCTGC'
p399
I40668
sS'AACCCT'
p400
I23211
sS'GTCCAC'
p401
I16231
sS'ACGCAC'
p402
I8369
sS'AACCCC'
p403
I23664
sS'AACCCA'
p404
I26314
sS'TGCATA'
p405
I15705
sS'TTTCCG'
p406
I11532
sS'TGCATC'
p407
I17956
sS'AGAATA'
p408
I22172
sS'ACGTAA'
p409
I4877
sS'AACTGG'
p410
I25860
sS'AACGTT'
p411
I6942
sS'AGTTTA'
p412
I21853
sS'CCCAGA'
p413
I47064
sS'CCCAGC'
p414
I71616
sS'AGAATC'
p415
I23117
sS'CCCAGG'
p416
I72931
sS'AACTGT'
p417
I24208
sS'AGTTTT'
p418
I35356
sS'CTACAT'
p419
I13944
sS'AGTCAA'
p420
I19948
sS'CCCAGT'
p421
I33199
sS'CGCATA'
p422
I2799
sS'ATACTG'
p423
I15552
sS'CGCATC'
p424
I6278
sS'ATACTA'
p425
I9794
sS'ATACTC'
p426
I10525
sS'CGCATG'
p427
I7577
sS'GCGCAA'
p428
I6572
sS'GCGAAT'
p429
I4180
sS'ATACTT'
p430
I16804
sS'CGCATT'
p431
I5603
sS'AGGCCC'
p432
I37862
sS'GCTCCG'
p433
I23246
sS'TATTGT'
p434
I17255
sS'GCTCCC'
p435
I43231
sS'GCTCCA'
p436
I33170
sS'CCTACT'
p437
I17334
sS'TGTACT'
p438
I15653
sS'TTTAGT'
p439
I21759
sS'TATTGG'
p440
I12749
sS'GCTCCT'
p441
I38908
sS'TATTGC'
p442
I12920
sS'TATTGA'
p443
I14971
sS'TTTAGG'
p444
I21199
sS'TGTACG'
p445
I3707
sS'CCTACG'
p446
I5338
sS'TGTACA'
p447
I17993
sS'CCTACA'
p448
I16402
sS'ACAGTG'
p449
I32296
sS'CCTACC'
p450
I18008
sS'TTCGCG'
p451
I4614
sS'TTCGCA'
p452
I5382
sS'TTCGCC'
p453
I8485
sS'AGTATC'
p454
I10743
sS'GACTAA'
p455
I14521
sS'AGTATA'
p456
I11012
sS'TTTGGG'
p457
I37674
sS'AGTATG'
p458
I12622
sS'TTTGGA'
p459
I32808
sS'TTTGGC'
p460
I25288
sS'TTCGCT'
p461
I7657
sS'GATCNN'
p462
I2
sS'TTTGGT'
p463
I25310
sS'GCCACA'
p464
I31856
sS'GACTAT'
p465
I9194
sS'AGTATT'
p466
I18349
sS'TTACTC'
p467
I18241
sS'TTACTA'
p468
I14349
sS'TTACTG'
p469
I22613
sS'ACCTTG'
p470
I23262
sS'ACCTTC'
p471
I23256
sS'ACCTTA'
p472
I13478
sS'TTACTT'
p473
I25402
sS'ACGCTT'
p474
I6654
sS'ACCTTT'
p475
I24557
sS'ACAGGG'
p476
I33462
sS'CTGGGA'
p477
I62311
sS'CTGGGC'
p478
I62033
sS'ACAGGC'
p479
I35028
sS'TTATAT'
p480
I18694
sS'CTGGGG'
p481
I59469
sS'AGGACG'
p482
I12024
sS'GCAGCT'
p483
I40984
sS'CAGGAA'
p484
I55984
sS'TCGCTT'
p485
I9199
sS'CAGGAG'
p486
I60085
sS'AGGACA'
p487
I31708
sS'GCGCAT'
p488
I6980
sS'TTATAC'
p489
I10645
sS'ACAGGT'
p490
I22125
sS'CTGGGT'
p491
I40899
sS'TTATAG'
p492
I13949
sS'TCGCTG'
p493
I12444
sS'GAGTTG'
p494
I20951
sS'GCAGCG'
p495
I24270
sS'AGGACT'
p496
I26315
sS'GCAGCA'
p497
I40653
sS'TCGCTA'
p498
I3810
sS'CAGGAT'
p499
I28404
sS'CCTCAG'
p500
I51226
sS'CCTCAA'
p501
I26446
sS'CCTCAC'
p502
I33451
sS'TATGTT'
p503
I19456
sS'ATGGGC'
p504
I18068
sS'TCTTTG'
p505
I35152
sS'ATGGGA'
p506
I26159
sS'TCTTTA'
p507
I27452
sS'ATGGGG'
p508
I27142
sS'TCTTTC'
p509
I44083
sS'CCTCAT'
p510
I26740
sS'TCTTTT'
p511
I52560
sS'TATGTG'
p512
I20013
sS'TATGTA'
p513
I16478
sS'ATGGGT'
p514
I15829
sS'TATGTC'
p515
I11399
sS'GAAAGA'
p516
I44102
sS'ATCAAG'
p517
I16609
sS'CATGAT'
p518
I17604
sS'ATCAAC'
p519
I12257
sS'GAAAGG'
p520
I42286
sS'ATCAAA'
p521
I22918
sS'CGCTAG'
p522
I5731
sS'ACGTGG'
p523
I13057
sS'AGTTTC'
p524
I30835
sS'CATGAG'
p525
I24662
sS'ATCAAT'
p526
I12977
sS'AACCGA'
p527
I6131
sS'CATGAC'
p528
I18438
sS'CATGAA'
p529
I24516
sS'GTAGCG'
p530
I4851
sS'CAAGTT'
p531
I22624
sS'GCTTTG'
p532
I31879
sS'GTAGCC'
p533
I12714
sS'GCTTTC'
p534
I30812
sS'AGCGGT'
p535
I7951
sS'GCTTTT'
p536
I35203
sS'TGCCAG'
p537
I38274
sS'GTAGCT'
p538
I17520
sS'TTCTTT'
p539
I61548
sS'GCGGCC'
p540
I34433
sS'CAAGTC'
p541
I21261
sS'GCGGCA'
p542
I15293
sS'CAAGTA'
p543
I16765
sS'AACGGT'
p544
I5009
sS'CGTACG'
p545
I1645
sS'TAATCG'
p546
I2842
sS'CTTGTG'
p547
I25163
sS'TAATCA'
p548
I16563
sS'TAATCC'
p549
I19051
sS'TGCGAA'
p550
I5383
sS'CGGCCC'
p551
I31539
sS'CGACTA'
p552
I2747
sS'AAAATT'
p553
I42572
sS'CGGCCG'
p554
I25777
sS'TCGTGA'
p555
I6074
sS'CTTGTA'
p556
I15615
sS'GGTCTG'
p557
I25306
sS'TAATCT'
p558
I16690
sS'TGCGAC'
p559
I5141
sS'GGTCTC'
p560
I27075
sS'GGTCTA'
p561
I9239
sS'AAAATG'
p562
I51204
sS'AAAATC'
p563
I31103
sS'CGGCCT'
p564
I22343
sS'TCGTCA'
p565
I5009
sS'ATCCCT'
p566
I23436
sS'TTCAGG'
p567
I32176
sS'ATATCC'
p568
I11911
sS'TCGTCG'
p569
I3088
sS'TGCCAA'
p570
I25950
sS'GAACAA'
p571
I23577
sS'ATCCCG'
p572
I9075
sS'GAACAC'
p573
I18803
sS'ATCCCC'
p574
I21417
sS'GAACAG'
p575
I26529
sS'TTCAGT'
p576
I30253
sS'GCACTT'
p577
I26231
sS'AACGGA'
p578
I7399
sS'CACCAC'
p579
I33236
sS'NNNCTG'
p580
I1
sS'CACCAA'
p581
I23411
sS'CACCAG'
p582
I34480
sS'TCCGTG'
p583
I10532
sS'TCGTGC'
p584
I6347
sS'TCCGTC'
p585
I9528
sS'GAGTTA'
p586
I15016
sS'TCCGTA'
p587
I4202
sS'ACCAGA'
p588
I24886
sS'ACGCGA'
p589
I3951
sS'CACCAT'
p590
I24074
sS'AACATG'
p591
I24396
sS'AACATA'
p592
I19450
sS'AACATC'
p593
I19007
sS'GTCAGN'
p594
I1
sS'GTCAGC'
p595
I23692
sS'GCACGG'
p596
I11977
sS'GTCAGA'
p597
I24237
sS'GCACGA'
p598
I6342
sS'GTCAGG'
p599
I29802
sS'GCACGC'
p600
I12469
sS'CAGTCA'
p601
I27853
sS'GCAAGC'
p602
I19862
sS'GCACGT'
p603
I8988
sS'CAGTCT'
p604
I28434
sS'TCAGCT'
p605
I35327
sS'GTCAGT'
p606
I19801
sS'GTATAC'
p607
I6529
sS'TTCCGT'
p608
I8664
sS'GTATAA'
p609
I10643
sS'GTATAG'
p610
I7099
sS'CCGGAA'
p611
I14612
sS'CCGGAC'
p612
I11200
sS'CCGGAG'
p613
I22455
sS'TATCAT'
p614
I13580
sS'CTCGTA'
p615
I3502
sS'TTCCGG'
p616
I14613
sS'TTCCGA'
p617
I7266
sS'TTCCGC'
p618
I12050
sS'GTATAT'
p619
I11663
sS'CGTCTC'
p620
I13931
sS'CGTCTA'
p621
I3863
sS'CGTCTG'
p622
I11034
sS'CCGGAT'
p623
I6979
sS'CTCTTC'
p624
I40846
sS'TGTTAT'
p625
I18632
sS'CTCTTA'
p626
I20255
sS'CTCTTG'
p627
I30052
sS'CCCGAT'
p628
I5158
sS'TACGTA'
p629
I3507
sS'TACGTC'
p630
I3308
sS'TCTGGT'
p631
I24888
sS'AACAAA'
p632
I56071
sS'CGCGAT'
p633
I4238
sS'TACGTG'
p634
I5789
sS'GCCGTT'
p635
I7109
sS'TGTTAG'
p636
I16764
sS'GGTTTC'
p637
I27521
sS'CTCGTG'
p638
I9243
sS'CTCTTT'
p639
I42541
sS'TGTTAA'
p640
I22019
sS'TCTGGG'
p641
I47048
sS'CGCGAC'
p642
I6774
sS'CCCTGC'
p643
I53090
sS'TCTGGC'
p644
I33042
sS'TACGTT'
p645
I4462
sS'TCTGGA'
p646
I35803
sS'AGTCGT'
p647
I4934
sS'TTACCT'
p648
I18899
sS'CTCCAT'
p649
I28346
sS'ACTAGA'
p650
I15052
sS'TTACCG'
p651
I4523
sS'CTCCAC'
p652
I36321
sS'AGTCGG'
p653
I8412
sS'TTACCC'
p654
I14645
sS'CTCCAG'
p655
I57462
sS'TTACCA'
p656
I17375
sS'AGTCGC'
p657
I7279
sS'AATGCC'
p658
I21286
sS'GTACCG'
p659
I3408
sS'CCGACT'
p660
I8417
sS'GCCTAC'
p661
I11854
sS'GCCTAA'
p662
I13431
sS'CCGAGG'
p663
I24118
sS'GCCTAG'
p664
I17919
sS'GTGCGG'
p665
I13480
sS'CCGACA'
p666
I6719
sS'CCCTGT'
p667
I33467
sS'CCGACC'
p668
I10895
sS'CCGACG'
p669
I6074
sS'AAGCTC'
p670
I24287
sS'AACTCA'
p671
I25017
sS'GCCTAT'
p672
I10839
sS'TGACGG'
p673
I7266
sS'CCCGAG'
p674
I21457
sS'CTCGTT'
p675
I6898
sS'TCAGCG'
p676
I11907
sS'GCTGTC'
p677
I26399
sS'CGTCCT'
p678
I12024
sS'CGCACA'
p679
I10714
sS'ATACAC'
p680
I15190
sS'CGCACC'
p681
I12694
sS'ATACAA'
p682
I19882
sS'ACTGCT'
p683
I28451
sS'ATACAG'
p684
I18823
sS'CGCACG'
p685
I8614
sS'GGGTCC'
p686
I24943
sS'CTCACT'
p687
I38815
sS'TTTGTA'
p688
I29411
sS'ACTGCA'
p689
I36124
sS'TTTGTC'
p690
I26001
sS'ACTGCC'
p691
I28211
sS'CGCACT'
p692
I8457
sS'TTTGTG'
p693
I35334
sS'ACTGCG'
p694
I10944
sS'CTTGAC'
p695
I16533
sS'CTCACA'
p696
I33512
sS'CTCACG'
p697
I12699
sS'GTGGGT'
p698
I25463
sS'GTGAGG'
p699
I33433
sS'GATTTT'
p700
I31091
sS'ACAATT'
p701
I19558
sS'GTGAGC'
p702
I29964
sS'TAGTGA'
p703
I16075
sS'GTGAGA'
p704
I28150
sS'TCGACG'
p705
I2076
sS'TCGACA'
p706
I3330
sS'TCGACC'
p707
I4190
sS'ACAATA'
p708
I17259
sS'GTGAGT'
p709
I27972
sS'TAGTGT'
p710
I12937
sS'GTGGGA'
p711
I35561
sS'ACAATG'
p712
I21472
sS'TCGACT'
p713
I4011
sS'GTGGGN'
p714
I1
sS'CTGGTT'
p715
I26619
sS'TGCAAA'
p716
I34685
sS'CGAACG'
p717
I3245
sS'GCGTCA'
p718
I7736
sS'CGAACC'
p719
I5822
sS'CGAACA'
p720
I4816
sS'CGGNCC'
p721
I1
sS'CTGGTG'
p722
I34462
sS'CTGGTA'
p723
I15910
sS'CTGGTC'
p724
I25998
sS'CGTCCG'
p725
I7532
sS'CGAACT'
p726
I6308
sS'CGCTGA'
p727
I11910
sS'TTGCAT'
p728
I22023
sS'GACGAG'
p729
I8224
sS'NNGAAT'
p730
I4
sS'GCGGAA'
p731
I12055
sS'TTGCAG'
p732
I32441
sS'TCCATA'
p733
I13869
sS'TTGCAC'
p734
I17704
sS'TTGCAA'
p735
I23811
sS'AAGATC'
p736
I16726
sS'ACGTAC'
p737
I3408
sS'GAGGGC'
p738
I40306
sS'TCGCAT'
p739
I3873
sS'GAGCGG'
p740
I20511
sS'GTCGTG'
p741
I5874
sS'GTCGTA'
p742
I2401
sS'GTCGTC'
p743
I5181
sS'GCGTCC'
p744
I14868
sS'CCGTTT'
p745
I9914
sS'GAGCAA'
p746
I26477
sS'GCCTCG'
p747
I21071
sS'ATATCG'
p748
I2258
sS'GTCGTT'
p749
I4517
sS'TCAGAT'
p750
I23660
sS'TCGCAG'
p751
I10467
sS'TCCATG'
p752
I23046
sS'CCAAGC'
p753
I27565
sS'TCGCAC'
p754
I5671
sS'CCGTTG'
p755
I6020
sS'CGCTGC'
p756
I24277
sS'CCGTTC'
p757
I7841
sS'GATCGG'
p758
I4378
sS'AATGCT'
p759
I25442
sS'GGTACG'
p760
I3267
sS'GGTACA'
p761
I11411
sS'TCCAGG'
p762
I47494
sS'GGTACC'
p763
I9121
sS'TATTTG'
p764
I29744
sS'CAGGGA'
p765
I51329
sS'TTCAGC'
p766
I29278
sS'TATTTC'
p767
I29714
sS'TATTTA'
p768
I35140
sS'CCCCCT'
p769
I36745
sS'GGTACT'
p770
I10280
sS'AATGCG'
p771
I5600
sS'TGCAAT'
p772
I20086
sS'AATGCA'
p773
I28317
sS'CCCCCC'
p774
I26737
sS'CCCCCA'
p775
I44693
sS'TATTTT'
p776
I56517
sS'CCCCCG'
p777
I27614
sS'CTTGAG'
p778
I28523
sS'ATGATG'
p779
I21660
sS'ATGATA'
p780
I13565
sS'GCGTTA'
p781
I3917
sS'ATGATC'
p782
I13325
sS'CGGACT'
p783
I7871
sS'TGCAAC'
p784
I17525
sS'TTGAGT'
p785
I21456
sS'TGCAAG'
p786
I23791
sS'GCCGTC'
p787
I10513
sS'ATGATT'
p788
I22798
sS'CTTGAT'
p789
I16603
sS'CGAATC'
p790
I4596
sS'TTGAGG'
p791
I26443
sS'AATCTC'
p792
I21656
sS'CAATGT'
p793
I17549
sS'TTGAGC'
p794
I20861
sS'TTGAGA'
p795
I30213
sS'GAGAAT'
p796
I26764
sS'TGTCTT'
p797
I31938
sS'AGTAGC'
p798
I17175
sS'AAGGCC'
p799
I28477
sS'ATAACC'
p800
I11510
sS'AAGGCA'
p801
I35950
sS'ATAACA'
p802
I18608
sS'AAGGCG'
p803
I14021
sS'ATAACG'
p804
I3836
sS'GAGGGT'
p805
I26801
sS'TGTCTG'
p806
I34797
sS'GAGAAG'
p807
I44540
sS'GAGAAA'
p808
I51886
sS'TGTCTC'
p809
I33888
sS'GAGAAC'
p810
I23440
sS'TGTCTA'
p811
I15506
sS'TGTGGC'
p812
I31858
sS'TGTGGA'
p813
I29216
sS'TGTGGG'
p814
I36257
sS'ATAACT'
p815
I15788
sS'AAGGCT'
p816
I30854
sS'TAGGCT'
p817
I16519
sS'AACGGC'
p818
I7110
sS'AGGTAT'
p819
I13176
sS'ACCAAG'
p820
I22928
sS'ACTGAA'
p821
I30278
sS'ACCAAA'
p822
I25319
sS'AAGCAG'
p823
I40640
sS'ACCAAC'
p824
I16035
sS'GGTCAC'
p825
I21277
sS'GATCGC'
p826
I6347
sS'GGTCAT'
p827
I15382
sS'ACCAAT'
p828
I13953
sS'TGTGGT'
p829
I29737
sS'AGGTAA'
p830
I18904
sS'CAAACT'
p831
I27270
sS'TTTTGC'
p832
I30578
sS'TCTTAC'
p833
I16149
sS'AATTGG'
p834
I15922
sS'TCTTAA'
p835
I23792
sS'AATTGA'
p836
I17038
sS'TCTTAG'
p837
I18854
sS'AATTGC'
p838
I16391
sS'TAGCCA'
p839
I18193
sS'TGGGGT'
p840
I32127
sS'TAGCCC'
p841
I13862
sS'GATAAT'
p842
I13946
sS'CGCTCA'
p843
I10926
sS'TAGCCG'
p844
I5810
sS'AATTGT'
p845
I19551
sS'CGAGAG'
p846
I12819
sS'AATCTT'
p847
I22298
sS'TCTTAT'
p848
I17894
sS'TTTTGT'
p849
I50830
sS'CGCTCT'
p850
I15356
sS'TGGGGG'
p851
I44700
sS'GATAAC'
p852
I9628
sS'TAGCCT'
p853
I17052
sS'TGGGGC'
p854
I42341
sS'GATAAG'
p855
I12688
sS'CTCTCA'
p856
I32932
sS'GATCCT'
p857
I18569
sS'AAGAAT'
p858
I30573
sS'CGAAGT'
p859
I6284
sS'GTTATC'
p860
I9629
sS'AAGAAC'
p861
I24568
sS'GATCCA'
p862
I15440
sS'AAGAAA'
p863
I67176
sS'ATGCCA'
p864
I24275
sS'AAGAAG'
p865
I39326
sS'GATCCG'
p866
I7123
sS'ATGCCG'
p867
I6039
sS'GCAACG'
p868
I6678
sS'CAAGGG'
p869
I27477
sS'CAAGGC'
p870
I29527
sS'GGTTCT'
p871
I22030
sS'CAAGGA'
p872
I31714
sS'GGCGCN'
p873
I1
sS'GGTTCA'
p874
I18374
sS'CAGGGC'
p875
I50885
sS'CAAGGT'
p876
I23259
sS'GGTTCG'
p877
I5813
sS'TAGGCA'
p878
I17807
sS'TAGTGG'
p879
I15457
sS'ATTATC'
p880
I13936
sS'TAGAAT'
p881
I19170
sS'CAAACG'
p882
I8360
sS'ATTATG'
p883
I15643
sS'AGTCTT'
p884
I23801
sS'TAGAAA'
p885
I32450
sS'TAGAAC'
p886
I13725
sS'ATTATT'
p887
I28849
sS'TAGAAG'
p888
I20720
sS'AGTCTA'
p889
I12580
sS'AGTCTC'
p890
I26602
sS'GTTCTG'
p891
I27290
sS'AGTCTG'
p892
I26522
sS'TAACTC'
p893
I15026
sS'TAACTA'
p894
I11845
sS'TAACTG'
p895
I19204
sS'ATCTAT'
p896
I12777
sS'ACGCGT'
p897
I3515
sS'GCCCCG'
p898
I42717
sS'NNNCAC'
p899
I1
sS'TAACTT'
p900
I20414
sS'ATCTAG'
p901
I12824
sS'ATCTAC'
p902
I10892
sS'ATCTAA'
p903
I14613
sS'GGTCAG'
p904
I29151
sS'CCATGT'
p905
I23287
sS'GCCCCC'
p906
I44491
sS'TGGAGG'
p907
I46636
sS'TGGAGA'
p908
I41931
sS'TGGAGC'
p909
I33170
sS'CCATGC'
p910
I20838
sS'TCCAGA'
p911
I35803
sS'CCATGA'
p912
I21725
sS'GCCCCA'
p913
I42339
sS'TGGAGT'
p914
I31567
sS'ATTACG'
p915
I3414
sS'TCAGTA'
p916
I18558
sS'TCAGTC'
p917
I22459
sS'CTCTCT'
p918
I56092
sS'GGGGAT'
p919
I21423
sS'TCAGTG'
p920
I31246
sS'CGATAT'
p921
I2262
sS'GGGGAA'
p922
I43357
sS'GGGGAC'
p923
I30165
sS'CTCTCC'
p924
I54338
sS'TCAGTT'
p925
I28522
sS'GGGGAG'
p926
I61377
sS'CGATAG'
p927
I2426
sS'CGATAA'
p928
I2945
sS'ATGCTG'
p929
I28977
sS'TATCAA'
p930
I12681
sS'GTGTTT'
p931
I33954
sS'GCTACT'
p932
I17172
sS'GTGGTT'
p933
I23442
sS'GTGTTC'
p934
I18793
sS'GTGTTA'
p935
I14504
sS'GTGTTG'
p936
I20252
sS'CGTGCC'
p937
I12128
sS'GTGGTA'
p938
I13511
sS'GCTACA'
p939
I14450
sS'GTGGTC'
p940
I17665
sS'GCTACC'
p941
I11903
sS'GTGGTG'
p942
I33195
sS'GCTACG'
p943
I4922
sS'AGGTAG'
p944
I17838
sS'TTTCGT'
p945
I6852
sS'TGCCCT'
p946
I38503
sS'CCACTC'
p947
I29400
sS'AGCGTT'
p948
I7367
sS'CGTGCG'
p949
I8616
sS'TGCCCC'
p950
I34868
sS'TGCCCA'
p951
I38329
sS'TGCCCG'
p952
I16679
sS'TTTCGG'
p953
I7686
sS'AGCGTA'
p954
I3489
sS'AGCGTC'
p955
I9217
sS'AGCGTG'
p956
I10736
sS'GGCCCC'
p957
I45912
sS'GGCCCA'
p958
I33389
sS'CACGTG'
p959
I16303
sS'GGCCCG'
p960
I27708
sS'CACGTA'
p961
I5791
sS'CACGTC'
p962
I9219
sS'CTACGC'
p963
I4649
sS'CTACGA'
p964
I3777
sS'GGGACT'
p965
I28332
sS'ACAGTC'
p966
I20299
sS'CACGTT'
p967
I8984
sS'GGGGCC'
p968
I45919
sS'GNCCCA'
p969
I1
sS'GGCCCT'
p970
I35677
sS'GGGACA'
p971
I29394
sS'TTTTGG'
p972
I32616
sS'GGGACC'
p973
I27430
sS'TGACGA'
p974
I5011
sS'ACGTGT'
p975
I8570
sS'AGAGAG'
p976
I56086
sS'AGAGAA'
p977
I52168
sS'AGAGAC'
p978
I32041
sS'TCTATA'
p979
I11962
sS'GTCTTT'
p980
I26592
sS'TCTATC'
p981
I11835
sS'TCTATG'
p982
I14416
sS'AGAGAT'
p983
I28718
sS'ATGTGC'
p984
I19728
sS'GTCTTG'
p985
I21808
sS'TCTATT'
p986
I19939
sS'GTCTTC'
p987
I22742
sS'GTCTTA'
p988
I13433
sS'GCAGAG'
p989
I51652
sS'CGATTG'
p990
I4250
sS'GCTCAC'
p991
I29926
sS'GCAGAC'
p992
I22349
sS'GCAGAA'
p993
I35409
sS'GCTCAG'
p994
I40176
sS'AGACGT'
p995
I7271
sS'ATGCGT'
p996
I5055
sS'TTGCTG'
p997
I34758
sS'TTGCTA'
p998
I17683
sS'TTGCTC'
p999
I26468
sS'GCAGAT'
p1000
I23048
sS'GCTCAT'
p1001
I20034
sS'GTTTGC'
p1002
I22397
sS'TTGCTT'
p1003
I35638
sS'ATGCGG'
p1004
I6347
sS'CGCTCC'
p1005
I23056
sS'ATGCGC'
p1006
I6980
sS'ATGCGA'
p1007
I3874
sS'TGTAAG'
p1008
I18192
sS'GGCTAG'
p1009
I15060
sS'AAGCGT'
p1010
I6655
sS'TGTAAC'
p1011
I15134
sS'GGCTAC'
p1012
I12719
sS'TGTAAA'
p1013
I31298
sS'CTGAAA'
p1014
I40860
sS'TTCGAG'
p1015
I7665
sS'TTGGTA'
p1016
I14081
sS'ACTGTC'
p1017
I20183
sS'TTGGTC'
p1018
I16510
sS'TTCGAC'
p1019
I3221
sS'TTCGAA'
p1020
I5285
sS'TTGGTG'
p1021
I23394
sS'GACTGC'
p1022
I21527
sS'GGCTAT'
p1023
I11091
sS'TGTAAT'
p1024
I25468
sS'GACTGG'
p1025
I26600
sS'TTCGAT'
p1026
I4199
sS'TTGGTT'
p1027
I24183
sS'ACTGTT'
p1028
I23844
sS'GTTTCT'
p1029
I37441
sS'AGGTCC'
p1030
I20528
sS'ATAATT'
p1031
I23011
sS'CCTTTT'
p1032
I41568
sS'GTTTCG'
p1033
I6165
sS'GTTTCC'
p1034
I34067
sS'GTTTCA'
p1035
I27679
sS'ATAATG'
p1036
I17844
sS'CCTTTA'
p1037
I22687
sS'CCTTTC'
p1038
I42290
sS'ATAATC'
p1039
I13498
sS'NNNNGA'
p1040
I6
sS'ATAATA'
p1041
I20783
sS'CCTTTG'
p1042
I33808
sS'ACAGAA'
p1043
I41063
sS'CTCTCG'
p1044
I12809
sS'ACAGAC'
p1045
I25409
sS'GCCCCT'
p1046
I41012
sS'ACAGAG'
p1047
I45386
sS'TTATCT'
p1048
I22849
sS'CTGGAC'
p1049
I26762
sS'CTGGAA'
p1050
I46140
sS'CTGGAG'
p1051
I57439
sS'ACAGAT'
p1052
I25407
sS'GTGAAG'
p1053
I25477
sS'TTATCG'
p1054
I2946
sS'TTATCA'
p1055
I17114
sS'CTGGAT'
p1056
I24795
sS'TTATCC'
p1057
I14112
sS'CCAATG'
p1058
I16870
sS'AAACCG'
p1059
I8438
sS'AAACCA'
p1060
I34028
sS'CCAATC'
p1061
I16554
sS'AAACCC'
p1062
I27956
sS'CCAATA'
p1063
I12743
sS'TGTCGG'
p1064
I6725
sS'GAGATC'
p1065
I18134
sS'CCCTAT'
p1066
I12124
sS'GAGATA'
p1067
I16205
sS'AACGAA'
p1068
I7185
sS'GAGATG'
p1069
I30828
sS'AACGAC'
p1070
I4520
sS'AAACCT'
p1071
I27545
sS'CCAATT'
p1072
I15928
sS'ATTTGC'
p1073
I24406
sS'GGGTAT'
p1074
I9513
sS'ATTTGG'
p1075
I26435
sS'CCCTAG'
p1076
I19262
sS'TGTCGT'
p1077
I5064
sS'CCCTAC'
p1078
I16197
sS'GAGATT'
p1079
I21668
sS'CCCTAA'
p1080
I17880
sS'CATTAT'
p1081
I17856
sS'CTACAC'
p1082
I13037
sS'TGGATT'
p1083
I23033
sS'ATCACA'
p1084
I24598
sS'ATCACC'
p1085
I18839
sS'CATGCT'
p1086
I23191
sS'TGACAC'
p1087
I20764
sS'TGACAA'
p1088
I22272
sS'TGGATA'
p1089
I14339
sS'CATTAG'
p1090
I14754
sS'CATTAA'
p1091
I19673
sS'TGGATG'
p1092
I24178
sS'CATGCA'
p1093
I23405
sS'TGACAT'
p1094
I21997
sS'CAATCC'
p1095
I15976
sS'ATCACT'
p1096
I22917
sS'AATTAG'
p1097
I19856
sS'AACCTG'
p1098
I25434
sS'GTAGAA'
p1099
I17032
sS'GTAGAC'
p1100
I9102
sS'GTAGAG'
p1101
I18663
sS'GATTGG'
p1102
I16547
sS'ACAACC'
p1103
I15938
sS'GCATGA'
p1104
I20100
sS'GATTGC'
p1105
I13099
sS'GATTGA'
p1106
I12186
sS'ACTAAG'
p1107
I15363
sS'GTAGAT'
p1108
I10886
sS'TGCTAC'
p1109
I13370
sS'ATACGA'
p1110
I2917
sS'TGATGC'
p1111
I17364
sS'GATTGT'
p1112
I13790
sS'ACAACT'
p1113
I18912
sS'GCGCGT'
p1114
I9455
sS'TAATAG'
p1115
I13113
sS'GTCCGG'
p1116
I11200
sS'TAATAC'
p1117
I11614
sS'GTCCGA'
p1118
I5258
sS'TAATAA'
p1119
I24689
sS'GTCCGC'
p1120
I10842
sS'TGTTTA'
p1121
I33236
sS'GATCCC'
p1122
I16826
sS'CACATC'
p1123
I22554
sS'GTCCGT'
p1124
I5782
sS'TAATAT'
p1125
I17321
sS'CGTAAC'
p1126
I3206
sS'GGGNCC'
p1127
I1
sS'ATTCGC'
p1128
I4175
sS'TTCTCC'
p1129
I45740
sS'ATTCGA'
p1130
I4829
sS'TTCTCA'
p1131
I39111
sS'ATCCAT'
p1132
I16579
sS'TTCTCG'
p1133
I9502
sS'TCGTAC'
p1134
I2244
sS'TACCTT'
p1135
I16797
sS'TCGTAA'
p1136
I3427
sS'TCGTAG'
p1137
I3781
sS'GAACCT'
p1138
I18700
sS'ATCCAA'
p1139
I17976
sS'ATCCAC'
p1140
I17652
sS'TGAACC'
p1141
I18376
sS'TTCTCT'
p1142
I52129
sS'TGAACA'
p1143
I24668
sS'GAACCC'
p1144
I20771
sS'TACCTG'
p1145
I17945
sS'TACCTA'
p1146
I11014
sS'TACCTC'
p1147
I15741
sS'TCGTAT'
p1148
I2914
sS'ATGTTA'
p1149
I17757
sS'ACCATA'
p1150
I11493
sS'ACCATG'
p1151
I21362
sS'ATGTTG'
p1152
I21793
sS'AGCTCT'
p1153
I35285
sS'GAGCTG'
p1154
I46248
sS'AGTGGT'
p1155
I22111
sS'CGTGGT'
p1156
I11013
sS'TGATGT'
p1157
I21774
sS'ATGTTT'
p1158
I34542
sS'ACCATT'
p1159
I17459
sS'AGTGGA'
p1160
I27044
sS'AGTGGC'
p1161
I30499
sS'AGCTCC'
p1162
I38160
sS'AGTGGG'
p1163
I32743
sS'GGCCTT'
p1164
I28484
sS'CAGTAA'
p1165
I22614
sS'CAGTAC'
p1166
I12721
sS'CAGTAG'
p1167
I18600
sS'CGCGGT'
p1168
I10375
sS'TTAATA'
p1169
I21045
sS'CAGTAT'
p1170
I15555
sS'AAAGTA'
p1171
I26087
sS'TTAATC'
p1172
I15460
sS'CCGGCT'
p1173
I21772
sS'GATCTA'
p1174
I8880
sS'GATCTC'
p1175
I18129
sS'ATTGAC'
p1176
I10978
sS'GATCTG'
p1177
I20242
sS'TGTTTT'
p1178
I60460
sS'CCGGCC'
p1179
I35561
sS'ATTAGG'
p1180
I13653
sS'GTTCCA'
p1181
I21004
sS'CACATT'
p1182
I28608
sS'ATTAGC'
p1183
I14636
sS'TCCCTC'
p1184
I50726
sS'GAGCTT'
p1185
I24299
sS'TCCCTA'
p1186
I20197
sS'TGCCAC'
p1187
I29428
sS'TCCCTG'
p1188
I51339
sS'GATCTT'
p1189
I16732
sS'CTAGAC'
p1190
I11574
sS'AAGTGA'
p1191
I34209
sS'AAGTGC'
p1192
I26240
sS'TGTTCT'
p1193
I31613
sS'AAGTGG'
p1194
I28273
sS'TGATTG'
p1195
I18404
sS'TCTGAT'
p1196
I23369
sS'TGATTA'
p1197
I16568
sS'TGTTCA'
p1198
I24681
sS'CACAAG'
p1199
I25180
sS'TGTTCC'
p1200
I25557
sS'CACAAA'
p1201
I35374
sS'CACAAC'
p1202
I18484
sS'TGTTCG'
p1203
I4818
sS'TCTGAA'
p1204
I35013
sS'TCTGAC'
p1205
I24243
sS'TCTGAG'
p1206
I39700
sS'CGCGCC'
p1207
I29409
sS'CGCGCA'
p1208
I12615
sS'GGTAAA'
p1209
I18038
sS'CGCGCG'
p1210
I25328
sS'CTCCCT'
p1211
I60850
sS'AGCGGG'
p1212
I19915
sS'AGCGGA'
p1213
I11928
sS'ACCTCT'
p1214
I28897
sS'AGATGA'
p1215
I31242
sS'GACGTG'
p1216
I9216
sS'GACATT'
p1217
I20344
sS'CGCGCT'
p1218
I14692
sS'GTGCGA'
p1219
I5669
sS'ACCTCA'
p1220
I28597
sS'CTCCCA'
p1221
I56201
sS'CTCCCC'
p1222
I61357
sS'TAGCTA'
p1223
I11440
sS'TAAGCC'
p1224
I15162
sS'TAGCTC'
p1225
I15847
sS'CCCATG'
p1226
I22329
sS'CGGGAA'
p1227
I17398
sS'TAATTT'
p1228
I34529
sS'TAGCTG'
p1229
I23606
sS'CCCATC'
p1230
I27306
sS'CCGAGA'
p1231
I14078
sS'CCTGCT'
p1232
I45706
sS'CCGAAT'
p1233
I5090
sS'CCCATT'
p1234
I24872
sS'CGGGAT'
p1235
I9083
sS'ATTTCG'
p1236
I5302
sS'TAGCTT'
p1237
I16421
sS'TAAGCT'
p1238
I15265
sS'GCCTCC'
p1239
I60999
sS'CCGAAC'
p1240
I5938
sS'CCTGCG'
p1241
I22311
sS'CCGAAA'
p1242
I7687
sS'CCGAAG'
p1243
I10901
sS'CCTGCC'
p1244
I60032
sS'CCTGCA'
p1245
I40228
sS'GTACTG'
p1246
I12721
sS'CCATTC'
p1247
I25293
sS'TATAAG'
p1248
I11488
sS'TATAAA'
p1249
I26908
sS'TATAAC'
p1250
I9815
sS'GCNNNN'
p1251
I1
sS'GATTTG'
p1252
I22188
sS'CATTTC'
p1253
I39554
sS'TATAAT'
p1254
I16756
sS'TGTGNN'
p1255
I1
sS'CCATTT'
p1256
I34527
sS'TCTACA'
p1257
I17373
sS'TCTACC'
p1258
I15339
sS'TCTACG'
p1259
I4227
sS'ACTTTC'
p1260
I27885
sS'CGCAAC'
p1261
I5302
sS'TGCTTA'
p1262
I20448
sS'CGCAAA'
p1263
I7010
sS'ATACCG'
p1264
I2884
sS'CGCAAG'
p1265
I7642
sS'ATACCA'
p1266
I13845
sS'ATACCC'
p1267
I9511
sS'TCTACT'
p1268
I18699
sS'ATACCT'
p1269
I13173
sS'CGCAAT'
p1270
I3975
sS'TAGTAA'
p1271
I14371
sS'TGGGTG'
p1272
I37792
sS'TAGTAC'
p1273
I7090
sS'CTCAAG'
p1274
I28514
sS'CTCAAA'
p1275
I35228
sS'TAGTAG'
p1276
I11894
sS'CTCAAC'
p1277
I18364
sS'GTGTGC'
p1278
I24540
sS'GTGTGA'
p1279
I26686
sS'GTGTGG'
p1280
I31766
sS'TAACGG'
p1281
I4042
sS'CTCAAT'
p1282
I16962
sS'TAGTAT'
p1283
I9812
sS'CTCCCG'
p1284
I31241
sS'GTGTGT'
p1285
I55978
sS'ATCTTT'
p1286
I28611
sS'GTTGGG'
p1287
I24060
sS'GTTGGA'
p1288
I18466
sS'GTTGGC'
p1289
I18022
sS'CCTTGG'
p1290
I35861
sS'CCTTGA'
p1291
I24310
sS'GCGTAT'
p1292
I2752
sS'AGGATT'
p1293
I24794
sS'GGACGT'
p1294
I7578
sS'CTAAGC'
p1295
I15595
sS'GTTGGT'
p1296
I16031
sS'ATCTTG'
p1297
I21100
sS'CTGNNN'
p1298
I1
sS'ATCTTA'
p1299
I15676
sS'ATCTTC'
p1300
I21425
sS'CCTTGT'
p1301
I24883
sS'AGGATA'
p1302
I15761
sS'AGGATG'
p1303
I30758
sS'GACATG'
p1304
I17254
sS'GACATC'
p1305
I15091
sS'GACATA'
p1306
I11394
sS'GATTTC'
p1307
I23685
sS'GAATAT'
p1308
I16736
sS'GGTGCA'
p1309
I20804
sS'TCGGCC'
p1310
I16127
sS'ATCAGA'
p1311
I23353
sS'TTGCGA'
p1312
I4115
sS'TTGCGC'
p1313
I6569
sS'TTGCGG'
p1314
I7703
sS'GAATAG'
p1315
I13678
sS'TCGGCT'
p1316
I12147
sS'ATCAGC'
p1317
I19676
sS'GAATAC'
p1318
I11621
sS'GAATAA'
p1319
I22660
sS'AAGTCG'
p1320
I6245
sS'CGACAG'
p1321
I9078
sS'GTACAT'
p1322
I11565
sS'GACCTT'
p1323
I20104
sS'TGCCTC'
p1324
I40597
sS'ACGTCG'
p1325
I3064
sS'GGACGC'
p1326
I14872
sS'TTATAA'
p1327
I21555
sS'GAAATG'
p1328
I39561
sS'AATGAT'
p1329
I22056
sS'GAAATA'
p1330
I29703
sS'GAAATC'
p1331
I23698
sS'ACCGGT'
p1332
I4189
sS'GAAATT'
p1333
I27711
sS'AATGAA'
p1334
I40605
sS'ATGTCC'
p1335
I16505
sS'AATGAC'
p1336
I23531
sS'AATGAG'
p1337
I32422
sS'CTTGGA'
p1338
I29157
sS'CTTGGC'
p1339
I33074
sS'GTCCTT'
p1340
I22850
sS'CTTGGG'
p1341
I35277
sS'TTGTGA'
p1342
I24838
sS'GGGAAT'
p1343
I24218
sS'TTGAAT'
p1344
I24332
sS'GTCCTA'
p1345
I12017
sS'GTCCTC'
p1346
I26321
sS'TGCACG'
p1347
I9250
sS'CTTGGT'
p1348
I22919
sS'GTCCTG'
p1349
I31140
sS'TGCACC'
p1350
I20817
sS'TTGAAA'
p1351
I35402
sS'TTGAAC'
p1352
I19316
sS'AGCCCA'
p1353
I38068
sS'AGCCCC'
p1354
I42455
sS'CTTATG'
p1355
I13236
sS'ATAAAT'
p1356
I35256
sS'TGGTCG'
p1357
I5709
sS'TGGTCA'
p1358
I21967
sS'TGGTCC'
p1359
I18950
sS'ACGATT'
p1360
I4229
sS'GAGACT'
p1361
I26619
sS'GATTCA'
p1362
I21686
sS'TGGTCT'
p1363
I25986
sS'ATAAAG'
p1364
I25224
sS'CCTGTG'
p1365
I40732
sS'ATAAAA'
p1366
I43969
sS'TCAGCC'
p1367
I40242
sS'ATAAAC'
p1368
I22775
sS'GAGACG'
p1369
I13931
sS'ACGATG'
p1370
I5517
sS'CTACAG'
p1371
I21529
sS'GAGACC'
p1372
I27052
sS'ACGATC'
p1373
I3705
sS'GAGACA'
p1374
I33857
sS'ACGATA'
p1375
I2598
sS'GGTTAC'
p1376
I10614
sS'ATGTGT'
p1377
I27787
sS'GGTTAA'
p1378
I14770
sS'GACGTC'
p1379
I7731
sS'GGTTAG'
p1380
I12514
sS'CTTCCT'
p1381
I63756
sS'GAATGT'
p1382
I23890
sS'TCCATT'
p1383
I29209
sS'CGTGAA'
p1384
I7805
sS'CCAACA'
p1385
I24833
sS'TCCGCT'
p1386
I11923
sS'CTTCCA'
p1387
I39316
sS'ATGTGG'
p1388
I25156
sS'ACCACC'
p1389
I25019
sS'CGTATG'
p1390
I3142
sS'ACCACA'
p1391
I29721
sS'GGTTAT'
p1392
I11516
sS'TCCGCC'
p1393
I24193
sS'TCCGCA'
p1394
I10078
sS'TCCGCG'
p1395
I12839
sS'AACGTC'
p1396
I5797
sS'CGTGAG'
p1397
I12710
sS'AACGTG'
p1398
I8985
sS'CGTGAC'
p1399
I9057
sS'GGTAGC'
p1400
I11902
sS'AGTGTG'
p1401
I28391
sS'TCTTCG'
p1402
I7732
sS'AGTGTA'
p1403
I14435
sS'TCTTCA'
p1404
I31721
sS'AGTGTC'
p1405
I19826
sS'TCTTCC'
p1406
I45697
sS'CGTGAT'
p1407
I6744
sS'TAAGTC'
p1408
I13173
sS'TAAGTA'
p1409
I15562
sS'CAATTT'
p1410
I24043
sS'TCTTCT'
p1411
I40211
sS'AGTGTT'
p1412
I24665
sS'GTGCGC'
p1413
I12949
sS'TTGGCA'
p1414
I25921
sS'AAAGGT'
p1415
I24558
sS'TTGGCC'
p1416
I27454
sS'AGTAAC'
p1417
I15533
sS'TTAACG'
p1418
I4379
sS'TTGGCG'
p1419
I8695
sS'GACTTC'
p1420
I22318
sS'TCGAGT'
p1421
I5223
sS'GACTTA'
p1422
I13160
sS'GACTTG'
p1423
I21257
sS'ACGTAG'
p1424
I4787
sS'AAAGGG'
p1425
I37151
sS'AAAGGA'
p1426
I46399
sS'TTGGCT'
p1427
I30833
sS'AAAGGC'
p1428
I32292
sS'GAGTAC'
p1429
I9072
sS'GTCGAT'
p1430
I2353
sS'GACTTT'
p1431
I24594
sS'TAAACC'
p1432
I15632
sS'CAAGAA'
p1433
I32146
sS'AGCGAG'
p1434
I15290
sS'CAAGAC'
p1435
I21818
sS'GATTCG'
p1436
I4591
sS'CAAGAG'
p1437
I30073
sS'TTCTTG'
p1438
I32129
sS'TTCTTC'
p1439
I40422
sS'TTCTTA'
p1440
I27328
sS'CAAGAT'
p1441
I21106
sS'AGGGCT'
p1442
I37518
sS'TACGGG'
p1443
I4445
sS'TACGGA'
p1444
I4207
sS'TACGGC'
p1445
I3950
sS'CCAACT'
p1446
I21764
sS'TAGAGT'
p1447
I14335
sS'TACGGT'
p1448
I3549
sS'AGGGCG'
p1449
I23092
sS'AGGGCA'
p1450
I38485
sS'CCCGAC'
p1451
I11999
sS'TCGAGA'
p1452
I7225
sS'TAGAGC'
p1453
I15153
sS'TAGAGA'
p1454
I25288
sS'TAGAGG'
p1455
I20378
sS'GTGTAA'
p1456
I15196
sS'GTGCTG'
p1457
I37822
sS'CGGGGT'
p1458
I17057
sS'GTGCTA'
p1459
I13481
sS'ATCTGT'
p1460
I25401
sS'GTGCTC'
p1461
I21294
sS'GGCGAC'
p1462
I12018
sS'ACCACT'
p1463
I22133
sS'GTGCTT'
p1464
I24359
sS'ATCTGC'
p1465
I23033
sS'CGAATA'
p1466
I3164
sS'CGAATG'
p1467
I6297
sS'ATCTGG'
p1468
I24373
sS'ATCATA'
p1469
I13661
sS'GATAGC'
p1470
I8017
sS'ATCATC'
p1471
I18023
sS'GATAGA'
p1472
I11831
sS'AAGCAA'
p1473
I35647
sS'GATAGG'
p1474
I11026
sS'ATCATG'
p1475
I17592
sS'GGCTCA'
p1476
I37398
sS'GTTATG'
p1477
I11497
sS'CTAGGT'
p1478
I14582
sS'CATTTA'
p1479
I30079
sS'ACGCAT'
p1480
I5060
sS'CATTTG'
p1481
I31309
sS'GTTATA'
p1482
I9802
sS'CAAACA'
p1483
I40295
sS'AAGCAT'
p1484
I22997
sS'CAAACC'
p1485
I23633
sS'TTTACA'
p1486
I31236
sS'ATCATT'
p1487
I22057
sS'GATAGT'
p1488
I8454
sS'ACGCAG'
p1489
I12262
sS'CTAGGG'
p1490
I19262
sS'GTTATT'
p1491
I18846
sS'CTAGGC'
p1492
I17903
sS'CATTTT'
p1493
I51217
sS'CTAGGA'
p1494
I20950
sS'AAGTTT'
p1495
I29925
sS'TACAGT'
p1496
I19771
sS'CTCGAA'
p1497
I7671
sS'CTAACG'
p1498
I4349
sS'CTAAGG'
p1499
I18066
sS'CTAAGA'
p1500
I18855
sS'GGGGCT'
p1501
I42454
sS'TACAGG'
p1502
I24914
sS'AAGTTG'
p1503
I21231
sS'AAGTTA'
p1504
I20392
sS'TACAGC'
p1505
I17751
sS'AAGTTC'
p1506
I21130
sS'TACAGA'
p1507
I24130
sS'CTAAGT'
p1508
I15928
sS'GTATGA'
p1509
I11404
sS'GGGGCA'
p1510
I34872
sS'ATATGT'
p1511
I17540
sS'GGGGCG'
p1512
I47322
sS'CCATGG'
p1513
I24973
sS'TATATC'
p1514
I9222
sS'TATATA'
p1515
I19640
sS'TGTATA'
p1516
I14966
sS'TATATG'
p1517
I13959
sS'ACATCG'
p1518
I4437
sS'GCTGGG'
p1519
I71585
sS'TCCGGT'
p1520
I7820
sS'GGTCCA'
p1521
I16239
sS'TATATT'
p1522
I20399
sS'TGATGG'
p1523
I21871
sS'CATATG'
p1524
I14349
sS'ATGAGT'
p1525
I24896
sS'AGGTCT'
p1526
I23055
sS'TGATGA'
p1527
I25532
sS'TTTCGA'
p1528
I5104
sS'TGCCAT'
p1529
I24135
sS'ACTCTT'
p1530
I23592
sS'TGTTTC'
p1531
I35968
sS'CACATA'
p1532
I20008
sS'TTAATT'
p1533
I27318
sS'CACATG'
p1534
I27107
sS'TTTCAT'
p1535
I36998
sS'ATGAGA'
p1536
I26780
sS'ATGAGC'
p1537
I20034
sS'ATGAGG'
p1538
I26744
sS'TTTCAC'
p1539
I30909
sS'ACTCTG'
p1540
I33490
sS'TTTCAA'
p1541
I35405
sS'ACTCTA'
p1542
I14336
sS'TTTCAG'
p1543
I40861
sS'ACTCTC'
p1544
I22343
sS'TTAATG'
p1545
I19659
sS'AAATTC'
p1546
I29350
sS'GACTGA'
p1547
I22459
sS'AAATTA'
p1548
I34492
sS'AAATTG'
p1549
I24038
sS'CCAGTA'
p1550
I16052
sS'AGACCG'
p1551
I8138
sS'CGTACC'
p1552
I3265
sS'AAATTT'
p1553
I35417
sS'CTTAGT'
p1554
I15354
sS'GGGAAC'
p1555
I25090
sS'GGTGCG'
p1556
I12691
sS'GGGAAA'
p1557
I48972
sS'GGGAAG'
p1558
I57445
sS'GGTGCC'
p1559
I25239
sS'TCGTCC'
p1560
I7502
sS'TCCGGG'
p1561
I20439
sS'AGAGCG'
p1562
I15366
sS'GCGACT'
p1563
I7276
sS'AGAGCC'
p1564
I35507
sS'AGAGCA'
p1565
I35944
sS'GCGTAG'
p1566
I4648
sS'GGTGCT'
p1567
I25400
sS'GCGTAC'
p1568
I2838
sS'GCGTAA'
p1569
I3290
sS'GCGACG'
p1570
I7175
sS'AGAGCT'
p1571
I35289
sS'GCGACA'
p1572
I7787
sS'TATCGG'
p1573
I2344
sS'GCGACC'
p1574
I9486
sS'AGGTCG'
p1575
I7631
sS'GCAGGA'
p1576
I46002
sS'GCAGGC'
p1577
I41580
sS'GCAGGG'
p1578
I53085
sS'GGCGAT'
p1579
I6207
sS'GCACTA'
p1580
I10715
sS'GCTCGA'
p1581
I5688
sS'GCTCGG'
p1582
I17703
sS'TATTCT'
p1583
I22181
sS'CCGTGG'
p1584
I15040
sS'CTTTAG'
p1585
I19571
sS'GCAGGT'
p1586
I27644
sS'TGAAGC'
p1587
I25122
sS'ACGTCT'
p1588
I7263
sS'TATTCC'
p1589
I17399
sS'GGCGAG'
p1590
I19418
sS'TATTCA'
p1591
I21918
sS'CAATTA'
p1592
I15299
sS'TATTCG'
p1593
I3166
sS'GCTCGT'
p1594
I6072
sS'TGTAGA'
p1595
I17393
sS'TTTACC'
p1596
I18018
sS'TGTAGC'
p1597
I14461
sS'TGAAGA'
p1598
I31753
sS'TTTACG'
p1599
I4918
sS'TGTAGG'
p1600
I16420
sS'GGCTCG'
p1601
I14675
sS'TTCGGA'
p1602
I6523
sS'TTCGGC'
p1603
I7600
sS'CTTTAC'
p1604
I18066
sS'TTCAAG'
p1605
I28399
sS'TTCGGG'
p1606
I9607
sS'AGCATG'
p1607
I23189
sS'GGCTCT'
p1608
I35508
sS'TGTAGT'
p1609
I17689
sS'TTTACT'
p1610
I28399
sS'AGCATA'
p1611
I14197
sS'TTACAT'
p1612
I21238
sS'AGACCT'
p1613
I23064
sS'TTCGGT'
p1614
I5867
sS'GTTTAT'
p1615
I22784
sS'GTCTAG'
p1616
I11577
sS'GCACTC'
p1617
I22161
sS'GCCTTT'
p1618
I32285
sS'AGGCAT'
p1619
I25407
sS'GTTTAA'
p1620
I21396
sS'CGCTAA'
p1621
I4346
sS'AACTTG'
p1622
I22621
sS'CGAATT'
p1623
I4612
sS'GTTTAG'
p1624
I15377
sS'GAGGTA'
p1625
I15714
sS'CTGGCT'
p1626
I48198
sS'AGGCGG'
p1627
I31635
sS'GTCGGT'
p1628
I5145
sS'AGGCGC'
p1629
I21044
sS'AGGAGT'
p1630
I30822
sS'ACAGCC'
p1631
I33986
sS'GATAAA'
p1632
I20856
sS'ACAGCA'
p1633
I36746
sS'GAGGTC'
p1634
I24477
sS'ACAGCG'
p1635
I12557
sS'AGGAGC'
p1636
I38907
sS'AGGCGT'
p1637
I12339
sS'AGGAGA'
p1638
I49405
sS'CTGGCG'
p1639
I19112
sS'AGGAGG'
p1640
I66961
sS'CTGGCA'
p1641
I38258
sS'GTCGGG'
p1642
I11994
sS'GCGCCC'
p1643
I32912
sS'CGATAC'
p1644
I2145
sS'ACAGCT'
p1645
I33101
sS'GCTCTC'
p1646
I31122
sS'ATTGGT'
p1647
I13948
sS'AATTTT'
p1648
I42584
sS'TGTCAA'
p1649
I18426
sS'TGTCAC'
p1650
I25361
sS'CCCTCT'
p1651
I47227
sS'GGAAAC'
p1652
I34075
sS'ATTTAT'
p1653
I35253
sS'ATTGGG'
p1654
I15091
sS'AATTTA'
p1655
I27373
sS'AATTTC'
p1656
I27695
sS'AACGCC'
p1657
I8287
sS'ATTGGA'
p1658
I16448
sS'AATTTG'
p1659
I25657
sS'CCCTCA'
p1660
I34226
sS'CCCTCC'
p1661
I71092
sS'TGTCAT'
p1662
I23876
sS'CCCTCG'
p1663
I18378
sS'GAGGTT'
p1664
I24845
sS'GGCGTT'
p1665
I8286
sS'TGACCA'
p1666
I21972
sS'CATTCT'
p1667
I32550
sS'TAAATC'
p1668
I18182
sS'TGACCG'
p1669
I6748
sS'GCGCCA'
p1670
I16616
sS'ACCACG'
p1671
I11007
sS'CATTCG'
p1672
I6300
sS'CATTCC'
p1673
I30269
sS'CATTCA'
p1674
I30832
sS'ACGAAA'
p1675
I6853
sS'CGCTAT'
p1676
I3404
sS'ACAAAT'
p1677
I31008
sS'GATTAA'
p1678
I15471
sS'GTAGGC'
p1679
I11858
sS'GATTAC'
p1680
I15151
sS'GTAGGA'
p1681
I16174
sS'GTAGGG'
p1682
I16202
sS'GATTAG'
p1683
I11084
sS'GAATGA'
p1684
I31248
sS'ACAAAC'
p1685
I30359
sS'ACAAAA'
p1686
I50882
sS'ACAAAG'
p1687
I34745
sS'GCGGGC'
p1688
I32803
sS'AGGCGA'
p1689
I11488
sS'GCGGGA'
p1690
I25450
sS'GCGGGG'
p1691
I51363
sS'GATTAT'
p1692
I13507
sS'GTAGGT'
p1693
I12895
sS'GGCGTC'
p1694
I12782
sS'TAATGA'
p1695
I20486
sS'GATGTT'
p1696
I19005
sS'TAATGC'
p1697
I13305
sS'GGAGAT'
p1698
I24596
sS'GCCCTT'
p1699
I28848
sS'GGCGTA'
p1700
I3844
sS'GCCCTC'
p1701
I40320
sS'GATGTG'
p1702
I22546
sS'GCCCTA'
p1703
I14750
sS'GATGTA'
p1704
I11510
sS'TAATGT'
p1705
I17578
sS'GATGTC'
p1706
I15088
sS'AACCTC'
p1707
I24830
sS'TGAAAT'
p1708
I36509
sS'AACCTA'
p1709
I13674
sS'TTCTAA'
p1710
I26385
sS'ATCCGT'
p1711
I4555
sS'TTCTAC'
p1712
I17029
sS'TGAAAA'
p1713
I45637
sS'TGAAAC'
p1714
I27695
sS'TGAAAG'
p1715
I34499
sS'TTCTAT'
p1716
I20278
sS'ATCCGC'
p1717
I7290
sS'ATCCGA'
p1718
I4401
sS'ATCCGG'
p1719
I6977
sS'TGGCTC'
p1720
I38784
sS'TGGCTA'
p1721
I18190
sS'NNNNCT'
p1722
I1
sS'TGGCTG'
p1723
I47486
sS'GACCGG'
p1724
I9778
sS'GTCGGA'
p1725
I5888
sS'AGTTGT'
p1726
I18925
sS'AGCTAT'
p1727
I14831
sS'ATTAGT'
p1728
I13786
sS'AAGACA'
p1729
I31891
sS'GTCGGC'
p1730
I9065
sS'CGTCGA'
p1731
I2079
sS'NNNNCA'
p1732
I2
sS'TGGCTT'
p1733
I35610
sS'AGTTGG'
p1734
I21761
sS'AGCTAA'
p1735
I18804
sS'AGCTAC'
p1736
I17520
sS'AGTTGC'
p1737
I17092
sS'AGTTGA'
p1738
I18320
sS'AGCTAG'
p1739
I16167
sS'CGTTGA'
p1740
I4511
sS'GCACCT'
p1741
I23689
sS'CAGTGT'
p1742
I29926
sS'AGTCAG'
p1743
I32305
sS'TCAGGT'
p1744
I23004
sS'TCAAGG'
p1745
I24310
sS'CTGGCC'
p1746
I49011
sS'TCAAGC'
p1747
I19681
sS'CATGGA'
p1748
I23037
sS'GCACCA'
p1749
I22966
sS'CAGTGC'
p1750
I29576
sS'CTAATC'
p1751
I11075
sS'CAGTGA'
p1752
I39706
sS'CAGTGG'
p1753
I39315
sS'GCACCG'
p1754
I12941
sS'TCAAGT'
p1755
I22178
sS'CTGCAA'
p1756
I32434
sS'GAGCCC'
p1757
I38086
sS'TCAGGC'
p1758
I31146
sS'CGAGCT'
p1759
I10190
sS'CGTTGG'
p1760
I7176
sS'CAACCA'
p1761
I20248
sS'GTTCAT'
p1762
I16660
sS'TTCCCT'
p1763
I48613
sS'CGAGCG'
p1764
I10681
sS'CGAGCA'
p1765
I8586
sS'CGCAGC'
p1766
I24318
sS'CGAGCC'
p1767
I14665
sS'TTCCCA'
p1768
I46259
sS'TTCCCC'
p1769
I43341
sS'GTTCAC'
p1770
I15616
sS'GTTCAA'
p1771
I19307
sS'GATCAC'
p1772
I16738
sS'GGACCT'
p1773
I20529
sS'TACATG'
p1774
I15658
sS'AAGTAC'
p1775
I14073
sS'CACACT'
p1776
I28394
sS'TACATC'
p1777
I11521
sS'AAGTAG'
p1778
I19061
sS'TACATA'
p1779
I16487
sS'CATGGT'
p1780
I21354
sS'GGACCG'
p1781
I11239
sS'AACGCT'
p1782
I7363
sS'GGACCA'
p1783
I18955
sS'CTTTCT'
p1784
I54020
sS'GGACCC'
p1785
I24938
sS'CACACG'
p1786
I12914
sS'TACATT'
p1787
I21331
sS'CACACC'
p1788
I30038
sS'GCACAA'
p1789
I19273
sS'CACACA'
p1790
I67644
sS'TCTGCC'
p1791
I42045
sS'TCTGCA'
p1792
I37102
sS'TCTGCG'
p1793
I13623
sS'TAGATT'
p1794
I14635
sS'CCCGTC'
p1795
I13716
sS'TTAAGG'
p1796
I18734
sS'CCCGTA'
p1797
I4442
sS'TTAAGA'
p1798
I23790
sS'CCCGTG'
p1799
I12842
sS'TTAAGC'
p1800
I15306
sS'TTACGT'
p1801
I4872
sS'TAGATC'
p1802
I8883
sS'AAACAG'
p1803
I43280
sS'TAGATA'
p1804
I11899
sS'TTTCGC'
p1805
I6747
sS'TAGATG'
p1806
I15702
sS'TCTGCT'
p1807
I39576
sS'TTACGC'
p1808
I3288
sS'TTAAGT'
p1809
I21036
sS'TTACGA'
p1810
I3427
sS'TTACGG'
p1811
I4200
sS'CCCGTT'
p1812
I8305
sS'AGTGAC'
p1813
I26575
sS'AGTGAA'
p1814
I30281
sS'AGTGAG'
p1815
I38833
sS'CGGGCG'
p1816
I27779
sS'AAACAC'
p1817
I33972
sS'TAAGAG'
p1818
I20289
sS'CGGGCC'
p1819
I27700
sS'TAAGAA'
p1820
I27380
sS'CGGGCA'
p1821
I16682
sS'TAAGAC'
p1822
I13447
sS'TGTCAG'
p1823
I27029
sS'AGTGAT'
p1824
I22928
sS'CTTTCC'
p1825
I48605
sS'TAAGAT'
p1826
I15687
sS'CCTGAA'
p1827
I32204
sS'CCTGAC'
p1828
I29817
sS'AGTAAA'
p1829
I28398
sS'CCTGAG'
p1830
I45585
sS'GTTAGG'
p1831
I13988
sS'GCCAAC'
p1832
I18020
sS'TATACT'
p1833
I11020
sS'GTTAGC'
p1834
I10331
sS'GTTAGA'
p1835
I13081
sS'GNNNNN'
p1836
I3
sS'GCCAAA'
p1837
I25302
sS'TATACG'
p1838
I2380
sS'GTTAGT'
p1839
I11052
sS'TATACC'
p1840
I7570
sS'TATACA'
p1841
I14955
sS'AACGTA'
p1842
I4457
sS'CGTATA'
p1843
I2381
sS'TCTTGT'
p1844
I24859
sS'ACTAGT'
p1845
I9198
sS'TTTATT'
p1846
I54232
sS'GTAATA'
p1847
I12287
sS'AACGCA'
p1848
I7209
sS'GTAATC'
p1849
I15121
sS'TCTAAC'
p1850
I13082
sS'CGTTCT'
p1851
I8494
sS'CCACCG'
p1852
I17955
sS'CGGATC'
p1853
I7112
sS'CCACCA'
p1854
I38092
sS'CCACCC'
p1855
I49519
sS'GTTCGT'
p1856
I4214
sS'TTTATG'
p1857
I25152
sS'ACTAGG'
p1858
I14178
sS'TTTATC'
p1859
I20839
sS'ACTAGC'
p1860
I10196
sS'TTTATA'
p1861
I26853
sS'ATAGAA'
p1862
I20278
sS'CCACCT'
p1863
I41458
sS'CGTTCG'
p1864
I3246
sS'ACTTGT'
p1865
I19341
sS'CGTTCA'
p1866
I6271
sS'CGTTCC'
p1867
I9819
sS'TCTAAT'
p1868
I16105
sS'CTTTGT'
p1869
I34738
sS'ATTTAA'
p1870
I33951
sS'ACTGGA'
p1871
I27437
sS'ACTGGC'
p1872
I23852
sS'TAGTCC'
p1873
I12478
sS'GTGACC'
p1874
I21273
sS'TAGTCA'
p1875
I16679
sS'GTGACA'
p1876
I25340
sS'TAGTCG'
p1877
I2746
sS'GTGACG'
p1878
I9079
sS'ATTTAG'
p1879
I20083
sS'ACTGGT'
p1880
I17193
sS'CTTTGG'
p1881
I36994
sS'CCTATG'
p1882
I12821
sS'CTTTGC'
p1883
I31324
sS'CTTTGA'
p1884
I28885
sS'ACATTA'
p1885
I17568
sS'GTGACT'
p1886
I30710
sS'TAGTCT'
p1887
I13359
sS'GTGCAC'
p1888
I17107
sS'GCGCTT'
p1889
I10711
sS'ACCTAG'
p1890
I14591
sS'GCAATT'
p1891
I16399
sS'ACCTAA'
p1892
I14335
sS'ATTGGC'
p1893
I16572
sS'ACCTAC'
p1894
I12899
sS'CCGCAG'
p1895
I24790
sS'CCGCAA'
p1896
I7701
sS'CCGCAC'
p1897
I13483
sS'CTACGG'
p1898
I5235
sS'ACCTAT'
p1899
I10337
sS'CGACGT'
p1900
I3062
sS'CGAAGA'
p1901
I7741
sS'CCCCGT'
p1902
I13619
sS'CGAAGG'
p1903
I10676
sS'GCGCTC'
p1904
I19243
sS'GTGCAT'
p1905
I16723
sS'GCGCTA'
p1906
I5093
sS'NCTGAC'
p1907
I1
sS'CCGCAT'
p1908
I6343
sS'GTTCGC'
p1909
I5191
sS'GAAGAT'
p1910
I21440
sS'GGATCT'
p1911
I17382
sS'CCCCGC'
p1912
I51367
sS'TCGGAA'
p1913
I7267
sS'TCGGAC'
p1914
I5255
sS'GAATCT'
p1915
I20212
sS'TCGGAG'
p1916
I11262
sS'GGATCG'
p1917
I5801
sS'GAAGAG'
p1918
I40853
sS'GAAGAA'
p1919
I40457
sS'GTTCGG'
p1920
I5935
sS'GAAGAC'
p1921
I22733
sS'GGATCA'
p1922
I17085
sS'GGATCN'
p1923
I2
sS'GAATCA'
p1924
I25020
sS'GAATCC'
p1925
I18429
sS'TCGGAT'
p1926
I4402
sS'NNNCAG'
p1927
I1
sS'GAATCG'
p1928
I6191
sS'ATGGTC'
p1929
I12424
sS'CAGATG'
p1930
I32598
sS'ACGCCG'
p1931
I8587
sS'TGACCC'
p1932
I22018
sS'ATGGTG'
p1933
I24057
sS'CAGATC'
p1934
I20239
sS'CTATCC'
p1935
I10856
sS'CAGATA'
p1936
I18901
sS'CAATCG'
p1937
I4249
sS'CTATCT'
p1938
I14523
sS'CAGATT'
p1939
I24757
sS'CTCGAC'
p1940
I5427
sS'ATGGTT'
p1941
I17009
sS'TCGCAA'
p1942
I4114
sS'GCTATT'
p1943
I15250
sS'TGCGTC'
p1944
I8202
sS'CCGGTA'
p1945
I4471
sS'AATGGT'
p1946
I17457
sS'GTTACG'
p1947
I3197
sS'CTACGT'
p1948
I4787
sS'AATGGC'
p1949
I21036
sS'AATGGA'
p1950
I29210
sS'AATGGG'
p1951
I24874
sS'GATCAA'
p1952
I11792
sS'CCCCGA'
p1953
I16158
sS'CAACTC'
p1954
I20957
sS'AACGCG'
p1955
I5206
sS'AATAGC'
p1956
I15248
sS'ATTTAC'
p1957
I21469
sS'CGTTAG'
p1958
I4353
sS'AGCCAG'
p1959
I48200
sS'GGAGGG'
p1960
I71105
sS'AAAAGT'
p1961
I35236
sS'GGAGGA'
p1962
I62448
sS'GGAGGC'
p1963
I60975
sS'TGGTAG'
p1964
I15743
sS'CGCCAT'
p1965
I10206
sS'GAGTGT'
p1966
I20742
sS'TGGTAC'
p1967
I9964
sS'TGGTAA'
p1968
I17384
sS'AAAAGG'
p1969
I41572
sS'GGAGGT'
p1970
I34479
sS'AGCCAT'
p1971
I23493
sS'AAAAGC'
p1972
I35209
sS'AAAAGA'
p1973
I52568
sS'TTGACT'
p1974
I19946
sS'GAGTGG'
p1975
I29405
sS'CGCCAG'
p1976
I19110
sS'TGGTAT'
p1977
I13854
sS'CGCCAA'
p1978
I8699
sS'GAGTGC'
p1979
I22139
sS'CGCCAC'
p1980
I17377
sS'GAGTGA'
p1981
I28603
sS'GCCAGG'
p1982
I57988
sS'GCCAGA'
p1983
I33038
sS'GCCAGC'
p1984
I39746
sS'GCCCGT'
p1985
I9992
sS'TACCGA'
p1986
I3306
sS'TACCGC'
p1987
I4703
sS'CTTCAT'
p1988
I26615
sS'GCCCGC'
p1989
I32818
sS'GCCAGT'
p1990
I23857
sS'GCCCGA'
p1991
I12753
sS'GCCCGG'
p1992
I37054
sS'TGCGAT'
p1993
I4687
sS'CTTCAC'
p1994
I25473
sS'CTTCAA'
p1995
I24462
sS'TACCGT'
p1996
I3712
sS'TCCGAG'
p1997
I11766
sS'GTGGGC'
p1998
I29455
sS'TCCGAC'
p1999
I5894
sS'AATTCA'
p2000
I26986
sS'AATTCC'
p2001
I25991
sS'AATTCG'
p2002
I4609
sS'TCCGAT'
p2003
I4012
sS'NNNGAT'
p2004
I2
sS'TAGCGG'
p2005
I5687
sS'AATTCT'
p2006
I29277
sS'TAGCGC'
p2007
I5098
sS'GTCATC'
p2008
I18737
sS'GTCATA'
p2009
I12598
sS'GTCATG'
p2010
I18437
sS'AGCAGG'
p2011
I45700
sS'CCAGGT'
p2012
I34047
sS'TTGGAA'
p2013
I32901
sS'TTGGAG'
p2014
I31168
sS'AGCAGA'
p2015
I39572
sS'GTCATT'
p2016
I23545
sS'CCAGGG'
p2017
I55010
sS'AGCAGT'
p2018
I28446
sS'CCAGGA'
p2019
I55235
sS'CCAGGC'
p2020
I65244
sS'TTGGAT'
p2021
I17974
sS'ACGGTA'
p2022
I3709
sS'CATCTG'
p2023
I32596
sS'ACGGTC'
p2024
I5280
sS'CATCTA'
p2025
I15688
sS'ATAGAC'
p2026
I9553
sS'CATCTC'
p2027
I30839
sS'CAAGCT'
p2028
I23680
sS'TCCAAC'
p2029
I18485
sS'GGGGTC'
p2030
I24508
sS'GATCGT'
p2031
I3706
sS'CATCTT'
p2032
I28552
sS'CAAGCA'
p2033
I27502
sS'ACGGTT'
p2034
I5244
sS'CCTGGC'
p2035
I57972
sS'GTTCTT'
p2036
I24574
sS'ACATGA'
p2037
I21572
sS'CGTAAT'
p2038
I3417
sS'ACATGC'
p2039
I19092
sS'TCTTGA'
p2040
I23897
sS'TGTTTG'
p2041
I40321
sS'ACATGG'
p2042
I23277
sS'CCCGCT'
p2043
I19924
sS'GTAAAC'
p2044
I17058
sS'TGGCGG'
p2045
I20503
sS'CGTAAG'
p2046
I4272
sS'GAGTCA'
p2047
I37546
sS'ACATGT'
p2048
I20464
sS'GTTCTA'
p2049
I13712
sS'CGTAAA'
p2050
I4925
sS'AGGGAG'
p2051
I60855
sS'ACGGAA'
p2052
I8663
sS'CCCGCC'
p2053
I59315
sS'AGACGC'
p2054
I10732
sS'CCCGCA'
p2055
I17793
sS'CCCTTT'
p2056
I37161
sS'AGCGCA'
p2057
I10621
sS'GTTGTT'
p2058
I22146
sS'ATCCTT'
p2059
I22639
sS'TTGTCG'
p2060
I4304
sS'TTGTCC'
p2061
I20681
sS'TTGTCA'
p2062
I22239
sS'ATCCTC'
p2063
I24591
sS'GTTGTA'
p2064
I11686
sS'ATCCTA'
p2065
I14259
sS'GTTGTC'
p2066
I13219
sS'ATCCTG'
p2067
I28399
sS'GTTGTG'
p2068
I18477
sS'TTGTCT'
p2069
I26925
sS'CTATGC'
p2070
I11002
sS'TGACTA'
p2071
I16685
sS'TGGGCC'
p2072
I33391
sS'TGACTC'
p2073
I37562
sS'TGGGCA'
p2074
I38312
sS'TGGGCG'
p2075
I22181
sS'TGACTG'
p2076
I27859
sS'AAGCCG'
p2077
I12242
sS'NNNNGC'
p2078
I1
sS'AAGCCC'
p2079
I29745
sS'AAGCCA'
p2080
I35596
sS'CAAAAT'
p2081
I34465
sS'ACGCGG'
p2082
I9511
sS'TGGGCT'
p2083
I38092
sS'CAAAAC'
p2084
I33088
sS'CAAAAA'
p2085
I49593
sS'AAGCCT'
p2086
I29717
sS'CAAAAG'
p2087
I33487
sS'TCAATG'
p2088
I15880
sS'AAACTT'
p2089
I29921
sS'TCAATC'
p2090
I12179
sS'TCAATA'
p2091
I14953
sS'CAGTTC'
p2092
I25884
sS'GACCCG'
p2093
I13176
sS'CAGTTG'
p2094
I21712
sS'GACCCC'
p2095
I24505
sS'CTCTGT'
p2096
I45373
sS'TCAATT'
p2097
I17054
sS'TGGCGT'
p2098
I9302
sS'CTCTGC'
p2099
I51633
sS'GACCCT'
p2100
I22584
sS'CTCTGA'
p2101
I39899
sS'CTCTGG'
p2102
I48482
sS'CAGTTT'
p2103
I36384
sS'GCGAAG'
p2104
I10040
sS'ACGTTC'
p2105
I6142
sS'TGCTGG'
p2106
I47795
sS'TGCTGA'
p2107
I34442
sS'GAGTCT'
p2108
I24013
sS'GCGAAA'
p2109
I6752
sS'AGCTGC'
p2110
I40979
sS'GCTGGT'
p2111
I29783
sS'GTGATT'
p2112
I22250
sS'ACGTTA'
p2113
I4633
sS'TGCTGT'
p2114
I36770
sS'AGCTGA'
p2115
I35329
sS'TAATGG'
p2116
I14497
sS'TGTACC'
p2117
I11406
sS'GTGATG'
p2118
I22255
sS'CTACTG'
p2119
I18603
sS'GTGATC'
p2120
I16752
sS'GCTGGC'
p2121
I39745
sS'GTGATA'
p2122
I11872
sS'GCTGGA'
p2123
I44441
sS'TGATAA'
p2124
I17156
sS'TGATAC'
p2125
I10135
sS'TGATAG'
p2126
I11521
sS'CTTGTT'
p2127
I26884
sS'GACGGT'
p2128
I6108
sS'GCTAGG'
p2129
I17324
sS'GCTAGA'
p2130
I14490
sS'ATGAAT'
p2131
I28772
sS'GCTAGC'
p2132
I10572
sS'ATAGGG'
p2133
I12119
sS'TGATAT'
p2134
I13582
sS'GCTAGT'
p2135
I10194
sS'ATGAAC'
p2136
I16663
sS'GACGGG'
p2137
I13723
sS'ATGAAA'
p2138
I36998
sS'GACGGA'
p2139
I9529
sS'ATGAAG'
p2140
I26613
sS'GACGGC'
p2141
I10507
sS'CTTGTC'
p2142
I21185
sS'CAAAGA'
p2143
I35148
sS'GNCCGC'
p2144
I1
sS'CCATAG'
p2145
I12450
sS'GGTGAA'
p2146
I23639
sS'GGTGAC'
p2147
I24916
sS'GCGTCT'
p2148
I10734
sS'GACTGT'
p2149
I20299
sS'GGTGAG'
p2150
I34402
sS'GGAATG'
p2151
I30285
sS'AGCCCT'
p2152
I37512
sS'GGCTAA'
p2153
I16068
sS'GGAATC'
p2154
I20449
sS'GGAATA'
p2155
I17405
sS'ACTGTA'
p2156
I19746
sS'GGGGTG'
p2157
I40335
sS'GGTGAT'
p2158
I18856
sS'GCGTCG'
p2159
I6513
sS'GTGGCC'
p2160
I32448
sS'GGAATT'
p2161
I26008
sS'CGTCCC'
p2162
I16165
sS'CGTCCA'
p2163
I8425
sS'GGCTCC'
p2164
I44850
sS'CCGTAT'
p2165
I3316
sS'GAAGTC'
p2166
I22327
sS'GAAGTA'
p2167
I16917
sS'GAAGTG'
p2168
I30735
sS'GCCGTA'
p2169
I3946
sS'CCGTAC'
p2170
I3382
sS'CCGTAA'
p2171
I4201
sS'CCGTAG'
p2172
I5235
sS'CAAAGT'
p2173
I31180
sS'CTAAAA'
p2174
I29549
sS'GAAGTT'
p2175
I24087
sS'GGCGCG'
p2176
I29391
sS'ATGCCC'
p2177
I19482
sS'TTAGTT'
p2178
I17723
sS'TATTAG'
p2179
I12505
sS'GGCGCC'
p2180
I31751
sS'TATTAA'
p2181
I21070
sS'GGCGCA'
p2182
I15735
sS'TATTAC'
p2183
I12307
sS'ACTATG'
p2184
I13158
sS'CAACGG'
p2185
I6023
sS'TTTAAG'
p2186
I28013
sS'ACTATC'
p2187
I8454
sS'TTTAAA'
p2188
I60881
sS'ACTATA'
p2189
I10242
sS'TTTAAC'
p2190
I21015
sS'TATTAT'
p2191
I20829
sS'TTAGTG'
p2192
I15334
sS'GGCGCT'
p2193
I19954
sS'TTAGTC'
p2194
I14515
sS'ATGCCT'
p2195
I25406
sS'TTAGTA'
p2196
I14340
sS'TTTAAT'
p2197
I32351
sS'ACTATT'
p2198
I15128
sS'GGGCAT'
p2199
I19490
sS'AAAGAC'
p2200
I26596
sS'TTCTAG'
p2201
I22280
sS'TTTCCA'
p2202
I47135
sS'TTTCCC'
p2203
I48966
sS'GTACGT'
p2204
I3410
sS'GTTTGT'
p2205
I30348
sS'TCAGNN'
p2206
I1
sS'TTTCCT'
p2207
I63938
sS'GGGCAG'
p2208
I56052
sS'CCTGGA'
p2209
I47492
sS'GGGCAA'
p2210
I26202
sS'GGGCAC'
p2211
I26652
sS'GTACGG'
p2212
I3381
sS'GTTTGA'
p2213
I21670
sS'GTTTGG'
p2214
I25146
sS'GTACGA'
p2215
I2242
sS'CCGCTC'
p2216
I20519
sS'GCATGT'
p2217
I19091
sS'CCGCTA'
p2218
I5687
sS'CCGCTG'
p2219
I22057
sS'AGCATT'
p2220
I25432
sS'GCGCGG'
p2221
I31346
sS'GCGCGC'
p2222
I31563
sS'GCGCGA'
p2223
I9642
sS'GCATGG'
p2224
I20847
sS'TGGATC'
p2225
I15438
sS'GCATGC'
p2226
I18505
sS'CCGCTT'
p2227
I12008
sS'TGACCT'
p2228
I29458
sS'GTCGAC'
p2229
I2608
sS'GTCGAA'
p2230
I3220
sS'GTCGAG'
p2231
I5424
sS'CGTGGC'
p2232
I15827
sS'GAGCTA'
p2233
I15852
sS'TGCGCT'
p2234
I10619
sS'GAGCTC'
p2235
I29453
sS'ATTGAT'
p2236
I12960
sS'TGTCCT'
p2237
I31735
sS'AAACGA'
p2238
I8543
sS'AAACGC'
p2239
I9226
sS'GTAACA'
p2240
I15042
sS'CACGCG'
p2241
I9243
sS'AAACGG'
p2242
I9910
sS'ATTGAA'
p2243
I19145
sS'TGCGCG'
p2244
I12615
sS'TGTCCA'
p2245
I24542
sS'TGTCCG'
p2246
I7940
sS'TGCGCC'
p2247
I15744
sS'ATTGAG'
p2248
I16963
sS'TGCGCA'
p2249
I11211
sS'GTAGTG'
p2250
I12214
sS'AAACGT'
p2251
I9310
sS'TGGGTT'
p2252
I26328
sS'ATTTCA'
p2253
I36480
sS'ATTTCC'
p2254
I36283
sS'ATCAGT'
p2255
I17580
sS'ATCGGG'
p2256
I5160
sS'CATAGT'
p2257
I13159
sS'ATCGGC'
p2258
I4507
sS'CCGTGT'
p2259
I9689
sS'ATCGGA'
p2260
I4007
sS'ATTTCT'
p2261
I42537
sS'CGATCA'
p2262
I3676
sS'TGGGTC'
p2263
I22486
sS'TGGGTA'
p2264
I16860
sS'CATAGG'
p2265
I12812
sS'ATCGGT'
p2266
I3164
sS'ATCAGG'
p2267
I20021
sS'CATAGC'
p2268
I13485
sS'CATAGA'
p2269
I14415
sS'GGTCAA'
p2270
I14370
sS'ACGGGT'
p2271
I5680
sS'CCTGGT'
p2272
I31152
sS'ATTCGG'
p2273
I5091
sS'GATTCT'
p2274
I23114
sS'CTTTTG'
p2275
I33469
sS'TACTAG'
p2276
I9053
sS'CTTTTC'
p2277
I45179
sS'CTTTTA'
p2278
I31452
sS'GATTCC'
p2279
I20446
sS'ACGGGG'
p2280
I13615
sS'ACGGGA'
p2281
I10021
sS'ACGGGC'
p2282
I9991
sS'TACTAT'
p2283
I11111
sS'CTTTTT'
p2284
I54310
sS'TCACGA'
p2285
I6070
sS'TCACGC'
p2286
I11104
sS'TCACGG'
p2287
I9439
sS'GCAGCC'
p2288
I50841
sS'TCTCAT'
p2289
I26788
sS'TCACGT'
p2290
I9665
sS'TTCCAC'
p2291
I28864
sS'TTCCAA'
p2292
I32905
sS'TTCCAG'
p2293
I46146
sS'ACCCTT'
p2294
I20776
sS'TGAAGT'
p2295
I25513
sS'AAACAA'
p2296
I58085
sS'ATGCTT'
p2297
I22982
sS'TTCCAT'
p2298
I31366
sS'ACCCTA'
p2299
I13297
sS'ACCCTC'
p2300
I26799
sS'TGAAGG'
p2301
I30549
sS'ACCCTG'
p2302
I33396
sS'CTGACT'
p2303
I32300
sS'CCCCTT'
p2304
I34372
sS'AGTTAT'
p2305
I15793
sS'ACATAT'
p2306
I17552
sS'CTGACG'
p2307
I9068
sS'CTGACC'
p2308
I29144
sS'CTGACA'
p2309
I27000
sS'AGTTAA'
p2310
I20360
sS'CCCCTG'
p2311
I41410
sS'AGTTAC'
p2312
I15458
sS'CCCCTC'
p2313
I53098
sS'AGTTAG'
p2314
I14830
sS'CCCCTA'
p2315
I17213
sS'ACACAG'
p2316
I41611
sS'ACACAA'
p2317
I28699
sS'ACACAC'
p2318
I55982
sS'AATGTT'
p2319
I29012
sS'CTGCAG'
p2320
I60098
sS'CATGGG'
p2321
I22326
sS'CTGCAC'
p2322
I32588
sS'CATGGC'
p2323
I24086
sS'AATGTC'
p2324
I20340
sS'ACACAT'
p2325
I27791
sS'AATGTA'
p2326
I21301
sS'AATGTG'
p2327
I28592
sS'GCACAC'
p2328
I24549
sS'CTGCAT'
p2329
I26903
sS'GCACAG'
p2330
I35889
sS'CGATTC'
p2331
I6191
sS'ACATTT'
p2332
I40277
sS'ATGTTC'
p2333
I17739
sS'CGAGAT'
p2334
I7184
sS'ATTACT'
p2335
I17782
sS'CACAAT'
p2336
I20093
sS'ACATTG'
p2337
I17535
sS'ACGCTC'
p2338
I8210
sS'ACATTC'
p2339
I23884
sS'ATTACA'
p2340
I25443
sS'ATGCTC'
p2341
I17380
sS'ATTACC'
p2342
I11580
sS'CGAGAC'
p2343
I10653
sS'CGAGAA'
p2344
I9506
sS'AAGTCT'
p2345
I23705
sS'ATGCTA'
p2346
I14199
sS'GGACAT'
p2347
I16511
sS'CAGCGT'
p2348
I12200
sS'GCTATA'
p2349
I8854
sS'GCTATC'
p2350
I8023
sS'ACGCCT'
p2351
I12333
sS'AAGTCA'
p2352
I29126
sS'GCTATG'
p2353
I13486
sS'AAGTCC'
p2354
I22263
sS'GGACAG'
p2355
I34009
sS'GGACAC'
p2356
I22375
sS'GGACAA'
p2357
I20687
sS'CTAATT'
p2358
I19859
sS'AGGGTT'
p2359
I23213
sS'GAGGCG'
p2360
I30332
sS'TGTTGG'
p2361
I24875
sS'GAGGCA'
p2362
I40573
sS'TGTTGA'
p2363
I22744
sS'GAGGCC'
p2364
I45898
sS'TGTTGC'
p2365
I22512
sS'TCCAAG'
p2366
I29174
sS'ACTCGA'
p2367
I5227
sS'TAAAAT'
p2368
I43166
sS'ACTCGC'
p2369
I7799
sS'ACTCGG'
p2370
I10841
sS'TGTTGT'
p2371
I25292
sS'GAGGCT'
p2372
I45013
sS'AGCGCC'
p2373
I19963
sS'AGGGTG'
p2374
I33602
sS'AGGGTA'
p2375
I14828
sS'AGCGCG'
p2376
I14684
sS'AGGGTC'
p2377
I22587
sS'TAAAAG'
p2378
I31523
sS'ACTCGT'
p2379
I4775
sS'TAAAAC'
p2380
I27528
sS'TAAAAA'
p2381
I55927
sS'CTACTC'
p2382
I16781
sS'TAGGGA'
p2383
I20210
sS'CTACTA'
p2384
I11885
sS'TAGGGC'
p2385
I14752
sS'ACGTTG'
p2386
I6086
sS'AGCTGG'
p2387
I49908
sS'TAGGGG'
p2388
I17222
sS'TAAATG'
p2389
I30106
sS'AGTGCG'
p2390
I8459
sS'AGTGCA'
p2391
I25350
sS'AGAGTT'
p2392
I25407
sS'AGTGCC'
p2393
I24349
sS'AAAACC'
p2394
I31217
sS'TTCGTG'
p2395
I6881
sS'TAGGGT'
p2396
I13289
sS'GCTTGG'
p2397
I27564
sS'AGCTGT'
p2398
I33112
sS'CTACTT'
p2399
I19053
sS'AGTGCT'
p2400
I30505
sS'AGAGTC'
p2401
I22748
sS'AGAGTA'
p2402
I16523
sS'AGAGTG'
p2403
I29070
sS'TTCGTA'
p2404
I3704
sS'GTTAAA'
p2405
I21025
sS'CTAATA'
p2406
I12496
sS'GTTAAC'
p2407
I11092
sS'GTCTGT'
p2408
I25402
sS'CCTGGG'
p2409
I72925
sS'GTTAAG'
p2410
I15270
sS'AGCCCG'
p2411
I20399
sS'TTCGTC'
p2412
I5271
sS'GCACCC'
p2413
I24542
sS'GTCTGG'
p2414
I28445
sS'ATCTGA'
p2415
I23647
sS'GTCTGC'
p2416
I22336
sS'GTTAAT'
p2417
I14160
sS'GTCTGA'
p2418
I21458
sS'GCGGNC'
p2419
I1
sS'TCTAAA'
p2420
I24705
sS'CCGGTC'
p2421
I9781
sS'GGAAGG'
p2422
I58082
sS'CCACAT'
p2423
I25171
sS'GGAAGC'
p2424
I40331
sS'CTAATG'
p2425
I14738
sS'GGAAGA'
p2426
I45716
sS'TGTATT'
p2427
I26368
sS'CAATGA'
p2428
I21842
sS'GCGTTC'
p2429
I8179
sS'CAATGC'
p2430
I15512
sS'GCGTTG'
p2431
I6741
sS'CAATGG'
p2432
I18269
sS'CCACAG'
p2433
I43870
sS'GGAAGT'
p2434
I33282
sS'CCACAC'
p2435
I31777
sS'CCACAA'
p2436
I26225
sS'ATTTGT'
p2437
I30991
sS'TCCTCG'
p2438
I14113
sS'TGTATG'
p2439
I17781
sS'TCCTCA'
p2440
I37396
sS'GCGTTT'
p2441
I9226
sS'TCCTCC'
p2442
I62422
sS'TGTATC'
p2443
I13031
sS'GTGAAT'
p2444
I20720
sS'TAACCG'
p2445
I3762
sS'TCATAG'
p2446
I15185
sS'TCAGGG'
p2447
I35482
sS'TCATAA'
p2448
I18883
sS'TAACCC'
p2449
I13095
sS'TCATAC'
p2450
I11413
sS'TAACCA'
p2451
I16506
sS'ACCGCT'
p2452
I7950
sS'TCGCGA'
p2453
I4095
sS'TGCATG'
p2454
I23424
sS'TCAGGA'
p2455
I37938
sS'TTCGTT'
p2456
I7171
sS'TCATAT'
p2457
I16168
sS'TAACCT'
p2458
I16050
sS'CGTTAT'
p2459
I3839
sS'GTGAAA'
p2460
I30920
sS'GTGAAC'
p2461
I15612
sS'CAATAG'
p2462
I12329
sS'AACCCG'
p2463
I10111
sS'ACCGCG'
p2464
I10382
sS'ACCGCA'
p2465
I8766
sS'AACGAG'
p2466
I6903
sS'ACCGCC'
p2467
I14783
sS'AGTTCC'
p2468
I24140
sS'CCGCCT'
p2469
I31645
sS'AGGCTT'
p2470
I29723
sS'CCTTCT'
p2471
I43368
sS'GTTGCA'
p2472
I17524
sS'TGTCGC'
p2473
I7782
sS'GTTGCC'
p2474
I19230
sS'GTGCCG'
p2475
I10230
sS'GTGCCA'
p2476
I24971
sS'GTTGCG'
p2477
I5297
sS'GTGCCC'
p2478
I26650
sS'CCTTCA'
p2479
I30519
sS'AGGCTA'
p2480
I17049
sS'CCTTCC'
p2481
I58061
sS'AGGCTC'
p2482
I32705
sS'CCGCCC'
p2483
I56612
sS'TGTCGA'
p2484
I3336
sS'CCTTCG'
p2485
I10671
sS'AGGCTG'
p2486
I64416
sS'GTGCCT'
p2487
I28587
sS'CAGCGA'
p2488
I12449
sS'GGCGAA'
p2489
I8489
sS'GTTGCT'
p2490
I21399
sS'NNNGCG'
p2491
I1
sS'GGATAT'
p2492
I11910
sS'TCGGGT'
p2493
I7626
sS'ATTTGA'
p2494
I27007
sS'GCAGTT'
p2495
I24620
sS'GAAGCT'
p2496
I29911
sS'GGATAA'
p2497
I14124
sS'TCGGGA'
p2498
I11662
sS'NNNNNG'
p2499
I7
sS'TCGGGG'
p2500
I16160
sS'GGATAG'
p2501
I10859
sS'GAAGCG'
p2502
I13684
sS'GCAGTG'
p2503
I41803
sS'GAAGCC'
p2504
I33757
sS'GCAGTA'
p2505
I15813
sS'GAAGCA'
p2506
I32337
sS'GCAGTC'
p2507
I21525
sS'CGCCCG'
p2508
I27790
sS'GAGAGA'
p2509
I51221
sS'GAGAGG'
p2510
I51564
sS'CGCCCA'
p2511
I22168
sS'AGTTTG'
p2512
I27248
sS'CTATAG'
p2513
I9048
sS'NNNNNN'
p2514
I1772
sS'GCATTC'
p2515
I19555
sS'ACGCAA'
p2516
I5531
sS'CTCGCA'
p2517
I8914
sS'CGCCCT'
p2518
I23094
sS'GAGAGT'
p2519
I22357
sS'AAACAT'
p2520
I34552
sS'CTATAT'
p2521
I10655
sS'AACTGA'
p2522
I28526
sS'GCCGGG'
p2523
I40400
sS'AGCATC'
p2524
I20740
sS'TACCCG'
p2525
I5376
sS'GCCGGC'
p2526
I28193
sS'CATGTT'
p2527
I24404
sS'GCCGGA'
p2528
I15863
sS'AGATCT'
p2529
I19667
sS'AACTGC'
p2530
I24608
sS'GCCACT'
p2531
I30526
sS'CATGTA'
p2532
I15638
sS'CATGTC'
p2533
I17253
sS'GCCGGT'
p2534
I10180
sS'CATGTG'
p2535
I27112
sS'ATTAAC'
p2536
I14149
sS'TCACTT'
p2537
I34230
sS'GGCGGA'
p2538
I24194
sS'GGCCTC'
p2539
I45911
sS'NNGCGC'
p2540
I1
sS'GGCCTA'
p2541
I13427
sS'CTCTGN'
p2542
I1
sS'AATCGG'
p2543
I4985
sS'AATCGC'
p2544
I5805
sS'AATCGA'
p2545
I4253
sS'GTTCAG'
p2546
I22033
sS'TCACTG'
p2547
I39687
sS'TCACTA'
p2548
I16072
sS'TCACTC'
p2549
I28588
sS'AATCGT'
p2550
I4229
sS'TCGAGG'
p2551
I8736
sS'AGCCGA'
p2552
I12152
sS'CCGCCG'
p2553
I33963
sS'AGCCGC'
p2554
I21440
sS'TAATTG'
p2555
I15313
sS'AAAAAT'
p2556
I64355
sS'AGCCGG'
p2557
I21772
sS'GTTTTT'
p2558
I43106
sS'TGGTGA'
p2559
I29955
sS'GATGGA'
p2560
I23851
sS'TGGTGC'
p2561
I22964
sS'GGGCTA'
p2562
I13863
sS'GGGCTG'
p2563
I56791
sS'TGGTGG'
p2564
I38103
sS'GATGGG'
p2565
I27311
sS'AAAAAA'
p2566
I161119
sS'CAGCTG'
p2567
I53678
sS'GTTTTA'
p2568
I27465
sS'GGGCTC'
p2569
I38092
sS'GTTTTG'
p2570
I33075
sS'TTCCCG'
p2571
I17397
sS'AAAAAG'
p2572
I54332
sS'TGACAG'
p2573
I29678
sS'CCAAGG'
p2574
I35860
sS'ACGTAT'
p2575
I3994
sS'TCTCAG'
p2576
I40911
sS'TCTCAA'
p2577
I30249
sS'TGGTGT'
p2578
I24099
sS'GGGCTT'
p2579
I29748
sS'ATTCGT'
p2580
I4556
sS'AGAACT'
p2581
I26899
sS'GCATTA'
p2582
I13296
sS'CCGCCA'
p2583
I20504
sS'TACCAT'
p2584
I13446
sS'AGATAG'
p2585
I14525
sS'CACTGT'
p2586
I32312
sS'ACCCGA'
p2587
I7633
sS'ATGTCT'
p2588
I21744
sS'ACCCGC'
p2589
I14604
sS'AGATAA'
p2590
I22864
sS'TACCAC'
p2591
I13533
sS'AGAACG'
p2592
I8490
sS'TACCAA'
p2593
I14095
sS'AGAACA'
p2594
I31576
sS'TACCAG'
p2595
I15929
sS'AGAACC'
p2596
I22024
sS'ATGTCA'
p2597
I21983
sS'CACTGG'
p2598
I33185
sS'AGATAT'
p2599
I15393
sS'ATCACG'
p2600
I6733
sS'CCTATA'
p2601
I9695
sS'CACTGC'
p2602
I41814
sS'CCTATC'
p2603
I11019
sS'CACTGA'
p2604
I31260
sS'TAGGTT'
p2605
I13682
sS'GTTTAC'
p2606
I17062
sS'AATTAT'
p2607
I23018
sS'CTGTTG'
p2608
I27416
sS'TGCTAT'
p2609
I16277
sS'CTGTTC'
p2610
I26516
sS'CGGGTT'
p2611
I10113
sS'CTGTTA'
p2612
I19578
sS'AATTAC'
p2613
I17220
sS'AATTAA'
p2614
I27333
sS'TAGGTA'
p2615
I11008
sS'TAGGTC'
p2616
I10727
sS'CGGGTC'
p2617
I13180
sS'CTGTTT'
p2618
I43276
sS'CGGGTA'
p2619
I5372
sS'CGGGTG'
p2620
I16043
sS'GGGTAC'
p2621
I9206
sS'CTTCGG'
p2622
I10897
sS'AAGTAA'
p2623
I25409
sS'CATTAC'
p2624
I13590
sS'TTAGGG'
p2625
I17874
sS'ATATAT'
p2626
I22144
sS'AGCAAC'
p2627
I21395
sS'TTAGGC'
p2628
I13433
sS'AAAGCT'
p2629
I31310
sS'TTAGGA'
p2630
I21348
sS'AAAGCA'
p2631
I43329
sS'ATATAG'
p2632
I10657
sS'TTAGGT'
p2633
I14327
sS'ATATAA'
p2634
I18698
sS'AGCAAT'
p2635
I22059
sS'ATATAC'
p2636
I11667
sS'ATAGCA'
p2637
I16261
sS'ATAGCC'
p2638
I11086
sS'TACTTG'
p2639
I16762
sS'ATAGCG'
p2640
I3402
sS'CAGCAT'
p2641
I28985
sS'CAGCGC'
p2642
I23532
sS'ACGGCT'
p2643
I8349
sS'ATAGCT'
p2644
I14824
sS'TACTTT'
p2645
I26129
sS'CATGCG'
p2646
I7581
sS'GTTTTC'
p2647
I34962
sS'CGAGTT'
p2648
I6564
sS'TCCAAT'
p2649
I16452
sS'CGTACT'
p2650
I3253
sS'TCCCGT'
p2651
I10024
sS'TATGCT'
p2652
I14199
sS'CTTAAG'
p2653
I18363
sS'ACATAA'
p2654
I19699
sS'CTTAAA'
p2655
I28025
sS'AGGGGT'
p2656
I25300
sS'CTTAAC'
p2657
I15275
sS'CGTACA'
p2658
I3705
sS'CGAGTG'
p2659
I8932
sS'CGAGTA'
p2660
I4381
sS'CGAGTC'
p2661
I8753
sS'AGGGGA'
p2662
I43044
sS'CTTAAT'
p2663
I17266
sS'AGGGGC'
p2664
I41009
sS'TATGCA'
p2665
I15699
sS'AGGGGG'
p2666
I36733
sS'CGTTTG'
p2667
I8362
sS'CGACTT'
p2668
I6239
sS'TGAATT'
p2669
I27036
sS'TTGTAA'
p2670
I22764
sS'TTGTAC'
p2671
I11712
sS'GTACCT'
p2672
I11511
sS'NNCAGA'
p2673
I1
sS'CGTTTA'
p2674
I5881
sS'TGAATC'
p2675
I21710
sS'ACAACA'
p2676
I25268
sS'TGAATA'
p2677
I21928
sS'GGATAC'
p2678
I9081
sS'TGAATG'
p2679
I30846
sS'AAGTAT'
p2680
I16816
sS'CGACTG'
p2681
I7508
sS'TTGTAT'
p2682
I19880
sS'ATCGTG'
p2683
I5443
sS'GCTTCG'
p2684
I9315
sS'ATCGTC'
p2685
I3630
sS'GCTTCC'
p2686
I40333
sS'TGGGAG'
p2687
I56220
sS'TGGGAA'
p2688
I46299
sS'TGGGAC'
p2689
I26100
sS'GCTTCT'
p2690
I34909
sS'ATCGTT'
p2691
I4219
sS'ACAACG'
p2692
I5416
sS'TGGGAT'
p2693
I30117
sS'CTAGCC'
p2694
I15058
sS'CTAGCA'
p2695
I15618
sS'CTAGCG'
p2696
I5732
sS'CGGTAG'
p2697
I5374
sS'ACTTAG'
p2698
I15934
sS'ACTTAA'
p2699
I21049
sS'CGGTAC'
p2700
I3408
sS'ACTTAC'
p2701
I14638
sS'CGGTAA'
p2702
I4522
sS'GACCAG'
p2703
I25979
sS'GACCAC'
p2704
I17664
sS'CTAGCT'
p2705
I16170
sS'TACACC'
p2706
I10462
sS'CGGTAT'
p2707
I2885
sS'TACACA'
p2708
I23862
sS'TACACG'
p2709
I4830
sS'GCGAGA'
p2710
I12208
sS'GAGAGC'
p2711
I31122
sS'GCGAGC'
p2712
I14690
sS'GCTGAG'
p2713
I49310
sS'GCGAGG'
p2714
I20923
sS'CAGCCG'
p2715
I22750
sS'CAGCCA'
p2716
I47477
sS'CAGCCC'
p2717
I56773
sS'GCTGAA'
p2718
I29287
sS'GCGAGT'
p2719
I7796
sS'GAACTG'
p2720
I25892
sS'GAACTC'
p2721
I21727
sS'GAACTA'
p2722
I12958
sS'GGACTT'
p2723
I22270
sS'CACCTA'
p2724
I16721
sS'AACTAT'
p2725
I13902
sS'CACCTC'
p2726
I37555
sS'CACCTG'
p2727
I38043
sS'TGATCC'
p2728
I17097
sS'AACACT'
p2729
I24659
sS'TGATCA'
p2730
I16384
sS'TGATCG'
p2731
I3675
sS'AACTAG'
p2732
I13735
sS'GGACTG'
p2733
I27080
sS'CACCTT'
p2734
I26923
sS'AACTAC'
p2735
I13403
sS'GGACTC'
p2736
I22997
sS'AACGAT'
p2737
I4219
sS'AACACG'
p2738
I8403
sS'AACACA'
p2739
I34933
sS'AACACC'
p2740
I19520
sS'TGATCT'
p2741
I20770
sS'CGTCAA'
p2742
I4208
sS'CTATAC'
p2743
I7093
sS'CAACAG'
p2744
I27436
sS'GACAGT'
p2745
I20182
sS'CAACAA'
p2746
I25889
sS'AAAGAA'
p2747
I61604
sS'CAACAC'
p2748
I20255
sS'GCTGAT'
p2749
I19677
sS'CTATAA'
p2750
I13952
sS'GACAGG'
p2751
I32550
sS'CAACAT'
p2752
I21779
sS'GACAGC'
p2753
I26398
sS'GACAGA'
p2754
I34762
sS'GTATTA'
p2755
I11597
sS'GTATTC'
p2756
I11612
sS'GTAAGT'
p2757
I14639
sS'CCAGCG'
p2758
I21493
sS'TCTGNN'
p2759
I1
sS'GTATTG'
p2760
I10372
sS'GGTGGC'
p2761
I38662
sS'TCCCCT'
p2762
I43058
sS'GGTGGA'
p2763
I31558
sS'TATCTT'
p2764
I19274
sS'GGTGGG'
p2765
I51794
sS'NNNGAA'
p2766
I4
sS'AGAGGC'
p2767
I42202
sS'GTAAGA'
p2768
I16156
sS'AGAGGA'
p2769
I47452
sS'GTAAGC'
p2770
I11440
sS'GTATTT'
p2771
I28869
sS'GTAAGG'
p2772
I14117
sS'TATCTA'
p2773
I11908
sS'TATCTC'
p2774
I16214
sS'TCCCCC'
p2775
I37843
sS'GGTGGT'
p2776
I25016
sS'TCCCCA'
p2777
I48853
sS'GTCGCG'
p2778
I6769
sS'GTCGCA'
p2779
I5140
sS'GTCGCC'
p2780
I12012
sS'TCGGTC'
p2781
I6258
sS'TCGGTA'
p2782
I3305
sS'CTCGCG'
p2783
I11982
sS'TCGGTG'
p2784
I8647
sS'GTCGCT'
p2785
I7776
sS'CCGTCG'
p2786
I5807
sS'CCGTCA'
p2787
I7266
sS'CCGTCC'
p2788
I14192
sS'GGCTGT'
p2789
I33988
sS'CGCGTG'
p2790
I9246
sS'GCATTT'
p2791
I32322
sS'CGCGTC'
p2792
I9650
sS'CGCGTA'
p2793
I2333
sS'ATGCAG'
p2794
I26886
sS'CCACTA'
p2795
I15446
sS'TTTAGC'
p2796
I16902
sS'CGCGTT'
p2797
I5205
sS'GGCTGG'
p2798
I66383
sS'GGCTGA'
p2799
I40255
sS'GGCTGC'
p2800
I50848
sS'ATGCAT'
p2801
I19701
sS'TTTAGA'
p2802
I24691
sS'ATGACG'
p2803
I5802
sS'GGAGTT'
p2804
I27992
sS'ATGACA'
p2805
I23867
sS'ATGACC'
p2806
I15378
sS'CCTGAT'
p2807
I20032
sS'GGGCCT'
p2808
I37865
sS'ATGACT'
p2809
I28248
sS'GGAGTA'
p2810
I13969
sS'GGAGTC'
p2811
I25537
sS'GGAGTG'
p2812
I33524
sS'GGGCCG'
p2813
I31551
sS'GGGCCC'
p2814
I39695
sS'GGGCCA'
p2815
I33572
sS'GGCAAG'
p2816
I27546
sS'ACGAGT'
p2817
I4780
sS'TTCNNN'
p2818
I4
sS'AGGCCA'
p2819
I38301
sS'GCGCAC'
p2820
I12952
sS'AAAGTC'
p2821
I24593
sS'AGGCCG'
p2822
I22325
sS'ACGAGG'
p2823
I10410
sS'ACGAGC'
p2824
I6064
sS'ACGAGA'
p2825
I6609
sS'CTGATG'
p2826
I24618
sS'AGGCCT'
p2827
I36366
sS'GCTCTA'
p2828
I15155
sS'AGACGG'
p2829
I12597
sS'GGGTTG'
p2830
I21507
sS'GACTAC'
p2831
I10590
sS'GGGTTA'
p2832
I13091
sS'CTCGGG'
p2833
I21452
sS'GGGTTC'
p2834
I20765
sS'TTTGAT'
p2835
I22919
sS'NCACAC'
p2836
I1
sS'TGAACT'
p2837
I24322
sS'ATTGCT'
p2838
I22051
sS'GGGTTT'
p2839
I27960
sS'TACAAG'
p2840
I15636
sS'AGATCC'
p2841
I17379
sS'TGCGAG'
p2842
I8917
sS'ATTGCC'
p2843
I15218
sS'TTTGAG'
p2844
I35179
sS'ATTGCA'
p2845
I20068
sS'GACTAG'
p2846
I10981
sS'ATTGCG'
p2847
I3977
sS'TTTGAC'
p2848
I17882
sS'TTTGAA'
p2849
I37837
sS'CGGGCT'
p2850
I20402
sS'TGACGT'
p2851
I8144
sS'CTCGTC'
p2852
I8222
sS'CCCTGG'
p2853
I55023
sS'CCCTGA'
p2854
I35493
sS'AAGCTT'
p2855
I23660
sS'GATATT'
p2856
I15379
sS'GTCTCA'
p2857
I27693
sS'GATATC'
p2858
I7689
sS'TTGACG'
p2859
I4205
sS'GATATA'
p2860
I9207
sS'AAGCTA'
p2861
I16406
sS'GATATG'
p2862
I10872
sS'AAGCTG'
p2863
I35787
sS'TGACGC'
p2864
I7735
sS'CTCGGA'
p2865
I11772
sS'TACTCT'
p2866
I16535
sS'CATCGT'
p2867
I5517
sS'CAGGGT'
p2868
I33383
sS'CCAGTC'
p2869
I26597
sS'GACACA'
p2870
I27613
sS'CCAGTG'
p2871
I33186
sS'TACTCG'
p2872
I4383
sS'CATCGA'
p2873
I4226
sS'CATCGC'
p2874
I7124
sS'TACTCC'
p2875
I13969
sS'NGAATT'
p2876
I4
sS'TACTCA'
p2877
I19747
sS'CATCGG'
p2878
I5139
sS'CAGGGG'
p2879
I41415
sS'CCAGTT'
p2880
I25851
sS'AAAGTT'
p2881
I29513
sS'AATCTG'
p2882
I24736
sS'TACAAT'
p2883
I15091
sS'GCCATT'
p2884
I21038
sS'AGTCGA'
p2885
I4008
sS'AATCTA'
p2886
I14631
sS'TGAACG'
p2887
I6272
sS'TCACAC'
p2888
I26693
sS'CCCATA'
p2889
I12700
sS'TCACAA'
p2890
I24847
sS'TCACAG'
p2891
I37859
sS'GCCATA'
p2892
I11000
sS'CGGACG'
p2893
I7528
sS'GCCATC'
p2894
I20573
sS'CGGACA'
p2895
I7934
sS'CGGACC'
p2896
I9727
sS'GCCATG'
p2897
I24084
sS'TTTTAA'
p2898
I58171
sS'CGCNNN'
p2899
I1
sS'CTCGGC'
p2900
I23354
sS'TCACAT'
p2901
I25573
sS'CACGGA'
p2902
I10538
sS'ATTAAA'
p2903
I32348
sS'ATTAAG'
p2904
I17250
sS'CTTACA'
p2905
I18176
sS'GGCCTG'
p2906
I47090
sS'TCCACG'
p2907
I11254
sS'CAGNNN'
p2908
I1
sS'GTGNNN'
p2909
I1
sS'GTGCAG'
p2910
I32578
sS'CGGCCA'
p2911
I17501
sS'ATTAAT'
p2912
I19770
sS'AAGCAC'
p2913
I24360
sS'GAACCA'
p2914
I20471
sS'GGTATG'
p2915
I10467
sS'GGTATA'
p2916
I7575
sS'GGTATC'
p2917
I8092
sS'AGTACA'
p2918
I15642
sS'GAACCG'
p2919
I8045
sS'ACGAAT'
p2920
I4562
sS'GGTATT'
p2921
I13313
sS'CTGAAC'
p2922
I22036
sS'GGAACC'
p2923
I21756
sS'CTGAAG'
p2924
I36304
sS'ATTGTA'
p2925
I15067
sS'CCCGAA'
p2926
I9612
sS'CATTGC'
p2927
I18932
sS'CCCGGC'
p2928
I40418
sS'CATTGA'
p2929
I15874
sS'CTAGTT'
p2930
I13730
sS'CATTGG'
p2931
I16864
sS'TCAACT'
p2932
I18309
sS'ACCATC'
p2933
I16666
sS'ACACCG'
p2934
I8142
sS'CTGCCA'
p2935
I42049
sS'CTGCCC'
p2936
I56028
sS'ACACCC'
p2937
I24191
sS'ACACCA'
p2938
I24098
sS'CTGCCG'
p2939
I20954
sS'CTAGTG'
p2940
I14841
sS'TCAACC'
p2941
I14704
sS'TCAACA'
p2942
I22726
sS'CTAGTC'
p2943
I10982
sS'TCAACG'
p2944
I4508
sS'CTAGTA'
p2945
I9036
sS'CATTGT'
p2946
I21479
sS'CCCGGG'
p2947
I40903
sS'GTAATG'
p2948
I13583
sS'ACACCT'
p2949
I22598
sS'CTGCCT'
p2950
I58738
sS'TATCAC'
p2951
I11892
sS'CCTCGT'
p2952
I10419
sS'TATGAA'
p2953
I19759
sS'GAGGAC'
p2954
I26325
sS'AGACTG'
p2955
I28433
sS'CGAGGT'
p2956
I10627
sS'AGACTA'
p2957
I13360
sS'CCTCGG'
p2958
I24130
sS'CCTCGC'
p2959
I20911
sS'CCTCGA'
p2960
I8738
sS'CGAGGA'
p2961
I14109
sS'CGAGGC'
p2962
I21067
sS'CGAGGG'
p2963
I18374
sS'CACCGT'
p2964
I9623
sS'ACTTTA'
p2965
I21843
sS'ACTTTG'
p2966
I31147
sS'GACCTG'
p2967
I25398
sS'GACCTA'
p2968
I10726
sS'GACCTC'
p2969
I24482
sS'CACCGG'
p2970
I12192
sS'ACGCTG'
p2971
I12195
sS'CACCGA'
p2972
I8649
sS'ACTTTT'
p2973
I35230
sS'GGACGA'
p2974
I7504
sS'CGCCCC'
p2975
I47320
sS'GGACGG'
p2976
I14191
sS'GCATAA'
p2977
I12401
sS'CACAGC'
p2978
I43327
sS'CTTATC'
p2979
I12685
sS'CACAGA'
p2980
I43098
sS'CTTATA'
p2981
I11472
sS'CACAGG'
p2982
I40728
sS'TTAACT'
p2983
I20356
sS'ACTCAT'
p2984
I24911
sS'GAGGAG'
p2985
I60349
sS'GACGTA'
p2986
I3310
sS'CGTATC'
p2987
I3006
sS'GCATAC'
p2988
I8205
sS'TAAACT'
p2989
I21876
sS'GAGGAA'
p2990
I50190
sS'AGCGAT'
p2991
I6805
sS'TTAACA'
p2992
I21958
sS'ACTCAC'
p2993
I27978
sS'TTAACC'
p2994
I14766
sS'ACTCAA'
p2995
I21467
sS'ACTCAG'
p2996
I35460
sS'CTTATT'
p2997
I21994
sS'CACAGT'
p2998
I32100
sS'AGCGAC'
p2999
I7785
sS'TAAACA'
p3000
I33222
sS'AGCGAA'
p3001
I7656
sS'GAGGAT'
p3002
I24587
sS'GACGTT'
p3003
I5794
sS'CGTATT'
p3004
I4445
sS'TAAACG'
p3005
I5885
sS'CTGTGG'
p3006
I43853
sS'GTATGT'
p3007
I14886
sS'AGTTCA'
p3008
I24301
sS'TACTTA'
p3009
I15542
sS'AGTTCG'
p3010
I6286
sS'CTGTGA'
p3011
I37844
sS'GAGCGT'
p3012
I8212
sS'TAGGAC'
p3013
I12017
sS'GCAAAG'
p3014
I31331
sS'TAGGAA'
p3015
I26040
sS'GCAAAA'
p3016
I30610
sS'TAGGAG'
p3017
I21862
sS'GCAAAC'
p3018
I22392
sS'CGGGGC'
p3019
I42710
sS'GTATGG'
p3020
I9502
sS'CTGTGT'
p3021
I41605
sS'CGGGGG'
p3022
I27608
sS'GTATGC'
p3023
I8201
sS'AGTTCT'
p3024
I26890
sS'GCAAAT'
p3025
I24420
sS'TAGGAT'
p3026
I14270
sS'TAATTA'
p3027
I19439
sS'TTCAAT'
p3028
I19149
sS'TGCTTT'
p3029
I43349
sS'GTCTAT'
p3030
I9553
sS'TGGGNC'
p3031
I1
sS'GTAATT'
p3032
I17222
sS'GTTACC'
p3033
I10931
sS'GTTACA'
p3034
I15132
sS'TAATTC'
p3035
I18190
sS'TATCGA'
p3036
I2162
sS'TATCGC'
p3037
I2661
sS'TATAGT'
p3038
I10257
sS'GTCTAA'
p3039
I10968
sS'CAGGAC'
p3040
I31145
sS'GTCTAC'
p3041
I9105
sS'TGCTTC'
p3042
I32339
sS'TTCAAA'
p3043
I37836
sS'TTCAAC'
p3044
I18100
sS'TGCTTG'
p3045
I27504
sS'TATAGC'
p3046
I8853
sS'TATCGT'
p3047
I2600
sS'TATAGA'
p3048
I11970
sS'AGCTCA'
p3049
I32157
sS'TATAGG'
p3050
I9699
sS'GTTACT'
p3051
I15531
sS'GGAAAA'
p3052
I52705
sS'AACCTT'
p3053
I20750
sS'GATGGC'
p3054
I20567
sS'GCTCTG'
p3055
I47367
sS'CCACGT'
p3056
I13065
sS'CAATAT'
p3057
I14604
sS'AGGACC'
p3058
I22252
sS'GAATGG'
p3059
I25293
sS'GGCTTT'
p3060
I32407
sS'ACTACT'
p3061
I13126
sS'GAATGC'
p3062
I19556
sS'CCACGA'
p3063
I8874
sS'CAATAC'
p3064
I10386
sS'CCACGC'
p3065
I18453
sS'CAATAA'
p3066
I20608
sS'GTTCCG'
p3067
I8052
sS'GGAAAT'
p3068
I36297
sS'CCACGG'
p3069
I15050
sS'GCTCTT'
p3070
I28425
sS'GGCTTA'
p3071
I15155
sS'ACTACC'
p3072
I10087
sS'GGCTTC'
p3073
I33746
sS'ACTACA'
p3074
I17682
sS'ACTACG'
p3075
I3964
sS'GGCTTG'
p3076
I26003
sS'TCCTAG'
p3077
I20953
sS'TAACAA'
p3078
I20572
sS'CGTTGC'
p3079
I6683
sS'TAACAC'
p3080
I14520
sS'TCCTAC'
p3081
I16164
sS'AGTCAC'
p3082
I30716
sS'TCCTAA'
p3083
I21366
sS'TAACAG'
p3084
I19596
sS'TCATCG'
p3085
I5940
sS'GCATAG'
p3086
I11012
sS'TCATCC'
p3087
I23963
sS'AAAAAC'
p3088
I43140
sS'TCATCA'
p3089
I25512
sS'AGTCAT'
p3090
I28257
sS'TCCTAT'
p3091
I15681
sS'TAACAT'
p3092
I17796
sS'CGTTGT'
p3093
I5419
sS'TAAATA'
p3094
I35165
sS'GAGCGA'
p3095
I12068
sS'CTTTCA'
p3096
I34468
sS'CTTTCG'
p3097
I7888
sS'GCGGGT'
p3098
I14599
sS'AGCCGT'
p3099
I8354
sS'GAGCGC'
p3100
I19249
sS'GTTGAT'
p3101
I12259
sS'CGACCA'
p3102
I5716
sS'CGACCC'
p3103
I11029
sS'CGACCG'
p3104
I5043
sS'CCTTAT'
p3105
I15137
sS'GTTGAC'
p3106
I11559
sS'GTTGAA'
p3107
I18108
sS'ACTGGG'
p3108
I33196
sS'GTTGAG'
p3109
I18372
sS'CCTTAC'
p3110
I14112
sS'CCTTAA'
p3111
I18745
sS'CCTTAG'
p3112
I18071
sS'CGACCT'
p3113
I7640
sS'AATAGA'
p3114
I19949
sS'CAACTA'
p3115
I12177
sS'CAACTG'
p3116
I21721
sS'AATAGG'
p3117
I15444
sS'GATGGT'
p3118
I16659
sS'GGGGTT'
p3119
I23664
sS'ATTCNN'
p3120
I4
sS'GGATGT'
p3121
I19392
sS'AATAGT'
p3122
I15125
sS'TCTCAC'
p3123
I28141
sS'CAACTT'
p3124
I21230
sS'GGATGC'
p3125
I18960
sS'GGATGA'
p3126
I23963
sS'GGATGG'
p3127
I28033
sS'GGGGTA'
p3128
I12687
sS'TCTCCG'
p3129
I15175
sS'GAGTCC'
p3130
I22985
sS'AAACTG'
p3131
I36387
sS'TCTCCC'
p3132
I49258
sS'AAACTA'
p3133
I21761
sS'TCTCCA'
p3134
I41900
sS'AAACTC'
p3135
I27279
sS'CTATGA'
p3136
I15177
sS'AGTACG'
p3137
I3253
sS'ACGCGC'
p3138
I9455
sS'AGTACC'
p3139
I10289
sS'CTATGG'
p3140
I12443
sS'TGCCGC'
p3141
I15297
sS'CCCTTA'
p3142
I15985
sS'CCCTTC'
p3143
I42904
sS'TCTCCT'
p3144
I49387
sS'CCCTTG'
p3145
I27472
sS'AGTACT'
p3146
I13770
sS'CTATGT'
p3147
I15224
sS'GCCGAA'
p3148
I7600
sS'GTGGAG'
p3149
I36318
sS'GCCGAC'
p3150
I9074
sS'GTGGAC'
p3151
I16232
sS'GCCGAG'
p3152
I23352
sS'GTGGAA'
p3153
I28867
sS'GTGGAT'
p3154
I17640
sS'GCCGAT'
p3155
I4509
sS'CCTATT'
p3156
I15443
sS'ACCCGG'
p3157
I16816
sS'GTAGTC'
p3158
I10579
sS'AAATCG'
p3159
I5984
sS'GTAGTA'
p3160
I8658
sS'CACGCA'
p3161
I11943
sS'AAATCC'
p3162
I26507
sS'ACCGAA'
p3163
I5868
sS'AAATCA'
p3164
I33155
sS'AGATAC'
p3165
I13511
sS'TCCCGA'
p3166
I11669
sS'CACGCT'
p3167
I10730
sS'AAATCT'
p3168
I29486
sS'ACCGAT'
p3169
I3167
sS'CTTGAA'
p3170
I28416
sS'GTAGTT'
p3171
I13396
sS'ACCAGT'
p3172
I17203
sS'TGCCGT'
p3173
I7657
sS'GATGAT'
p3174
I18018
sS'GGAGCA'
p3175
I32487
sS'GGAGCC'
p3176
I44850
sS'AAAGTG'
p3177
I35934
sS'CCAAAT'
p3178
I26449
sS'GGAGCG'
p3179
I23053
sS'AAAACT'
p3180
I35345
sS'GATGAC'
p3181
I18748
sS'TGTCCC'
p3182
I29400
sS'GATGAA'
p3183
I24160
sS'GATGAG'
p3184
I25774
sS'CCAAAA'
p3185
I32633
sS'CCAAAC'
p3186
I25143
sS'AAAACG'
p3187
I11702
sS'GGAGCT'
p3188
I38177
sS'CCAAAG'
p3189
I37017
sS'TCGCGG'
p3190
I9911
sS'CGGTCC'
p3191
I11235
sS'TCGCGC'
p3192
I9648
sS'GGGAGT'
p3193
I27776
sS'TACCCT'
p3194
I14851
sS'AGATCA'
p3195
I20751
sS'GCCACC'
p3196
I38668
sS'AGAAAT'
p3197
I42536
sS'CGACGG'
p3198
I5807
sS'GCCACG'
p3199
I15827
sS'AGATCG'
p3200
I6165
sS'TGCCTA'
p3201
I17809
sS'ACCAGC'
p3202
I29772
sS'TCGCGT'
p3203
I3952
sS'GTGCAA'
p3204
I17702
sS'ACCCGT'
p3205
I5685
sS'AGAAAG'
p3206
I54048
sS'CGACGA'
p3207
I3087
sS'TCCCTT'
p3208
I39540
sS'AGAAAC'
p3209
I37444
sS'TACCCA'
p3210
I16851
sS'AGAAAA'
p3211
I70090
sS'TACCCC'
p3212
I12687
sS'ATGTAC'
p3213
I11569
sS'ACTTCG'
p3214
I6281
sS'ATGTAA'
p3215
I21243
sS'ATGTAG'
p3216
I13946
sS'CGACGC'
p3217
I6512
sS'ACCAGG'
p3218
I31156
sS'ACGTCA'
p3219
I8143
sS'TCGCTC'
p3220
I12057
sS'GACGAC'
p3221
I5182
sS'ATGTCG'
p3222
I3830
sS'ATGTAT'
p3223
I18187
sS'ATTAGA'
p3224
I16096
sS'GTTCCC'
p3225
I25084
sS'AGCACT'
p3226
I30494
sS'TTAGAA'
p3227
I26387
sS'CGGCTG'
p3228
I22755
sS'TTAGAC'
p3229
I10959
sS'CGGCTC'
p3230
I22899
sS'TTAGAG'
p3231
I20300
sS'CGGCTA'
p3232
I5813
sS'AGCACC'
p3233
I25398
sS'AGCACA'
p3234
I31241
sS'AGCACG'
p3235
I9791
sS'GGTCGG'
p3236
I10900
sS'CGGCTT'
p3237
I12244
sS'TTAGAT'
p3238
I14617
sS'CCAGCA'
p3239
I47743
sS'CGAAGC'
p3240
I9316
sS'CCAGCC'
p3241
I66379
sS'AAAGAG'
p3242
I42538
sS'ATATCA'
p3243
I13554
sS'GCGCTG'
p3244
I23531
sS'TTATTT'
p3245
I55916
sS'TGTGAG'
p3246
I33551
sS'TGTGAA'
p3247
I30978
sS'GGGAGG'
p3248
I89433
sS'TGTGAC'
p3249
I25886
sS'ATATCT'
p3250
I15386
sS'CCAGCT'
p3251
I49907
sS'CACGGT'
p3252
I9194
sS'AAAGAT'
p3253
I28623
sS'TGTGAT'
p3254
I24617
sS'TTATTG'
p3255
I20584
sS'TTATTA'
p3256
I24645
sS'GAAAGC'
p3257
I30828
sS'TTATTC'
p3258
I22648
sS'ACATCT'
p3259
I22567
sS'TTTTAT'
p3260
I43952
sS'GCGAAC'
p3261
I5187
sS'CTTACT'
p3262
I18930
sS'TCCACT'
p3263
I27055
sS'TACAAA'
p3264
I29456
sS'AGACGA'
p3265
I6702
sS'TACAAC'
p3266
I11704
sS'CCTCTG'
p3267
I54125
sS'AGGTGG'
p3268
I41466
sS'CCTCTC'
p3269
I51557
sS'AGGTGC'
p3270
I23686
sS'CCTCTA'
p3271
I20371
sS'AGGTGA'
p3272
I31484
sS'CTTACG'
p3273
I4266
sS'TCCACA'
p3274
I29188
sS'TTTTAG'
p3275
I29556
sS'TCCACC'
p3276
I31550
sS'CTTACC'
p3277
I14925
sS'ACATCA'
p3278
I21760
sS'TTTTAC'
p3279
I26062
sS'ACATCC'
p3280
I19385
sS'AGGTGT'
p3281
I22592
sS'CCTCTT'
p3282
I39744
sS'CGTCGG'
p3283
I6074
sS'TATGAG'
p3284
I15615
sS'CCCGGA'
p3285
I20452
sS'NNCTGA'
p3286
I1
sS'TATGAC'
p3287
I12603
sS'TTGTGT'
p3288
I28682
sS'TGGAAT'
p3289
I31828
sS'TAGGTG'
p3290
I16716
sS'NCAGAG'
p3291
I1
sS'TTGTGC'
p3292
I19266
sS'TATGAT'
p3293
I13682
sS'TTGTGG'
p3294
I26225
sS'CCCGGT'
p3295
I11609
sS'GGCGTG'
p3296
I20410
sS'TGGAAG'
p3297
I39349
sS'TGGAAC'
p3298
I21027
sS'TGGAAA'
p3299
I47167
sS'TGAGGA'
p3300
I37417
sS'AAGAGG'
p3301
I39741
sS'TGAGGC'
p3302
I37627
sS'AAGAGA'
p3303
I41990
sS'AAGAGC'
p3304
I28440
sS'TGAGGG'
p3305
I34240
sS'GCTTAG'
p3306
I15598
sS'GCTTAC'
p3307
I11442
sS'GCTTAA'
p3308
I15310
sS'TGATTC'
p3309
I25042
sS'AAGCGC'
p3310
I10710
sS'AAGAGT'
p3311
I23594
sS'AAGCGA'
p3312
I9198
sS'TGAGGT'
p3313
I28597
sS'GCTTAT'
p3314
I13095
sS'CTGCTA'
p3315
I19014
sS'GCGTGT'
p3316
I10306
sS'CTGCTC'
p3317
I42413
sS'ACTTCT'
p3318
I28953
sS'GACCGT'
p3319
I5280
sS'CTGCTG'
p3320
I58004
sS'CGGTCA'
p3321
I6747
sS'GGTCGT'
p3322
I4839
sS'CTAGAG'
p3323
I20617
sS'CTAGAA'
p3324
I22282
sS'GAAAGT'
p3325
I27886
sS'GACCGA'
p3326
I6258
sS'GACCGC'
p3327
I9853
sS'ACTTCC'
p3328
I33282
sS'CTGCTT'
p3329
I40648
sS'ACTTCA'
p3330
I25486
sS'CTAGAT'
p3331
I12824
sS'AAGTGT'
p3332
I23730
sS'CGGTCT'
p3333
I8140
sS'GGTCGC'
p3334
I9480
sS'GGTCGA'
p3335
I4190
sS'CGTCGC'
p3336
I7177
sS'GCGTGG'
p3337
I18444
sS'GCGTGA'
p3338
I11108
sS'GCGTGC'
p3339
I12466
sS'TGCTCA'
p3340
I30537
sS'TTCATC'
p3341
I24152
sS'TGCTCC'
p3342
I32489
sS'TTCATA'
p3343
I19740
sS'TTCATG'
p3344
I24493
sS'TGCTCG'
p3345
I8588
sS'CAGAAT'
p3346
I30615
sS'CAGCAG'
p3347
I58018
sS'TACACT'
p3348
I14464
sS'GCGGCT'
p3349
I21444
sS'CAGCAC'
p3350
I37816
sS'CAGCAA'
p3351
I34764
sS'GTACAC'
p3352
I10176
sS'TGATTT'
p3353
I33194
sS'TTCATT'
p3354
I40592
sS'GCTTTA'
p3355
I19668
sS'GCTGCC'
p3356
I47514
sS'GCTGCA'
p3357
I38549
sS'AACTCT'
p3358
I25409
sS'TGGCCC'
p3359
I33578
sS'TGGCCA'
p3360
I38396
sS'GTAGCA'
p3361
I13366
sS'TCATCT'
p3362
I31249
sS'TGCTCT'
p3363
I35948
sS'AGCAAA'
p3364
I38933
sS'TGGCCT'
p3365
I38317
sS'AACTCC'
p3366
I28002
sS'GCTGCT'
p3367
I46364
sS'AACTCG'
p3368
I6562
sS'CAGTCG'
p3369
I7507
sS'CTACAA'
p3370
I17412
sS'GGATCC'
p3371
I17672
sS'AATATT'
p3372
I33053
sS'GTTCGA'
p3373
I4814
sS'CAACCT'
p3374
I22417
sS'CAGTTA'
p3375
I19190
sS'TGGCCG'
p3376
I17496
sS'GGCACG'
p3377
I12127
sS'GGCACA'
p3378
I28726
sS'GACAAT'
p3379
I13793
sS'GGCACC'
p3380
I25223
sS'CAACCG'
p3381
I6398
sS'ACGACC'
p3382
I4836
sS'AATATG'
p3383
I19522
sS'CGGTCG'
p3384
I5045
sS'AATATA'
p3385
I20365
sS'AGCAAG'
p3386
I32245
sS'AATATC'
p3387
I15369
sS'CTTCGT'
p3388
I7428
sS'GACAAA'
p3389
I26006
sS'GGCACT'
p3390
I24349
sS'GACAAC'
p3391
I13223
sS'CAGAAC'
p3392
I27294
sS'GACAAG'
p3393
I21196
sS'GCTGCG'
p3394
I24324
sS'GCGGCG'
p3395
I38644
sS'GCAATA'
p3396
I12917
sS'GCAATG'
p3397
I18944
sS'CAAGTG'
p3398
I26055
sS'CGATGG'
p3399
I6349
sS'GACACT'
p3400
I19818
sS'TCCCAT'
p3401
I26166
sS'CGATGC'
p3402
I5284
sS'GTAAAT'
p3403
I21476
sS'CGATGA'
p3404
I5940
sS'GAATTA'
p3405
I18180
sS'GAATTC'
p3406
I21454
sS'GAATTG'
p3407
I17948
sS'TCCCAA'
p3408
I34627
sS'CGATGT'
p3409
I4441
sS'GTAAAA'
p3410
I26081
sS'GTAAAG'
p3411
I18080
sS'TCCCAG'
p3412
I62302
sS'GGATTT'
p3413
I26512
sS'GTGCGT'
p3414
I8367
sS'ATGGTA'
p3415
I13419
sS'GGATTC'
p3416
I18429
sS'GGATTA'
p3417
I19070
sS'GGATTG'
p3418
I15983
sS'AGCGGC'
p3419
I20452
sS'CTATCA'
p3420
I11500
sS'AAAGCC'
p3421
I32409
sS'TCTGTG'
p3422
I43097
sS'ACGCCC'
p3423
I15047
sS'GTCCCG'
p3424
I16181
sS'TCTGTA'
p3425
I24099
sS'AACCGG'
p3426
I7347
sS'CTCCTT'
p3427
I43812
sS'ACGCCA'
p3428
I9308
sS'AACCGC'
p3429
I7922
sS'ACTCCT'
p3430
I30831
sS'CAGTCC'
p3431
I27082
sS'AAAGCG'
p3432
I10562
sS'CTCCTG'
p3433
I60085
sS'AACCGT'
p3434
I5245
sS'CTCCTA'
p3435
I21849
sS'CTCCTC'
p3436
I60335
sS'GGCGGT'
p3437
I14785
sS'AACAAG'
p3438
I26903
sS'GACGCC'
p3439
I12776
sS'CCCACA'
p3440
I36235
sS'CCCACC'
p3441
I51798
sS'TACTTC'
p3442
I16920
sS'AGCCTT'
p3443
I30854
sS'CCGATT'
p3444
I4983
sS'CCCACT'
p3445
I32736
sS'AACAAT'
p3446
I23098
sS'GACGCT'
p3447
I9215
sS'ACCTCC'
p3448
I34462
sS'CCGATA'
p3449
I2341
sS'AGCCTG'
p3450
I51508
sS'AGCCTA'
p3451
I16518
sS'AGCCTC'
p3452
I45030
sS'GTACCC'
p3453
I9211
sS'GAGTTT'
p3454
I27273
sS'TGGTTA'
p3455
I16494
sS'CGCCTT'
p3456
I14031
sS'TGGTTC'
p3457
I20473
sS'TCNNNN'
p3458
I6
sS'CAGAGT'
p3459
I33500
sS'GCATCT'
p3460
I21694
sS'ACCTCG'
p3461
I10625
sS'AGGCAC'
p3462
I28589
sS'CGCCTC'
p3463
I30333
sS'AGGCAA'
p3464
I30100
sS'CGCCTA'
p3465
I6272
sS'AGGCAG'
p3466
I58737
sS'CGCCTG'
p3467
I25881
sS'CAATTG'
p3468
I11640
sS'CAGAGG'
p3469
I54120
sS'GCATCC'
p3470
I18945
sS'GCATCA'
p3471
I17356
sS'CAGAGC'
p3472
I47382
sS'GCATCG'
p3473
I5285
sS'CAGAGA'
p3474
I50452
sS'GCCTCT'
p3475
I42214
sS'CCGATC'
p3476
I4374
sS'AGACTC'
p3477
I24034
sS'CCTAGA'
p3478
I19364
sS'CCTAGC'
p3479
I17329
sS'TTTGCT'
p3480
I38906
sS'CGGGAG'
p3481
I31253
sS'TGCGGT'
p3482
I8773
sS'CCTAGG'
p3483
I21867
sS'TAAGCA'
p3484
I20459
sS'TGCGGC'
p3485
I15667
sS'TTTGCC'
p3486
I28065
sS'CCTAGT'
p3487
I14176
sS'TGCGGG'
p3488
I17796
sS'TTTGCG'
p3489
I7002
sS'TGAGTT'
p3490
I25026
sS'GGGACG'
p3491
I16168
sS'CGGGAC'
p3492
I16181
sS'ATCGCT'
p3493
I6807
sS'TCTCGT'
p3494
I6609
sS'ATCGCC'
p3495
I6207
sS'TGAGTG'
p3496
I29370
sS'ATCGCA'
p3497
I4687
sS'TGAGTA'
p3498
I19749
sS'ATCGCG'
p3499
I4241
sS'TGAGTC'
p3500
I35690
sS'AAGGTG'
p3501
I26910
sS'AAGGTC'
p3502
I20093
sS'CATCAT'
p3503
I21659
sS'AAGGTA'
p3504
I16772
sS'AAGCGG'
p3505
I12008
sS'ACGGCA'
p3506
I7652
sS'CATCAC'
p3507
I22258
sS'AAGGTT'
p3508
I20749
sS'CATCAA'
p3509
I17955
sS'CATCAG'
p3510
I24626
sS'ACGGCG'
p3511
I8125
sS'TCACCT'
p3512
I31480
sS'TCTAAG'
p3513
I18395
sS'TCGTTT'
p3514
I8540
sS'CGGAAT'
p3515
I6204
sS'CAATTC'
p3516
I17944
sS'GTGGCT'
p3517
I37557
sS'ATCGAT'
p3518
I2690
sS'TCACCG'
p3519
I10799
sS'TCACCA'
p3520
I29952
sS'TCACCC'
p3521
I29520
sS'CGGAAG'
p3522
I16810
sS'CAACCC'
p3523
I21496
sS'AAAATA'
p3524
I56485
sS'CGGAAC'
p3525
I8052
sS'AGCTCG'
p3526
I10192
sS'CGGAAA'
p3527
I11538
sS'GCCTCA'
p3528
I37610
sS'ATCCAG'
p3529
I24801
sS'ATGGCG'
p3530
I10200
sS'TGTGTA'
p3531
I23877
sS'ATGGCC'
p3532
I18857
sS'ATGGCA'
p3533
I24105
sS'TTCAGA'
p3534
I34984
sS'ATGGCT'
p3535
I23480
sS'TGTGTT'
p3536
I34957
sS'CCAAGT'
p3537
I25974
sS'GAACAT'
p3538
I17750
sS'AGAATT'
p3539
I29278
sS'GAAACG'
p3540
I11051
sS'GAAACA'
p3541
I35929
sS'AGATTG'
p3542
I16984
sS'AAGATA'
p3543
I19262
sS'CTGAGT'
p3544
I35464
sS'AGGTAC'
p3545
I11503
sS'GAAACT'
p3546
I30844
sS'AGAATG'
p3547
I32540
sS'AGATTT'
p3548
I29482
sS'ACATAC'
p3549
I14885
sS'CTGAGC'
p3550
I40159
sS'CTGAGA'
p3551
I40900
sS'CTGAGG'
p3552
I51209
sS'CATACC'
p3553
I10458
sS'CATACA'
p3554
I17765
sS'CATACG'
p3555
I3145
sS'GCAATC'
p3556
I13099
sS'TCAAAT'
p3557
I27021
sS'GTCCAT'
p3558
I13681
sS'ACATAG'
p3559
I15234
sS'CATACT'
p3560
I12624
sS'GTCCAG'
p3561
I26764
sS'TCAAAG'
p3562
I28893
sS'CACGAG'
p3563
I9243
sS'TCAAAA'
p3564
I36354
sS'TCAAAC'
p3565
I21669
sS'CGGCGG'
p3566
I33959
sS'TTGATG'
p3567
I17947
sS'ATCGAG'
p3568
I4567
sS'CGGCGC'
p3569
I26314
sS'TTGATC'
p3570
I11778
sS'CGGCGA'
p3571
I9882
sS'TTGATA'
p3572
I12669
sS'TTGATT'
p3573
I22309
sS'CGGCGT'
p3574
I8584
sS'GTACGC'
p3575
I2838
sS'ATCGAC'
p3576
I2357
sS'CCATTA'
p3577
I14486
sS'TCGTCT'
p3578
I6701
sS'CGGTTA'
p3579
I3759
sS'GGTTTA'
p3580
I15632
sS'CGGTTC'
p3581
I8041
sS'GCTGTT'
p3582
I28957
sS'CGGTTG'
p3583
I6399
sS'GGTTTG'
p3584
I23632
sS'CCATTG'
p3585
I18272
sS'TCCAAA'
p3586
I32837
sS'GCTGTG'
p3587
I43311
sS'GGTTTT'
p3588
I31215
sS'CGGTTT'
p3589
I8437
sS'GCTGTA'
p3590
I17750
sS'TATGCG'
p3591
I2800
sS'AGGTTG'
p3592
I22427
sS'AGGTTC'
p3593
I18699
sS'AGGTTA'
p3594
I16037
sS'CNNNNN'
p3595
I7
sS'GAGGGA'
p3596
I50723
sS'TTTTTC'
p3597
I55943
sS'TCCATC'
p3598
I23862
sS'TTTTTA'
p3599
I55773
sS'TCCTCT'
p3600
I47465
sS'TTTTTG'
p3601
I49504
sS'GAGGGG'
p3602
I53099
sS'TTAAAT'
p3603
I33949
sS'AGGTTT'
p3604
I27557
sS'TAAGCG'
p3605
I4578
sS'TATGCC'
p3606
I11302
sS'TTAAAC'
p3607
I21394
sS'ATACGT'
p3608
I3996
sS'TTAAAA'
p3609
I58158
sS'ACTCCG'
p3610
I10889
sS'TTAAAG'
p3611
I28768
sS'ACTCCA'
p3612
I31564
sS'TTTTTT'
p3613
I160885
sS'ACTCCC'
p3614
I27775
sS'CTGTAA'
p3615
I30784
sS'GTCACG'
p3616
I9054
sS'CTGTAC'
p3617
I15293
sS'GCAACT'
p3618
I17087
sS'GTCACC'
p3619
I24903
sS'CTGTAG'
p3620
I21519
sS'GTCACA'
p3621
I25868
sS'AGGGAT'
p3622
I23450
sS'GGTCTT'
p3623
I20378
sS'GTCACT'
p3624
I26571
sS'TAGGCG'
p3625
I6268
sS'GCAACC'
p3626
I17159
sS'CTGTAT'
p3627
I18829
sS'GCAACA'
p3628
I22504
sS'TAGGCC'
p3629
I13428
sS'ATTCAT'
p3630
I28767
sS'TCCCAC'
p3631
I35569
sS'GCGATT'
p3632
I5805
sS'TCGTGT'
p3633
I6155
sS'TTCACT'
p3634
I30290
sS'GTCTCT'
p3635
I32030
sS'AACATT'
p3636
I29021
sS'ATTCAG'
p3637
I27596
sS'ATTCAA'
p3638
I24332
sS'ATTCAC'
p3639
I20705
sS'GTCTCC'
p3640
I31097
sS'TCGTGG'
p3641
I8868
sS'GCGATG'
p3642
I7129
sS'TTCACC'
p3643
I23630
sS'GCGATA'
p3644
I2664
sS'TTCACA'
p3645
I30950
sS'GCGATC'
p3646
I6348
sS'GAAGGC'
p3647
I32629
sS'GAAGGA'
p3648
I43894
sS'GAAGGG'
p3649
I42914
sS'CGATTA'
p3650
I2839
sS'CAATCT'
p3651
I16980
sS'AGACTT'
p3652
I23709
sS'GGAACA'
p3653
I25542
sS'GGAACG'
p3654
I9815
sS'AGCCAC'
p3655
I37590
sS'CACGAA'
p3656
I6881
sS'TACTGC'
p3657
I15827
sS'CGATTT'
p3658
I5987
sS'AAAACA'
p3659
I60392
sS'GAAGGT'
p3660
I23258
sS'CTCGCT'
p3661
I15284
sS'TTGTAG'
p3662
I17407
sS'CAATCA'
p3663
I18379
sS'GGAACT'
p3664
I24146
sS'TCCTGA'
p3665
I37938
sS'AGTCCA'
p3666
I22279
sS'TCCTGC'
p3667
I45995
sS'AGTCCC'
p3668
I28328
sS'ACTAAA'
p3669
I21752
sS'TCCTGG'
p3670
I55222
sS'ACTAAC'
p3671
I11054
sS'TACTGG'
p3672
I16057
sS'TAACGA'
p3673
I3665
sS'CAGCTA'
p3674
I23606
sS'CAGCTC'
p3675
I46245
sS'ACTAAT'
p3676
I13797
sS'CGACTC'
p3677
I8135
sS'AGTCCT'
p3678
I26316
sS'TCCTGT'
p3679
I36396
sS'CAGCTT'
p3680
I35786
sS'TAACGT'
p3681
I4638
sS'TTGACC'
p3682
I14363
sS'GTACTT'
p3683
I14072
sS'CGACAT'
p3684
I3826
sS'TTGTTC'
p3685
I23554
sS'TTGTTA'
p3686
I20523
sS'TTGTTG'
p3687
I25870
sS'AGGAAG'
p3688
I63769
sS'CCGAGC'
p3689
I17697
sS'CCGCGT'
p3690
I9515
sS'CGACAC'
p3691
I5693
sS'CGACAA'
p3692
I4310
sS'GTACTC'
p3693
I9075
sS'GTACTA'
p3694
I7092
sS'CCGCGC'
p3695
I31352
sS'CCGAGT'
p3696
I10841
sS'CCGCGA'
p3697
I9918
sS'CCGCGG'
p3698
I29019
sS'TTGTTT'
p3699
I58066
sS'GCATAT'
p3700
I12403
sS'TCCGTT'
p3701
I7399
sS'AGCCAA'
p3702
I30846
sS'AATAAC'
p3703
I18845
sS'AATAAA'
p3704
I54276
sS'AATAAG'
p3705
I22011
sS'TACTAA'
p3706
I14353
sS'AATAAT'
p3707
I28849
sS'ACGGTG'
p3708
I9615
sS'CCAACC'
p3709
I22793
sS'CTCAGT'
p3710
I33183
sS'CCAACG'
p3711
I7177
sS'GGGATT'
p3712
I26546
sS'CGCCGC'
p3713
I38661
sS'GTGTAT'
p3714
I15187
sS'CGCCGA'
p3715
I9291
sS'GAGTAG'
p3716
I16776
sS'CGCCGG'
p3717
I22690
sS'GAGTAA'
p3718
I18248
sS'AGTAAG'
p3719
I18937
sS'CTCAGG'
p3720
I45588
sS'CTCAGC'
p3721
I49290
sS'CTCAGA'
p3722
I39703
sS'GAGTAT'
p3723
I10533
sS'GCTTCA'
p3724
I25124
sS'GTGTAG'
p3725
I13035
sS'TCGAGC'
p3726
I5686
sS'AGTAAT'
p3727
I17798
sS'GTGTAC'
p3728
I10177
sS'CGCCGT'
p3729
I8122
sS'GTGGCA'
p3730
I29413
sS'CATATT'
p3731
I19519
sS'ATCGTA'
p3732
I2756
sS'GTGGCG'
p3733
I17358
sS'GCCGCC'
p3734
I44434
sS'GCCGCA'
p3735
I15667
sS'GCCGCG'
p3736
I29308
sS'ACACTT'
p3737
I23725
sS'CTCGGT'
p3738
I10168
sS'CATATC'
p3739
I10867
sS'CATATA'
p3740
I13944
sS'TCAGCA'
p3741
I34419
sS'TACTAC'
p3742
I8655
sS'ACACTC'
p3743
I20747
sS'ACACTA'
p3744
I12934
sS'ACACTG'
p3745
I29925
sS'GCCGCT'
p3746
I20462
sS'ACCGGA'
p3747
I7818
sS'AAATAA'
p3748
I55964
sS'ACCGGC'
p3749
I10186
sS'AAATAC'
p3750
I28854
sS'CTTTAA'
p3751
I28761
sS'AATCCT'
p3752
I24801
sS'AAATAG'
p3753
I26640
sS'AACTTA'
p3754
I16463
sS'CAGGTA'
p3755
I17924
sS'AACTTC'
p3756
I24071
sS'CAGGTC'
p3757
I25394
sS'CACGAC'
p3758
I5877
sS'ACGTTT'
p3759
I9318
sS'CAGGTG'
p3760
I38036
sS'CTTTAT'
p3761
I25219
sS'AATCCC'
p3762
I26512
sS'AATCCA'
p3763
I23026
sS'AAATAT'
p3764
I39689
sS'AATCCG'
p3765
I5589
sS'CACGAT'
p3766
I5445
sS'CAGGTT'
p3767
I25436
sS'AACTTT'
p3768
I29523
sS'TCTGTC'
p3769
I34753
sS'GGGATA'
p3770
I12659
sS'GGGATC'
p3771
I16834
sS'GGGTGT'
p3772
I24184
sS'GGGATG'
p3773
I28078
sS'GATGCT'
p3774
I20735
sS'CGCAGT'
p3775
I10944
sS'GAGTCG'
p3776
I8137
sS'GAGCCT'
p3777
I32706
sS'GGAGAC'
p3778
I31111
sS'GGGTGA'
p3779
I29532
sS'GGAGAA'
p3780
I45763
sS'GGGTGC'
p3781
I24546
sS'GGAGAG'
p3782
I54360
sS'GGGTGG'
p3783
I49522
sS'GAGCCA'
p3784
I38802
sS'CGCAGG'
p3785
I22315
sS'GATGCG'
p3786
I6275
sS'CGCAGA'
p3787
I13623
sS'GATGCA'
p3788
I17929
sS'GAGCCG'
p3789
I22910
sS'GATGCC'
p3790
I18323
sS'CGGATT'
p3791
I5590
sS'GGTAGT'
p3792
I10083
sS'ACCCCT'
p3793
I25300
sS'GCCAAT'
p3794
I16576
sS'GGCGGG'
p3795
I59284
sS'AGAAGT'
p3796
I28959
sS'ACCCCA'
p3797
I32118
sS'GGTAGA'
p3798
I15346
sS'ACCCCC'
p3799
I26710
sS'CGGATG'
p3800
I7313
sS'GCCAAG'
p3801
I33082
sS'CGGATA'
p3802
I3195
sS'ACCCCG'
p3803
I17051
sS'GGTAGG'
p3804
I18014
sS'AGAAGA'
p3805
I40225
sS'AGAAGC'
p3806
I34912
sS'GCAAGA'
p3807
I25252
sS'AGAAGG'
p3808
I43359
sS'CACTCC'
p3809
I33534
sS'CACTCA'
p3810
I29360
sS'CACTCG'
p3811
I8937
sS'TGCGTT'
p3812
I7209
sS'GCAAGG'
p3813
I26941
sS'TCTGTT'
p3814
I35253
sS'AGCTTT'
p3815
I31305
sS'CCCCGG'
p3816
I32718
sS'TGCGTA'
p3817
I3859
sS'TGCGTG'
p3818
I11941
sS'CACTCT'
p3819
I29084
sS'AGCTTC'
p3820
I29908
sS'AGCTTA'
p3821
I15252
sS'AGCTTG'
p3822
I23680
sS'AGACCA'
p3823
I25954
sS'CCACTT'
p3824
I28285
sS'TTAGCT'
p3825
I18790
sS'ACTGTG'
p3826
I32089
sS'TTAGCC'
p3827
I16057
sS'TTAGCA'
p3828
I19132
sS'GACCAT'
p3829
I12432
sS'TTAGCG'
p3830
I4344
sS'CGATCC'
p3831
I5801
sS'AAGGGG'
p3832
I34379
sS'ATAAGG'
p3833
I15128
sS'TGTGCT'
p3834
I31260
sS'AAGGGC'
p3835
I28843
sS'ATAAGC'
p3836
I13092
sS'AAGGGA'
p3837
I39525
sS'ATAAGA'
p3838
I17891
sS'CCAGAC'
p3839
I28443
sS'CCAGAA'
p3840
I39504
sS'CCAGAG'
p3841
I48494
sS'GCAAGT'
p3842
I19198
sS'TGTGCG'
p3843
I10709
sS'ATAAGT'
p3844
I13295
sS'AAGGGT'
p3845
I20782
sS'TGTGCC'
p3846
I28733
sS'ATAGGA'
p3847
I15659
sS'TGTGCA'
p3848
I28726
sS'ATAGGC'
p3849
I10832
sS'GCTCGC'
p3850
I14695
sS'ATACGC'
p3851
I2750
sS'CCAGAT'
p3852
I24379
sS'AGACAA'
p3853
I26929
sS'GACGCA'
p3854
I8197
sS'AGACAC'
p3855
I26198
sS'AGACAG'
p3856
I41124
sS'TTTTCT'
p3857
I70066
sS'CGCTGT'
p3858
I12563
sS'CCCACG'
p3859
I17321
sS'TCAAGA'
p3860
I23892
sS'CGTGGG'
p3861
I17319
sS'AGACAT'
p3862
I21746
sS'CGTGGA'
p3863
I11250
sS'TTTTCG'
p3864
I7047
sS'AACAAC'
p3865
I22171
sS'CGTCTT'
p3866
I8477
sS'TTTTCC'
p3867
I52664
sS'TTTTCA'
p3868
I45553
sS'CGCTGG'
p3869
I21493
sS'TATGGA'
p3870
I13874
sS'TATGGC'
p3871
I11004
sS'CGTAGG'
p3872
I5339
sS'CGTAGA'
p3873
I4229
sS'TATGGG'
p3874
I12713
sS'CGTAGC'
p3875
I4925
sS'CTTCAG'
p3876
I36292
sS'TGGACT'
p3877
I22290
sS'CGTAGT'
p3878
I3964
sS'NNCACA'
p3879
I1
sS'TATGGT'
p3880
I11493
sS'TGGACA'
p3881
I24529
sS'TGGACC'
p3882
I16247
sS'TGGACG'
p3883
I8422
sS'CGTTAC'
p3884
I3678
sS'GGCGGN'
p3885
I1
sS'CCGGTT'
p3886
I7348
sS'GACCAA'
p3887
I16513
sS'GCTTGA'
p3888
I19689
sS'TGAGAC'
p3889
I27691
sS'GCTTGC'
p3890
I19860
sS'TGAGAA'
p3891
I39153
sS'TGAGAG'
p3892
I32960
sS'AGGGAC'
p3893
I28887
sS'CCTGTT'
p3894
I28787
sS'CCGGTG'
p3895
I12185
sS'CCTTGC'
p3896
I26931
sS'ACTTAT'
p3897
I13301
sS'CCTGTC'
p3898
I32554
sS'CCTGTA'
p3899
I24871
sS'CTCGCC'
p3900
I19417
sS'GCTTGT'
p3901
I19832
sS'TGAGAT'
p3902
I26340
sS'TCCGAA'
p3903
I6529
sS'GGTTGT'
p3904
I15946
sS'TATCAG'
p3905
I14219
sS'AATTCN'
p3906
I4
sS'TAGCGT'
p3907
I3735
sS'GGTTGG'
p3908
I22805
sS'CTGAAT'
p3909
I27598
sS'GGTTGA'
p3910
I14705
sS'TTCACG'
p3911
I7796
sS'GGTTGC'
p3912
I17164
sS'TCCCGC'
p3913
I25459
sS'GTAACG'
p3914
I3677
sS'TCCCGG'
p3915
I26758
sS'GTAACC'
p3916
I10600
sS'CGTTTT'
p3917
I11715
sS'ATTCTC'
p3918
I26746
sS'AGGGAA'
p3919
I48627
sS'ATTCTA'
p3920
I19160
sS'ATTCTG'
p3921
I30590
sS'TCATTT'
p3922
I45063
sS'GTAACT'
p3923
I15450
sS'TGCTAA'
p3924
I19159
sS'TGCTAG'
p3925
I15632
sS'CAGCGG'
p3926
I22053
sS'AGGATC'
p3927
I18567
sS'TCATTC'
p3928
I31236
sS'TCATTA'
p3929
I20474
sS'TCATTG'
p3930
I21843
sS'ATTCTT'
p3931
I30560
sS'CGTTTC'
p3932
I11058
sS'ACCGGG'
p3933
I11604
sS'TGGCAA'
p3934
I26424
sS'TGGCAC'
p3935
I24972
sS'TGGCAG'
p3936
I42057
sS'GGCCGT'
p3937
I11024
sS'ACAATC'
p3938
I13789
sS'GCTGAC'
p3939
I23697
sS'TGGCAT'
p3940
I24281
sS'GGCCGG'
p3941
I35547
sS'NNGATC'
p3942
I2
sS'CCGATG'
p3943
I5138
sS'GGCCGC'
p3944
I34437
sS'GAACTT'
p3945
I21138
sS'GGCCGA'
p3946
I16121
sS'GGCAAT'
p3947
I15222
sS'CGCTCG'
p3948
I10682
sS'ATCNNN'
p3949
I2
sS'CTGATT'
p3950
I25760
sS'CCATCG'
p3951
I6349
sS'CTAAAT'
p3952
I20089
sS'CCATCC'
p3953
I28034
sS'CCATCA'
p3954
I21852
sS'CTGATC'
p3955
I16041
sS'CTGATA'
p3956
I14191
sS'GTACCA'
p3957
I9966
sS'GGCAAC'
p3958
I19229
sS'GGCAAA'
p3959
I28077
sS'AACGGG'
p3960
I8304
sS'CTAAAG'
p3961
I19578
sS'CCATCT'
p3962
I32160
sS'CTAAAC'
p3963
I15375
sS'TTGCGT'
p3964
I5526
sS'GACACC'
p3965
I18996
sS'TACGAT'
p3966
I2757
sS'GACACG'
p3967
I8573
sS'CCAAGA'
p3968
I31071
sS'GCGCCT'
p3969
I21051
sS'TAGCGA'
p3970
I3809
sS'TACGAG'
p3971
I3505
sS'TACGAC'
p3972
I2405
sS'GGAAAG'
p3973
I48634
sS'TCGGCG'
p3974
I9286
sS'CCGTGA'
p3975
I9435
sS'AGTCCG'
p3976
I7870
sS'TGTTAC'
p3977
I15056
sS'CTATTG'
p3978
I12328
sS'CTATTA'
p3979
I13099
sS'CTATTC'
p3980
I13676
sS'GGTTCC'
p3981
I21765
sS'TCGATG'
p3982
I4227
sS'TCGATA'
p3983
I2167
sS'TCGATC'
p3984
I3172
sS'CTATTT'
p3985
I26638
sS'CGCGAA'
p3986
I4615
sS'GCATTG'
p3987
I15516
sS'CAGCCT'
p3988
I64421
sS'TCGATT'
p3989
I4249
sS'TCGGCA'
p3990
I6959
sS'TGGTTT'
p3991
I34039
sS'TTTTGA'
p3992
I36308
sS'AACCAA'
p3993
I24189
sS'TGCCGG'
p3994
I14654
sS'AACCAC'
p3995
I23444
sS'ACGAAC'
p3996
I4216
sS'AACCAG'
p3997
I26628
sS'TGCCGA'
p3998
I6962
sS'TTGGAC'
p3999
I14811
sS'TCGGGC'
p4000
I12752
sS'CCGTGC'
p4001
I11982
sS'CGCGAG'
p4002
I11988
sS'GCGCCG'
p4003
I26317
sS'GGCGGC'
p4004
I44418
sS'AACCAT'
p4005
I17011
sS'AACAGA'
p4006
I35246
sS'CTACCG'
p4007
I5372
sS'AACAGC'
p4008
I28957
sS'CTACCC'
p4009
I16380
sS'AACAGG'
p4010
I28794
sS'CTACCA'
p4011
I15735
sS'CCCAAG'
p4012
I35299
sS'AGCAGC'
p4013
I46372
sS'GACGAA'
p4014
I5274
sS'CCCAAC'
p4015
I24077
sS'CCCAAA'
p4016
I37733
sS'CTACCT'
p4017
I17835
sS'GGGAGA'
p4018
I49256
sS'AACAGT'
p4019
I23843
sS'GGGAGC'
p4020
I43231
sS'ACGAAG'
p4021
I7428
sS'CCCAAT'
p4022
I15101
sS'GACGAT'
p4023
I3631
sS'GGGCGC'
p4024
I32900
sS'GGGCGA'
p4025
I15812
sS'NGCGCC'
p4026
I1
sS'GGGCGG'
p4027
I56629
sS'TCTCTT'
p4028
I41992
sS'GTACAG'
p4029
I15309
sS'CGTTAA'
p4030
I4382
sS'GTACAA'
p4031
I11716
sS'ACGACT'
p4032
I4931
sS'TCTCTC'
p4033
I51203
sS'TCTCTA'
p4034
I25271
sS'TCTCTG'
p4035
I50456
sS'GGGCGT'
p4036
I15052
sS'CAGAAA'
p4037
I52552
sS'ACGACA'
p4038
I5060
sS'ACGACG'
p4039
I3147
sS'CAGAAG'
p4040
I42855
sS'TAAGTG'
p4041
I19747
sS'GTCCAA'
p4042
I14815
sS'CACTTT'
p4043
I35932
sS'CCTAAT'
p4044
I13651
sS'CACTTG'
p4045
I26052
sS'CCTAAC'
p4046
I13991
sS'CCTAAA'
p4047
I21218
sS'CACTTC'
p4048
I30729
sS'CCTAAG'
p4049
I18183
sS'CACTTA'
p4050
I19733
sS'GCGGAT'
p4051
I7286
sS'ACAGGA'
p4052
I36404
sS'CTGCGG'
p4053
I24774
sS'AAGATT'
p4054
I22308
sS'CTCATG'
p4055
I24655
sS'GACTCG'
p4056
I8758
sS'CTCATC'
p4057
I25765
sS'GACTCC'
p4058
I25544
sS'CTCATA'
p4059
I15613
sS'GACTCA'
p4060
I35664
sS'ATAGGT'
p4061
I10331
sS'CTCCAA'
p4062
I31183
sS'AAGATG'
p4063
I28542
sS'GACTCT'
p4064
I22758
sS'CTCATT'
p4065
I32434
sS'ATCGAA'
p4066
I4197
sS'GGACTA'
p4067
I12475
sS'ATATTT'
p4068
I39669
sS'ATAGAG'
p4069
I15553
sS'AACTAA'
p4070
I17735
sS'ATAGTT'
p4071
I13892
sS'TACTGT'
p4072
I19077
sS'ATATTC'
p4073
I16733
sS'ATATTA'
p4074
I17270
sS'ATATTG'
p4075
I14588
sS'ATAGTA'
p4076
I11086
sS'TACTGA'
p4077
I18572
sS'ATTATA'
p4078
I16721
sS'ATAGTG'
p4079
I12778
sS'GATCGA'
p4080
I3172
sS'CAGGCA'
p4081
I48498
sS'CAGGCC'
p4082
I47088
sS'CATCCG'
p4083
I7316
sS'AGGAAA'
p4084
I63942
sS'CATCCA'
p4085
I24163
sS'AGGAAC'
p4086
I27112
sS'CATCCC'
p4087
I28072
sS'TTATGA'
p4088
I18878
sS'TTATGC'
p4089
I12397
sS'CGGAGT'
p4090
I10884
sS'TTATGG'
p4091
I14540
sS'CATCCT'
p4092
I30761
sS'AGGAAT'
p4093
I31855
sS'CAGGCT'
p4094
I51510
sS'ACGGAT'
p4095
I4555
sS'CGGAGA'
p4096
I15172
sS'CGGAGC'
p4097
I23247
sS'TTATGT'
p4098
I19689
sS'CGGAGG'
p4099
I25945
sS'ATGGAA'
p4100
I31371
sS'ATGGAC'
p4101
I13680
sS'ATGGAG'
p4102
I28344
sS'CGCTTG'
p4103
I9759
sS'CGCTTA'
p4104
I4578
sS'CGCTTC'
p4105
I13688
sS'ATGGAT'
p4106
I16569
sS'GTGTGN'
p4107
I1
sS'TTTGCA'
p4108
I34614
sS'CGCTTT'
p4109
I10565
sS'GCCGTG'
p4110
I13589
sS'TGGGGA'
p4111
I48889
sS'GGGTCG'
p4112
I11022
sS'CAAGCC'
p4113
I25997
sS'TGCGGA'
p4114
I10080
sS'GAAAAG'
p4115
I45219
sS'GAAAAC'
p4116
I34990
sS'ATAGAT'
p4117
I12780
sS'GAAAAA'
p4118
I55994
sS'GTTCCT'
p4119
I27121
sS'CACCGC'
p4120
I19406
sS'CAAGCG'
p4121
I9748
sS'GAAAAT'
p4122
I39423
sS'CGGCAT'
p4123
I6039
sS'ACAAGG'
p4124
I24871
sS'ACAAGA'
p4125
I24874
sS'ACAAGC'
p4126
I19838
sS'ACACGT'
p4127
I8575
sS'CTGCGT'
p4128
I12262
sS'GCGGAG'
p4129
I28868
sS'CATAAG'
p4130
I13240
sS'GTCCCT'
p4131
I28888
sS'CATAAA'
p4132
I25168
sS'GCGGAC'
p4133
I10843
sS'CATAAC'
p4134
I11492
sS'ACACGC'
p4135
I10307
sS'ACAAGT'
p4136
I19342
sS'ACACGA'
p4137
I6155
sS'ACACGG'
p4138
I9689
sS'CATAAT'
p4139
I15659
sS'GTCCCA'
p4140
I26089
sS'GCACAT'
p4141
I19728
sS'GTCCCC'
p4142
I30156
sS'ATCCCA'
p4143
I30064
sS'CTGCGA'
p4144
I10465
sS'CTGCGC'
p4145
I23684
sS'CGGCAA'
p4146
I7328
sS'CGGCAC'
p4147
I10236
sS'CATGCC'
p4148
I24306
sS'CGGCAG'
p4149
I20956
sS'GACGCG'
p4150
I9654
sS'CCTCCT'
p4151
I66972
sS'AGCGCT'
p4152
I13324
sS'CAGGCG'
p4153
I25889
sS'CCTCCC'
p4154
I89441
sS'CCTCCA'
p4155
I46635
sS'CACGCC'
p4156
I20366
sS'CCTCCG'
p4157
I25941
s.