(dp0
S'GAACGT'
p1
I37
sS'CTTCTT'
p2
I263
sS'CACCCT'
p3
I496
sS'ATTGAA'
p4
I203
sS'GAACGG'
p5
I163
sS'GAACGC'
p6
I170
sS'GAACGA'
p7
I98
sS'CAACAT'
p8
I17
sS'CACCCA'
p9
I1355
sS'CTTCTA'
p10
I1139
sS'CACCCC'
p11
I1463
sS'CTTCTC'
p12
I1083
sS'CACCCG'
p13
I453
sS'CTTCTG'
p14
I2436
sS'CGTGTG'
p15
I638
sS'TAAGGT'
p16
I73
sS'CGTGTC'
p17
I128
sS'CGTGTA'
p18
I238
sS'AGGCAA'
p19
I299
sS'GGAAAT'
p20
I80
sS'TAAGGG'
p21
I319
sS'CGTGTT'
p22
I35
sS'TAAGGC'
p23
I241
sS'TAAGGA'
p24
I296
sS'GTCAAA'
p25
I1003
sS'GTCAAC'
p26
I892
sS'GTCAAG'
p27
I1107
sS'CTGTCC'
p28
I1699
sS'TCAGAG'
p29
I115
sS'CTGTCA'
p30
I1250
sS'CTGTCG'
p31
I267
sS'GTATCT'
p32
I207
sS'TCAGAA'
p33
I72
sS'GTCAAT'
p34
I242
sS'GTATCA'
p35
I339
sS'GTATCC'
p36
I350
sS'GTATCG'
p37
I70
sS'CTGTCT'
p38
I748
sS'GGTGTC'
p39
I243
sS'GGTGTA'
p40
I431
sS'GGTGTG'
p41
I1038
sS'TATCCT'
p42
I259
sS'CCGGGG'
p43
I231
sS'TTCTGT'
p44
I1899
sS'ATTCCT'
p45
I112
sS'CCGGGC'
p46
I193
sS'CGCGGT'
p47
I108
sS'CCGGGA'
p48
I140
sS'TATCCA'
p49
I584
sS'TATCCC'
p50
I540
sS'TATCCG'
p51
I126
sS'GGTGTT'
p52
I71
sS'ATTCCG'
p53
I70
sS'TTCTGG'
p54
I3893
sS'CCGGGT'
p55
I35
sS'ATTCCC'
p56
I294
sS'TTCTGC'
p57
I3878
sS'ATTCCA'
p58
I346
sS'GTTCTA'
p59
I721
sS'TGCACT'
p60
I703
sS'CGTCAT'
p61
I39
sS'CGTAAA'
p62
I123
sS'AGGGAG'
p63
I620
sS'CGCGGG'
p64
I919
sS'CGCGGC'
p65
I820
sS'CGCGGA'
p66
I314
sS'ACCTGT'
p67
I421
sS'TCATGT'
p68
I135
sS'CTCCGA'
p69
I579
sS'TTACAG'
p70
I141
sS'CTCCGC'
p71
I1942
sS'TTACAA'
p72
I104
sS'CCGGCA'
p73
I143
sS'TTACAC'
p74
I72
sS'CTCCGG'
p75
I1374
sS'TCATGC'
p76
I225
sS'ACCTGG'
p77
I1517
sS'TCATGA'
p78
I199
sS'GTAAGC'
p79
I278
sS'TCATGG'
p80
I247
sS'ACCTGC'
p81
I1344
sS'ACCTGA'
p82
I999
sS'TTACAT'
p83
I38
sS'CTCCGT'
p84
I250
sS'GAATTT'
p85
I80
sS'GCCTGA'
p86
I2068
sS'GCCTGC'
p87
I3361
sS'GCCTGG'
p88
I4263
sS'TAAAGG'
p89
I858
sS'CAAATT'
p90
I62
sS'TAAAGA'
p91
I772
sS'TAAAGC'
p92
I580
sS'GCCTGT'
p93
I966
sS'TCCCCG'
p94
I534
sS'TAAAGT'
p95
I294
sS'CAAATA'
p96
I737
sS'CAAATC'
p97
I182
sS'CAAATG'
p98
I639
sS'AATACT'
p99
I413
sS'AATCCG'
p100
I185
sS'CGTCAC'
p101
I265
sS'CGTCAA'
p102
I123
sS'GGCATG'
p103
I1501
sS'GGCATA'
p104
I665
sS'GGCATC'
p105
I497
sS'AATACG'
p106
I209
sS'AATACA'
p107
I1213
sS'AATACC'
p108
I670
sS'GGCATT'
p109
I206
sS'TATCTG'
p110
I2090
sS'CTTGGT'
p111
I144
sS'GAGCAC'
p112
I786
sS'GAGCAA'
p113
I780
sS'GAGCAG'
p114
I1492
sS'AGTAGT'
p115
I283
sS'TCTCGC'
p116
I258
sS'TCTCGA'
p117
I121
sS'TCTCGG'
p118
I336
sS'AGTAGC'
p119
I684
sS'AGTAGA'
p120
I723
sS'AGTAGG'
p121
I811
sS'ACTGAA'
p122
I257
sS'TTGAAC'
p123
I325
sS'TTTGTT'
p124
I233
sS'GTGTCG'
p125
I285
sS'TCGAAC'
p126
I31
sS'TCGAAA'
p127
I27
sS'GTGTCC'
p128
I1467
sS'TCGAAG'
p129
I42
sS'GTGTCA'
p130
I1285
sS'CTTGCT'
p131
I235
sS'AGACAC'
p132
I87
sS'CCGTCT'
p133
I72
sS'CCACAA'
p134
I44
sS'GTGTCT'
p135
I738
sS'TTGAAG'
p136
I421
sS'TCGAAT'
p137
I10
sS'CTTGCG'
p138
I178
sS'CTTGCA'
p139
I465
sS'CTTGCC'
p140
I610
sS'CGAAAG'
p141
I62
sS'CGAAAA'
p142
I26
sS'CGAAAC'
p143
I43
sS'AAGGTT'
p144
I123
sS'CACGGA'
p145
I373
sS'ACAGTG'
p146
I342
sS'CACGGC'
p147
I619
sS'AAATGA'
p148
I509
sS'AAATGG'
p149
I429
sS'CACGGG'
p150
I624
sS'ACAGTA'
p151
I193
sS'CGAAAT'
p152
I11
sS'ACAGTT'
p153
I45
sS'AATCAG'
p154
I1206
sS'AATCAA'
p155
I882
sS'AAATGT'
p156
I209
sS'AATCAC'
p157
I984
sS'GGGTCT'
p158
I186
sS'TCTAGT'
p159
I167
sS'TTGCCG'
p160
I262
sS'TTGCCA'
p161
I978
sS'TTGCCC'
p162
I1037
sS'TTGCCT'
p163
I538
sS'TCTAGG'
p164
I533
sS'GGGTAA'
p165
I161
sS'TCTAGA'
p166
I381
sS'GGGTAG'
p167
I194
sS'TCTAGC'
p168
I360
sS'ATACGG'
p169
I35
sS'ATACAT'
p170
I22
sS'AGATGT'
p171
I136
sS'TCGCCC'
p172
I112
sS'TCGCCA'
p173
I48
sS'ATAGTC'
p174
I63
sS'TCGCCG'
p175
I48
sS'GGTAAT'
p176
I87
sS'ACCCAT'
p177
I69
sS'CGTCAG'
p178
I262
sS'GTGTAT'
p179
I195
sS'ACCCAC'
p180
I435
sS'GGTAAC'
p181
I363
sS'ACCCAA'
p182
I345
sS'AGATGG'
p183
I313
sS'ACCCAG'
p184
I637
sS'GGTAAG'
p185
I447
sS'TCGCCT'
p186
I38
sS'AGATGC'
p187
I216
sS'GCTCAC'
p188
I375
sS'CCCCAT'
p189
I81
sS'TTGGGT'
p190
I102
sS'CACTAG'
p191
I1173
sS'CACTAA'
p192
I1504
sS'CACTAC'
p193
I1229
sS'CCCCAA'
p194
I410
sS'CCCCAC'
p195
I658
sS'CCCCAG'
p196
I715
sS'CACTAT'
p197
I347
sS'TTGGGG'
p198
I505
sS'TCGGTT'
p199
I14
sS'TTGGGA'
p200
I349
sS'TTGGGC'
p201
I307
sS'TGCCTG'
p202
I4089
sS'TGCAGA'
p203
I2024
sS'TTTCTG'
p204
I2347
sS'TGCAGC'
p205
I2504
sS'TGCCTC'
p206
I1924
sS'TGCCTA'
p207
I1653
sS'TGCAGG'
p208
I2729
sS'ACGCCT'
p209
I44
sS'AGGATT'
p210
I128
sS'TTTCTT'
p211
I320
sS'TGCCTT'
p212
I476
sS'TGCAGT'
p213
I1086
sS'ACGATG'
p214
I106
sS'ACAATT'
p215
I46
sS'AAGGAA'
p216
I847
sS'AAGGAC'
p217
I526
sS'AAGGAG'
p218
I895
sS'ATATGC'
p219
I209
sS'GTTCCA'
p220
I354
sS'ATATGA'
p221
I262
sS'TACGAA'
p222
I175
sS'ATATGG'
p223
I230
sS'AAGGAT'
p224
I124
sS'TGGTTT'
p225
I202
sS'ATATGT'
p226
I169
sS'ACTATT'
p227
I47
sS'GGTCCC'
p228
I403
sS'TCCGGT'
p229
I213
sS'CCACTG'
p230
I255
sS'GCCCAA'
p231
I516
sS'GGTCCG'
p232
I149
sS'AGGTCT'
p233
I279
sS'TGTGTC'
p234
I575
sS'AGACCC'
p235
I80
sS'CTTCGG'
p236
I419
sS'TCTTGT'
p237
I323
sS'CTTCGC'
p238
I347
sS'CTTAGT'
p239
I263
sS'TCCGGG'
p240
I1049
sS'AGGTCA'
p241
I801
sS'AAAGTT'
p242
I43
sS'TCCGGC'
p243
I611
sS'GGTCCT'
p244
I125
sS'TCCGGA'
p245
I374
sS'CTTAGC'
p246
I640
sS'ATTGTG'
p247
I596
sS'CTTAGA'
p248
I675
sS'TCTTGC'
p249
I801
sS'CTTAGG'
p250
I776
sS'ATTGTC'
p251
I178
sS'TCTTGG'
p252
I964
sS'GCCTTT'
p253
I834
sS'ATTTTG'
p254
I1770
sS'TCCAGG'
p255
I2763
sS'ATTTTA'
p256
I2150
sS'CGCTAG'
p257
I420
sS'ATTTTC'
p258
I674
sS'TCCAGC'
p259
I2215
sS'TAGCAG'
p260
I461
sS'GATACT'
p261
I425
sS'TAGCAC'
p262
I345
sS'TAGCAA'
p263
I371
sS'TAAATA'
p264
I1397
sS'ATTTTT'
p265
I263
sS'GCCTTG'
p266
I4663
sS'TAGTGT'
p267
I405
sS'GCCTTA'
p268
I2549
sS'GCCTTC'
p269
I2640
sS'GATACG'
p270
I244
sS'TAGCAT'
p271
I77
sS'GATACC'
p272
I639
sS'GATACA'
p273
I981
sS'TGAGCT'
p274
I87
sS'ACGGAC'
p275
I41
sS'GATCAT'
p276
I219
sS'AAGACA'
p277
I1240
sS'AAGACC'
p278
I758
sS'GATTTA'
p279
I3011
sS'AAGACG'
p280
I289
sS'GATCAG'
p281
I999
sS'TGAGCG'
p282
I66
sS'TGAGCA'
p283
I239
sS'TGAGCC'
p284
I278
sS'AAGACT'
p285
I441
sS'ACCACG'
p286
I370
sS'GGCGTT'
p287
I75
sS'GCGGTA'
p288
I105
sS'CGTGCA'
p289
I226
sS'GCGGTG'
p290
I316
sS'CGGTGT'
p291
I97
sS'TCGTTA'
p292
I125
sS'TCGTTC'
p293
I90
sS'ATGTGG'
p294
I772
sS'TCGTTG'
p295
I185
sS'TTGGAG'
p296
I288
sS'GAGTTT'
p297
I349
sS'GCGGTT'
p298
I14
sS'ACTTGC'
p299
I539
sS'ACCACC'
p300
I950
sS'ACTTGA'
p301
I568
sS'CGGTGG'
p302
I384
sS'ACTTGG'
p303
I659
sS'CGGTGA'
p304
I198
sS'CGGTGC'
p305
I289
sS'TTCCTA'
p306
I2851
sS'TAGACT'
p307
I272
sS'TTCCTC'
p308
I3032
sS'CTTCCG'
p309
I270
sS'TGGGTT'
p310
I77
sS'TTCCTG'
p311
I6141
sS'TCCTTT'
p312
I1330
sS'CAGTTG'
p313
I1312
sS'ACGCTA'
p314
I89
sS'TAGACG'
p315
I166
sS'TTCCTT'
p316
I966
sS'TAGACC'
p317
I429
sS'TAGACA'
p318
I653
sS'TCCTTG'
p319
I5561
sS'TCCTTA'
p320
I4014
sS'TCCTTC'
p321
I3770
sS'ATCTCT'
p322
I806
sS'ACCGTT'
p323
I44
sS'TGGCGC'
p324
I253
sS'TTTACG'
p325
I138
sS'TGGCGA'
p326
I119
sS'TGGCGG'
p327
I322
sS'NNGAAT'
p328
I1
sS'ATCTCG'
p329
I402
sS'ATCTCA'
p330
I1911
sS'ATCTCC'
p331
I1760
sS'GGCCAA'
p332
I839
sS'ACGGAG'
p333
I51
sS'GGCCAC'
p334
I859
sS'ACCGTG'
p335
I508
sS'ACCGTA'
p336
I214
sS'TGGCGT'
p337
I57
sS'ACCGTC'
p338
I140
sS'ACCGAC'
p339
I152
sS'AGAATT'
p340
I103
sS'GGCAGT'
p341
I724
sS'TATGAT'
p342
I122
sS'CAAAGG'
p343
I758
sS'CCATAC'
p344
I54
sS'CAAAGA'
p345
I530
sS'AGATTC'
p346
I153
sS'CAAAGC'
p347
I534
sS'CCATAG'
p348
I71
sS'GGCAGA'
p349
I1789
sS'GGCAGC'
p350
I2605
sS'CGTGAG'
p351
I272
sS'GGCAGG'
p352
I3375
sS'CAACGC'
p353
I51
sS'GCACTA'
p354
I138
sS'CAACGA'
p355
I32
sS'CTAACC'
p356
I354
sS'CCATAT'
p357
I46
sS'CTAACG'
p358
I89
sS'GGGGGT'
p359
I67
sS'TACGCT'
p360
I132
sS'AGATTG'
p361
I287
sS'CGATCT'
p362
I22
sS'CTCTAG'
p363
I1731
sS'CTCTAA'
p364
I1898
sS'CTCTAC'
p365
I1609
sS'GGGGGG'
p366
I212
sS'TACGCA'
p367
I278
sS'CGATCA'
p368
I42
sS'GGGGGC'
p369
I291
sS'CGATCG'
p370
I13
sS'GGGGGA'
p371
I233
sS'TACGCG'
p372
I179
sS'CTCTAT'
p373
I444
sS'TTCTGA'
p374
I3433
sS'ACCGAA'
p375
I90
sS'CAGACC'
p376
I788
sS'CAGACA'
p377
I904
sS'CAGACG'
p378
I261
sS'ACGTGA'
p379
I137
sS'TAGTTG'
p380
I1106
sS'GCTAAT'
p381
I68
sS'TAGTTC'
p382
I577
sS'TAGTTA'
p383
I1071
sS'CAGACT'
p384
I315
sS'GCTAAG'
p385
I408
sS'TAGTTT'
p386
I263
sS'GCTAAC'
p387
I247
sS'GCTAAA'
p388
I273
sS'TGCATT'
p389
I410
sS'GCGAAA'
p390
I51
sS'AACCCT'
p391
I455
sS'AACCCC'
p392
I1087
sS'AACCCA'
p393
I1268
sS'TGCATA'
p394
I1367
sS'TGCATC'
p395
I729
sS'AGATTT'
p396
I64
sS'AGTTTG'
p397
I2558
sS'AACTGG'
p398
I2398
sS'AGTTTC'
p399
I1197
sS'AACTGC'
p400
I2565
sS'CCCAGA'
p401
I1531
sS'CCCAGC'
p402
I2549
sS'CCCAGG'
p403
I2817
sS'AACTGT'
p404
I1130
sS'AGTTTT'
p405
I347
sS'CTACAT'
p406
I26
sS'TCAGGA'
p407
I108
sS'CAATTT'
p408
I45
sS'CCCAGT'
p409
I672
sS'CGCATA'
p410
I236
sS'ATACTG'
p411
I258
sS'CGCATC'
p412
I175
sS'ATACTA'
p413
I154
sS'ATACTC'
p414
I77
sS'CGCATG'
p415
I574
sS'GCGCAA'
p416
I36
sS'GCGAAT'
p417
I13
sS'ATACTT'
p418
I26
sS'CTTTTC'
p419
I1748
sS'GCGCAC'
p420
I74
sS'GCTCCG'
p421
I232
sS'TATTGT'
p422
I809
sS'GCTCCC'
p423
I513
sS'GCTCCA'
p424
I393
sS'CCTACT'
p425
I177
sS'TGTACT'
p426
I310
sS'TTTAGT'
p427
I330
sS'TATTGG'
p428
I1274
sS'GCTCCT'
p429
I163
sS'AGGCCG'
p430
I368
sS'TATTGA'
p431
I1398
sS'TTTAGG'
p432
I789
sS'TGTACG'
p433
I136
sS'CCTACG'
p434
I105
sS'TGTACA'
p435
I752
sS'GCTGGG'
p436
I1141
sS'TGTACC'
p437
I473
sS'TTTAGA'
p438
I801
sS'TTCGCG'
p439
I194
sS'TTCGCA'
p440
I272
sS'TTCGCC'
p441
I415
sS'AGTATC'
p442
I239
sS'GACTAA'
p443
I2215
sS'AGTATA'
p444
I597
sS'TTTGGG'
p445
I644
sS'AGTATG'
p446
I728
sS'TTTGGA'
p447
I469
sS'GACTAG'
p448
I1658
sS'TTCGCT'
p449
I164
sS'CTTTTA'
p450
I3068
sS'GACTAT'
p451
I464
sS'AGTATT'
p452
I157
sS'TTACTC'
p453
I147
sS'TTACTA'
p454
I258
sS'TTACTG'
p455
I490
sS'ACCTTG'
p456
I3005
sS'ACCTTC'
p457
I1422
sS'ACCTTA'
p458
I1877
sS'GTAAAC'
p459
I316
sS'ACGCTT'
p460
I20
sS'ACCTTT'
p461
I425
sS'ACAGGG'
p462
I189
sS'CTGGGA'
p463
I730
sS'CTGGGC'
p464
I715
sS'ACAGGC'
p465
I133
sS'TTATAT'
p466
I91
sS'CTGGGG'
p467
I911
sS'AGGACG'
p468
I312
sS'GCAGCT'
p469
I99
sS'CAGGAA'
p470
I474
sS'TCGCTT'
p471
I29
sS'CAGGAG'
p472
I642
sS'AGGACA'
p473
I873
sS'GCGCAT'
p474
I12
sS'TTATAC'
p475
I137
sS'ACAGGT'
p476
I36
sS'CTGGGT'
p477
I187
sS'TTATAG'
p478
I137
sS'TCGCTG'
p479
I248
sS'GCAGCG'
p480
I87
sS'AGGACT'
p481
I343
sS'GCAGCA'
p482
I227
sS'GGAGGG'
p483
I370
sS'TCGCTA'
p484
I95
sS'CAGGAT'
p485
I65
sS'CCTCAG'
p486
I577
sS'CCTCAA'
p487
I312
sS'CCTCAC'
p488
I370
sS'TATGTT'
p489
I243
sS'ATGGGC'
p490
I206
sS'TCTTTG'
p491
I3131
sS'ATGGGA'
p492
I274
sS'TCTTTA'
p493
I2402
sS'ATGGGG'
p494
I327
sS'TCTTTC'
p495
I1522
sS'CCTCAT'
p496
I73
sS'TCTTTT'
p497
I457
sS'TATGTG'
p498
I1804
sS'TATGTA'
p499
I1561
sS'ATGGGT'
p500
I77
sS'TATGTC'
p501
I480
sS'GAAAGA'
p502
I1327
sS'ATCAAG'
p503
I783
sS'GAAAGC'
p504
I1031
sS'ATCAAC'
p505
I645
sS'GAAAGG'
p506
I1711
sS'ATCAAA'
p507
I830
sS'GGAACT'
p508
I106
sS'GTCAGG'
p509
I2590
sS'CATGAG'
p510
I711
sS'ATCAAT'
p511
I180
sS'TCAAAC'
p512
I134
sS'CATGAC'
p513
I596
sS'CATGAA'
p514
I532
sS'TGACCT'
p515
I42
sS'GTAGCG'
p516
I49
sS'CAAGTT'
p517
I34
sS'GCTTTG'
p518
I2797
sS'GTAGCC'
p519
I239
sS'GCTTTC'
p520
I1050
sS'AAAGTA'
p521
I428
sS'GCGGCG'
p522
I173
sS'CAAGTG'
p523
I409
sS'GTAGCT'
p524
I69
sS'GCGGCC'
p525
I368
sS'CAAGTC'
p526
I131
sS'GCGGCA'
p527
I183
sS'CAAGTA'
p528
I274
sS'AACGGT'
p529
I121
sS'CGTACG'
p530
I71
sS'TAATCG'
p531
I56
sS'ATGAAA'
p532
I365
sS'TAATCA'
p533
I386
sS'TAATCC'
p534
I391
sS'GGGTTT'
p535
I121
sS'CGGCCC'
p536
I480
sS'CGACTA'
p537
I26
sS'CGGCCA'
p538
I285
sS'CGCTAT'
p539
I69
sS'CGGCCG'
p540
I239
sS'CTTGTA'
p541
I757
sS'GGTCTG'
p542
I1126
sS'GAGTTC'
p543
I959
sS'AGTTTA'
p544
I2059
sS'TGCGAC'
p545
I196
sS'GGTCTC'
p546
I477
sS'GGTCTA'
p547
I450
sS'AAAATG'
p548
I726
sS'AAAATC'
p549
I172
sS'CGGCCT'
p550
I144
sS'TTCAGC'
p551
I2391
sS'TCGTCC'
p552
I179
sS'TTCAGG'
p553
I2703
sS'GAACAT'
p554
I22
sS'TCGTCG'
p555
I41
sS'TTTAGC'
p556
I598
sS'TGCCAA'
p557
I703
sS'GAACAA'
p558
I171
sS'AACGGC'
p559
I430
sS'GAACAC'
p560
I199
sS'ATCCCC'
p561
I629
sS'GAACAG'
p562
I224
sS'ATCCCA'
p563
I708
sS'GCACTT'
p564
I31
sS'AACGGA'
p565
I345
sS'CACCAC'
p566
I1185
sS'CACCAA'
p567
I816
sS'CACCAG'
p568
I1147
sS'CCACCG'
p569
I36
sS'TCCGTG'
p570
I792
sS'TCGTGC'
p571
I90
sS'AGGCGT'
p572
I108
sS'TCCGTC'
p573
I299
sS'TCCGTA'
p574
I348
sS'CGGCGT'
p575
I59
sS'ACGCGA'
p576
I48
sS'CACCAT'
p577
I244
sS'AACATG'
p578
I2430
sS'AACATA'
p579
I1940
sS'AACATC'
p580
I979
sS'GTCAGC'
p581
I2083
sS'GCACGG'
p582
I65
sS'GTCAGA'
p583
I1718
sS'GCACGA'
p584
I39
sS'CAGTCC'
p585
I1163
sS'GCACGC'
p586
I67
sS'CAGTCA'
p587
I1160
sS'GCAAGC'
p588
I192
sS'GCACGT'
p589
I10
sS'GCAAGA'
p590
I229
sS'GCAAGG'
p591
I389
sS'GTCAGT'
p592
I799
sS'GTATAC'
p593
I140
sS'TTCCGT'
p594
I227
sS'GTATAA'
p595
I167
sS'CAACGG'
p596
I61
sS'CCGGAA'
p597
I54
sS'CCGGAC'
p598
I44
sS'CCGGAG'
p599
I79
sS'CGTCTT'
p600
I89
sS'TGACGT'
p601
I16
sS'TTCCGG'
p602
I1217
sS'TTCCGA'
p603
I413
sS'TTCCGC'
p604
I987
sS'GTATAT'
p605
I84
sS'CGTCTC'
p606
I391
sS'CGTCTA'
p607
I301
sS'TATCAG'
p608
I770
sS'CCGGAT'
p609
I8
sS'CTCTTC'
p610
I4627
sS'TGTTAT'
p611
I249
sS'CTCTTA'
p612
I4541
sS'CTCTTG'
p613
I6225
sS'AGGGCT'
p614
I224
sS'TACGTA'
p615
I457
sS'TACGTC'
p616
I209
sS'TCTGGT'
p617
I106
sS'AACAAA'
p618
I3041
sS'CGCGAT'
p619
I34
sS'TACGTG'
p620
I793
sS'TGTTAG'
p621
I812
sS'GGTTTC'
p622
I930
sS'AAGCTT'
p623
I175
sS'CTCTTT'
p624
I1715
sS'TGTTAA'
p625
I1011
sS'TCTGGG'
p626
I781
sS'CGCGAC'
p627
I251
sS'GATATT'
p628
I190
sS'TCTGGC'
p629
I409
sS'TACGTT'
p630
I96
sS'TCTGGA'
p631
I368
sS'AGTCGT'
p632
I83
sS'TTACCT'
p633
I53
sS'CTCCAT'
p634
I292
sS'TTACCG'
p635
I30
sS'CTCCAC'
p636
I1333
sS'AGTCGG'
p637
I413
sS'TTACCC'
p638
I100
sS'CTCCAG'
p639
I1923
sS'TTACCA'
p640
I127
sS'AGTCGC'
p641
I412
sS'GTACCG'
p642
I27
sS'CCGACT'
p643
I44
sS'GCCTAC'
p644
I925
sS'GCCTAA'
p645
I893
sS'GCCTAG'
p646
I1151
sS'CCGACA'
p647
I58
sS'CCCTGT'
p648
I728
sS'CCGACC'
p649
I145
sS'CCGACG'
p650
I49
sS'AAGCTC'
p651
I696
sS'CGTCGT'
p652
I54
sS'TGACGG'
p653
I39
sS'AGGGCG'
p654
I292
sS'TGACGA'
p655
I20
sS'CTAAGT'
p656
I162
sS'GGTTTT'
p657
I233
sS'CGGTTT'
p658
I47
sS'CGCACA'
p659
I643
sS'ATACAC'
p660
I75
sS'CGCACC'
p661
I699
sS'GGGTCG'
p662
I150
sS'ACTGCT'
p663
I122
sS'GGGTCA'
p664
I474
sS'CGCACG'
p665
I378
sS'GGGTCC'
p666
I520
sS'CTCACT'
p667
I1201
sS'TTTGTA'
p668
I1110
sS'ACTGCA'
p669
I460
sS'TTTGTC'
p670
I436
sS'ACTGCC'
p671
I322
sS'CGCACT'
p672
I271
sS'TTTGTG'
p673
I1463
sS'ACTGCG'
p674
I161
sS'CTCACC'
p675
I2448
sS'CTCACA'
p676
I2337
sS'CTCACG'
p677
I662
sS'TAGTGG'
p678
I818
sS'GTGAGG'
p679
I1192
sS'GATTTT'
p680
I567
sS'TAGTGC'
p681
I615
sS'GTGAGC'
p682
I766
sS'TAGTGA'
p683
I727
sS'GTGAGA'
p684
I765
sS'TCGACG'
p685
I19
sS'TCGACA'
p686
I29
sS'TCGACC'
p687
I65
sS'GATTTG'
p688
I3624
sS'GTGAGT'
p689
I350
sS'GTGGGG'
p690
I917
sS'GATTTC'
p691
I1832
sS'GTGGGC'
p692
I456
sS'TCGACT'
p693
I13
sS'ACGTAA'
p694
I39
sS'CTGGTT'
p695
I105
sS'TTGAGT'
p696
I238
sS'TCAAAA'
p697
I132
sS'CGAACG'
p698
I26
sS'CGAACC'
p699
I88
sS'CGAACA'
p700
I57
sS'CTGGTG'
p701
I943
sS'CTGGTA'
p702
I473
sS'CTGGTC'
p703
I303
sS'CTGCAA'
p704
I459
sS'CGAACT'
p705
I36
sS'TTGCAT'
p706
I134
sS'GACGAG'
p707
I652
sS'CATCGA'
p708
I191
sS'TTGCAG'
p709
I526
sS'GAGGGA'
p710
I1839
sS'CTTGAT'
p711
I68
sS'TTGCAC'
p712
I406
sS'TTGCAA'
p713
I352
sS'AAGATC'
p714
I290
sS'ACGTAC'
p715
I32
sS'GAGGGC'
p716
I1582
sS'ATTGCG'
p717
I51
sS'TCGCAT'
p718
I7
sS'GAGCGG'
p719
I1202
sS'GTCGTG'
p720
I528
sS'GTCGTA'
p721
I244
sS'GTCGTC'
p722
I188
sS'CCGTTT'
p723
I41
sS'ACTGAT'
p724
I37
sS'ATATCG'
p725
I39
sS'GTCGTT'
p726
I64
sS'TCAGAT'
p727
I28
sS'TCGCAG'
p728
I43
sS'TCCATG'
p729
I1923
sS'CCAAGC'
p730
I185
sS'TCGCAC'
p731
I29
sS'CAGCTA'
p732
I899
sS'CCGTTG'
p733
I181
sS'CCGTTA'
p734
I161
sS'CCGTTC'
p735
I82
sS'AATGCT'
p736
I351
sS'GGTACG'
p737
I66
sS'GGTACA'
p738
I319
sS'GGTACC'
p739
I281
sS'TATTTG'
p740
I4805
sS'CAGGGA'
p741
I744
sS'TATTTC'
p742
I2053
sS'TATTTA'
p743
I5560
sS'CCCCCT'
p744
I222
sS'GGTACT'
p745
I144
sS'AATGCG'
p746
I255
sS'AATCTT'
p747
I226
sS'AATGCC'
p748
I800
sS'AATGCA'
p749
I1091
sS'CCCCCC'
p750
I318
sS'CCCCCA'
p751
I626
sS'TATTTT'
p752
I936
sS'CCCCCG'
p753
I295
sS'CTTGAG'
p754
I556
sS'ATGATG'
p755
I684
sS'CTTGAC'
p756
I318
sS'CTTGAA'
p757
I366
sS'CGGACT'
p758
I84
sS'TGCAAC'
p759
I979
sS'TGCAAA'
p760
I1365
sS'TGCAAG'
p761
I1202
sS'GCCGTC'
p762
I250
sS'ATGATT'
p763
I90
sS'TATCAC'
p764
I645
sS'CGAATC'
p765
I22
sS'TTGAGG'
p766
I748
sS'AATCTC'
p767
I845
sS'CAATGT'
p768
I120
sS'TTGAGC'
p769
I504
sS'TGCAAT'
p770
I289
sS'GAGAAT'
p771
I273
sS'TGTCTT'
p772
I266
sS'CGAATA'
p773
I55
sS'ACTGAG'
p774
I385
sS'AAGGCC'
p775
I1323
sS'ATAACC'
p776
I209
sS'AAGGCA'
p777
I1319
sS'ATAACA'
p778
I319
sS'AAGGCG'
p779
I407
sS'ATAACG'
p780
I59
sS'TGTGGT'
p781
I227
sS'TGTCTG'
p782
I2511
sS'GAGAAG'
p783
I1994
sS'GAGAAA'
p784
I1455
sS'TGTCTC'
p785
I1207
sS'GAGAAC'
p786
I1034
sS'TGTCTA'
p787
I1092
sS'TGTGGC'
p788
I722
sS'TGTGGA'
p789
I549
sS'TGTGGG'
p790
I915
sS'ATAACT'
p791
I141
sS'ACTGAC'
p792
I250
sS'TAGGCT'
p793
I211
sS'GCCCCG'
p794
I704
sS'ACCAAG'
p795
I709
sS'GGTCAG'
p796
I549
sS'GCCCCC'
p797
I826
sS'GGTCAA'
p798
I278
sS'CGTGCT'
p799
I61
sS'GGTCAC'
p800
I432
sS'GGTCAT'
p801
I62
sS'ACCAAT'
p802
I217
sS'GCCCCT'
p803
I350
sS'AGGTAA'
p804
I207
sS'AGGTAC'
p805
I184
sS'TTTTGC'
p806
I1171
sS'TCTTAC'
p807
I396
sS'AATTGG'
p808
I970
sS'TCTTAA'
p809
I530
sS'TTTTGG'
p810
I1086
sS'TCTTAG'
p811
I500
sS'AATTGC'
p812
I1088
sS'ATGCCA'
p813
I583
sS'TGGGGT'
p814
I100
sS'CGCTCG'
p815
I744
sS'GATAAT'
p816
I285
sS'CGCTCA'
p817
I1024
sS'CGCTCC'
p818
I2071
sS'AATTGT'
p819
I494
sS'CGATCC'
p820
I57
sS'GCCATC'
p821
I635
sS'TCTTAT'
p822
I122
sS'CATTTC'
p823
I2316
sS'CGCTCT'
p824
I593
sS'TGGGGG'
p825
I429
sS'GATAAC'
p826
I720
sS'TAGCCT'
p827
I236
sS'TGGGGC'
p828
I421
sS'TGGGGA'
p829
I408
sS'GATCCT'
p830
I331
sS'AAGAAT'
p831
I254
sS'CGAAGT'
p832
I38
sS'CATTTG'
p833
I4177
sS'AAGAAC'
p834
I683
sS'GATCCA'
p835
I745
sS'AAGAAA'
p836
I1265
sS'GATCCC'
p837
I842
sS'AAGAAG'
p838
I1037
sS'GATCCG'
p839
I321
sS'ATGCCG'
p840
I161
sS'GCAACG'
p841
I53
sS'AAGCAT'
p842
I145
sS'CAAGGG'
p843
I267
sS'ATCGAG'
p844
I102
sS'CAAGGC'
p845
I266
sS'GGTTCT'
p846
I315
sS'CAAGGA'
p847
I236
sS'GGTTCA'
p848
I691
sS'GGTTCC'
p849
I882
sS'CAAGGT'
p850
I59
sS'GGTTCG'
p851
I260
sS'CTGTAT'
p852
I179
sS'ATTATA'
p853
I510
sS'ATTATC'
p854
I219
sS'TAGAAT'
p855
I174
sS'GATAGT'
p856
I338
sS'ATTATG'
p857
I532
sS'AGTCTT'
p858
I187
sS'TAGAAA'
p859
I611
sS'TAGAAC'
p860
I452
sS'ATTATT'
p861
I124
sS'TAGAAG'
p862
I690
sS'AGTCTA'
p863
I849
sS'AGTCTC'
p864
I860
sS'AGTCTG'
p865
I1759
sS'TAACTC'
p866
I150
sS'CGAGTC'
p867
I26
sS'TAACTA'
p868
I285
sS'TAACTG'
p869
I427
sS'ATCTAT'
p870
I218
sS'ACGCGT'
p871
I15
sS'AGGTAT'
p872
I72
sS'TAACTT'
p873
I57
sS'ATCTAG'
p874
I729
sS'ATCTAC'
p875
I678
sS'ATCTAA'
p876
I1009
sS'CCATGT'
p877
I133
sS'ACCAAA'
p878
I639
sS'TGGAGG'
p879
I1146
sS'TGGAGA'
p880
I778
sS'TGGAGC'
p881
I666
sS'CCATGC'
p882
I162
sS'CCATGA'
p883
I151
sS'GCCCCA'
p884
I1072
sS'TGGAGT'
p885
I315
sS'ATTACG'
p886
I64
sS'TCAGTA'
p887
I204
sS'TCAGTC'
p888
I108
sS'CTCTCT'
p889
I2261
sS'GGGGAT'
p890
I33
sS'TCAGTG'
p891
I354
sS'CGATAT'
p892
I2
sS'AGCGTT'
p893
I90
sS'GGGGAA'
p894
I196
sS'GGGGAC'
p895
I207
sS'CTCTCC'
p896
I5462
sS'TCAGTT'
p897
I44
sS'GGGGAG'
p898
I372
sS'CGATAG'
p899
I12
sS'CGATAA'
p900
I5
sS'CGATAC'
p901
I15
sS'CTAAGG'
p902
I454
sS'GTGTTT'
p903
I406
sS'GCTACT'
p904
I157
sS'GTGGTT'
p905
I130
sS'GTGTTC'
p906
I784
sS'GTGTTA'
p907
I1291
sS'GTGTTG'
p908
I1829
sS'CGTGCC'
p909
I252
sS'GTGGTA'
p910
I497
sS'GCTACA'
p911
I316
sS'GTGGTC'
p912
I238
sS'CTAAGC'
p913
I320
sS'GTGGTG'
p914
I1094
sS'GCTACG'
p915
I127
sS'AGGTAG'
p916
I252
sS'TTTCGT'
p917
I70
sS'TGCCCT'
p918
I546
sS'TCAGCC'
p919
I225
sS'CAAACT'
p920
I188
sS'CGTGCG'
p921
I173
sS'TGCCCC'
p922
I1181
sS'TGCCCA'
p923
I1268
sS'TGCCCG'
p924
I469
sS'TTTCGG'
p925
I253
sS'AGCGTA'
p926
I301
sS'AGCGTC'
p927
I326
sS'AGCGTG'
p928
I1009
sS'GGCCCC'
p929
I1123
sS'GGCCCA'
p930
I819
sS'CACGTG'
p931
I1401
sS'GGCCCG'
p932
I512
sS'CACGTA'
p933
I613
sS'CACGTC'
p934
I386
sS'ACGTGC'
p935
I139
sS'CTACGT'
p936
I24
sS'CTACGA'
p937
I46
sS'ACGTGG'
p938
I226
sS'ACAGTC'
p939
I63
sS'CACGTT'
p940
I109
sS'GTCTCC'
p941
I3564
sS'GGCCCT'
p942
I356
sS'GGGACA'
p943
I564
sS'AATTGA'
p944
I968
sS'GGGACC'
p945
I585
sS'AGGGAC'
p946
I301
sS'GTCTCA'
p947
I3133
sS'GGGACG'
p948
I223
sS'AGAGAG'
p949
I240
sS'AGAGAA'
p950
I181
sS'AGAGAC'
p951
I140
sS'TCGTGA'
p952
I78
sS'GTCTTT'
p953
I1168
sS'TCTATC'
p954
I189
sS'CCACCA'
p955
I89
sS'TCTATG'
p956
I579
sS'AGAGAT'
p957
I30
sS'ATGTGC'
p958
I545
sS'TAGCCA'
p959
I562
sS'GTCTTG'
p960
I4713
sS'TCTATT'
p961
I100
sS'GTCTTC'
p962
I3052
sS'GTCTTA'
p963
I3104
sS'GCAGAG'
p964
I144
sS'GCTCAA'
p965
I303
sS'TAGCCC'
p966
I504
sS'GCAGAC'
p967
I72
sS'GCAGAA'
p968
I82
sS'GCTCAG'
p969
I651
sS'AGACGT'
p970
I19
sS'ATGCGT'
p971
I27
sS'TTGCTG'
p972
I2404
sS'TTGCTA'
p973
I1171
sS'TTGCTC'
p974
I1102
sS'GCAGAT'
p975
I20
sS'GCTCAT'
p976
I70
sS'CGAATT'
p977
I7
sS'GTACGG'
p978
I51
sS'TTGCTT'
p979
I476
sS'GAAGGG'
p980
I918
sS'GAGAGG'
p981
I3787
sS'TAGCCG'
p982
I155
sS'ATGCGC'
p983
I111
sS'ATGCGA'
p984
I77
sS'TGTAAG'
p985
I732
sS'GGCTAG'
p986
I879
sS'TGTAAC'
p987
I669
sS'GGCTAC'
p988
I830
sS'GACTGT'
p989
I1650
sS'GGCTAA'
p990
I970
sS'TTCGAG'
p991
I225
sS'TTGGTA'
p992
I380
sS'ACTGTC'
p993
I235
sS'TTGGTC'
p994
I211
sS'TTCGAC'
p995
I110
sS'ACTGTG'
p996
I1049
sS'TTGGTG'
p997
I717
sS'GACTGC'
p998
I3884
sS'GGCTAT'
p999
I190
sS'GACTGA'
p1000
I3639
sS'GACTGG'
p1001
I4394
sS'GTACGA'
p1002
I27
sS'TTGGTT'
p1003
I78
sS'ACTGTT'
p1004
I73
sS'GTTTCT'
p1005
I516
sS'ATAATT'
p1006
I84
sS'CCTTTT'
p1007
I321
sS'GTTTCG'
p1008
I267
sS'GTTTCC'
p1009
I1446
sS'GTTTCA'
p1010
I1193
sS'ATAATG'
p1011
I379
sS'CCTTTA'
p1012
I1979
sS'CCTTTC'
p1013
I1242
sS'ATAATC'
p1014
I105
sS'NNNNGA'
p1015
I3
sS'ATAATA'
p1016
I411
sS'CCTTTG'
p1017
I2898
sS'CTCGAG'
p1018
I321
sS'CTCTCG'
p1019
I1171
sS'ACAGAC'
p1020
I82
sS'ACAGAG'
p1021
I115
sS'TTATCT'
p1022
I236
sS'CTGGAC'
p1023
I274
sS'CTGGAA'
p1024
I271
sS'CTGGAG'
p1025
I427
sS'ATATAA'
p1026
I141
sS'ACAGAT'
p1027
I33
sS'GATAAG'
p1028
I939
sS'TTATCA'
p1029
I382
sS'CTGGAT'
p1030
I39
sS'TTATCC'
p1031
I362
sS'CCAATG'
p1032
I331
sS'AAACCG'
p1033
I51
sS'ATTTGT'
p1034
I565
sS'CCAATC'
p1035
I121
sS'AAACCC'
p1036
I193
sS'CCAATA'
p1037
I197
sS'TGTCGG'
p1038
I337
sS'GAGATC'
p1039
I435
sS'CCCTAT'
p1040
I158
sS'GAGATA'
p1041
I904
sS'AACGAA'
p1042
I307
sS'GAGATG'
p1043
I2003
sS'AACGAC'
p1044
I265
sS'ATTTGA'
p1045
I887
sS'CCAATT'
p1046
I42
sS'ATTTGC'
p1047
I977
sS'GGGTAT'
p1048
I36
sS'ATTTGG'
p1049
I684
sS'CCCTAG'
p1050
I784
sS'TGTCGT'
p1051
I88
sS'CCCTAC'
p1052
I719
sS'GAGATT'
p1053
I166
sS'CCCTAA'
p1054
I722
sS'CATTAT'
p1055
I312
sS'ACTTCA'
p1056
I743
sS'ATCACA'
p1057
I1164
sS'ATCACC'
p1058
I928
sS'CATGCT'
p1059
I285
sS'TGACAC'
p1060
I64
sS'ATCACG'
p1061
I300
sS'TGGATA'
p1062
I432
sS'AGGAAC'
p1063
I481
sS'CATTAG'
p1064
I973
sS'CATTAA'
p1065
I1121
sS'TGGATG'
p1066
I705
sS'CATGCA'
p1067
I851
sS'TGACAT'
p1068
I16
sS'CATGCC'
p1069
I783
sS'ATCACT'
p1070
I551
sS'AATTAG'
p1071
I811
sS'GTAGAA'
p1072
I92
sS'GTAGAC'
p1073
I75
sS'CCGCTT'
p1074
I35
sS'GTAGAG'
p1075
I115
sS'ACAACA'
p1076
I268
sS'ACAACC'
p1077
I149
sS'GATTGC'
p1078
I1343
sS'GATTGA'
p1079
I1327
sS'TAAATT'
p1080
I118
sS'AGTCCC'
p1081
I704
sS'GTAGAT'
p1082
I26
sS'TGCTAC'
p1083
I1123
sS'GGGTAC'
p1084
I117
sS'TGATGC'
p1085
I162
sS'GATCAA'
p1086
I657
sS'ACAACT'
p1087
I90
sS'GCGCGT'
p1088
I31
sS'CTAGTT'
p1089
I46
sS'TAATAG'
p1090
I152
sS'GTCCGG'
p1091
I819
sS'TAATAC'
p1092
I162
sS'GTCCGA'
p1093
I358
sS'TAATAA'
p1094
I268
sS'GTCCGC'
p1095
I853
sS'TGCCAT'
p1096
I190
sS'TCAACA'
p1097
I280
sS'ACTCTT'
p1098
I97
sS'GTCCGT'
p1099
I173
sS'TAATAT'
p1100
I67
sS'ATTCGC'
p1101
I112
sS'TTCTCC'
p1102
I4505
sS'ATTCGA'
p1103
I100
sS'TTCTCA'
p1104
I3876
sS'ATTCGG'
p1105
I140
sS'TTCTCG'
p1106
I893
sS'TCGTAC'
p1107
I21
sS'TACCTT'
p1108
I415
sS'TCGTAA'
p1109
I24
sS'TCGTAG'
p1110
I31
sS'TCGTCA'
p1111
I98
sS'GAACCT'
p1112
I78
sS'ATCCAA'
p1113
I473
sS'ATCCAC'
p1114
I452
sS'TGAACC'
p1115
I262
sS'TTCTCT'
p1116
I2274
sS'ATCCAG'
p1117
I633
sS'GAACCC'
p1118
I236
sS'TACCTG'
p1119
I2005
sS'TACCTA'
p1120
I1491
sS'TACCTC'
p1121
I1145
sS'TCGTAT'
p1122
I12
sS'ACCATC'
p1123
I412
sS'ACCATA'
p1124
I733
sS'ACCATG'
p1125
I1283
sS'ATGTTG'
p1126
I1125
sS'GCGGAC'
p1127
I59
sS'AGCTCT'
p1128
I1342
sS'TGTCCT'
p1129
I236
sS'AGTGGT'
p1130
I137
sS'ATGAGC'
p1131
I390
sS'ATGTTT'
p1132
I255
sS'ACCATT'
p1133
I157
sS'AGTGGA'
p1134
I520
sS'AGTGGC'
p1135
I613
sS'AGCTCC'
p1136
I3470
sS'AGCTCA'
p1137
I3066
sS'CAGTAA'
p1138
I452
sS'CAGTAC'
p1139
I313
sS'CAGTAG'
p1140
I356
sS'AACGTT'
p1141
I126
sS'TTAATA'
p1142
I577
sS'CAGTAT'
p1143
I135
sS'ATTAGT'
p1144
I134
sS'AAAGTC'
p1145
I220
sS'AAAGTG'
p1146
I611
sS'GATCTA'
p1147
I1093
sS'GATCTC'
p1148
I1028
sS'ATTGAC'
p1149
I175
sS'GATCTG'
p1150
I2463
sS'TCCCTT'
p1151
I434
sS'CCGGCC'
p1152
I331
sS'GTTCCG'
p1153
I144
sS'CCGGCG'
p1154
I99
sS'ACTCTC'
p1155
I357
sS'GTTCCC'
p1156
I458
sS'TCCCTC'
p1157
I1630
sS'GAGCTT'
p1158
I303
sS'TCCCTA'
p1159
I1493
sS'TTAATG'
p1160
I566
sS'TCCCTG'
p1161
I3520
sS'GATCTT'
p1162
I291
sS'ATAGAA'
p1163
I66
sS'AAGTGA'
p1164
I1189
sS'AAGTGC'
p1165
I883
sS'TGTTCT'
p1166
I649
sS'AAGTGG'
p1167
I1175
sS'TGATTG'
p1168
I371
sS'TGCGCA'
p1169
I400
sS'TGATTC'
p1170
I185
sS'TGATTA'
p1171
I299
sS'TGTTCA'
p1172
I1457
sS'CACAAG'
p1173
I1444
sS'TGTTCC'
p1174
I1353
sS'AAGTGT'
p1175
I425
sS'CACAAC'
p1176
I1175
sS'TGTTCG'
p1177
I266
sS'TCTGAA'
p1178
I304
sS'TCTGAC'
p1179
I330
sS'GAAGTC'
p1180
I263
sS'TCTGAG'
p1181
I485
sS'CGCGCC'
p1182
I982
sS'CGCGCA'
p1183
I461
sS'GGTAAA'
p1184
I453
sS'CGCGCG'
p1185
I511
sS'CTCCCT'
p1186
I1065
sS'AGCGGG'
p1187
I927
sS'AGCGGA'
p1188
I439
sS'ACCTCT'
p1189
I545
sS'AGATGA'
p1190
I250
sS'GAAATA'
p1191
I759
sS'CGCGCT'
p1192
I255
sS'ACCTCC'
p1193
I1728
sS'CTCCCG'
p1194
I1087
sS'ACCTCG'
p1195
I437
sS'CTCCCC'
p1196
I2605
sS'GCCTCT'
p1197
I1159
sS'TAAGCC'
p1198
I329
sS'CGGGAG'
p1199
I189
sS'CCCATG'
p1200
I1318
sS'CGGGAA'
p1201
I83
sS'CCCATA'
p1202
I811
sS'TAGCTG'
p1203
I1383
sS'CCCATC'
p1204
I650
sS'CCGAGA'
p1205
I123
sS'CCTGCT'
p1206
I196
sS'CCGAAT'
p1207
I10
sS'CCCATT'
p1208
I264
sS'CGGGAT'
p1209
I15
sS'GCCTCG'
p1210
I1175
sS'GCCTCA'
p1211
I2328
sS'TAAGCT'
p1212
I80
sS'GCCTCC'
p1213
I4073
sS'CCGAAC'
p1214
I40
sS'CCTGCG'
p1215
I259
sS'CCGAAA'
p1216
I41
sS'CCGAAG'
p1217
I65
sS'CCTGCC'
p1218
I831
sS'CCTGCA'
p1219
I546
sS'GTACTG'
p1220
I323
sS'CCATTC'
p1221
I209
sS'TATAAG'
p1222
I708
sS'TATAAA'
p1223
I1206
sS'TATAAC'
p1224
I556
sS'TAACGA'
p1225
I50
sS'TATAAT'
p1226
I320
sS'CCATTT'
p1227
I75
sS'TCTACA'
p1228
I397
sS'TCTACC'
p1229
I395
sS'TCTACG'
p1230
I88
sS'ACTTTC'
p1231
I684
sS'CGCAAC'
p1232
I284
sS'ACTCCA'
p1233
I285
sS'CGCAAA'
p1234
I257
sS'ATACCG'
p1235
I10
sS'CGCAAG'
p1236
I392
sS'ATACCA'
p1237
I102
sS'ATACCC'
p1238
I53
sS'TCTACT'
p1239
I168
sS'ATACCT'
p1240
I37
sS'CGCAAT'
p1241
I58
sS'TAGTAA'
p1242
I433
sS'TGGGTG'
p1243
I728
sS'TAGTAC'
p1244
I284
sS'CTCAAG'
p1245
I1545
sS'CTCAAA'
p1246
I1571
sS'TAGTAG'
p1247
I314
sS'CTCAAC'
p1248
I1110
sS'GTGTGC'
p1249
I1161
sS'GTGTGA'
p1250
I1099
sS'GTGTGG'
p1251
I1645
sS'CTCAAT'
p1252
I323
sS'TAGTAT'
p1253
I117
sS'GTGTGT'
p1254
I1034
sS'ATCTTT'
p1255
I683
sS'GTTGGG'
p1256
I565
sS'GTTGGA'
p1257
I345
sS'GTTGGC'
p1258
I358
sS'CCTTGG'
p1259
I1134
sS'CCTTGA'
p1260
I748
sS'GCGTAT'
p1261
I11
sS'CCTTGC'
p1262
I938
sS'GACCTA'
p1263
I1735
sS'GTTGGT'
p1264
I104
sS'ATCTTG'
p1265
I3508
sS'ATCTTA'
p1266
I2627
sS'ATCTTC'
p1267
I1883
sS'CCTTGT'
p1268
I346
sS'AGGATA'
p1269
I557
sS'AAACTA'
p1270
I321
sS'AGGATG'
p1271
I1104
sS'GACATG'
p1272
I2457
sS'GACATC'
p1273
I1091
sS'GACATA'
p1274
I1608
sS'TCGGCG'
p1275
I53
sS'GAATAT'
p1276
I60
sS'GGTGCA'
p1277
I358
sS'TCGGCC'
p1278
I170
sS'CATAGC'
p1279
I720
sS'TTGCGA'
p1280
I93
sS'GACATT'
p1281
I530
sS'TTGCGG'
p1282
I187
sS'GAATAG'
p1283
I175
sS'TCGGCT'
p1284
I36
sS'ATCAGC'
p1285
I1269
sS'GAATAC'
p1286
I180
sS'GAATAA'
p1287
I227
sS'ACTTTT'
p1288
I183
sS'ATACAA'
p1289
I58
sS'GGACGA'
p1290
I24
sS'TGAGGT'
p1291
I69
sS'TTTCTA'
p1292
I1475
sS'ACGTCG'
p1293
I43
sS'TTATAA'
p1294
I187
sS'GAAATG'
p1295
I1153
sS'AATGAT'
p1296
I180
sS'TTTCTC'
p1297
I1058
sS'GAAATC'
p1298
I231
sS'GAAATT'
p1299
I85
sS'AATGAA'
p1300
I1135
sS'ATGTCC'
p1301
I597
sS'AATGAC'
p1302
I830
sS'AATGAG'
p1303
I1121
sS'CTTGGA'
p1304
I473
sS'CTTGGC'
p1305
I534
sS'GTCCTT'
p1306
I492
sS'CTTGGG'
p1307
I767
sS'ATACAG'
p1308
I83
sS'AGCCCT'
p1309
I626
sS'GCGTAA'
p1310
I35
sS'TTGAAT'
p1311
I111
sS'GTCCTA'
p1312
I1457
sS'GTCCTC'
p1313
I1587
sS'TGCACG'
p1314
I453
sS'TGCACA'
p1315
I1675
sS'GTCCTG'
p1316
I3664
sS'TGCACC'
p1317
I1240
sS'TTGAAA'
p1318
I375
sS'AGCCCG'
p1319
I725
sS'AGCCCA'
p1320
I1546
sS'AGCCCC'
p1321
I1583
sS'TTAACT'
p1322
I204
sS'ATAAAT'
p1323
I127
sS'TGGTCG'
p1324
I121
sS'TGGTCA'
p1325
I565
sS'TGGTCC'
p1326
I549
sS'ACGATT'
p1327
I19
sS'GAGACT'
p1328
I709
sS'ACGGGG'
p1329
I123
sS'TGGTCT'
p1330
I286
sS'ATAAAG'
p1331
I272
sS'ATAAAA'
p1332
I277
sS'ATGGTG'
p1333
I518
sS'ATAAAC'
p1334
I232
sS'GAGACG'
p1335
I663
sS'ACGGGA'
p1336
I84
sS'GAGACC'
p1337
I1452
sS'ACGATC'
p1338
I15
sS'GAGACA'
p1339
I1713
sS'ACGATA'
p1340
I50
sS'GGTTAC'
p1341
I406
sS'ATGTGT'
p1342
I384
sS'GGTTAA'
p1343
I507
sS'ACCACT'
p1344
I388
sS'GGTTAG'
p1345
I455
sS'CTTCCT'
p1346
I383
sS'TCCATT'
p1347
I369
sS'CGTGAA'
p1348
I135
sS'CTCAGT'
p1349
I1132
sS'TCCGCT'
p1350
I215
sS'CTTCCA'
p1351
I689
sS'CTTCCC'
p1352
I1093
sS'ATGTGA'
p1353
I632
sS'CGTATG'
p1354
I188
sS'ACCACA'
p1355
I1310
sS'GGTTAT'
p1356
I111
sS'TCCGCC'
p1357
I1127
sS'TCCGCA'
p1358
I409
sS'TCCGCG'
p1359
I358
sS'CGTACA'
p1360
I156
sS'AACGTC'
p1361
I301
sS'AACGTA'
p1362
I488
sS'AACGTG'
p1363
I993
sS'CGTGAC'
p1364
I229
sS'AGTGTG'
p1365
I1528
sS'TCTTCG'
p1366
I296
sS'AGTGTA'
p1367
I739
sS'TCTTCA'
p1368
I1127
sS'AGTGTC'
p1369
I349
sS'TCTTCC'
p1370
I1488
sS'TAAGTG'
p1371
I610
sS'TAAGTC'
p1372
I161
sS'TAAGTA'
p1373
I442
sS'GCTCGC'
p1374
I358
sS'TCTTCT'
p1375
I503
sS'AGTGTT'
p1376
I137
sS'TTGGCA'
p1377
I539
sS'AAAGGT'
p1378
I96
sS'TTGGCC'
p1379
I679
sS'GAGTAG'
p1380
I708
sS'TTAACG'
p1381
I81
sS'TTGGCG'
p1382
I138
sS'GACTTC'
p1383
I3822
sS'TCGAGT'
p1384
I30
sS'GACTTA'
p1385
I3605
sS'GACTTG'
p1386
I5626
sS'ACGTAG'
p1387
I39
sS'AAAGGG'
p1388
I567
sS'AAAGGA'
p1389
I518
sS'TTGGCT'
p1390
I210
sS'AAAGGC'
p1391
I427
sS'AGTAAG'
p1392
I712
sS'GTATGG'
p1393
I300
sS'GTCGAT'
p1394
I20
sS'GACTTT'
p1395
I1293
sS'TTCTTT'
p1396
I2291
sS'CAAGAA'
p1397
I124
sS'GACGTT'
p1398
I173
sS'CAAGAC'
p1399
I145
sS'CAAGAG'
p1400
I181
sS'TTCTTG'
p1401
I6693
sS'TTCTTC'
p1402
I4862
sS'TTCTTA'
p1403
I5750
sS'CAAGAT'
p1404
I31
sS'CTGTGG'
p1405
I1743
sS'TACGGG'
p1406
I346
sS'TACGGA'
p1407
I224
sS'TACGGC'
p1408
I303
sS'CTAACA'
p1409
I402
sS'CCAACT'
p1410
I92
sS'TAGAGT'
p1411
I315
sS'TACGGT'
p1412
I76
sS'GAGTAT'
p1413
I151
sS'CCCGAG'
p1414
I357
sS'AGGGCA'
p1415
I796
sS'AGGGCC'
p1416
I840
sS'TCGAGA'
p1417
I70
sS'TAGAGC'
p1418
I749
sS'TAGAGA'
p1419
I1022
sS'TAGAGG'
p1420
I1127
sS'CCGTGT'
p1421
I56
sS'GTGCTG'
p1422
I3479
sS'GTGCTA'
p1423
I1134
sS'ATCTGT'
p1424
I760
sS'GTGCTC'
p1425
I1157
sS'GTGCGG'
p1426
I413
sS'ATCTGA'
p1427
I1639
sS'GTGCTT'
p1428
I480
sS'ATCTGC'
p1429
I1745
sS'TCGAGG'
p1430
I121
sS'CGAATG'
p1431
I94
sS'ATCTGG'
p1432
I1708
sS'ATCATA'
p1433
I1094
sS'GATAGC'
p1434
I696
sS'ATCATC'
p1435
I639
sS'GATAGA'
p1436
I919
sS'AAGCAA'
p1437
I719
sS'GATAGG'
p1438
I977
sS'ATCATG'
p1439
I1481
sS'TTTACC'
p1440
I587
sS'GTTATG'
p1441
I657
sS'CTAGGT'
p1442
I64
sS'CATTTA'
p1443
I3988
sS'ACGCAT'
p1444
I7
sS'TGTAGC'
p1445
I645
sS'GTTATA'
p1446
I474
sS'CAAACA'
p1447
I1124
sS'TTTCAG'
p1448
I787
sS'CAAACC'
p1449
I420
sS'GTGGCC'
p1450
I1111
sS'ATCATT'
p1451
I254
sS'CAAACG'
p1452
I114
sS'ACGCAG'
p1453
I47
sS'CTAGGG'
p1454
I221
sS'GTTATT'
p1455
I149
sS'CTAGGC'
p1456
I178
sS'CATTTT'
p1457
I627
sS'CTAGGA'
p1458
I196
sS'AAGTTT'
p1459
I208
sS'TACAGT'
p1460
I1175
sS'CTCGAA'
p1461
I149
sS'CTCGGC'
p1462
I890
sS'CTAAGA'
p1463
I353
sS'GGGGCT'
p1464
I131
sS'TACAGG'
p1465
I3033
sS'AAGTTG'
p1466
I1333
sS'AAGTTA'
p1467
I1259
sS'TACAGC'
p1468
I2073
sS'AAGTTC'
p1469
I614
sS'TACAGA'
p1470
I2390
sS'GGGGCC'
p1471
I609
sS'GTATGA'
p1472
I311
sS'GGGGCA'
p1473
I403
sS'GGGGCG'
p1474
I282
sS'CCATGG'
p1475
I245
sS'TATATC'
p1476
I349
sS'TATATA'
p1477
I1641
sS'TATATG'
p1478
I1213
sS'AGTTCT'
p1479
I519
sS'GCCCAG'
p1480
I1322
sS'GGTCCA'
p1481
I249
sS'GCCCAT'
p1482
I107
sS'TATATT'
p1483
I294
sS'TGATGG'
p1484
I226
sS'CTCGGT'
p1485
I114
sS'ATGAGT'
p1486
I205
sS'GCCCAC'
p1487
I691
sS'TGATGA'
p1488
I176
sS'TGTTTA'
p1489
I4031
sS'CACATC'
p1490
I1052
sS'TGTTTC'
p1491
I1772
sS'CACATA'
p1492
I1955
sS'TTAATT'
p1493
I111
sS'CACATG'
p1494
I2560
sS'TGTTTG'
p1495
I4828
sS'ATGAGA'
p1496
I488
sS'TGATGT'
p1497
I133
sS'GCCTAT'
p1498
I210
sS'ATGAGG'
p1499
I676
sS'TTTCAC'
p1500
I552
sS'ACTCTG'
p1501
I1187
sS'TGCCAG'
p1502
I1193
sS'ACTCTA'
p1503
I529
sS'TGTTTT'
p1504
I658
sS'CACATT'
p1505
I471
sS'TGCCAC'
p1506
I981
sS'AAATTC'
p1507
I198
sS'AAATTA'
p1508
I553
sS'AAATTG'
p1509
I478
sS'TCCACT'
p1510
I621
sS'TTCAAT'
p1511
I417
sS'GTATTT'
p1512
I176
sS'TTAATC'
p1513
I150
sS'AAATTT'
p1514
I52
sS'GGGAAC'
p1515
I321
sS'GGTGCG'
p1516
I180
sS'GGGAAA'
p1517
I430
sS'GGGAAG'
p1518
I840
sS'GGTGCC'
p1519
I364
sS'AGGTCC'
p1520
I697
sS'AGAGCG'
p1521
I108
sS'GCGACT'
p1522
I34
sS'AGCGAT'
p1523
I47
sS'AGAGCC'
p1524
I365
sS'AGAGCA'
p1525
I313
sS'GCGTAG'
p1526
I50
sS'GGTGCT'
p1527
I135
sS'GCGTAC'
p1528
I35
sS'TAATTT'
p1529
I99
sS'GGGAAT'
p1530
I103
sS'GCGACG'
p1531
I64
sS'AGAGCT'
p1532
I115
sS'GCGACA'
p1533
I77
sS'GTTACA'
p1534
I508
sS'GCGACC'
p1535
I150
sS'AGGTCG'
p1536
I151
sS'GCAGGA'
p1537
I161
sS'GCAGGC'
p1538
I157
sS'GCAGGG'
p1539
I291
sS'CCGTGA'
p1540
I114
sS'GCTCGA'
p1541
I147
sS'GCTCGG'
p1542
I433
sS'TATTCT'
p1543
I803
sS'CCGTGG'
p1544
I217
sS'AAATAC'
p1545
I197
sS'GCAGGT'
p1546
I53
sS'ACCCTA'
p1547
I772
sS'TATTCC'
p1548
I1473
sS'GGCGAG'
p1549
I560
sS'TATTCA'
p1550
I2151
sS'GGCGAA'
p1551
I203
sS'TATTCG'
p1552
I280
sS'GGCGAC'
p1553
I335
sS'TGTAGA'
p1554
I725
sS'GGCTCA'
p1555
I2238
sS'AGCATT'
p1556
I463
sS'GGCTCC'
p1557
I3088
sS'AATCCT'
p1558
I296
sS'TGTAGG'
p1559
I810
sS'GGCTCG'
p1560
I826
sS'TTCGGA'
p1561
I233
sS'TTCGGC'
p1562
I365
sS'CTTTAC'
p1563
I714
sS'GTCTAC'
p1564
I870
sS'TTCGGG'
p1565
I424
sS'AGCATG'
p1566
I2274
sS'GGCTCT'
p1567
I949
sS'AGCATC'
p1568
I915
sS'TTTACT'
p1569
I419
sS'AGCATA'
p1570
I1345
sS'AACCTT'
p1571
I402
sS'ATTGTA'
p1572
I503
sS'TTCGGT'
p1573
I89
sS'GAGCAT'
p1574
I148
sS'CAGGTC'
p1575
I273
sS'GTTTAT'
p1576
I398
sS'CTCTCA'
p1577
I3448
sS'CGCTAC'
p1578
I420
sS'GTTTAA'
p1579
I948
sS'CGCTAA'
p1580
I375
sS'CACGAA'
p1581
I202
sS'CAATCT'
p1582
I82
sS'GTTTAG'
p1583
I583
sS'TCCAGA'
p1584
I1546
sS'CTGGCT'
p1585
I256
sS'AGGCGG'
p1586
I779
sS'AGGCGA'
p1587
I289
sS'AGGCGC'
p1588
I477
sS'AGGAGT'
p1589
I400
sS'ACAGCC'
p1590
I195
sS'GATAAA'
p1591
I1131
sS'ACAGCA'
p1592
I219
sS'GAGGTC'
p1593
I572
sS'ACAGCG'
p1594
I60
sS'AGGAGC'
p1595
I1020
sS'GTCGGA'
p1596
I257
sS'AGGAGA'
p1597
I1119
sS'GTTTAC'
p1598
I1106
sS'AGGAGG'
p1599
I2279
sS'CTGGCA'
p1600
I805
sS'CTGGCC'
p1601
I1158
sS'GCGCCC'
p1602
I238
sS'ACAGCT'
p1603
I84
sS'GGAAAA'
p1604
I197
sS'AACGCT'
p1605
I237
sS'AATTTT'
p1606
I315
sS'TGTCAA'
p1607
I542
sS'TGTCAC'
p1608
I768
sS'CCCTCT'
p1609
I901
sS'GGAAAC'
p1610
I215
sS'TGTCAG'
p1611
I876
sS'ATTGGG'
p1612
I230
sS'AATTTA'
p1613
I2696
sS'AATTTC'
p1614
I1031
sS'AACGCC'
p1615
I639
sS'AACGCA'
p1616
I479
sS'AATTTG'
p1617
I2502
sS'CCCTCA'
p1618
I1826
sS'CCCTCC'
p1619
I3579
sS'ATTTAG'
p1620
I423
sS'CCCTCG'
p1621
I677
sS'TCCAGT'
p1622
I691
sS'CACGAT'
p1623
I36
sS'CAATAT'
p1624
I43
sS'CTGACG'
p1625
I187
sS'TGACCA'
p1626
I60
sS'CATTCT'
p1627
I904
sS'TAAATC'
p1628
I226
sS'AAATGC'
p1629
I417
sS'TAGCGT'
p1630
I77
sS'CATTCG'
p1631
I489
sS'CATTCC'
p1632
I1942
sS'CATTCA'
p1633
I2483
sS'ACGAAA'
p1634
I41
sS'TAAATG'
p1635
I927
sS'ACAAAT'
p1636
I70
sS'GATTAA'
p1637
I1292
sS'GTAGGC'
p1638
I117
sS'GATTAC'
p1639
I1409
sS'CTGACA'
p1640
I599
sS'GTAGGG'
p1641
I196
sS'GATTAG'
p1642
I984
sS'GCGGGT'
p1643
I38
sS'ACAAAC'
p1644
I186
sS'TTTCAA'
p1645
I606
sS'ACAAAA'
p1646
I188
sS'ACAAAG'
p1647
I234
sS'GCGGGC'
p1648
I224
sS'GTCGGT'
p1649
I87
sS'GCGGGA'
p1650
I167
sS'CCCGAT'
p1651
I21
sS'GCGGGG'
p1652
I405
sS'GATTAT'
p1653
I345
sS'GTAGGT'
p1654
I60
sS'AACCTG'
p1655
I2497
sS'TAATGA'
p1656
I453
sS'GATGTT'
p1657
I261
sS'TAATGC'
p1658
I413
sS'GGAGAT'
p1659
I19
sS'TAATGG'
p1660
I412
sS'CAATAA'
p1661
I136
sS'CAATTG'
p1662
I274
sS'GCCCTC'
p1663
I1194
sS'GATGTG'
p1664
I2227
sS'GCCCTA'
p1665
I1128
sS'GATGTA'
p1666
I1184
sS'GCCCTG'
p1667
I3446
sS'GATGTC'
p1668
I639
sS'GGCGTG'
p1669
I1063
sS'TGAAAT'
p1670
I104
sS'TTCTAG'
p1671
I1809
sS'TTCTAA'
p1672
I2286
sS'ATCCGT'
p1673
I101
sS'TTCTAC'
p1674
I1506
sS'GAATGT'
p1675
I274
sS'TTGGAT'
p1676
I47
sS'TGAAAC'
p1677
I225
sS'TGAAAG'
p1678
I250
sS'TTCTAT'
p1679
I527
sS'ATCCGC'
p1680
I320
sS'AGTAAT'
p1681
I217
sS'ATCCGA'
p1682
I198
sS'ATCCGG'
p1683
I366
sS'TGGCTC'
p1684
I783
sS'TGGCTA'
p1685
I670
sS'GCTACC'
p1686
I318
sS'TGGCTG'
p1687
I2067
sS'GGGTGA'
p1688
I533
sS'AGTTGT'
p1689
I434
sS'AGCTAT'
p1690
I360
sS'GTCGGC'
p1691
I417
sS'CGTCGA'
p1692
I90
sS'NNNNCA'
p1693
I1
sS'TGGCTT'
p1694
I223
sS'AGTTGG'
p1695
I1088
sS'AGCTAA'
p1696
I1561
sS'ACGCCG'
p1697
I39
sS'AGCTAC'
p1698
I1210
sS'AGTTGC'
p1699
I963
sS'AGTTGA'
p1700
I1024
sS'AGCTAG'
p1701
I1277
sS'CGTTGA'
p1702
I271
sS'GCACCT'
p1703
I37
sS'CAGTGT'
p1704
I514
sS'AGTCAG'
p1705
I979
sS'TCAGGT'
p1706
I48
sS'TCAAGG'
p1707
I311
sS'GTCGGG'
p1708
I596
sS'TCAAGC'
p1709
I172
sS'CATGGA'
p1710
I571
sS'GCACCA'
p1711
I69
sS'CAGTGC'
p1712
I1223
sS'CTAATC'
p1713
I134
sS'CAGTGA'
p1714
I1110
sS'CAGTGG'
p1715
I1282
sS'CTAATG'
p1716
I492
sS'TCAAGT'
p1717
I108
sS'TCAGGG'
p1718
I181
sS'GAGCCC'
p1719
I1719
sS'ACTAGT'
p1720
I77
sS'TCAGGC'
p1721
I119
sS'GTGGGT'
p1722
I160
sS'CGTTGG'
p1723
I388
sS'CAACCA'
p1724
I116
sS'GTTCAT'
p1725
I101
sS'TTCCCT'
p1726
I975
sS'CGAGCG'
p1727
I50
sS'CGAGCA'
p1728
I68
sS'CGCAGC'
p1729
I1415
sS'CGAGCC'
p1730
I145
sS'TTCCCA'
p1731
I2030
sS'TTCCCC'
p1732
I2002
sS'GTTCAC'
p1733
I349
sS'TTCCCG'
p1734
I695
sS'GATCAC'
p1735
I897
sS'GGACCT'
p1736
I22
sS'TACATG'
p1737
I2238
sS'AAGTAC'
p1738
I330
sS'CACACT'
p1739
I1065
sS'TACATC'
p1740
I821
sS'AAGTAG'
p1741
I458
sS'TACATA'
p1742
I2317
sS'GCACAC'
p1743
I57
sS'ATTTAT'
p1744
I252
sS'ATTGGT'
p1745
I76
sS'GGACCA'
p1746
I55
sS'CTTTCT'
p1747
I774
sS'GGACCC'
p1748
I69
sS'CACACG'
p1749
I771
sS'TACATT'
p1750
I572
sS'CACACC'
p1751
I2188
sS'GCACAA'
p1752
I41
sS'AAGTAT'
p1753
I135
sS'TCTGCC'
p1754
I563
sS'TCTGCA'
p1755
I584
sS'TCTGCG'
p1756
I200
sS'TTTCGA'
p1757
I155
sS'CCCGTC'
p1758
I249
sS'TTAAGG'
p1759
I520
sS'CCCGTA'
p1760
I293
sS'TTAAGA'
p1761
I456
sS'CCCGTG'
p1762
I758
sS'TTAAGC'
p1763
I289
sS'ACGCAC'
p1764
I48
sS'TAGATC'
p1765
I199
sS'AAACAG'
p1766
I252
sS'TAGATA'
p1767
I639
sS'TTTCGC'
p1768
I228
sS'TAGATG'
p1769
I831
sS'TCTGCT'
p1770
I178
sS'TTACGC'
p1771
I26
sS'TTAAGT'
p1772
I234
sS'TTACGA'
p1773
I29
sS'TTACGG'
p1774
I50
sS'CCCGTT'
p1775
I65
sS'AGTGAC'
p1776
I662
sS'AGTGAA'
p1777
I529
sS'AGTGAG'
p1778
I842
sS'ACATTT'
p1779
I68
sS'CGGGCG'
p1780
I162
sS'AAACAC'
p1781
I212
sS'TAAGAG'
p1782
I242
sS'CGGGCC'
p1783
I484
sS'TAAGAA'
p1784
I204
sS'CGGGCA'
p1785
I257
sS'TAAGAC'
p1786
I214
sS'AAACAA'
p1787
I328
sS'AGTGAT'
p1788
I125
sS'CTTTCC'
p1789
I2135
sS'TAAGAT'
p1790
I43
sS'CCTGAA'
p1791
I250
sS'CGGGCT'
p1792
I124
sS'CCTGAG'
p1793
I457
sS'GTTAGG'
p1794
I639
sS'AACGCG'
p1795
I322
sS'TATACT'
p1796
I419
sS'GTTAGC'
p1797
I419
sS'GTTAGA'
p1798
I529
sS'GCCAAA'
p1799
I748
sS'TATACG'
p1800
I135
sS'GTTAGT'
p1801
I227
sS'TATACC'
p1802
I547
sS'TATACA'
p1803
I1083
sS'ATTGGC'
p1804
I336
sS'CGTATA'
p1805
I135
sS'CAATTA'
p1806
I339
sS'GTAATG'
p1807
I500
sS'TTTATT'
p1808
I305
sS'GTAATA'
p1809
I402
sS'ATTGGA'
p1810
I214
sS'GTAATC'
p1811
I152
sS'GTACAG'
p1812
I75
sS'TCTAAC'
p1813
I269
sS'CGTTCT'
p1814
I195
sS'TCTAAA'
p1815
I363
sS'CGGATC'
p1816
I68
sS'TCTAAG'
p1817
I411
sS'CCACCC'
p1818
I131
sS'ATTACT'
p1819
I145
sS'TTTATG'
p1820
I1102
sS'ACTAGG'
p1821
I349
sS'GTAACG'
p1822
I79
sS'TTTATC'
p1823
I412
sS'ACTAGC'
p1824
I222
sS'TTTATA'
p1825
I1141
sS'ACTAGA'
p1826
I298
sS'CCACCT'
p1827
I49
sS'CGTTCG'
p1828
I177
sS'ACTTGT'
p1829
I179
sS'CGTTCA'
p1830
I364
sS'CGTTCC'
p1831
I515
sS'TCTAAT'
p1832
I87
sS'TCGTCT'
p1833
I53
sS'CTTTGT'
p1834
I827
sS'AAACAT'
p1835
I44
sS'ACTGGA'
p1836
I289
sS'ACTGGC'
p1837
I302
sS'TAGTCC'
p1838
I782
sS'GTGACC'
p1839
I732
sS'TAGTCA'
p1840
I1088
sS'GTGACA'
p1841
I763
sS'TAGTCG'
p1842
I138
sS'GTGACG'
p1843
I255
sS'TGTCAT'
p1844
I193
sS'ACTGGT'
p1845
I75
sS'CTTTGG'
p1846
I1755
sS'CCTATG'
p1847
I459
sS'CTTTGC'
p1848
I1914
sS'CTTTGA'
p1849
I1578
sS'ACATTA'
p1850
I306
sS'GTGACT'
p1851
I446
sS'TAGTCT'
p1852
I383
sS'GTGCAC'
p1853
I487
sS'GCGCTT'
p1854
I38
sS'ACCTAG'
p1855
I570
sS'GCAATT'
p1856
I44
sS'GTGCAG'
p1857
I768
sS'CGACGC'
p1858
I30
sS'ACCTAC'
p1859
I508
sS'CCGCAG'
p1860
I81
sS'CCGCAA'
p1861
I19
sS'CCGCAC'
p1862
I42
sS'GGGACT'
p1863
I280
sS'ACCTAT'
p1864
I111
sS'GCGCTG'
p1865
I424
sS'CGAAGA'
p1866
I95
sS'CCCCGT'
p1867
I133
sS'CGAAGG'
p1868
I154
sS'GCGCTC'
p1869
I130
sS'GTGCAT'
p1870
I126
sS'GCGCTA'
p1871
I116
sS'CCGCAT'
p1872
I14
sS'ATTACC'
p1873
I265
sS'GAAGAT'
p1874
I48
sS'GGATCT'
p1875
I54
sS'TCGGAA'
p1876
I23
sS'TCGGAC'
p1877
I31
sS'GAATCT'
p1878
I188
sS'CCTATA'
p1879
I310
sS'TCGGAG'
p1880
I69
sS'GGATCG'
p1881
I27
sS'GAAGAG'
p1882
I512
sS'GGTATA'
p1883
I292
sS'GAAGAA'
p1884
I333
sS'GGATCC'
p1885
I159
sS'GAAGAC'
p1886
I321
sS'GGATCA'
p1887
I98
sS'GAATCA'
p1888
I592
sS'GAATCC'
p1889
I484
sS'TCGGAT'
p1890
I7
sS'GAATCG'
p1891
I107
sS'ATGGTC'
p1892
I127
sS'CAGATG'
p1893
I1098
sS'ATGGTA'
p1894
I326
sS'TGACCC'
p1895
I53
sS'CTATCA'
p1896
I373
sS'CAGATC'
p1897
I249
sS'CTATCC'
p1898
I415
sS'CAGATA'
p1899
I580
sS'CTATCT'
p1900
I216
sS'CAGATT'
p1901
I106
sS'CTCGAC'
p1902
I245
sS'ATGGTT'
p1903
I46
sS'TCGCAA'
p1904
I20
sS'TGACCG'
p1905
I19
sS'TTGCGC'
p1906
I121
sS'TGCGTC'
p1907
I288
sS'CCGGTA'
p1908
I76
sS'AATGGT'
p1909
I215
sS'ATGATA'
p1910
I348
sS'GAGGTG'
p1911
I2147
sS'ACGTGT'
p1912
I71
sS'CCCCGC'
p1913
I1128
sS'AATGGA'
p1914
I774
sS'AATGGG'
p1915
I959
sS'CCCCGA'
p1916
I317
sS'CAACTC'
p1917
I104
sS'ACGCCC'
p1918
I126
sS'CAACTA'
p1919
I187
sS'ACGCAA'
p1920
I30
sS'ATTTAC'
p1921
I619
sS'GTGAAT'
p1922
I147
sS'AGCCAG'
p1923
I1829
sS'TTGACA'
p1924
I433
sS'AAAAGT'
p1925
I222
sS'AGCCAC'
p1926
I1763
sS'GGAGGC'
p1927
I239
sS'TGGTAG'
p1928
I221
sS'CGCCAT'
p1929
I97
sS'GAGTGT'
p1930
I656
sS'TGGTAC'
p1931
I167
sS'GAGGTA'
p1932
I879
sS'TGGTAA'
p1933
I186
sS'AAAAGG'
p1934
I954
sS'GGAGGT'
p1935
I49
sS'AGCCAT'
p1936
I238
sS'AAAAGC'
p1937
I693
sS'AAAAGA'
p1938
I906
sS'TCTATA'
p1939
I475
sS'GAGTGG'
p1940
I1971
sS'CGCCAG'
p1941
I601
sS'TGGTAT'
p1942
I110
sS'CGCCAA'
p1943
I324
sS'GAGTGC'
p1944
I1409
sS'CGCCAC'
p1945
I607
sS'GAGTGA'
p1946
I1707
sS'GCCAGG'
p1947
I2944
sS'GCCAGA'
p1948
I1450
sS'GCCAGC'
p1949
I1987
sS'GCCCGT'
p1950
I153
sS'TACCGA'
p1951
I289
sS'TACCGC'
p1952
I467
sS'TACCGG'
p1953
I398
sS'GCCCGC'
p1954
I1244
sS'GCCAGT'
p1955
I556
sS'GCCCGA'
p1956
I422
sS'GCCCGG'
p1957
I1445
sS'TGCGAT'
p1958
I35
sS'CTTCAC'
p1959
I563
sS'CTTCAA'
p1960
I494
sS'CTTCAG'
p1961
I824
sS'TCCGAG'
p1962
I295
sS'TCCGAA'
p1963
I106
sS'TCCGAC'
p1964
I182
sS'AATTCA'
p1965
I1542
sS'TATTAG'
p1966
I969
sS'AATTCC'
p1967
I1240
sS'AATTCG'
p1968
I255
sS'TCCGAT'
p1969
I31
sS'GGACAA'
p1970
I44
sS'ACATAC'
p1971
I88
sS'TAGCGG'
p1972
I264
sS'TAGCGA'
p1973
I157
sS'TAGCGC'
p1974
I220
sS'GTCATC'
p1975
I917
sS'GTCATA'
p1976
I1426
sS'GTAGGA'
p1977
I185
sS'GTCATG'
p1978
I2178
sS'AGCAGG'
p1979
I3560
sS'CCAGGT'
p1980
I44
sS'TTGGAA'
p1981
I220
sS'AGCAGC'
p1982
I3381
sS'AGCAGA'
p1983
I2352
sS'GGATGC'
p1984
I145
sS'CCAGGG'
p1985
I219
sS'AGCAGT'
p1986
I1074
sS'CCAGGA'
p1987
I161
sS'CCAGGC'
p1988
I168
sS'TGTTGA'
p1989
I1437
sS'ATAGAG'
p1990
I90
sS'CATCTG'
p1991
I2665
sS'GATCGG'
p1992
I426
sS'CATCTA'
p1993
I1357
sS'GATCGA'
p1994
I254
sS'CATCTC'
p1995
I1287
sS'GATCGC'
p1996
I468
sS'TAACAG'
p1997
I159
sS'CAAGCC'
p1998
I298
sS'CATCTT'
p1999
I313
sS'CAAGCA'
p2000
I285
sS'CAAGCG'
p2001
I86
sS'CCTGGC'
p2002
I509
sS'GTTCTT'
p2003
I135
sS'ACATGA'
p2004
I151
sS'CGTAAT'
p2005
I34
sS'ACATGC'
p2006
I152
sS'TCTTGA'
p2007
I670
sS'ACATGG'
p2008
I199
sS'CCCGCT'
p2009
I213
sS'GTACAT'
p2010
I17
sS'TCAGAC'
p2011
I59
sS'GGCCAT'
p2012
I112
sS'CGTAAG'
p2013
I154
sS'GTTCTG'
p2014
I1546
sS'ACATGT'
p2015
I106
sS'CGTAAC'
p2016
I136
sS'GTTCTC'
p2017
I630
sS'CCCGCG'
p2018
I461
sS'ACGGAA'
p2019
I38
sS'CCCGCC'
p2020
I1683
sS'CCCGCA'
p2021
I496
sS'GAGTCG'
p2022
I478
sS'TGTTGT'
p2023
I676
sS'GTTGTT'
p2024
I114
sS'ATCCTT'
p2025
I276
sS'TTGTCG'
p2026
I148
sS'TTGTCC'
p2027
I955
sS'TTGTCA'
p2028
I962
sS'ATCCTC'
p2029
I990
sS'GTTGTA'
p2030
I581
sS'ATCCTA'
p2031
I1103
sS'GTTGTC'
p2032
I262
sS'ATCCTG'
p2033
I2275
sS'GTTGTG'
p2034
I874
sS'TTGTCT'
p2035
I492
sS'ACCTCA'
p2036
I1500
sS'TGACTA'
p2037
I138
sS'TGGGCC'
p2038
I600
sS'TGACTC'
p2039
I110
sS'TGGGCA'
p2040
I550
sS'TGGGCG'
p2041
I188
sS'TGACTG'
p2042
I288
sS'AAGCCG'
p2043
I354
sS'AAGCCC'
p2044
I999
sS'AAGCCA'
p2045
I1055
sS'CAAAAT'
p2046
I80
sS'CTATGG'
p2047
I391
sS'TGGGCT'
p2048
I189
sS'CAAAAC'
p2049
I285
sS'CAAAAA'
p2050
I244
sS'AAGCCT'
p2051
I361
sS'CAAAAG'
p2052
I271
sS'TGATTT'
p2053
I54
sS'TCAATG'
p2054
I298
sS'AAACTT'
p2055
I47
sS'TCAATC'
p2056
I80
sS'TCAATA'
p2057
I239
sS'CAGTTC'
p2058
I712
sS'GACCCG'
p2059
I772
sS'GACCCA'
p2060
I1546
sS'GACCCC'
p2061
I1301
sS'CTCTGT'
p2062
I2062
sS'TCAATT'
p2063
I37
sS'GGCCAG'
p2064
I1240
sS'CTCTGC'
p2065
I5921
sS'GACCCT'
p2066
I653
sS'CTCTGA'
p2067
I3699
sS'ACAATC'
p2068
I80
sS'CTCTGG'
p2069
I5002
sS'CAGTTT'
p2070
I261
sS'GCGAAG'
p2071
I97
sS'CTACTC'
p2072
I151
sS'TGCTGG'
p2073
I3909
sS'CGAGGT'
p2074
I18
sS'TGCTGA'
p2075
I2684
sS'GAGTCT'
p2076
I711
sS'TGCTGC'
p2077
I3943
sS'TAGGGA'
p2078
I536
sS'GCTGGT'
p2079
I120
sS'GTGATT'
p2080
I138
sS'ACGTTA'
p2081
I163
sS'TGCTGT'
p2082
I1589
sS'TAGGGC'
p2083
I550
sS'GCCCTT'
p2084
I317
sS'ATGCGG'
p2085
I105
sS'GTGATG'
p2086
I1050
sS'CTACTG'
p2087
I439
sS'GTGATC'
p2088
I215
sS'GCTGGC'
p2089
I526
sS'GTGATA'
p2090
I511
sS'GCTGGA'
p2091
I514
sS'TGATAA'
p2092
I55
sS'TGTAGT'
p2093
I451
sS'TGATAC'
p2094
I61
sS'TGATAG'
p2095
I57
sS'CTTGTT'
p2096
I153
sS'GACGGT'
p2097
I221
sS'GCTAGG'
p2098
I540
sS'TTTTGT'
p2099
I628
sS'GCTAGA'
p2100
I338
sS'ATGAAT'
p2101
I130
sS'GCTAGC'
p2102
I274
sS'AAGGGT'
p2103
I210
sS'TGATAT'
p2104
I31
sS'GAGGTT'
p2105
I165
sS'GCTAGT'
p2106
I108
sS'ATGAAC'
p2107
I237
sS'GACGGG'
p2108
I1296
sS'CTTGTG'
p2109
I1234
sS'GACGGA'
p2110
I714
sS'ATGAAG'
p2111
I386
sS'GACGGC'
p2112
I946
sS'CTTGTC'
p2113
I356
sS'CTAACT'
p2114
I145
sS'ATAGGC'
p2115
I82
sS'CTACTT'
p2116
I47
sS'CAACGT'
p2117
I14
sS'GGTGAA'
p2118
I303
sS'GGTGAC'
p2119
I454
sS'GCGTCT'
p2120
I92
sS'TGTAAA'
p2121
I962
sS'GGTGAG'
p2122
I598
sS'GGAATG'
p2123
I398
sS'CGTCCT'
p2124
I85
sS'GGAATC'
p2125
I131
sS'GGAATA'
p2126
I218
sS'GCGTCA'
p2127
I177
sS'GCGTCC'
p2128
I323
sS'GGTGAT'
p2129
I51
sS'GCGTCG'
p2130
I87
sS'CGTCCG'
p2131
I120
sS'GGAATT'
p2132
I49
sS'CGTCCC'
p2133
I367
sS'CGTCCA'
p2134
I195
sS'CCGTAT'
p2135
I18
sS'GCCGTG'
p2136
I920
sS'GAAGTA'
p2137
I442
sS'GAAGTG'
p2138
I954
sS'GCCGTA'
p2139
I309
sS'CCGTAC'
p2140
I37
sS'CCGTAA'
p2141
I24
sS'TTCGAA'
p2142
I131
sS'CAAAGT'
p2143
I203
sS'CTAAAA'
p2144
I178
sS'GAAGTT'
p2145
I76
sS'GGCGCG'
p2146
I552
sS'ATGCCC'
p2147
I581
sS'TTAGTT'
p2148
I43
sS'GCACTC'
p2149
I96
sS'GGCGCC'
p2150
I906
sS'TATTAA'
p2151
I1512
sS'GGCGCA'
p2152
I476
sS'TATTAC'
p2153
I996
sS'ACTATG'
p2154
I415
sS'CCTACA'
p2155
I364
sS'TTTAAG'
p2156
I967
sS'ACTATC'
p2157
I108
sS'TTTAAA'
p2158
I1448
sS'ACTATA'
p2159
I373
sS'TTTAAC'
p2160
I702
sS'TATTAT'
p2161
I481
sS'TTAGTG'
p2162
I339
sS'GGCGCT'
p2163
I241
sS'TTAGTC'
p2164
I117
sS'ATGCCT'
p2165
I285
sS'TTAGTA'
p2166
I219
sS'TTTAAT'
p2167
I255
sS'GCACTG'
p2168
I305
sS'GCCGAT'
p2169
I28
sS'GGGCAT'
p2170
I60
sS'AAAGAC'
p2171
I272
sS'TTTCCG'
p2172
I160
sS'TTTCCA'
p2173
I631
sS'TTTCCC'
p2174
I737
sS'GTACGT'
p2175
I20
sS'TATCGA'
p2176
I134
sS'GTTTGT'
p2177
I1281
sS'TTTCCT'
p2178
I329
sS'GGGCAG'
p2179
I497
sS'GTCTGT'
p2180
I1272
sS'GGGCAA'
p2181
I186
sS'GGGCAC'
p2182
I279
sS'GTTTGC'
p2183
I1619
sS'GTTTGA'
p2184
I1226
sS'GTTTGG'
p2185
I1390
sS'ACATCC'
p2186
I196
sS'CCGCTC'
p2187
I102
sS'GCATGT'
p2188
I118
sS'CCGCTA'
p2189
I103
sS'CCGCTG'
p2190
I350
sS'TGAAAA'
p2191
I208
sS'GCGCGG'
p2192
I222
sS'GTTATC'
p2193
I223
sS'GGGGTC'
p2194
I97
sS'GCGCGC'
p2195
I251
sS'GCGCGA'
p2196
I87
sS'GCATGG'
p2197
I237
sS'TGGATC'
p2198
I174
sS'GCATGC'
p2199
I200
sS'TTAGGG'
p2200
I182
sS'GCATGA'
p2201
I186
sS'GTCGAC'
p2202
I125
sS'GTCGAA'
p2203
I90
sS'GTCGAG'
p2204
I199
sS'CGTGGC'
p2205
I305
sS'GAGCTA'
p2206
I1374
sS'TGCGCT'
p2207
I196
sS'GAGCTC'
p2208
I1228
sS'ATTGAT'
p2209
I32
sS'GAGCTG'
p2210
I3738
sS'AAACGA'
p2211
I90
sS'AAACGC'
p2212
I145
sS'GTAACA'
p2213
I367
sS'GTAGTA'
p2214
I215
sS'AAACGG'
p2215
I126
sS'TGTCCC'
p2216
I621
sS'TGCGCG'
p2217
I351
sS'TGTCCA'
p2218
I521
sS'TGTCCG'
p2219
I182
sS'TGCGCC'
p2220
I585
sS'ATTGAG'
p2221
I196
sS'CGCTGA'
p2222
I940
sS'GTAGTG'
p2223
I303
sS'AAACGT'
p2224
I37
sS'ATTTCG'
p2225
I121
sS'ATTTCA'
p2226
I981
sS'ATTTCC'
p2227
I883
sS'ATCAGT'
p2228
I423
sS'ATCGGG'
p2229
I166
sS'CATAGT'
p2230
I348
sS'ATCGGC'
p2231
I119
sS'ATCGGA'
p2232
I93
sS'ATTTCT'
p2233
I345
sS'TACGCC'
p2234
I305
sS'TGGGTC'
p2235
I185
sS'TGGGTA'
p2236
I377
sS'CATAGG'
p2237
I774
sS'ATCGGT'
p2238
I27
sS'ATCAGG'
p2239
I1224
sS'ATCAGA'
p2240
I1113
sS'CATAGA'
p2241
I763
sS'ACGGGT'
p2242
I22
sS'CCTGGT'
p2243
I130
sS'GATTCT'
p2244
I844
sS'CTTTTG'
p2245
I3274
sS'TACTAG'
p2246
I1137
sS'TACTAA'
p2247
I1729
sS'TACTAC'
p2248
I1096
sS'GATTCC'
p2249
I1859
sS'GATTCA'
p2250
I2286
sS'GATTCG'
p2251
I444
sS'ACGGGC'
p2252
I75
sS'TACTAT'
p2253
I494
sS'CTTTTT'
p2254
I508
sS'ACCAAC'
p2255
I538
sS'CGTAGA'
p2256
I185
sS'TCACGA'
p2257
I19
sS'TCACGC'
p2258
I44
sS'AGAGTG'
p2259
I436
sS'CGATTG'
p2260
I63
sS'TCACGG'
p2261
I59
sS'GCAGCC'
p2262
I306
sS'TCTCAT'
p2263
I94
sS'TCACGT'
p2264
I18
sS'TTCCAC'
p2265
I1161
sS'TTCCAA'
p2266
I1179
sS'TTCCAG'
p2267
I1608
sS'ACCCTT'
p2268
I177
sS'TGAAGT'
p2269
I189
sS'CCACAT'
p2270
I18
sS'TTCCAT'
p2271
I281
sS'TGAAGC'
p2272
I350
sS'ACCCTC'
p2273
I666
sS'TGAAGG'
p2274
I525
sS'ACCCTG'
p2275
I1704
sS'CTGACT'
p2276
I343
sS'CCCCTT'
p2277
I215
sS'AGTTAT'
p2278
I165
sS'ACATAT'
p2279
I42
sS'TGTATT'
p2280
I198
sS'CTGACC'
p2281
I792
sS'CAATGA'
p2282
I309
sS'AGTTAA'
p2283
I771
sS'CCCCTG'
p2284
I1844
sS'AGTTAC'
p2285
I595
sS'CCCCTC'
p2286
I955
sS'AGTTAG'
p2287
I622
sS'CCCCTA'
p2288
I903
sS'ACAGAA'
p2289
I86
sS'ACACAG'
p2290
I88
sS'ACACAA'
p2291
I59
sS'ACACAC'
p2292
I107
sS'AATGTT'
p2293
I214
sS'CTGCAG'
p2294
I1019
sS'CATGGG'
p2295
I747
sS'CTGCAC'
p2296
I665
sS'CATGGC'
p2297
I717
sS'AATGTC'
p2298
I569
sS'ACACAT'
p2299
I22
sS'AATGTA'
p2300
I1449
sS'AATGTG'
p2301
I1880
sS'CATGGT'
p2302
I193
sS'CTGCAT'
p2303
I156
sS'GCACAG'
p2304
I77
sS'ATGCTG'
p2305
I1678
sS'CGAGAT'
p2306
I9
sS'GTTCGT'
p2307
I56
sS'CACAAT'
p2308
I347
sS'CCAGTA'
p2309
I139
sS'ACATTG'
p2310
I374
sS'GTACCA'
p2311
I108
sS'ACGCTC'
p2312
I64
sS'ACATTC'
p2313
I178
sS'ATTACA'
p2314
I541
sS'CCACAC'
p2315
I62
sS'GTTCGC'
p2316
I217
sS'CGAGAC'
p2317
I39
sS'GTTCGG'
p2318
I221
sS'AAGTCT'
p2319
I445
sS'GCTATT'
p2320
I74
sS'GGACAT'
p2321
I6
sS'CAGCGT'
p2322
I103
sS'GCTATA'
p2323
I345
sS'GCTATC'
p2324
I113
sS'AAGTCG'
p2325
I236
sS'AACCTA'
p2326
I1490
sS'AAGTCA'
p2327
I1289
sS'GCTATG'
p2328
I520
sS'AAGTCC'
p2329
I1073
sS'GGACAG'
p2330
I81
sS'GGACAC'
p2331
I32
sS'CTATCG'
p2332
I77
sS'CTAATT'
p2333
I84
sS'AGGGTT'
p2334
I93
sS'GAGGCG'
p2335
I1002
sS'TGTTGG'
p2336
I1328
sS'GAGGCA'
p2337
I1867
sS'AGCGCT'
p2338
I277
sS'GAGGCC'
p2339
I2530
sS'TGTTGC'
p2340
I1360
sS'ACTCGA'
p2341
I109
sS'TAAAAT'
p2342
I148
sS'ACTCGC'
p2343
I181
sS'ACTCGG'
p2344
I223
sS'AGCGCA'
p2345
I549
sS'GAGGCT'
p2346
I772
sS'AGCGCC'
p2347
I975
sS'AGGGTG'
p2348
I836
sS'AGGGTA'
p2349
I347
sS'AGCGCG'
p2350
I495
sS'AGGGTC'
p2351
I174
sS'TAAAAG'
p2352
I495
sS'ACTCGT'
p2353
I23
sS'TAAAAC'
p2354
I430
sS'TAAAAA'
p2355
I417
sS'CAATAC'
p2356
I80
sS'AGCTGC'
p2357
I3953
sS'CTACTA'
p2358
I262
sS'AGCTGA'
p2359
I2813
sS'ACGTTG'
p2360
I250
sS'AGCTGG'
p2361
I4123
sS'TAGGGG'
p2362
I548
sS'AGTGCG'
p2363
I202
sS'AGTGCA'
p2364
I616
sS'AGAGTT'
p2365
I60
sS'AGTGCC'
p2366
I514
sS'CCAAAA'
p2367
I74
sS'ACAATG'
p2368
I330
sS'TAGGGT'
p2369
I148
sS'GCATAG'
p2370
I56
sS'AGCTGT'
p2371
I1383
sS'ACGTTT'
p2372
I26
sS'AGTGCT'
p2373
I235
sS'TCATAA'
p2374
I76
sS'TCAAGA'
p2375
I204
sS'AAAACA'
p2376
I1143
sS'TTCGTA'
p2377
I291
sS'GTTAAA'
p2378
I581
sS'CTAATA'
p2379
I388
sS'GTTAAC'
p2380
I438
sS'CCTGGA'
p2381
I429
sS'CCTGGG'
p2382
I933
sS'GTTAAG'
p2383
I580
sS'TTCGTC'
p2384
I180
sS'GCACCC'
p2385
I83
sS'GTCTGG'
p2386
I3260
sS'GTCTGC'
p2387
I2829
sS'GTTAAT'
p2388
I137
sS'GTCTGA'
p2389
I2333
sS'ACGACT'
p2390
I37
sS'GGAAGG'
p2391
I759
sS'ATGCTT'
p2392
I202
sS'GGAAGC'
p2393
I419
sS'GCACCG'
p2394
I33
sS'GGAAGA'
p2395
I390
sS'GCGTTA'
p2396
I138
sS'TCCTCT'
p2397
I1482
sS'GCGTTC'
p2398
I132
sS'CAATGC'
p2399
I220
sS'GCGTTG'
p2400
I269
sS'CAATGG'
p2401
I297
sS'CCACAG'
p2402
I63
sS'GGAAGT'
p2403
I193
sS'ATGCTC'
p2404
I612
sS'ATGCTA'
p2405
I706
sS'AAACCA'
p2406
I230
sS'TCCTCG'
p2407
I907
sS'TGTATG'
p2408
I1038
sS'TCCTCA'
p2409
I2972
sS'TGTATA'
p2410
I930
sS'TCCTCC'
p2411
I4699
sS'TGTATC'
p2412
I364
sS'CGTTAG'
p2413
I225
sS'TAACCG'
p2414
I34
sS'TCATAG'
p2415
I88
sS'TTCGTG'
p2416
I582
sS'CGTTAC'
p2417
I168
sS'TAACCC'
p2418
I142
sS'TCATAC'
p2419
I84
sS'TAACCA'
p2420
I162
sS'ACCGCT'
p2421
I100
sS'TGCATG'
p2422
I2141
sS'GCTTGT'
p2423
I316
sS'TTCGTT'
p2424
I87
sS'TACCCT'
p2425
I386
sS'TAACCT'
p2426
I64
sS'GTGAAG'
p2427
I555
sS'GTGAAA'
p2428
I385
sS'GTGAAC'
p2429
I280
sS'CAATAG'
p2430
I89
sS'AACCCG'
p2431
I420
sS'ACCGCG'
p2432
I218
sS'ACCGCA'
p2433
I264
sS'AACGAG'
p2434
I380
sS'ACCGCC'
p2435
I532
sS'AGATCC'
p2436
I186
sS'AGGCTT'
p2437
I248
sS'CCTTCT'
p2438
I495
sS'CGAGCT'
p2439
I28
sS'GTTGCA'
p2440
I376
sS'TGTCGC'
p2441
I341
sS'GTTGCC'
p2442
I392
sS'GTGCCG'
p2443
I453
sS'GTGCCA'
p2444
I1021
sS'GTTGCG'
p2445
I107
sS'GTGCCC'
p2446
I1357
sS'CCTTCA'
p2447
I1089
sS'AGGCTA'
p2448
I752
sS'CCTTCC'
p2449
I1778
sS'AGGCTC'
p2450
I827
sS'CCGCCC'
p2451
I348
sS'TGTCGA'
p2452
I160
sS'CCGCCA'
p2453
I120
sS'AGGCTG'
p2454
I2801
sS'GTGCCT'
p2455
I679
sS'GTTGCT'
p2456
I158
sS'GCCGTT'
p2457
I54
sS'ATAGGT'
p2458
I35
sS'TCGGGT'
p2459
I23
sS'AAACCT'
p2460
I73
sS'GCAGTT'
p2461
I42
sS'GAAGCT'
p2462
I214
sS'TCGCGT'
p2463
I17
sS'TCGGGC'
p2464
I97
sS'GGATAC'
p2465
I51
sS'NNNNNG'
p2466
I2
sS'TCGGGG'
p2467
I173
sS'GGATAG'
p2468
I44
sS'GAAGCG'
p2469
I232
sS'CCGCCT'
p2470
I87
sS'GCAGTG'
p2471
I393
sS'GAAGCC'
p2472
I818
sS'GCAGTA'
p2473
I150
sS'GAAGCA'
p2474
I633
sS'GCAGTC'
p2475
I76
sS'CGCCCG'
p2476
I662
sS'GAGAGA'
p2477
I2832
sS'CTCGCT'
p2478
I305
sS'CGCCCA'
p2479
I788
sS'CTACAA'
p2480
I91
sS'CTATAG'
p2481
I146
sS'GCATTC'
p2482
I188
sS'CTATAA'
p2483
I143
sS'CTCGCA'
p2484
I442
sS'CGCCCT'
p2485
I348
sS'CTCGCG'
p2486
I415
sS'GCATTT'
p2487
I79
sS'AACTGA'
p2488
I2546
sS'GCCGGG'
p2489
I1375
sS'GCCGGC'
p2490
I801
sS'CATGTT'
p2491
I199
sS'GCCGGA'
p2492
I440
sS'AGATCT'
p2493
I94
sS'CTACAG'
p2494
I110
sS'GCGAGA'
p2495
I159
sS'GCCACT'
p2496
I629
sS'CATGTA'
p2497
I1103
sS'CATGTC'
p2498
I484
sS'GCCGGT'
p2499
I116
sS'CATGTG'
p2500
I1829
sS'AGTTCG'
p2501
I320
sS'GTGCGA'
p2502
I154
sS'GTACTC'
p2503
I78
sS'GGCCTG'
p2504
I2963
sS'GGCCTC'
p2505
I1265
sS'GGCCTA'
p2506
I908
sS'AATCGG'
p2507
I364
sS'AATCGC'
p2508
I392
sS'AATCGA'
p2509
I240
sS'GTTCAG'
p2510
I486
sS'TCACTG'
p2511
I414
sS'TCACTA'
p2512
I161
sS'TCACTC'
p2513
I107
sS'AATCGT'
p2514
I112
sS'TGGATT'
p2515
I67
sS'AGCCGA'
p2516
I747
sS'GAGCGT'
p2517
I158
sS'AGCCGC'
p2518
I1670
sS'TAATTG'
p2519
I564
sS'TAATTA'
p2520
I626
sS'AGCCGG'
p2521
I1442
sS'TAATTC'
p2522
I269
sS'TGGTGA'
p2523
I566
sS'GATGGA'
p2524
I1009
sS'TGGTGC'
p2525
I600
sS'GATGGC'
p2526
I1003
sS'GGGCTG'
p2527
I1704
sS'TGGTGG'
p2528
I849
sS'GATGGG'
p2529
I1467
sS'GTTTTC'
p2530
I1323
sS'AAAAAC'
p2531
I383
sS'GGGCTC'
p2532
I529
sS'GAGCGA'
p2533
I621
sS'AGCCGT'
p2534
I247
sS'GAGCGC'
p2535
I1053
sS'TGACAG'
p2536
I83
sS'CCAAGG'
p2537
I350
sS'ACGTAT'
p2538
I23
sS'TCTCAG'
p2539
I627
sS'TCTCAA'
p2540
I477
sS'TGGTGT'
p2541
I358
sS'TCTCAC'
p2542
I364
sS'ATTCGT'
p2543
I35
sS'AGAACT'
p2544
I180
sS'GCGTTT'
p2545
I30
sS'CCTTCG'
p2546
I334
sS'TACCAT'
p2547
I228
sS'CCTATT'
p2548
I100
sS'ACCCGG'
p2549
I518
sS'ACCCGA'
p2550
I231
sS'ATGTCT'
p2551
I290
sS'ACCCGC'
p2552
I458
sS'ACCAGT'
p2553
I324
sS'TACCAC'
p2554
I799
sS'AGAACG'
p2555
I113
sS'TACCAA'
p2556
I746
sS'AGAACA'
p2557
I496
sS'TACCAG'
p2558
I844
sS'AGAACC'
p2559
I381
sS'ACCAGC'
p2560
I1165
sS'CACTGG'
p2561
I3346
sS'ACCAGA'
p2562
I879
sS'TGACAA'
p2563
I55
sS'ACCAGG'
p2564
I1449
sS'CACTGC'
p2565
I4324
sS'CCTATC'
p2566
I133
sS'CACTGA'
p2567
I3089
sS'TAGGTT'
p2568
I92
sS'AATTAT'
p2569
I274
sS'CTGTTG'
p2570
I1985
sS'GTAACC'
p2571
I302
sS'CTGTTC'
p2572
I875
sS'CGGGTT'
p2573
I32
sS'CTGTTA'
p2574
I1494
sS'AATTAC'
p2575
I767
sS'TAGGTG'
p2576
I737
sS'TAGGTA'
p2577
I497
sS'TAGGTC'
p2578
I242
sS'CGGGTC'
p2579
I72
sS'CTGTTT'
p2580
I451
sS'CGGGTA'
p2581
I125
sS'CGGGTG'
p2582
I298
sS'ATTGTT'
p2583
I70
sS'AAGTAA'
p2584
I505
sS'CATTAC'
p2585
I889
sS'AGCAAA'
p2586
I1901
sS'ATATAT'
p2587
I87
sS'AGCAAC'
p2588
I1387
sS'TTAGGC'
p2589
I116
sS'AAAGCT'
p2590
I150
sS'AGCAAG'
p2591
I1897
sS'AAAGCA'
p2592
I608
sS'GGATAT'
p2593
I23
sS'AAAGCC'
p2594
I467
sS'TTAGGT'
p2595
I50
sS'TCATTG'
p2596
I605
sS'AGCAAT'
p2597
I435
sS'ATATAC'
p2598
I125
sS'TACTTC'
p2599
I2667
sS'ATAGCC'
p2600
I109
sS'TACTTG'
p2601
I4102
sS'ATAGCG'
p2602
I28
sS'TGCTAA'
p2603
I1641
sS'ACGGCT'
p2604
I17
sS'ATAGCT'
p2605
I40
sS'TACTTT'
p2606
I1210
sS'CATGCG'
p2607
I261
sS'CTTCGA'
p2608
I171
sS'CGAGTT'
p2609
I11
sS'TCCAAT'
p2610
I251
sS'CGTACT'
p2611
I75
sS'TCCCGT'
p2612
I156
sS'TATGCT'
p2613
I278
sS'CTTAAG'
p2614
I563
sS'ACATAA'
p2615
I85
sS'CTTAAA'
p2616
I606
sS'ACATAG'
p2617
I57
sS'CTTAAC'
p2618
I501
sS'TCCAAG'
p2619
I1149
sS'CGTACC'
p2620
I166
sS'TTGTTA'
p2621
I1365
sS'TCCAAC'
p2622
I743
sS'TCCAAA'
p2623
I996
sS'AGGGGA'
p2624
I462
sS'CTTAAT'
p2625
I112
sS'AGGGGC'
p2626
I502
sS'TATGCA'
p2627
I845
sS'AGGGGG'
p2628
I536
sS'TCATTA'
p2629
I514
sS'CGACTT'
p2630
I3
sS'TGAATT'
p2631
I53
sS'TTGTAA'
p2632
I351
sS'CACAAA'
p2633
I1568
sS'TTGTAC'
p2634
I242
sS'GTACCT'
p2635
I39
sS'TTGTAG'
p2636
I313
sS'TGAATC'
p2637
I146
sS'GATTGG'
p2638
I2304
sS'TGAATA'
p2639
I416
sS'TCGGGA'
p2640
I75
sS'TGAATG'
p2641
I579
sS'CACACA'
p2642
I4200
sS'CGACTG'
p2643
I62
sS'TTGTAT'
p2644
I153
sS'ATCGTG'
p2645
I319
sS'GCTTCG'
p2646
I300
sS'ATCGTC'
p2647
I97
sS'GCTTCC'
p2648
I1365
sS'TGGGAG'
p2649
I365
sS'TGGGAA'
p2650
I235
sS'TGGGAC'
p2651
I254
sS'GCTTCT'
p2652
I409
sS'ATCGTT'
p2653
I31
sS'ACAACG'
p2654
I41
sS'TGGGAT'
p2655
I60
sS'ACGCGC'
p2656
I79
sS'GGGCTA'
p2657
I454
sS'CTAGCC'
p2658
I282
sS'GACCAT'
p2659
I256
sS'CTAGCG'
p2660
I57
sS'CGCATT'
p2661
I86
sS'ACTTAG'
p2662
I329
sS'TAGATT'
p2663
I92
sS'ACTTAA'
p2664
I415
sS'CGGTAC'
p2665
I41
sS'ACTTAC'
p2666
I310
sS'CGGTAA'
p2667
I43
sS'GACCAG'
p2668
I1640
sS'GACCAC'
p2669
I1178
sS'GACCAA'
p2670
I1279
sS'TACACC'
p2671
I1114
sS'CGGTAT'
p2672
I11
sS'TACACA'
p2673
I2470
sS'TACACG'
p2674
I451
sS'CCGCCG'
p2675
I106
sS'GAGAGC'
p2676
I1953
sS'GCGAGC'
p2677
I184
sS'GGCCGT'
p2678
I169
sS'GCGAGG'
p2679
I390
sS'CAGCCG'
p2680
I301
sS'CAGCCA'
p2681
I901
sS'GGTATT'
p2682
I81
sS'CAGCCC'
p2683
I1178
sS'GCGAGT'
p2684
I44
sS'CGCCCC'
p2685
I1450
sS'TTACGT'
p2686
I15
sS'GAACTC'
p2687
I200
sS'GAACTA'
p2688
I355
sS'GGACTT'
p2689
I16
sS'CACCTA'
p2690
I1577
sS'AACTAT'
p2691
I326
sS'CACCTC'
p2692
I1703
sS'CACCTG'
p2693
I2794
sS'TGATCC'
p2694
I156
sS'AACACT'
p2695
I1138
sS'TGATCA'
p2696
I164
sS'ATTTAA'
p2697
I822
sS'AACTAG'
p2698
I1084
sS'GGACTG'
p2699
I194
sS'CACCTT'
p2700
I389
sS'GGACTA'
p2701
I104
sS'AACTAA'
p2702
I1537
sS'AACGAT'
p2703
I64
sS'AACACG'
p2704
I603
sS'AACACA'
p2705
I2692
sS'AACACC'
p2706
I1541
sS'TGATCT'
p2707
I75
sS'TGTAAT'
p2708
I251
sS'CTATAC'
p2709
I106
sS'CAACAG'
p2710
I118
sS'GACAGT'
p2711
I1297
sS'CAACAA'
p2712
I106
sS'AAAGAA'
p2713
I352
sS'CAACAC'
p2714
I93
sS'GCTGAT'
p2715
I59
sS'GCATTA'
p2716
I322
sS'GACAGG'
p2717
I4215
sS'ATATCC'
p2718
I256
sS'GACAGC'
p2719
I3469
sS'GACAGA'
p2720
I3644
sS'GTATTA'
p2721
I747
sS'GTATTC'
p2722
I274
sS'GTAAGT'
p2723
I187
sS'CCAGCG'
p2724
I54
sS'GTATTG'
p2725
I653
sS'GGTGGC'
p2726
I540
sS'TCCCCT'
p2727
I401
sS'GGTGGA'
p2728
I468
sS'TATCTT'
p2729
I314
sS'GGTGGG'
p2730
I806
sS'ATCCCT'
p2731
I281
sS'AGAGGC'
p2732
I287
sS'GTAAGA'
p2733
I363
sS'AGAGGA'
p2734
I296
sS'CTCGCC'
p2735
I995
sS'AGAGGG'
p2736
I379
sS'GTAAGG'
p2737
I432
sS'TATCTA'
p2738
I1336
sS'TATCTC'
p2739
I855
sS'TCCCCC'
p2740
I726
sS'GGTGGT'
p2741
I146
sS'TCCCCA'
p2742
I1096
sS'GTCGCG'
p2743
I272
sS'GTCGCA'
p2744
I278
sS'GTCGCC'
p2745
I618
sS'TCGGTC'
p2746
I42
sS'TCGGTA'
p2747
I66
sS'GAGAGT'
p2748
I613
sS'TCGGTG'
p2749
I153
sS'GTCGCT'
p2750
I176
sS'GTAACT'
p2751
I174
sS'CCGTCG'
p2752
I57
sS'CCGTCA'
p2753
I132
sS'CCGTCC'
p2754
I256
sS'GGCTGT'
p2755
I1035
sS'CGCGTG'
p2756
I655
sS'CTATAT'
p2757
I73
sS'CGCGTC'
p2758
I242
sS'CGCGTA'
p2759
I235
sS'ATGCAG'
p2760
I364
sS'ATGCAA'
p2761
I253
sS'ATGCAC'
p2762
I263
sS'CGCGTT'
p2763
I48
sS'GGCTGG'
p2764
I4077
sS'GGCTGA'
p2765
I2404
sS'GGCTGC'
p2766
I3812
sS'CCACTT'
p2767
I25
sS'CCTACC'
p2768
I479
sS'TTTCAT'
p2769
I154
sS'ATGACG'
p2770
I96
sS'GGAGTT'
p2771
I28
sS'ATGACA'
p2772
I482
sS'ATGACC'
p2773
I319
sS'CCTGAT'
p2774
I42
sS'GGGCCT'
p2775
I247
sS'ATGACT'
p2776
I225
sS'GGAGTA'
p2777
I129
sS'CTACGC'
p2778
I59
sS'GGAGTC'
p2779
I69
sS'GGAGTG'
p2780
I268
sS'GGGCCG'
p2781
I290
sS'GGGCCC'
p2782
I583
sS'GGGCCA'
p2783
I429
sS'CTGATC'
p2784
I209
sS'ACGAGT'
p2785
I28
sS'AGGCCA'
p2786
I756
sS'AGGCCC'
p2787
I922
sS'GCGCAG'
p2788
I106
sS'ACGAGG'
p2789
I151
sS'ACGAGC'
p2790
I86
sS'GATTGT'
p2791
I658
sS'GGCAAC'
p2792
I906
sS'AGGCCT'
p2793
I287
sS'AGACGG'
p2794
I59
sS'GGGTTG'
p2795
I807
sS'GACTAC'
p2796
I1729
sS'GGGTTA'
p2797
I490
sS'GGGTTC'
p2798
I263
sS'TTTGAT'
p2799
I74
sS'TGAACT'
p2800
I167
sS'ATTGCT'
p2801
I85
sS'TGCGAA'
p2802
I145
sS'CTTACT'
p2803
I281
sS'TGCGAG'
p2804
I305
sS'ATTGCC'
p2805
I201
sS'TTTGAG'
p2806
I566
sS'ATTGCA'
p2807
I294
sS'TTTGGC'
p2808
I424
sS'AACGGG'
p2809
I507
sS'TTTGAC'
p2810
I339
sS'TTTGAA'
p2811
I527
sS'AAGCAG'
p2812
I933
sS'CCTGAC'
p2813
I331
sS'CTCGTA'
p2814
I326
sS'CTCGTC'
p2815
I273
sS'CCCTGG'
p2816
I2776
sS'TCACAC'
p2817
I49
sS'CCCTGA'
p2818
I1678
sS'CTCGTG'
p2819
I722
sS'CCCTGC'
p2820
I3014
sS'GATATC'
p2821
I325
sS'TTGACG'
p2822
I95
sS'GATATA'
p2823
I824
sS'AAGCTA'
p2824
I983
sS'GATATG'
p2825
I1030
sS'AAGCTG'
p2826
I2216
sS'TGACGC'
p2827
I56
sS'TACTCT'
p2828
I1178
sS'CATCGT'
p2829
I83
sS'GATGGT'
p2830
I290
sS'GTAGTC'
p2831
I110
sS'CAGGGT'
p2832
I195
sS'CTACGG'
p2833
I73
sS'CCAGTC'
p2834
I82
sS'TACGAT'
p2835
I48
sS'CCAGTG'
p2836
I303
sS'TACTCG'
p2837
I482
sS'TTTGGT'
p2838
I149
sS'CATCGC'
p2839
I401
sS'TACTCC'
p2840
I2019
sS'TACTCA'
p2841
I2911
sS'CATCGG'
p2842
I267
sS'CAGGGG'
p2843
I794
sS'CCAGTT'
p2844
I33
sS'CAGGGC'
p2845
I916
sS'AATCTG'
p2846
I1939
sS'TACAAT'
p2847
I494
sS'GCCATT'
p2848
I242
sS'AGTCGA'
p2849
I186
sS'AATCTA'
p2850
I1115
sS'TGAACG'
p2851
I61
sS'GGGCTT'
p2852
I142
sS'TCACAA'
p2853
I39
sS'TCACAG'
p2854
I92
sS'GCCATA'
p2855
I772
sS'CGGACG'
p2856
I111
sS'TCCACC'
p2857
I1721
sS'CGGACA'
p2858
I162
sS'CGGACC'
p2859
I260
sS'GCCATG'
p2860
I1744
sS'CTTACC'
p2861
I551
sS'TCACAT'
p2862
I29
sS'ATTAAC'
p2863
I349
sS'ATTAAA'
p2864
I619
sS'ATTAAG'
p2865
I411
sS'TTTTAC'
p2866
I641
sS'TCACTT'
p2867
I43
sS'ACTCCT'
p2868
I106
sS'TGAACA'
p2869
I337
sS'GAACCG'
p2870
I76
sS'ATTAAT'
p2871
I127
sS'AAGCAC'
p2872
I632
sS'GAACCA'
p2873
I255
sS'GGTATG'
p2874
I418
sS'CTGAAT'
p2875
I112
sS'GGTATC'
p2876
I127
sS'CGAGAG'
p2877
I38
sS'ACGAAT'
p2878
I14
sS'CTGAAA'
p2879
I364
sS'CTGAAC'
p2880
I319
sS'CTGAAG'
p2881
I569
sS'CCCGAA'
p2882
I145
sS'CATTGC'
p2883
I1619
sS'TATGAG'
p2884
I630
sS'CATTGA'
p2885
I1236
sS'AGAGGT'
p2886
I65
sS'CATTGG'
p2887
I1601
sS'TCAACT'
p2888
I103
sS'ATGTTA'
p2889
I963
sS'ACACCG'
p2890
I23
sS'CTGCCA'
p2891
I1657
sS'CTGCCC'
p2892
I2419
sS'ACACCC'
p2893
I80
sS'ACACCA'
p2894
I82
sS'CTGCCG'
p2895
I717
sS'CTAGTG'
p2896
I319
sS'TCAACC'
p2897
I183
sS'ATGTTC'
p2898
I423
sS'CTAGTC'
p2899
I89
sS'TCAACG'
p2900
I39
sS'CTAGTA'
p2901
I214
sS'CATTGT'
p2902
I825
sS'TATGAC'
p2903
I582
sS'ACACCT'
p2904
I25
sS'CTGCCT'
p2905
I1030
sS'CCTCGT'
p2906
I64
sS'TTGTGT'
p2907
I537
sS'AGACTG'
p2908
I301
sS'GGCCTT'
p2909
I284
sS'AGACTA'
p2910
I165
sS'CCTCGG'
p2911
I425
sS'CCTCGC'
p2912
I430
sS'CCCGAC'
p2913
I253
sS'CCTCGA'
p2914
I165
sS'CGAGGA'
p2915
I64
sS'CGAGGC'
p2916
I84
sS'CGAGGG'
p2917
I112
sS'CACCGT'
p2918
I199
sS'ACTTTA'
p2919
I1481
sS'ACTTTG'
p2920
I1875
sS'GACCTG'
p2921
I3668
sS'GGACGT'
p2922
I12
sS'GACCTC'
p2923
I1714
sS'CACCGG'
p2924
I690
sS'CTATTG'
p2925
I803
sS'CACCGA'
p2926
I416
sS'CACCGC'
p2927
I1143
sS'GACCTT'
p2928
I585
sS'GGACGC'
p2929
I80
sS'GGACGG'
p2930
I68
sS'GCATAA'
p2931
I70
sS'CACAGC'
p2932
I3305
sS'CTTATC'
p2933
I273
sS'CACAGA'
p2934
I2829
sS'CTTATA'
p2935
I612
sS'CACAGG'
p2936
I3381
sS'CTTATG'
p2937
I750
sS'ACTCAT'
p2938
I68
sS'GAGGAG'
p2939
I2012
sS'GACGTA'
p2940
I503
sS'CGTATC'
p2941
I73
sS'GACGTC'
p2942
I511
sS'GAGGAC'
p2943
I938
sS'GAGGAA'
p2944
I1150
sS'GACGTG'
p2945
I1439
sS'TTAACA'
p2946
I440
sS'ACTCAC'
p2947
I378
sS'TTAACC'
p2948
I327
sS'ACTCAA'
p2949
I293
sS'ACTCAG'
p2950
I504
sS'CTTATT'
p2951
I153
sS'CACAGT'
p2952
I1170
sS'AGCGAC'
p2953
I337
sS'TAAACA'
p2954
I1514
sS'AGCGAA'
p2955
I240
sS'TAAACC'
p2956
I451
sS'AGCGAG'
p2957
I606
sS'CGTATT'
p2958
I31
sS'TAAACG'
p2959
I124
sS'AGTTCC'
p2960
I1106
sS'GTATGT'
p2961
I259
sS'AGTTCA'
p2962
I1312
sS'TACTTA'
p2963
I3997
sS'CTGTGC'
p2964
I1406
sS'CTGTGA'
p2965
I1201
sS'CGGGGT'
p2966
I44
sS'TAGGAC'
p2967
I324
sS'GCAAAG'
p2968
I221
sS'TAGGAA'
p2969
I344
sS'GCAAAA'
p2970
I128
sS'TAGGAG'
p2971
I467
sS'GCAAAC'
p2972
I167
sS'CGGGGC'
p2973
I360
sS'CGGGGA'
p2974
I207
sS'CTGTGT'
p2975
I822
sS'CGGGGG'
p2976
I253
sS'GTATGC'
p2977
I307
sS'AGCTCG'
p2978
I858
sS'GCAAAT'
p2979
I73
sS'CGAGAA'
p2980
I19
sS'TAGGAT'
p2981
I45
sS'AAAAAT'
p2982
I139
sS'CTATTT'
p2983
I185
sS'TGCTTT'
p2984
I1316
sS'GTCTAT'
p2985
I305
sS'GTAATT'
p2986
I86
sS'GTTACC'
p2987
I456
sS'TATCGG'
p2988
I171
sS'GTTTTT'
p2989
I341
sS'GTTACG'
p2990
I113
sS'TATCGC'
p2991
I196
sS'TATAGT'
p2992
I382
sS'GTCTAA'
p2993
I1136
sS'TGCTTA'
p2994
I4081
sS'TTCAAG'
p2995
I1739
sS'TGCTTC'
p2996
I3556
sS'TTCAAA'
p2997
I1959
sS'TTCAAC'
p2998
I1301
sS'TGCTTG'
p2999
I5164
sS'TATAGC'
p3000
I618
sS'TATCGT'
p3001
I78
sS'TATAGA'
p3002
I810
sS'AGTGGG'
p3003
I763
sS'TATAGG'
p3004
I761
sS'GTTACT'
p3005
I238
sS'GCTCTC'
p3006
I560
sS'GCTCTA'
p3007
I705
sS'CCAAGT'
p3008
I131
sS'GCTCTG'
p3009
I2080
sS'CCACGT'
p3010
I23
sS'GGAAAG'
p3011
I273
sS'AGGACC'
p3012
I680
sS'GAATGG'
p3013
I610
sS'GAATGA'
p3014
I650
sS'ACTACT'
p3015
I104
sS'GAATGC'
p3016
I510
sS'CCACGA'
p3017
I20
sS'GGCGTC'
p3018
I291
sS'CCACGC'
p3019
I49
sS'GGCGTA'
p3020
I289
sS'AACCTC'
p3021
I1347
sS'CCACGG'
p3022
I55
sS'GCTCTT'
p3023
I133
sS'GGCTTA'
p3024
I2338
sS'ACTACC'
p3025
I212
sS'GGCTTC'
p3026
I2606
sS'ACTACA'
p3027
I412
sS'ACTACG'
p3028
I89
sS'GGCTTG'
p3029
I3889
sS'TCCTAG'
p3030
I1140
sS'TAACAA'
p3031
I146
sS'CGTTGC'
p3032
I458
sS'TAACAC'
p3033
I112
sS'TCCTAC'
p3034
I951
sS'AGTCAC'
p3035
I960
sS'TCCTAA'
p3036
I1185
sS'AGTCAA'
p3037
I588
sS'TCATCG'
p3038
I50
sS'TGAGGG'
p3039
I218
sS'TCATCC'
p3040
I299
sS'GTTTTA'
p3041
I2504
sS'TCATCA'
p3042
I283
sS'AGTCAT'
p3043
I201
sS'TCCTAT'
p3044
I309
sS'TAACAT'
p3045
I32
sS'CGTTGT'
p3046
I178
sS'GTTTTG'
p3047
I3006
sS'CTTTCA'
p3048
I1733
sS'CTTTCG'
p3049
I398
sS'AAAAAG'
p3050
I480
sS'GTTGAT'
p3051
I67
sS'CGACCA'
p3052
I25
sS'CGACCC'
p3053
I32
sS'GCATAC'
p3054
I61
sS'CGACCG'
p3055
I9
sS'CCTTAT'
p3056
I132
sS'GTTGAC'
p3057
I358
sS'GTTGAA'
p3058
I256
sS'ACTGGG'
p3059
I473
sS'GTTGAG'
p3060
I371
sS'CCTTAC'
p3061
I353
sS'TTCGAT'
p3062
I36
sS'CCTTAA'
p3063
I478
sS'CCTTAG'
p3064
I446
sS'CGACCT'
p3065
I13
sS'AATAGA'
p3066
I1028
sS'AATAGC'
p3067
I791
sS'CAACTG'
p3068
I283
sS'AATAGG'
p3069
I926
sS'TCGCTC'
p3070
I77
sS'GGGGTT'
p3071
I68
sS'GGATGT'
p3072
I77
sS'AATAGT'
p3073
I376
sS'CCAAGA'
p3074
I228
sS'CAACTT'
p3075
I21
sS'ACTGTA'
p3076
I660
sS'GGGGTG'
p3077
I565
sS'GGATGA'
p3078
I137
sS'GGATGG'
p3079
I183
sS'GGGGTA'
p3080
I221
sS'TCTCCG'
p3081
I177
sS'GAGTCC'
p3082
I1819
sS'GAGTCA'
p3083
I2505
sS'TCTCCC'
p3084
I534
sS'CCCTTT'
p3085
I737
sS'TCTCCA'
p3086
I474
sS'AAACTC'
p3087
I160
sS'CTATGA'
p3088
I397
sS'AGTACG'
p3089
I141
sS'CTATGC'
p3090
I343
sS'AGTACC'
p3091
I427
sS'ACGCGG'
p3092
I88
sS'AGTACA'
p3093
I631
sS'CCCTTA'
p3094
I2362
sS'CCCTTC'
p3095
I2493
sS'TCTCCT'
p3096
I181
sS'CCCTTG'
p3097
I3519
sS'AGTACT'
p3098
I276
sS'CTATGT'
p3099
I225
sS'GCCGAA'
p3100
I161
sS'GTGGAG'
p3101
I494
sS'GCCGAC'
p3102
I278
sS'GTGGAC'
p3103
I222
sS'GCCGAG'
p3104
I583
sS'GTGGAA'
p3105
I236
sS'TATCAT'
p3106
I193
sS'GTGGAT'
p3107
I44
sS'ACGAAC'
p3108
I34
sS'AGATAG'
p3109
I63
sS'CACTGT'
p3110
I1669
sS'ACCGAG'
p3111
I228
sS'AAATCG'
p3112
I40
sS'CACGCG'
p3113
I330
sS'TTATCG'
p3114
I61
sS'CACGCA'
p3115
I672
sS'AAATCC'
p3116
I336
sS'CACGCC'
p3117
I986
sS'AAATCA'
p3118
I387
sS'GGCTTT'
p3119
I673
sS'CTCGTT'
p3120
I112
sS'CACGCT'
p3121
I222
sS'AAATCT'
p3122
I137
sS'ACCGAT'
p3123
I19
sS'GTAGTT'
p3124
I49
sS'AGATAA'
p3125
I107
sS'CGTTAT'
p3126
I52
sS'GATGAT'
p3127
I212
sS'GGAGCA'
p3128
I170
sS'GGAGCC'
p3129
I280
sS'CCGGCT'
p3130
I74
sS'CCAAAT'
p3131
I36
sS'GGAGCG'
p3132
I72
sS'AAAACT'
p3133
I201
sS'GATGAC'
p3134
I1020
sS'GATGAA'
p3135
I988
sS'GATGAG'
p3136
I1294
sS'AAAACC'
p3137
I477
sS'CCAAAC'
p3138
I109
sS'AAAACG'
p3139
I123
sS'GGAGCT'
p3140
I59
sS'CCAAAG'
p3141
I157
sS'TCGCGG'
p3142
I82
sS'CTAGAG'
p3143
I132
sS'TCGCGC'
p3144
I85
sS'TCGCGA'
p3145
I47
sS'GCCACA'
p3146
I1577
sS'AGATCA'
p3147
I218
sS'GCCACC'
p3148
I1782
sS'AGAAAT'
p3149
I135
sS'CGACGG'
p3150
I32
sS'GCCACG'
p3151
I603
sS'AGATCG'
p3152
I44
sS'ATGTCA'
p3153
I695
sS'GGACCG'
p3154
I20
sS'GTGCAA'
p3155
I360
sS'ACCCGT'
p3156
I67
sS'AGAAAG'
p3157
I448
sS'CGACGA'
p3158
I17
sS'TACCCG'
p3159
I283
sS'AGAAAC'
p3160
I319
sS'TACCCA'
p3161
I1020
sS'AGAAAA'
p3162
I356
sS'TACCCC'
p3163
I675
sS'ATGTAC'
p3164
I218
sS'GACCGA'
p3165
I658
sS'ATGTAA'
p3166
I288
sS'ATGTAG'
p3167
I224
sS'GAGGAT'
p3168
I176
sS'CTACCA'
p3169
I147
sS'ATTAGG'
p3170
I402
sS'CCCAAG'
p3171
I854
sS'ATGTCG'
p3172
I92
sS'ATGTAT'
p3173
I113
sS'ATTAGA'
p3174
I422
sS'ATTAGC'
p3175
I335
sS'ATCCAT'
p3176
I101
sS'AGCACT'
p3177
I1065
sS'TTAGAA'
p3178
I101
sS'CGGCTG'
p3179
I820
sS'TTAGAC'
p3180
I88
sS'CGGCTC'
p3181
I330
sS'TTAGAG'
p3182
I110
sS'CGGCTA'
p3183
I210
sS'AGCACC'
p3184
I1812
sS'AGCACA'
p3185
I2132
sS'AGCACG'
p3186
I654
sS'CGGCTT'
p3187
I60
sS'TTAGAT'
p3188
I33
sS'CCAGCA'
p3189
I218
sS'CGAAGC'
p3190
I120
sS'CCAGCC'
p3191
I349
sS'AAAGAG'
p3192
I325
sS'ATATCA'
p3193
I263
sS'CGACGT'
p3194
I4
sS'TTATTT'
p3195
I217
sS'TGTGAG'
p3196
I824
sS'TGTGAA'
p3197
I531
sS'ACGTCT'
p3198
I50
sS'TGTGAC'
p3199
I610
sS'ATATCT'
p3200
I139
sS'CCAGCT'
p3201
I77
sS'CACGGT'
p3202
I156
sS'AAAGAT'
p3203
I51
sS'TGTGAT'
p3204
I160
sS'TTATTG'
p3205
I816
sS'TTATTA'
p3206
I896
sS'CATGAT'
p3207
I103
sS'TTATTC'
p3208
I361
sS'ACATCT'
p3209
I94
sS'TTTTAT'
p3210
I272
sS'GCGAAC'
p3211
I55
sS'TACAAG'
p3212
I1389
sS'AGACGC'
p3213
I71
sS'TACAAA'
p3214
I1857
sS'AGACGA'
p3215
I52
sS'TACAAC'
p3216
I1159
sS'CCTCTG'
p3217
I1971
sS'AGGTGG'
p3218
I1030
sS'CCTCTC'
p3219
I698
sS'AGGTGC'
p3220
I595
sS'CCTCTA'
p3221
I806
sS'AGGTGA'
p3222
I641
sS'CTTACG'
p3223
I139
sS'TCCACA'
p3224
I1503
sS'TTTTAG'
p3225
I661
sS'ACATCG'
p3226
I57
sS'TTTTAA'
p3227
I1502
sS'ACATCA'
p3228
I220
sS'CTTACA'
p3229
I633
sS'TCCACG'
p3230
I517
sS'AGGTGT'
p3231
I332
sS'CCTCTT'
p3232
I158
sS'CGTCGG'
p3233
I302
sS'CCCGGC'
p3234
I841
sS'CCCGGA'
p3235
I405
sS'CCCGGG'
p3236
I981
sS'TATGAA'
p3237
I582
sS'TGGAAT'
p3238
I155
sS'AATTAA'
p3239
I1135
sS'TTGTGC'
p3240
I680
sS'TTGTGA'
p3241
I740
sS'TTGTGG'
p3242
I1037
sS'CCCGGT'
p3243
I111
sS'TGGAAG'
p3244
I641
sS'TGGAAC'
p3245
I338
sS'TGGAAA'
p3246
I416
sS'TGAGGA'
p3247
I176
sS'AAGAGG'
p3248
I2024
sS'TGAGGC'
p3249
I192
sS'AAGAGA'
p3250
I1555
sS'AAGAGC'
p3251
I1218
sS'AAGCGT'
p3252
I105
sS'GCTTAG'
p3253
I444
sS'GCTTAC'
p3254
I303
sS'GCTTAA'
p3255
I406
sS'TCTGAT'
p3256
I58
sS'AAGCGC'
p3257
I458
sS'AAGAGT'
p3258
I428
sS'AAGCGA'
p3259
I321
sS'AAGCGG'
p3260
I526
sS'GCTTAT'
p3261
I104
sS'CTGCTA'
p3262
I1344
sS'GCGTGT'
p3263
I108
sS'CTGCTC'
p3264
I1694
sS'ACTTCT'
p3265
I298
sS'GACCGT'
p3266
I266
sS'CTGCTG'
p3267
I4131
sS'CGGTCA'
p3268
I177
sS'GGTCGT'
p3269
I64
sS'CGGTCC'
p3270
I317
sS'CTAGAA'
p3271
I90
sS'CTAGAC'
p3272
I95
sS'ACTTCG'
p3273
I175
sS'GACCGC'
p3274
I1160
sS'ACTTCC'
p3275
I841
sS'CTGCTT'
p3276
I605
sS'GACCGG'
p3277
I1126
sS'CTAGAT'
p3278
I22
sS'GGTCGG'
p3279
I371
sS'CGGTCT'
p3280
I75
sS'GGTCGC'
p3281
I323
sS'GGTCGA'
p3282
I146
sS'CGTCGC'
p3283
I349
sS'GCGTGG'
p3284
I273
sS'GCGTGA'
p3285
I121
sS'GCGTGC'
p3286
I200
sS'TGCTCA'
p3287
I2709
sS'TTCATC'
p3288
I1252
sS'TGCTCC'
p3289
I2846
sS'TTCATA'
p3290
I2211
sS'TTCATG'
p3291
I2735
sS'TGCTCG'
p3292
I686
sS'GTACAA'
p3293
I57
sS'CAGCAG'
p3294
I836
sS'TACACT'
p3295
I930
sS'GCGGCT'
p3296
I71
sS'CAGCAC'
p3297
I578
sS'CAGCAA'
p3298
I484
sS'GGGAGT'
p3299
I295
sS'GTACAC'
p3300
I72
sS'TGCTCT'
p3301
I1305
sS'TTCATT'
p3302
I783
sS'GCTTTA'
p3303
I1709
sS'GCTGCC'
p3304
I651
sS'GCTGCA'
p3305
I577
sS'AACTCT'
p3306
I1157
sS'TGGCCC'
p3307
I677
sS'TGGCCA'
p3308
I630
sS'GTAGCA'
p3309
I183
sS'TCATCT'
p3310
I148
sS'AACTCA'
p3311
I2666
sS'TGGCCT'
p3312
I279
sS'AACTCC'
p3313
I2506
sS'GCTGCT'
p3314
I215
sS'AACTCG'
p3315
I581
sS'CAGTCG'
p3316
I223
sS'TGAAGA'
p3317
I393
sS'AATATT'
p3318
I231
sS'GTTCGA'
p3319
I138
sS'CAACCT'
p3320
I43
sS'CAGTTA'
p3321
I1246
sS'TGGCCG'
p3322
I210
sS'GGCACG'
p3323
I452
sS'GGAGGA'
p3324
I217
sS'GGCACA'
p3325
I1325
sS'GACAAT'
p3326
I476
sS'GGCACC'
p3327
I1219
sS'CAACCG'
p3328
I32
sS'CAGAAA'
p3329
I557
sS'AATATG'
p3330
I1102
sS'CGGTCG'
p3331
I76
sS'AATATA'
p3332
I1126
sS'TTAGGA'
p3333
I142
sS'AATATC'
p3334
I390
sS'CTTCGT'
p3335
I90
sS'GACAAA'
p3336
I2229
sS'GGCACT'
p3337
I569
sS'GACAAC'
p3338
I1531
sS'CAGAAC'
p3339
I567
sS'GACAAG'
p3340
I2216
sS'GCTGCG'
p3341
I291
sS'GCTTTT'
p3342
I315
sS'GCAATA'
p3343
I201
sS'GCAATG'
p3344
I345
sS'CGATGG'
p3345
I47
sS'TCCCAT'
p3346
I150
sS'CGATGC'
p3347
I36
sS'CAGCAT'
p3348
I103
sS'CGATGA'
p3349
I36
sS'GAATTA'
p3350
I655
sS'GAATTC'
p3351
I310
sS'GAATTG'
p3352
I649
sS'TCCCAA'
p3353
I574
sS'CTACAC'
p3354
I70
sS'TCCCAC'
p3355
I689
sS'GTAAAG'
p3356
I252
sS'TCCCAG'
p3357
I1133
sS'GGATTT'
p3358
I33
sS'GTGCGT'
p3359
I110
sS'CTCGAT'
p3360
I37
sS'GGATTC'
p3361
I85
sS'GGATTA'
p3362
I271
sS'GGATTG'
p3363
I212
sS'AGCGGC'
p3364
I788
sS'ACGCCA'
p3365
I76
sS'ACGTTC'
p3366
I94
sS'ATATAG'
p3367
I90
sS'TCTGTG'
p3368
I1625
sS'TCTGTC'
p3369
I466
sS'TCTGTA'
p3370
I905
sS'GGCGGC'
p3371
I1031
sS'CTCCTT'
p3372
I806
sS'GGCGGA'
p3373
I545
sS'GGCGGG'
p3374
I1723
sS'AACCGA'
p3375
I380
sS'GTGGGA'
p3376
I537
sS'TCTGTT'
p3377
I119
sS'AAAGCG'
p3378
I132
sS'CTCCTG'
p3379
I5517
sS'AACCGT'
p3380
I180
sS'CTCCTA'
p3381
I2426
sS'CTCCTC'
p3382
I3299
sS'GGCGGT'
p3383
I180
sS'GACGCA'
p3384
I909
sS'GACGCC'
p3385
I1299
sS'AACAAC'
p3386
I1590
sS'GACGCG'
p3387
I783
sS'ATAGCA'
p3388
I168
sS'AGCCTT'
p3389
I559
sS'CCGATT'
p3390
I14
sS'CCCACT'
p3391
I572
sS'AACAAT'
p3392
I537
sS'GACGCT'
p3393
I453
sS'AGCGGT'
p3394
I141
sS'CCGATA'
p3395
I38
sS'AGCCTG'
p3396
I4479
sS'AGCCTA'
p3397
I1686
sS'AGCCTC'
p3398
I2196
sS'GTACCC'
p3399
I89
sS'GTGCGC'
p3400
I385
sS'TGGTTA'
p3401
I819
sS'CGCCTT'
p3402
I244
sS'GCGCCT'
p3403
I80
sS'CAGAGT'
p3404
I409
sS'GCATCT'
p3405
I92
sS'CTCCCA'
p3406
I2308
sS'GAGTTG'
p3407
I2180
sS'CGCCTC'
p3408
I1236
sS'GCGCCA'
p3409
I108
sS'CGCCTA'
p3410
I651
sS'AGGCAG'
p3411
I829
sS'CGCCTG'
p3412
I2120
sS'GAGTTA'
p3413
I1575
sS'CAGAGG'
p3414
I1865
sS'GCATCC'
p3415
I238
sS'GCATCA'
p3416
I217
sS'CAGAGC'
p3417
I1345
sS'AAAATT'
p3418
I69
sS'CAGAGA'
p3419
I1281
sS'AATCAT'
p3420
I268
sS'TAGCTA'
p3421
I739
sS'CCGATC'
p3422
I19
sS'AGACTC'
p3423
I108
sS'CCTAGA'
p3424
I352
sS'CCTAGC'
p3425
I364
sS'TTTGCT'
p3426
I241
sS'TAGCTC'
p3427
I467
sS'TGCGGT'
p3428
I126
sS'CCTAGG'
p3429
I538
sS'TAAGCA'
p3430
I405
sS'GTCTAG'
p3431
I1060
sS'TTTGCA'
p3432
I694
sS'TGCGGA'
p3433
I290
sS'CCTAGT'
p3434
I147
sS'TGCGGG'
p3435
I645
sS'TTTGCG'
p3436
I125
sS'TGAGTT'
p3437
I32
sS'CGGGAC'
p3438
I139
sS'ATCGCT'
p3439
I85
sS'TAATCT'
p3440
I155
sS'TCTCGT'
p3441
I59
sS'ATCGCC'
p3442
I205
sS'TGAGTG'
p3443
I345
sS'ATCGCA'
p3444
I164
sS'TGAGTA'
p3445
I252
sS'ATCGCG'
p3446
I102
sS'TGAGTC'
p3447
I156
sS'AAGGTG'
p3448
I1042
sS'AAGGTC'
p3449
I379
sS'CATCAT'
p3450
I198
sS'AAGGTA'
p3451
I692
sS'ACGGCA'
p3452
I90
sS'CATCAC'
p3453
I917
sS'ACGGCC'
p3454
I120
sS'CATCAA'
p3455
I754
sS'CATCAG'
p3456
I941
sS'ACGGCG'
p3457
I54
sS'TCACCT'
p3458
I41
sS'TCGTTT'
p3459
I34
sS'CGGAAT'
p3460
I26
sS'CAATTC'
p3461
I133
sS'GTGGCT'
p3462
I288
sS'ATCGAT'
p3463
I16
sS'TCACCG'
p3464
I37
sS'TCACCA'
p3465
I116
sS'TCACCC'
p3466
I101
sS'CGGAAG'
p3467
I307
sS'CAACCC'
p3468
I125
sS'AAAATA'
p3469
I717
sS'CGGAAC'
p3470
I150
sS'CGGAAA'
p3471
I108
sS'TAGCTT'
p3472
I140
sS'ATGGCG'
p3473
I105
sS'TGTGTA'
p3474
I1356
sS'CCGTAG'
p3475
I39
sS'TGTGTG'
p3476
I2994
sS'ATGGCA'
p3477
I463
sS'TTACTT'
p3478
I58
sS'TTCAGA'
p3479
I2294
sS'CTGGCG'
p3480
I254
sS'ATGGCT'
p3481
I120
sS'TGTGTT'
p3482
I212
sS'GCGGTC'
p3483
I60
sS'AGATTA'
p3484
I315
sS'GAAACG'
p3485
I225
sS'GAAACA'
p3486
I887
sS'GAAACC'
p3487
I697
sS'ATGCAT'
p3488
I66
sS'AGATAC'
p3489
I72
sS'CTGAGT'
p3490
I349
sS'GAAACT'
p3491
I299
sS'AGAATG'
p3492
I637
sS'AGAATA'
p3493
I395
sS'AGAATC'
p3494
I150
sS'CTGAGC'
p3495
I787
sS'CTGAGA'
p3496
I746
sS'CTGAGG'
p3497
I1240
sS'CATACC'
p3498
I596
sS'CATACA'
p3499
I883
sS'CATACG'
p3500
I142
sS'GCAATC'
p3501
I62
sS'TCAAAT'
p3502
I69
sS'GTCCAT'
p3503
I132
sS'AGGGGT'
p3504
I125
sS'CAGGAC'
p3505
I441
sS'CATACT'
p3506
I311
sS'AATGGC'
p3507
I658
sS'GTCCAG'
p3508
I1055
sS'TCAAAG'
p3509
I151
sS'CACGAG'
p3510
I346
sS'GTCCAC'
p3511
I706
sS'GTCCAA'
p3512
I632
sS'CGGCGG'
p3513
I417
sS'TTGATG'
p3514
I677
sS'CTCATT'
p3515
I550
sS'CGGCGC'
p3516
I313
sS'TTGATC'
p3517
I143
sS'CGGCGA'
p3518
I123
sS'TTGATA'
p3519
I416
sS'AAACTG'
p3520
I514
sS'TTGATT'
p3521
I92
sS'CGAGTG'
p3522
I104
sS'ATGGCC'
p3523
I373
sS'GTACGC'
p3524
I33
sS'ATCCCG'
p3525
I231
sS'ATCGAC'
p3526
I86
sS'CCATTA'
p3527
I329
sS'TGACTT'
p3528
I24
sS'CGAGTA'
p3529
I39
sS'CGGTTA'
p3530
I178
sS'GGTTTA'
p3531
I1304
sS'CGGTTC'
p3532
I137
sS'GCTGTT'
p3533
I120
sS'TTTACA'
p3534
I1047
sS'CGGTTG'
p3535
I291
sS'GGTTTG'
p3536
I1921
sS'CCATTG'
p3537
I431
sS'TTCAGT'
p3538
I1203
sS'GCTGTG'
p3539
I1628
sS'ACCTAA'
p3540
I628
sS'GCTGTC'
p3541
I336
sS'GTAAAT'
p3542
I95
sS'GCTGTA'
p3543
I688
sS'CCATAA'
p3544
I56
sS'TATGCG'
p3545
I124
sS'AGGTTG'
p3546
I971
sS'AGGTTC'
p3547
I385
sS'AGGTTA'
p3548
I783
sS'TCCATA'
p3549
I1068
sS'TTTTTC'
p3550
I1361
sS'TCCATC'
p3551
I819
sS'TTTTTA'
p3552
I3433
sS'TTTTTG'
p3553
I2870
sS'GAGGGG'
p3554
I2224
sS'TTAAAT'
p3555
I132
sS'AGGTTT'
p3556
I195
sS'TAAGCG'
p3557
I73
sS'TATGCC'
p3558
I571
sS'TTAAAC'
p3559
I296
sS'ATACGT'
p3560
I11
sS'TTAAAA'
p3561
I441
sS'ACTCCG'
p3562
I114
sS'TTAAAG'
p3563
I346
sS'GAGGGT'
p3564
I358
sS'TTTTTT'
p3565
I624
sS'ACTCCC'
p3566
I264
sS'CTGTAA'
p3567
I406
sS'GTCACG'
p3568
I641
sS'CTGTAC'
p3569
I333
sS'GCAACT'
p3570
I89
sS'GTCACC'
p3571
I1893
sS'CTGTAG'
p3572
I405
sS'GTCACA'
p3573
I1945
sS'AGGGAT'
p3574
I67
sS'GGTCTT'
p3575
I98
sS'GTCACT'
p3576
I991
sS'TAGGCG'
p3577
I205
sS'GCAACC'
p3578
I207
sS'TAGGCA'
p3579
I742
sS'GCAACA'
p3580
I255
sS'TAGGCC'
p3581
I578
sS'CGATGT'
p3582
I24
sS'ATTCAT'
p3583
I95
sS'GTAAAA'
p3584
I258
sS'GCGATT'
p3585
I11
sS'TCGTGT'
p3586
I72
sS'TTCACT'
p3587
I1107
sS'GTCTCT'
p3588
I1464
sS'AACATT'
p3589
I480
sS'ATTCAG'
p3590
I413
sS'ATATTA'
p3591
I601
sS'ATTCAA'
p3592
I379
sS'ATTCAC'
p3593
I333
sS'TTCACG'
p3594
I522
sS'CCACTA'
p3595
I132
sS'TCGTGG'
p3596
I166
sS'GCGATG'
p3597
I135
sS'GTCTCG'
p3598
I1018
sS'GCGATA'
p3599
I54
sS'TTCACA'
p3600
I2234
sS'GCGATC'
p3601
I24
sS'GAAGGC'
p3602
I592
sS'GAAGGA'
p3603
I729
sS'CGATTC'
p3604
I28
sS'CGATTA'
p3605
I35
sS'GGAACC'
p3606
I258
sS'AGACTT'
p3607
I42
sS'GGAACA'
p3608
I260
sS'GGAACG'
p3609
I98
sS'ATAGTA'
p3610
I190
sS'CGATTT'
p3611
I11
sS'GAAGGT'
p3612
I125
sS'CAATCG'
p3613
I63
sS'CAATCA'
p3614
I309
sS'CAATCC'
p3615
I278
sS'TCCTGA'
p3616
I2415
sS'AGTCCA'
p3617
I569
sS'TCCTGC'
p3618
I3773
sS'ACTAAG'
p3619
I322
sS'ACTAAA'
p3620
I277
sS'TCCTGG'
p3621
I3948
sS'ACTAAC'
p3622
I242
sS'TAACGC'
p3623
I79
sS'CAGCTG'
p3624
I2208
sS'TAACGG'
p3625
I66
sS'CAGCTC'
p3626
I868
sS'ACTAAT'
p3627
I62
sS'CGACTC'
p3628
I14
sS'AGTCCT'
p3629
I225
sS'TCCTGT'
p3630
I1645
sS'TAATGT'
p3631
I239
sS'CAGCTT'
p3632
I204
sS'TAACGT'
p3633
I26
sS'TTGACC'
p3634
I402
sS'GTACTT'
p3635
I32
sS'CGACAT'
p3636
I3
sS'TTGTTC'
p3637
I753
sS'CCGAGG'
p3638
I284
sS'TTGTTG'
p3639
I1702
sS'AGGAAG'
p3640
I1223
sS'CCGAGC'
p3641
I139
sS'CCGCGT'
p3642
I16
sS'CGACAC'
p3643
I18
sS'CGACAA'
p3644
I8
sS'CGACAG'
p3645
I14
sS'GTACTA'
p3646
I180
sS'CCGCGC'
p3647
I169
sS'CCGAGT'
p3648
I43
sS'CCGCGA'
p3649
I66
sS'CCGCGG'
p3650
I166
sS'TTGTTT'
p3651
I498
sS'TCCGTT'
p3652
I86
sS'AGCCAA'
p3653
I1300
sS'AATAAC'
p3654
I893
sS'AATAAA'
p3655
I1794
sS'AATAAG'
p3656
I1099
sS'AAGGCT'
p3657
I399
sS'AATAAT'
p3658
I331
sS'ACGGTG'
p3659
I130
sS'CCAACC'
p3660
I258
sS'CCAACA'
p3661
I187
sS'TTATGC'
p3662
I249
sS'CCAACG'
p3663
I62
sS'GGGATT'
p3664
I95
sS'CGCCGC'
p3665
I2157
sS'AGTAAA'
p3666
I791
sS'CGCCGA'
p3667
I477
sS'AGTAAC'
p3668
I599
sS'CGCCGG'
p3669
I1202
sS'GAGTAA'
p3670
I719
sS'GAGTAC'
p3671
I455
sS'CTCAGG'
p3672
I3492
sS'CTCAGC'
p3673
I3422
sS'CTCAGA'
p3674
I2530
sS'TATTGC'
p3675
I1375
sS'GCTTCA'
p3676
I862
sS'GTGTAG'
p3677
I345
sS'TCGAGC'
p3678
I66
sS'GTGTAA'
p3679
I392
sS'GTGTAC'
p3680
I352
sS'CGCCGT'
p3681
I175
sS'GTGGCA'
p3682
I822
sS'CTCGGG'
p3683
I956
sS'CTCGGA'
p3684
I372
sS'GTGGCG'
p3685
I279
sS'GCCGCC'
p3686
I1353
sS'GCCGCA'
p3687
I571
sS'GCCGCG'
p3688
I683
sS'ACACTT'
p3689
I30
sS'CATATG'
p3690
I953
sS'AGATAT'
p3691
I21
sS'CATATC'
p3692
I341
sS'CATATA'
p3693
I1011
sS'TCAGCA'
p3694
I202
sS'ACACTC'
p3695
I101
sS'ACACTA'
p3696
I125
sS'ACACTG'
p3697
I272
sS'GCCGCT'
p3698
I287
sS'ACCGGA'
p3699
I194
sS'AAATAA'
p3700
I318
sS'ACCGGC'
p3701
I262
sS'CTTTAG'
p3702
I761
sS'CTTTAA'
p3703
I1160
sS'ACCGGG'
p3704
I288
sS'AAATAG'
p3705
I162
sS'AACTTA'
p3706
I3083
sS'CAGGTA'
p3707
I463
sS'AACTTC'
p3708
I2504
sS'TTGACT'
p3709
I264
sS'CACGAC'
p3710
I275
sS'AACTTG'
p3711
I4354
sS'CAGGTG'
p3712
I877
sS'CTTTAT'
p3713
I245
sS'AATCCC'
p3714
I723
sS'GCTCGT'
p3715
I50
sS'AATCCA'
p3716
I676
sS'AAATAT'
p3717
I87
sS'ACCGGT'
p3718
I41
sS'TCAGCG'
p3719
I46
sS'CAGGTT'
p3720
I75
sS'AACTTT'
p3721
I764
sS'GGGATA'
p3722
I304
sS'GGGATC'
p3723
I149
sS'GGGTGT'
p3724
I260
sS'GGGATG'
p3725
I720
sS'GATGCT'
p3726
I392
sS'CGCAGT'
p3727
I356
sS'GAGCCT'
p3728
I592
sS'GGAGAC'
p3729
I95
sS'AACCGG'
p3730
I560
sS'GGAGAA'
p3731
I87
sS'GGGTGC'
p3732
I458
sS'GGAGAG'
p3733
I150
sS'GGGTGG'
p3734
I982
sS'GAGCCA'
p3735
I1545
sS'CGCAGG'
p3736
I1463
sS'GATGCG'
p3737
I355
sS'CGCAGA'
p3738
I716
sS'GATGCA'
p3739
I1053
sS'GAGCCG'
p3740
I733
sS'GATGCC'
p3741
I1008
sS'CGGATT'
p3742
I18
sS'GGTAGT'
p3743
I174
sS'ACCCCT'
p3744
I164
sS'GCCAAT'
p3745
I351
sS'AACCGC'
p3746
I699
sS'AGAGTC'
p3747
I129
sS'AGAAGT'
p3748
I236
sS'ACCCCA'
p3749
I589
sS'GGTAGA'
p3750
I465
sS'ACCCCC'
p3751
I417
sS'GGTAGC'
p3752
I381
sS'GCCAAG'
p3753
I1339
sS'CGGATA'
p3754
I91
sS'ACCCCG'
p3755
I224
sS'GGTAGG'
p3756
I682
sS'AGAAGA'
p3757
I548
sS'AGAAGC'
p3758
I522
sS'CAGTCT'
p3759
I469
sS'AGAAGG'
p3760
I845
sS'CACTCC'
p3761
I3224
sS'CACTCA'
p3762
I3196
sS'CACTCG'
p3763
I781
sS'TGCGTT'
p3764
I67
sS'CGGATG'
p3765
I223
sS'TCAGCT'
p3766
I61
sS'AGCTTT'
p3767
I954
sS'CCCCGG'
p3768
I723
sS'TGCGTA'
p3769
I340
sS'TGCGTG'
p3770
I996
sS'CACTCT'
p3771
I1310
sS'AGCTTC'
p3772
I3133
sS'AGCTTA'
p3773
I2988
sS'AGCTTG'
p3774
I4433
sS'ATACGA'
p3775
I29
sS'AGACCA'
p3776
I97
sS'AGAGTA'
p3777
I222
sS'TTAGCT'
p3778
I70
sS'TTAGCC'
p3779
I168
sS'TTAGCA'
p3780
I210
sS'CTAGCA'
p3781
I235
sS'TTAGCG'
p3782
I37
sS'GTATAG'
p3783
I102
sS'CTTCAT'
p3784
I136
sS'TCATAT'
p3785
I48
sS'AAGGGG'
p3786
I1151
sS'ATAAGG'
p3787
I277
sS'TGTGCT'
p3788
I254
sS'AAGGGC'
p3789
I912
sS'ATAAGC'
p3790
I191
sS'AAGGGA'
p3791
I996
sS'ATAAGA'
p3792
I274
sS'CCAGAC'
p3793
I66
sS'CCAGAA'
p3794
I55
sS'CCAGAG'
p3795
I91
sS'GCAAGT'
p3796
I131
sS'TGTGCG'
p3797
I237
sS'CTACCT'
p3798
I57
sS'ATAAGT'
p3799
I106
sS'ATAGGG'
p3800
I107
sS'TGTGCC'
p3801
I533
sS'ATAGGA'
p3802
I90
sS'TGTGCA'
p3803
I713
sS'CGGTAG'
p3804
I76
sS'TAAGTT'
p3805
I45
sS'ATACGC'
p3806
I37
sS'AGACCG'
p3807
I34
sS'CCAGAT'
p3808
I15
sS'AGACAA'
p3809
I77
sS'AACAAG'
p3810
I1790
sS'CGTGGT'
p3811
I95
sS'AGACAG'
p3812
I114
sS'ACGAGA'
p3813
I83
sS'TTTTCT'
p3814
I668
sS'CGCTGT'
p3815
I508
sS'CCCACG'
p3816
I512
sS'CGTGGG'
p3817
I408
sS'AGACAT'
p3818
I19
sS'CGTGGA'
p3819
I215
sS'TTTTCG'
p3820
I230
sS'CCCACA'
p3821
I1425
sS'CGCTGC'
p3822
I2164
sS'TTTTCC'
p3823
I1487
sS'TTTTCA'
p3824
I1411
sS'CGCTGG'
p3825
I1719
sS'TATGGA'
p3826
I476
sS'TATGGC'
p3827
I470
sS'CGTAGG'
p3828
I251
sS'CCCACC'
p3829
I1992
sS'TATGGG'
p3830
I603
sS'CGTAGC'
p3831
I230
sS'TACCGT'
p3832
I144
sS'TGGACT'
p3833
I261
sS'CGTAGT'
p3834
I90
sS'TATGGT'
p3835
I150
sS'TGGACA'
p3836
I512
sS'TGGACC'
p3837
I395
sS'TGGACG'
p3838
I167
sS'CCGGTT'
p3839
I13
sS'CTAGCT'
p3840
I74
sS'GCTTGA'
p3841
I615
sS'TGAGAC'
p3842
I107
sS'GCTTGC'
p3843
I736
sS'TGAGAA'
p3844
I106
sS'TGAGAG'
p3845
I127
sS'GCTTGG'
p3846
I1012
sS'CCTGTT'
p3847
I113
sS'CCGGTG'
p3848
I171
sS'CCGGTC'
p3849
I41
sS'ACTTAT'
p3850
I80
sS'CCTGTC'
p3851
I333
sS'CCTGTA'
p3852
I707
sS'CCTGTG'
p3853
I1312
sS'TATCAA'
p3854
I606
sS'TGAGAT'
p3855
I27
sS'ATCGTA'
p3856
I177
sS'GGTTGT'
p3857
I318
sS'TAAACT'
p3858
I284
sS'CGTCTG'
p3859
I770
sS'ACAATA'
p3860
I266
sS'GGTTGG'
p3861
I981
sS'GGTTGA'
p3862
I645
sS'GGTTGC'
p3863
I803
sS'GAAAGT'
p3864
I311
sS'TCCCGC'
p3865
I988
sS'TCCCGA'
p3866
I397
sS'TCCCGG'
p3867
I1004
sS'TGCTAT'
p3868
I401
sS'CGTTTT'
p3869
I121
sS'ATTCTC'
p3870
I400
sS'AGGGAA'
p3871
I290
sS'ATTCTA'
p3872
I574
sS'ATTCTG'
p3873
I1092
sS'TCATTT'
p3874
I101
sS'CAGCGA'
p3875
I280
sS'CAGCGC'
p3876
I526
sS'TGCTAG'
p3877
I1178
sS'CAGCGG'
p3878
I532
sS'AGGATC'
p3879
I232
sS'TCATTC'
p3880
I293
sS'CGTTTG'
p3881
I913
sS'CGTTTA'
p3882
I643
sS'ATTCTT'
p3883
I129
sS'CGTTTC'
p3884
I481
sS'CCACTC'
p3885
I65
sS'TGGCAA'
p3886
I253
sS'TGGCAC'
p3887
I299
sS'TGGCAG'
p3888
I447
sS'GCTGAG'
p3889
I701
sS'GCTGAA'
p3890
I287
sS'GCTGAC'
p3891
I337
sS'TGGCAT'
p3892
I85
sS'GGCCGG'
p3893
I1422
sS'GTTCAA'
p3894
I393
sS'CCGATG'
p3895
I90
sS'GGCCGC'
p3896
I1630
sS'GAACTT'
p3897
I62
sS'GGCCGA'
p3898
I584
sS'GGCAAT'
p3899
I205
sS'CTGATT'
p3900
I122
sS'CCATCG'
p3901
I52
sS'CTAAAT'
p3902
I83
sS'CCATCC'
p3903
I321
sS'CCATCA'
p3904
I201
sS'GGCAAG'
p3905
I1259
sS'CTGATA'
p3906
I489
sS'TGGTTG'
p3907
I972
sS'CTGATG'
p3908
I924
sS'GGCAAA'
p3909
I923
sS'CTAAAG'
p3910
I206
sS'CCATCT'
p3911
I155
sS'CTAAAC'
p3912
I186
sS'TTGCGT'
p3913
I44
sS'GACACC'
p3914
I2183
sS'GACACA'
p3915
I3129
sS'GACACG'
p3916
I858
sS'TGGTTC'
p3917
I431
sS'TTCACC'
p3918
I1703
sS'AATTCT'
p3919
I584
sS'TACGAG'
p3920
I244
sS'TACGAC'
p3921
I195
sS'GACACT'
p3922
I1283
sS'GGCGAT'
p3923
I36
sS'AGTCCG'
p3924
I189
sS'TGTTAC'
p3925
I724
sS'ACGCTG'
p3926
I257
sS'CTATTA'
p3927
I732
sS'CTATTC'
p3928
I330
sS'TCGATG'
p3929
I86
sS'TCGATA'
p3930
I35
sS'TCGATC'
p3931
I23
sS'GCATAT'
p3932
I30
sS'CGCGAA'
p3933
I139
sS'GCATTG'
p3934
I443
sS'GAACTG'
p3935
I666
sS'TCGATT'
p3936
I8
sS'GGATAA'
p3937
I45
sS'TCGGCA'
p3938
I65
sS'CAGCCT'
p3939
I394
sS'AGGCAC'
p3940
I406
sS'TTTTGA'
p3941
I1195
sS'AACCAA'
p3942
I1106
sS'TGCCGG'
p3943
I895
sS'AACCAC'
p3944
I1148
sS'TGCCGC'
p3945
I1012
sS'AACCAG'
p3946
I1199
sS'TGCCGA'
p3947
I396
sS'TTGGAC'
p3948
I166
sS'CCGTGC'
p3949
I182
sS'CGCGAG'
p3950
I362
sS'ATGATC'
p3951
I139
sS'GCGCCG'
p3952
I119
sS'TGCCGT'
p3953
I178
sS'AACCAT'
p3954
I213
sS'AACAGA'
p3955
I2653
sS'CTACCG'
p3956
I43
sS'AACAGC'
p3957
I2605
sS'ACGTCC'
p3958
I176
sS'AACAGG'
p3959
I2581
sS'ACGTCA'
p3960
I124
sS'GACGAC'
p3961
I496
sS'GCGGAA'
p3962
I48
sS'GACGAA'
p3963
I357
sS'CCCAAC'
p3964
I695
sS'CCCAAA'
p3965
I670
sS'GGGAGG'
p3966
I2075
sS'GGGAGA'
p3967
I846
sS'AACAGT'
p3968
I1074
sS'GGGAGC'
p3969
I838
sS'ACGAAG'
p3970
I78
sS'CCCAAT'
p3971
I188
sS'GACGAT'
p3972
I78
sS'GGGCGC'
p3973
I443
sS'GGGCGA'
p3974
I249
sS'GGGCGG'
p3975
I814
sS'TCTCTT'
p3976
I192
sS'AGGCAT'
p3977
I116
sS'CGTTAA'
p3978
I192
sS'CAGAAT'
p3979
I164
sS'GCATCG'
p3980
I41
sS'TCTCTC'
p3981
I832
sS'TCTCTA'
p3982
I1082
sS'TCTCTG'
p3983
I2093
sS'GGGCGT'
p3984
I94
sS'ACGACC'
p3985
I79
sS'ACGACA'
p3986
I47
sS'ACGACG'
p3987
I39
sS'CAGAAG'
p3988
I837
sS'CACTTT'
p3989
I1049
sS'CATATT'
p3990
I189
sS'CCTAAT'
p3991
I77
sS'TGATCG'
p3992
I23
sS'GTCATT'
p3993
I380
sS'CACTTG'
p3994
I4815
sS'CCTAAC'
p3995
I253
sS'CTACCC'
p3996
I174
sS'CCTAAA'
p3997
I232
sS'CACTTC'
p3998
I3418
sS'CCTAAG'
p3999
I327
sS'CACTTA'
p4000
I4011
sS'GCGGAT'
p4001
I7
sS'ACAGGA'
p4002
I146
sS'GTCCCC'
p4003
I1403
sS'AAGATT'
p4004
I126
sS'CTCATG'
p4005
I2479
sS'GACTCG'
p4006
I1285
sS'CTCATC'
p4007
I1225
sS'GACTCC'
p4008
I4042
sS'CTCATA'
p4009
I1738
sS'GACTCA'
p4010
I5357
sS'AAGATA'
p4011
I755
sS'CTCCAA'
p4012
I1012
sS'AAGATG'
p4013
I1183
sS'GACTCT'
p4014
I1801
sS'GTCCCG'
p4015
I682
sS'TTGAGA'
p4016
I536
sS'ATCGAA'
p4017
I70
sS'AACTAC'
p4018
I1302
sS'ATATTT'
p4019
I132
sS'ACGGTA'
p4020
I56
sS'GGACTC'
p4021
I44
sS'ATAGTT'
p4022
I32
sS'TACTGT'
p4023
I1405
sS'ATATTC'
p4024
I235
sS'ACGGTC'
p4025
I23
sS'ATATTG'
p4026
I526
sS'TACTGC'
p4027
I2456
sS'TACTGA'
p4028
I2447
sS'TACTGG'
p4029
I2236
sS'ATAGTG'
p4030
I207
sS'ATAGAC'
p4031
I55
sS'CAGGCA'
p4032
I1171
sS'CAGGCC'
p4033
I1350
sS'CATCCG'
p4034
I215
sS'AGGAAA'
p4035
I721
sS'CATCCA'
p4036
I739
sS'CAGGCG'
p4037
I372
sS'CATCCC'
p4038
I775
sS'TTATGA'
p4039
I338
sS'CAAGCT'
p4040
I83
sS'CGGAGT'
p4041
I114
sS'TTATGG'
p4042
I334
sS'CATCCT'
p4043
I317
sS'AGGAAT'
p4044
I204
sS'CAGGCT'
p4045
I331
sS'ACGGAT'
p4046
I4
sS'CGGAGA'
p4047
I279
sS'CGGAGC'
p4048
I383
sS'TTATGT'
p4049
I241
sS'CGGAGG'
p4050
I622
sS'ATGGAA'
p4051
I172
sS'ATGGAC'
p4052
I104
sS'ATGGAG'
p4053
I226
sS'CGCTTG'
p4054
I1645
sS'CGCTTA'
p4055
I884
sS'CGCTTC'
p4056
I1238
sS'ATGGAT'
p4057
I29
sS'TGCGGC'
p4058
I546
sS'CGCTTT'
p4059
I329
sS'GATCGT'
p4060
I107
sS'TTTGCC'
p4061
I528
sS'GAAAAG'
p4062
I770
sS'GAAAAC'
p4063
I579
sS'ATAGAT'
p4064
I16
sS'GAAAAA'
p4065
I512
sS'GTTCCT'
p4066
I168
sS'AGACCT'
p4067
I27
sS'ACGGTT'
p4068
I8
sS'GAAAAT'
p4069
I141
sS'ACAAGG'
p4070
I332
sS'ACAAGA'
p4071
I217
sS'AAAAAA'
p4072
I731
sS'ACAAGC'
p4073
I216
sS'ACACGT'
p4074
I11
sS'CTGCGT'
p4075
I86
sS'GCGGAG'
p4076
I148
sS'CATAAG'
p4077
I624
sS'GTCCCT'
p4078
I608
sS'CATAAA'
p4079
I862
sS'GCCAAC'
p4080
I790
sS'CATAAC'
p4081
I531
sS'ACACGC'
p4082
I59
sS'ACAAGT'
p4083
I122
sS'ACACGA'
p4084
I23
sS'ACACGG'
p4085
I51
sS'CATAAT'
p4086
I176
sS'GTCCCA'
p4087
I1202
sS'GCACAT'
p4088
I19
sS'CTGCGG'
p4089
I498
sS'CTGCGA'
p4090
I174
sS'CTGCGC'
p4091
I436
sS'CGGCAA'
p4092
I64
sS'CGGCAC'
p4093
I111
sS'CGGCAG'
p4094
I208
sS'CCTCCT'
p4095
I192
sS'CGGCAT'
p4096
I18
sS'CCTCCC'
p4097
I758
sS'CCTCCA'
p4098
I449
sS'CCTCCG'
p4099
I219
sS'CGTGAT'
p4100
I34
s.