(dp0
S'GAACGT'
p1
I483
sS'CTTCTT'
p2
I4453
sS'CACCCT'
p3
I9125
sS'ATTGAA'
p4
I3189
sS'GAACGG'
p5
I1355
sS'GAACGC'
p6
I1421
sS'GAACGA'
p7
I859
sS'CAACAT'
p8
I617
sS'CACCCA'
p9
I16095
sS'CTTCTA'
p10
I10458
sS'CACCCC'
p11
I15482
sS'CTTCTC'
p12
I15377
sS'CACCCG'
p13
I5055
sS'CTTCTG'
p14
I18188
sS'CGTGTG'
p15
I4387
sS'TAAGGT'
p16
I1301
sS'CGTGTC'
p17
I2197
sS'CGTGTA'
p18
I1794
sS'AGGCAA'
p19
I5447
sS'GGAAAT'
p20
I1414
sS'TAAGGG'
p21
I3924
sS'CGTGTT'
p22
I642
sS'TAAGGC'
p23
I3115
sS'TAAGGA'
p24
I4316
sS'TCACTG'
p25
I6132
sS'GTCAAA'
p26
I8572
sS'GTCAAC'
p27
I6465
sS'GTCAAG'
p28
I8382
sS'CTGTCC'
p29
I17153
sS'TCAGAG'
p30
I2177
sS'CTGTCA'
p31
I15084
sS'CTGTCG'
p32
I2576
sS'TCAGAC'
p33
I1342
sS'TCAGAA'
p34
I1627
sS'GTCAAT'
p35
I3352
sS'GTATCA'
p36
I4825
sS'TCAGAT'
p37
I628
sS'GTATCG'
p38
I609
sS'CTGTCT'
p39
I12956
sS'GGTGTC'
p40
I4458
sS'GGTGTA'
p41
I4138
sS'GGTGTG'
p42
I10545
sS'TATCCT'
p43
I5499
sS'CCGGGG'
p44
I3624
sS'TTCTGT'
p45
I16526
sS'ATTCCT'
p46
I3612
sS'CCGGGC'
p47
I3200
sS'CCGGGA'
p48
I2110
sS'TATCCA'
p49
I8143
sS'TATCCC'
p50
I6527
sS'TGGTTG'
p51
I8282
sS'TATCCG'
p52
I1186
sS'GGTGTT'
p53
I1346
sS'ATTCCG'
p54
I998
sS'TTCTGG'
p55
I22837
sS'CCGGGT'
p56
I633
sS'ATTCCC'
p57
I5215
sS'TTCTGC'
p58
I21235
sS'ATTCCA'
p59
I6879
sS'TTCTGA'
p60
I22114
sS'CTTGGA'
p61
I5302
sS'GGNCCG'
p62
I1
sS'TATCTT'
p63
I5600
sS'CGCGGT'
p64
I1205
sS'CCCGCG'
p65
I6132
sS'CGCGGG'
p66
I8437
sS'CGCGGC'
p67
I8238
sS'CGCGGA'
p68
I2983
sS'GTCCTT'
p69
I5622
sS'ACCTGT'
p70
I5222
sS'TCATGT'
p71
I2652
sS'CTCCGA'
p72
I3464
sS'TTACAG'
p73
I2906
sS'CTCCGC'
p74
I10899
sS'TTACAA'
p75
I2109
sS'CCGGCA'
p76
I2116
sS'TTACAC'
p77
I1475
sS'CTCCGG'
p78
I8295
sS'TCATGC'
p79
I3442
sS'ACCTGG'
p80
I13139
sS'TCATGA'
p81
I3372
sS'GTAAGC'
p82
I3187
sS'TCATGG'
p83
I3740
sS'ACCTGC'
p84
I11621
sS'ACCTGA'
p85
I8544
sS'TTACAT'
p86
I946
sS'CTCGAT'
p87
I412
sS'CTCCGT'
p88
I2381
sS'GCCTGA'
p89
I12913
sS'GCCTGC'
p90
I18502
sS'GCCTGG'
p91
I26187
sS'TAAAGG'
p92
I9204
sS'CAAATT'
p93
I1231
sS'TAAAGA'
p94
I9518
sS'GCATAA'
p95
I1085
sS'TAAAGC'
p96
I6768
sS'GCCTGT'
p97
I8242
sS'TATCTA'
p98
I10255
sS'TAAAGT'
p99
I4567
sS'CAAATA'
p100
I10947
sS'CAAATC'
p101
I3973
sS'CGTGCT'
p102
I1305
sS'CAAATG'
p103
I8635
sS'AATACT'
p104
I8063
sS'TATCTC'
p105
I10078
sS'CGTCAA'
p106
I975
sS'GGCATG'
p107
I12352
sS'GGCATA'
p108
I6616
sS'GGCATC'
p109
I7204
sS'AATACG'
p110
I1888
sS'AATACA'
p111
I15285
sS'CCACAC'
p112
I1305
sS'AATACC'
p113
I9096
sS'GGCATT'
p114
I3646
sS'TCCCCA'
p115
I13843
sS'TGCACA'
p116
I16409
sS'GAGCAC'
p117
I7500
sS'GAGCAA'
p118
I9134
sS'CATATC'
p119
I6003
sS'GAGCAG'
p120
I14914
sS'AGTAGT'
p121
I3841
sS'TCTCGC'
p122
I2268
sS'TCTCGA'
p123
I1033
sS'TCTCGG'
p124
I2569
sS'AGTAGC'
p125
I5991
sS'AGTAGA'
p126
I7217
sS'AGTAGG'
p127
I7626
sS'GAGCAT'
p128
I2875
sS'TTGAAC'
p129
I4401
sS'TCTCGT'
p130
I585
sS'GTGTCG'
p131
I2141
sS'TCCTAT'
p132
I3725
sS'TCGAAA'
p133
I327
sS'GTGTCC'
p134
I12409
sS'TCGAAG'
p135
I592
sS'GTGTCA'
p136
I13172
sS'CTTGCT'
p137
I4789
sS'TCGGTC'
p138
I887
sS'GTGTCT'
p139
I10102
sS'TTGAAG'
p140
I6542
sS'TCGAAT'
p141
I148
sS'CTTGCG'
p142
I1779
sS'CTTGCA'
p143
I6982
sS'CTTGCC'
p144
I8351
sS'CGAAAG'
p145
I719
sS'CGAAAA'
p146
I339
sS'CGAAAC'
p147
I492
sS'AATCAT'
p148
I5518
sS'AAATGC'
p149
I6203
sS'CACGGC'
p150
I4233
sS'AAATGA'
p151
I8237
sS'AAATGG'
p152
I6328
sS'CACGGG'
p153
I4297
sS'ACAGTA'
p154
I3556
sS'CGAAAT'
p155
I164
sS'ACAGTT'
p156
I815
sS'AATCAG'
p157
I11227
sS'AATCAA'
p158
I9226
sS'AAATGT'
p159
I4370
sS'AATCAC'
p160
I9834
sS'TTTGTA'
p161
I12840
sS'GCTCAA'
p162
I3660
sS'TCTAGT'
p163
I2476
sS'TTGCCG'
p164
I2387
sS'TTGCCA'
p165
I12990
sS'TTGCCC'
p166
I11996
sS'GGGTAC'
p167
I1509
sS'TCTAGG'
p168
I6115
sS'GGGTAA'
p169
I2296
sS'TCTAGA'
p170
I4759
sS'GGGTAG'
p171
I2722
sS'TCTAGC'
p172
I3868
sS'ATACGG'
p173
I412
sS'ATACAT'
p174
I757
sS'AGATGT'
p175
I2140
sS'TCGCCC'
p176
I2248
sS'TCGCCA'
p177
I1026
sS'ATAGTC'
p178
I1947
sS'TCGCCG'
p179
I865
sS'GGTAAT'
p180
I1559
sS'ACCCAT'
p181
I1414
sS'CGTCAG'
p182
I2446
sS'GTGTAT'
p183
I3196
sS'ACCCAC'
p184
I5055
sS'GGTAAC'
p185
I3672
sS'ACCCAA'
p186
I4176
sS'AGATGG'
p187
I4365
sS'ACCCAG'
p188
I7775
sS'AGATGA'
p189
I4441
sS'TCGCCT'
p190
I875
sS'AGATGC'
p191
I2957
sS'TTTGAG'
p192
I7716
sS'CCCCAT'
p193
I1680
sS'TTGGGT'
p194
I1997
sS'CACTAG'
p195
I9078
sS'CACTAA'
p196
I9884
sS'CACTAC'
p197
I7213
sS'CCCCAA'
p198
I4652
sS'CCCCAC'
p199
I7850
sS'CCCCAG'
p200
I9188
sS'CACTAT'
p201
I4703
sS'TTGGGG'
p202
I6588
sS'CGCTAG'
p203
I2144
sS'TTGGGA'
p204
I5228
sS'TTGGGC'
p205
I4298
sS'TGCCTG'
p206
I25501
sS'TGCAGA'
p207
I16011
sS'TTTCTG'
p208
I20287
sS'TGCAGC'
p209
I17433
sS'TGCCTC'
p210
I19275
sS'TTTCTC'
p211
I17326
sS'TGCAGG'
p212
I20823
sS'GGGTCA'
p213
I5931
sS'GTATCT'
p214
I3878
sS'TTTCTT'
p215
I6840
sS'TGCCTT'
p216
I7570
sS'TGCAGT'
p217
I10980
sS'ACGATG'
p218
I1143
sS'ACAATT'
p219
I1017
sS'AAGGAA'
p220
I12380
sS'AAGGAC'
p221
I6045
sS'AAGGAG'
p222
I11791
sS'ATATGC'
p223
I3298
sS'GTTCCA'
p224
I5413
sS'ATATGA'
p225
I4552
sS'ATATGG'
p226
I3433
sS'ACGATC'
p227
I458
sS'GATGGA'
p228
I8812
sS'AAGGAT'
p229
I2206
sS'CTATCA'
p230
I4840
sS'TGGTTT'
p231
I4302
sS'ATATGT'
p232
I3190
sS'GGTCCC'
p233
I5869
sS'GCCCAG'
p234
I13885
sS'GGTCCA'
p235
I3491
sS'GCCCAA'
p236
I5067
sS'GGTCCG'
p237
I1779
sS'GCCCAC'
p238
I6360
sS'ATGGCG'
p239
I1620
sS'AGACCC'
p240
I1747
sS'CTTCGG'
p241
I2667
sS'CTTCGA'
p242
I1277
sS'CTTCGC'
p243
I2513
sS'CTTAGT'
p244
I3611
sS'TCCGGG'
p245
I6035
sS'AGGTCA'
p246
I9955
sS'AAAGTT'
p247
I1266
sS'AGGTCG'
p248
I1754
sS'GGTCCT'
p249
I2390
sS'TCCGGA'
p250
I2487
sS'CTTAGC'
p251
I5657
sS'TCTTGA'
p252
I7235
sS'CTTAGA'
p253
I6510
sS'TCTTGC'
p254
I7880
sS'CTTAGG'
p255
I7053
sS'ATTGTC'
p256
I3842
sS'ATGGCC'
p257
I6557
sS'GCCTTT'
p258
I7316
sS'ATTTTG'
p259
I13630
sS'GAGGTG'
p260
I16367
sS'ATTTTA'
p261
I20278
sS'GAGGTA'
p262
I8476
sS'ATTTTC'
p263
I10642
sS'TCCAGC'
p264
I15808
sS'TAGCAG'
p265
I6164
sS'GATACT'
p266
I5631
sS'TAGCAC'
p267
I4256
sS'TAGCAA'
p268
I5454
sS'TCCAGT'
p269
I6987
sS'ATTTTT'
p270
I4274
sS'GCCTTG'
p271
I18431
sS'TAGTGT'
p272
I5207
sS'GCCTTA'
p273
I10908
sS'TTGACA'
p274
I7768
sS'GCCTTC'
p275
I17208
sS'GATACG'
p276
I1509
sS'TAGCAT'
p277
I2353
sS'GATACC'
p278
I5873
sS'GATTTC'
p279
I13899
sS'TGAGCT'
p280
I2175
sS'ACGGAC'
p281
I423
sS'GATCAT'
p282
I3416
sS'ACCGAG'
p283
I1788
sS'AAGACC'
p284
I9022
sS'ACAATG'
p285
I5797
sS'AAGACG'
p286
I2777
sS'GATCAG'
p287
I7942
sS'TGAGCG'
p288
I1119
sS'TGAGCA'
p289
I4932
sS'TGAGCC'
p290
I5703
sS'AAGACT'
p291
I7701
sS'GCGGTC'
p292
I1384
sS'GCGGTA'
p293
I975
sS'GCGGTG'
p294
I3704
sS'CGGTGT'
p295
I1170
sS'TCGTTA'
p296
I1021
sS'TCGTTC'
p297
I1215
sS'ATGTGG'
p298
I10102
sS'TCGTTG'
p299
I1339
sS'GCGGTT'
p300
I297
sS'ACTTGC'
p301
I5292
sS'ACCACC'
p302
I10392
sS'ACTTGA'
p303
I5761
sS'CGGTGG'
p304
I3672
sS'ACTTGG'
p305
I6801
sS'CAGTTA'
p306
I9938
sS'CGGTGC'
p307
I2842
sS'TTCCTA'
p308
I17622
sS'TAGACT'
p309
I4968
sS'TTCCTC'
p310
I27253
sS'ATGTGC'
p311
I6548
sS'TGGGTT'
p312
I1708
sS'TTCCTG'
p313
I35308
sS'TCCTTT'
p314
I12693
sS'CAGTTG'
p315
I9619
sS'TAGACG'
p316
I1452
sS'TTCCTT'
p317
I14154
sS'TAGACC'
p318
I5355
sS'TAGACA'
p319
I9123
sS'TCCTTG'
p320
I22979
sS'TCCTTA'
p321
I18194
sS'TCCTTC'
p322
I25703
sS'ATCTCT'
p323
I10664
sS'ACCGTT'
p324
I449
sS'TGGCGC'
p325
I2718
sS'TTTACG'
p326
I1506
sS'TGGCGA'
p327
I1287
sS'TGGCGG'
p328
I3956
sS'ATCTCG'
p329
I2581
sS'ATCTCA'
p330
I15754
sS'ATCTCC'
p331
I13520
sS'GGCCAA'
p332
I7179
sS'ACGGAG'
p333
I824
sS'GGCCAC'
p334
I8714
sS'ACCGTG'
p335
I2906
sS'ACCGTA'
p336
I1225
sS'GGCCAG'
p337
I12380
sS'ACCGTC'
p338
I1614
sS'ACTGAA'
p339
I3925
sS'AGAATT'
p340
I1708
sS'GGCAGT'
p341
I7449
sS'CCATAA'
p342
I1103
sS'CAAAGG'
p343
I9203
sS'CCATAC'
p344
I902
sS'GCACTT'
p345
I647
sS'AGATTC'
p346
I3176
sS'CAAAGC'
p347
I6728
sS'CCATAG'
p348
I1156
sS'GGCAGA'
p349
I15294
sS'GGCAGC'
p350
I19078
sS'AACGTA'
p351
I2321
sS'GGCAGG'
p352
I26823
sS'CAACGC'
p353
I715
sS'CTAACA'
p354
I5461
sS'CAACGA'
p355
I424
sS'GCACTC'
p356
I2231
sS'CAACGG'
p357
I609
sS'GCACTG'
p358
I4488
sS'GGGGGT'
p359
I1203
sS'TACGCT'
p360
I1177
sS'AGATTG'
p361
I3589
sS'CGATCT'
p362
I304
sS'NNNNNC'
p363
I1
sS'CTCTAG'
p364
I11638
sS'CTCTAA'
p365
I11451
sS'CTCTAC'
p366
I9751
sS'GGGGGG'
p367
I3519
sS'CGATCC'
p368
I685
sS'TACGCC'
p369
I1853
sS'GGGGGC'
p370
I4460
sS'CGATCG'
p371
I151
sS'GGGGGA'
p372
I3702
sS'TACGCG'
p373
I955
sS'CTCTAT'
p374
I5258
sS'CCCCGC'
p375
I13534
sS'ACCGAA'
p376
I803
sS'CAGACC'
p377
I9786
sS'CAGACA'
p378
I12538
sS'CAGACG'
p379
I2905
sS'CGCTAA'
p380
I1658
sS'TAGTTG'
p381
I7431
sS'GCTAAT'
p382
I1160
sS'TAGTTC'
p383
I6905
sS'TAGTTA'
p384
I8636
sS'CAGACT'
p385
I5817
sS'GCTAAG'
p386
I4553
sS'TAGTTT'
p387
I4493
sS'GCTAAC'
p388
I2582
sS'GCTAAA'
p389
I3577
sS'CGAGTA'
p390
I555
sS'TGCATT'
p391
I6579
sS'GCGAAA'
p392
I540
sS'AACCCT'
p393
I7310
sS'AACCCC'
p394
I9862
sS'TGCATG'
p395
I14561
sS'AACCCG'
p396
I3423
sS'ATGCAC'
p397
I4052
sS'TGCATC'
p398
I9218
sS'AGATTT'
p399
I1140
sS'AGTTTG'
p400
I14932
sS'AACTGG'
p401
I15793
sS'AGTTTC'
p402
I12785
sS'AACTGC'
p403
I14254
sS'CCCAGA'
p404
I12677
sS'CCCAGC'
p405
I20477
sS'CCCAGG'
p406
I23363
sS'AACTGT'
p407
I10498
sS'AGTTTT'
p408
I5122
sS'CTACAT'
p409
I592
sS'CAATTT'
p410
I914
sS'CCCAGT'
p411
I6225
sS'TTGACG'
p412
I1172
sS'CGCATA'
p413
I1296
sS'ATACTG'
p414
I3775
sS'CGCATC'
p415
I2283
sS'ATACTA'
p416
I2985
sS'ATACTC'
p417
I2086
sS'CGCATG'
p418
I3085
sS'GCGCAA'
p419
I441
sS'GCGAAT'
p420
I161
sS'ATACTT'
p421
I959
sS'CGCATT'
p422
I875
sS'GCGCAC'
p423
I1125
sS'GCTCCG'
p424
I3601
sS'TATTGT'
p425
I9863
sS'GCTCCC'
p426
I8264
sS'GCTCCA'
p427
I6136
sS'CCTACT'
p428
I3060
sS'TGTACT'
p429
I5357
sS'TTTAGT'
p430
I4625
sS'TATTGG'
p431
I8898
sS'GCTCCT'
p432
I3478
sS'TATTGC'
p433
I9930
sS'TATTGA'
p434
I11425
sS'TTTAGG'
p435
I7848
sS'TGTACG'
p436
I1238
sS'CCTACG'
p437
I1056
sS'TGTACA'
p438
I9809
sS'CCTACA'
p439
I4254
sS'ACAGTG'
p440
I5158
sS'TTTAGA'
p441
I8775
sS'TTCGCG'
p442
I1308
sS'TTCGCA'
p443
I1908
sS'TTCGCC'
p444
I3060
sS'AGTATC'
p445
I4518
sS'GACTAA'
p446
I14666
sS'AGTATA'
p447
I7133
sS'TTTGGG'
p448
I7600
sS'AGTATG'
p449
I7187
sS'TTTGGA'
p450
I6173
sS'GACTAG'
p451
I8478
sS'TTCGCT'
p452
I1702
sS'TTTGGT'
p453
I2466
sS'GACTAT'
p454
I5334
sS'AGTATT'
p455
I2888
sS'TTACTC'
p456
I4601
sS'TTACTA'
p457
I4803
sS'TTACTG'
p458
I5998
sS'ACCTTG'
p459
I13770
sS'ACCTTC'
p460
I11216
sS'ACCTTA'
p461
I9624
sS'TATATC'
p462
I6754
sS'CTAATA'
p463
I5930
sS'GTAAAC'
p464
I4496
sS'ACCTTT'
p465
I4998
sS'ACAGGG'
p466
I2648
sS'CTGGGA'
p467
I9975
sS'CTGGGC'
p468
I10376
sS'CGTACC'
p469
I1191
sS'ACAGGA'
p470
I2554
sS'CTGGGG'
p471
I11663
sS'AGGACG'
p472
I3223
sS'GCAGCT'
p473
I2185
sS'CAGGAA'
p474
I8455
sS'TTTCAT'
p475
I3627
sS'CAGGAG'
p476
I9524
sS'AGGACA'
p477
I11514
sS'GCGCAT'
p478
I252
sS'TTATAC'
p479
I2285
sS'ACAGGT'
p480
I918
sS'CTGGGT'
p481
I3155
sS'TTATAG'
p482
I2891
sS'TCGCTG'
p483
I2426
sS'GAGTTG'
p484
I11613
sS'GCAGCG'
p485
I1812
sS'AGGACT'
p486
I5985
sS'TCGCTC'
p487
I1972
sS'GCAGCC'
p488
I6376
sS'CAGGAT'
p489
I1768
sS'CCTCAG'
p490
I7535
sS'CCTCAA'
p491
I3805
sS'CCTCAC'
p492
I5178
sS'TATGTT'
p493
I4661
sS'ATGGGC'
p494
I3150
sS'TCTTTG'
p495
I19209
sS'ATGGGA'
p496
I4300
sS'TCTTTA'
p497
I17396
sS'ATGGGG'
p498
I4975
sS'TCTTTC'
p499
I17638
sS'CCTCAT'
p500
I1580
sS'TCTTTT'
p501
I6590
sS'TATGTG'
p502
I14263
sS'TATGTA'
p503
I14008
sS'ATGGGT'
p504
I1261
sS'TATGTC'
p505
I7199
sS'GAAAGA'
p506
I13852
sS'ATCAAG'
p507
I7256
sS'CATGAT'
p508
I2375
sS'ATCAAC'
p509
I5483
sS'GAAAGG'
p510
I15607
sS'ATCAAA'
p511
I8854
sS'GTCAGG'
p512
I16042
sS'ACGTGG'
p513
I2387
sS'CTATTC'
p514
I5052
sS'CATGAG'
p515
I9699
sS'ATCAAT'
p516
I2682
sS'GTCCAA'
p517
I5445
sS'GAAAGT'
p518
I4706
sS'CATGAA'
p519
I7467
sS'TGACCT'
p520
I1066
sS'GTAGCG'
p521
I754
sS'CAAGTT'
p522
I949
sS'GCGGCT'
p523
I1627
sS'GTAGCC'
p524
I3372
sS'GCTTTC'
p525
I11856
sS'GCTTTT'
p526
I3928
sS'CAAGTG'
p527
I5453
sS'GTAGCT'
p528
I1934
sS'GCGGCC'
p529
I6638
sS'CAAGTC'
p530
I3235
sS'GCGGCA'
p531
I2482
sS'CAAGTA'
p532
I4239
sS'AACGGT'
p533
I899
sS'ACCCTC'
p534
I8111
sS'TCGAAC'
p535
I410
sS'GGTCTT'
p536
I1739
sS'TAATCA'
p537
I6610
sS'TAATCC'
p538
I5629
sS'CTAAGC'
p539
I3733
sS'CGGCCC'
p540
I8019
sS'CGACTA'
p541
I304
sS'CGGCCA'
p542
I3677
sS'CGCTAT'
p543
I694
sS'CGGCCG'
p544
I3949
sS'TCGTGA'
p545
I865
sS'ATGAAG'
p546
I6376
sS'GGTCTG'
p547
I9225
sS'TAATCT'
p548
I3546
sS'AGTTTA'
p549
I14759
sS'GGTCTC'
p550
I7588
sS'GGTCTA'
p551
I3893
sS'AAAATG'
p552
I10991
sS'AAAATC'
p553
I4337
sS'CGGCCT'
p554
I2665
sS'TTCAGC'
p555
I15096
sS'CTAACC'
p556
I4682
sS'TCGTCC'
p557
I1809
sS'TTCAGG'
p558
I18421
sS'GAACAT'
p559
I819
sS'TCGTCG'
p560
I435
sS'TTTAGC'
p561
I5930
sS'TGTTTT'
p562
I9820
sS'GAACAA'
p563
I3236
sS'ATCCCG'
p564
I2416
sS'GAACAC'
p565
I2536
sS'ATCCCC'
p566
I7529
sS'GAACAG'
p567
I3730
sS'ATCCCA'
p568
I9144
sS'AGGCCG'
p569
I4621
sS'ATTGCA'
p570
I5279
sS'CACCAC'
p571
I11579
sS'NNNCTG'
p572
I1
sS'CACCAA'
p573
I8089
sS'CACCAG'
p574
I11661
sS'TCCGTG'
p575
I3738
sS'ATTGCG'
p576
I770
sS'TCCGTC'
p577
I2912
sS'TCCGTA'
p578
I1585
sS'ACCAGA'
p579
I7911
sS'ACGCGA'
p580
I426
sS'CACCAT'
p581
I3741
sS'ATCAGA'
p582
I10219
sS'AACATG'
p583
I16175
sS'AACATA'
p584
I15455
sS'AACATC'
p585
I11072
sS'GTCAGC'
p586
I12812
sS'GCACGG'
p587
I930
sS'GTCAGA'
p588
I13178
sS'GCACGA'
p589
I356
sS'CAGTCC'
p590
I12133
sS'GCACGC'
p591
I922
sS'TCAGCG'
p592
I935
sS'AACAAC'
p593
I11472
sS'GCAAGC'
p594
I2721
sS'GCACGT'
p595
I299
sS'CAGTCT'
p596
I7950
sS'GCAAGG'
p597
I4808
sS'GTCAGT'
p598
I7488
sS'GTATAC'
p599
I2016
sS'TTCCGT'
p600
I1873
sS'ACGGCT'
p601
I538
sS'GTATAG'
p602
I1974
sS'CCGGAA'
p603
I919
sS'CCGGAC'
p604
I727
sS'CCGGAG'
p605
I1454
sS'CGTCTT'
p606
I866
sS'TGACGT'
p607
I283
sS'TTCCGG'
p608
I5900
sS'TTCCGA'
p609
I2270
sS'TTCCGC'
p610
I4601
sS'GTATAT'
p611
I1729
sS'CGTCTC'
p612
I4412
sS'CGTCTA'
p613
I1653
sS'CGTCTG'
p614
I4150
sS'CCGGAT'
p615
I199
sS'CTCTTC'
p616
I28807
sS'TGTTAT'
p617
I4249
sS'CTCTTA'
p618
I19988
sS'CTCTTG'
p619
I24608
sS'CCCGAT'
p620
I328
sS'TACGTA'
p621
I2434
sS'TACGTC'
p622
I1590
sS'TCTGGT'
p623
I1778
sS'AACAAA'
p624
I24870
sS'CGCGAT'
p625
I384
sS'TACGTG'
p626
I3426
sS'TGTTAG'
p627
I7604
sS'GCTGTT'
p628
I1877
sS'TGTTAC'
p629
I6911
sS'CTCTTT'
p630
I14725
sS'TGTTAA'
p631
I9472
sS'CGCGAA'
p632
I1053
sS'CGCGAC'
p633
I1639
sS'GATATT'
p634
I3854
sS'TCTGGC'
p635
I5299
sS'TACGTT'
p636
I1091
sS'CGCGAG'
p637
I3319
sS'AGTCGT'
p638
I880
sS'TTACCT'
p639
I1787
sS'CTCCAT'
p640
I4205
sS'TTACCG'
p641
I434
sS'CTCCAC'
p642
I12313
sS'AGTCGG'
p643
I2558
sS'TTACCC'
p644
I2496
sS'CTCCAG'
p645
I18258
sS'TTACCA'
p646
I3063
sS'AGTCGC'
p647
I2238
sS'GTACCG'
p648
I418
sS'CCGACT'
p649
I677
sS'GCCTAC'
p650
I4977
sS'GCCTAA'
p651
I5742
sS'GCCTAG'
p652
I6933
sS'CCGACA'
p653
I864
sS'GATATC'
p654
I4840
sS'CCGACC'
p655
I1877
sS'CCGACG'
p656
I722
sS'AACTCA'
p657
I18682
sS'GCCTAT'
p658
I2389
sS'AAGCTA'
p659
I9112
sS'AGGGCG'
p660
I4931
sS'CTCGTT'
p661
I982
sS'TCGCTT'
p662
I380
sS'CTAAGT'
p663
I2406
sS'CCCGAA'
p664
I1204
sS'CGCACA'
p665
I4138
sS'ATACAC'
p666
I1414
sS'CGCACC'
p667
I5779
sS'GGGTCG'
p668
I1767
sS'ACTGCT'
p669
I2800
sS'CCCGAC'
p670
I2274
sS'CGCACG'
p671
I2978
sS'GGGTCC'
p672
I6715
sS'GAGCGT'
p673
I1628
sS'CTCACT'
p674
I14854
sS'GGGTCT'
p675
I3658
sS'ACTGCA'
p676
I7751
sS'TTTGTC'
p677
I8607
sS'ACTGCC'
p678
I6202
sS'CGCACT'
p679
I2497
sS'TTTGTG'
p680
I14685
sS'ACTGCG'
p681
I1886
sS'CTCACC'
p682
I21352
sS'CTCACA'
p683
I19303
sS'CTCACG'
p684
I4771
sS'GTGGGT'
p685
I2641
sS'GTGAGG'
p686
I11710
sS'GATTTT'
p687
I6510
sS'TAGTGC'
p688
I5501
sS'GTGAGC'
p689
I8828
sS'TAGTGA'
p690
I8106
sS'GTGAGA'
p691
I8248
sS'TCGACG'
p692
I290
sS'TCGACA'
p693
I502
sS'TCGACC'
p694
I746
sS'GATTTG'
p695
I16313
sS'GTGAGT'
p696
I6597
sS'GTGGGG'
p697
I12074
sS'GTGGGA'
p698
I7180
sS'GTGGGC'
p699
I5960
sS'TCGACT'
p700
I391
sS'GTGGGN'
p701
I1
sS'ACGTAA'
p702
I479
sS'CTGGTT'
p703
I2354
sS'TTGAGT'
p704
I4379
sS'TCAAAA'
p705
I2772
sS'CGAACG'
p706
I385
sS'CGAACC'
p707
I989
sS'CGAACA'
p708
I772
sS'TGCAAG'
p709
I10291
sS'CTGGTG'
p710
I11170
sS'CTGGTA'
p711
I6297
sS'CTGGTC'
p712
I6358
sS'CTGCAA'
p713
I6163
sS'CGAACT'
p714
I465
sS'TTGCAT'
p715
I2929
sS'NNGAAT'
p716
I1
sS'TTGCAG'
p717
I7757
sS'ACTCCT'
p718
I2597
sS'CTTGAT'
p719
I1191
sS'TTGCAC'
p720
I5020
sS'TTGCAA'
p721
I5481
sS'AAGATC'
p722
I5768
sS'ACGTAC'
p723
I443
sS'TCCATC'
p724
I9577
sS'TCGCAT'
p725
I128
sS'GTCGTG'
p726
I2418
sS'GTCGTA'
p727
I1214
sS'GTCGTC'
p728
I1772
sS'CCGTTT'
p729
I512
sS'ACTGAT'
p730
I995
sS'ATATCG'
p731
I507
sS'GTCGTT'
p732
I636
sS'TCGCAG'
p733
I782
sS'GAGGGG'
p734
I19888
sS'CCAAGC'
p735
I2803
sS'TCGCAC'
p736
I372
sS'CCGTTG'
p737
I1509
sS'CCGTTA'
p738
I966
sS'CCGTTC'
p739
I1564
sS'AATGCT'
p740
I7665
sS'GGTACG'
p741
I904
sS'GGTACA'
p742
I4135
sS'GGTACC'
p743
I3145
sS'TATTTG'
p744
I27832
sS'CCAGTT'
p745
I772
sS'TATTTC'
p746
I21036
sS'TATTTA'
p747
I35555
sS'CCCCCT'
p748
I4218
sS'GGTACT'
p749
I2160
sS'AATGCG'
p750
I2128
sS'AATCTT'
p751
I4383
sS'AATGCC'
p752
I10962
sS'AATGCA'
p753
I15107
sS'CCCCCC'
p754
I5046
sS'CCCCCA'
p755
I8348
sS'TATTTT'
p756
I13655
sS'CCCCCG'
p757
I4421
sS'GAGCGA'
p758
I3798
sS'CTTGAG'
p759
I6253
sS'ATGATG'
p760
I9429
sS'GAAGTA'
p761
I5989
sS'ATGATA'
p762
I6618
sS'CTTGAA'
p763
I4916
sS'TGCAAC'
p764
I7562
sS'TGCAAA'
p765
I13111
sS'CATGAC'
p766
I7689
sS'GCCGTC'
p767
I3241
sS'ATGATT'
p768
I2603
sS'TATCAC'
p769
I6212
sS'CGAATC'
p770
I546
sS'TTGAGG'
p771
I8663
sS'AATCTC'
p772
I9546
sS'CAATGT'
p773
I2123
sS'TTGAGC'
p774
I5721
sS'TTGAGA'
p775
I7842
sS'GAGAAT'
p776
I4466
sS'TGTCTT'
p777
I5174
sS'CGAATA'
p778
I562
sS'ACTGAG'
p779
I5409
sS'AAGGCC'
p780
I13072
sS'ATAACC'
p781
I3807
sS'AAGGCA'
p782
I16705
sS'ATAACA'
p783
I5782
sS'AAGGCG'
p784
I4289
sS'ATAACG'
p785
I684
sS'ACTCCA'
p786
I5335
sS'TGTCTG'
p787
I17665
sS'GAGAAG'
p788
I17683
sS'GAGAAA'
p789
I16068
sS'TGTCTC'
p790
I14884
sS'GAGAAC'
p791
I9497
sS'TGTCTA'
p792
I9478
sS'TGTGGC'
p793
I8448
sS'TGTGGA'
p794
I6812
sS'TGTGGG'
p795
I10588
sS'ATAACT'
p796
I2815
sS'ACTGAC'
p797
I3689
sS'CTGTAA'
p798
I6203
sS'GCCCCG'
p799
I10427
sS'ACCAAG'
p800
I7003
sS'GGTCAG'
p801
I6151
sS'GCCCCC'
p802
I12041
sS'ATCATC'
p803
I9224
sS'GCCCCA'
p804
I12770
sS'GGTCAC'
p805
I4651
sS'ACGCCT'
p806
I787
sS'GGTCAT'
p807
I1470
sS'CGTGCC'
p808
I3048
sS'AGGTAG'
p809
I3917
sS'CGTGCG'
p810
I1984
sS'AGGTAC'
p811
I2728
sS'TTTTGC'
p812
I10395
sS'TCTTAC'
p813
I4702
sS'AATTGG'
p814
I7576
sS'TCTTAA'
p815
I6876
sS'AATTGA'
p816
I8595
sS'TCTTAG'
p817
I5880
sS'AATTGC'
p818
I8403
sS'TAGCCA'
p819
I7951
sS'TGGGGT'
p820
I1902
sS'CGCTCG'
p821
I4466
sS'GATAAT'
p822
I3930
sS'CGCTCA'
p823
I5309
sS'TAGCCG'
p824
I1612
sS'AATTGT'
p825
I6484
sS'GCCATC'
p826
I7768
sS'TCTTAT'
p827
I2317
sS'TTTTGT'
p828
I8628
sS'CGCTCT'
p829
I4585
sS'TGGGGG'
p830
I6664
sS'GATAAC'
p831
I5595
sS'TAGCCT'
p832
I4615
sS'TGGGGC'
p833
I6387
sS'TGGGGA'
p834
I6062
sS'GATCCT'
p835
I5640
sS'AAGAAT'
p836
I4648
sS'GTTATC'
p837
I3527
sS'AAGAAC'
p838
I8280
sS'GATCCA'
p839
I8203
sS'AAGAAA'
p840
I16633
sS'GATCCC'
p841
I7977
sS'AAGAAG'
p842
I13176
sS'GATCCG'
p843
I2619
sS'ATGCCG'
p844
I1698
sS'CAAGGG'
p845
I4063
sS'CAAGGC'
p846
I3409
sS'GGTTCT'
p847
I4839
sS'CAAGGA'
p848
I3523
sS'TTGATA'
p849
I6217
sS'GGTTCA'
p850
I6955
sS'GGTTCC'
p851
I8411
sS'AAGGCT'
p852
I7669
sS'GGTTCG'
p853
I1700
sS'CTGTAT'
p854
I3285
sS'TAGTGG'
p855
I8121
sS'ATTATC'
p856
I3986
sS'TAGAAT'
p857
I3412
sS'CAAACG'
p858
I1244
sS'ATTATG'
p859
I6868
sS'AGTCTT'
p860
I3652
sS'TAGAAA'
p861
I8972
sS'TAGAAC'
p862
I5254
sS'ATTATT'
p863
I2401
sS'TAGAAG'
p864
I8037
sS'AGTCTA'
p865
I7269
sS'AGTCTC'
p866
I10429
sS'AGTCTG'
p867
I12776
sS'TAACTC'
p868
I3412
sS'TAACTA'
p869
I4204
sS'TAACTG'
p870
I5378
sS'ATCTAT'
p871
I3367
sS'AGGTAT'
p872
I1893
sS'TAACTT'
p873
I1185
sS'ATCTAG'
p874
I6632
sS'CTAGGA'
p875
I2605
sS'ATCTAC'
p876
I5531
sS'ATCTAA'
p877
I7831
sS'CCATGT'
p878
I2116
sS'ACCAAA'
p879
I6460
sS'TGGAGG'
p880
I13492
sS'TGGAGA'
p881
I9480
sS'TGGAGC'
p882
I8133
sS'CCATGC'
p883
I2726
sS'CCATGA'
p884
I2612
sS'CCATGG'
p885
I3591
sS'TGGAGT'
p886
I4474
sS'ATTACG'
p887
I887
sS'TCAGTA'
p888
I3576
sS'TCAGTC'
p889
I2643
sS'CTCTCT'
p890
I23246
sS'GGGGAT'
p891
I745
sS'TCAGTG'
p892
I5685
sS'CGATAT'
p893
I76
sS'GGGGAA'
p894
I3246
sS'GGGGAC'
p895
I2820
sS'CTCTCC'
p896
I34082
sS'TCAGTT'
p897
I959
sS'GGGGAG'
p898
I6315
sS'ATGCAG'
p899
I5860
sS'CGATAG'
p900
I147
sS'CGATAA'
p901
I111
sS'TATCAA'
p902
I6887
sS'CTAAGG'
p903
I5361
sS'GTGTTT'
p904
I7006
sS'GCTACT'
p905
I2586
sS'GTGGTT'
p906
I3152
sS'GTGTTC'
p907
I9714
sS'GTGTTA'
p908
I9432
sS'GTGTTG'
p909
I11496
sS'ACCAAT'
p910
I2417
sS'GTGGTA'
p911
I6557
sS'GCTACA'
p912
I4078
sS'GTGGTC'
p913
I5066
sS'GCTACC'
p914
I3772
sS'GTGGTG'
p915
I12072
sS'GCTACG'
p916
I1135
sS'CGTGCA'
p917
I2413
sS'TTTCGT'
p918
I689
sS'TGCCCT'
p919
I9702
sS'AGCGTT'
p920
I1132
sS'AGGTAA'
p921
I4188
sS'TGCCCC'
p922
I14058
sS'TGCCCA'
p923
I15013
sS'TGCCCG'
p924
I5162
sS'TTTCGG'
p925
I1638
sS'AGCGTA'
p926
I1707
sS'AGCGTC'
p927
I3395
sS'AGCGTG'
p928
I4640
sS'GGCCCC'
p929
I14489
sS'GGCCCA'
p930
I9836
sS'CACGTG'
p931
I7075
sS'GGCCCG'
p932
I7292
sS'CACGTA'
p933
I3115
sS'CACGTC'
p934
I3728
sS'ACGTGC'
p935
I1408
sS'CTACGT'
p936
I294
sS'ACGTGA'
p937
I1481
sS'GGGACT'
p938
I4506
sS'ACAGTC'
p939
I2253
sS'CACGTT'
p940
I1437
sS'TTCACG'
p941
I3335
sS'GGCCCT'
p942
I6384
sS'GGGACA'
p943
I7739
sS'TTTTGG'
p944
I11016
sS'GGGACC'
p945
I7856
sS'AGGGAC'
p946
I4245
sS'TCGTGG'
p947
I1516
sS'GGGACG'
p948
I3532
sS'CTATAT'
p949
I1555
sS'AGAGAG'
p950
I4256
sS'AGAGAA'
p951
I3168
sS'AGAGAC'
p952
I2419
sS'TTCACC'
p953
I15039
sS'GTCTTT'
p954
I10111
sS'TCTATC'
p955
I3642
sS'TCTATG'
p956
I6421
sS'AGAGAT'
p957
I918
sS'TCGTGC'
p958
I1065
sS'GTCTTG'
p959
I17964
sS'TCTATT'
p960
I2156
sS'GTCTTC'
p961
I16884
sS'GTCTTA'
p962
I13972
sS'GCAGAG'
p963
I2639
sS'CGATTG'
p964
I819
sS'GCTCAC'
p965
I4864
sS'GCAGAC'
p966
I1162
sS'GCAGAA'
p967
I1375
sS'GCTCAG'
p968
I7781
sS'AGACGT'
p969
I315
sS'ATGCGT'
p970
I503
sS'TTGCTG'
p971
I18870
sS'TTGCTA'
p972
I10657
sS'TTGCTC'
p973
I13949
sS'GCAGAT'
p974
I510
sS'GCTCAT'
p975
I1482
sS'CGAATT'
p976
I141
sS'GTACGG'
p977
I512
sS'TTGCTT'
p978
I7759
sS'ATGCGG'
p979
I1352
sS'CGCTCC'
p980
I11701
sS'ATGCGC'
p981
I1252
sS'ATGCGA'
p982
I681
sS'TGTAAG'
p983
I8131
sS'GGCTAG'
p984
I6333
sS'TGTAAC'
p985
I6797
sS'GGCTAC'
p986
I5638
sS'GACTGT'
p987
I11943
sS'GGCTAA'
p988
I6678
sS'TTCGAG'
p989
I1536
sS'TTGGTA'
p990
I6024
sS'ACTGTC'
p991
I4594
sS'TTGGTC'
p992
I4735
sS'TTCGAC'
p993
I895
sS'ACTGTG'
p994
I10776
sS'TTGGTG'
p995
I8405
sS'GACTGC'
p996
I15648
sS'GGCTAT'
p997
I2544
sS'GACTGA'
p998
I17077
sS'GACTGG'
p999
I19329
sS'TTCGAT'
p1000
I387
sS'TTGGTT'
p1001
I2277
sS'ACTGTT'
p1002
I1648
sS'GTTTCT'
p1003
I8620
sS'ATAATT'
p1004
I1547
sS'CCTTTT'
p1005
I4838
sS'GTTTCG'
p1006
I1975
sS'GTTTCC'
p1007
I14262
sS'GTTTCA'
p1008
I12872
sS'ATAATG'
p1009
I6157
sS'CCTTTA'
p1010
I13084
sS'CCTTTC'
p1011
I15513
sS'ATAATC'
p1012
I3129
sS'ATAATA'
p1013
I7438
sS'CCTTTG'
p1014
I17168
sS'ACAGAA'
p1015
I1831
sS'CTCTCG'
p1016
I5941
sS'ACAGAC'
p1017
I1465
sS'GCCCCT'
p1018
I6598
sS'ACAGAG'
p1019
I2594
sS'TTATCT'
p1020
I4989
sS'CTGGAC'
p1021
I3567
sS'CTGGAA'
p1022
I4691
sS'CTGGAG'
p1023
I7550
sS'CGATTT'
p1024
I125
sS'ACAGAT'
p1025
I604
sS'CAAAGT'
p1026
I3265
sS'GATAAG'
p1027
I7797
sS'TTATCA'
p1028
I6187
sS'CTGGAT'
p1029
I1151
sS'TTATCC'
p1030
I5364
sS'CCAATG'
p1031
I3982
sS'AAACCG'
p1032
I763
sS'ATTTGT'
p1033
I6683
sS'CCAATC'
p1034
I2668
sS'AAACCC'
p1035
I3589
sS'CCAATA'
p1036
I3088
sS'TGTCGG'
p1037
I2054
sS'GAGATC'
p1038
I6849
sS'AACGAG'
p1039
I2115
sS'GAGATA'
p1040
I9388
sS'TGTCGC'
p1041
I1946
sS'GAGATG'
p1042
I15660
sS'AACGAC'
p1043
I1406
sS'ATTTGA'
p1044
I9573
sS'CCAATT'
p1045
I692
sS'ATTTGC'
p1046
I8808
sS'GTCGAT'
p1047
I252
sS'ATTTGG'
p1048
I8163
sS'CCCTAG'
p1049
I6044
sS'TGTCGT'
p1050
I883
sS'CCCTAC'
p1051
I5581
sS'GAGATT'
p1052
I3287
sS'CCCTAA'
p1053
I5683
sS'CATTAT'
p1054
I5165
sS'CTACAC'
p1055
I1217
sS'TGGATT'
p1056
I1881
sS'TGACAG'
p1057
I1854
sS'ATCACC'
p1058
I10209
sS'CATGCT'
p1059
I6250
sS'TGACAC'
p1060
I1287
sS'ATCACG'
p1061
I2448
sS'TGGATA'
p1062
I5829
sS'CATTAG'
p1063
I8702
sS'CATTAA'
p1064
I10982
sS'TGGATG'
p1065
I8511
sS'CATGCA'
p1066
I11614
sS'TGACAT'
p1067
I594
sS'CATGCC'
p1068
I10892
sS'ATCACT'
p1069
I8010
sS'CATGCG'
p1070
I2535
sS'GTAGAA'
p1071
I1578
sS'GTAGAC'
p1072
I1234
sS'GTAGAG'
p1073
I2029
sS'GATTGG'
p1074
I10193
sS'ACAACC'
p1075
I3023
sS'GATTGC'
p1076
I8254
sS'GATTGA'
p1077
I8187
sS'TAAATT'
p1078
I2353
sS'ACTAAG'
p1079
I4718
sS'GTAGAT'
p1080
I583
sS'TGCTAC'
p1081
I7599
sS'TTGCCT'
p1082
I9774
sS'TGATGC'
p1083
I2482
sS'GATTGT'
p1084
I6358
sS'TTCAGT'
p1085
I11425
sS'ACAACT'
p1086
I1998
sS'AGGATT'
p1087
I2447
sS'GCGCGT'
p1088
I501
sS'TAATAG'
p1089
I3125
sS'GTCCGG'
p1090
I4434
sS'TGAGGT'
p1091
I1210
sS'GTCCGA'
p1092
I1768
sS'TAATAA'
p1093
I4521
sS'GTCCGC'
p1094
I4203
sS'TGCCAT'
p1095
I3552
sS'TCAACA'
p1096
I4846
sS'ACTCTT'
p1097
I2027
sS'GTCCGT'
p1098
I1258
sS'TAATAT'
p1099
I1989
sS'ATTCGC'
p1100
I832
sS'TTCTCC'
p1101
I29410
sS'TGAACT'
p1102
I3189
sS'TTCTCA'
p1103
I28203
sS'ATCCAT'
p1104
I2065
sS'TTCTCG'
p1105
I4444
sS'TCGTAC'
p1106
I276
sS'TACCTT'
p1107
I6024
sS'TCGTAA'
p1108
I401
sS'TCGTAG'
p1109
I402
sS'TCGTCA'
p1110
I1179
sS'GAACCT'
p1111
I1553
sS'ATCCAA'
p1112
I5027
sS'ATCCAC'
p1113
I5298
sS'TGAACC'
p1114
I4074
sS'TTCTCT'
p1115
I24975
sS'ATCCAG'
p1116
I7001
sS'GAACCC'
p1117
I3057
sS'TTATAT'
p1118
I2121
sS'GAACCA'
p1119
I3803
sS'TACCTA'
p1120
I9930
sS'TACCTC'
p1121
I10350
sS'TCGTAT'
p1122
I174
sS'ACCATC'
p1123
I5741
sS'ACCATA'
p1124
I6406
sS'ACCATG'
p1125
I9638
sS'ATGTTG'
p1126
I10386
sS'AGCTCT'
p1127
I15000
sS'TGTCCT'
p1128
I5788
sS'AGTGGT'
p1129
I2759
sS'CGTGGT'
p1130
I982
sS'TGATGT'
p1131
I2140
sS'ATGTTT'
p1132
I5320
sS'ACCATT'
p1133
I2590
sS'AACCTC'
p1134
I12336
sS'AGCTCG'
p1135
I4701
sS'AGTGGC'
p1136
I6763
sS'AGCTCC'
p1137
I23258
sS'AGCTCA'
p1138
I21023
sS'ATAGCC'
p1139
I2709
sS'CAGTAA'
p1140
I5881
sS'CAGTAC'
p1141
I3871
sS'CAGTAG'
p1142
I5197
sS'AACGTT'
p1143
I1333
sS'TTTCAC'
p1144
I7239
sS'CAGTAT'
p1145
I2438
sS'GTTCCT'
p1146
I3575
sS'TGCCAG'
p1147
I12727
sS'CCGGCT'
p1148
I1425
sS'GATCTA'
p1149
I6870
sS'GATCTC'
p1150
I9422
sS'ATTGAC'
p1151
I2731
sS'GATCTG'
p1152
I13093
sS'TCCCTT'
p1153
I6347
sS'CCGGCC'
p1154
I6491
sS'GTTCCG'
p1155
I1784
sS'CCGGCG'
p1156
I2169
sS'CACATT'
p1157
I7185
sS'GTTCCC'
p1158
I6688
sS'TCCCTC'
p1159
I19714
sS'GAGCTT'
p1160
I4690
sS'TCCCTA'
p1161
I9884
sS'TTAATG'
p1162
I7700
sS'TCCCTG'
p1163
I22159
sS'GATCTT'
p1164
I4261
sS'CTAGAC'
p1165
I1375
sS'ATAGAA'
p1166
I1716
sS'AAGTGA'
p1167
I13306
sS'AAGTGC'
p1168
I9589
sS'TGTTCT'
p1169
I10731
sS'AAGTGG'
p1170
I11395
sS'TGATTG'
p1171
I4336
sS'TCTGAT'
p1172
I1334
sS'TGTATT'
p1173
I3983
sS'CGAGGT'
p1174
I278
sS'TGTTCA'
p1175
I14993
sS'CACAAG'
p1176
I12186
sS'TGTTCC'
p1177
I13437
sS'AAGTGT'
p1178
I6148
sS'CACAAC'
p1179
I9004
sS'TGTTCG'
p1180
I1968
sS'TCTGAA'
p1181
I4550
sS'TCTGAC'
p1182
I4900
sS'GAAGTC'
p1183
I5498
sS'TCTGAG'
p1184
I7244
sS'CGCGCC'
p1185
I10962
sS'CGCGCA'
p1186
I4576
sS'GGTAAA'
p1187
I5582
sS'CGCGCG'
p1188
I7299
sS'CTCCCT'
p1189
I16583
sS'AGCGGG'
p1190
I6388
sS'AGCGGA'
p1191
I3099
sS'AGCGGC'
p1192
I6041
sS'GGTAAG'
p1193
I5004
sS'GAAATA'
p1194
I10948
sS'GACATT'
p1195
I7108
sS'CGCGCT'
p1196
I3412
sS'GTGCGA'
p1197
I1278
sS'CTCCCG'
p1198
I10081
sS'ACCTCG'
p1199
I3402
sS'CTCCCC'
p1200
I25467
sS'GCCTCT'
p1201
I12644
sS'TAAGCC'
p1202
I5035
sS'CGGGAG'
p1203
I3422
sS'CCCATG'
p1204
I10265
sS'CGGGAA'
p1205
I1340
sS'CCCATA'
p1206
I6609
sS'TAGCTG'
p1207
I11100
sS'CCCATC'
p1208
I8610
sS'CCGAGA'
p1209
I1288
sS'CCTGCT'
p1210
I4439
sS'CCGAAT'
p1211
I174
sS'CCCATT'
p1212
I3385
sS'CGGGAT'
p1213
I338
sS'GCCTCG'
p1214
I7495
sS'TAGCTT'
p1215
I3177
sS'TAAGCT'
p1216
I2528
sS'GCCTCC'
p1217
I30074
sS'CCGAAC'
p1218
I511
sS'CCTGCG'
p1219
I3663
sS'CCGAAA'
p1220
I393
sS'CCGCGT'
p1221
I353
sS'CCGAAG'
p1222
I891
sS'CCTGCC'
p1223
I13720
sS'CCTGCA'
p1224
I8282
sS'GTACTG'
p1225
I3674
sS'CAAGGT'
p1226
I1200
sS'CCATTC'
p1227
I3942
sS'TATAAG'
p1228
I7896
sS'TATAAA'
p1229
I15714
sS'TATAAC'
p1230
I6603
sS'TAACGA'
p1231
I559
sS'CATTTC'
p1232
I22728
sS'TATAAT'
p1233
I5690
sS'GTTCTA'
p1234
I6972
sS'CCATTT'
p1235
I1509
sS'TCTACA'
p1236
I5420
sS'TCTACC'
p1237
I5417
sS'CTAACT'
p1238
I2894
sS'TCTACG'
p1239
I929
sS'ATTATA'
p1240
I7729
sS'CGCAAC'
p1241
I1700
sS'CGCAAA'
p1242
I1864
sS'ATACCG'
p1243
I277
sS'CGCAAG'
p1244
I2479
sS'AAAGAC'
p1245
I3818
sS'ATACCC'
p1246
I1379
sS'TCTACT'
p1247
I3350
sS'CCGAGT'
p1248
I587
sS'ATACCT'
p1249
I1263
sS'GATAGG'
p1250
I6911
sS'CGCAAT'
p1251
I583
sS'AAACTG'
p1252
I6874
sS'ATTTCT'
p1253
I6923
sS'TAGTAC'
p1254
I3218
sS'CTCAAG'
p1255
I13080
sS'CTCAAA'
p1256
I14091
sS'TAGTAG'
p1257
I4527
sS'CTCAAC'
p1258
I8583
sS'GTGTGC'
p1259
I10260
sS'GTGTGA'
p1260
I10517
sS'GTGTGG'
p1261
I14642
sS'TAACGG'
p1262
I670
sS'CTCAAT'
p1263
I4043
sS'TAGTAT'
p1264
I2632
sS'GTTCTC'
p1265
I8474
sS'GTGTGT'
p1266
I13101
sS'ATCTTT'
p1267
I7732
sS'GTTGGG'
p1268
I5799
sS'GTTGGA'
p1269
I3681
sS'GTTGGC'
p1270
I3992
sS'CCTTGG'
p1271
I10528
sS'CCTTGA'
p1272
I6803
sS'GCGTAT'
p1273
I184
sS'CCTTGC'
p1274
I8053
sS'GGACGT'
p1275
I213
sS'GTTGGT'
p1276
I1681
sS'ATCTTG'
p1277
I16640
sS'ATCTTA'
p1278
I14796
sS'ATCTTC'
p1279
I13597
sS'AGGATC'
p1280
I4781
sS'AGGATA'
p1281
I6747
sS'AAACTA'
p1282
I5095
sS'AGGATG'
p1283
I11885
sS'GACATG'
p1284
I13725
sS'TANNAA'
p1285
I1
sS'TTGCGT'
p1286
I641
sS'GACATA'
p1287
I11105
sS'TCGGCG'
p1288
I1007
sS'GAATAT'
p1289
I1452
sS'GGTGCA'
p1290
I4867
sS'TCGGCC'
p1291
I2962
sS'TCGGCA'
p1292
I1101
sS'TTGCGA'
p1293
I774
sS'TTGCGC'
p1294
I1405
sS'TTGCGG'
p1295
I1724
sS'GAATAG'
p1296
I2793
sS'TCGGCT'
p1297
I825
sS'ATCAGC'
p1298
I8592
sS'GAATAC'
p1299
I2602
sS'GAATAA'
p1300
I3927
sS'ACTTTT'
p1301
I3138
sS'CGACAG'
p1302
I350
sS'ATACAA'
p1303
I1693
sS'TTAATT'
p1304
I1993
sS'GGACGA'
p1305
I356
sS'AAAATT'
p1306
I1559
sS'TTTCTA'
p1307
I14857
sS'ACGTCG'
p1308
I493
sS'GGACGC'
p1309
I883
sS'GAAATG'
p1310
I13657
sS'AATGAT'
p1311
I3510
sS'TGCCTA'
p1312
I11178
sS'GAAATC'
p1313
I5532
sS'NNNCCA'
p1314
I1
sS'GAAATT'
p1315
I1746
sS'AATGAA'
p1316
I13259
sS'ATGTCC'
p1317
I8015
sS'AATGAC'
p1318
I10546
sS'AATGAG'
p1319
I12917
sS'TCATTG'
p1320
I7193
sS'ATGGTA'
p1321
I5449
sS'TGCACT'
p1322
I9995
sS'CTTGGC'
p1323
I6781
sS'GTATTG'
p1324
I5009
sS'GTTTTC'
p1325
I14219
sS'CTTGGG'
p1326
I7969
sS'ATACAG'
p1327
I1740
sS'AGCCCT'
p1328
I10452
sS'GCGTAA'
p1329
I358
sS'TTGAAT'
p1330
I2772
sS'GTCCTA'
p1331
I7955
sS'GTCCTC'
p1332
I13494
sS'TGCACG'
p1333
I3740
sS'CTTGGT'
p1334
I2102
sS'GTCCTG'
p1335
I17762
sS'TGCACC'
p1336
I11835
sS'TTGAAA'
p1337
I6769
sS'AGCCCG'
p1338
I6945
sS'AGCCCA'
p1339
I16038
sS'AGCCCC'
p1340
I17121
sS'TTAACT'
p1341
I3925
sS'ATAAAT'
p1342
I2428
sS'TGGTCG'
p1343
I1280
sS'TGGTCA'
p1344
I8728
sS'TGGTCC'
p1345
I6759
sS'ACGATT'
p1346
I179
sS'GAGACT'
p1347
I9303
sS'GATTCA'
p1348
I20136
sS'TGGTCT'
p1349
I5925
sS'ATAAAG'
p1350
I4995
sS'ATAAAA'
p1351
I5611
sS'ATAAAC'
p1352
I4216
sS'GAGACG'
p1353
I4815
sS'ACGGGA'
p1354
I975
sS'CTACAG'
p1355
I1992
sS'GAGACC'
p1356
I12454
sS'CGTATC'
p1357
I946
sS'GAGACA'
p1358
I17449
sS'ACGATA'
p1359
I565
sS'GGTTAC'
p1360
I3856
sS'ATGTGT'
p1361
I6346
sS'GGTTAA'
p1362
I5120
sS'ACCACT'
p1363
I5979
sS'GGTTAG'
p1364
I4510
sS'CTTCCT'
p1365
I8442
sS'TAAACT'
p1366
I5314
sS'CGTGAA'
p1367
I1167
sS'CCAACA'
p1368
I3472
sS'TCCGCT'
p1369
I2452
sS'CTTCCA'
p1370
I9780
sS'CTTCCC'
p1371
I15241
sS'ATGTGA'
p1372
I8809
sS'CGTATG'
p1373
I1230
sS'ACCACA'
p1374
I14864
sS'GGTTAT'
p1375
I1855
sS'TCCGCC'
p1376
I8683
sS'TCCGCA'
p1377
I3092
sS'TCCGCG'
p1378
I3284
sS'AACGTC'
p1379
I2404
sS'CGTGAG'
p1380
I2851
sS'AACGTG'
p1381
I4217
sS'CGTGAC'
p1382
I1986
sS'GGTAGC'
p1383
I3595
sS'AGTGTG'
p1384
I12345
sS'TCTTCG'
p1385
I2228
sS'AGTGTA'
p1386
I7814
sS'TCTTCA'
p1387
I12644
sS'AGTGTC'
p1388
I6432
sS'TCTTCC'
p1389
I17126
sS'TAAGTG'
p1390
I6569
sS'ACTCAA'
p1391
I4603
sS'TAAGTC'
p1392
I3605
sS'TAAGTA'
p1393
I6271
sS'GCTCGC'
p1394
I3382
sS'TCTTCT'
p1395
I8095
sS'AGTGTT'
p1396
I2907
sS'AACCGG'
p1397
I3133
sS'TTGGCA'
p1398
I9806
sS'AAAGGT'
p1399
I1797
sS'TTGGCC'
p1400
I10282
sS'GCTCGA'
p1401
I1157
sS'TTAACG'
p1402
I848
sS'TTGGCG'
p1403
I1747
sS'GACTTC'
p1404
I18411
sS'TCGAGT'
p1405
I368
sS'GACTTA'
p1406
I14548
sS'GACTTG'
p1407
I19795
sS'AAAGGG'
p1408
I7206
sS'AAAGGA'
p1409
I7565
sS'TTGGCT'
p1410
I5375
sS'AAAGGC'
p1411
I5419
sS'AGTAAG'
p1412
I8149
sS'GTATGG'
p1413
I3333
sS'GACTTT'
p1414
I10144
sS'TTCTTT'
p1415
I21666
sS'TGAAAA'
p1416
I3616
sS'CAAGAA'
p1417
I2197
sS'GACGTT'
p1418
I1414
sS'CAAGAC'
p1419
I2154
sS'CAAGAG'
p1420
I2974
sS'CGTATT'
p1421
I476
sS'TTCTTG'
p1422
I28502
sS'TTCTTC'
p1423
I30566
sS'TTCTTA'
p1424
I28752
sS'CAAGAT'
p1425
I668
sS'AGGGCT'
p1426
I5823
sS'TACGGG'
p1427
I1834
sS'TACGGA'
p1428
I1461
sS'TACGGC'
p1429
I1563
sS'CCAACT'
p1430
I1739
sS'TAGAGT'
p1431
I4352
sS'TACGGT'
p1432
I881
sS'CCCGAG'
p1433
I3808
sS'AGGGCA'
p1434
I11819
sS'AGGGCC'
p1435
I11394
sS'TAGAGC'
p1436
I6440
sS'TAGAGA'
p1437
I10438
sS'TAGAGG'
p1438
I10138
sS'GGCGAA'
p1439
I1468
sS'GTGCTG'
p1440
I22321
sS'GTGCTA'
p1441
I8382
sS'ATCTGT'
p1442
I8006
sS'GTGCTC'
p1443
I11498
sS'GCTCGT'
p1444
I579
sS'ATCTGA'
p1445
I12301
sS'GTGCTT'
p1446
I6213
sS'ATCTGC'
p1447
I11621
sS'TCGAGG'
p1448
I1316
sS'CGAATG'
p1449
I1000
sS'ATCTGG'
p1450
I11912
sS'CAATTA'
p1451
I4001
sS'ATCATA'
p1452
I10443
sS'GATAGC'
p1453
I4657
sS'AAGCAG'
p1454
I12080
sS'GATAGA'
p1455
I7358
sS'AAGCAA'
p1456
I10006
sS'CAAACT'
p1457
I3601
sS'AAGCAC'
p1458
I7319
sS'TTTACC'
p1459
I8526
sS'GTTATG'
p1460
I6301
sS'CTAGGT'
p1461
I977
sS'CATTTA'
p1462
I25298
sS'CATTTG'
p1463
I22694
sS'GTTATA'
p1464
I5858
sS'CAAACA'
p1465
I12986
sS'AAGCAT'
p1466
I3142
sS'CAAACC'
p1467
I6755
sS'GTGGCC'
p1468
I13033
sS'ATCATT'
p1469
I4477
sS'GATAGT'
p1470
I3729
sS'ACGCAG'
p1471
I1087
sS'CTAGGG'
p1472
I3015
sS'GTTATT'
p1473
I2421
sS'CTAGGC'
p1474
I2279
sS'CATTTT'
p1475
I9562
sS'CTCGGA'
p1476
I2840
sS'AAGTTT'
p1477
I4157
sS'TACAGT'
p1478
I11373
sS'CTCGAA'
p1479
I1317
sS'CTAACG'
p1480
I941
sS'CTCGGC'
p1481
I6606
sS'CTAAGA'
p1482
I4674
sS'GGGGCT'
p1483
I3909
sS'TACAGG'
p1484
I18767
sS'AAGTTG'
p1485
I9556
sS'GGATGC'
p1486
I1839
sS'AAGTTA'
p1487
I11082
sS'TACAGC'
p1488
I11850
sS'AAGTTC'
p1489
I8314
sS'TACAGA'
p1490
I15839
sS'GGGGCC'
p1491
I10740
sS'GTATGA'
p1492
I4324
sS'GGGGCA'
p1493
I7075
sS'GGGGCG'
p1494
I6985
sS'TTCAAC'
p1495
I9861
sS'AGCGGT'
p1496
I1254
sS'TATATA'
p1497
I18050
sS'TGTATA'
p1498
I10122
sS'TATATG'
p1499
I11718
sS'TCCGGT'
p1500
I1267
sS'GCCCAT'
p1501
I1848
sS'TATATT'
p1502
I6194
sS'GCAAAT'
p1503
I1063
sS'TGATGG'
p1504
I3107
sS'CATATG'
p1505
I9574
sS'ATGAGT'
p1506
I4893
sS'AGGTCT'
p1507
I5459
sS'TGATGA'
p1508
I3585
sS'TGTTTA'
p1509
I25717
sS'CACATC'
p1510
I12484
sS'TGTTTC'
p1511
I18723
sS'CACATA'
p1512
I15831
sS'TCATAA'
p1513
I1814
sS'CACATG'
p1514
I17546
sS'TGTTTG'
p1515
I25544
sS'ATGAGA'
p1516
I7592
sS'ATGAGC'
p1517
I6105
sS'AGTAAC'
p1518
I6528
sS'ATGAGG'
p1519
I8427
sS'TTAATA'
p1520
I9136
sS'ACTCTG'
p1521
I11150
sS'TTAATC'
p1522
I4207
sS'ACTCTA'
p1523
I5803
sS'TGCCAA'
p1524
I8850
sS'ACTCTC'
p1525
I6029
sS'TGCCAC'
p1526
I9993
sS'AAATTC'
p1527
I4638
sS'AAATTA'
p1528
I6766
sS'AAATTG'
p1529
I4958
sS'CCAGTA'
p1530
I2397
sS'TTCAAT'
p1531
I5565
sS'AGACCG'
p1532
I576
sS'AAATTT'
p1533
I1215
sS'TTCGAA'
p1534
I1072
sS'GGGAAC'
p1535
I4595
sS'GGTGCG'
p1536
I2473
sS'GGGAAA'
p1537
I6313
sS'GGGAAG'
p1538
I11031
sS'GGTGCC'
p1539
I5908
sS'AGGTCC'
p1540
I7625
sS'AGAGCG'
p1541
I1920
sS'GCGACT'
p1542
I700
sS'AGCGAT'
p1543
I704
sS'AGAGCC'
p1544
I6465
sS'AGAGCA'
p1545
I6111
sS'GCGTAG'
p1546
I622
sS'GGTGCT'
p1547
I2742
sS'GCGTAC'
p1548
I384
sS'TAATTT'
p1549
I2150
sS'GGGAAT'
p1550
I1838
sS'GCGACG'
p1551
I1039
sS'AGAGCT'
p1552
I2772
sS'GCGACA'
p1553
I1144
sS'TATCGG'
p1554
I919
sS'GCGACC'
p1555
I1746
sS'TCCGGC'
p1556
I4190
sS'GCAGGA'
p1557
I2935
sS'CTAGCT'
p1558
I1920
sS'GCAGGC'
p1559
I2747
sS'GCAGGG'
p1560
I4730
sS'CCGTGA'
p1561
I1238
sS'CCGTGC'
p1562
I1905
sS'GCTCGG'
p1563
I4281
sS'TATTCT'
p1564
I12322
sS'CCGTGG'
p1565
I2441
sS'CTTTAG'
p1566
I7330
sS'GCAGGT'
p1567
I1036
sS'TGAAGC'
p1568
I4517
sS'CTATAC'
p1569
I1783
sS'TATTCC'
p1570
I12380
sS'GGCGAG'
p1571
I4790
sS'TATTCA'
p1572
I19437
sS'CCGTGT'
p1573
I887
sS'TATTCG'
p1574
I1725
sS'GGCGAC'
p1575
I2763
sS'TGTAGA'
p1576
I7481
sS'GGCTCA'
p1577
I17106
sS'TGTAGC'
p1578
I6320
sS'GGCTCC'
p1579
I23052
sS'AATCCT'
p1580
I5796
sS'TGTAGG'
p1581
I7601
sS'GGCTCG'
p1582
I5983
sS'TTCGGA'
p1583
I1495
sS'TTCGGC'
p1584
I2079
sS'CTTTAC'
p1585
I6867
sS'GTCTAC'
p1586
I5542
sS'TTCGGG'
p1587
I2724
sS'AGCATG'
p1588
I14955
sS'GGCTCT'
p1589
I11154
sS'TGTAGT'
p1590
I4977
sS'TTTACT'
p1591
I7678
sS'AGCATA'
p1592
I10541
sS'AACCTT'
p1593
I5257
sS'TCTTGG'
p1594
I9788
sS'TTCGGT'
p1595
I845
sS'GTTTAT'
p1596
I4692
sS'CTCTCA'
p1597
I22430
sS'CGCTAC'
p1598
I1805
sS'AGGCAT'
p1599
I2614
sS'GTTTAA'
p1600
I8660
sS'TCCAGG'
p1601
I19747
sS'CACGAA'
p1602
I1703
sS'CAATCT'
p1603
I1796
sS'GTTTAG'
p1604
I5969
sS'TCCAGA'
p1605
I12559
sS'CTGGCT'
p1606
I6916
sS'AGGCGG'
p1607
I7618
sS'GTCGGT'
p1608
I834
sS'AGGCGC'
p1609
I4583
sS'AGGAGT'
p1610
I5178
sS'ACAGCC'
p1611
I4338
sS'GATAAA'
p1612
I11946
sS'ACAGCA'
p1613
I4336
sS'GAGGTC'
p1614
I7868
sS'ACAGCG'
p1615
I1001
sS'AGGAGC'
p1616
I10600
sS'GTCGGA'
p1617
I1498
sS'AGGAGA'
p1618
I12464
sS'CTGGCG'
p1619
I3561
sS'AGGAGG'
p1620
I22634
sS'CTGGCA'
p1621
I12683
sS'CTGGCC'
p1622
I16565
sS'CGATAC'
p1623
I152
sS'ACCGGT'
p1624
I464
sS'GGAAAA'
p1625
I3191
sS'AACGCT'
p1626
I2149
sS'AATTTT'
p1627
I5460
sS'TGTCAA'
p1628
I6504
sS'TGTCAC'
p1629
I8386
sS'CCCTCT'
p1630
I11579
sS'GGAAAC'
p1631
I3350
sS'TGTCAG'
p1632
I9851
sS'AACGCG'
p1633
I1774
sS'AATTTA'
p1634
I19062
sS'AATTTC'
p1635
I12258
sS'ATTGGC'
p1636
I3884
sS'AACGCA'
p1637
I2955
sS'AATTTG'
p1638
I15582
sS'CCCTCA'
p1639
I14437
sS'ATTTAA'
p1640
I9278
sS'TGTCAT'
p1641
I4227
sS'CCCTCG'
p1642
I5664
sS'ACCGAT'
p1643
I230
sS'TAAATA'
p1644
I17338
sS'CACGAT'
p1645
I662
sS'GGAAAG'
p1646
I4899
sS'TGACCA'
p1647
I1935
sS'CATTCT'
p1648
I14188
sS'TAAATC'
p1649
I5115
sS'GGGTTA'
p1650
I4826
sS'TGACCG'
p1651
I342
sS'CATTCG'
p1652
I2500
sS'CATTCC'
p1653
I20828
sS'ACCACG'
p1654
I3365
sS'TCCATA'
p1655
I8711
sS'GCAATT'
p1656
I888
sS'ACGAAA'
p1657
I438
sS'TAAATG'
p1658
I11966
sS'ACAAAT'
p1659
I1379
sS'GATTAA'
p1660
I10435
sS'GTAGGC'
p1661
I1755
sS'GATTAC'
p1662
I10865
sS'GTAGGA'
p1663
I2340
sS'GTAGGG'
p1664
I2858
sS'GATTAG'
p1665
I7241
sS'GCGGGT'
p1666
I658
sS'ACAAAC'
p1667
I3045
sS'TTTCAA'
p1668
I8917
sS'ACAAAA'
p1669
I3376
sS'ACAAAG'
p1670
I3814
sS'GCGGGC'
p1671
I3796
sS'AGGCGA'
p1672
I2216
sS'GCGGGA'
p1673
I2655
sS'GCGGGG'
p1674
I8021
sS'GATTAT'
p1675
I4945
sS'GTAGGT'
p1676
I1002
sS'GGCGTC'
p1677
I3880
sS'AAGGTT'
p1678
I2599
sS'GATGTT'
p1679
I4152
sS'TAATGC'
p1680
I4384
sS'GGGATG'
p1681
I8135
sS'GCCCTT'
p1682
I4169
sS'GCGCCG'
p1683
I2593
sS'CAATAA'
p1684
I2297
sS'CAATTG'
p1685
I3317
sS'GCCCTC'
p1686
I15030
sS'GATGTG'
p1687
I14524
sS'GCCCTA'
p1688
I7084
sS'GATGTA'
p1689
I8510
sS'GCCCTG'
p1690
I21597
sS'GATGTC'
p1691
I7799
sS'CAATAG'
p1692
I1851
sS'TGAAAT'
p1693
I1987
sS'TTCTAG'
p1694
I12747
sS'TTTCAG'
p1695
I10151
sS'ATCCGT'
p1696
I728
sS'TTCTAC'
p1697
I10403
sS'GAATGT'
p1698
I4509
sS'TTGGAT'
p1699
I1028
sS'TGAAAC'
p1700
I3605
sS'TGAAAG'
p1701
I4790
sS'TTCTAT'
p1702
I7342
sS'ATCCGC'
p1703
I2378
sS'AGTAAT'
p1704
I3879
sS'ATCCGA'
p1705
I1112
sS'ATCCGG'
p1706
I2277
sS'TGGCTC'
p1707
I12528
sS'TGGCTA'
p1708
I7851
sS'TGGCTG'
p1709
I18623
sS'AGGCGT'
p1710
I1348
sS'AGTTGT'
p1711
I5433
sS'AGCTAT'
p1712
I4791
sS'CTTACG'
p1713
I1353
sS'ATTAGT'
p1714
I2729
sS'AAGACA'
p1715
I16036
sS'GTCGGC'
p1716
I2690
sS'CGTCGA'
p1717
I537
sS'NNNNCA'
p1718
I1
sS'TGGCTT'
p1719
I4569
sS'AGTTGG'
p1720
I8692
sS'GGAGAG'
p1721
I2969
sS'AGCTAC'
p1722
I8565
sS'AGTTGC'
p1723
I7405
sS'AGTTGA'
p1724
I8214
sS'AGCTAG'
p1725
I8470
sS'CGTTGA'
p1726
I1670
sS'GCACCT'
p1727
I1001
sS'CAGTGT'
p1728
I7540
sS'TAACAA'
p1729
I2727
sS'TCAGGT'
p1730
I886
sS'TCAAGG'
p1731
I4193
sS'GTCGGG'
p1732
I3824
sS'TCAAGC'
p1733
I2564
sS'CATGGA'
p1734
I6545
sS'GCACCA'
p1735
I1851
sS'CAGTGC'
p1736
I10931
sS'CTAATC'
p1737
I3041
sS'CAGTGA'
p1738
I13285
sS'CAGTGG'
p1739
I13738
sS'GCACCG'
p1740
I756
sS'TCAAGT'
p1741
I1814
sS'TCAGGG'
p1742
I3065
sS'CGCAGG'
p1743
I8813
sS'TCAGGC'
p1744
I2062
sS'CGAGCT'
p1745
I557
sS'TCCTAA'
p1746
I8861
sS'AGTCAA'
p1747
I7465
sS'TTCCCT'
p1748
I14681
sS'CGAGCG'
p1749
I977
sS'CGAGCA'
p1750
I989
sS'GAGCCG'
p1751
I7833
sS'CGAGCC'
p1752
I2151
sS'TTCCCA'
p1753
I21025
sS'TTCCCC'
p1754
I19871
sS'ACAGCT'
p1755
I1812
sS'GTTCAC'
p1756
I4112
sS'GTTCAA'
p1757
I4343
sS'GATCAC'
p1758
I7060
sS'GGACCT'
p1759
I590
sS'CTTACT'
p1760
I5014
sS'TACATG'
p1761
I13976
sS'AAGTAC'
p1762
I4755
sS'CACACT'
p1763
I12202
sS'TACATC'
p1764
I8491
sS'AAGTAG'
p1765
I5760
sS'TACATA'
p1766
I17241
sS'CATGGT'
p1767
I3069
sS'GGACCG'
p1768
I492
sS'ATTGGT'
p1769
I1401
sS'GGACCA'
p1770
I1035
sS'TCATCA'
p1771
I5944
sS'GGACCC'
p1772
I1219
sS'CACACG'
p1773
I5513
sS'TACATT'
p1774
I8897
sS'CACACC'
p1775
I19447
sS'CTGCAT'
p1776
I3219
sS'CACACA'
p1777
I37254
sS'TCTGCC'
p1778
I10022
sS'TCTGCA'
p1779
I8738
sS'TCTGCG'
p1780
I2516
sS'TTTCGA'
p1781
I1081
sS'ATTGCC'
p1782
I3902
sS'CCCGTC'
p1783
I3559
sS'TTAAGG'
p1784
I5767
sS'CCCGTA'
p1785
I1515
sS'TTAAGA'
p1786
I6168
sS'CCCGTG'
p1787
I4126
sS'TTAAGC'
p1788
I3911
sS'TTACGT'
p1789
I279
sS'TAGATC'
p1790
I3972
sS'AAACAG'
p1791
I4853
sS'TAGATA'
p1792
I7578
sS'TTTCGC'
p1793
I1504
sS'TAGATG'
p1794
I8865
sS'TCTGCT'
p1795
I4305
sS'TTACGC'
p1796
I435
sS'TTAAGT'
p1797
I3425
sS'TTACGA'
p1798
I338
sS'TTACGG'
p1799
I545
sS'CCCGTT'
p1800
I731
sS'NNAACT'
p1801
I1
sS'AGTGAC'
p1802
I8282
sS'AGTGAA'
p1803
I7220
sS'AGTGAG'
p1804
I11204
sS'ACATTT'
p1805
I1849
sS'CGGGCG'
p1806
I3876
sS'AAACAC'
p1807
I3409
sS'TAAGAG'
p1808
I3649
sS'CGGGCC'
p1809
I6876
sS'TAAGAA'
p1810
I3499
sS'CGGGCA'
p1811
I3411
sS'TAAGAC'
p1812
I2539
sS'ATTTAT'
p1813
I4276
sS'AGTGAT'
p1814
I2419
sS'GGGNCC'
p1815
I1
sS'TAAGAT'
p1816
I984
sS'CCTGAA'
p1817
I3515
sS'CCTGAC'
p1818
I4443
sS'CCTGAG'
p1819
I6610
sS'GTTAGG'
p1820
I5645
sS'GCCAAC'
p1821
I5944
sS'TCATCT'
p1822
I3829
sS'GTTAGC'
p1823
I3716
sS'GTTAGA'
p1824
I5091
sS'GCCAAA'
p1825
I7279
sS'TATACG'
p1826
I1417
sS'GTTAGT'
p1827
I2744
sS'TATACC'
p1828
I6640
sS'TATACA'
p1829
I12332
sS'AACGCC'
p1830
I3652
sS'CGTATA'
p1831
I1073
sS'TCTTGT'
p1832
I4346
sS'ACTAGT'
p1833
I1459
sS'TTTATT'
p1834
I5797
sS'GTAATA'
p1835
I6249
sS'ATTGGA'
p1836
I2938
sS'GTAATC'
p1837
I3588
sS'TCTAAC'
p1838
I3364
sS'CGTTCT'
p1839
I1865
sS'CCACCG'
p1840
I762
sS'CGGATC'
p1841
I1250
sS'CCACCA'
p1842
I2153
sS'CCACCC'
p1843
I3427
sS'GTTCGT'
p1844
I511
sS'TTTATG'
p1845
I13223
sS'ACTAGG'
p1846
I4103
sS'TTTATC'
p1847
I7893
sS'ACTAGC'
p1848
I2446
sS'TTTATA'
p1849
I15216
sS'ACTAGA'
p1850
I3832
sS'CCACCT'
p1851
I1544
sS'CGTTCG'
p1852
I1004
sS'ACTTGT'
p1853
I2900
sS'CGTTCA'
p1854
I2466
sS'CGTTCC'
p1855
I3905
sS'TCTAAT'
p1856
I1597
sS'CTTTGT'
p1857
I8905
sS'CCCTCC'
p1858
I31348
sS'ACTGGA'
p1859
I3936
sS'ACTGGC'
p1860
I3782
sS'TAGTCC'
p1861
I7086
sS'GTGACC'
p1862
I9047
sS'TAGTCA'
p1863
I15205
sS'GTGACA'
p1864
I10605
sS'TAGTCG'
p1865
I1089
sS'GTGACG'
p1866
I2855
sS'ATTTAG'
p1867
I5665
sS'ACTGGT'
p1868
I1249
sS'CTTTGG'
p1869
I14315
sS'GTATTT'
p1870
I3643
sS'CTTTGC'
p1871
I13472
sS'CTTTGA'
p1872
I12612
sS'GTGACT'
p1873
I10411
sS'TAGTCT'
p1874
I6087
sS'GTGCAC'
p1875
I5426
sS'CGACGG'
p1876
I431
sS'GTGCAA'
p1877
I4639
sS'CGACGA'
p1878
I175
sS'GTGCAG'
p1879
I8891
sS'CGACGC'
p1880
I447
sS'ACCTAC'
p1881
I4553
sS'CCGCAG'
p1882
I1638
sS'CCGCAA'
p1883
I412
sS'CCGCAC'
p1884
I854
sS'CTACGG'
p1885
I734
sS'CGAAGC'
p1886
I1179
sS'CGACGT'
p1887
I101
sS'CGAAGA'
p1888
I861
sS'CCCCGT'
p1889
I1267
sS'CGAAGG'
p1890
I1618
sS'GCGCTC'
p1891
I3662
sS'GTGCAT'
p1892
I2576
sS'GCGCTA'
p1893
I1175
sS'CCGCAT'
p1894
I180
sS'GTTCGC'
p1895
I1303
sS'GAAGAT'
p1896
I1220
sS'GGATCT'
p1897
I1110
sS'CTTCCG'
p1898
I3528
sS'TCGTTT'
p1899
I490
sS'TCGGAC'
p1900
I393
sS'GAATCT'
p1901
I3421
sS'CCTATA'
p1902
I3998
sS'TCGGAG'
p1903
I803
sS'GGATCG'
p1904
I425
sS'GAAGAG'
p1905
I7088
sS'GAAGAA'
p1906
I5236
sS'GGATCC'
p1907
I2496
sS'GAAGAC'
p1908
I4150
sS'GGATCA'
p1909
I2015
sS'GAATCA'
p1910
I9790
sS'GAATCC'
p1911
I5704
sS'TCGGAT'
p1912
I99
sS'GAATCG'
p1913
I1085
sS'ATGGTC'
p1914
I3070
sS'CAGATG'
p1915
I12459
sS'ACGCCG'
p1916
I837
sS'TGACCC'
p1917
I1693
sS'ACGCCA'
p1918
I1240
sS'CAGATC'
p1919
I5756
sS'ACGCCC'
p1920
I2409
sS'CAGATA'
p1921
I8212
sS'GGGTAT'
p1922
I940
sS'CTCGAG'
p1923
I2355
sS'CAGATT'
p1924
I2213
sS'CTCGAC'
p1925
I1344
sS'ATGGTT'
p1926
I1427
sS'TCGCAA'
p1927
I277
sS'GCTATT'
p1928
I1372
sS'CCCCGG'
p1929
I7179
sS'AATGGT'
p1930
I3304
sS'GGATAA'
p1931
I755
sS'ACGTGT'
p1932
I802
sS'AATGGC'
p1933
I6868
sS'AATGGA'
p1934
I8710
sS'AATGGG'
p1935
I8855
sS'CAATAC'
p1936
I1471
sS'GATCAA'
p1937
I6083
sS'CCCCGA'
p1938
I2764
sS'CAACTC'
p1939
I2695
sS'ACAATA'
p1940
I4766
sS'CAACTA'
p1941
I2617
sS'ACGCAA'
p1942
I403
sS'ATTTAC'
p1943
I7156
sS'CGTTAG'
p1944
I1284
sS'AGCCAG'
p1945
I17365
sS'GGAGGG'
p1946
I6202
sS'AAAAGT'
p1947
I3833
sS'AGCCAC'
p1948
I14844
sS'GGAGGC'
p1949
I3640
sS'TGGTAG'
p1950
I3311
sS'CGCCAT'
p1951
I1217
sS'GAGTGT'
p1952
I7060
sS'TGGTAC'
p1953
I2176
sS'TGGTAA'
p1954
I3491
sS'AAAAGG'
p1955
I11237
sS'GGAGGT'
p1956
I1100
sS'AGCCAT'
p1957
I4195
sS'AAAAGC'
p1958
I7806
sS'AGCCAA'
p1959
I11983
sS'AAAAGA'
p1960
I11768
sS'TTGACT'
p1961
I5944
sS'GAGTGG'
p1962
I14499
sS'CGCCAG'
p1963
I5113
sS'TGGTAT'
p1964
I2049
sS'CGCCAA'
p1965
I2019
sS'GAGTGC'
p1966
I9831
sS'CGCCAC'
p1967
I4659
sS'GAGTGA'
p1968
I14288
sS'GCCAGG'
p1969
I22286
sS'GCCAGA'
p1970
I11168
sS'GCCAGC'
p1971
I14620
sS'GCCCGT'
p1972
I1444
sS'CAATCC'
p1973
I3658
sS'TACCGA'
p1974
I1299
sS'TACCGC'
p1975
I2035
sS'TACCGG'
p1976
I1952
sS'GCCCGC'
p1977
I10485
sS'GCCAGT'
p1978
I5730
sS'GCCCGA'
p1979
I3190
sS'GCCCGG'
p1980
I10986
sS'TGCGAT'
p1981
I523
sS'CTTCAC'
p1982
I6013
sS'CTTCAA'
p1983
I5842
sS'TACCGT'
p1984
I1078
sS'TCCGAG'
p1985
I2431
sS'TCCGAA'
p1986
I924
sS'TCCGAC'
p1987
I1258
sS'TAGCGT'
p1988
I658
sS'TATTAG'
p1989
I9368
sS'AATTCC'
p1990
I14104
sS'AATTCG'
p1991
I1793
sS'TCCGAT'
p1992
I345
sS'ACATAC'
p1993
I1530
sS'TAGCGG'
p1994
I1679
sS'TAGCGA'
p1995
I981
sS'TAGCGC'
p1996
I1458
sS'GTCATC'
p1997
I12176
sS'GTCATA'
p1998
I12050
sS'GTCATG'
p1999
I14634
sS'AGCAGG'
p2000
I24880
sS'CCAGGT'
p2001
I944
sS'TTGGAA'
p2002
I3911
sS'TTGGAG'
p2003
I4862
sS'AGCAGA'
p2004
I18465
sS'GTCATT'
p2005
I6569
sS'CCAGGG'
p2006
I3486
sS'AGCAGT'
p2007
I10076
sS'CCAGGA'
p2008
I2556
sS'CCAGGC'
p2009
I2973
sS'AGCGCT'
p2010
I3281
sS'ATAGAG'
p2011
I1618
sS'CATCTG'
p2012
I18413
sS'GATCGG'
p2013
I1821
sS'CATCTA'
p2014
I10974
sS'ATAGAC'
p2015
I1196
sS'CATCTC'
p2016
I15183
sS'GATCGC'
p2017
I2218
sS'GGGGTC'
p2018
I2689
sS'CAAGCC'
p2019
I5745
sS'CATCTT'
p2020
I5509
sS'CAAGCA'
p2021
I5513
sS'CAAGCG'
p2022
I1244
sS'GTTCTT'
p2023
I2901
sS'ACATGA'
p2024
I2942
sS'CGTAAT'
p2025
I419
sS'ACATGC'
p2026
I2510
sS'ACATGG'
p2027
I3102
sS'CCCGCT'
p2028
I3235
sS'GTACAT'
p2029
I597
sS'GGCCAT'
p2030
I2036
sS'CGTAAG'
p2031
I1292
sS'GTTCTG'
p2032
I12248
sS'ACATGT'
p2033
I1753
sS'CGTAAC'
p2034
I953
sS'CGTAAA'
p2035
I1163
sS'AGGGAG'
p2036
I9555
sS'ATCCTT'
p2037
I4334
sS'GGATAC'
p2038
I632
sS'CCCGCC'
p2039
I21970
sS'CCCGCA'
p2040
I4759
sS'CCCTTT'
p2041
I7357
sS'TGTTGT'
p2042
I7370
sS'GTTGTT'
p2043
I1926
sS'ATTAGC'
p2044
I3735
sS'TGGATC'
p2045
I3808
sS'TTGTCG'
p2046
I1368
sS'TTGTCC'
p2047
I10702
sS'TTGTCA'
p2048
I12410
sS'ATCCTC'
p2049
I10756
sS'GTTGTA'
p2050
I5710
sS'ATCCTA'
p2051
I7847
sS'GTTGTC'
p2052
I4171
sS'ATCCTG'
p2053
I14518
sS'GTTGTG'
p2054
I7586
sS'TTGTCT'
p2055
I9463
sS'ACCTCA'
p2056
I13087
sS'TGACTA'
p2057
I4353
sS'TGGGCC'
p2058
I9427
sS'TGACTC'
p2059
I5328
sS'TGGGCA'
p2060
I9971
sS'TGGGCG'
p2061
I3703
sS'TGACTG'
p2062
I4729
sS'AAGCCG'
p2063
I3462
sS'NNNNGC'
p2064
I1
sS'AAGCCC'
p2065
I11463
sS'AAGCCA'
p2066
I14438
sS'CAAAAT'
p2067
I1510
sS'CTATGG'
p2068
I4168
sS'TGGGCT'
p2069
I4763
sS'CAAAAC'
p2070
I4438
sS'CAAAAA'
p2071
I3820
sS'AAGCCT'
p2072
I7148
sS'CAAAAG'
p2073
I4964
sS'TGATTT'
p2074
I1335
sS'TCAATG'
p2075
I4367
sS'AAACTT'
p2076
I1251
sS'TCAATC'
p2077
I1978
sS'TCAATA'
p2078
I4333
sS'CAGTTC'
p2079
I9741
sS'GACCCG'
p2080
I5521
sS'GACCCA'
p2081
I12341
sS'GACCCC'
p2082
I10668
sS'CTCTGT'
p2083
I16900
sS'TAATGA'
p2084
I5863
sS'TCAATT'
p2085
I870
sS'TGGCGT'
p2086
I844
sS'CTCTGC'
p2087
I29959
sS'GACCCT'
p2088
I6816
sS'CTCTGA'
p2089
I22977
sS'ACAATC'
p2090
I1976
sS'CTCTGG'
p2091
I27657
sS'CAGTTT'
p2092
I4138
sS'GCGAAG'
p2093
I1182
sS'CTACTC'
p2094
I3323
sS'TGCTGG'
p2095
I26443
sS'TGCTGA'
p2096
I19676
sS'GAGTCT'
p2097
I9487
sS'TGCTGC'
p2098
I22531
sS'TAGGGA'
p2099
I6081
sS'GCTGGT'
p2100
I1962
sS'GTGATT'
p2101
I2927
sS'ACGTTA'
p2102
I1255
sS'TGCTGT'
p2103
I13808
sS'TAGGGC'
p2104
I4793
sS'TAATGG'
p2105
I4788
sS'TCGCTA'
p2106
I805
sS'TGTACC'
p2107
I5900
sS'GTGATG'
p2108
I10601
sS'GCTGGG'
p2109
I14100
sS'GTGATC'
p2110
I5075
sS'GCTGGC'
p2111
I6488
sS'GTGATA'
p2112
I6144
sS'GCTGGA'
p2113
I6104
sS'TGATAA'
p2114
I1353
sS'TGATAC'
p2115
I1140
sS'TGATAG'
p2116
I1198
sS'CTTGTT'
p2117
I2641
sS'GACGGT'
p2118
I1626
sS'GCTAGG'
p2119
I5097
sS'GCTAGA'
p2120
I3602
sS'ATGAAT'
p2121
I3092
sS'GCTAGC'
p2122
I2638
sS'ATAGGG'
p2123
I1764
sS'TGATAT'
p2124
I772
sS'GAGGTT'
p2125
I3328
sS'GCTAGT'
p2126
I1490
sS'ATGAAC'
p2127
I4007
sS'GACGGG'
p2128
I6060
sS'CTTGTG'
p2129
I10717
sS'GACGGA'
p2130
I3351
sS'CTTGTA'
p2131
I7546
sS'GACGGC'
p2132
I4549
sS'CTTGTC'
p2133
I6342
sS'CAAAGA'
p2134
I7622
sS'GNCCGC'
p2135
I1
sS'CAACGT'
p2136
I270
sS'GGTGAA'
p2137
I4088
sS'GGTGAC'
p2138
I5781
sS'GCGTCT'
p2139
I1496
sS'TGTAAA'
p2140
I11943
sS'GGTGAG'
p2141
I7981
sS'GGAATG'
p2142
I7089
sS'CGTCCT'
p2143
I1593
sS'GGAATC'
p2144
I2538
sS'GGAATA'
p2145
I3488
sS'GCGTCA'
p2146
I1949
sS'GCGTCC'
p2147
I4027
sS'GGTGAT'
p2148
I1375
sS'GCGTCG'
p2149
I1084
sS'CGTCCG'
p2150
I1646
sS'GGAATT'
p2151
I1039
sS'CGTCCC'
p2152
I4356
sS'CGTCCA'
p2153
I2107
sS'CCGTAT'
p2154
I179
sS'GCCGTG'
p2155
I4976
sS'CTACTT'
p2156
I1182
sS'GAAGTG'
p2157
I9784
sS'GCCGTA'
p2158
I1536
sS'CCGTAC'
p2159
I358
sS'CCGTAA'
p2160
I347
sS'CCGTAG'
p2161
I512
sS'GCACTA'
p2162
I1856
sS'GCCGTT'
p2163
I768
sS'GAAGTT'
p2164
I1415
sS'GGCGCG'
p2165
I7656
sS'ATGCCC'
p2166
I7782
sS'TTAGTT'
p2167
I1135
sS'ATGCCA'
p2168
I10146
sS'GGCGCC'
p2169
I10676
sS'TATTAA'
p2170
I14291
sS'GGCGCA'
p2171
I4734
sS'TATTAC'
p2172
I9701
sS'ACTATG'
p2173
I5414
sS'CCATAT'
p2174
I722
sS'TTTAAG'
p2175
I10458
sS'ACTATC'
p2176
I2336
sS'TTTAAA'
p2177
I18510
sS'ACTATA'
p2178
I4812
sS'TTTAAC'
p2179
I7609
sS'TATTAT'
p2180
I8142
sS'TTAGTG'
p2181
I4461
sS'GGCGCT'
p2182
I3724
sS'TTAGTC'
p2183
I3868
sS'ATGCCT'
p2184
I6281
sS'TTAGTA'
p2185
I4643
sS'TTTAAT'
p2186
I4425
sS'ACTATT'
p2187
I1508
sS'GGGCAT'
p2188
I1194
sS'TTTCCG'
p2189
I2263
sS'TTTCCA'
p2190
I11257
sS'TTTCCC'
p2191
I12379
sS'GTACGT'
p2192
I253
sS'TATCGA'
p2193
I825
sS'GTTTGT'
p2194
I9018
sS'TTCTAA'
p2195
I16452
sS'TTTCCT'
p2196
I7887
sS'GGGCAG'
p2197
I8366
sS'GTCTGT'
p2198
I10085
sS'GGGCAA'
p2199
I3101
sS'GGGCAC'
p2200
I3871
sS'GTTTGC'
p2201
I11260
sS'GTTTGA'
p2202
I9405
sS'GTTTGG'
p2203
I10664
sS'GTACGA'
p2204
I289
sS'CCGCTC'
p2205
I3194
sS'GCATGT'
p2206
I1842
sS'CCGCTA'
p2207
I1088
sS'CCGCTG'
p2208
I3994
sS'AGCATT'
p2209
I6589
sS'GCGCGG'
p2210
I4159
sS'GCGCGC'
p2211
I3774
sS'GCGCGA'
p2212
I1051
sS'GCATGG'
p2213
I3223
sS'GCATGC'
p2214
I2825
sS'CCGCTT'
p2215
I523
sS'GCATGA'
p2216
I2960
sS'GTCGAC'
p2217
I796
sS'GTCGAA'
p2218
I712
sS'GTCGAG'
p2219
I1435
sS'AGACAT'
p2220
I654
sS'GAGCTA'
p2221
I9208
sS'TGCGCT'
p2222
I2303
sS'GAGCTC'
p2223
I13766
sS'ATTGAT'
p2224
I846
sS'GAGCTG'
p2225
I24512
sS'AAACGA'
p2226
I888
sS'AAACGC'
p2227
I1066
sS'GTAACA'
p2228
I5814
sS'CACGCG'
p2229
I2992
sS'AAACGG'
p2230
I1197
sS'TGTCCC'
p2231
I9320
sS'TGCGCG'
p2232
I3755
sS'TGTCCA'
p2233
I8431
sS'TGTCCG'
p2234
I2102
sS'TGCGCC'
p2235
I5900
sS'ATTGAG'
p2236
I3376
sS'TGCGCA'
p2237
I3834
sS'ACCGAC'
p2238
I929
sS'CAATTC'
p2239
I3294
sS'AAACGT'
p2240
I532
sS'ATTTCG'
p2241
I1269
sS'ATTTCA'
p2242
I13319
sS'ATTTCC'
p2243
I12524
sS'ATCAGT'
p2244
I5216
sS'ATCGGG'
p2245
I1260
sS'CATAGT'
p2246
I4674
sS'AAATCA'
p2247
I7216
sS'ATCGGC'
p2248
I1024
sS'ATCGGA'
p2249
I731
sS'TGGGTG'
p2250
I10449
sS'CGATCA'
p2251
I406
sS'TGGGTC'
p2252
I4452
sS'TGGGTA'
p2253
I5535
sS'CATAGG'
p2254
I7264
sS'ATCGGT'
p2255
I349
sS'ATCAGG'
p2256
I9571
sS'CATAGC'
p2257
I6842
sS'CATAGA'
p2258
I7673
sS'GGTCAA'
p2259
I3208
sS'ACGGGT'
p2260
I269
sS'CCTGGT'
p2261
I1872
sS'ATTCGG'
p2262
I1031
sS'GATTCT'
p2263
I10462
sS'CTTTTG'
p2264
I19392
sS'TACTAG'
p2265
I7242
sS'CTTTTC'
p2266
I18983
sS'CAGCAA'
p2267
I6415
sS'CTTTTA'
p2268
I21044
sS'GATTCC'
p2269
I12993
sS'ACGGGG'
p2270
I1641
sS'GATTCG'
p2271
I2279
sS'ACGGGC'
p2272
I978
sS'TACTAT'
p2273
I6420
sS'CTTTTT'
p2274
I6454
sS'ACCAAC'
p2275
I4918
sS'CGTAGA'
p2276
I1175
sS'TCACGA'
p2277
I343
sS'TCACGC'
p2278
I642
sS'TCACGG'
p2279
I666
sS'TCTCAT'
p2280
I2116
sS'TCACGT'
p2281
I306
sS'AGTGGA'
p2282
I5851
sS'TTCCAC'
p2283
I10503
sS'TTCCAA'
p2284
I11531
sS'TTCCAG'
p2285
I16496
sS'ACCCTT'
p2286
I2633
sS'TGAAGT'
p2287
I2767
sS'AAACAA'
p2288
I5591
sS'ATGCTT'
p2289
I4270
sS'TTCCAT'
p2290
I4916
sS'ACCCTA'
p2291
I5358
sS'TGAAGA'
p2292
I5533
sS'TGAAGG'
p2293
I6758
sS'ACCCTG'
p2294
I11582
sS'CTGACT'
p2295
I8524
sS'CCCCTT'
p2296
I3674
sS'AGTTAT'
p2297
I3141
sS'ACATAT'
p2298
I992
sS'CTGACG'
p2299
I2426
sS'CTGACC'
p2300
I10392
sS'CTGACA'
p2301
I9731
sS'AGTTAA'
p2302
I8186
sS'CCCCTG'
p2303
I13637
sS'AGTTAC'
p2304
I6069
sS'CCCCTC'
p2305
I15271
sS'AGTTAG'
p2306
I5959
sS'CCCCTA'
p2307
I6371
sS'ACACAG'
p2308
I2115
sS'ACACAA'
p2309
I1357
sS'ACACAC'
p2310
I2588
sS'AATGTT'
p2311
I5145
sS'CTGCAG'
p2312
I13489
sS'CATGGG'
p2313
I7835
sS'CTGCAC'
p2314
I8170
sS'CATGGC'
p2315
I7115
sS'AATGTC'
p2316
I9226
sS'ACACAT'
p2317
I776
sS'AATGTA'
p2318
I14114
sS'AATGTG'
p2319
I16116
sS'AGCTAA'
p2320
I10385
sS'GCACAC'
p2321
I1171
sS'GCACAA'
p2322
I945
sS'GCACAG'
p2323
I1748
sS'CGATTC'
p2324
I537
sS'CCACAG'
p2325
I1807
sS'CGAGAT'
p2326
I133
sS'ATTACT'
p2327
I4220
sS'CACAAT'
p2328
I5483
sS'ACATTG'
p2329
I4543
sS'GTACCA'
p2330
I1911
sS'ACATTA'
p2331
I4950
sS'ACATTC'
p2332
I4792
sS'ATTACA'
p2333
I9041
sS'GATACA'
p2334
I9982
sS'ATTACC'
p2335
I4539
sS'CGAGAC'
p2336
I507
sS'GTTCGG'
p2337
I1550
sS'AAGTCT'
p2338
I7886
sS'ATGCTA'
p2339
I7881
sS'GGACAT'
p2340
I289
sS'CAGCGT'
p2341
I1298
sS'NNNNCC'
p2342
I1
sS'GCTATA'
p2343
I4237
sS'GCTATC'
p2344
I2116
sS'AAGTCG'
p2345
I1938
sS'AACCTA'
p2346
I9369
sS'AAGTCA'
p2347
I15548
sS'GCTATG'
p2348
I5651
sS'AAGTCC'
p2349
I10473
sS'GGACAG'
p2350
I1272
sS'GGACAC'
p2351
I830
sS'GGACAA'
p2352
I750
sS'CTAATT'
p2353
I1454
sS'AGGGTT'
p2354
I1864
sS'GAGGCG'
p2355
I10561
sS'TGTTGG'
p2356
I11075
sS'GAGGCA'
p2357
I19697
sS'TGTTGA'
p2358
I12024
sS'GAGGCC'
p2359
I21661
sS'TGTTGC'
p2360
I10249
sS'ACTCGA'
p2361
I836
sS'TAAAAT'
p2362
I3512
sS'ACTCGC'
p2363
I1548
sS'AAGCTT'
p2364
I4014
sS'ACTCGG'
p2365
I1998
sS'AGCGCA'
p2366
I4072
sS'GAGGCT'
p2367
I11571
sS'AGCGCC'
p2368
I8080
sS'AGGGTG'
p2369
I9898
sS'AGGGTA'
p2370
I4707
sS'AGCGCG'
p2371
I5102
sS'AGGGTC'
p2372
I3771
sS'TAAAAG'
p2373
I7785
sS'ACTCGT'
p2374
I434
sS'TAAAAC'
p2375
I6423
sS'TAAAAA'
p2376
I7465
sS'ACGTTC'
p2377
I1327
sS'AGCTGC'
p2378
I22075
sS'CTACTA'
p2379
I3263
sS'AGCTGA'
p2380
I18599
sS'ACGTTG'
p2381
I1630
sS'AGCTGG'
p2382
I24791
sS'TAGGGG'
p2383
I5522
sS'AGTGCG'
p2384
I2205
sS'AGTGCA'
p2385
I8044
sS'AGAGTT'
p2386
I1036
sS'AGTGCC'
p2387
I8101
sS'CCAAAA'
p2388
I1568
sS'TAGGGT'
p2389
I2089
sS'GCATAG'
p2390
I1151
sS'AGCTGT'
p2391
I12217
sS'ACGTTT'
p2392
I547
sS'AGTGCT'
p2393
I5165
sS'AGAGTC'
p2394
I3383
sS'AGAGTA'
p2395
I3872
sS'AGAGTG'
p2396
I5733
sS'TTCGTA'
p2397
I1695
sS'GTTAAA'
p2398
I7008
sS'CCTGGC'
p2399
I7420
sS'GTTAAC'
p2400
I4155
sS'CCTGGA'
p2401
I5580
sS'CCTGGG'
p2402
I11831
sS'GTTAAG'
p2403
I5854
sS'TTCGTC'
p2404
I1799
sS'GCACCC'
p2405
I1871
sS'GTCTGG'
p2406
I16684
sS'GTCTGC'
p2407
I13390
sS'GTTAAT'
p2408
I2003
sS'GTCTGA'
p2409
I13283
sS'GGAAGG'
p2410
I10344
sS'CCACAT'
p2411
I556
sS'GGAAGC'
p2412
I5871
sS'CTAATG'
p2413
I5973
sS'GGAAGA'
p2414
I6103
sS'GCGTTA'
p2415
I1075
sS'TCCTCT'
p2416
I16283
sS'GCGTTC'
p2417
I1768
sS'CAATGC'
p2418
I3278
sS'GCGTTG'
p2419
I1843
sS'CAATGG'
p2420
I4078
sS'ATGCTG'
p2421
I14422
sS'GGAAGT'
p2422
I2964
sS'ATGCTC'
p2423
I8043
sS'CCACAA'
p2424
I992
sS'AAACCA'
p2425
I5500
sS'TCCTCG'
p2426
I5339
sS'TGTATG'
p2427
I9861
sS'TCCTCA'
p2428
I20212
sS'GCGTTT'
p2429
I588
sS'TCCTCC'
p2430
I33277
sS'TGTATC'
p2431
I6104
sS'GTGAAT'
p2432
I2570
sS'TAACCG'
p2433
I478
sS'TCAAAC'
p2434
I2187
sS'TTCGTG'
p2435
I2721
sS'CGTTAC'
p2436
I1146
sS'TAACCC'
p2437
I2332
sS'CGTTAA'
p2438
I1205
sS'TAACCA'
p2439
I3736
sS'ACCGCT'
p2440
I1288
sS'AACCCA'
p2441
I12333
sS'TCAGGA'
p2442
I2305
sS'TTCGTT'
p2443
I955
sS'TACCCT'
p2444
I5845
sS'TAACCT'
p2445
I1578
sS'GTGAAG'
p2446
I6837
sS'GTGAAA'
p2447
I5894
sS'GTGAAC'
p2448
I4058
sS'TGCATA'
p2449
I11808
sS'ACCGCG'
p2450
I2231
sS'ACCGCA'
p2451
I2606
sS'CCCTAT'
p2452
I2060
sS'ACCGCC'
p2453
I4701
sS'AGTTCC'
p2454
I11534
sS'CCGCCT'
p2455
I2206
sS'AGGCTT'
p2456
I4278
sS'CCTTCT'
p2457
I7445
sS'GTTGCA'
p2458
I5225
sS'AACGAA'
p2459
I1888
sS'GTTGCC'
p2460
I5533
sS'GTGCCG'
p2461
I3778
sS'GTGCCA'
p2462
I12409
sS'GTTGCG'
p2463
I1182
sS'GTGCCC'
p2464
I13632
sS'CCGCCG'
p2465
I2619
sS'AGGCTA'
p2466
I7580
sS'CCTTCC'
p2467
I19840
sS'AGGCTC'
p2468
I11061
sS'CCGCCC'
p2469
I9231
sS'TGTCGA'
p2470
I957
sS'CCGCCA'
p2471
I2420
sS'AGGCTG'
p2472
I21881
sS'GTGCCT'
p2473
I9414
sS'TCCAAA'
p2474
I9184
sS'GTTGCT'
p2475
I3121
sS'NNNGCG'
p2476
I1
sS'GGATAT'
p2477
I422
sS'ATAGGT'
p2478
I686
sS'TCGGGT'
p2479
I302
sS'AAACCT'
p2480
I1868
sS'GCAGTT'
p2481
I746
sS'GAAGCT'
p2482
I4211
sS'TCGGGC'
p2483
I1283
sS'TCGGGA'
p2484
I982
sS'TCGGGG'
p2485
I1815
sS'GGATAG'
p2486
I710
sS'GAAGCG'
p2487
I2851
sS'GCAGTG'
p2488
I5710
sS'GAAGCC'
p2489
I10211
sS'GCAGTA'
p2490
I2749
sS'GAAGCA'
p2491
I9735
sS'GCAGTC'
p2492
I2222
sS'CGCCCG'
p2493
I8115
sS'GAGAGA'
p2494
I21818
sS'GTTCAT'
p2495
I1839
sS'GAGAGG'
p2496
I24959
sS'CGCCCA'
p2497
I7132
sS'CTACAA'
p2498
I1556
sS'CTATAG'
p2499
I2068
sS'NNNNNN'
p2500
I4
sS'GCATTC'
p2501
I4360
sS'GCATTA'
p2502
I4123
sS'CTCGCA'
p2503
I3300
sS'CGCCCT'
p2504
I5210
sS'CTCGCG'
p2505
I3718
sS'AAACAT'
p2506
I1444
sS'GCATTT'
p2507
I1601
sS'AACTGA'
p2508
I16507
sS'GCCGGG'
p2509
I11633
sS'AGCATC'
p2510
I10243
sS'GCCGGC'
p2511
I7351
sS'CATGTT'
p2512
I3652
sS'GCCGGA'
p2513
I3702
sS'AGATCT'
p2514
I1914
sS'ACGTAG'
p2515
I543
sS'TACCCA'
p2516
I9814
sS'CATGTA'
p2517
I10517
sS'CATGTC'
p2518
I7911
sS'GCCGGT'
p2519
I1195
sS'CATGTG'
p2520
I14820
sS'AGTTCG'
p2521
I1965
sS'GGCCTG'
p2522
I19521
sS'GGCCTC'
p2523
I17195
sS'GGCCTA'
p2524
I6126
sS'TTTGTT'
p2525
I4723
sS'AATCGG'
p2526
I1687
sS'AATCGC'
p2527
I1758
sS'AATCGA'
p2528
I1214
sS'GTTCAG'
p2529
I6081
sS'GGCCTT'
p2530
I4003
sS'TCACTA'
p2531
I3163
sS'TCACTC'
p2532
I3270
sS'AATCGT'
p2533
I859
sS'AGCCGA'
p2534
I3944
sS'CCTTCA'
p2535
I10884
sS'AGCCGC'
p2536
I8632
sS'TAATTG'
p2537
I5209
sS'TAATTA'
p2538
I6295
sS'AGCCGG'
p2539
I8373
sS'GTTTTT'
p2540
I5073
sS'TGGTGA'
p2541
I7927
sS'GGGCTC'
p2542
I9980
sS'TGGTGC'
p2543
I6247
sS'GGGCTA'
p2544
I4468
sS'GGGCTG'
p2545
I17561
sS'TGGTGG'
p2546
I9836
sS'GATGGG'
p2547
I11154
sS'AAAAAA'
p2548
I10997
sS'GAGCGG'
p2549
I7810
sS'GTTTTG'
p2550
I16665
sS'AGCCGT'
p2551
I1826
sS'GAGCGC'
p2552
I7171
sS'ATCACA'
p2553
I12884
sS'CCAAGG'
p2554
I4652
sS'ACGTAT'
p2555
I219
sS'TCTCAG'
p2556
I7843
sS'GATGGT'
p2557
I3609
sS'TGGTGT'
p2558
I4927
sS'GGGCTT'
p2559
I2716
sS'ATTCGT'
p2560
I421
sS'AGAACT'
p2561
I3785
sS'TAACAT'
p2562
I984
sS'CCTTCG'
p2563
I2850
sS'TACCAT'
p2564
I3858
sS'GTATCC'
p2565
I4160
sS'AGATAG'
p2566
I1310
sS'ACCCGG'
p2567
I3812
sS'ACCCGA'
p2568
I1600
sS'ATGTCT'
p2569
I6761
sS'ACCCGC'
p2570
I3677
sS'ACCAGT'
p2571
I3862
sS'TACCAC'
p2572
I7503
sS'AGAACG'
p2573
I1374
sS'GTAACG'
p2574
I877
sS'AGAACA'
p2575
I8394
sS'TACCAG'
p2576
I7995
sS'AGAACC'
p2577
I5747
sS'ACCAGC'
p2578
I9220
sS'CACTGG'
p2579
I20556
sS'CCTATG'
p2580
I4949
sS'TGACAA'
p2581
I1250
sS'ACCAGG'
p2582
I11187
sS'CACTGC'
p2583
I24490
sS'ATGTCG'
p2584
I1194
sS'CACTGA'
p2585
I19633
sS'TAGGTT'
p2586
I2013
sS'GTTTAC'
p2587
I8237
sS'AATTAT'
p2588
I4781
sS'CTGTTG'
p2589
I14278
sS'TGCTAT'
p2590
I5379
sS'CTGTTC'
p2591
I12154
sS'CGGGTT'
p2592
I505
sS'CTGTTA'
p2593
I11688
sS'AATTAC'
p2594
I7749
sS'AATTAA'
p2595
I10824
sS'AATTAG'
p2596
I7092
sS'TAGGTC'
p2597
I4134
sS'CGGGTC'
p2598
I2229
sS'CTGTTT'
p2599
I7508
sS'CGGGTA'
p2600
I1295
sS'CGGGTG'
p2601
I3367
sS'CCAAAC'
p2602
I1870
sS'ATTGTT'
p2603
I1894
sS'AAGTAA'
p2604
I7957
sS'CATTAC'
p2605
I8116
sS'TTAGGG'
p2606
I2583
sS'ATATAT'
p2607
I2107
sS'AGCAAC'
p2608
I10221
sS'TTAGGC'
p2609
I1755
sS'AAAGCT'
p2610
I3519
sS'AGCAAG'
p2611
I15067
sS'AAAGCA'
p2612
I10934
sS'AAAGCC'
p2613
I8399
sS'TTAGGT'
p2614
I1053
sS'ATATAA'
p2615
I3108
sS'AGCAAT'
p2616
I6413
sS'AAAGCG'
p2617
I1690
sS'TACTTC'
p2618
I16024
sS'TACTTA'
p2619
I19470
sS'TACTTG'
p2620
I17020
sS'ATAGCG'
p2621
I457
sS'TCTCAC'
p2622
I5019
sS'CAGCAT'
p2623
I2393
sS'TGCTAA'
p2624
I11289
sS'ATAGCT'
p2625
I1570
sS'TACTTT'
p2626
I11775
sS'CGAGTT'
p2627
I159
sS'TCCAAT'
p2628
I2788
sS'CGTACT'
p2629
I717
sS'CAGCGG'
p2630
I5066
sS'TATGCT'
p2631
I5649
sS'CTTAAG'
p2632
I6303
sS'ACATAA'
p2633
I1744
sS'CTTAAA'
p2634
I7945
sS'AGGGGT'
p2635
I2009
sS'CTTAAC'
p2636
I5144
sS'CGTACA'
p2637
I1221
sS'CGAGTG'
p2638
I1215
sS'TTGTTA'
p2639
I13241
sS'TCCAAC'
p2640
I6483
sS'CGAGTC'
p2641
I871
sS'AGGGGA'
p2642
I6884
sS'CTTAAT'
p2643
I2170
sS'AGGGGC'
p2644
I6628
sS'TATGCA'
p2645
I10432
sS'TATGCC'
p2646
I7071
sS'CGTTTG'
p2647
I3612
sS'CGACTT'
p2648
I132
sS'TGAATT'
p2649
I1577
sS'TTGTAA'
p2650
I5978
sS'CACAAA'
p2651
I14858
sS'TTGTAC'
p2652
I3920
sS'GTACCT'
p2653
I1162
sS'NNCAGA'
p2654
I1
sS'TTGTAG'
p2655
I4930
sS'TGAATC'
p2656
I5109
sS'ACAACA'
p2657
I4478
sS'TGAATA'
p2658
I7340
sS'CGACTC'
p2659
I673
sS'TGAATG'
p2660
I8639
sS'AAGTAT'
p2661
I3062
sS'CGACTG'
p2662
I758
sS'TTGTAT'
p2663
I3292
sS'ATCGTG'
p2664
I1981
sS'GCTTCG'
p2665
I2568
sS'GCTTCA'
p2666
I9246
sS'GCTTCC'
p2667
I14563
sS'TGGGAG'
p2668
I6721
sS'TGTGGT'
p2669
I4537
sS'TGGGAA'
p2670
I4271
sS'TGGGAC'
p2671
I3253
sS'GCTTCT'
p2672
I6186
sS'ATCGTT'
p2673
I470
sS'ACAACG'
p2674
I648
sS'TGGGAT'
p2675
I1327
sS'CACCGT'
p2676
I1807
sS'CTAGCC'
p2677
I3749
sS'CTAGCA'
p2678
I3701
sS'CTAGCG'
p2679
I912
sS'CGGTGA'
p2680
I1958
sS'CGGTAG'
p2681
I817
sS'ACTTAG'
p2682
I4434
sS'TAGATT'
p2683
I2458
sS'ACTTAA'
p2684
I5209
sS'CGGTAC'
p2685
I539
sS'ACTTAC'
p2686
I3554
sS'CGGTAA'
p2687
I582
sS'GACCAG'
p2688
I11869
sS'GACCAC'
p2689
I8620
sS'CACGGA'
p2690
I2867
sS'CTATCC'
p2691
I4693
sS'TACACC'
p2692
I8450
sS'CGGTAT'
p2693
I238
sS'TACACA'
p2694
I20162
sS'TACACG'
p2695
I2864
sS'GCGAGA'
p2696
I1569
sS'GAGAGC'
p2697
I13584
sS'GCGAGC'
p2698
I2201
sS'GCTGAG'
p2699
I8734
sS'GCGAGG'
p2700
I3953
sS'CAGCCG'
p2701
I4548
sS'CAGCCA'
p2702
I13827
sS'CAGCCC'
p2703
I16966
sS'GCGAGT'
p2704
I590
sS'GAACTG'
p2705
I6675
sS'GAACTC'
p2706
I4098
sS'GAACTA'
p2707
I4061
sS'GGACTT'
p2708
I447
sS'CACCTA'
p2709
I10855
sS'AACTAT'
p2710
I5441
sS'CACCTC'
p2711
I17295
sS'CACCTG'
p2712
I21694
sS'TGATCC'
p2713
I3033
sS'AACACT'
p2714
I12566
sS'TGATCA'
p2715
I2960
sS'TGATCG'
p2716
I385
sS'AACTAG'
p2717
I8294
sS'GGACTG'
p2718
I2746
sS'CACCTT'
p2719
I5645
sS'GGACTA'
p2720
I1542
sS'GGACTC'
p2721
I1762
sS'AACGAT'
p2722
I622
sS'AACACG'
p2723
I3911
sS'AACACA'
p2724
I23328
sS'AACACC'
p2725
I12990
sS'TGATCT'
p2726
I1958
sS'TGTAAT'
p2727
I4727
sS'ACGCAC'
p2728
I686
sS'CAACAG'
p2729
I2173
sS'GACAGT'
p2730
I10213
sS'CAACAA'
p2731
I1895
sS'AAAGAA'
p2732
I6455
sS'CAACAC'
p2733
I1356
sS'GCTGAT'
p2734
I1122
sS'CTATAA'
p2735
I2862
sS'GACAGG'
p2736
I22025
sS'ATATCC'
p2737
I4458
sS'GACAGC'
p2738
I16753
sS'GACAGA'
p2739
I21164
sS'GTATTA'
p2740
I6895
sS'GTATTC'
p2741
I4558
sS'GTAAGT'
p2742
I2536
sS'ATATCA'
p2743
I5143
sS'AGAGGT'
p2744
I1371
sS'GGTGGC'
p2745
I6308
sS'TCCCCT'
p2746
I7394
sS'GGTGGA'
p2747
I5486
sS'CGTCAT'
p2748
I587
sS'GGTGGG'
p2749
I10250
sS'ATCCCT'
p2750
I5320
sS'AGAGGC'
p2751
I4071
sS'GTAAGA'
p2752
I4890
sS'AGAGGA'
p2753
I4514
sS'CTCGCC'
p2754
I8029
sS'AGAGGG'
p2755
I5633
sS'GTAAGG'
p2756
I4775
sS'TCCCCG'
p2757
I6070
sS'CGTCAC'
p2758
I2342
sS'TCCCCC'
p2759
I10155
sS'GGTGGT'
p2760
I1858
sS'TATCTG'
p2761
I13341
sS'GTCGCG'
p2762
I2030
sS'GTCGCA'
p2763
I1832
sS'GTCGCC'
p2764
I4230
sS'CCGTCT'
p2765
I1365
sS'TAATAC'
p2766
I3030
sS'TCGGTA'
p2767
I724
sS'GAGAGT'
p2768
I6616
sS'TCGGTG'
p2769
I1580
sS'GTCGCT'
p2770
I1744
sS'GTAACT'
p2771
I3296
sS'CCGTCG'
p2772
I824
sS'CCGTCA'
p2773
I1524
sS'CCGTCC'
p2774
I3532
sS'GGCTGT'
p2775
I9323
sS'CGCGTG'
p2776
I3263
sS'ACGCAT'
p2777
I182
sS'CGCGTC'
p2778
I3386
sS'CGCGTA'
p2779
I908
sS'GTTTTA'
p2780
I17843
sS'CCACTG'
p2781
I4374
sS'ATGCAA'
p2782
I4504
sS'CCACTC'
p2783
I2350
sS'CGCGTT'
p2784
I662
sS'GGCTGG'
p2785
I27298
sS'GGCTGA'
p2786
I16145
sS'GGCTGC'
p2787
I23035
sS'CCACTT'
p2788
I718
sS'CCTACC'
p2789
I5836
sS'ATGACG'
p2790
I1585
sS'GGAGTT'
p2791
I633
sS'ATGACA'
p2792
I9770
sS'ATGACC'
p2793
I6216
sS'CCTGAT'
p2794
I958
sS'GGGCCT'
p2795
I4855
sS'ATGACT'
p2796
I8405
sS'GGAGTA'
p2797
I2087
sS'CTACGC'
p2798
I620
sS'GGAGTC'
p2799
I2367
sS'GGAGTG'
p2800
I4132
sS'GGGCCG'
p2801
I5204
sS'GGGCCC'
p2802
I9764
sS'GGGCCA'
p2803
I7158
sS'CTGATC'
p2804
I4558
sS'ACGAGT'
p2805
I327
sS'AGGCCA'
p2806
I10687
sS'AGGCCC'
p2807
I11843
sS'GCGCAG'
p2808
I2140
sS'ACGAGG'
p2809
I1615
sS'ACGAGC'
p2810
I931
sS'ACGAGA'
p2811
I815
sS'GGCAAC'
p2812
I7152
sS'AGGCCT'
p2813
I6509
sS'GATTTA'
p2814
I16286
sS'AGACGG'
p2815
I1046
sS'GGGTTG'
p2816
I6478
sS'GACTAC'
p2817
I8160
sS'ATTGTG'
p2818
I7733
sS'GGGTTC'
p2819
I4298
sS'TTTGAT'
p2820
I1813
sS'TGCAAT'
p2821
I5008
sS'ACTTAT'
p2822
I1560
sS'CTACGA'
p2823
I434
sS'ATTGCT'
p2824
I2717
sS'GGGTTT'
p2825
I2318
sS'TGCGAC'
p2826
I1370
sS'AGAAAT'
p2827
I2263
sS'TGCGAG'
p2828
I2500
sS'AACGGC'
p2829
I2202
sS'AGACGC'
p2830
I987
sS'AACGGA'
p2831
I2092
sS'TTTGGC'
p2832
I5544
sS'AACGGG'
p2833
I2791
sS'TTTGAC'
p2834
I4901
sS'TTTGAA'
p2835
I7428
sS'CGGGCT'
p2836
I2113
sS'CTCGTA'
p2837
I1808
sS'CTCGTC'
p2838
I2856
sS'CCCTGG'
p2839
I20034
sS'CCCTGA'
p2840
I12373
sS'CTCGTG'
p2841
I3756
sS'CCCTGC'
p2842
I20541
sS'CCCTGT'
p2843
I7282
sS'AAGCTC'
p2844
I10084
sS'GATATA'
p2845
I8226
sS'TGACGG'
p2846
I656
sS'GATATG'
p2847
I8566
sS'AAGCTG'
p2848
I16916
sS'TGACGC'
p2849
I671
sS'TACTCT'
p2850
I11933
sS'CATCGT'
p2851
I1109
sS'CAGGGT'
p2852
I2859
sS'CCAGTC'
p2853
I2475
sS'TACGAT'
p2854
I551
sS'CCAGTG'
p2855
I4683
sS'TACTCG'
p2856
I2523
sS'CATCGA'
p2857
I1340
sS'CATCGC'
p2858
I2395
sS'TACTCC'
p2859
I11648
sS'NGAATT'
p2860
I1
sS'TACTCA'
p2861
I21662
sS'CATCGG'
p2862
I1775
sS'CAGGGG'
p2863
I9560
sS'CAGGGA'
p2864
I9985
sS'CAGGGC'
p2865
I11216
sS'AATCTG'
p2866
I13018
sS'CGGACT'
p2867
I1102
sS'GCCATT'
p2868
I3259
sS'AGTCGA'
p2869
I1122
sS'AATCTA'
p2870
I9296
sS'TGAACG'
p2871
I868
sS'TCACAC'
p2872
I1285
sS'TCACAA'
p2873
I1198
sS'TCACAG'
p2874
I1919
sS'GCCATA'
p2875
I6523
sS'CGGACG'
p2876
I1424
sS'TCCACC'
p2877
I16173
sS'CGGACA'
p2878
I1769
sS'CGGACC'
p2879
I2551
sS'GCCATG'
p2880
I11662
sS'CTTACC'
p2881
I6560
sS'TCACAT'
p2882
I704
sS'ATTAAC'
p2883
I4260
sS'ATTAAA'
p2884
I8857
sS'ATTAAG'
p2885
I5588
sS'TTTTAC'
p2886
I7757
sS'TCACTT'
p2887
I1099
sS'TCCACG'
p2888
I3718
sS'GAACCG'
p2889
I955
sS'ATTAAT'
p2890
I2190
sS'ATCATG'
p2891
I11233
sS'TACCTG'
p2892
I14258
sS'GGTATG'
p2893
I5162
sS'GGTATA'
p2894
I3905
sS'GGTATC'
p2895
I2588
sS'CGAGAG'
p2896
I700
sS'CAATGA'
p2897
I4319
sS'ACGAAT'
p2898
I202
sS'GGTATT'
p2899
I1506
sS'CTGAAC'
p2900
I4626
sS'CTGAAG'
p2901
I7824
sS'ATTGTA'
p2902
I6532
sS'NNNNGA'
p2903
I1
sS'TAGGTA'
p2904
I6554
sS'CATTGC'
p2905
I11931
sS'TATGAG'
p2906
I8720
sS'CATTGA'
p2907
I9902
sS'CTAGTT'
p2908
I987
sS'CATTGG'
p2909
I10203
sS'TCAACT'
p2910
I1950
sS'ATGTTA'
p2911
I10597
sS'ACACCG'
p2912
I440
sS'CTGCCA'
p2913
I19387
sS'CTGCCC'
p2914
I25915
sS'ACACCC'
p2915
I2127
sS'ACACCA'
p2916
I1819
sS'CTGCCG'
p2917
I6667
sS'CTAGTG'
p2918
I4364
sS'TCAACC'
p2919
I3058
sS'ATGTTC'
p2920
I7639
sS'CTAGTC'
p2921
I2470
sS'TCAACG'
p2922
I540
sS'CTAGTA'
p2923
I3249
sS'CATTGT'
p2924
I9869
sS'TATGAC'
p2925
I7719
sS'GTAATG'
p2926
I6044
sS'ACACCT'
p2927
I992
sS'CTGCCT'
p2928
I16780
sS'CCTCGT'
p2929
I738
sS'TATGAA'
p2930
I8554
sS'AGACTG'
p2931
I4539
sS'AGACTC'
p2932
I2952
sS'AGACTA'
p2933
I2737
sS'CCTCGG'
p2934
I4322
sS'CCTCGC'
p2935
I3913
sS'CCTCGA'
p2936
I1323
sS'CGAGGA'
p2937
I829
sS'CGAGGC'
p2938
I1447
sS'CGAGGG'
p2939
I1660
sS'ACTTTC'
p2940
I8739
sS'ACTTTA'
p2941
I11364
sS'ACTTTG'
p2942
I12550
sS'GACCTG'
p2943
I16545
sS'GACCTA'
p2944
I8103
sS'GACCTC'
p2945
I13424
sS'CACCGG'
p2946
I4376
sS'CTATTG'
p2947
I6281
sS'CACCGA'
p2948
I2618
sS'CACCGC'
p2949
I7109
sS'GACCTT'
p2950
I5648
sS'CGCCCC'
p2951
I18233
sS'GGACGG'
p2952
I1017
sS'ACGCTA'
p2953
I871
sS'CACAGC'
p2954
I21734
sS'CTTATC'
p2955
I4698
sS'CACAGA'
p2956
I21199
sS'CTTATA'
p2957
I6891
sS'CACAGG'
p2958
I23518
sS'CTTATG'
p2959
I7208
sS'ACTCAT'
p2960
I2403
sS'GAGGAG'
p2961
I19887
sS'GACGTA'
p2962
I1913
sS'CTTGAC'
p2963
I4053
sS'GACGTC'
p2964
I3564
sS'GAGGAC'
p2965
I8016
sS'GAGGAA'
p2966
I13709
sS'GACGTG'
p2967
I5323
sS'TTAACA'
p2968
I7215
sS'ACTCAC'
p2969
I6301
sS'TTAACC'
p2970
I5222
sS'TATGAT'
p2971
I3230
sS'ACTCAG'
p2972
I8226
sS'CTTATT'
p2973
I2804
sS'CACAGT'
p2974
I11779
sS'AGCGAC'
p2975
I2143
sS'TAAACA'
p2976
I17056
sS'AGCGAA'
p2977
I1814
sS'TAAACC'
p2978
I6711
sS'AGCGAG'
p2979
I4444
sS'TCTAAA'
p2980
I5124
sS'TAAACG'
p2981
I1341
sS'CTGTGG'
p2982
I18543
sS'GTATGT'
p2983
I3812
sS'AGTTCA'
p2984
I12398
sS'CTGTGC'
p2985
I13652
sS'TAGCCC'
p2986
I5979
sS'CTGTGA'
p2987
I13278
sS'CGGGGT'
p2988
I930
sS'TAGGAC'
p2989
I3411
sS'GCAAAG'
p2990
I3373
sS'TAGGAA'
p2991
I6023
sS'GCAAAA'
p2992
I2159
sS'TAGGAG'
p2993
I6025
sS'GCAAAC'
p2994
I2871
sS'CGGGGC'
p2995
I5920
sS'CGGGGA'
p2996
I2975
sS'CTGTGT'
p2997
I10881
sS'CGGGGG'
p2998
I4348
sS'GTATGC'
p2999
I3095
sS'AGTTCT'
p3000
I8086
sS'ACAGGC'
p3001
I2285
sS'CGAGAA'
p3002
I327
sS'TAGGAT'
p3003
I1645
sS'AAAAAT'
p3004
I2398
sS'CTATTT'
p3005
I3280
sS'TGCTTT'
p3006
I13429
sS'GTCTAT'
p3007
I3560
sS'TGGGNC'
p3008
I1
sS'GTAATT'
p3009
I1535
sS'GTTACC'
p3010
I4911
sS'GTTACA'
p3011
I6420
sS'TAATTC'
p3012
I4943
sS'GTTACG'
p3013
I1073
sS'TATCGC'
p3014
I1082
sS'TATAGT'
p3015
I5700
sS'GTCTAA'
p3016
I7015
sS'TGCTTA'
p3017
I19532
sS'TTCAAG'
p3018
I13626
sS'TGCTTC'
p3019
I22534
sS'TTCAAA'
p3020
I17437
sS'GTCTAG'
p3021
I6718
sS'TGCTTG'
p3022
I21506
sS'TATAGC'
p3023
I6105
sS'TATCGT'
p3024
I718
sS'TATAGA'
p3025
I8367
sS'AGTGGG'
p3026
I8626
sS'TATAGG'
p3027
I7081
sS'GTTACT'
p3028
I4098
sS'GCTCTC'
p3029
I8949
sS'GCTCTA'
p3030
I6150
sS'GATGGC'
p3031
I7897
sS'GCTCTG'
p3032
I16652
sS'CCACGT'
p3033
I333
sS'GGCGTT'
p3034
I969
sS'AGGACC'
p3035
I8023
sS'GAATGG'
p3036
I6488
sS'GAATGA'
p3037
I8639
sS'ACTACT'
p3038
I2414
sS'GAATGC'
p3039
I6212
sS'CCACGA'
p3040
I353
sS'AACCTG'
p3041
I15862
sS'CCACGC'
p3042
I812
sS'GGCGTA'
p3043
I1412
sS'GGCGTG'
p3044
I7132
sS'CCACGG'
p3045
I763
sS'GCTCTT'
p3046
I2295
sS'GGCTTA'
p3047
I11445
sS'ACTACC'
p3048
I3319
sS'GGCTTC'
p3049
I18026
sS'ACTACA'
p3050
I5102
sS'ACTACG'
p3051
I911
sS'GGCTTG'
p3052
I16236
sS'TCCTAG'
p3053
I8440
sS'AGTCAG'
p3054
I13244
sS'CGTTGC'
p3055
I2376
sS'TAACAC'
p3056
I1798
sS'TCCTAC'
p3057
I7048
sS'AGTCAC'
p3058
I12433
sS'CGTTGG'
p3059
I2419
sS'TAACAG'
p3060
I2890
sS'TCATCG'
p3061
I821
sS'AAGCGT'
p3062
I1047
sS'TCATCC'
p3063
I5926
sS'AAAAAC'
p3064
I5461
sS'CTTTCT'
p3065
I12213
sS'AGTCAT'
p3066
I5573
sS'TTATAA'
p3067
I3599
sS'TGCGAA'
p3068
I1097
sS'CGTTGT'
p3069
I1196
sS'CTTTCC'
p3070
I20992
sS'CTTTCA'
p3071
I16359
sS'CTTTCG'
p3072
I2621
sS'AAAAAG'
p3073
I7347
sS'GTTGAT'
p3074
I1162
sS'CGACCA'
p3075
I340
sS'CGACCC'
p3076
I624
sS'GCATAC'
p3077
I1023
sS'CGACCG'
p3078
I255
sS'CCTTAT'
p3079
I1751
sS'GTTGAC'
p3080
I3629
sS'GTTGAA'
p3081
I3920
sS'ACTGGG'
p3082
I6129
sS'GTTGAG'
p3083
I4615
sS'CCTTAC'
p3084
I3469
sS'CCTTAA'
p3085
I4638
sS'CCTTAG'
p3086
I4854
sS'CGACCT'
p3087
I228
sS'AATAGA'
p3088
I10798
sS'AATAGC'
p3089
I7765
sS'CAACTG'
p3090
I3799
sS'AATAGG'
p3091
I8818
sS'AATATC'
p3092
I7535
sS'GCAGCA'
p3093
I4361
sS'GGGGTT'
p3094
I1065
sS'GTCCCT'
p3095
I8223
sS'GGATGT'
p3096
I1385
sS'AATAGT'
p3097
I5643
sS'CCAAGA'
p3098
I2955
sS'CAACTT'
p3099
I698
sS'ACTGTA'
p3100
I7460
sS'GGGGTG'
p3101
I8016
sS'GGATGA'
p3102
I2248
sS'GGATGG'
p3103
I2746
sS'GGGGTA'
p3104
I2616
sS'TCTCCG'
p3105
I2307
sS'GAGTCC'
p3106
I12830
sS'GAGTCA'
p3107
I31255
sS'TCTCCC'
p3108
I9162
sS'GAGTCG'
p3109
I3576
sS'TCTCCA'
p3110
I7590
sS'AAACTC'
p3111
I4109
sS'CTATGA'
p3112
I5085
sS'AGTACG'
p3113
I1153
sS'ACGCGC'
p3114
I1131
sS'AGTACC'
p3115
I4946
sS'ACGCGG'
p3116
I1163
sS'AGTACA'
p3117
I7858
sS'CCCTTA'
p3118
I10786
sS'CCCTTC'
p3119
I19673
sS'TCTCCT'
p3120
I4252
sS'ANCACA'
p3121
I1
sS'CCCTTG'
p3122
I15588
sS'AGTACT'
p3123
I4315
sS'ACGCGT'
p3124
I175
sS'GCCGAA'
p3125
I1325
sS'GTGGAG'
p3126
I6934
sS'GCCGAC'
p3127
I2140
sS'GCTTAT'
p3128
I1528
sS'GTGGAC'
p3129
I2999
sS'GCCGAG'
p3130
I5026
sS'GTGGAA'
p3131
I4210
sS'TATCAT'
p3132
I4128
sS'GTGGAT'
p3133
I1146
sS'GCCGAT'
p3134
I404
sS'CCTATT'
p3135
I1415
sS'CACTGT'
p3136
I14048
sS'GTAGTC'
p3137
I2409
sS'AAATCG'
p3138
I742
sS'GTAGTA'
p3139
I2999
sS'TTATCG'
p3140
I616
sS'CACGCA'
p3141
I4921
sS'AAATCC'
p3142
I5470
sS'CACGCC'
p3143
I8186
sS'AAAGTA'
p3144
I7010
sS'GGCTTT'
p3145
I7315
sS'AGATAC'
p3146
I1382
sS'CACGCT'
p3147
I2796
sS'AAATCT'
p3148
I3255
sS'AAAGTC'
p3149
I4342
sS'GTAGTT'
p3150
I997
sS'AGATAA'
p3151
I1916
sS'CGTTAT'
p3152
I546
sS'GATGAT'
p3153
I3818
sS'GGAGCA'
p3154
I3480
sS'GGAGCC'
p3155
I5734
sS'AAAGTG'
p3156
I8280
sS'CCAAAT'
p3157
I844
sS'GGAGCG'
p3158
I1768
sS'AAAACT'
p3159
I4644
sS'GATGAC'
p3160
I10783
sS'GATGAA'
p3161
I10405
sS'GATGAG'
p3162
I12819
sS'AAAACC'
p3163
I8845
sS'ACTAAC'
p3164
I3131
sS'AAAACA'
p3165
I15637
sS'AAAACG'
p3166
I1645
sS'GGAGCT'
p3167
I1851
sS'CCAAAG'
p3168
I2724
sS'TCGCGG'
p3169
I1143
sS'CTAGAG'
p3170
I2061
sS'TCGCGC'
p3171
I1002
sS'TCGCGA'
p3172
I431
sS'GCCACA'
p3173
I15248
sS'AGATCA'
p3174
I3882
sS'GCCACC'
p3175
I17073
sS'AGATCC'
p3176
I3329
sS'GCGCTT'
p3177
I574
sS'GCCACG'
p3178
I5407
sS'AGATCG'
p3179
I674
sS'ATGTCA'
p3180
I10961
sS'TCGCGT'
p3181
I198
sS'ACCTAG'
p3182
I5063
sS'ACCCGT'
p3183
I698
sS'AGAAAG'
p3184
I7497
sS'TACCCG'
p3185
I2072
sS'AGAAAC'
p3186
I4991
sS'GCCACT'
p3187
I8257
sS'AGAAAA'
p3188
I5914
sS'TACCCC'
p3189
I6490
sS'ATGTAC'
p3190
I3403
sS'ACTTCG'
p3191
I1556
sS'ATGTAA'
p3192
I5269
sS'ATGTAG'
p3193
I3642
sS'GAGGAT'
p3194
I2744
sS'CGAAGT'
p3195
I427
sS'ATTAGG'
p3196
I4520
sS'GACGAC'
p3197
I2174
sS'CCTATC'
p3198
I2885
sS'ATGTAT'
p3199
I2642
sS'ATTAGA'
p3200
I5193
sS'ACTTCA'
p3201
I8938
sS'AGCACT'
p3202
I12253
sS'TTAGAA'
p3203
I2051
sS'CGGCTG'
p3204
I6827
sS'TTAGAC'
p3205
I1402
sS'CGGCTC'
p3206
I6037
sS'TTAGAG'
p3207
I2133
sS'CGGCTA'
p3208
I1580
sS'AGCACC'
p3209
I15122
sS'AGCACA'
p3210
I18917
sS'AGCACG'
p3211
I4399
sS'CGGCTT'
p3212
I992
sS'TTAGAT'
p3213
I592
sS'CCAGCA'
p3214
I4269
sS'ACCTAT'
p3215
I1842
sS'CCAGCC'
p3216
I7287
sS'AAAGAG'
p3217
I5979
sS'CCAGCG'
p3218
I1356
sS'GCGCTG'
p3219
I5185
sS'TTATTT'
p3220
I4816
sS'TGTGAG'
p3221
I10187
sS'TGTGAA'
p3222
I7318
sS'ACGTCT'
p3223
I927
sS'TGTGAC'
p3224
I8115
sS'CTATGC'
p3225
I3621
sS'ATATCT'
p3226
I3244
sS'CCAGCT'
p3227
I2170
sS'CACGGT'
p3228
I1387
sS'AAAGAT'
p3229
I1228
sS'TGTGAT'
p3230
I2544
sS'TTATTG'
p3231
I8921
sS'TTATTA'
p3232
I11717
sS'GAAAGC'
p3233
I9492
sS'TTATTC'
p3234
I7455
sS'ACATCT'
p3235
I2187
sS'TTTTAT'
p3236
I5747
sS'GCGAAC'
p3237
I574
sS'TACAAG'
p3238
I10491
sS'TCCACT'
p3239
I8280
sS'TACAAA'
p3240
I16029
sS'AGACGA'
p3241
I496
sS'TACAAC'
p3242
I8046
sS'CCTCTG'
p3243
I17570
sS'AGGTGG'
p3244
I11912
sS'CCTCTC'
p3245
I12809
sS'AGGTGC'
p3246
I6486
sS'CCTCTA'
p3247
I7750
sS'AGGTGA'
p3248
I8582
sS'TACAAT'
p3249
I6587
sS'TCCACA'
p3250
I14204
sS'TTTTAG'
p3251
I8576
sS'ACATCG'
p3252
I528
sS'TTTTAA'
p3253
I17452
sS'ACATCA'
p3254
I4216
sS'CTTACA'
p3255
I7086
sS'ACATCC'
p3256
I3975
sS'AGGTGT'
p3257
I4672
sS'CCTCTT'
p3258
I2964
sS'CGTCGG'
p3259
I1772
sS'CCCGGC'
p3260
I8879
sS'CCCGGA'
p3261
I3692
sS'NNCTGA'
p3262
I1
sS'CCCGGG'
p3263
I9424
sS'TTGTGT'
p3264
I8268
sS'TGGAAT'
p3265
I2956
sS'TAGGTG'
p3266
I7417
sS'TTGTGC'
p3267
I7508
sS'TTGTGA'
p3268
I9156
sS'TTGTGG'
p3269
I12269
sS'CCCGGT'
p3270
I1021
sS'TGGAAG'
p3271
I8529
sS'GGTTTT'
p3272
I3639
sS'TGGAAC'
p3273
I4479
sS'TGGAAA'
p3274
I6752
sS'TGAGGA'
p3275
I2849
sS'AAGAGG'
p3276
I17475
sS'TGAGGC'
p3277
I3130
sS'AAGAGA'
p3278
I16309
sS'AAGAGC'
p3279
I10878
sS'TGAGGG'
p3280
I3620
sS'GCTTAG'
p3281
I4735
sS'GCTTAC'
p3282
I3293
sS'GCTTAA'
p3283
I4318
sS'TGATTC'
p3284
I4874
sS'AAGCGC'
p3285
I3036
sS'AAGAGT'
p3286
I6178
sS'AAGCGA'
p3287
I2109
sS'AAGCGG'
p3288
I3581
sS'TGATTA'
p3289
I4514
sS'CTGCTA'
p3290
I10623
sS'GCGTGT'
p3291
I1074
sS'CTGCTC'
p3292
I19320
sS'ACTTCT'
p3293
I4693
sS'GACCGT'
p3294
I1578
sS'CTGCTG'
p3295
I29122
sS'CGGTCA'
p3296
I1781
sS'GGTCGT'
p3297
I503
sS'CGGTCC'
p3298
I3313
sS'CTAGAA'
p3299
I1700
sS'CGGTCG'
p3300
I937
sS'GACCGA'
p3301
I2661
sS'GACCGC'
p3302
I4668
sS'ACTTCC'
p3303
I11806
sS'CTGCTT'
p3304
I8154
sS'GACCGG'
p3305
I4628
sS'TCGGAA'
p3306
I364
sS'CTAGAT'
p3307
I571
sS'GGTCGG'
p3308
I2630
sS'CGGTCT'
p3309
I1355
sS'GGTCGC'
p3310
I2218
sS'GGTCGA'
p3311
I945
sS'CGTCGC'
p3312
I2113
sS'GCGTGG'
p3313
I3339
sS'GCGTGA'
p3314
I1597
sS'GCGTGC'
p3315
I2283
sS'TGCTCA'
p3316
I20954
sS'TTCATC'
p3317
I14797
sS'TGCTCC'
p3318
I20050
sS'TTCATA'
p3319
I16979
sS'TTCATG'
p3320
I18480
sS'TGCTCG'
p3321
I3991
sS'GTACAA'
p3322
I1237
sS'CAGCAG'
p3323
I11578
sS'TACACT'
p3324
I9880
sS'GCTTTG'
p3325
I15933
sS'CAGCAC'
p3326
I7136
sS'CGTCGT'
p3327
I424
sS'ACGACT'
p3328
I471
sS'TGCTCT'
p3329
I15265
sS'TTCATT'
p3330
I10495
sS'GCTTTA'
p3331
I11570
sS'GCTGCC'
p3332
I10546
sS'GCTGCA'
p3333
I8703
sS'AACTCT'
p3334
I12999
sS'GCTGCG'
p3335
I4232
sS'TGGCCA'
p3336
I10478
sS'GTAGCA'
p3337
I3391
sS'AGCAAA'
p3338
I16468
sS'TGGCCT'
p3339
I6359
sS'AACTCC'
p3340
I17899
sS'GCTGCT'
p3341
I4311
sS'AACTCG'
p3342
I3186
sS'AATATT'
p3343
I5735
sS'GTTCGA'
p3344
I770
sS'CAACCT'
p3345
I1065
sS'TGGCCG'
p3346
I3420
sS'GGCACG'
p3347
I4088
sS'GGCACA'
p3348
I12930
sS'GACAAT'
p3349
I5811
sS'GGCACC'
p3350
I12014
sS'CAACCG'
p3351
I527
sS'CAGAAA'
p3352
I8816
sS'AATATG'
p3353
I12025
sS'CAACCC'
p3354
I2301
sS'TTAGGA'
p3355
I2653
sS'CAACCA'
p3356
I2412
sS'CTTCGT'
p3357
I805
sS'GACAAA'
p3358
I16010
sS'GGCACT'
p3359
I7706
sS'GACAAC'
p3360
I8701
sS'ACGACA'
p3361
I820
sS'GACAAG'
p3362
I13068
sS'TGGCCC'
p3363
I10374
sS'GCGGCG'
p3364
I4024
sS'GCAATA'
p3365
I3503
sS'GAATTT'
p3366
I1787
sS'CGATGG'
p3367
I644
sS'GACACT'
p3368
I11599
sS'TCCCAT'
p3369
I2639
sS'CGATGC'
p3370
I503
sS'GTAAAT'
p3371
I2167
sS'CGATGA'
p3372
I478
sS'GAATTA'
p3373
I6468
sS'GAATTC'
p3374
I5608
sS'TCAGCA'
p3375
I4242
sS'GAATTG'
p3376
I5447
sS'TCCCAA'
p3377
I7365
sS'CGATGT'
p3378
I247
sS'TCCCAC'
p3379
I7855
sS'GTAAAG'
p3380
I4068
sS'TCCCAG'
p3381
I12963
sS'GGATTT'
p3382
I668
sS'GTGCGT'
p3383
I1200
sS'CTATCG'
p3384
I655
sS'GGATTC'
p3385
I2011
sS'GGATTA'
p3386
I4137
sS'GGATTG'
p3387
I2581
sS'ACCTCT'
p3388
I7257
sS'ATGGTG'
p3389
I7225
sS'ATATAG'
p3390
I1992
sS'TCTGTG'
p3391
I15472
sS'TCTGTC'
p3392
I8211
sS'TCTGTA'
p3393
I9532
sS'GGCGGC'
p3394
I11465
sS'CTCCTT'
p3395
I10158
sS'GGCGGA'
p3396
I5266
sS'GGCGGG'
p3397
I18781
sS'AACCGA'
p3398
I2122
sS'TCTGTT'
p3399
I2603
sS'ATATAC'
p3400
I2367
sS'CTCCTG'
p3401
I31230
sS'AACCGT'
p3402
I1247
sS'CTCCTA'
p3403
I13723
sS'CTCCTC'
p3404
I30358
sS'GGCGGT'
p3405
I1930
sS'GACGCA'
p3406
I4342
sS'GACGCC'
p3407
I6797
sS'CCCACA'
p3408
I14155
sS'CCCACC'
p3409
I21002
sS'ATAGCA'
p3410
I3742
sS'AGCCTT'
p3411
I7019
sS'CCGATT'
p3412
I197
sS'TAATCG'
p3413
I621
sS'CCCACT'
p3414
I7481
sS'AACAAT'
p3415
I7865
sS'GACGCT'
p3416
I3446
sS'AAATAC'
p3417
I4013
sS'ACCTCC'
p3418
I14331
sS'CCGATA'
p3419
I451
sS'AGCCTG'
p3420
I25869
sS'AGCCTA'
p3421
I10079
sS'CCGATG'
p3422
I990
sS'GTACCC'
p3423
I1582
sS'GTGCGC'
p3424
I3300
sS'TGGTTA'
p3425
I8634
sS'CGCCTT'
p3426
I2479
sS'GCGCCT'
p3427
I1615
sS'CAGAGT'
p3428
I5638
sS'CAGTCA'
p3429
I14116
sS'CTCCCA'
p3430
I24169
sS'GCGCCC'
p3431
I5197
sS'CGCCTC'
p3432
I12567
sS'GCGCCA'
p3433
I2169
sS'CGCCTA'
p3434
I2826
sS'AGGCAG'
p3435
I11547
sS'CGCCTG'
p3436
I10175
sS'GAGTTA'
p3437
I10207
sS'CAGAGG'
p3438
I19180
sS'GCATCC'
p3439
I3988
sS'GTGCGG'
p3440
I3553
sS'CAGAGC'
p3441
I14073
sS'GCATCG'
p3442
I666
sS'CAGAGA'
p3443
I14068
sS'TAGCTA'
p3444
I7062
sS'CCGATC'
p3445
I539
sS'CCTAGA'
p3446
I3983
sS'CCTAGC'
p3447
I3573
sS'TTTGCT'
p3448
I5749
sS'TAGCTC'
p3449
I7229
sS'TGCGGT'
p3450
I1275
sS'CCTAGG'
p3451
I5596
sS'TAAGCA'
p3452
I6970
sS'TGCGGC'
p3453
I4404
sS'TGCGGA'
p3454
I2306
sS'CCTAGT'
p3455
I1824
sS'TGCGGG'
p3456
I5218
sS'TTTGCG'
p3457
I1586
sS'TGAGTT'
p3458
I972
sS'CGGGAC'
p3459
I1895
sS'ATCGCT'
p3460
I1004
sS'ATCGCC'
p3461
I1996
sS'TGAGTG'
p3462
I5686
sS'ATCGCA'
p3463
I1406
sS'TGAGTA'
p3464
I5483
sS'ATCGCG'
p3465
I938
sS'TGAGTC'
p3466
I6148
sS'AAGGTG'
p3467
I10834
sS'AAGGTC'
p3468
I6298
sS'CATCAT'
p3469
I4234
sS'AAGGTA'
p3470
I8792
sS'ACGGCA'
p3471
I1255
sS'CATCAC'
p3472
I8994
sS'ACGGCC'
p3473
I1983
sS'CATCAA'
p3474
I7372
sS'CATCAG'
p3475
I10517
sS'ACGGCG'
p3476
I860
sS'TCACCT'
p3477
I1494
sS'TCTAAG'
p3478
I5147
sS'CGGAAT'
p3479
I401
sS'CGGATT'
p3480
I325
sS'ATCGAT'
p3481
I204
sS'TCACCG'
p3482
I615
sS'TCACCA'
p3483
I2638
sS'TCACCC'
p3484
I2701
sS'CGGAAG'
p3485
I3431
sS'AATATA'
p3486
I13854
sS'AAAATA'
p3487
I12237
sS'CGGAAC'
p3488
I1396
sS'CGGAAA'
p3489
I1312
sS'GCCTCA'
p3490
I17449
sS'TGTGTC'
p3491
I10357
sS'TGTGTA'
p3492
I13328
sS'TGTGTG'
p3493
I25563
sS'ATGGCA'
p3494
I7764
sS'TTACTT'
p3495
I1518
sS'TTCAGA'
p3496
I17418
sS'ATGGCT'
p3497
I3336
sS'TGTGTT'
p3498
I3871
sS'CCAAGT'
p3499
I1618
sS'AGATTA'
p3500
I4151
sS'GAAACG'
p3501
I2395
sS'GAAACA'
p3502
I12784
sS'GAAACC'
p3503
I10121
sS'ATGCAT'
p3504
I2105
sS'CTATGT'
p3505
I3701
sS'CTGAGT'
p3506
I6204
sS'GAAACT'
p3507
I5766
sS'AGAATG'
p3508
I9342
sS'AGAATA'
p3509
I6527
sS'AGAATC'
p3510
I3919
sS'CTGAGC'
p3511
I9753
sS'CTGAGA'
p3512
I9590
sS'CTGAGG'
p3513
I13923
sS'CATACC'
p3514
I7809
sS'CATACA'
p3515
I10706
sS'CATACG'
p3516
I1415
sS'GCAATC'
p3517
I1830
sS'TCAAAT'
p3518
I1216
sS'GTCCAT'
p3519
I2196
sS'ACATAG'
p3520
I1404
sS'TCGGTT'
p3521
I226
sS'CAGGAC'
p3522
I5729
sS'CATACT'
p3523
I5791
sS'GTCCAG'
p3524
I9273
sS'CAAGCT'
p3525
I2018
sS'TCAAAG'
p3526
I2960
sS'GTCCAC'
p3527
I5748
sS'GCAATG'
p3528
I4619
sS'CGGCGG'
p3529
I6550
sS'TTGATG'
p3530
I8470
sS'ATCGAG'
p3531
I908
sS'CGGCGC'
p3532
I4562
sS'TTGATC'
p3533
I3797
sS'CGGCGA'
p3534
I1471
sS'TCCAAG'
p3535
I9631
sS'CTATCT'
p3536
I3634
sS'TTGATT'
p3537
I2401
sS'CGGCGT'
p3538
I752
sS'GTACGC'
p3539
I430
sS'ATCGAC'
p3540
I553
sS'CCATTA'
p3541
I3938
sS'TGACTT'
p3542
I982
sS'TCGTCT'
p3543
I834
sS'CGGTTA'
p3544
I1197
sS'GGTTTA'
p3545
I9302
sS'CGGTTC'
p3546
I1988
sS'GGTTTC'
p3547
I10567
sS'TTTACA'
p3548
I12823
sS'CGGTTG'
p3549
I1861
sS'GGTTTG'
p3550
I11979
sS'CCATTG'
p3551
I4684
sS'CGTACG'
p3552
I421
sS'GCTGTG'
p3553
I14609
sS'ACCTAA'
p3554
I5431
sS'GCTGTC'
p3555
I6284
sS'CGGTTT'
p3556
I678
sS'GCTGTA'
p3557
I6791
sS'TCATAG'
p3558
I1741
sS'TATGCG'
p3559
I1241
sS'TCTCAA'
p3560
I6330
sS'AGGTTG'
p3561
I8178
sS'AGGTTC'
p3562
I5568
sS'AGGTTA'
p3563
I7143
sS'ATGAAA'
p3564
I6634
sS'GAGGGA'
p3565
I17221
sS'TTTTTC'
p3566
I17672
sS'GAGGGC'
p3567
I13962
sS'TTTTTA'
p3568
I27017
sS'TTTTTG'
p3569
I18535
sS'TCCATG'
p3570
I12264
sS'TTAAAT'
p3571
I2778
sS'AGGTTT'
p3572
I3364
sS'TAAGCG'
p3573
I905
sS'AGGGGG'
p3574
I7146
sS'TTAAAC'
p3575
I4402
sS'ATACGT'
p3576
I225
sS'TTAAAA'
p3577
I7685
sS'ACTCCG'
p3578
I1547
sS'TTAAAG'
p3579
I5905
sS'GAGGGT'
p3580
I4453
sS'TTTTTT'
p3581
I9411
sS'ACTCCC'
p3582
I4991
sS'TAGGCT'
p3583
I4562
sS'GTCACG'
p3584
I4136
sS'CTGTAC'
p3585
I4531
sS'GCAACT'
p3586
I1728
sS'GTCACC'
p3587
I15741
sS'CTGTAG'
p3588
I5502
sS'GTCACA'
p3589
I16630
sS'GCAACG'
p3590
I875
sS'GTCACT'
p3591
I11897
sS'TAGGCG'
p3592
I2021
sS'GCAACC'
p3593
I3152
sS'TAGGCA'
p3594
I9436
sS'GCAACA'
p3595
I3873
sS'TAGGCC'
p3596
I6654
sS'ATTCAT'
p3597
I2969
sS'GTAAAA'
p3598
I3849
sS'GCGATT'
p3599
I214
sS'TCGTGT'
p3600
I671
sS'TTCACT'
p3601
I13296
sS'GTCTCT'
p3602
I14201
sS'AACATT'
p3603
I8275
sS'ATTCAG'
p3604
I6916
sS'ATATTA'
p3605
I7864
sS'ATTCAA'
p3606
I5725
sS'ATTCAC'
p3607
I5228
sS'GTCTCC'
p3608
I19907
sS'CCACTA'
p3609
I2116
sS'GTCTCA'
p3610
I19790
sS'GCGATG'
p3611
I1425
sS'GTCTCG'
p3612
I4794
sS'GCGATA'
p3613
I541
sS'TTCACA'
p3614
I19155
sS'GCGATC'
p3615
I722
sS'GAAGGC'
p3616
I6626
sS'GAAGGA'
p3617
I8938
sS'GAAGGG'
p3618
I10144
sS'CGATTA'
p3619
I476
sS'GGAACC'
p3620
I4236
sS'AGACTT'
p3621
I800
sS'GGAACA'
p3622
I4476
sS'GGAACG'
p3623
I1172
sS'TGACGA'
p3624
I359
sS'ATAGTA'
p3625
I3505
sS'TCATAC'
p3626
I1551
sS'GAAGGT'
p3627
I2075
sS'CTCGCT'
p3628
I3433
sS'CAATCG'
p3629
I736
sS'CAATCA'
p3630
I4555
sS'GGAACT'
p3631
I2353
sS'TCCTGA'
p3632
I16970
sS'AGTCCA'
p3633
I7226
sS'TCCTGC'
p3634
I22073
sS'AGTCCC'
p3635
I8531
sS'ACTAAA'
p3636
I4587
sS'TCCTGG'
p3637
I24875
sS'AGTCCG'
p3638
I1994
sS'TAACGC'
p3639
I606
sS'CAGCTG'
p3640
I20065
sS'CAGCTA'
p3641
I9373
sS'CAGCTC'
p3642
I14552
sS'ACTAAT'
p3643
I1545
sS'AGTCCT'
p3644
I4504
sS'TCCTGT'
p3645
I12285
sS'TAATGT'
p3646
I3745
sS'CAGCTT'
p3647
I3683
sS'TTCCCG'
p3648
I6114
sS'TAACGT'
p3649
I336
sS'TTGACC'
p3650
I5948
sS'GTACTT'
p3651
I925
sS'CGACAT'
p3652
I73
sS'TTGTTC'
p3653
I11544
sS'CCGAGG'
p3654
I3226
sS'TTGTTG'
p3655
I13262
sS'AGGAAG'
p3656
I16661
sS'CCGAGC'
p3657
I2068
sS'ATACCA'
p3658
I2388
sS'CGACAC'
p3659
I205
sS'CGACAA'
p3660
I142
sS'GTACTC'
p3661
I2107
sS'GTACTA'
p3662
I2462
sS'CCGCGC'
p3663
I2728
sS'GGAGGA'
p3664
I3969
sS'CCGCGA'
p3665
I768
sS'TACGCA'
p3666
I2046
sS'CCGCGG'
p3667
I2780
sS'TTGTTT'
p3668
I9111
sS'GCATAT'
p3669
I779
sS'TCCGTT'
p3670
I795
sS'AGGAAC'
p3671
I6431
sS'AATAAC'
p3672
I8928
sS'AATAAA'
p3673
I22183
sS'AATAAG'
p3674
I11069
sS'TACTAA'
p3675
I11617
sS'AATAAT'
p3676
I6324
sS'ACGGTG'
p3677
I1577
sS'CCAACC'
p3678
I4132
sS'CTCAGT'
p3679
I10284
sS'CCAACG'
p3680
I701
sS'CGCCGC'
p3681
I15564
sS'AGTAAA'
p3682
I10857
sS'CGCCGA'
p3683
I2897
sS'GAGTAG'
p3684
I6700
sS'CGCCGG'
p3685
I8259
sS'GAGTAA'
p3686
I9078
sS'GAGTAC'
p3687
I4152
sS'CTCAGG'
p3688
I23912
sS'CTAAAA'
p3689
I3337
sS'CTCAGC'
p3690
I22466
sS'CTCAGA'
p3691
I18508
sS'GAGTAT'
p3692
I2670
sS'TCGAGA'
p3693
I710
sS'GTGTAG'
p3694
I4468
sS'TCGAGC'
p3695
I741
sS'GTGTAA'
p3696
I4997
sS'GTGTAC'
p3697
I4150
sS'CGCCGT'
p3698
I1589
sS'GTGGCA'
p3699
I11536
sS'CTCGGG'
p3700
I6586
sS'ATCGTA'
p3701
I1136
sS'GTGGCG'
p3702
I3863
sS'GCCGCC'
p3703
I15649
sS'GCCGCA'
p3704
I5032
sS'GCCGCG'
p3705
I7779
sS'ACACTT'
p3706
I769
sS'CTCGGT'
p3707
I1413
sS'AGATAT'
p3708
I909
sS'CATTCA'
p3709
I21521
sS'GTGGCT'
p3710
I6840
sS'CATATA'
p3711
I10751
sS'CAGTCG'
p3712
I2121
sS'TACTAC'
p3713
I7586
sS'ACACTC'
p3714
I2138
sS'ACACTA'
p3715
I2253
sS'ACACTG'
p3716
I4378
sS'GCCGCT'
p3717
I3819
sS'ACCGGA'
p3718
I1604
sS'AAATAA'
p3719
I5828
sS'ACCGGC'
p3720
I2175
sS'TCAGCC'
p3721
I5179
sS'CTTTAA'
p3722
I10619
sS'ACCGGG'
p3723
I2593
sS'AAATAG'
p3724
I3560
sS'CACGAG'
p3725
I2478
sS'CAGGTA'
p3726
I8004
sS'AACTTC'
p3727
I16578
sS'CAGGTC'
p3728
I6432
sS'CACGAC'
p3729
I1775
sS'AACTTG'
p3730
I18585
sS'CAGGTG'
p3731
I13317
sS'CTTTAT'
p3732
I4216
sS'AATCCC'
p3733
I8836
sS'AATCCA'
p3734
I9353
sS'AAATAT'
p3735
I2378
sS'AATCCG'
p3736
I1663
sS'GCAAGT'
p3737
I1615
sS'CAGGTT'
p3738
I2149
sS'AACTTT'
p3739
I8294
sS'GGGATA'
p3740
I3961
sS'GGGATC'
p3741
I3381
sS'GGGTGT'
p3742
I3802
sS'GGAGAT'
p3743
I476
sS'GATGCT'
p3744
I6666
sS'CGCAGT'
p3745
I2489
sS'ATTGGG'
p3746
I3023
sS'GAGCCT'
p3747
I9045
sS'GGAGAC'
p3748
I1688
sS'GGGTGA'
p3749
I6325
sS'GGAGAA'
p3750
I1788
sS'GGGTGC'
p3751
I5017
sS'GGGATT'
p3752
I1932
sS'GGGTGG'
p3753
I11987
sS'GAGCCA'
p3754
I18429
sS'GAGCCC'
p3755
I16921
sS'GATGCG'
p3756
I2564
sS'CGCAGA'
p3757
I4320
sS'GATGCA'
p3758
I10730
sS'CGCAGC'
p3759
I8912
sS'GATGCC'
p3760
I10086
sS'ACGAAC'
p3761
I420
sS'GGTAGT'
p3762
I2030
sS'ACCCCT'
p3763
I3227
sS'GCCAAT'
p3764
I3454
sS'AACCGC'
p3765
I3063
sS'AGAAGT'
p3766
I3500
sS'ACCCCA'
p3767
I6929
sS'GGTAGA'
p3768
I4844
sS'ACCCCC'
p3769
I5591
sS'CGGATG'
p3770
I1998
sS'GCCAAG'
p3771
I10833
sS'CGGATA'
p3772
I798
sS'ACCCCG'
p3773
I2957
sS'GGTAGG'
p3774
I6188
sS'AGAAGA'
p3775
I7533
sS'AGAAGC'
p3776
I6492
sS'GCAAGA'
p3777
I3451
sS'AGAAGG'
p3778
I10077
sS'CACTCC'
p3779
I22073
sS'CACTCA'
p3780
I22025
sS'CACTCG'
p3781
I4303
sS'TGCGTT'
p3782
I964
sS'TCAGCT'
p3783
I2007
sS'AGCTTT'
p3784
I9552
sS'TGCGTC'
p3785
I3076
sS'TGCGTA'
p3786
I1734
sS'TGCGTG'
p3787
I4666
sS'CACTCT'
p3788
I13510
sS'AGCTTC'
p3789
I19373
sS'AGCTTA'
p3790
I13897
sS'AGCTTG'
p3791
I17844
sS'ATACGA'
p3792
I297
sS'AGACCA'
p3793
I2091
sS'TTAGCT'
p3794
I2046
sS'GTATAA'
p3795
I2456
sS'TTAGCC'
p3796
I3531
sS'TTAGCA'
p3797
I4583
sS'GACCAT'
p3798
I3208
sS'TTAGCG'
p3799
I587
sS'CTCATT'
p3800
I7709
sS'CTTCAT'
p3801
I2612
sS'AACTTA'
p3802
I15823
sS'TCATAT'
p3803
I1155
sS'AAGGGG'
p3804
I10885
sS'ATAAGG'
p3805
I4530
sS'TGTGCT'
p3806
I5397
sS'AAGGGC'
p3807
I8932
sS'ATAAGC'
p3808
I3259
sS'AAGGGA'
p3809
I11700
sS'ATAAGA'
p3810
I4700
sS'CCAGAC'
p3811
I1177
sS'CCAGAA'
p3812
I1203
sS'CCAGAG'
p3813
I1966
sS'TGTGCG'
p3814
I2735
sS'CTACCT'
p3815
I1729
sS'ATAAGT'
p3816
I1964
sS'AAGGGT'
p3817
I3037
sS'TGTGCC'
p3818
I9022
sS'ATAGGA'
p3819
I1971
sS'TGTGCA'
p3820
I10363
sS'ATAGGC'
p3821
I1339
sS'TAAGTT'
p3822
I1260
sS'ATACGC'
p3823
I309
sS'CCAGAT'
p3824
I470
sS'AGACAA'
p3825
I1604
sS'AACAAG'
p3826
I14597
sS'AGACAC'
p3827
I1605
sS'TCCATT'
p3828
I4736
sS'AGACAG'
p3829
I2440
sS'TTTTCT'
p3830
I13059
sS'CGCTGT'
p3831
I3336
sS'CCCACG'
p3832
I4627
sS'TCAAGA'
p3833
I3126
sS'CGTGGG'
p3834
I3686
sS'CGTGGC'
p3835
I3182
sS'CGTGGA'
p3836
I1834
sS'TTTTCG'
p3837
I1856
sS'CGCTGA'
p3838
I4652
sS'CGCTGC'
p3839
I10923
sS'TTTTCC'
p3840
I18316
sS'TTTTCA'
p3841
I17650
sS'CGCTGG'
p3842
I8879
sS'TATGGA'
p3843
I5604
sS'TATGGC'
p3844
I4798
sS'CGTAGG'
p3845
I1753
sS'ATCGTC'
p3846
I1091
sS'GACGCG'
p3847
I4428
sS'TATGGG'
p3848
I5954
sS'CGTAGC'
p3849
I1434
sS'CTTCAG'
p3850
I9211
sS'TGGACT'
p3851
I4331
sS'CGTAGT'
p3852
I750
sS'TATGGT'
p3853
I2883
sS'TGGACA'
p3854
I7838
sS'TGGACC'
p3855
I5335
sS'TGGACG'
p3856
I1860
sS'CCGGTT'
p3857
I263
sS'GACCAA'
p3858
I8557
sS'GCTTGA'
p3859
I5651
sS'TGAGAC'
p3860
I1974
sS'GCTTGC'
p3861
I6150
sS'TGAGAA'
p3862
I2077
sS'TGAGAG'
p3863
I2382
sS'GCTTGG'
p3864
I8713
sS'CCTGTT'
p3865
I1974
sS'CCGGTG'
p3866
I2078
sS'CCGGTC'
p3867
I1314
sS'CCGGTA'
p3868
I809
sS'CCTGTC'
p3869
I7075
sS'CCTGTA'
p3870
I7594
sS'CCTGTG'
p3871
I13550
sS'GCTTGT'
p3872
I3358
sS'TGAGAT'
p3873
I709
sS'TACCAA'
p3874
I7155
sS'GGTTGT'
p3875
I3355
sS'CCCAAC'
p3876
I6171
sS'AGGGAT'
p3877
I1297
sS'TATCAG'
p3878
I7727
sS'AATTCA'
p3879
I15733
sS'GGTTGG'
p3880
I8063
sS'CTGAAT'
p3881
I2512
sS'GGTTGA'
p3882
I5624
sS'GGTTGC'
p3883
I6153
sS'TCCCGC'
p3884
I7357
sS'TCCCGA'
p3885
I2535
sS'TCCCGG'
p3886
I7340
sS'GTAACC'
p3887
I4360
sS'CGTTTT'
p3888
I1312
sS'ATTCTC'
p3889
I7458
sS'AGGGAA'
p3890
I5720
sS'ATTCTA'
p3891
I7776
sS'ATTCTG'
p3892
I10693
sS'TCATTT'
p3893
I2593
sS'CAGCGA'
p3894
I2468
sS'CAGCGC'
p3895
I5296
sS'TATACT'
p3896
I6977
sS'TGCTAG'
p3897
I8491
sS'TCCCGT'
p3898
I1382
sS'CCTTGT'
p3899
I4037
sS'TCATTC'
p3900
I6775
sS'TCATTA'
p3901
I6651
sS'CGTTTA'
p3902
I2938
sS'ATTCTT'
p3903
I2985
sS'CGTTTC'
p3904
I3877
sS'TGGCAA'
p3905
I4309
sS'TGGCAC'
p3906
I4554
sS'TGGCAG'
p3907
I7709
sS'GGCCGT'
p3908
I1834
sS'GCTGAA'
p3909
I4118
sS'GCTGAC'
p3910
I4522
sS'TGGCAT'
p3911
I2216
sS'GGCCGG'
p3912
I11512
sS'AGCCTC'
p3913
I21360
sS'GGCCGC'
p3914
I11521
sS'GAACTT'
p3915
I1100
sS'GGCCGA'
p3916
I3938
sS'GGCAAT'
p3917
I2996
sS'CTGATT'
p3918
I2676
sS'CCATCG'
p3919
I699
sS'CTAAAT'
p3920
I1502
sS'CCATCC'
p3921
I5174
sS'CCATCA'
p3922
I3667
sS'GGCAAG'
p3923
I10593
sS'CTGATA'
p3924
I6350
sS'GAGTTT'
p3925
I4978
sS'CTGATG'
p3926
I10439
sS'GGCAAA'
p3927
I9453
sS'CTAAAG'
p3928
I3751
sS'CCATCT'
p3929
I3096
sS'CTAAAC'
p3930
I2749
sS'GACATC'
p3931
I9902
sS'GACACC'
p3932
I13976
sS'GACACA'
p3933
I22464
sS'GACACG'
p3934
I4980
sS'TGGTTC'
p3935
I6899
sS'AATTCT'
p3936
I10154
sS'TACGAG'
p3937
I1364
sS'TACGAC'
p3938
I936
sS'TACGAA'
p3939
I1164
sS'GGCGAT'
p3940
I531
sS'TAGTAA'
p3941
I6171
sS'ACGCTG'
p3942
I2381
sS'CTATTA'
p3943
I7518
sS'ACGCTC'
p3944
I1335
sS'TCGATG'
p3945
I829
sS'TCGATA'
p3946
I408
sS'TCGATC'
p3947
I376
sS'ACGCTT'
p3948
I297
sS'TCTGGG'
p3949
I8867
sS'GCATTG'
p3950
I4337
sS'GCATCT'
p3951
I2260
sS'CAGCCT'
p3952
I8846
sS'TCGATT'
p3953
I172
sS'CTACCG'
p3954
I656
sS'ACGGAA'
p3955
I522
sS'AGGCAC'
p3956
I5680
sS'NNCCAC'
p3957
I1
sS'TTTTGA'
p3958
I12121
sS'AACCAA'
p3959
I10386
sS'TGCCGG'
p3960
I5231
sS'AACCAC'
p3961
I11858
sS'TGCCGC'
p3962
I5778
sS'AACCAG'
p3963
I11711
sS'TGCCGA'
p3964
I2058
sS'TTGGAC'
p3965
I2544
sS'TCTGGA'
p3966
I4921
sS'ATGATC'
p3967
I3916
sS'GAGTTC'
p3968
I9609
sS'TGCCGT'
p3969
I1577
sS'AACCAT'
p3970
I3749
sS'AACAGA'
p3971
I19334
sS'GGGAGT'
p3972
I3754
sS'AACAGC'
p3973
I15165
sS'ACGTCC'
p3974
I1820
sS'AACAGG'
p3975
I18107
sS'ACGTCA'
p3976
I1866
sS'CCCAAG'
p3977
I8513
sS'AGCAGC'
p3978
I22279
sS'GACGAA'
p3979
I1865
sS'GACGAG'
p3980
I3301
sS'ATTCGA'
p3981
I723
sS'CCCAAA'
p3982
I7091
sS'CAATAT'
p3983
I863
sS'GGGAGG'
p3984
I23284
sS'GGGAGA'
p3985
I9623
sS'AACAGT'
p3986
I10232
sS'GGGAGC'
p3987
I9183
sS'ACGAAG'
p3988
I788
sS'CCCAAT'
p3989
I1884
sS'GACGAT'
p3990
I711
sS'GGGCGC'
p3991
I5523
sS'GGGCGA'
p3992
I2497
sS'GCATCA'
p3993
I3714
sS'GGGCGG'
p3994
I12700
sS'TCTCTT'
p3995
I3708
sS'GTACAG'
p3996
I1779
sS'CAGAAT'
p3997
I2670
sS'GTACAC'
p3998
I1457
sS'TCTCTC'
p3999
I14499
sS'TCTCTA'
p4000
I10124
sS'TCTCTG'
p4001
I18510
sS'GGGCGT'
p4002
I1226
sS'ACGACC'
p4003
I855
sS'CAGAAC'
p4004
I6669
sS'ACGACG'
p4005
I433
sS'CAGAAG'
p4006
I10563
sS'CACTTT'
p4007
I9636
sS'CATATT'
p4008
I4043
sS'CCTAAT'
p4009
I1019
sS'TCTATA'
p4010
I5920
sS'CACTTG'
p4011
I19963
sS'CCTAAC'
p4012
I2802
sS'CTACCC'
p4013
I2827
sS'CCTAAA'
p4014
I3301
sS'CACTTC'
p4015
I21585
sS'CCTAAG'
p4016
I3884
sS'CACTTA'
p4017
I18420
sS'GCGGAT'
p4018
I141
sS'GTCCCC'
p4019
I12692
sS'AAGATT'
p4020
I2749
sS'CTCATG'
p4021
I17528
sS'GACTCG'
p4022
I5579
sS'CTCATC'
p4023
I14422
sS'GACTCC'
p4024
I19463
sS'CTCATA'
p4025
I13499
sS'GACTCA'
p4026
I39799
sS'AAGATA'
p4027
I9998
sS'CTCCAA'
p4028
I9571
sS'AAGATG'
p4029
I12906
sS'GACTCT'
p4030
I14797
sS'CTGCGC'
p4031
I4944
sS'ATCGAA'
p4032
I598
sS'AACTAC'
p4033
I8345
sS'ATATTT'
p4034
I3379
sS'ACGGTA'
p4035
I665
sS'AACTAA'
p4036
I11519
sS'ATAGTT'
p4037
I855
sS'CTACCA'
p4038
I2741
sS'TACTGT'
p4039
I12000
sS'ATATTC'
p4040
I4733
sS'ACGGTC'
p4041
I706
sS'ATATTG'
p4042
I5596
sS'TACTGC'
p4043
I12505
sS'TACTGA'
p4044
I15133
sS'TACTGG'
p4045
I12603
sS'ATAGTG'
p4046
I3265
sS'GATCGA'
p4047
I1071
sS'CAGGCA'
p4048
I16768
sS'CAGGCC'
p4049
I16762
sS'CATCCG'
p4050
I2354
sS'AGGAAA'
p4051
I11212
sS'CATCCA'
p4052
I9790
sS'CAGGCG'
p4053
I5807
sS'CATCCC'
p4054
I10812
sS'TTATGA'
p4055
I5526
sS'TTATGC'
p4056
I3719
sS'CGGAGT'
p4057
I1097
sS'TTATGG'
p4058
I4460
sS'CATCCT'
p4059
I7076
sS'AGGAAT'
p4060
I3650
sS'CAGGCT'
p4061
I7402
sS'ACGGAT'
p4062
I109
sS'CGGAGA'
p4063
I2543
sS'CTGAAA'
p4064
I6060
sS'CGGAGC'
p4065
I4816
sS'TTATGT'
p4066
I4184
sS'CGGAGG'
p4067
I6074
sS'ATGGAA'
p4068
I3181
sS'ATGGAC'
p4069
I1995
sS'ATGGAG'
p4070
I3716
sS'CGCTTG'
p4071
I4891
sS'CGCTTA'
p4072
I2703
sS'CGCTTC'
p4073
I6693
sS'TGAACA'
p4074
I5998
sS'ATGGAT'
p4075
I758
sS'TTTGCA'
p4076
I10570
sS'CGCTTT'
p4077
I2234
sS'GTAGTG'
p4078
I3579
sS'GATCGT'
p4079
I854
sS'TTTGCC'
p4080
I8457
sS'GAAAAG'
p4081
I9905
sS'GAAAAC'
p4082
I7255
sS'ATAGAT'
p4083
I564
sS'GAAAAA'
p4084
I7395
sS'AGACCT'
p4085
I1089
sS'ACGGTT'
p4086
I209
sS'GAAAAT'
p4087
I2508
sS'CTACTG'
p4088
I4882
sS'ACAAGG'
p4089
I4228
sS'ACAAGA'
p4090
I3529
sS'ACAAGC'
p4091
I2818
sS'ACACGT'
p4092
I281
sS'CTGCGT'
p4093
I1205
sS'GCGGAG'
p4094
I2501
sS'CATAAG'
p4095
I7032
sS'GCGGAA'
p4096
I826
sS'CATAAA'
p4097
I11003
sS'GCGGAC'
p4098
I921
sS'CATAAC'
p4099
I5921
sS'ACACGC'
p4100
I697
sS'ACAAGT'
p4101
I1709
sS'ACACGA'
p4102
I352
sS'ACACGG'
p4103
I650
sS'CATAAT'
p4104
I3628
sS'GTCCCA'
p4105
I11195
sS'GCACAT'
p4106
I481
sS'CTGCGG'
p4107
I5274
sS'CTGCGA'
p4108
I1919
sS'GTCCCG'
p4109
I5675
sS'CGGCAA'
p4110
I833
sS'CGGCAC'
p4111
I1498
sS'CGGCAG'
p4112
I2928
sS'CCTCCT'
p4113
I5364
sS'NNNGAA'
p4114
I1
sS'CGGCAT'
p4115
I328
sS'CCTCCC'
p4116
I15501
sS'CCTCCA'
p4117
I7265
sS'CCTCCG'
p4118
I3220
sS'CGTGAT'
p4119
I504
s.