(dp0
S'GAACGT'
p1
I509
sS'CTTCTT'
p2
I4350
sS'CACCCT'
p3
I8863
sS'ATTGAA'
p4
I3182
sS'GAACGG'
p5
I1442
sS'GAACGC'
p6
I1430
sS'GAACGA'
p7
I883
sS'CACCCA'
p8
I16077
sS'CTTCTA'
p9
I10539
sS'CACCCC'
p10
I15687
sS'CTTCTC'
p11
I15329
sS'CACCCG'
p12
I4908
sS'CTTCTG'
p13
I18439
sS'CGTGTG'
p14
I4191
sS'TAAGGT'
p15
I1320
sS'CGTGTC'
p16
I2237
sS'CGTGTA'
p17
I1868
sS'GGAAAT'
p18
I1467
sS'TAAGGG'
p19
I4060
sS'CGTGTT'
p20
I645
sS'TAAGGC'
p21
I3061
sS'TAAGGA'
p22
I4218
sS'TCACTG'
p23
I6161
sS'GTCAAA'
p24
I8615
sS'GTCAAC'
p25
I6673
sS'GTCAAG'
p26
I8378
sS'CTGTCC'
p27
I16846
sS'TCAGAG'
p28
I2285
sS'CTGTCA'
p29
I15100
sS'CTGTCG'
p30
I2485
sS'TCAGAC'
p31
I1393
sS'TCAGAA'
p32
I1494
sS'CTTGGT'
p33
I2247
sS'GTCAAT'
p34
I3226
sS'GTATCA'
p35
I4872
sS'GTATCC'
p36
I4119
sS'GTATCG'
p37
I599
sS'CTGTCT'
p38
I12891
sS'GGTGTC'
p39
I4448
sS'GGTGTA'
p40
I4183
sS'GGTGTG'
p41
I10546
sS'TATCCT'
p42
I5462
sS'CCGGGG'
p43
I3608
sS'TTCTGT'
p44
I16655
sS'ATTCCT'
p45
I3644
sS'CCGGGC'
p46
I3119
sS'CCGGGA'
p47
I2019
sS'TATCCA'
p48
I8181
sS'TATCCC'
p49
I6388
sS'TGGTTG'
p50
I8368
sS'TATCCG'
p51
I1163
sS'GGTGTT'
p52
I1410
sS'ATTCCG'
p53
I982
sS'TTCTGG'
p54
I22737
sS'CCGGGT'
p55
I585
sS'ATTCCC'
p56
I5267
sS'TTCTGC'
p57
I21302
sS'ATTCCA'
p58
I6784
sS'TTCTGA'
p59
I22548
sS'CTTGGA'
p60
I5316
sS'GGNCCC'
p61
I1
sS'TATCTT'
p62
I5619
sS'TAGGAA'
p63
I5833
sS'GTTCTC'
p64
I8772
sS'AGGGAG'
p65
I9745
sS'ACGAAC'
p66
I428
sS'CGCGGG'
p67
I8445
sS'CGCGGC'
p68
I8099
sS'CGCGGA'
p69
I3033
sS'ACAGGT'
p70
I911
sS'ACCTGT'
p71
I5224
sS'TCATGT'
p72
I2551
sS'CTCCGA'
p73
I3472
sS'TTACAG'
p74
I2821
sS'CTCCGC'
p75
I10677
sS'TTACAA'
p76
I2071
sS'TTACAC'
p77
I1504
sS'CTCCGG'
p78
I8428
sS'TCATGC'
p79
I3449
sS'ACCTGG'
p80
I13005
sS'CCGTGT'
p81
I928
sS'GTAAGC'
p82
I3305
sS'TCATGG'
p83
I3830
sS'ACCTGC'
p84
I11624
sS'ACCTGA'
p85
I8574
sS'GTATTT'
p86
I3605
sS'CTCGAT'
p87
I464
sS'CTCCGT'
p88
I2196
sS'GAATTT'
p89
I1680
sS'GCCTGA'
p90
I12934
sS'GCCTGC'
p91
I18494
sS'GCCTGG'
p92
I26092
sS'TAAAGG'
p93
I9272
sS'CAAATT'
p94
I1220
sS'TAAAGA'
p95
I9314
sS'AAGGTC'
p96
I6108
sS'GCCTGT'
p97
I8318
sS'TATCTA'
p98
I9915
sS'TAAAGT'
p99
I4371
sS'CAAATA'
p100
I11075
sS'GCTTGT'
p101
I3388
sS'CAAATC'
p102
I3950
sS'CGTGCT'
p103
I1303
sS'CAAATG'
p104
I8818
sS'AATACT'
p105
I7962
sS'TATCTC'
p106
I10028
sS'TCGATT'
p107
I163
sS'GGCATG'
p108
I12246
sS'GGCATA'
p109
I6636
sS'GGCATC'
p110
I7231
sS'AATACG'
p111
I1901
sS'AATACA'
p112
I15123
sS'AATACC'
p113
I9202
sS'GGCATT'
p114
I3617
sS'CGTCAG'
p115
I2365
sS'TGCTTA'
p116
I19483
sS'GAGCAC'
p117
I7574
sS'GAGCAA'
p118
I9341
sS'CATATC'
p119
I6158
sS'GAGCAG'
p120
I14884
sS'AGTAGT'
p121
I3640
sS'TCTCGC'
p122
I2192
sS'TCTCGA'
p123
I1073
sS'TCTCGG'
p124
I2576
sS'ACTGAG'
p125
I5404
sS'ATACAA'
p126
I1644
sS'AGTAGG'
p127
I7727
sS'GAGCAT'
p128
I2810
sS'TTGAAC'
p129
I4417
sS'TTTGTT'
p130
I4686
sS'GTGTCG'
p131
I2067
sS'TCGAAC'
p132
I373
sS'TCGAAA'
p133
I331
sS'GTGTCC'
p134
I12437
sS'TCGAAG'
p135
I616
sS'GTGTCA'
p136
I13375
sS'ATTTGC'
p137
I8695
sS'CTTGCT'
p138
I4511
sS'AGACAC'
p139
I1539
sS'CCGTCT'
p140
I1396
sS'CCACAA'
p141
I1022
sS'GTGTCT'
p142
I10142
sS'TTGAAG'
p143
I6553
sS'TCGAAT'
p144
I144
sS'CTTGCG'
p145
I1760
sS'CTTGCA'
p146
I6966
sS'CTTGCC'
p147
I8430
sS'CGAAAG'
p148
I734
sS'CGAAAA'
p149
I355
sS'CGAAAC'
p150
I498
sS'CACGGA'
p151
I2827
sS'AAATGC'
p152
I6013
sS'CACGGC'
p153
I4286
sS'AAATGA'
p154
I8302
sS'AAATGG'
p155
I6230
sS'CACGGG'
p156
I4258
sS'ACAGTA'
p157
I3608
sS'CGAAAT'
p158
I168
sS'ACAGTT'
p159
I833
sS'AATCAG'
p160
I11149
sS'CACGGT'
p161
I1384
sS'AAATGT'
p162
I4330
sS'AATCAC'
p163
I9851
sS'TTTGTA'
p164
I12611
sS'TCTAGT'
p165
I2423
sS'TTGCCG'
p166
I2383
sS'TTGCCA'
p167
I12717
sS'TTGCCC'
p168
I11984
sS'TTGCCT'
p169
I9823
sS'TCTAGG'
p170
I5858
sS'GGGTAA'
p171
I2326
sS'TCTAGA'
p172
I4675
sS'GGGTAG'
p173
I2634
sS'TCTAGC'
p174
I3870
sS'ATACGG'
p175
I407
sS'GGCTCC'
p176
I23162
sS'AGATGT'
p177
I2194
sS'TCGCCC'
p178
I2146
sS'TCGCCA'
p179
I1069
sS'ATAGTC'
p180
I1917
sS'TCGCCG'
p181
I822
sS'GGTAAT'
p182
I1653
sS'ACCCAT'
p183
I1314
sS'GTGTAT'
p184
I3249
sS'ACCCAC'
p185
I5143
sS'GGTAAC'
p186
I3626
sS'ACCCAA'
p187
I4079
sS'GGTAAA'
p188
I5631
sS'ACCCAG'
p189
I7767
sS'GGTAAG'
p190
I4897
sS'TCGCCT'
p191
I778
sS'AGATGC'
p192
I2951
sS'TTTGAG'
p193
I7842
sS'CCCCAT'
p194
I1721
sS'TTGGGT'
p195
I2031
sS'CACTAG'
p196
I9063
sS'CACTAA'
p197
I9938
sS'CACTAC'
p198
I7476
sS'CCCCAA'
p199
I4667
sS'CCCCAC'
p200
I8179
sS'CCCCAG'
p201
I9167
sS'CACTAT'
p202
I4565
sS'TTGGGG'
p203
I6417
sS'TCGGTT'
p204
I221
sS'TTGGGA'
p205
I5279
sS'TTGGGC'
p206
I4371
sS'TGCCTG'
p207
I25630
sS'TGCAGA'
p208
I15798
sS'TTTCTG'
p209
I20434
sS'TGCAGC'
p210
I17521
sS'TTTCTA'
p211
I14832
sS'TGCCTA'
p212
I11300
sS'TGCAGG'
p213
I20580
sS'GTATCT'
p214
I3785
sS'TTTCTT'
p215
I6772
sS'TGCCTT'
p216
I7537
sS'TGCAGT'
p217
I11084
sS'ACGATG'
p218
I1145
sS'ACAATT'
p219
I1013
sS'AAGGAA'
p220
I12379
sS'AAGGAC'
p221
I6123
sS'AAGGAG'
p222
I11666
sS'ATATGC'
p223
I3304
sS'ATATGA'
p224
I4587
sS'TACGAA'
p225
I1190
sS'ATATGG'
p226
I3341
sS'GATGGA'
p227
I8759
sS'AAGGAT'
p228
I2329
sS'CTATCA'
p229
I4900
sS'ACATTT'
p230
I1807
sS'TGGTTT'
p231
I4274
sS'ATATGT'
p232
I3175
sS'GGTCCC'
p233
I5874
sS'GCCCAG'
p234
I13916
sS'GGTCCA'
p235
I3487
sS'GCCCAA'
p236
I5162
sS'GGTCCG'
p237
I1762
sS'GCCCAC'
p238
I6618
sS'TGTGTC'
p239
I10239
sS'AGACCC'
p240
I1859
sS'CTTCGG'
p241
I2627
sS'CTTCGA'
p242
I1299
sS'CTTCGC'
p243
I2362
sS'CTTAGT'
p244
I3522
sS'TCCGGG'
p245
I5872
sS'AGGTCA'
p246
I9915
sS'AAAGTT'
p247
I1230
sS'AGGTCG'
p248
I1690
sS'GGTCCT'
p249
I2297
sS'TCCGGA'
p250
I2505
sS'CTTAGC'
p251
I5597
sS'TCTTGA'
p252
I7342
sS'CTTAGA'
p253
I6436
sS'TCTTGC'
p254
I8030
sS'CTTAGG'
p255
I7089
sS'ATTGTC'
p256
I3738
sS'ATGGCC'
p257
I6492
sS'GCCTTT'
p258
I7445
sS'ATTTTG'
p259
I13498
sS'TCCAGG'
p260
I19944
sS'ATTTTA'
p261
I20014
sS'CGCTAG'
p262
I2143
sS'ATTTTC'
p263
I10703
sS'TCCAGC'
p264
I16246
sS'TAGCAG'
p265
I6280
sS'GATACT'
p266
I5727
sS'TAGCAC'
p267
I4266
sS'TAGCAA'
p268
I5481
sS'TAAATA'
p269
I17511
sS'ATTTTT'
p270
I4280
sS'GCCTTG'
p271
I18410
sS'TAGTGT'
p272
I5234
sS'GCCTTA'
p273
I10874
sS'TTGACA'
p274
I7626
sS'GCCTTC'
p275
I17332
sS'GATACG'
p276
I1568
sS'TAGCAT'
p277
I2326
sS'GATACC'
p278
I6047
sS'GATACA'
p279
I9911
sS'TGAGCT'
p280
I2152
sS'ACGGAC'
p281
I419
sS'GATCAT'
p282
I3461
sS'AAGACA'
p283
I15912
sS'AAGACC'
p284
I9035
sS'ACAATG'
p285
I5833
sS'AAGACG'
p286
I2725
sS'GATCAG'
p287
I7904
sS'TGAGCG'
p288
I1110
sS'GATCAC'
p289
I7133
sS'GATCAA'
p290
I6084
sS'ACCGAC'
p291
I942
sS'AAGACT'
p292
I7622
sS'CTTCCA'
p293
I9698
sS'GGCGTT'
p294
I888
sS'GCGGTA'
p295
I915
sS'GCGGTG'
p296
I3775
sS'CTATCG'
p297
I607
sS'CGGTGT'
p298
I1198
sS'TCGTTA'
p299
I1037
sS'TCGTTC'
p300
I1153
sS'ATGTGG'
p301
I10205
sS'ACTTGT'
p302
I2832
sS'GCGGTT'
p303
I306
sS'ACTTGC'
p304
I5240
sS'ATGTGA'
p305
I8839
sS'ACTTGA'
p306
I5905
sS'CGGTGG'
p307
I3641
sS'CTCGAG'
p308
I2311
sS'CGGTGA'
p309
I1951
sS'CGGTGC'
p310
I2805
sS'TTCCTA'
p311
I17886
sS'AACGTT'
p312
I1285
sS'TTCCTC'
p313
I27190
sS'ACTGAC'
p314
I3605
sS'ACCACA'
p315
I14945
sS'TTCCTG'
p316
I35557
sS'TCCTTT'
p317
I12606
sS'CAGTTG'
p318
I9725
sS'TAGACG'
p319
I1435
sS'TTCCTT'
p320
I14113
sS'TAGACC'
p321
I5284
sS'TAGACA'
p322
I9076
sS'TCCTTG'
p323
I22685
sS'TCCTTA'
p324
I18307
sS'TCCTTC'
p325
I26075
sS'ATCTCT'
p326
I10774
sS'ACCGTT'
p327
I441
sS'TGGCGC'
p328
I2662
sS'TGGCGA'
p329
I1350
sS'TGGCGG'
p330
I4043
sS'ATCTCG'
p331
I2584
sS'ATCTCA'
p332
I15960
sS'ATCTCC'
p333
I13622
sS'GGCCAA'
p334
I7384
sS'ACGGAG'
p335
I858
sS'GGCCAC'
p336
I8680
sS'ACCGTG'
p337
I2902
sS'ACCGTA'
p338
I1267
sS'GGCCAG'
p339
I12650
sS'ACCGTC'
p340
I1625
sS'ACTGAA'
p341
I3988
sS'AGAATT'
p342
I1736
sS'GGCAGT'
p343
I7593
sS'CCATAA'
p344
I1068
sS'CAAAGG'
p345
I9197
sS'CCATAC'
p346
I891
sS'CAAAGA'
p347
I7499
sS'GAAACG'
p348
I2466
sS'CAAAGC'
p349
I6885
sS'CAACGT'
p350
I255
sS'GGCAGA'
p351
I15191
sS'GGCAGC'
p352
I19130
sS'CGTGAG'
p353
I2896
sS'GGCAGG'
p354
I27167
sS'CAACGC'
p355
I671
sS'CAAAGT'
p356
I3317
sS'CAACGA'
p357
I464
sS'CTAACC'
p358
I4838
sS'CAACGG'
p359
I666
sS'CTAACG'
p360
I850
sS'GGGGGT'
p361
I1205
sS'TACGCT'
p362
I1268
sS'AGATTG'
p363
I3487
sS'CGATCT'
p364
I294
sS'CTCTAG'
p365
I11570
sS'CTCTAA'
p366
I11714
sS'CTCTAC'
p367
I9717
sS'GGGGGG'
p368
I3392
sS'CGATCC'
p369
I710
sS'TACGCC'
p370
I1915
sS'GGGGGC'
p371
I4469
sS'CGATCG'
p372
I155
sS'GGGGGA'
p373
I3722
sS'TACGCG'
p374
I885
sS'CTCTAT'
p375
I5298
sS'ACCGAA'
p376
I803
sS'CAGACC'
p377
I9790
sS'CAGACA'
p378
I12545
sS'CAGACG'
p379
I2866
sS'CGCTAA'
p380
I1636
sS'TAGTTG'
p381
I7472
sS'GCTAAT'
p382
I1147
sS'TAGTTC'
p383
I7014
sS'TAGTTA'
p384
I8685
sS'CAGACT'
p385
I5815
sS'GCTAAG'
p386
I4435
sS'TAGTTT'
p387
I4450
sS'GCTAAC'
p388
I2555
sS'GCTAAA'
p389
I3721
sS'CGAGTA'
p390
I555
sS'TGCATT'
p391
I6787
sS'GCGAAA'
p392
I493
sS'AACCCT'
p393
I7293
sS'AACCCC'
p394
I10083
sS'TGCATG'
p395
I14664
sS'AACCCG'
p396
I3571
sS'ATGCAC'
p397
I3930
sS'TGCATC'
p398
I9077
sS'AGATTT'
p399
I1129
sS'AGTTTG'
p400
I14602
sS'AACTGG'
p401
I15868
sS'AACTGA'
p402
I16388
sS'AACTGC'
p403
I14165
sS'CCCAGA'
p404
I12684
sS'CCCAGC'
p405
I20646
sS'CCCAGG'
p406
I23663
sS'AACTGT'
p407
I10538
sS'AGTTTT'
p408
I5086
sS'TTGCAT'
p409
I3011
sS'CTACAT'
p410
I644
sS'CGAGTC'
p411
I942
sS'CCCAGT'
p412
I6190
sS'TATTAG'
p413
I9615
sS'TTGACG'
p414
I1173
sS'CGCATA'
p415
I1328
sS'ATACTG'
p416
I3740
sS'CGCATC'
p417
I2180
sS'ATACTA'
p418
I3003
sS'ATACTC'
p419
I2113
sS'CGCATG'
p420
I3218
sS'GCGCAA'
p421
I461
sS'GCGAAT'
p422
I160
sS'ATACTT'
p423
I1002
sS'CTATCT'
p424
I3691
sS'GCGCAC'
p425
I1130
sS'GCTCCG'
p426
I3573
sS'TATTGT'
p427
I9827
sS'GCTCCC'
p428
I8231
sS'GCTCCA'
p429
I6235
sS'CCTACT'
p430
I2970
sS'TGTACT'
p431
I5421
sS'TTTAGT'
p432
I4567
sS'TATTGG'
p433
I9170
sS'GCTCCT'
p434
I3506
sS'GCGCAG'
p435
I2067
sS'TATTGA'
p436
I11344
sS'TTTAGG'
p437
I7931
sS'TGTACG'
p438
I1338
sS'CCTACG'
p439
I1103
sS'TGTACA'
p440
I9873
sS'CCTACA'
p441
I4251
sS'TGTACC'
p442
I5936
sS'TTTAGA'
p443
I8807
sS'TTCGCG'
p444
I1414
sS'TTCGCA'
p445
I1808
sS'TTCGCC'
p446
I2954
sS'CGTACA'
p447
I1166
sS'GACTAA'
p448
I14734
sS'AGTATA'
p449
I7074
sS'TTTGGG'
p450
I7756
sS'AGTATG'
p451
I7261
sS'TTTGGA'
p452
I6197
sS'TTTGGC'
p453
I5511
sS'TTCGCT'
p454
I1719
sS'CTTTTA'
p455
I20851
sS'GACTAT'
p456
I5295
sS'AGTATT'
p457
I2911
sS'TTACTC'
p458
I4448
sS'TTACTA'
p459
I5007
sS'TTACTG'
p460
I5718
sS'ACCTTG'
p461
I13810
sS'ACCTTC'
p462
I11214
sS'ACCTTA'
p463
I9578
sS'TATATC'
p464
I6598
sS'CTAATA'
p465
I5744
sS'GTAAAC'
p466
I4511
sS'ACCTTT'
p467
I4843
sS'ACAGGG'
p468
I2796
sS'CTGGGA'
p469
I10081
sS'CTGGGC'
p470
I10296
sS'ACAGGC'
p471
I2283
sS'ACAGGA'
p472
I2649
sS'CTGGGG'
p473
I11684
sS'AGGACG'
p474
I3191
sS'GCAGCT'
p475
I2135
sS'CAGGAA'
p476
I8634
sS'TCGCTT'
p477
I383
sS'CAGGAG'
p478
I9553
sS'AGGACA'
p479
I11792
sS'GCGCAT'
p480
I211
sS'TTATAC'
p481
I2355
sS'TTATAA'
p482
I3680
sS'CTGGGT'
p483
I3202
sS'TTATAG'
p484
I2944
sS'GTCAGA'
p485
I13123
sS'TCGCTG'
p486
I2516
sS'GAGTTG'
p487
I11755
sS'GCAGCG'
p488
I1795
sS'AGGACT'
p489
I6024
sS'GCAGCA'
p490
I4468
sS'GCAGCC'
p491
I6403
sS'CAGGAT'
p492
I1727
sS'CCTCAG'
p493
I7464
sS'CCTCAA'
p494
I3870
sS'CCTCAC'
p495
I5028
sS'TATGTT'
p496
I4769
sS'ATGGGC'
p497
I3303
sS'TCTTTG'
p498
I19260
sS'ATGGGA'
p499
I4292
sS'TCTTTA'
p500
I17708
sS'GGGTTG'
p501
I6353
sS'TCTTTC'
p502
I17503
sS'CCTCAT'
p503
I1601
sS'TGCGAT'
p504
I501
sS'TATGTG'
p505
I14312
sS'TATGTA'
p506
I13990
sS'ATGGGT'
p507
I1215
sS'TATGTC'
p508
I7124
sS'GAAAGA'
p509
I13878
sS'ATCAAG'
p510
I7207
sS'GAAAGC'
p511
I9683
sS'ATCAAC'
p512
I5490
sS'GAAAGG'
p513
I15334
sS'ATCAAA'
p514
I8854
sS'GTCAGG'
p515
I16102
sS'CATGAG'
p516
I9634
sS'ATCAAT'
p517
I2609
sS'TCAAAC'
p518
I2150
sS'CATGAC'
p519
I7674
sS'CATGAA'
p520
I7470
sS'GTAGCG'
p521
I748
sS'CAAGTT'
p522
I983
sS'GCGGCT'
p523
I1611
sS'GCTTTA'
p524
I11403
sS'GCTTTC'
p525
I11550
sS'GCGGCG'
p526
I4100
sS'CAAGTG'
p527
I5397
sS'GTAGCT'
p528
I1983
sS'GCGGCC'
p529
I6615
sS'CAAGTC'
p530
I3418
sS'GCGGCA'
p531
I2484
sS'CAAGTA'
p532
I4163
sS'AACGGT'
p533
I914
sS'GGGGAA'
p534
I3388
sS'TAATCG'
p535
I658
sS'GGTCTT'
p536
I1757
sS'TAATCA'
p537
I6557
sS'TAATCC'
p538
I5937
sS'GGGTTT'
p539
I2245
sS'CGGCCC'
p540
I7823
sS'CGACTA'
p541
I365
sS'AAAATT'
p542
I1644
sS'TTGATA'
p543
I6397
sS'CGGCCG'
p544
I3943
sS'TCGTGA'
p545
I915
sS'ATGAAG'
p546
I6375
sS'GGTCTG'
p547
I9117
sS'TAATCT'
p548
I3560
sS'GGTCTC'
p549
I7361
sS'GGTCTA'
p550
I4042
sS'AAAATG'
p551
I11187
sS'AAAATC'
p552
I4304
sS'TCAATA'
p553
I4421
sS'CGGCCT'
p554
I2668
sS'TTCAGC'
p555
I15488
sS'ATCCCT'
p556
I5220
sS'TTCAGG'
p557
I18338
sS'ATATCC'
p558
I4480
sS'TCGTCG'
p559
I449
sS'TTTAGC'
p560
I5980
sS'TGTTTT'
p561
I9898
sS'GAACAA'
p562
I3238
sS'ATTGCC'
p563
I3914
sS'GAACAC'
p564
I2548
sS'TCGTCT'
p565
I816
sS'GAACAG'
p566
I3708
sS'ATCCCA'
p567
I9358
sS'ATTGCA'
p568
I5363
sS'CACCAC'
p569
I11714
sS'CACCAA'
p570
I8013
sS'CACCAG'
p571
I11862
sS'TCCGTG'
p572
I3819
sS'ATTGCG'
p573
I782
sS'AGGCGT'
p574
I1372
sS'TCCGTC'
p575
I2854
sS'GAGTTA'
p576
I9895
sS'TCCGTA'
p577
I1595
sS'ACGCGA'
p578
I434
sS'CACCAT'
p579
I3718
sS'AACATG'
p580
I16377
sS'AACATA'
p581
I15349
sS'AACATC'
p582
I11024
sS'GTCAGC'
p583
I12658
sS'GCACGG'
p584
I900
sS'TCAGCC'
p585
I5128
sS'GCACGA'
p586
I404
sS'CAGTCC'
p587
I11864
sS'GCACGC'
p588
I879
sS'CAGTCA'
p589
I14178
sS'AACAAC'
p590
I11301
sS'GCAAGC'
p591
I2783
sS'GCACGT'
p592
I286
sS'CAGTCT'
p593
I7860
sS'TAAAGC'
p594
I6683
sS'GCAAGG'
p595
I4801
sS'GTCAGT'
p596
I7345
sS'GTATAC'
p597
I2027
sS'TTCCGT'
p598
I1815
sS'GTATAA'
p599
I2461
sS'GTATAG'
p600
I1860
sS'CCGGAA'
p601
I942
sS'CCGGAC'
p602
I752
sS'CCGGAG'
p603
I1444
sS'TATCAT'
p604
I4091
sS'CTCGTA'
p605
I1694
sS'TTCCGG'
p606
I5684
sS'TTCCGA'
p607
I2273
sS'TTCCGC'
p608
I4544
sS'GTATAT'
p609
I1839
sS'TATCAC'
p610
I6310
sS'TATCAA'
p611
I6869
sS'CGTCTG'
p612
I4122
sS'CCGGAT'
p613
I158
sS'CTCTTC'
p614
I28716
sS'TGTTAT'
p615
I4195
sS'CTCTTA'
p616
I19647
sS'CTCTTG'
p617
I24725
sS'AGGGCT'
p618
I5868
sS'TACGTA'
p619
I2388
sS'TACGTC'
p620
I1539
sS'TCTGGT'
p621
I1859
sS'CGCGAT'
p622
I385
sS'TACGTG'
p623
I3338
sS'TGTTAG'
p624
I7557
sS'GCTGTT'
p625
I1848
sS'AAGCTT'
p626
I4133
sS'CTCTTT'
p627
I14795
sS'TGTTAA'
p628
I9400
sS'TCTGGG'
p629
I9158
sS'CGCGAC'
p630
I1698
sS'GATATT'
p631
I3933
sS'TCTGGC'
p632
I5268
sS'TACGTT'
p633
I1056
sS'CGCGAG'
p634
I3278
sS'AGTCGT'
p635
I885
sS'TTACCT'
p636
I1778
sS'CTCCAT'
p637
I4125
sS'TTACCG'
p638
I476
sS'CTCCAC'
p639
I12249
sS'AGTCGG'
p640
I2512
sS'TTACCC'
p641
I2445
sS'CTCCAG'
p642
I18403
sS'TTACCA'
p643
I3070
sS'AGTCGC'
p644
I2136
sS'GTACCG'
p645
I429
sS'CCGACT'
p646
I697
sS'GCCTAC'
p647
I5008
sS'AATGCA'
p648
I14923
sS'GCCTAG'
p649
I6937
sS'CCGACA'
p650
I958
sS'GATATC'
p651
I4911
sS'CCGACC'
p652
I1872
sS'CCGACG'
p653
I739
sS'GCCTAT'
p654
I2435
sS'TGACGG'
p655
I715
sS'AGGGCG'
p656
I5035
sS'CTCGTT'
p657
I933
sS'CTAAGT'
p658
I2436
sS'CCCGAA'
p659
I1212
sS'CGGTTT'
p660
I644
sS'CGCACA'
p661
I4240
sS'ATACAC'
p662
I1388
sS'CGCACC'
p663
I5770
sS'GGGTCG'
p664
I1752
sS'ACTGCT'
p665
I2875
sS'GGGTCA'
p666
I5993
sS'CGCACG'
p667
I2975
sS'GGGTCC'
p668
I6759
sS'CTCACT'
p669
I14591
sS'GGGTCT'
p670
I3532
sS'ACTGCA'
p671
I7580
sS'TTTGTC'
p672
I8663
sS'ACTGCC'
p673
I6175
sS'CGCACT'
p674
I2481
sS'TTTGTG'
p675
I14417
sS'ACTGCG'
p676
I1908
sS'NTNTGC'
p677
I1
sS'CTCACC'
p678
I21164
sS'CTCACA'
p679
I18976
sS'CTCACG'
p680
I4716
sS'GTGGGT'
p681
I2773
sS'GTGAGG'
p682
I11957
sS'GATTTT'
p683
I6327
sS'TAGTGC'
p684
I5370
sS'GTGAGC'
p685
I9191
sS'TAGTGA'
p686
I8060
sS'GTGAGA'
p687
I8339
sS'TCGACG'
p688
I285
sS'TCGACA'
p689
I494
sS'TCGACC'
p690
I795
sS'GATTTG'
p691
I16293
sS'GTGAGT'
p692
I6653
sS'GTGGGG'
p693
I12137
sS'GTGGGA'
p694
I7211
sS'GTGGGC'
p695
I5785
sS'TCGACT'
p696
I350
sS'ACGTAA'
p697
I492
sS'NAGGTG'
p698
I1
sS'CTGGTT'
p699
I2324
sS'TTGAGT'
p700
I4439
sS'TCAAAA'
p701
I2819
sS'CGAACG'
p702
I360
sS'CGAACC'
p703
I984
sS'CGAACA'
p704
I723
sS'CGGNCC'
p705
I1
sS'CTGGTG'
p706
I11280
sS'CTGGTA'
p707
I6367
sS'CTGGTC'
p708
I6217
sS'CTGCAA'
p709
I6398
sS'CGAACT'
p710
I466
sS'CAATTG'
p711
I3261
sS'GACGAG'
p712
I3334
sS'GCGGAA'
p713
I808
sS'CGTCTT'
p714
I937
sS'TTGCAG'
p715
I7824
sS'ACTCCT'
p716
I2640
sS'TTGCAC'
p717
I4990
sS'TTGCAA'
p718
I5448
sS'AAGATC'
p719
I5836
sS'ACGTAC'
p720
I423
sS'TCCATC'
p721
I9767
sS'TCGCAT'
p722
I120
sS'GTCGTG'
p723
I2467
sS'GTCGTA'
p724
I1117
sS'GTCGTC'
p725
I1779
sS'CCGTTT'
p726
I559
sS'ACTGAT'
p727
I980
sS'ATATCG'
p728
I512
sS'GTCGTT'
p729
I611
sS'TCAGAT'
p730
I563
sS'TCGCAG'
p731
I796
sS'TCCATG'
p732
I12321
sS'TCGCAC'
p733
I448
sS'CCGTTG'
p734
I1491
sS'CCGTTA'
p735
I1019
sS'CCGTTC'
p736
I1477
sS'AATGCT'
p737
I7673
sS'GGTACG'
p738
I883
sS'GGTACA'
p739
I4019
sS'GGTACC'
p740
I3200
sS'TATTTG'
p741
I27662
sS'CCAGTT'
p742
I727
sS'TATTTC'
p743
I20987
sS'TATTTA'
p744
I35269
sS'CCCCCT'
p745
I4168
sS'GGTACT'
p746
I2098
sS'AATGCG'
p747
I2128
sS'AATGCC'
p748
I10967
sS'GAAGTC'
p749
I5206
sS'CCCCCC'
p750
I5180
sS'CCCCCA'
p751
I8442
sS'TATTTT'
p752
I13625
sS'CCCCCG'
p753
I4482
sS'CTTGAG'
p754
I6298
sS'ATGATG'
p755
I9383
sS'CTTGAC'
p756
I3964
sS'GCGTTA'
p757
I1069
sS'ATGATC'
p758
I3775
sS'TGCAAC'
p759
I7606
sS'TGCAAA'
p760
I13484
sS'TGCAAG'
p761
I10367
sS'GAAGTG'
p762
I9819
sS'ATGATT'
p763
I2556
sS'CTTGAT'
p764
I1243
sS'CGAATC'
p765
I557
sS'TTGAGG'
p766
I8520
sS'AATCTC'
p767
I9744
sS'TTGAGC'
p768
I5765
sS'TTGAGA'
p769
I7998
sS'GAGAAT'
p770
I4654
sS'TGTCTT'
p771
I5138
sS'CGAATA'
p772
I580
sS'AGTAGC'
p773
I5939
sS'AAGGCC'
p774
I12971
sS'ATAACC'
p775
I3918
sS'AAGGCA'
p776
I16861
sS'ATAACA'
p777
I5814
sS'AAGGCG'
p778
I4312
sS'ATAACG'
p779
I655
sS'TATGCT'
p780
I5518
sS'TGTGGT'
p781
I4527
sS'TTGACT'
p782
I5872
sS'TGTCTG'
p783
I17575
sS'GAGAAG'
p784
I17748
sS'AGTAGA'
p785
I7255
sS'GAGAAA'
p786
I16235
sS'TGTCTC'
p787
I15106
sS'GAGAAC'
p788
I9391
sS'TGTCTA'
p789
I9524
sS'TGTGGC'
p790
I8535
sS'TGTGGA'
p791
I7007
sS'TGTGGG'
p792
I10580
sS'ATAACT'
p793
I2884
sS'AAGGCT'
p794
I7684
sS'TAGGCT'
p795
I4480
sS'GCCCCG'
p796
I10241
sS'ACCAAG'
p797
I6732
sS'GGTCAG'
p798
I6165
sS'GCCCCC'
p799
I11959
sS'GGTCAA'
p800
I3207
sS'ACCAAC'
p801
I4899
sS'GGTCAC'
p802
I4764
sS'GATCGC'
p803
I2276
sS'GGTCAT'
p804
I1383
sS'ACCAAT'
p805
I2460
sS'CGTGCA'
p806
I2437
sS'CGTGCG'
p807
I2106
sS'CAAACT'
p808
I3618
sS'TTTTGC'
p809
I10395
sS'TCTTAC'
p810
I4640
sS'AATTGG'
p811
I7495
sS'TCTTAA'
p812
I6746
sS'TTTTGG'
p813
I10904
sS'ATCATG'
p814
I11381
sS'AATTGC'
p815
I8444
sS'TAGCCA'
p816
I8080
sS'TGGGGT'
p817
I1860
sS'CGCTCG'
p818
I4467
sS'GATAAT'
p819
I4183
sS'CGCTCA'
p820
I5218
sS'TAGCCG'
p821
I1482
sS'AATTGT'
p822
I6592
sS'AATCTT'
p823
I4389
sS'TCTTAT'
p824
I2435
sS'TTTTGT'
p825
I8584
sS'CGCTCT'
p826
I4593
sS'GATAAA'
p827
I11725
sS'GATAAC'
p828
I5738
sS'TAGCCT'
p829
I4714
sS'TGGGGC'
p830
I6366
sS'TGGGGA'
p831
I6027
sS'GATCCT'
p832
I5534
sS'AAGAAT'
p833
I4822
sS'CGAAGT'
p834
I413
sS'GTTATC'
p835
I3373
sS'AAGAAC'
p836
I8440
sS'GATCCA'
p837
I8121
sS'AAGAAA'
p838
I16758
sS'GATCCC'
p839
I7873
sS'AAGAAG'
p840
I12999
sS'GATCCG'
p841
I2674
sS'TATTAA'
p842
I14408
sS'GCAACG'
p843
I813
sS'AAGCAT'
p844
I3275
sS'CAAGGG'
p845
I4046
sS'CAAGGC'
p846
I3528
sS'GGTTCT'
p847
I4883
sS'CAAGGA'
p848
I3648
sS'GGTTCA'
p849
I6878
sS'GGTTCC'
p850
I8360
sS'CAAGGT'
p851
I1077
sS'GGTTCG'
p852
I1738
sS'CTGTAT'
p853
I3102
sS'ATTATA'
p854
I7994
sS'ATTATC'
p855
I3963
sS'TAGAAT'
p856
I3264
sS'GATAGT'
p857
I3768
sS'CCCCGC'
p858
I13241
sS'AGTCTT'
p859
I3637
sS'TAGAAA'
p860
I9183
sS'TAGAAC'
p861
I5271
sS'ATTATT'
p862
I2497
sS'TAGAAG'
p863
I8091
sS'AGTCTA'
p864
I7316
sS'AGTCTC'
p865
I10378
sS'AGTCTG'
p866
I12640
sS'TAACTC'
p867
I3327
sS'TAACTA'
p868
I4015
sS'TAACTG'
p869
I5275
sS'ATCTAT'
p870
I3354
sS'ACGCGT'
p871
I175
sS'AGGTAT'
p872
I1907
sS'TAACTT'
p873
I1278
sS'ATCTAG'
p874
I6603
sS'ATCTAC'
p875
I5525
sS'ATCTAA'
p876
I7921
sS'CCATGT'
p877
I2124
sS'ACCAAA'
p878
I6604
sS'TGGAGG'
p879
I13378
sS'TGGAGA'
p880
I9459
sS'TGGAGC'
p881
I8287
sS'CCATGC'
p882
I2631
sS'CTTCAC'
p883
I6264
sS'CCATGA'
p884
I2543
sS'GCCCCA'
p885
I12608
sS'TGGAGT'
p886
I4360
sS'ATTACG'
p887
I893
sS'TCAGTA'
p888
I3803
sS'TCAGTC'
p889
I2724
sS'CTCTCT'
p890
I23011
sS'GGGGAT'
p891
I774
sS'TCAGTG'
p892
I5539
sS'CGATAT'
p893
I64
sS'CTCTCG'
p894
I6018
sS'GGGGAC'
p895
I2820
sS'CTCTCC'
p896
I33904
sS'TCAGTT'
p897
I931
sS'GGGGAG'
p898
I6346
sS'ATGCAG'
p899
I5880
sS'CGATAG'
p900
I135
sS'CGATAA'
p901
I123
sS'CGATAC'
p902
I145
sS'CTAAGG'
p903
I5417
sS'GTGTTT'
p904
I7081
sS'GCTACT'
p905
I2587
sS'GTGGTT'
p906
I3118
sS'CTAAGA'
p907
I4881
sS'GTGTTC'
p908
I9583
sS'GTGTTA'
p909
I9228
sS'GTGTTG'
p910
I11696
sS'CGTGCC'
p911
I3058
sS'GTGGTA'
p912
I6559
sS'GCTACA'
p913
I4062
sS'GTGGTC'
p914
I5092
sS'GCTACC'
p915
I3760
sS'GTGGTG'
p916
I12215
sS'GCTACG'
p917
I1043
sS'GCCCCT'
p918
I6446
sS'TTTCGT'
p919
I679
sS'TGCCCT'
p920
I9412
sS'AGCGTT'
p921
I1069
sS'AGGTAA'
p922
I4144
sS'TGCCCC'
p923
I14082
sS'TGCCCA'
p924
I15011
sS'TGCCCG'
p925
I5222
sS'TTTCGG'
p926
I1744
sS'AGCGTA'
p927
I1533
sS'AGCGTC'
p928
I3321
sS'CGAGTT'
p929
I158
sS'AGCGTG'
p930
I4485
sS'GGCCCC'
p931
I14432
sS'GGCCCA'
p932
I10083
sS'CACGTG'
p933
I7099
sS'GGCCCG'
p934
I6988
sS'CACGTA'
p935
I3157
sS'CACGTC'
p936
I3815
sS'ACGTGC'
p937
I1467
sS'ACGTGA'
p938
I1525
sS'ACGTGG'
p939
I2361
sS'ACAGTC'
p940
I2430
sS'CACGTT'
p941
I1388
sS'TTCACG'
p942
I3227
sS'GNCCCA'
p943
I1
sS'GGCCCT'
p944
I6280
sS'GGGACA'
p945
I7770
sS'AATTGA'
p946
I8689
sS'GGGACC'
p947
I7844
sS'AGGGAC'
p948
I4250
sS'GTCTCA'
p949
I19843
sS'GGGACG'
p950
I3525
sS'TCTTAG'
p951
I5978
sS'AGAGAG'
p952
I4415
sS'AGAGAA'
p953
I3089
sS'AGAGAC'
p954
I2510
sS'GTCTCG'
p955
I4818
sS'GTCTTT'
p956
I10109
sS'TCTATC'
p957
I3670
sS'TCTATG'
p958
I6653
sS'AGAGAT'
p959
I912
sS'TCGTGC'
p960
I1038
sS'GTCTTG'
p961
I17896
sS'TCTATT'
p962
I2155
sS'GTCTTC'
p963
I17113
sS'GTCTTA'
p964
I13855
sS'GCAGAG'
p965
I2733
sS'GCTCAA'
p966
I3705
sS'GCTCAC'
p967
I4729
sS'GCAGAC'
p968
I1261
sS'GCAGAA'
p969
I1410
sS'GCTCAG'
p970
I7875
sS'AGACGT'
p971
I323
sS'ATGCGT'
p972
I508
sS'TTGCTG'
p973
I18659
sS'TTGCTA'
p974
I10813
sS'TTGCTC'
p975
I13786
sS'GCAGAT'
p976
I486
sS'GCTCAT'
p977
I1479
sS'GTACGG'
p978
I480
sS'TTGCTT'
p979
I7798
sS'ATGCGG'
p980
I1371
sS'GAGAGG'
p981
I25270
sS'CGCTCC'
p982
I11626
sS'ATGCGC'
p983
I1262
sS'ATGCGA'
p984
I774
sS'TGTAAG'
p985
I8108
sS'GGCTAG'
p986
I6274
sS'TGTAAC'
p987
I6864
sS'GGCTAC'
p988
I5558
sS'GACTGT'
p989
I11894
sS'GGCTAA'
p990
I6655
sS'TTCGAG'
p991
I1580
sS'TTGGTA'
p992
I5981
sS'ACTGTC'
p993
I4432
sS'TTGGTC'
p994
I4742
sS'TTCGAC'
p995
I838
sS'ACTGTG'
p996
I10873
sS'GTACGC'
p997
I413
sS'GACTGC'
p998
I15709
sS'GGCTAT'
p999
I2642
sS'GACTGA'
p1000
I17247
sS'GACTGG'
p1001
I19278
sS'TGTAAT'
p1002
I4822
sS'TTCGAT'
p1003
I414
sS'TTGGTT'
p1004
I2248
sS'ACTGTT'
p1005
I1698
sS'GTTTCT'
p1006
I8693
sS'GAATGA'
p1007
I8740
sS'ATAATT'
p1008
I1501
sS'CCTTTT'
p1009
I4873
sS'GTTTCG'
p1010
I1977
sS'GTTTCC'
p1011
I14181
sS'TGGGGG'
p1012
I6673
sS'ATAATG'
p1013
I6281
sS'CCTTTA'
p1014
I13054
sS'CCTTTC'
p1015
I15735
sS'ATAATC'
p1016
I2978
sS'ATAATA'
p1017
I7648
sS'CCTTTG'
p1018
I17260
sS'ACAGAA'
p1019
I1752
sS'ACAGAC'
p1020
I1514
sS'ACAGAG'
p1021
I2516
sS'TTATCT'
p1022
I5097
sS'CTGGAC'
p1023
I3647
sS'CTGGAA'
p1024
I4626
sS'CTGGAG'
p1025
I7487
sS'CGATTT'
p1026
I140
sS'ACAGAT'
p1027
I626
sS'GATAAG'
p1028
I7871
sS'TTATCA'
p1029
I6172
sS'CTGGAT'
p1030
I1181
sS'TTATCC'
p1031
I5291
sS'CCAATG'
p1032
I4039
sS'AAACCG'
p1033
I842
sS'AAACCA'
p1034
I5533
sS'CCAATC'
p1035
I2745
sS'AAACCC'
p1036
I3771
sS'CCAATA'
p1037
I2929
sS'TGTCGG'
p1038
I1983
sS'GAGATC'
p1039
I6869
sS'AACGAG'
p1040
I2281
sS'GAGATA'
p1041
I9449
sS'TGTCGC'
p1042
I1982
sS'GAGATG'
p1043
I15658
sS'TGTCGA'
p1044
I978
sS'AAACCT'
p1045
I1845
sS'CCAATT'
p1046
I722
sS'TCCATA'
p1047
I8473
sS'GTCGAT'
p1048
I286
sS'ATTTGG'
p1049
I8068
sS'CCCTAG'
p1050
I6222
sS'TGTCGT'
p1051
I826
sS'CCCTAC'
p1052
I5315
sS'GAGATT'
p1053
I3188
sS'CCCTAA'
p1054
I5570
sS'CATTAT'
p1055
I5229
sS'ATGCAA'
p1056
I4428
sS'TGGATT'
p1057
I1870
sS'ATCACA'
p1058
I12912
sS'ATCACC'
p1059
I10083
sS'CATGCT'
p1060
I6069
sS'TGACAC'
p1061
I1277
sS'ATCACG'
p1062
I2358
sS'TGGATA'
p1063
I5887
sS'AGGAAC'
p1064
I6343
sS'CATTAG'
p1065
I8719
sS'CATTAA'
p1066
I10840
sS'TGGATG'
p1067
I8553
sS'AGCATT'
p1068
I6446
sS'CATGCA'
p1069
I11380
sS'TGACAT'
p1070
I589
sS'CATGCC'
p1071
I11194
sS'ATCACT'
p1072
I7975
sS'CATGCG'
p1073
I2569
sS'GTAGAA'
p1074
I1622
sS'GTAGAC'
p1075
I1177
sS'GTAGAG'
p1076
I2090
sS'GATTGG'
p1077
I10252
sS'ACAACC'
p1078
I3087
sS'GATTGC'
p1079
I8093
sS'GATTGA'
p1080
I8128
sS'TAAATT'
p1081
I2381
sS'ACTAAG'
p1082
I4773
sS'GTAGAT'
p1083
I551
sS'ATACGA'
p1084
I319
sS'TGATGC'
p1085
I2512
sS'GATTGT'
p1086
I6320
sS'ACAACT'
p1087
I1980
sS'AGGATT'
p1088
I2449
sS'GTCGAA'
p1089
I724
sS'TAATAG'
p1090
I3080
sS'GTCCGG'
p1091
I4384
sS'TGAGGT'
p1092
I1215
sS'GTCCGA'
p1093
I1668
sS'TAATAA'
p1094
I4414
sS'GTCCGC'
p1095
I4212
sS'TGTTTA'
p1096
I26173
sS'ACTCTT'
p1097
I2062
sS'GTCCGT'
p1098
I1251
sS'TAATAT'
p1099
I1933
sS'ATTCGC'
p1100
I819
sS'TTCTCC'
p1101
I29198
sS'TGAACT'
p1102
I3211
sS'TTCTCA'
p1103
I27980
sS'ATCCAT'
p1104
I2043
sS'TTCTCG'
p1105
I4508
sS'ATAGCA'
p1106
I3740
sS'TCGTAC'
p1107
I263
sS'TACCTT'
p1108
I6002
sS'TCGTAA'
p1109
I336
sS'TCGTAG'
p1110
I451
sS'TCGTCA'
p1111
I1248
sS'GAACCT'
p1112
I1512
sS'TGAACG'
p1113
I937
sS'ATCCAC'
p1114
I5312
sS'TGAACC'
p1115
I4086
sS'TTCTCT'
p1116
I24736
sS'ATCCAG'
p1117
I7145
sS'GAACCC'
p1118
I3258
sS'TTATAT'
p1119
I2157
sS'GAACCA'
p1120
I3918
sS'GAACCG'
p1121
I1006
sS'TACCTC'
p1122
I10452
sS'TCGTAT'
p1123
I167
sS'ATGTTA'
p1124
I10478
sS'ACCATA'
p1125
I6510
sS'ACCATG'
p1126
I9538
sS'ATGTTG'
p1127
I10457
sS'AGCTCT'
p1128
I15050
sS'TGTCCT'
p1129
I5609
sS'AGTGGT'
p1130
I2733
sS'TGATGT'
p1131
I2077
sS'ATGTTT'
p1132
I5295
sS'ACCATT'
p1133
I2724
sS'AGTGGA'
p1134
I6094
sS'AGTGGC'
p1135
I6862
sS'AGCTCC'
p1136
I23197
sS'AGCTCA'
p1137
I20901
sS'ATAGCC'
p1138
I2644
sS'CAGTAA'
p1139
I5951
sS'CAGTAC'
p1140
I3918
sS'CAGTAG'
p1141
I5238
sS'CGCGGT'
p1142
I1259
sS'TTTCAC'
p1143
I7408
sS'CAGTAT'
p1144
I2404
sS'AAAGTA'
p1145
I7042
sS'TGCCAG'
p1146
I12642
sS'AAAGTG'
p1147
I8025
sS'GATCTA'
p1148
I6794
sS'GATCTC'
p1149
I9552
sS'ATTGAC'
p1150
I2707
sS'GATCTG'
p1151
I12997
sS'TGCCAA'
p1152
I8862
sS'CCGGCC'
p1153
I6454
sS'CCGGCA'
p1154
I2030
sS'GTTCCA'
p1155
I5458
sS'CACATT'
p1156
I7192
sS'GTTCCC'
p1157
I6591
sS'TCCCTC'
p1158
I19712
sS'TGTCCG'
p1159
I2052
sS'TCCCTA'
p1160
I9785
sS'TTAATG'
p1161
I7686
sS'TCCCTG'
p1162
I22032
sS'GATCTT'
p1163
I4107
sS'CTAGAC'
p1164
I1438
sS'ATAGAA'
p1165
I1670
sS'AAGTGA'
p1166
I13487
sS'AAGTGC'
p1167
I9670
sS'TGTTCT'
p1168
I10793
sS'AAGTGG'
p1169
I11194
sS'TGATTG'
p1170
I4337
sS'TGATTC'
p1171
I4893
sS'CGAGGT'
p1172
I304
sS'TGTTCA'
p1173
I15074
sS'CACAAG'
p1174
I12171
sS'TGTTCC'
p1175
I13565
sS'CACAAA'
p1176
I14916
sS'CACAAC'
p1177
I8855
sS'TGTTCG'
p1178
I1999
sS'TCTGAA'
p1179
I4607
sS'TCTGAC'
p1180
I4780
sS'TCTGAG'
p1181
I7389
sS'CGCGCC'
p1182
I11038
sS'CGCGCA'
p1183
I4531
sS'AGATGG'
p1184
I4357
sS'CGCGCG'
p1185
I7290
sS'CTCCCT'
p1186
I16493
sS'AGCGGG'
p1187
I6525
sS'AGCGGA'
p1188
I3101
sS'ACCTCT'
p1189
I7429
sS'AGATGA'
p1190
I4367
sS'GAAATA'
p1191
I10907
sS'CGCGCT'
p1192
I3488
sS'GTGCGA'
p1193
I1245
sS'ACCTCA'
p1194
I12929
sS'CTCCCA'
p1195
I23691
sS'CTCCCC'
p1196
I25619
sS'GCCTCT'
p1197
I12687
sS'TAAGCC'
p1198
I5136
sS'TAGCTC'
p1199
I7045
sS'TAAGCA'
p1200
I7034
sS'CGGGAA'
p1201
I1296
sS'CCCATA'
p1202
I6600
sS'CGGGAC'
p1203
I1832
sS'CCCATC'
p1204
I8697
sS'TTGTTG'
p1205
I13461
sS'CCTGCT'
p1206
I4423
sS'ANTGGA'
p1207
I1
sS'CCGAAT'
p1208
I165
sS'CCCATT'
p1209
I3296
sS'CGGGAT'
p1210
I344
sS'GCCTCG'
p1211
I7649
sS'GCCTCA'
p1212
I17293
sS'TAAGCT'
p1213
I2538
sS'GCCTCC'
p1214
I29841
sS'CCGAAC'
p1215
I514
sS'CCTGCG'
p1216
I3730
sS'CCGAAA'
p1217
I424
sS'CCGAAG'
p1218
I961
sS'CCTGCC'
p1219
I13496
sS'CCTGCA'
p1220
I8517
sS'CGACAC'
p1221
I218
sS'CCATTC'
p1222
I3872
sS'TATAAG'
p1223
I7927
sS'TATAAA'
p1224
I15687
sS'TATAAC'
p1225
I6572
sS'TAACGA'
p1226
I528
sS'TATAAT'
p1227
I5565
sS'GTTCTA'
p1228
I6824
sS'CCATTT'
p1229
I1528
sS'TCTACA'
p1230
I5317
sS'TCTACC'
p1231
I5359
sS'CTAACT'
p1232
I2822
sS'TCTACG'
p1233
I968
sS'ACTTTC'
p1234
I8799
sS'CGCAAC'
p1235
I1625
sS'ACTCCA'
p1236
I5358
sS'CGCAAA'
p1237
I1805
sS'ATACCG'
p1238
I287
sS'GACGCG'
p1239
I4392
sS'ATACCA'
p1240
I2402
sS'ATACCC'
p1241
I1395
sS'TCTACT'
p1242
I3401
sS'ATACCT'
p1243
I1260
sS'ACTTTG'
p1244
I12717
sS'TAGTAA'
p1245
I6152
sS'ATTTCT'
p1246
I7135
sS'TAGTAC'
p1247
I3317
sS'CTCAAG'
p1248
I12916
sS'GTTTTG'
p1249
I17025
sS'CTCAAA'
p1250
I14132
sS'TAGTAG'
p1251
I4484
sS'CTCAAC'
p1252
I8554
sS'GTGTGC'
p1253
I10156
sS'GTGTGA'
p1254
I10716
sS'ATTATG'
p1255
I6906
sS'GTGTGG'
p1256
I14866
sS'TAACGG'
p1257
I621
sS'TTGCGT'
p1258
I658
sS'CTCAAT'
p1259
I3954
sS'ATTACA'
p1260
I8910
sS'TAGTAT'
p1261
I2824
sS'GTGTGT'
p1262
I13159
sS'ATCTTT'
p1263
I7683
sS'GTTGGG'
p1264
I5904
sS'GTTGGA'
p1265
I3680
sS'GTTGGC'
p1266
I3937
sS'CCTTGG'
p1267
I10613
sS'CCTTGA'
p1268
I6946
sS'GCGTAT'
p1269
I171
sS'CCTTGC'
p1270
I7902
sS'GGACGT'
p1271
I200
sS'GTTGGT'
p1272
I1713
sS'ATCTTG'
p1273
I16644
sS'ATCTTA'
p1274
I14659
sS'ATCTTC'
p1275
I13762
sS'AGGATC'
p1276
I4857
sS'AGGATA'
p1277
I6812
sS'AAACTA'
p1278
I5228
sS'AGGATG'
p1279
I12023
sS'GACATG'
p1280
I13767
sS'GACATC'
p1281
I10067
sS'GACATA'
p1282
I11127
sS'TCGGCG'
p1283
I1050
sS'GAATAT'
p1284
I1434
sS'TCGGCC'
p1285
I2852
sS'CATAGC'
p1286
I6852
sS'TTGCGA'
p1287
I771
sS'GACATT'
p1288
I7163
sS'TTGCGG'
p1289
I1737
sS'GAATAG'
p1290
I2825
sS'TCGGCT'
p1291
I831
sS'CATAGA'
p1292
I7604
sS'GAATAC'
p1293
I2542
sS'GCATCG'
p1294
I664
sS'ACTTTT'
p1295
I3233
sS'CGACAG'
p1296
I370
sS'TTAATT'
p1297
I1954
sS'GGACGA'
p1298
I400
sS'TGCCTC'
p1299
I19252
sS'GAAATG'
p1300
I13738
sS'AATGAT'
p1301
I3540
sS'TTTCTC'
p1302
I17467
sS'GAAATC'
p1303
I5449
sS'CGCATT'
p1304
I894
sS'GAAATT'
p1305
I1762
sS'AATGAA'
p1306
I13447
sS'ATGTCC'
p1307
I7851
sS'AATGAC'
p1308
I10492
sS'AATGAG'
p1309
I13132
sS'TGCACT'
p1310
I9793
sS'CTTGGC'
p1311
I6710
sS'GTATTG'
p1312
I5057
sS'GTCCTT'
p1313
I5569
sS'CTTGGG'
p1314
I7976
sS'ATACAG'
p1315
I1738
sS'CTTTTC'
p1316
I18596
sS'GCGTAA'
p1317
I370
sS'TTGAAT'
p1318
I2753
sS'GTCCTA'
p1319
I7720
sS'GTCCTC'
p1320
I13390
sS'TGCACG'
p1321
I3798
sS'TGCACA'
p1322
I16300
sS'GTCCTG'
p1323
I18087
sS'TGCACC'
p1324
I11633
sS'TTGAAA'
p1325
I6795
sS'AGCCCG'
p1326
I7061
sS'AGCCCA'
p1327
I16126
sS'AGCCCC'
p1328
I16927
sS'CTTATG'
p1329
I7095
sS'ATAAAT'
p1330
I2324
sS'TGGTCG'
p1331
I1272
sS'TGGTCA'
p1332
I8629
sS'TGGTCC'
p1333
I6908
sS'ACGATT'
p1334
I172
sS'GAGACT'
p1335
I9378
sS'GATTCA'
p1336
I20166
sS'TGGTCT'
p1337
I5719
sS'ATAAAG'
p1338
I4933
sS'ATAAAA'
p1339
I5515
sS'CTAAGC'
p1340
I3843
sS'ATAAAC'
p1341
I4151
sS'GAGACG'
p1342
I4816
sS'ACGGGA'
p1343
I958
sS'CTACAG'
p1344
I2043
sS'GAGACC'
p1345
I12686
sS'ACGATC'
p1346
I430
sS'GAGACA'
p1347
I17140
sS'ACGATA'
p1348
I578
sS'GGTTAC'
p1349
I3842
sS'ATGTGT'
p1350
I6416
sS'GGTTAA'
p1351
I5130
sS'ACCACT'
p1352
I6089
sS'GGTTAG'
p1353
I4350
sS'CTTCCT'
p1354
I8627
sS'TCCATT'
p1355
I4694
sS'CCAACA'
p1356
I3443
sS'TCCGCT'
p1357
I2427
sS'ACCACG'
p1358
I3407
sS'CTTCCC'
p1359
I15079
sS'ACCACC'
p1360
I10274
sS'CGTATG'
p1361
I1284
sS'CTTCCG'
p1362
I3590
sS'GGTTAT'
p1363
I1707
sS'TCCGCC'
p1364
I8577
sS'TCCGCA'
p1365
I3078
sS'TCCGCG'
p1366
I3255
sS'AACGTC'
p1367
I2365
sS'AACGTA'
p1368
I2432
sS'AACGTG'
p1369
I4303
sS'CGTGAC'
p1370
I2140
sS'GGTAGC'
p1371
I3588
sS'AGTGTG'
p1372
I12768
sS'TCTTCG'
p1373
I2257
sS'AGTGTA'
p1374
I7766
sS'TCTTCA'
p1375
I12691
sS'AGTGTC'
p1376
I6713
sS'TCTTCC'
p1377
I17160
sS'CGTGAT'
p1378
I499
sS'TAAGTC'
p1379
I3715
sS'TAAGTA'
p1380
I6384
sS'CAATTT'
p1381
I852
sS'TCTTCT'
p1382
I8039
sS'AGTGTT'
p1383
I2755
sS'GTGCGC'
p1384
I3434
sS'TTGGCA'
p1385
I9717
sS'AAAGGT'
p1386
I1744
sS'TTGGCC'
p1387
I10223
sS'GCTCGA'
p1388
I1115
sS'CTTATT'
p1389
I2869
sS'TTGGCG'
p1390
I1745
sS'GACTTC'
p1391
I18391
sS'TCGAGT'
p1392
I346
sS'GACTTA'
p1393
I14677
sS'GACTTG'
p1394
I19323
sS'ACGTAG'
p1395
I532
sS'AAAGGG'
p1396
I7230
sS'AAAGGA'
p1397
I7600
sS'TTGGCT'
p1398
I5379
sS'AAAGGC'
p1399
I5324
sS'GAGTAC'
p1400
I4183
sS'GACTTT'
p1401
I9965
sS'TTCTTT'
p1402
I21687
sS'CAAGAA'
p1403
I2205
sS'AGCGAG'
p1404
I4526
sS'CAAGAC'
p1405
I2171
sS'CAAGAG'
p1406
I2879
sS'CGTATT'
p1407
I436
sS'TTCTTG'
p1408
I28918
sS'TTCTTC'
p1409
I30316
sS'TTCTTA'
p1410
I28605
sS'CAAGAT'
p1411
I620
sS'AGTTCC'
p1412
I11794
sS'TACGGG'
p1413
I1772
sS'TACGGA'
p1414
I1433
sS'TACGGC'
p1415
I1531
sS'CCAACT'
p1416
I1729
sS'TAGAGT'
p1417
I4358
sS'TACGGT'
p1418
I830
sS'GAGTAT'
p1419
I2777
sS'CCCGAG'
p1420
I3632
sS'AGGGCA'
p1421
I11640
sS'AGGGCC'
p1422
I11359
sS'TAGAGC'
p1423
I6505
sS'TAGAGA'
p1424
I10456
sS'TAGAGG'
p1425
I9923
sS'GGCGAA'
p1426
I1581
sS'GTGCTG'
p1427
I22432
sS'CGGGGT'
p1428
I892
sS'GTGCTA'
p1429
I8426
sS'ATCTGT'
p1430
I7862
sS'GTGCTC'
p1431
I11369
sS'GCTCGT'
p1432
I560
sS'ATCTGA'
p1433
I12150
sS'GTGCTT'
p1434
I6275
sS'ATCTGC'
p1435
I11518
sS'TCGAGG'
p1436
I1294
sS'CGAATG'
p1437
I948
sS'ATCTGG'
p1438
I12137
sS'ATCATA'
p1439
I10440
sS'GATAGC'
p1440
I4601
sS'ATCATC'
p1441
I9153
sS'GATAGA'
p1442
I7340
sS'AAGCAA'
p1443
I9858
sS'GATAGG'
p1444
I6887
sS'AAGCAC'
p1445
I7393
sS'TTTACC'
p1446
I8368
sS'CATTTC'
p1447
I22678
sS'CTAGGT'
p1448
I989
sS'CATTTA'
p1449
I25371
sS'CATTTG'
p1450
I22656
sS'GTTATA'
p1451
I5905
sS'CAAACA'
p1452
I13235
sS'GGAGGA'
p1453
I3970
sS'CAAACC'
p1454
I6778
sS'GTGGCC'
p1455
I13203
sS'ATCATT'
p1456
I4579
sS'CAAACG'
p1457
I1244
sS'CTAGGG'
p1458
I3059
sS'GTTATT'
p1459
I2417
sS'CTAGGC'
p1460
I2293
sS'CATTTT'
p1461
I9418
sS'CTAGGA'
p1462
I2577
sS'AAGTTT'
p1463
I4078
sS'TACAGT'
p1464
I11451
sS'CTCGGC'
p1465
I6557
sS'GTATGG'
p1466
I3401
sS'GGGGCT'
p1467
I3936
sS'TACAGG'
p1468
I18386
sS'AAGTTG'
p1469
I9776
sS'AAGTTA'
p1470
I10930
sS'TACAGC'
p1471
I11785
sS'AAGTTC'
p1472
I8194
sS'TACAGA'
p1473
I15743
sS'GGGGCC'
p1474
I10839
sS'GTATGA'
p1475
I4217
sS'GGGGCA'
p1476
I7046
sS'GGGGCG'
p1477
I7357
sS'CCATGG'
p1478
I3478
sS'AGCGGT'
p1479
I1219
sS'TATATA'
p1480
I18015
sS'TATATG'
p1481
I11840
sS'ACATCG'
p1482
I527
sS'AGTTCT'
p1483
I8005
sS'TCCGGT'
p1484
I1234
sS'CTATTC'
p1485
I5023
sS'TATATT'
p1486
I6079
sS'TGATGG'
p1487
I3158
sS'CATATG'
p1488
I9728
sS'ATGAGT'
p1489
I4987
sS'AGGTCT'
p1490
I5539
sS'TGATGA'
p1491
I3555
sS'TGCCAT'
p1492
I3576
sS'CACATC'
p1493
I12572
sS'TGTTTC'
p1494
I18477
sS'CACATA'
p1495
I15549
sS'TCATAA'
p1496
I1917
sS'CACATG'
p1497
I17400
sS'TGTTTG'
p1498
I25199
sS'ATGAGA'
p1499
I7472
sS'ATGAGC'
p1500
I5914
sS'ATGAGG'
p1501
I8578
sS'TTAATA'
p1502
I8879
sS'ACTCTG'
p1503
I11209
sS'TTAATC'
p1504
I4280
sS'ACTCTA'
p1505
I5736
sS'TTTCAG'
p1506
I10238
sS'ACTCTC'
p1507
I6027
sS'TGCCAC'
p1508
I10056
sS'AAATTC'
p1509
I4685
sS'AAATTA'
p1510
I6933
sS'AAATTG'
p1511
I4839
sS'CCAGTA'
p1512
I2514
sS'TTCAAT'
p1513
I5457
sS'AGACCG'
p1514
I565
sS'AAATTT'
p1515
I1271
sS'TTCGAA'
p1516
I1079
sS'GGGAAC'
p1517
I4684
sS'GGTGCG'
p1518
I2451
sS'GGGAAA'
p1519
I6452
sS'GGGAAG'
p1520
I11031
sS'GGTGCC'
p1521
I5869
sS'TCGTCC'
p1522
I1800
sS'GGTGCA'
p1523
I5018
sS'AGAGCG'
p1524
I1847
sS'GCGACT'
p1525
I716
sS'AGAGCC'
p1526
I6657
sS'AGAGCA'
p1527
I6235
sS'GCGTAG'
p1528
I602
sS'GGTGCT'
p1529
I2713
sS'GCGTAC'
p1530
I387
sS'TAATTT'
p1531
I2012
sS'GGGAAT'
p1532
I1879
sS'GCGACG'
p1533
I1029
sS'AGAGCT'
p1534
I2687
sS'GCGACA'
p1535
I1118
sS'TATCGG'
p1536
I910
sS'GCGACC'
p1537
I1783
sS'TCCGGC'
p1538
I4116
sS'GCAGGA'
p1539
I2978
sS'CTAGCT'
p1540
I1847
sS'GCAGGC'
p1541
I2739
sS'GCAGGG'
p1542
I4612
sS'GCTCGC'
p1543
I3369
sS'GCACTA'
p1544
I1862
sS'CCGTGC'
p1545
I1885
sS'GCTCGG'
p1546
I4204
sS'TATTCT'
p1547
I12160
sS'CCGTGG'
p1548
I2365
sS'ACTTAC'
p1549
I3554
sS'AAATAC'
p1550
I3985
sS'GCAGGT'
p1551
I1030
sS'ACCCTA'
p1552
I5321
sS'TATTCC'
p1553
I12417
sS'GGCGAG'
p1554
I5037
sS'TATTCA'
p1555
I19875
sS'CAATTA'
p1556
I4054
sS'TATTCG'
p1557
I1735
sS'GGCGAC'
p1558
I2737
sS'TGTAGA'
p1559
I7401
sS'GGCTCA'
p1560
I17049
sS'TGTAGC'
p1561
I6122
sS'TTTACA'
p1562
I12814
sS'TTTACG'
p1563
I1515
sS'TGTAGG'
p1564
I7491
sS'GGCTCG'
p1565
I5906
sS'TTCGGA'
p1566
I1479
sS'TTCGGC'
p1567
I2138
sS'AAATAG'
p1568
I3565
sS'TTCAAG'
p1569
I13506
sS'TTCGGG'
p1570
I2823
sS'AGCATG'
p1571
I15159
sS'GGCTCT'
p1572
I11233
sS'AGCATC'
p1573
I10288
sS'TTTACT'
p1574
I7631
sS'AGCATA'
p1575
I10847
sS'AACCTT'
p1576
I5328
sS'TCTTGG'
p1577
I9846
sS'TTCGGT'
p1578
I794
sS'GTTTAT'
p1579
I4716
sS'CTCTCA'
p1580
I22122
sS'ATACAT'
p1581
I753
sS'CGCTAC'
p1582
I1867
sS'AGGCAT'
p1583
I2569
sS'GTTTAA'
p1584
I8433
sS'GAGGTG'
p1585
I16418
sS'CACGAA'
p1586
I1610
sS'CGAATT'
p1587
I163
sS'GTTTAG'
p1588
I6095
sS'TCTTTT'
p1589
I6668
sS'TCCAGA'
p1590
I12531
sS'CTGGCT'
p1591
I6991
sS'AGGCGG'
p1592
I7903
sS'AGGCGA'
p1593
I2256
sS'AGGCGC'
p1594
I4467
sS'AGGAGT'
p1595
I5115
sS'ACAGCC'
p1596
I4166
sS'ACAGCA'
p1597
I4372
sS'GAGGTC'
p1598
I7944
sS'ACAGCG'
p1599
I969
sS'AGGAGC'
p1600
I10576
sS'GTCGGA'
p1601
I1492
sS'AGGAGA'
p1602
I12545
sS'CTGGCG'
p1603
I3471
sS'AGGAGG'
p1604
I22688
sS'CTGGCA'
p1605
I12736
sS'GTCGGG'
p1606
I3843
sS'ACCGGT'
p1607
I432
sS'GGAAAA'
p1608
I3246
sS'AACGCT'
p1609
I2247
sS'AATTTT'
p1610
I5380
sS'TGTCAA'
p1611
I6615
sS'TGTCAC'
p1612
I8178
sS'CCCTCT'
p1613
I11590
sS'GGAAAC'
p1614
I3393
sS'AAACAA'
p1615
I5549
sS'AACGCG'
p1616
I1817
sS'AATTTA'
p1617
I19107
sS'AATTTC'
p1618
I12119
sS'AACGCC'
p1619
I3668
sS'AACGCA'
p1620
I3073
sS'AATTTG'
p1621
I15157
sS'CCCTCA'
p1622
I14531
sS'CCCTCC'
p1623
I31434
sS'TGTCAT'
p1624
I4081
sS'CCCTCG'
p1625
I5598
sS'ACCGAT'
p1626
I215
sS'TCCAGT'
p1627
I7016
sS'CACGAT'
p1628
I599
sS'GGAAAG'
p1629
I5030
sS'TGACCA'
p1630
I1864
sS'CATTCT'
p1631
I14102
sS'TAAATC'
p1632
I5352
sS'TGACCG'
p1633
I358
sS'ATGGTT'
p1634
I1405
sS'GCGCCA'
p1635
I2128
sS'NGATCC'
p1636
I1
sS'CATTCG'
p1637
I2601
sS'TGACCT'
p1638
I1092
sS'CATTCA'
p1639
I21380
sS'GCAATT'
p1640
I824
sS'ACGAAA'
p1641
I472
sS'TAAATG'
p1642
I12042
sS'ACAAAT'
p1643
I1464
sS'GATTAA'
p1644
I10432
sS'GTAGGC'
p1645
I1679
sS'GATTAC'
p1646
I10644
sS'CTGACA'
p1647
I9579
sS'GTAGGG'
p1648
I2968
sS'GATTAG'
p1649
I7256
sS'GCGGGT'
p1650
I626
sS'ACAAAC'
p1651
I3103
sS'TTTCAA'
p1652
I8763
sS'ACAAAA'
p1653
I3310
sS'ACAAAG'
p1654
I3832
sS'GCGGGC'
p1655
I3831
sS'GTCGGT'
p1656
I729
sS'GCGGGA'
p1657
I2698
sS'GCGGGG'
p1658
I8259
sS'GATTAT'
p1659
I4977
sS'GTAGGT'
p1660
I966
sS'GGCGTC'
p1661
I3993
sS'AAGGTT'
p1662
I2449
sS'GATGTT'
p1663
I4170
sS'TAATGC'
p1664
I4394
sS'GGAGAT'
p1665
I466
sS'GCCCTT'
p1666
I4266
sS'GCGCCG'
p1667
I2620
sS'CAATAA'
p1668
I2339
sS'GCCCTC'
p1669
I14860
sS'GATGTG'
p1670
I14510
sS'GCCCTA'
p1671
I6738
sS'GATGTA'
p1672
I8452
sS'GCCCTG'
p1673
I21240
sS'GATGTC'
p1674
I7809
sS'AACCTC'
p1675
I12015
sS'TTCAAC'
p1676
I9808
sS'NNTATA'
p1677
I1
sS'TTCTAG'
p1678
I12688
sS'TTCTAA'
p1679
I16425
sS'ATCCGT'
p1680
I735
sS'TTCTAC'
p1681
I10459
sS'GAATGT'
p1682
I4653
sS'TTGGAT'
p1683
I982
sS'TGAAAC'
p1684
I3533
sS'TGAAAG'
p1685
I4714
sS'TTCTAT'
p1686
I7353
sS'ATCCGC'
p1687
I2262
sS'ATCCGA'
p1688
I1108
sS'ATCCGG'
p1689
I2303
sS'TGGCTC'
p1690
I12641
sS'TAACAA'
p1691
I2762
sS'TGGCTA'
p1692
I7777
sS'TGGCTG'
p1693
I18569
sS'GGGTGA'
p1694
I6516
sS'AGTTGT'
p1695
I5368
sS'AGCTAT'
p1696
I4595
sS'ATTAGT'
p1697
I2707
sS'GTCGGC'
p1698
I2637
sS'CGTCGA'
p1699
I537
sS'TGGCTT'
p1700
I4578
sS'AGTTGG'
p1701
I8726
sS'AGCTAA'
p1702
I10419
sS'AGCTAC'
p1703
I8537
sS'AGTTGC'
p1704
I7434
sS'AGTTGA'
p1705
I8364
sS'AGCTAG'
p1706
I8412
sS'CGTTGA'
p1707
I1640
sS'CTAATT'
p1708
I1424
sS'CAGTGT'
p1709
I7249
sS'AGTCAG'
p1710
I13324
sS'TCAGGT'
p1711
I903
sS'TCAAGG'
p1712
I4040
sS'CTGGCC'
p1713
I16391
sS'TCAAGC'
p1714
I2430
sS'TCAAGA'
p1715
I3057
sS'GCACCA'
p1716
I1804
sS'CAGTGC'
p1717
I10901
sS'CTAATC'
p1718
I3043
sS'CAGTGA'
p1719
I13424
sS'CAGTGG'
p1720
I13786
sS'CTAATG'
p1721
I6030
sS'TCAAGT'
p1722
I1826
sS'TCAGGG'
p1723
I2998
sS'GAGCCC'
p1724
I16899
sS'TCAGGC'
p1725
I2108
sS'CGAGCT'
p1726
I553
sS'TCCTAA'
p1727
I9002
sS'CAACCA'
p1728
I2447
sS'TAACAG'
p1729
I2811
sS'TTCCCT'
p1730
I14704
sS'CGAGCG'
p1731
I961
sS'GTTAGT'
p1732
I2804
sS'CGAGCA'
p1733
I994
sS'CGCAGC'
p1734
I8953
sS'CGAGCC'
p1735
I2108
sS'GTTCAG'
p1736
I6094
sS'TTCCCC'
p1737
I20025
sS'ACAGCT'
p1738
I1756
sS'GTTCAC'
p1739
I4103
sS'TTCCCG'
p1740
I6021
sS'TGAGCA'
p1741
I5001
sS'GGACCT'
p1742
I623
sS'CTTACT'
p1743
I4967
sS'TACATG'
p1744
I13947
sS'AAGTAC'
p1745
I4785
sS'AAGTAA'
p1746
I7977
sS'TACATC'
p1747
I8480
sS'AAGTAG'
p1748
I5969
sS'TACATA'
p1749
I17296
sS'GCACAC'
p1750
I1197
sS'GGACCG'
p1751
I483
sS'ATTGGT'
p1752
I1422
sS'GGACCA'
p1753
I1096
sS'TCATCA'
p1754
I5808
sS'GGACCC'
p1755
I1257
sS'CACACG'
p1756
I5437
sS'TACATT'
p1757
I9000
sS'CACACC'
p1758
I19342
sS'GCACAA'
p1759
I941
sS'CACACA'
p1760
I36829
sS'TCTGCC'
p1761
I9948
sS'TCTGCA'
p1762
I8856
sS'TCTGCG'
p1763
I2464
sS'TTTCGA'
p1764
I1039
sS'CGCTAT'
p1765
I703
sS'CCCGTC'
p1766
I3605
sS'TTAAGG'
p1767
I5796
sS'CCCGTA'
p1768
I1537
sS'TTAAGA'
p1769
I6193
sS'CCCGTG'
p1770
I4164
sS'TTAAGC'
p1771
I3914
sS'ACGCAC'
p1772
I669
sS'TAGATC'
p1773
I3970
sS'AAACAG'
p1774
I4948
sS'TAGATA'
p1775
I7483
sS'TTTCGC'
p1776
I1457
sS'TAGATG'
p1777
I8846
sS'TCTGCT'
p1778
I4228
sS'TTACGC'
p1779
I387
sS'TTAAGT'
p1780
I3521
sS'TTACGA'
p1781
I407
sS'TTACGG'
p1782
I566
sS'CCCGTT'
p1783
I686
sS'AGTGAC'
p1784
I8148
sS'AGTGAA'
p1785
I7118
sS'GCTAGT'
p1786
I1504
sS'AGTGAG'
p1787
I11281
sS'GCGGTC'
p1788
I1465
sS'CGGGCG'
p1789
I3912
sS'AAACAC'
p1790
I3456
sS'TAAGAG'
p1791
I3768
sS'CGGGCC'
p1792
I7110
sS'TAAGAA'
p1793
I3484
sS'CGGGCA'
p1794
I3406
sS'TAAGAC'
p1795
I2624
sS'TGTCAG'
p1796
I9752
sS'AGTGAT'
p1797
I2378
sS'TAAGAT'
p1798
I1065
sS'CCTGAA'
p1799
I3475
sS'CGGGCT'
p1800
I2070
sS'CCTGAG'
p1801
I6705
sS'GTTAGG'
p1802
I5492
sS'GCCAAC'
p1803
I5892
sS'TCATCT'
p1804
I3812
sS'TATGAT'
p1805
I3146
sS'GTTAGA'
p1806
I4903
sS'ACCCCC'
p1807
I5576
sS'TGAATT'
p1808
I1571
sS'TATACG'
p1809
I1342
sS'AGGTAC'
p1810
I2613
sS'TATACC'
p1811
I6792
sS'TATACA'
p1812
I12397
sS'ATTGGC'
p1813
I3828
sS'TCTTGT'
p1814
I4258
sS'ACTAGT'
p1815
I1507
sS'TTTATT'
p1816
I5859
sS'GTAATA'
p1817
I6299
sS'ATTGGA'
p1818
I2899
sS'GTAATC'
p1819
I3695
sS'TCTAAC'
p1820
I3467
sS'CGTTCT'
p1821
I1856
sS'TCTAAA'
p1822
I5223
sS'CGGATC'
p1823
I1235
sS'CCACCA'
p1824
I2137
sS'CCACCC'
p1825
I3505
sS'ATTACT'
p1826
I4251
sS'TTTATG'
p1827
I12905
sS'ACTAGG'
p1828
I4050
sS'GTAACG'
p1829
I873
sS'TTTATC'
p1830
I7920
sS'ACTAGC'
p1831
I2513
sS'TTTATA'
p1832
I15199
sS'ACTAGA'
p1833
I3969
sS'CCACCT'
p1834
I1509
sS'CGTTCG'
p1835
I1017
sS'TCGTTG'
p1836
I1262
sS'CGTTCA'
p1837
I2446
sS'CGTTCC'
p1838
I3609
sS'TCTAAT'
p1839
I1653
sS'CTTTGT'
p1840
I8897
sS'ACTGGG'
p1841
I5924
sS'ACTGGA'
p1842
I4063
sS'ACTGGC'
p1843
I3719
sS'TAGTCC'
p1844
I7080
sS'GTGACC'
p1845
I9227
sS'TAGTCA'
p1846
I14915
sS'GTGACA'
p1847
I10879
sS'TAGTCG'
p1848
I1009
sS'GTGACG'
p1849
I2921
sS'ATTTAG'
p1850
I5564
sS'ACTGGT'
p1851
I1202
sS'CTTTGG'
p1852
I14504
sS'CCTATG'
p1853
I4943
sS'CTTTGC'
p1854
I13304
sS'CTTTGA'
p1855
I12586
sS'GTGACT'
p1856
I10378
sS'TAGTCT'
p1857
I6075
sS'GTGCAC'
p1858
I5448
sS'GCGCTT'
p1859
I589
sS'ACCTAG'
p1860
I5192
sS'CGACGA'
p1861
I168
sS'ACCTAA'
p1862
I5457
sS'CGACGC'
p1863
I444
sS'ACCTAC'
p1864
I4530
sS'CCGCAG'
p1865
I1563
sS'CCGCAA'
p1866
I398
sS'ATTGTG'
p1867
I7675
sS'CCGCAC'
p1868
I877
sS'GGGACT'
p1869
I4545
sS'CGAAGC'
p1870
I1212
sS'GCGCTG'
p1871
I5139
sS'CGAAGA'
p1872
I872
sS'CCCCGT'
p1873
I1312
sS'CGAAGG'
p1874
I1698
sS'GCGCTC'
p1875
I3661
sS'GTGCAT'
p1876
I2646
sS'GCGCTA'
p1877
I1149
sS'CCGCAT'
p1878
I169
sS'ATTACC'
p1879
I4489
sS'GAAGAT'
p1880
I1142
sS'GGATCT'
p1881
I1123
sS'TCATGA'
p1882
I3373
sS'ACTTGG'
p1883
I6966
sS'TCGGAC'
p1884
I409
sS'GAATCT'
p1885
I3563
sS'TCGGAG'
p1886
I831
sS'GGATCG'
p1887
I428
sS'GAAGAG'
p1888
I7274
sS'GGTATA'
p1889
I3904
sS'GAAGAA'
p1890
I5351
sS'GGATCC'
p1891
I2535
sS'GAAGAC'
p1892
I4068
sS'GGATCA'
p1893
I2009
sS'GAATCA'
p1894
I9845
sS'GAATCC'
p1895
I5673
sS'TCGGAT'
p1896
I100
sS'GAATCG'
p1897
I1046
sS'ATGGTC'
p1898
I2924
sS'CAGATG'
p1899
I12507
sS'ACGCCG'
p1900
I837
sS'TGACCC'
p1901
I1653
sS'ATGGTG'
p1902
I7155
sS'CAGATC'
p1903
I5575
sS'ACGCCC'
p1904
I2339
sS'CAGATA'
p1905
I8050
sS'GGGTAT'
p1906
I864
sS'TAGACT'
p1907
I4940
sS'ACGCCT'
p1908
I765
sS'CAGATT'
p1909
I2104
sS'TGATTA'
p1910
I4606
sS'CTCGAC'
p1911
I1416
sS'CTCGAA'
p1912
I1268
sS'TCGCAA'
p1913
I276
sS'TTGCGC'
p1914
I1350
sS'TGCGTC'
p1915
I3059
sS'TTGTAG'
p1916
I4796
sS'AATGGT'
p1917
I3283
sS'ATGATA'
p1918
I6596
sS'ACGTGT'
p1919
I817
sS'AATGGC'
p1920
I6864
sS'AATGGA'
p1921
I8778
sS'AATGGG'
p1922
I8903
sS'CAATAC'
p1923
I1466
sS'CACTCT'
p1924
I13498
sS'AATAGA'
p1925
I10704
sS'ACAATA'
p1926
I4779
sS'AATAGC'
p1927
I7754
sS'TTACAT'
p1928
I913
sS'ATTTAC'
p1929
I7220
sS'GTGAAT'
p1930
I2629
sS'AGCCAG'
p1931
I17418
sS'GGAGGG'
p1932
I6339
sS'AAAAGT'
p1933
I3917
sS'AGCCAC'
p1934
I14802
sS'GGAGGC'
p1935
I3666
sS'TGGTAG'
p1936
I3410
sS'CATTCC'
p1937
I21017
sS'GAGTGT'
p1938
I7068
sS'TGGTAC'
p1939
I2280
sS'GAGGTA'
p1940
I8498
sS'TGGTAA'
p1941
I3544
sS'AAAAGG'
p1942
I11135
sS'GGAGGT'
p1943
I1085
sS'AGCCAT'
p1944
I4191
sS'AAAAGC'
p1945
I7798
sS'AAAAGA'
p1946
I12098
sS'TCTATA'
p1947
I5938
sS'GAGTGG'
p1948
I14304
sS'CGCCAG'
p1949
I5019
sS'TGGTAT'
p1950
I2056
sS'CGCCAA'
p1951
I2166
sS'GAGTGC'
p1952
I10078
sS'CGCCAC'
p1953
I4745
sS'GAGTGA'
p1954
I14551
sS'GCCAGG'
p1955
I22268
sS'GCCAGA'
p1956
I11408
sS'GCCAGC'
p1957
I14410
sS'GCCCGT'
p1958
I1444
sS'CAATCC'
p1959
I3769
sS'TACCGA'
p1960
I1374
sS'TACCGC'
p1961
I2133
sS'TACCGG'
p1962
I1892
sS'GCCCGC'
p1963
I10470
sS'GCCAGT'
p1964
I5609
sS'GCCCGA'
p1965
I3266
sS'GCCCGG'
p1966
I10812
sS'ATTTAA'
p1967
I9528
sS'CTTCAA'
p1968
I5973
sS'CTTCAG'
p1969
I9234
sS'TCCGAG'
p1970
I2415
sS'TCCGAA'
p1971
I1012
sS'TCCGAC'
p1972
I1326
sS'AATTCA'
p1973
I15866
sS'TAGCGA'
p1974
I962
sS'AATTCC'
p1975
I14263
sS'ATTAGG'
p1976
I4638
sS'AATTCG'
p1977
I1780
sS'TCCGAT'
p1978
I322
sS'TAGCGG'
p1979
I1673
sS'AATTCT'
p1980
I10130
sS'TAGCGC'
p1981
I1487
sS'GTCATC'
p1982
I12347
sS'GTCATA'
p1983
I12078
sS'GTAGGA'
p1984
I2225
sS'GAGTAG'
p1985
I6677
sS'AGCAGG'
p1986
I24800
sS'CCAGGT'
p1987
I965
sS'TTGGAA'
p1988
I3987
sS'TTNNTA'
p1989
I1
sS'AGCAGC'
p1990
I21964
sS'AGCAGA'
p1991
I18400
sS'GGATGC'
p1992
I1787
sS'CCAGGG'
p1993
I3607
sS'AGCAGT'
p1994
I10128
sS'CCAGGA'
p1995
I2494
sS'CCAGGC'
p1996
I2923
sS'TGTTGA'
p1997
I11992
sS'ATAGAG'
p1998
I1631
sS'CATCTG'
p1999
I18551
sS'ACGGTC'
p2000
I742
sS'CATCTA'
p2001
I10982
sS'GATCGA'
p2002
I1148
sS'CATCTC'
p2003
I14898
sS'ACGGTG'
p2004
I1615
sS'ATTAGA'
p2005
I5300
sS'GGGGTC'
p2006
I2524
sS'CAAGCC'
p2007
I5655
sS'CATCTT'
p2008
I5517
sS'CAAGCA'
p2009
I5529
sS'CAAGCG'
p2010
I1146
sS'ACTCGA'
p2011
I859
sS'GTTCTT'
p2012
I2894
sS'ACATGA'
p2013
I2995
sS'CGTAAT'
p2014
I410
sS'ACATGC'
p2015
I2572
sS'ACATGG'
p2016
I2995
sS'CCCGCT'
p2017
I3276
sS'GTACAT'
p2018
I586
sS'GGCCAT'
p2019
I2055
sS'CGTAAG'
p2020
I1362
sS'GTTCTG'
p2021
I12140
sS'ACATGT'
p2022
I1764
sS'CGTAAC'
p2023
I989
sS'CGTAAA'
p2024
I1227
sS'CCCGCG'
p2025
I6053
sS'ACGGAA'
p2026
I565
sS'TTATTT'
p2027
I4754
sS'CCCGCC'
p2028
I21457
sS'CCCGCA'
p2029
I4807
sS'GAGTCG'
p2030
I3461
sS'TGTTGT'
p2031
I7471
sS'GTTGTT'
p2032
I1880
sS'ATTAGC'
p2033
I3741
sS'ATCCTT'
p2034
I4209
sS'TTGTCG'
p2035
I1310
sS'TTGTCC'
p2036
I10674
sS'CCGTGA'
p2037
I1232
sS'TTGTCA'
p2038
I12257
sS'ATCCTC'
p2039
I10510
sS'GTTGTA'
p2040
I5788
sS'ATCCTA'
p2041
I7944
sS'GTTGTC'
p2042
I4251
sS'ATCCTG'
p2043
I14520
sS'GTTGTG'
p2044
I7680
sS'TTGTCT'
p2045
I9568
sS'CTATGC'
p2046
I3636
sS'TGACTA'
p2047
I4474
sS'TGGGCC'
p2048
I9617
sS'TGACTC'
p2049
I5460
sS'TGGGCA'
p2050
I9813
sS'TGGGCG'
p2051
I3692
sS'TGACTG'
p2052
I4655
sS'AAGCCG'
p2053
I3444
sS'AAGCCC'
p2054
I11580
sS'AAGCCA'
p2055
I14338
sS'CAAAAT'
p2056
I1490
sS'ACGCGG'
p2057
I1110
sS'TGGGCT'
p2058
I4724
sS'CAAAAC'
p2059
I4323
sS'CAAAAA'
p2060
I3962
sS'AAGCCT'
p2061
I7383
sS'CAAAAG'
p2062
I5227
sS'TGATTT'
p2063
I1246
sS'TCAATG'
p2064
I4247
sS'AAACTT'
p2065
I1247
sS'TCAATC'
p2066
I1930
sS'CGTCGT'
p2067
I492
sS'CAGTTC'
p2068
I9834
sS'GACCCG'
p2069
I5446
sS'GACCCA'
p2070
I12327
sS'GACCCC'
p2071
I10754
sS'CTCTGT'
p2072
I16908
sS'TAATGA'
p2073
I5844
sS'TCAATT'
p2074
I898
sS'TGGCGT'
p2075
I802
sS'CTCTGC'
p2076
I30156
sS'GACCCT'
p2077
I6897
sS'CTCTGA'
p2078
I22828
sS'ACAATC'
p2079
I2104
sS'CTCTGG'
p2080
I27586
sS'CAGTTT'
p2081
I4208
sS'GCGAAG'
p2082
I1188
sS'ACGTTC'
p2083
I1230
sS'TGCTGG'
p2084
I25552
sS'GCGAAC'
p2085
I583
sS'GAGTCT'
p2086
I9453
sS'TGCTGC'
p2087
I22557
sS'TAGGGA'
p2088
I5969
sS'GCTGGT'
p2089
I2034
sS'GTGATT'
p2090
I3096
sS'ACGTTA'
p2091
I1234
sS'TGCTGT'
p2092
I13838
sS'TAGGGC'
p2093
I4903
sS'TAATGG'
p2094
I4764
sS'GTGATG'
p2095
I10626
sS'GCTGGG'
p2096
I14102
sS'GTGATC'
p2097
I5093
sS'GCTGGC'
p2098
I6614
sS'GTGATA'
p2099
I6337
sS'GCTGGA'
p2100
I6031
sS'TGATAA'
p2101
I1392
sS'TGTAGT'
p2102
I4990
sS'TGATAC'
p2103
I1117
sS'TGATAG'
p2104
I1120
sS'CTTGTT'
p2105
I2747
sS'GACGGT'
p2106
I1548
sS'GCTAGG'
p2107
I5117
sS'GCTAGA'
p2108
I3662
sS'ATGAAT'
p2109
I3159
sS'GCTAGC'
p2110
I2608
sS'AAGGGT'
p2111
I3116
sS'TGATAT'
p2112
I769
sS'GAGGTT'
p2113
I3300
sS'TTTGGT'
p2114
I2505
sS'ATGAAC'
p2115
I3947
sS'GACGGG'
p2116
I6040
sS'CTTGTG'
p2117
I10809
sS'GACGGA'
p2118
I3400
sS'CTTGTA'
p2119
I7546
sS'GACGGC'
p2120
I4689
sS'CTTGTC'
p2121
I6416
sS'GCACTT'
p2122
I645
sS'CTACTT'
p2123
I1137
sS'TGNTNT'
p2124
I1
sS'CCATAG'
p2125
I1109
sS'GGTGAA'
p2126
I4094
sS'GGTGAC'
p2127
I5862
sS'GCGTCT'
p2128
I1501
sS'TGTAAA'
p2129
I11817
sS'GGTGAG'
p2130
I8159
sS'GGAATG'
p2131
I7094
sS'CGTCCT'
p2132
I1615
sS'GGAATC'
p2133
I2584
sS'GGAATA'
p2134
I3393
sS'GCGTCA'
p2135
I1983
sS'GTTATG'
p2136
I6298
sS'GCGTCC'
p2137
I3960
sS'GGTGAT'
p2138
I1362
sS'GCGTCG'
p2139
I1148
sS'CGTCCG'
p2140
I1666
sS'GGAATT'
p2141
I1064
sS'CGTCCC'
p2142
I4384
sS'CGTCCA'
p2143
I2080
sS'CCGTAT'
p2144
I178
sS'GCCGTG'
p2145
I4919
sS'GAAGTA'
p2146
I6072
sS'GCCGTC'
p2147
I3116
sS'GCCGTA'
p2148
I1544
sS'CCGTAC'
p2149
I382
sS'CCGTAA'
p2150
I341
sS'CCGTAG'
p2151
I574
sS'CTAACA'
p2152
I5629
sS'TGAAAT'
p2153
I2005
sS'GCCGTT'
p2154
I764
sS'TTGGTG'
p2155
I8454
sS'GAAGTT'
p2156
I1533
sS'GGCGCG'
p2157
I7757
sS'ATGCCC'
p2158
I7847
sS'TTAGTT'
p2159
I1151
sS'GCACTC'
p2160
I2212
sS'GGCGCC'
p2161
I10571
sS'ATGCCG'
p2162
I1667
sS'GGCGCA'
p2163
I4868
sS'TATTAC'
p2164
I9625
sS'ACTATG'
p2165
I5378
sS'CCATAT'
p2166
I695
sS'TTTAAG'
p2167
I10678
sS'ACTATC'
p2168
I2387
sS'TTTAAA'
p2169
I18415
sS'ACTATA'
p2170
I4722
sS'TTTAAC'
p2171
I7820
sS'TATTAT'
p2172
I8116
sS'TTAGTG'
p2173
I4569
sS'GGCGCT'
p2174
I3667
sS'TTAGTC'
p2175
I3918
sS'ATGCCT'
p2176
I6493
sS'TTAGTA'
p2177
I4591
sS'TTTAAT'
p2178
I4389
sS'ATGTGC'
p2179
I6633
sS'GCACTG'
p2180
I4331
sS'GGANTG'
p2181
I1
sS'GGGCAT'
p2182
I1175
sS'TTTCCG'
p2183
I2201
sS'TTTCCA'
p2184
I11002
sS'TTTCCC'
p2185
I12363
sS'GTACGT'
p2186
I255
sS'TATCGA'
p2187
I813
sS'GTTTGT'
p2188
I8974
sS'TTTCCT'
p2189
I8108
sS'GGGCAG'
p2190
I8177
sS'GTCTGT'
p2191
I10099
sS'GGGCAA'
p2192
I3141
sS'GGGCAC'
p2193
I3916
sS'GTTTGC'
p2194
I10939
sS'GTTTGA'
p2195
I9363
sS'GTTTGG'
p2196
I10482
sS'GTACGA'
p2197
I284
sS'CCGCTC'
p2198
I3036
sS'GCATGT'
p2199
I1880
sS'CCGCTA'
p2200
I1129
sS'CCGCTG'
p2201
I3827
sS'TGAAAA'
p2202
I3731
sS'GCGCGG'
p2203
I4168
sS'GCGCGC'
p2204
I3827
sS'GCGCGA'
p2205
I1038
sS'GCATGG'
p2206
I3267
sS'TGGATC'
p2207
I3792
sS'GCATGC'
p2208
I2792
sS'CCGCTT'
p2209
I546
sS'GCATGA'
p2210
I3024
sS'GTCGAC'
p2211
I800
sS'GCGCGT'
p2212
I524
sS'GTCGAG'
p2213
I1403
sS'AGACAT'
p2214
I725
sS'GAGCTA'
p2215
I9386
sS'TGCGCT'
p2216
I2467
sS'GAGCTC'
p2217
I13786
sS'ATTGAT'
p2218
I830
sS'GAGCTG'
p2219
I24181
sS'AAACGA'
p2220
I965
sS'AAACGC'
p2221
I1189
sS'GTAACA'
p2222
I5669
sS'GTAGTA'
p2223
I3195
sS'AAACGG'
p2224
I1139
sS'TGTCCC'
p2225
I9041
sS'TGCGCG'
p2226
I3735
sS'TGTCCA'
p2227
I8433
sS'GAGCTT'
p2228
I4778
sS'TGCGCC'
p2229
I5742
sS'ATTGAG'
p2230
I3431
sS'TGCGCA'
p2231
I3814
sS'TAGTGG'
p2232
I8022
sS'CGTTAT'
p2233
I504
sS'AAACGT'
p2234
I533
sS'ATTTCG'
p2235
I1210
sS'ATTTCA'
p2236
I13237
sS'ATTTCC'
p2237
I12567
sS'ATCAGT'
p2238
I5017
sS'ATCGGG'
p2239
I1215
sS'CATAGT'
p2240
I4680
sS'AAATCA'
p2241
I7247
sS'ATCGGC'
p2242
I1027
sS'ATCGGA'
p2243
I827
sS'TGGGTG'
p2244
I10647
sS'CGATCA'
p2245
I416
sS'TGGGTC'
p2246
I4513
sS'TGGGTA'
p2247
I5431
sS'CATAGG'
p2248
I7309
sS'ATCGGT'
p2249
I363
sS'ATCAGG'
p2250
I9605
sS'ATCAGA'
p2251
I10049
sS'ATCAGC'
p2252
I8577
sS'ACGGGT'
p2253
I233
sS'CCTGGT'
p2254
I1818
sS'ATTCGG'
p2255
I962
sS'GATTCT'
p2256
I10395
sS'CTTTTG'
p2257
I19346
sS'TACTAG'
p2258
I7257
sS'ACAGTG'
p2259
I5216
sS'TACTAA'
p2260
I11822
sS'TACTAC'
p2261
I7364
sS'GATTCC'
p2262
I12831
sS'ACGGGG'
p2263
I1600
sS'GATTCG'
p2264
I2426
sS'ACGGGC'
p2265
I966
sS'TACTAT'
p2266
I6425
sS'CTTTTT'
p2267
I6395
sS'CGTAGA'
p2268
I1190
sS'TCACGA'
p2269
I312
sS'TCACGC'
p2270
I640
sS'CGATTG'
p2271
I758
sS'TCACGG'
p2272
I663
sS'TCTCAT'
p2273
I2167
sS'TCACGT'
p2274
I301
sS'TTCCAC'
p2275
I10506
sS'TTCCAA'
p2276
I11394
sS'TTCCAG'
p2277
I16353
sS'GTTTCA'
p2278
I12893
sS'ACCCTT'
p2279
I2636
sS'TGAAGT'
p2280
I2935
sS'CCACAT'
p2281
I545
sS'TTCCAT'
p2282
I4916
sS'TGAAGC'
p2283
I4435
sS'ACCCTC'
p2284
I8346
sS'TGAAGG'
p2285
I6634
sS'ACCCTG'
p2286
I11405
sS'CTGACT'
p2287
I8528
sS'CCCCTT'
p2288
I3698
sS'AGTTAT'
p2289
I3169
sS'ACATAT'
p2290
I929
sS'CTGACG'
p2291
I2477
sS'CTGACC'
p2292
I10482
sS'TCCTCT'
p2293
I16244
sS'AGTTAA'
p2294
I8056
sS'CCCCTG'
p2295
I13503
sS'AGTTAC'
p2296
I5981
sS'CCCCTC'
p2297
I15314
sS'AGTTAG'
p2298
I6048
sS'CCCCTA'
p2299
I6478
sS'ACACAG'
p2300
I2096
sS'ACACAA'
p2301
I1404
sS'ACACAC'
p2302
I2477
sS'AATGTT'
p2303
I5175
sS'CTGCAG'
p2304
I13343
sS'CATGGG'
p2305
I8084
sS'CTGCAC'
p2306
I8021
sS'CATGGC'
p2307
I7220
sS'AATGTC'
p2308
I9316
sS'ACACAT'
p2309
I766
sS'AATGTA'
p2310
I14044
sS'AATGTG'
p2311
I16535
sS'CATGGT'
p2312
I3198
sS'CTGCAT'
p2313
I3291
sS'GCACAG'
p2314
I1875
sS'CGATTC'
p2315
I558
sS'CCACAG'
p2316
I1744
sS'ATGTTC'
p2317
I7571
sS'CGAGAT'
p2318
I122
sS'GTTCGT'
p2319
I516
sS'CACAAT'
p2320
I5483
sS'ACATTG'
p2321
I4552
sS'GTACCA'
p2322
I1818
sS'ACATTA'
p2323
I4994
sS'ACATTC'
p2324
I4757
sS'GTTCGA'
p2325
I812
sS'CCACAC'
p2326
I1200
sS'GTTCGC'
p2327
I1289
sS'CGAGAC'
p2328
I513
sS'GTTCGG'
p2329
I1581
sS'AAGTCT'
p2330
I7928
sS'GCTATT'
p2331
I1375
sS'GGACAT'
p2332
I308
sS'CAGCGT'
p2333
I1245
sS'GCTATA'
p2334
I4313
sS'GCTATC'
p2335
I2190
sS'AAGTCG'
p2336
I1952
sS'AACCTA'
p2337
I9271
sS'AAGTCA'
p2338
I15378
sS'GCTATG'
p2339
I5379
sS'AAGTCC'
p2340
I10641
sS'GGACAG'
p2341
I1377
sS'GGACAC'
p2342
I816
sS'GGACAA'
p2343
I745
sS'GCACCT'
p2344
I1028
sS'AGGGTT'
p2345
I1860
sS'GAGGCG'
p2346
I10610
sS'TGTTGG'
p2347
I11092
sS'GAGGCA'
p2348
I19481
sS'AGCGCT'
p2349
I3257
sS'GAGGCC'
p2350
I21504
sS'TGTTGC'
p2351
I10227
sS'CAATGT'
p2352
I2124
sS'TAAAAT'
p2353
I3643
sS'ACTCGC'
p2354
I1525
sS'ACTCGG'
p2355
I1957
sS'AGCGCA'
p2356
I4014
sS'GAGGCT'
p2357
I11539
sS'AGCGCC'
p2358
I8215
sS'AGGGTG'
p2359
I10058
sS'AGGGTA'
p2360
I4829
sS'AGCGCG'
p2361
I4978
sS'AGGGTC'
p2362
I3690
sS'TAAAAG'
p2363
I7762
sS'ACTCGT'
p2364
I387
sS'TAAAAC'
p2365
I6345
sS'TAAAAA'
p2366
I7587
sS'CTACTC'
p2367
I3246
sS'AGCTGC'
p2368
I21817
sS'CTACTA'
p2369
I3300
sS'AGCTGA'
p2370
I18662
sS'CTACTG'
p2371
I4861
sS'AGCTGG'
p2372
I24550
sS'TAGGGG'
p2373
I5765
sS'AGTGCG'
p2374
I2281
sS'AGTGCA'
p2375
I8325
sS'AGAGTT'
p2376
I1109
sS'AGTGCC'
p2377
I8275
sS'CCAAAA'
p2378
I1544
sS'TAGGGT'
p2379
I2131
sS'GCATAG'
p2380
I1149
sS'AGCTGT'
p2381
I12265
sS'ACGTTT'
p2382
I547
sS'AGTGCT'
p2383
I5252
sS'AGAGTC'
p2384
I3276
sS'AGAGTA'
p2385
I3932
sS'AGAGTG'
p2386
I5679
sS'TTCGTA'
p2387
I1698
sS'GTTAAA'
p2388
I6890
sS'CCTGGC'
p2389
I7494
sS'GTTAAC'
p2390
I4131
sS'CCTGGA'
p2391
I5555
sS'CCTGGG'
p2392
I11715
sS'GTTAAG'
p2393
I5975
sS'CCGGTG'
p2394
I2060
sS'TAACCA'
p2395
I3878
sS'GCACCC'
p2396
I1961
sS'GTCTGG'
p2397
I16576
sS'GTCTGC'
p2398
I13390
sS'GTTAAT'
p2399
I2048
sS'GTCTGA'
p2400
I13392
sS'CGCAAT'
p2401
I690
sS'GCGGNC'
p2402
I1
sS'GGAAGG'
p2403
I10364
sS'ATGCTT'
p2404
I4213
sS'GGAAGC'
p2405
I5997
sS'GCACCG'
p2406
I752
sS'GGAAGA'
p2407
I6099
sS'TGTATT'
p2408
I3990
sS'CAATGA'
p2409
I4337
sS'GCGTTC'
p2410
I1799
sS'CAATGC'
p2411
I3262
sS'GCGTTG'
p2412
I1803
sS'CAATGG'
p2413
I3914
sS'ATGCTG'
p2414
I14094
sS'GGAAGT'
p2415
I3052
sS'ATGCTC'
p2416
I7899
sS'ATGCTA'
p2417
I7790
sS'ATTTGT'
p2418
I6715
sS'TCCTCG'
p2419
I5329
sS'TGTATG'
p2420
I10061
sS'TCCTCA'
p2421
I20342
sS'TGTATA'
p2422
I9885
sS'TCCTCC'
p2423
I33095
sS'TGTATC'
p2424
I6150
sS'CGTTAG'
p2425
I1345
sS'TAACCG'
p2426
I518
sS'TCATAG'
p2427
I1724
sS'TTCGTG'
p2428
I2812
sS'CGTTAC'
p2429
I1159
sS'TAACCC'
p2430
I2498
sS'CGTTAA'
p2431
I1193
sS'TTCGTC'
p2432
I1793
sS'ACCGCT'
p2433
I1235
sS'TCGCGA'
p2434
I434
sS'AACCCA'
p2435
I12585
sS'TCAGGA'
p2436
I2387
sS'TTCGTT'
p2437
I851
sS'TACCCT'
p2438
I5811
sS'TAACCT'
p2439
I1555
sS'GTGAAG'
p2440
I6836
sS'GTGAAA'
p2441
I5800
sS'GTGAAC'
p2442
I4224
sS'CAATAG'
p2443
I1776
sS'TGCATA'
p2444
I11608
sS'ACCGCG'
p2445
I2238
sS'ACCGCA'
p2446
I2534
sS'CCCTAT'
p2447
I2174
sS'ACCGCC'
p2448
I4697
sS'CCGCCT'
p2449
I2132
sS'AGGCTT'
p2450
I4165
sS'CCTTCT'
p2451
I7566
sS'GTTGCA'
p2452
I5198
sS'AACGAA'
p2453
I1807
sS'GTTGCC'
p2454
I5545
sS'GTGCCG'
p2455
I3849
sS'GTGCCA'
p2456
I12246
sS'GTTGCG'
p2457
I1235
sS'GTGCCC'
p2458
I13575
sS'CCTTCA'
p2459
I10981
sS'AGGCTA'
p2460
I7224
sS'CCTTCC'
p2461
I19870
sS'AGGCTC'
p2462
I10910
sS'CCGCCC'
p2463
I9190
sS'AACGAC'
p2464
I1416
sS'CCGCCA'
p2465
I2378
sS'AGGCTG'
p2466
I22190
sS'GTGCCT'
p2467
I9489
sS'TCCAAA'
p2468
I9161
sS'GTTGCT'
p2469
I3047
sS'GGATAT'
p2470
I410
sS'TCGGGT'
p2471
I318
sS'ATTTGA'
p2472
I9345
sS'GCAGTT'
p2473
I730
sS'GAAGCT'
p2474
I4130
sS'TCGGGC'
p2475
I1312
sS'ATGCCA'
p2476
I10181
sS'TCGGGA'
p2477
I1002
sS'NNNNNG'
p2478
I1
sS'TCGGGG'
p2479
I1959
sS'GGATAG'
p2480
I681
sS'GAAGCG'
p2481
I2822
sS'GCAGTG'
p2482
I5701
sS'GAAGCC'
p2483
I10517
sS'GCAGTA'
p2484
I2788
sS'GAAGCA'
p2485
I9745
sS'GCAGTC'
p2486
I2224
sS'CGCCCG'
p2487
I7799
sS'GAGAGA'
p2488
I21730
sS'GTTCAT'
p2489
I1789
sS'CGCCCC'
p2490
I17793
sS'CGCCCA'
p2491
I7266
sS'CTACAA'
p2492
I1532
sS'ACGCAG'
p2493
I968
sS'NNNNNN'
p2494
I2
sS'CTATAC'
p2495
I1889
sS'GCATTA'
p2496
I4056
sS'CTCGCA'
p2497
I3318
sS'CTACAC'
p2498
I1352
sS'CTCGCG'
p2499
I3781
sS'AAACAT'
p2500
I1423
sS'ACGCAT'
p2501
I190
sS'AGTTTC'
p2502
I12897
sS'GCCGGG'
p2503
I11500
sS'TACCCG'
p2504
I2160
sS'GCCGGC'
p2505
I7442
sS'CATGTT'
p2506
I3778
sS'GCCGGA'
p2507
I3652
sS'AGATCT'
p2508
I1902
sS'AGTTTA'
p2509
I14504
sS'GCCACT'
p2510
I8195
sS'CATGTA'
p2511
I10643
sS'CATGTC'
p2512
I7776
sS'GCCGGT'
p2513
I1187
sS'CATGTG'
p2514
I14905
sS'AGTTCG'
p2515
I1951
sS'TACCCC'
p2516
I6308
sS'GGCCTG'
p2517
I19480
sS'GGCCTC'
p2518
I17166
sS'GGCCTA'
p2519
I6246
sS'AATCGG'
p2520
I1667
sS'AATCGC'
p2521
I1741
sS'AATCGA'
p2522
I1254
sS'TTCCCA'
p2523
I20930
sS'GGCCTT'
p2524
I3958
sS'TCACTA'
p2525
I3002
sS'CAGCGA'
p2526
I2431
sS'AATCGT'
p2527
I838
sS'AGCCGA'
p2528
I3834
sS'CCGCCG'
p2529
I2571
sS'AGCCGC'
p2530
I8726
sS'TAATTG'
p2531
I5067
sS'TAATTA'
p2532
I6334
sS'AGCCGG'
p2533
I8329
sS'GTTTTT'
p2534
I5070
sS'TGGTGA'
p2535
I7923
sS'GGGCTC'
p2536
I9891
sS'TGGTGC'
p2537
I6313
sS'GGGCTA'
p2538
I4636
sS'GGGCTG'
p2539
I17532
sS'TGGTGG'
p2540
I10082
sS'GATGGG'
p2541
I11114
sS'AAAAAA'
p2542
I10758
sS'GAGCGG'
p2543
I7898
sS'GAGCGA'
p2544
I3991
sS'AGCCGT'
p2545
I1890
sS'GAGCGC'
p2546
I7239
sS'TGACAG'
p2547
I1768
sS'CCAAGG'
p2548
I4809
sS'ACGTAT'
p2549
I235
sS'TCTCAG'
p2550
I7866
sS'CCAAGC'
p2551
I2777
sS'TGGTGT'
p2552
I4896
sS'GGGCTT'
p2553
I2641
sS'ATTCGT'
p2554
I417
sS'AGAACT'
p2555
I3802
sS'GCGTTT'
p2556
I551
sS'CCTTCG'
p2557
I2752
sS'TACCAT'
p2558
I3845
sS'GATTTC'
p2559
I14065
sS'CCTATT'
p2560
I1489
sS'ACCCGG'
p2561
I3947
sS'ACCCGA'
p2562
I1508
sS'ATGTCT'
p2563
I6974
sS'ACCCGC'
p2564
I3626
sS'AGATAA'
p2565
I1902
sS'TACCAC'
p2566
I7234
sS'AGAACG'
p2567
I1407
sS'TACCAA'
p2568
I7253
sS'AGAACA'
p2569
I8453
sS'TACCAG'
p2570
I8165
sS'AGAACC'
p2571
I5630
sS'ACCAGC'
p2572
I9041
sS'CACTGG'
p2573
I20381
sS'ACCAGA'
p2574
I7814
sS'TGACAA'
p2575
I1275
sS'ACCAGG'
p2576
I11457
sS'CACTGC'
p2577
I24155
sS'CCTATC'
p2578
I2891
sS'CACTGA'
p2579
I19811
sS'TAGGTT'
p2580
I1893
sS'GTTTAC'
p2581
I8259
sS'AATTAT'
p2582
I4698
sS'CTGTTG'
p2583
I14156
sS'GTAACC'
p2584
I4328
sS'CTGTTC'
p2585
I12230
sS'CGGGTT'
p2586
I444
sS'CTGTTA'
p2587
I11692
sS'AATTAC'
p2588
I7822
sS'AATTAA'
p2589
I11031
sS'CATGGA'
p2590
I6621
sS'AATTAG'
p2591
I7217
sS'TAGGTC'
p2592
I4050
sS'CGGGTC'
p2593
I2216
sS'CTGTTT'
p2594
I7397
sS'CGGGTA'
p2595
I1172
sS'CGGGTG'
p2596
I3300
sS'GGGTAC'
p2597
I1500
sS'CCAAAC'
p2598
I1877
sS'ATTGTT'
p2599
I1947
sS'CACACT'
p2600
I12070
sS'CATTAC'
p2601
I8001
sS'AGCAAA'
p2602
I17092
sS'ATATAT'
p2603
I2160
sS'AGCAAC'
p2604
I10183
sS'TTAGGC'
p2605
I1743
sS'AAAGCT'
p2606
I3630
sS'AGCAAG'
p2607
I15250
sS'AAAGCA'
p2608
I10776
sS'AAAGCC'
p2609
I8699
sS'TTAGGT'
p2610
I1024
sS'ATATAA'
p2611
I3192
sS'AGCAAT'
p2612
I6512
sS'ATATAC'
p2613
I2372
sS'TGCTAC'
p2614
I7659
sS'TACTTA'
p2615
I19340
sS'TACTTG'
p2616
I17109
sS'ATAGCG'
p2617
I475
sS'TGCTAA'
p2618
I11216
sS'ATAGCT'
p2619
I1600
sS'TACTTT'
p2620
I11865
sS'CCCGAT'
p2621
I359
sS'TCCAAT'
p2622
I3015
sS'CGTACT'
p2623
I691
sS'TCCCGT'
p2624
I1394
sS'ACATAC'
p2625
I1586
sS'CTTAAG'
p2626
I6301
sS'ACATAA'
p2627
I1776
sS'CTTAAA'
p2628
I7860
sS'AGGGGT'
p2629
I1999
sS'CTTAAC'
p2630
I5138
sS'CGCGTT'
p2631
I644
sS'TCCAAG'
p2632
I9868
sS'CGTACC'
p2633
I1183
sS'TTGTTA'
p2634
I13243
sS'TCCAAC'
p2635
I6285
sS'CGTACG'
p2636
I454
sS'AGGGGA'
p2637
I6837
sS'CTTAAT'
p2638
I2176
sS'AGGGGC'
p2639
I6760
sS'TATGCA'
p2640
I10377
sS'AGGGGG'
p2641
I7230
sS'CGTTTG'
p2642
I3512
sS'CGACTT'
p2643
I104
sS'GGATAA'
p2644
I765
sS'TTGTAA'
p2645
I6020
sS'TTGTAC'
p2646
I3733
sS'TCATTG'
p2647
I7222
sS'TGAATC'
p2648
I5078
sS'ACAACA'
p2649
I4433
sS'TGAATA'
p2650
I7165
sS'CGACTC'
p2651
I670
sS'TGAATG'
p2652
I8713
sS'AAGTAT'
p2653
I3088
sS'CGACTG'
p2654
I862
sS'TTGTAT'
p2655
I3331
sS'ATCGTG'
p2656
I1956
sS'GCTTCG'
p2657
I2611
sS'GCTTCA'
p2658
I9328
sS'GCTTCC'
p2659
I14497
sS'TGGGAG'
p2660
I6848
sS'TGGGAA'
p2661
I4411
sS'TGGGAC'
p2662
I3359
sS'GCTTCT'
p2663
I6210
sS'TGGCAC'
p2664
I4634
sS'ACAACG'
p2665
I628
sS'TGGGAT'
p2666
I1406
sS'CTAGCC'
p2667
I3770
sS'GACCAT'
p2668
I3301
sS'CTAGCG'
p2669
I870
sS'CGGTAG'
p2670
I817
sS'ACTTAG'
p2671
I4310
sS'TAGATT'
p2672
I2437
sS'ACTTAA'
p2673
I5131
sS'CGGTAC'
p2674
I547
sS'TACACT'
p2675
I9743
sS'CGGTAA'
p2676
I533
sS'GACCAG'
p2677
I11932
sS'GACCAC'
p2678
I8647
sS'CTATCC'
p2679
I4678
sS'TACACC'
p2680
I8520
sS'CGGTAT'
p2681
I239
sS'TACACA'
p2682
I20196
sS'AGCCCT'
p2683
I10340
sS'GCGAGA'
p2684
I1568
sS'GAGAGC'
p2685
I13852
sS'GCGAGC'
p2686
I2219
sS'GCTGAG'
p2687
I8879
sS'GCGAGG'
p2688
I4016
sS'CAGCCG'
p2689
I4490
sS'CAGCCA'
p2690
I13643
sS'GGTATT'
p2691
I1457
sS'CAGCCC'
p2692
I17035
sS'GCGAGT'
p2693
I595
sS'CAGCCT'
p2694
I8781
sS'TTACGT'
p2695
I323
sS'GAACTC'
p2696
I3969
sS'GAACTA'
p2697
I4038
sS'GGACTT'
p2698
I425
sS'CACCTA'
p2699
I10712
sS'AACTAT'
p2700
I5416
sS'CACCTC'
p2701
I17532
sS'CACCTG'
p2702
I22168
sS'TGATCC'
p2703
I3046
sS'AACACT'
p2704
I12845
sS'TGATCA'
p2705
I2980
sS'TGATCG'
p2706
I386
sS'AACTAG'
p2707
I8356
sS'GGACTG'
p2708
I2758
sS'CACCTT'
p2709
I5723
sS'GGACTA'
p2710
I1547
sS'AACTAA'
p2711
I11594
sS'AACGAT'
p2712
I647
sS'AACACG'
p2713
I3986
sS'AACACA'
p2714
I23259
sS'AACACC'
p2715
I12726
sS'TGATCT'
p2716
I1943
sS'AAAGAC'
p2717
I3830
sS'GCATTC'
p2718
I4201
sS'TGAGCC'
p2719
I5750
sS'GACAGT'
p2720
I10174
sS'CAACAA'
p2721
I1751
sS'CCAGCC'
p2722
I7305
sS'CAACAC'
p2723
I1387
sS'GCTGAT'
p2724
I1132
sS'ACGCAA'
p2725
I387
sS'GACAGG'
p2726
I22049
sS'CAACAT'
p2727
I654
sS'GACAGC'
p2728
I16913
sS'GACAGA'
p2729
I21599
sS'GTATTA'
p2730
I6814
sS'GTATTC'
p2731
I4541
sS'GTAAGT'
p2732
I2632
sS'CCAGCG'
p2733
I1304
sS'AGAGGT'
p2734
I1435
sS'GGTGGC'
p2735
I6204
sS'TCCCCT'
p2736
I7334
sS'GGTGGA'
p2737
I5582
sS'CGTCAT'
p2738
I611
sS'GGTGGG'
p2739
I10230
sS'AGAGGC'
p2740
I4188
sS'GTAAGA'
p2741
I4819
sS'AGAGGA'
p2742
I4512
sS'CTCGCC'
p2743
I7757
sS'AGAGGG'
p2744
I5660
sS'GTAAGG'
p2745
I4586
sS'TCCCCG'
p2746
I6030
sS'CGTCAC'
p2747
I2273
sS'TCCCCC'
p2748
I10266
sS'GGTGGT'
p2749
I1974
sS'TCCCCA'
p2750
I13787
sS'GTCGCG'
p2751
I1958
sS'GTCGCA'
p2752
I1904
sS'GTCGCC'
p2753
I4295
sS'TCGGTC'
p2754
I826
sS'TAATAC'
p2755
I3031
sS'TCGGTA'
p2756
I646
sS'GAGAGT'
p2757
I6749
sS'TCGGTG'
p2758
I1544
sS'GTCGCT'
p2759
I1712
sS'TACCTA'
p2760
I9955
sS'CCGTCG'
p2761
I806
sS'ATTTAT'
p2762
I4237
sS'CCGTCA'
p2763
I1559
sS'CCGTCC'
p2764
I3413
sS'GGCTGT'
p2765
I9487
sS'CGCGTG'
p2766
I3392
sS'GCATTT'
p2767
I1593
sS'CGCGTC'
p2768
I3407
sS'CGCGTA'
p2769
I940
sS'GTTTTA'
p2770
I17786
sS'CCACTG'
p2771
I4406
sS'TGGGTT'
p2772
I1720
sS'CCACTC'
p2773
I2298
sS'TCTGGA'
p2774
I4986
sS'GGCTGG'
p2775
I27314
sS'GGCTGA'
p2776
I16153
sS'GGCTGC'
p2777
I23013
sS'ATGCAT'
p2778
I2048
sS'CCTACC'
p2779
I5763
sS'TTTCAT'
p2780
I3596
sS'TTGACC'
p2781
I5836
sS'ATGACG'
p2782
I1492
sS'GGAGTT'
p2783
I655
sS'ATGACA'
p2784
I9795
sS'ATGACC'
p2785
I6239
sS'CCTGAT'
p2786
I985
sS'GGGCCT'
p2787
I4836
sS'ATGACT'
p2788
I8319
sS'GGAGTA'
p2789
I2049
sS'CTACGC'
p2790
I566
sS'GGAGTC'
p2791
I2305
sS'GGAGTG'
p2792
I4211
sS'GGGCCG'
p2793
I5226
sS'GGGCCC'
p2794
I9801
sS'GGGCCA'
p2795
I7316
sS'GGCAAG'
p2796
I10637
sS'ACGAGT'
p2797
I362
sS'AGGCCA'
p2798
I10829
sS'AGGCCC'
p2799
I11888
sS'AGGCCG'
p2800
I4494
sS'ACGAGG'
p2801
I1651
sS'AGTATC'
p2802
I4456
sS'ACGAGC'
p2803
I863
sS'ACGAGA'
p2804
I814
sS'CTGATG'
p2805
I10432
sS'AGGCCT'
p2806
I6594
sS'GATTTA'
p2807
I16192
sS'ACATCT'
p2808
I2170
sS'TGCTGA'
p2809
I19552
sS'GACTAC'
p2810
I8279
sS'GGGTTA'
p2811
I4494
sS'GGGTTC'
p2812
I4261
sS'TTTGAT'
p2813
I1883
sS'TGCAAT'
p2814
I5088
sS'ACTTAT'
p2815
I1495
sS'CTACGA'
p2816
I455
sS'ATTGCT'
p2817
I2780
sS'TGCGAA'
p2818
I1146
sS'TGCGAC'
p2819
I1343
sS'AGAAAT'
p2820
I2181
sS'TGCGAG'
p2821
I2428
sS'AACGGC'
p2822
I2265
sS'AGACGC'
p2823
I934
sS'AACGGA'
p2824
I2171
sS'GACTAG'
p2825
I8626
sS'AACGGG'
p2826
I2859
sS'TTTGAC'
p2827
I4742
sS'TTTGAA'
p2828
I7411
sS'AAGCAG'
p2829
I11966
sS'CCTGAC'
p2830
I4397
sS'TGACGT'
p2831
I299
sS'CTCGTC'
p2832
I2922
sS'CCCTGG'
p2833
I19840
sS'CCCTGA'
p2834
I12252
sS'CTCGTG'
p2835
I3656
sS'CCCTGC'
p2836
I20729
sS'GTGTAA'
p2837
I5041
sS'CCCTGT'
p2838
I7259
sS'AAGCTC'
p2839
I9954
sS'GATATA'
p2840
I8186
sS'AAGCTA'
p2841
I8896
sS'GATATG'
p2842
I8294
sS'AAGCTG'
p2843
I16866
sS'TGACGC'
p2844
I673
sS'TACTCT'
p2845
I11849
sS'CATCGT'
p2846
I1084
sS'GTAGTC'
p2847
I2337
sS'CAGGGT'
p2848
I3037
sS'CTACGG'
p2849
I730
sS'CCAGTC'
p2850
I2513
sS'TACGAT'
p2851
I522
sS'CCAGTG'
p2852
I4785
sS'TACTCG'
p2853
I2525
sS'CATCGA'
p2854
I1297
sS'CATCGC'
p2855
I2416
sS'TACTCC'
p2856
I11859
sS'TACTCA'
p2857
I21761
sS'CATCGG'
p2858
I1761
sS'GTTAGC'
p2859
I3730
sS'CAGGGG'
p2860
I9565
sS'CAGGGA'
p2861
I10005
sS'CAGGGC'
p2862
I11325
sS'AATCTG'
p2863
I13206
sS'CGGACT'
p2864
I1146
sS'AGGTAG'
p2865
I3974
sS'AGTCGA'
p2866
I1230
sS'AATCTA'
p2867
I9244
sS'ATCCAA'
p2868
I5259
sS'TCACAC'
p2869
I1247
sS'TCACAA'
p2870
I1189
sS'TCACAG'
p2871
I1964
sS'GCCATA'
p2872
I6392
sS'CGGACG'
p2873
I1403
sS'GCCATC'
p2874
I7860
sS'CGGACA'
p2875
I1717
sS'CGGACC'
p2876
I2557
sS'GCCATG'
p2877
I11659
sS'TTTTAA'
p2878
I17380
sS'TCACAT'
p2879
I694
sS'ATTAAC'
p2880
I4166
sS'ATTAAA'
p2881
I8927
sS'ATTAAG'
p2882
I5707
sS'CTTACA'
p2883
I6986
sS'TCACTT'
p2884
I1157
sS'ACATCC'
p2885
I4015
sS'CTATTA'
p2886
I7483
sS'ATTAAT'
p2887
I2222
sS'TACCTG'
p2888
I14276
sS'GGTATG'
p2889
I5176
sS'CTGAAT'
p2890
I2442
sS'GGTATC'
p2891
I2504
sS'CGAGAG'
p2892
I750
sS'CTGAAA'
p2893
I5993
sS'CTGAAC'
p2894
I4419
sS'GGAACC'
p2895
I4380
sS'CTGAAG'
p2896
I7845
sS'ATTGTA'
p2897
I6570
sS'NNNNGA'
p2898
I1
sS'TAGGTA'
p2899
I6516
sS'CATTGC'
p2900
I11896
sS'TATGAG'
p2901
I8524
sS'CATTGA'
p2902
I10334
sS'CTAGTT'
p2903
I1020
sS'CATTGG'
p2904
I10059
sS'TCAACT'
p2905
I1939
sS'ACCATC'
p2906
I5933
sS'ACACCG'
p2907
I458
sS'CTGCCA'
p2908
I19429
sS'CTGCCC'
p2909
I26047
sS'ACACCC'
p2910
I2003
sS'ACACCA'
p2911
I1849
sS'CTGCCG'
p2912
I6673
sS'CTAGTG'
p2913
I4293
sS'TCAACC'
p2914
I3132
sS'TCAACA'
p2915
I4862
sS'CTAGTC'
p2916
I2444
sS'TCAACG'
p2917
I605
sS'CTAGTA'
p2918
I3107
sS'CATTGT'
p2919
I9991
sS'CCCGGG'
p2920
I9404
sS'GTAATG'
p2921
I5991
sS'ACACCT'
p2922
I985
sS'CTGCCT'
p2923
I16383
sS'CCTCGT'
p2924
I709
sS'TATGAA'
p2925
I8420
sS'AGACTG'
p2926
I4451
sS'AGACTC'
p2927
I2918
sS'AGACTA'
p2928
I2721
sS'CCTCGG'
p2929
I4322
sS'CCTCGC'
p2930
I3824
sS'CCCGAC'
p2931
I2196
sS'CCTCGA'
p2932
I1299
sS'CGAGGA'
p2933
I849
sS'CGAGGC'
p2934
I1429
sS'CGAGGG'
p2935
I1667
sS'CACCGT'
p2936
I1889
sS'ACTTTA'
p2937
I11425
sS'TCACTC'
p2938
I3286
sS'GACCTG'
p2939
I16533
sS'GACCTA'
p2940
I8353
sS'GACCTC'
p2941
I13540
sS'CACCGG'
p2942
I4348
sS'CTATTG'
p2943
I6500
sS'CACCGA'
p2944
I2673
sS'CACCGC'
p2945
I6966
sS'GACCTT'
p2946
I5834
sS'GGACGC'
p2947
I939
sS'GGACGG'
p2948
I975
sS'ACGCTA'
p2949
I820
sS'CACAGC'
p2950
I21264
sS'CTTATC'
p2951
I4814
sS'CACAGA'
p2952
I21287
sS'CTTATA'
p2953
I7009
sS'CACAGG'
p2954
I23358
sS'TTAACT'
p2955
I4106
sS'ACTCAT'
p2956
I2428
sS'GAGGAG'
p2957
I19823
sS'GACGTA'
p2958
I1971
sS'CGTATC'
p2959
I833
sS'GACGTC'
p2960
I3553
sS'GAGGAC'
p2961
I8005
sS'GAGGAA'
p2962
I13708
sS'GACGTG'
p2963
I5227
sS'TTAACA'
p2964
I7253
sS'ACTCAC'
p2965
I6324
sS'TTAACC'
p2966
I5259
sS'ACTCAA'
p2967
I4596
sS'ACTCAG'
p2968
I8177
sS'TTAACG'
p2969
I858
sS'CACAGT'
p2970
I11756
sS'AGCGAC'
p2971
I2189
sS'TAAACA'
p2972
I16908
sS'AGCGAA'
p2973
I1826
sS'GAGGAT'
p2974
I2773
sS'GACGTT'
p2975
I1354
sS'CCACCG'
p2976
I720
sS'TAAACG'
p2977
I1455
sS'CTGTGG'
p2978
I18928
sS'GTATGT'
p2979
I4007
sS'AGTTCA'
p2980
I12475
sS'CTGTGC'
p2981
I13384
sS'TAGCCC'
p2982
I5927
sS'CTGTGA'
p2983
I13614
sS'GAGCGT'
p2984
I1612
sS'TAGGAC'
p2985
I3545
sS'GCAAAG'
p2986
I3448
sS'CCCGGT'
p2987
I1037
sS'GCAAAA'
p2988
I2097
sS'TAGGAG'
p2989
I5962
sS'GCAAAC'
p2990
I2986
sS'CGGGGC'
p2991
I6110
sS'CGGGGA'
p2992
I2981
sS'CTGTGT'
p2993
I10976
sS'CGGGGG'
p2994
I4355
sS'GTATGC'
p2995
I3079
sS'AGCTCG'
p2996
I4749
sS'GCAAAT'
p2997
I1158
sS'CGAGAA'
p2998
I373
sS'TAGGAT'
p2999
I1627
sS'AAAAAT'
p3000
I2408
sS'ACGCTT'
p3001
I337
sS'TGCTTT'
p3002
I13308
sS'GTCTAT'
p3003
I3488
sS'GTAATT'
p3004
I1594
sS'GTTACC'
p3005
I5026
sS'GTTACA'
p3006
I6270
sS'TAATTC'
p3007
I4971
sS'GTTACG'
p3008
I1045
sS'TATCGC'
p3009
I1002
sS'TATAGT'
p3010
I5516
sS'GTCTAA'
p3011
I7261
sS'CAGGAC'
p3012
I5628
sS'GTCTAC'
p3013
I5525
sS'TGCTTC'
p3014
I22563
sS'TTCAAA'
p3015
I17402
sS'GTCTAG'
p3016
I6773
sS'TGCTTG'
p3017
I21151
sS'TATAGC'
p3018
I6207
sS'TATCGT'
p3019
I738
sS'TATAGA'
p3020
I8305
sS'AGTGGG'
p3021
I8424
sS'TATAGG'
p3022
I7097
sS'GTTACT'
p3023
I4000
sS'GCTCTC'
p3024
I8829
sS'GCTCTA'
p3025
I6142
sS'GATGGC'
p3026
I7871
sS'GCTCTG'
p3027
I16773
sS'CCACGT'
p3028
I310
sS'CAATAT'
p3029
I850
sS'AGGACC'
p3030
I8033
sS'GAATGG'
p3031
I6687
sS'GGCTTT'
p3032
I7227
sS'ACTACT'
p3033
I2430
sS'GAATGC'
p3034
I6354
sS'CCACGA'
p3035
I364
sS'AACCTG'
p3036
I15493
sS'CCACGC'
p3037
I801
sS'GGCGTA'
p3038
I1495
sS'GGCGTG'
p3039
I7268
sS'CCACGG'
p3040
I798
sS'GCTCTT'
p3041
I2338
sS'GGCTTA'
p3042
I11264
sS'ACTACC'
p3043
I3424
sS'GGCTTC'
p3044
I17684
sS'ACTACA'
p3045
I5127
sS'ACTACG'
p3046
I836
sS'GGCTTG'
p3047
I16474
sS'TCCTAG'
p3048
I8517
sS'GTTTTC'
p3049
I14205
sS'CGTTGC'
p3050
I2460
sS'TAACAC'
p3051
I1864
sS'TCCTAC'
p3052
I6960
sS'AGTCAC'
p3053
I12362
sS'CGTTGG'
p3054
I2405
sS'AGTCAA'
p3055
I7505
sS'TCATCG'
p3056
I793
sS'TGAGGG'
p3057
I3642
sS'TCATCC'
p3058
I6001
sS'AAAAAC'
p3059
I5621
sS'CTTTCT'
p3060
I12261
sS'AGTCAT'
p3061
I5706
sS'TCCTAT'
p3062
I3770
sS'TAACAT'
p3063
I987
sS'CGTTGT'
p3064
I1158
sS'CTTTCC'
p3065
I20728
sS'CTTTCA'
p3066
I16593
sS'CTTTCG'
p3067
I2614
sS'AAAAAG'
p3068
I7449
sS'GTTGAT'
p3069
I1157
sS'CGACCA'
p3070
I377
sS'CGACCC'
p3071
I589
sS'GCATAC'
p3072
I1001
sS'CGACCG'
p3073
I234
sS'CCTTAT'
p3074
I1706
sS'GTTGAC'
p3075
I3603
sS'GTTGAA'
p3076
I3998
sS'CGTCAA'
p3077
I1010
sS'GTTGAG'
p3078
I4690
sS'TTAGGG'
p3079
I2694
sS'CCTTAC'
p3080
I3702
sS'CCTTAA'
p3081
I4593
sS'CCTTAG'
p3082
I4966
sS'CGACCT'
p3083
I220
sS'CAACTC'
p3084
I2636
sS'CAACTA'
p3085
I2621
sS'CAACTG'
p3086
I3775
sS'AATAGG'
p3087
I8684
sS'GATGGT'
p3088
I3589
sS'GGGGTT'
p3089
I1014
sS'GCCATT'
p3090
I3217
sS'GGATGT'
p3091
I1298
sS'AATAGT'
p3092
I5628
sS'TCTCAC'
p3093
I4885
sS'CAACTT'
p3094
I695
sS'ACTGTA'
p3095
I7362
sS'GGGGTG'
p3096
I7979
sS'GGATGA'
p3097
I2244
sS'GGATGG'
p3098
I2764
sS'GGGGTA'
p3099
I2694
sS'TCTCCG'
p3100
I2199
sS'GAGTCC'
p3101
I12994
sS'GAGTCA'
p3102
I31297
sS'TCTCCC'
p3103
I9022
sS'CCCTTT'
p3104
I7461
sS'TCTCCA'
p3105
I7584
sS'AAACTC'
p3106
I4163
sS'CTATGA'
p3107
I5019
sS'AGTACG'
p3108
I1123
sS'ACGCGC'
p3109
I1054
sS'AGTACC'
p3110
I5056
sS'CTATGG'
p3111
I4251
sS'AGTACA'
p3112
I8020
sS'CCCTTA'
p3113
I10741
sS'CCCTTC'
p3114
I19601
sS'TCTCCT'
p3115
I4330
sS'CCCTTG'
p3116
I15534
sS'AGTACT'
p3117
I4389
sS'CTATGT'
p3118
I3627
sS'GCCGAA'
p3119
I1292
sS'GTGGAG'
p3120
I6918
sS'GCCGAC'
p3121
I2153
sS'GTGGAC'
p3122
I3096
sS'GCCGAG'
p3123
I5118
sS'GTGGAA'
p3124
I4138
sS'GTGGAT'
p3125
I1191
sS'GCCGAT'
p3126
I413
sS'AGATAG'
p3127
I1342
sS'TATCTG'
p3128
I13290
sS'CACTGT'
p3129
I13903
sS'ACCGAG'
p3130
I1823
sS'AAATCG'
p3131
I747
sS'CACGCG'
p3132
I2928
sS'TTATCG'
p3133
I599
sS'CACGCA'
p3134
I4737
sS'AAATCC'
p3135
I5416
sS'CACGCC'
p3136
I8065
sS'GTTCCT'
p3137
I3616
sS'CTACGT'
p3138
I276
sS'ATGGGG'
p3139
I4981
sS'CACGCT'
p3140
I2770
sS'AAATCT'
p3141
I3275
sS'AAAGTC'
p3142
I4421
sS'CTTGAA'
p3143
I4942
sS'GTAGTT'
p3144
I1018
sS'ACCAGT'
p3145
I3955
sS'GATGAT'
p3146
I3720
sS'GGAGCA'
p3147
I3454
sS'GGAGCC'
p3148
I5617
sS'CCGGCT'
p3149
I1472
sS'CCAAAT'
p3150
I810
sS'GGAGCG'
p3151
I1782
sS'AAAACT'
p3152
I4607
sS'GATGAC'
p3153
I10590
sS'GATGAA'
p3154
I10414
sS'GATGAG'
p3155
I12831
sS'AAAACC'
p3156
I8895
sS'AAAACA'
p3157
I15548
sS'AAAACG'
p3158
I1681
sS'GGAGCT'
p3159
I1899
sS'CCAAAG'
p3160
I2757
sS'TCGCGG'
p3161
I1110
sS'CTAGAG'
p3162
I2250
sS'TCGCGC'
p3163
I1046
sS'CTACCG'
p3164
I668
sS'GCCACA'
p3165
I15058
sS'AGATCA'
p3166
I4016
sS'GCCACC'
p3167
I17137
sS'AGATCC'
p3168
I3298
sS'CGACGG'
p3169
I423
sS'GCCACG'
p3170
I5365
sS'AGATCG'
p3171
I657
sS'ATGTCA'
p3172
I11020
sS'TCGCGT'
p3173
I214
sS'GTGCAA'
p3174
I4769
sS'ACCCGT'
p3175
I681
sS'AGAAAG'
p3176
I7259
sS'TCCCTT'
p3177
I6255
sS'AGAAAC'
p3178
I4937
sS'TACCCA'
p3179
I10009
sS'AGAAAA'
p3180
I5988
sS'GTGCAG'
p3181
I9089
sS'ATGTAC'
p3182
I3366
sS'ACTTCG'
p3183
I1530
sS'ATGTAA'
p3184
I5174
sS'ATGTAG'
p3185
I3558
sS'CCTATA'
p3186
I3974
sS'CTACCA'
p3187
I2725
sS'GTTCCG'
p3188
I1673
sS'GACGAC'
p3189
I2157
sS'ATGTCG'
p3190
I1159
sS'ATGTAT'
p3191
I2701
sS'CCGGCG'
p3192
I2121
sS'ACTTCA'
p3193
I8796
sS'AGCACT'
p3194
I12341
sS'TTAGAA'
p3195
I2142
sS'CGGCTG'
p3196
I6909
sS'TTAGAC'
p3197
I1377
sS'GGATAC'
p3198
I686
sS'CGGCTC'
p3199
I5945
sS'TTAGAG'
p3200
I2108
sS'CGGCTA'
p3201
I1634
sS'AGCACC'
p3202
I15569
sS'AGCACA'
p3203
I18930
sS'AGCACG'
p3204
I4466
sS'CGGCTT'
p3205
I985
sS'CGCCCT'
p3206
I5188
sS'TTAGAT'
p3207
I624
sS'CCAGCA'
p3208
I4348
sS'ACCTAT'
p3209
I1790
sS'AAAGAA'
p3210
I6378
sS'AAAGAG'
p3211
I5907
sS'AACTAC'
p3212
I8274
sS'ATATCA'
p3213
I5148
sS'CGACGT'
p3214
I95
sS'TCGCTA'
p3215
I830
sS'TGTGAG'
p3216
I10416
sS'TGTGAA'
p3217
I7229
sS'ACGTCT'
p3218
I951
sS'TGTGAC'
p3219
I8111
sS'ATATCT'
p3220
I3280
sS'CCAGCT'
p3221
I2228
sS'AAAGAT'
p3222
I1317
sS'TGTGAT'
p3223
I2671
sS'TTATTG'
p3224
I8837
sS'TTATTA'
p3225
I11646
sS'CATGAT'
p3226
I2430
sS'TTATTC'
p3227
I7404
sS'AGACGG'
p3228
I977
sS'TTTTAT'
p3229
I5726
sS'TACAAG'
p3230
I10288
sS'TCCACT'
p3231
I8174
sS'TACAAA'
p3232
I16252
sS'AGACGA'
p3233
I496
sS'TACAAC'
p3234
I8055
sS'CCTCTG'
p3235
I17750
sS'AGGTGG'
p3236
I11783
sS'CCTCTC'
p3237
I12693
sS'AGGTGC'
p3238
I6653
sS'CCTCTA'
p3239
I7711
sS'AGGTGA'
p3240
I8726
sS'CTTACG'
p3241
I1353
sS'TCCACA'
p3242
I13746
sS'TTTTAG'
p3243
I8422
sS'TCCACC'
p3244
I16254
sS'CTTACC'
p3245
I6664
sS'ACATCA'
p3246
I4353
sS'TTTTAC'
p3247
I7888
sS'TCCACG'
p3248
I3813
sS'AGGTGT'
p3249
I4656
sS'CCTCTT'
p3250
I2970
sS'CGTCGG'
p3251
I1792
sS'CCCGGC'
p3252
I8799
sS'CCCGGA'
p3253
I3711
sS'TATGAC'
p3254
I7876
sS'TTGTGT'
p3255
I8185
sS'TGGAAT'
p3256
I2922
sS'TAGGTG'
p3257
I7601
sS'TTGTGC'
p3258
I7567
sS'TTGTGA'
p3259
I9443
sS'TTGTGG'
p3260
I12226
sS'TTTTGA'
p3261
I12003
sS'TGGAAG'
p3262
I8685
sS'GGTTTT'
p3263
I3633
sS'TGGAAC'
p3264
I4496
sS'TGGAAA'
p3265
I6815
sS'TGAGGA'
p3266
I2929
sS'AAGAGG'
p3267
I17395
sS'TGAGGC'
p3268
I3131
sS'AAGAGA'
p3269
I16287
sS'AAGAGC'
p3270
I10858
sS'AAGCGT'
p3271
I1026
sS'GCTTAG'
p3272
I4746
sS'GCTTAC'
p3273
I3212
sS'GCTTAA'
p3274
I4280
sS'TCTGAT'
p3275
I1422
sS'AAGCGC'
p3276
I3076
sS'AAGAGT'
p3277
I6270
sS'AAGCGA'
p3278
I2149
sS'AAGCGG'
p3279
I3610
sS'GCTTAT'
p3280
I1556
sS'CTGCTA'
p3281
I10640
sS'GCGTGT'
p3282
I1107
sS'CTGCTC'
p3283
I19283
sS'ACTTCT'
p3284
I4831
sS'GACCGT'
p3285
I1567
sS'CTGCTG'
p3286
I29180
sS'CGGTCA'
p3287
I1770
sS'GGTCGT'
p3288
I542
sS'CGGTCC'
p3289
I3228
sS'CTAGAA'
p3290
I1742
sS'GAAAGT'
p3291
I4502
sS'GACCGA'
p3292
I2677
sS'GACCGC'
p3293
I4551
sS'ACTTCC'
p3294
I11619
sS'CTGCTT'
p3295
I8046
sS'GACCGG'
p3296
I4730
sS'TCGGAA'
p3297
I420
sS'CTAGAT'
p3298
I565
sS'GGTCGG'
p3299
I2716
sS'CGGTCT'
p3300
I1342
sS'GGTCGC'
p3301
I2168
sS'GGTCGA'
p3302
I980
sS'CGTCGC'
p3303
I2145
sS'GCGTGG'
p3304
I3469
sS'GCGTGA'
p3305
I1666
sS'GCGTGC'
p3306
I2301
sS'TGCTCA'
p3307
I20876
sS'TTCATC'
p3308
I14657
sS'TGCTCC'
p3309
I20251
sS'TTCATA'
p3310
I17153
sS'TTCATG'
p3311
I18110
sS'TGCTCG'
p3312
I3899
sS'GTACAA'
p3313
I1259
sS'CAGCAG'
p3314
I11699
sS'GCTTTG'
p3315
I15666
sS'CAGCAC'
p3316
I7265
sS'CAGCAA'
p3317
I6470
sS'GGGAGT'
p3318
I3663
sS'GTACAC'
p3319
I1468
sS'TGCTCT'
p3320
I14766
sS'TTCATT'
p3321
I10449
sS'GTAGCC'
p3322
I3370
sS'GCTGCC'
p3323
I10506
sS'GCTGCA'
p3324
I8554
sS'AACTCT'
p3325
I12912
sS'GCTGCG'
p3326
I4353
sS'TGGCCA'
p3327
I10561
sS'GTAGCA'
p3328
I3461
sS'AACTCA'
p3329
I18993
sS'TGGCCT'
p3330
I6421
sS'AACTCC'
p3331
I17596
sS'GCTGCT'
p3332
I4436
sS'AACTCG'
p3333
I3152
sS'CAGTCG'
p3334
I2095
sS'TGAAGA'
p3335
I5447
sS'AATATT'
p3336
I5825
sS'CAACCT'
p3337
I1086
sS'CAGTTA'
p3338
I10058
sS'TGGCCG'
p3339
I3425
sS'GGCACG'
p3340
I3950
sS'GGCACA'
p3341
I13065
sS'GACAAT'
p3342
I5697
sS'GGCACC'
p3343
I11951
sS'CAACCG'
p3344
I518
sS'ACGACC'
p3345
I847
sS'AATATG'
p3346
I12069
sS'CGGTCG'
p3347
I970
sS'AATATA'
p3348
I14048
sS'TTAGGA'
p3349
I2535
sS'AATATC'
p3350
I7429
sS'CTTCGT'
p3351
I814
sS'GACAAA'
p3352
I15975
sS'GGCACT'
p3353
I7578
sS'GACAAC'
p3354
I8600
sS'ACGACA'
p3355
I862
sS'GACAAG'
p3356
I13281
sS'TGGCCC'
p3357
I10007
sS'GCAATC'
p3358
I1839
sS'GCAATA'
p3359
I3421
sS'GCAATG'
p3360
I4641
sS'CGATGG'
p3361
I610
sS'TCCCAT'
p3362
I2494
sS'CGATGC'
p3363
I508
sS'CAGCAT'
p3364
I2581
sS'CGATGA'
p3365
I486
sS'GAATTA'
p3366
I6427
sS'GAATTC'
p3367
I5422
sS'GAATTG'
p3368
I5564
sS'TCCCAA'
p3369
I7179
sS'CGATGT'
p3370
I267
sS'GTAAAA'
p3371
I3758
sS'GTAAAG'
p3372
I4083
sS'TCCCAG'
p3373
I12714
sS'GGATTT'
p3374
I679
sS'GTGCGT'
p3375
I1121
sS'ATGGTA'
p3376
I5387
sS'GGATTC'
p3377
I1988
sS'GGATTA'
p3378
I3838
sS'AGGTCC'
p3379
I7428
sS'AGCGGC'
p3380
I5900
sS'ACGCCA'
p3381
I1136
sS'ATATAG'
p3382
I1963
sS'TCTGTG'
p3383
I15616
sS'TCTGTC'
p3384
I8181
sS'GTCCCG'
p3385
I5717
sS'TACAAT'
p3386
I6636
sS'GGCGGC'
p3387
I11427
sS'CTCCTT'
p3388
I10034
sS'GGCGGA'
p3389
I5398
sS'AACCGC'
p3390
I3121
sS'AACCGA'
p3391
I2020
sS'TCTGTT'
p3392
I2558
sS'AAAGCG'
p3393
I1737
sS'CTCCTG'
p3394
I31116
sS'AACCGT'
p3395
I1223
sS'CTCCTA'
p3396
I13836
sS'CTCCTC'
p3397
I30052
sS'GGCGGT'
p3398
I1899
sS'GACGCA'
p3399
I4443
sS'CCCACG'
p3400
I4680
sS'CCCACA'
p3401
I14006
sS'CCCACC'
p3402
I21110
sS'TACTTC'
p3403
I15899
sS'AGCCTT'
p3404
I7211
sS'CCGATT'
p3405
I193
sS'CCCACT'
p3406
I7661
sS'AACAAT'
p3407
I7549
sS'GACGCT'
p3408
I3441
sS'ACCTCC'
p3409
I14372
sS'CCGATA'
p3410
I436
sS'AGCCTG'
p3411
I26169
sS'AGCCTA'
p3412
I10208
sS'AGCCTC'
p3413
I21361
sS'GTACCC'
p3414
I1503
sS'CTCCCG'
p3415
I10024
sS'TGGTTA'
p3416
I8523
sS'CGCCTT'
p3417
I2443
sS'TGGTTC'
p3418
I6826
sS'CAGAGT'
p3419
I5644
sS'GCATCT'
p3420
I2265
sS'ACCTCG'
p3421
I3364
sS'AGGCAC'
p3422
I5524
sS'CGCCTC'
p3423
I12303
sS'AGGCAA'
p3424
I5387
sS'CGCCTA'
p3425
I2770
sS'AGGCAG'
p3426
I11772
sS'CGCCTG'
p3427
I10343
sS'GTACCT'
p3428
I1200
sS'CAGAGG'
p3429
I19056
sS'GCATCC'
p3430
I3945
sS'GTGCGG'
p3431
I3655
sS'CAGAGC'
p3432
I14016
sS'CGGCCA'
p3433
I3630
sS'CAGAGA'
p3434
I14288
sS'AATCAT'
p3435
I5564
sS'TAGCTA'
p3436
I7005
sS'CCTAGA'
p3437
I4119
sS'CCTAGC'
p3438
I3578
sS'TTTGCT'
p3439
I5838
sS'CGGGAG'
p3440
I3305
sS'TGCGGT'
p3441
I1341
sS'CCTAGG'
p3442
I5729
sS'CCCATG'
p3443
I10176
sS'ACGTTG'
p3444
I1524
sS'TGCGGC'
p3445
I4494
sS'TGCGGA'
p3446
I2374
sS'CCTAGT'
p3447
I1873
sS'TGCGGG'
p3448
I5137
sS'TTTGCG'
p3449
I1486
sS'TGAGTT'
p3450
I960
sS'TAGCTG'
p3451
I11226
sS'ATCGCT'
p3452
I1064
sS'TCTCGT'
p3453
I555
sS'ATCGCC'
p3454
I1946
sS'TGAGTG'
p3455
I5857
sS'ATCGCA'
p3456
I1368
sS'TGAGTA'
p3457
I5377
sS'ATCGCG'
p3458
I979
sS'TGAGTC'
p3459
I6118
sS'AAGGTG'
p3460
I10858
sS'ACGGCT'
p3461
I563
sS'CATCAT'
p3462
I4175
sS'AAGGTA'
p3463
I8736
sS'ACGGCA'
p3464
I1263
sS'CATCAC'
p3465
I8951
sS'ACGGCC'
p3466
I2019
sS'CATCAA'
p3467
I7563
sS'CATCAG'
p3468
I10207
sS'ACGGCG'
p3469
I906
sS'TCACCT'
p3470
I1460
sS'TCTAAG'
p3471
I5075
sS'TCGTTT'
p3472
I537
sS'CGGAAT'
p3473
I424
sS'CAATTC'
p3474
I3227
sS'ATCGAT'
p3475
I219
sS'TCACCG'
p3476
I599
sS'TCACCA'
p3477
I2651
sS'TCACCC'
p3478
I2636
sS'CGGAAG'
p3479
I3411
sS'CAACCC'
p3480
I2361
sS'AAAATA'
p3481
I12313
sS'CGGAAC'
p3482
I1521
sS'CGGAAA'
p3483
I1405
sS'TAGCTT'
p3484
I3127
sS'ATGGCG'
p3485
I1647
sS'TGTGTA'
p3486
I13276
sS'TGTGTG'
p3487
I25575
sS'ATGGCA'
p3488
I7790
sS'TTACTT'
p3489
I1508
sS'TTCAGA'
p3490
I17466
sS'ATGGCT'
p3491
I3256
sS'GCCCAT'
p3492
I1799
sS'TGTGTT'
p3493
I3900
sS'CCAAGT'
p3494
I1659
sS'GAACAT'
p3495
I814
sS'AGATTA'
p3496
I4201
sS'AGATTC'
p3497
I3070
sS'GAAACA'
p3498
I12774
sS'GAAACC'
p3499
I10122
sS'AAGATA'
p3500
I10023
sS'AGATAC'
p3501
I1353
sS'CTGAGT'
p3502
I6147
sS'GAAACT'
p3503
I5740
sS'AGAATG'
p3504
I9499
sS'AGAATA'
p3505
I6632
sS'AGAATC'
p3506
I4003
sS'CTGAGC'
p3507
I9504
sS'CTGAGA'
p3508
I9669
sS'CTGAGG'
p3509
I13758
sS'CATACC'
p3510
I7799
sS'CATACA'
p3511
I10623
sS'CATACG'
p3512
I1386
sS'TCAAAT'
p3513
I1236
sS'GTCCAT'
p3514
I2197
sS'ACATAG'
p3515
I1433
sS'CATACT'
p3516
I5797
sS'GTCCAG'
p3517
I9182
sS'TCAAAG'
p3518
I2912
sS'GTCCAC'
p3519
I5686
sS'GTCCAA'
p3520
I5370
sS'CGGCGG'
p3521
I6888
sS'TTGATG'
p3522
I8297
sS'ATCGAG'
p3523
I883
sS'CGGCGC'
p3524
I4485
sS'TTGATC'
p3525
I3897
sS'CGGCGA'
p3526
I1455
sS'ATCCCG'
p3527
I2433
sS'CGAGTG'
p3528
I1235
sS'AAACTG'
p3529
I6991
sS'TTGATT'
p3530
I2390
sS'CGGCGT'
p3531
I737
sS'CCATTA'
p3532
I3979
sS'TGACTT'
p3533
I914
sS'ATCCCC'
p3534
I7613
sS'CGGTTA'
p3535
I1219
sS'GGTTTA'
p3536
I8932
sS'CGGTTC'
p3537
I1840
sS'GGTTTC'
p3538
I10559
sS'CGGTTG'
p3539
I1876
sS'GGTTTG'
p3540
I11910
sS'CCATTG'
p3541
I4770
sS'TTCAGT'
p3542
I11505
sS'GCTGTG'
p3543
I14780
sS'GCTGTC'
p3544
I6243
sS'GTAAAT'
p3545
I2145
sS'GCTGTA'
p3546
I6869
sS'TATGCG'
p3547
I1259
sS'TCTCAA'
p3548
I6305
sS'AGGTTG'
p3549
I8250
sS'AGGTTC'
p3550
I5666
sS'AGGTTA'
p3551
I7167
sS'ATGAAA'
p3552
I6573
sS'GAGGGA'
p3553
I17404
sS'TTTTTC'
p3554
I17506
sS'GAGGGC'
p3555
I13737
sS'TTTTTA'
p3556
I26903
sS'TTTTTG'
p3557
I17873
sS'GAGGGG'
p3558
I19660
sS'TTAAAT'
p3559
I2686
sS'AGGTTT'
p3560
I3307
sS'TAAGCG'
p3561
I923
sS'TATGCC'
p3562
I7053
sS'TTAAAC'
p3563
I4323
sS'ATACGT'
p3564
I249
sS'TTAAAA'
p3565
I7584
sS'ACTCCG'
p3566
I1554
sS'TTAAAG'
p3567
I5767
sS'GAGGGT'
p3568
I4454
sS'TTTTTT'
p3569
I9363
sS'ACTCCC'
p3570
I5168
sS'CTGTAA'
p3571
I6351
sS'GTCACG'
p3572
I4151
sS'CTGTAC'
p3573
I4506
sS'GCAACT'
p3574
I1657
sS'GTCACC'
p3575
I15698
sS'CTGTAG'
p3576
I5572
sS'GTCACA'
p3577
I16350
sS'AGGGAT'
p3578
I1416
sS'GTCACT'
p3579
I11826
sS'TAGGCG'
p3580
I2035
sS'GCAACC'
p3581
I3271
sS'TAGGCA'
p3582
I9488
sS'GCAACA'
p3583
I3843
sS'TAGGCC'
p3584
I6583
sS'ATTCAT'
p3585
I2894
sS'TCCCAC'
p3586
I7808
sS'GCGATT'
p3587
I214
sS'TCGTGT'
p3588
I646
sS'TTCACT'
p3589
I13536
sS'GTCTCT'
p3590
I14327
sS'AACATT'
p3591
I8268
sS'ATTCAG'
p3592
I6965
sS'ATATTA'
p3593
I7981
sS'ATTCAA'
p3594
I5712
sS'ATTCAC'
p3595
I5204
sS'GTCTCC'
p3596
I19898
sS'CCACTA'
p3597
I2094
sS'TCGTGG'
p3598
I1501
sS'GCGATG'
p3599
I1474
sS'TTCACC'
p3600
I14923
sS'GCGATA'
p3601
I544
sS'TTCACA'
p3602
I19150
sS'GCGATC'
p3603
I671
sS'GAAGGC'
p3604
I6765
sS'GAAGGA'
p3605
I9021
sS'GAAGGG'
p3606
I10303
sS'CGATTA'
p3607
I473
sS'CAATCT'
p3608
I1949
sS'AGACTT'
p3609
I836
sS'GGAACA'
p3610
I4468
sS'GGAACG'
p3611
I1262
sS'TGACGA'
p3612
I357
sS'ATAGTA'
p3613
I3525
sS'TCATAC'
p3614
I1617
sS'GAAGGT'
p3615
I1995
sS'CTCGCT'
p3616
I3349
sS'CAATCG'
p3617
I744
sS'CAATCA'
p3618
I4506
sS'GGAACT'
p3619
I2430
sS'TCCTGA'
p3620
I16753
sS'AGTCCA'
p3621
I7196
sS'TCCTGC'
p3622
I22059
sS'AGTCCC'
p3623
I8440
sS'ACTAAA'
p3624
I4651
sS'TCCTGG'
p3625
I24653
sS'ACTAAC'
p3626
I3079
sS'TAACGC'
p3627
I591
sS'CAGCTG'
p3628
I19869
sS'CAGCTA'
p3629
I9288
sS'CAGCTC'
p3630
I14649
sS'ACTAAT'
p3631
I1562
sS'AGTCCT'
p3632
I4786
sS'TCCTGT'
p3633
I12316
sS'TAATGT'
p3634
I3835
sS'CAGCTT'
p3635
I3637
sS'TAACGT'
p3636
I344
sS'AGCGAT'
p3637
I735
sS'GTACTT'
p3638
I949
sS'CGACAT'
p3639
I71
sS'TTGTTC'
p3640
I11750
sS'CGCAAG'
p3641
I2494
sS'CCGAGG'
p3642
I3182
sS'CCGAGA'
p3643
I1238
sS'AGGAAG'
p3644
I16963
sS'CCGAGC'
p3645
I2044
sS'CCGCGT'
p3646
I371
sS'GTACTG'
p3647
I3592
sS'CGACAA'
p3648
I135
sS'GTACTC'
p3649
I2085
sS'GTACTA'
p3650
I2452
sS'CCGCGC'
p3651
I2737
sS'CCGAGT'
p3652
I611
sS'CCGCGA'
p3653
I837
sS'TACGCA'
p3654
I1994
sS'CCGCGG'
p3655
I2772
sS'TTGTTT'
p3656
I8964
sS'GCATAT'
p3657
I728
sS'TCCGTT'
p3658
I809
sS'AGCCAA'
p3659
I11652
sS'AATAAC'
p3660
I9100
sS'AATAAA'
p3661
I22371
sS'AATAAG'
p3662
I11102
sS'ATCGTT'
p3663
I444
sS'CGCCAT'
p3664
I1210
sS'GGATTG'
p3665
I2491
sS'AATAAT'
p3666
I6276
sS'CCAACC'
p3667
I4091
sS'CTCAGT'
p3668
I10259
sS'TTATGC'
p3669
I3574
sS'CCAACG'
p3670
I712
sS'GGGATT'
p3671
I1823
sS'CGCCGC'
p3672
I15223
sS'AGTAAA'
p3673
I10692
sS'CGCCGA'
p3674
I2868
sS'AGTAAC'
p3675
I6474
sS'CGCCGG'
p3676
I8148
sS'GAGTAA'
p3677
I9038
sS'AGTAAG'
p3678
I8451
sS'CTCAGG'
p3679
I24093
sS'CTAAAA'
p3680
I3285
sS'CTCAGC'
p3681
I22538
sS'CTCAGA'
p3682
I18507
sS'TATTGC'
p3683
I10044
sS'TCGAGA'
p3684
I690
sS'GTGTAG'
p3685
I4415
sS'TCGAGC'
p3686
I747
sS'AGTAAT'
p3687
I3917
sS'GTGTAC'
p3688
I4288
sS'CGCCGT'
p3689
I1607
sS'GTGGCA'
p3690
I11620
sS'CTCGGG'
p3691
I6596
sS'CTCGGA'
p3692
I2808
sS'GTGGCG'
p3693
I3883
sS'GCCGCC'
p3694
I15228
sS'GCCGCA'
p3695
I5110
sS'GCCGCG'
p3696
I7919
sS'ACACTT'
p3697
I758
sS'CTCGGT'
p3698
I1404
sS'AGATAT'
p3699
I878
sS'TCGCTC'
p3700
I1858
sS'GTGGCT'
p3701
I6920
sS'CATATA'
p3702
I10694
sS'TCAGCA'
p3703
I4449
sS'ACACTC'
p3704
I2169
sS'ACACTA'
p3705
I2321
sS'ACACTG'
p3706
I4483
sS'GCCGCT'
p3707
I3723
sS'ACCGGA'
p3708
I1602
sS'AAATAA'
p3709
I5976
sS'ACCGGC'
p3710
I2134
sS'CTTTAG'
p3711
I7550
sS'CTTTAA'
p3712
I10843
sS'ACCGGG'
p3713
I2608
sS'CTTTAC'
p3714
I6904
sS'CACGAG'
p3715
I2444
sS'CAGGTA'
p3716
I8010
sS'AACTTC'
p3717
I16630
sS'CAGGTC'
p3718
I6378
sS'CACGAC'
p3719
I1731
sS'AACTTG'
p3720
I18704
sS'CAGGTG'
p3721
I13166
sS'CTTTAT'
p3722
I4216
sS'AATCCC'
p3723
I9059
sS'AATCCA'
p3724
I9222
sS'AAATAT'
p3725
I2283
sS'AATCCG'
p3726
I1714
sS'TCAGCG'
p3727
I979
sS'CAGGTT'
p3728
I2128
sS'AACTTT'
p3729
I8409
sS'GTGTGN'
p3730
I1
sS'GGGATA'
p3731
I4013
sS'GGGATC'
p3732
I3337
sS'GGGTGT'
p3733
I3877
sS'GGGATG'
p3734
I8131
sS'GATGCT'
p3735
I6680
sS'CGCAGT'
p3736
I2437
sS'TCTGTA'
p3737
I9438
sS'ATTGGG'
p3738
I3110
sS'GAGCCT'
p3739
I8932
sS'GGAGAC'
p3740
I1615
sS'AACCGG'
p3741
I3064
sS'GGAGAA'
p3742
I1734
sS'GGGTGC'
p3743
I5036
sS'GGAGAG'
p3744
I2974
sS'AATCAA'
p3745
I9082
sS'GGGTGG'
p3746
I11926
sS'GAGCCA'
p3747
I17970
sS'CGCAGG'
p3748
I8887
sS'GATGCG'
p3749
I2722
sS'CGCAGA'
p3750
I4341
sS'GATGCA'
p3751
I10648
sS'GAGCCG'
p3752
I7754
sS'GATGCC'
p3753
I10096
sS'CGGATT'
p3754
I335
sS'GGTAGT'
p3755
I1995
sS'ACCCCT'
p3756
I3290
sS'GCCAAT'
p3757
I3446
sS'GGCGGG'
p3758
I19125
sS'AGAAGT'
p3759
I3398
sS'ACCCCA'
p3760
I6990
sS'GGTAGA'
p3761
I4880
sS'GCCAAA'
p3762
I7409
sS'CGGATG'
p3763
I2021
sS'GCCAAG'
p3764
I10976
sS'CGGATA'
p3765
I840
sS'ACCCCG'
p3766
I3025
sS'GGTAGG'
p3767
I6287
sS'AGAAGA'
p3768
I7547
sS'AGAAGC'
p3769
I6473
sS'GCAAGA'
p3770
I3524
sS'AGAAGG'
p3771
I10028
sS'CACTCC'
p3772
I21947
sS'CACTCA'
p3773
I21656
sS'CACTCG'
p3774
I4235
sS'TGCGTT'
p3775
I926
sS'TCAGCT'
p3776
I1988
sS'AGCTTT'
p3777
I9544
sS'CCCCGG'
p3778
I7163
sS'TGCGTA'
p3779
I1837
sS'TGCGTG'
p3780
I4725
sS'CCCCGA'
p3781
I2806
sS'AGCTTC'
p3782
I19531
sS'AGCTTA'
p3783
I13702
sS'AGCTTG'
p3784
I18225
sS'AGACCA'
p3785
I2120
sS'CCACTT'
p3786
I716
sS'TTAGCT'
p3787
I1960
sS'NTATAG'
p3788
I1
sS'TTAGCC'
p3789
I3479
sS'TTAGCA'
p3790
I4528
sS'CTAGCA'
p3791
I3756
sS'TTAGCG'
p3792
I632
sS'CTTCAT'
p3793
I2452
sS'AACTTA'
p3794
I15976
sS'TCATAT'
p3795
I1130
sS'AAGGGG'
p3796
I10829
sS'ATAAGG'
p3797
I4303
sS'TGTGCT'
p3798
I5294
sS'AAGGGC'
p3799
I8755
sS'ATAAGC'
p3800
I3174
sS'AAGGGA'
p3801
I11906
sS'ATAAGA'
p3802
I4666
sS'CCAGAC'
p3803
I1180
sS'CCAGAA'
p3804
I1177
sS'CCAGAG'
p3805
I2051
sS'GCAAGT'
p3806
I1665
sS'TGTGCG'
p3807
I2747
sS'CTACCT'
p3808
I1671
sS'ATAAGT'
p3809
I1973
sS'ATAGGG'
p3810
I1783
sS'TGTGCC'
p3811
I8883
sS'ATAGGA'
p3812
I1905
sS'TGTGCA'
p3813
I10565
sS'ATAGGC'
p3814
I1445
sS'TAAGTT'
p3815
I1220
sS'ATACGC'
p3816
I341
sS'CCAGAT'
p3817
I431
sS'AGACAA'
p3818
I1583
sS'AACAAG'
p3819
I14605
sS'CGTGGT'
p3820
I962
sS'AGACAG'
p3821
I2519
sS'GCTTTT'
p3822
I4073
sS'TTTTCT'
p3823
I13004
sS'CGCTGT'
p3824
I3369
sS'GACGCC'
p3825
I6679
sS'CGTGGG'
p3826
I3709
sS'CTATAG'
p3827
I2033
sS'CGTGGC'
p3828
I3201
sS'CGTGGA'
p3829
I1833
sS'TTTTCG'
p3830
I1826
sS'CGCTGA'
p3831
I4715
sS'CGCTGC'
p3832
I10812
sS'TTTTCC'
p3833
I18539
sS'TTTTCA'
p3834
I17381
sS'CGCTGG'
p3835
I8773
sS'TATGGA'
p3836
I5696
sS'TATGGC'
p3837
I4818
sS'CGTAGG'
p3838
I1770
sS'ATCGTC'
p3839
I1091
sS'AACAAA'
p3840
I25294
sS'TATGGG'
p3841
I5960
sS'CGTAGC'
p3842
I1499
sS'TACCGT'
p3843
I1095
sS'AAGTGT'
p3844
I6160
sS'TGGACT'
p3845
I4467
sS'CGTAGT'
p3846
I775
sS'TATGGT'
p3847
I2977
sS'TGGACA'
p3848
I8028
sS'TGGACC'
p3849
I5418
sS'TGGACG'
p3850
I1911
sS'CCGGTT'
p3851
I280
sS'GACCAA'
p3852
I8489
sS'TNTGCA'
p3853
I1
sS'GCTTGA'
p3854
I5835
sS'TGAGAC'
p3855
I1990
sS'GCTTGC'
p3856
I6231
sS'TGAGAA'
p3857
I2115
sS'TGAGAG'
p3858
I2431
sS'GCTTGG'
p3859
I8635
sS'CCTGTT'
p3860
I1937
sS'CGTCTC'
p3861
I4404
sS'CCGGTC'
p3862
I1171
sS'CCGGTA'
p3863
I838
sS'CCTGTC'
p3864
I6883
sS'CCTGTA'
p3865
I7536
sS'CCTGTG'
p3866
I13503
sS'CGTCTA'
p3867
I1591
sS'TGAGAT'
p3868
I739
sS'ATCGTA'
p3869
I1162
sS'GGTTGT'
p3870
I3323
sS'TAAACT'
p3871
I5377
sS'TATCAG'
p3872
I7637
sS'TACACG'
p3873
I2713
sS'TAGCGT'
p3874
I654
sS'GGTTGG'
p3875
I8175
sS'GGTTGA'
p3876
I5601
sS'GGTTGC'
p3877
I6007
sS'ACTATT'
p3878
I1415
sS'TCCCGC'
p3879
I7390
sS'TCCCGA'
p3880
I2549
sS'TCCCGG'
p3881
I7299
sS'TGCTAT'
p3882
I5433
sS'CGTTTT'
p3883
I1338
sS'ATTCTC'
p3884
I7404
sS'AGGGAA'
p3885
I5735
sS'ATTCTA'
p3886
I7939
sS'ATTCTG'
p3887
I10795
sS'TCATTT'
p3888
I2574
sS'GTAACT'
p3889
I3434
sS'CAGCGC'
p3890
I5317
sS'TATACT'
p3891
I6987
sS'TGCTAG'
p3892
I8390
sS'CAGCGG'
p3893
I5084
sS'CCTTGT'
p3894
I4025
sS'TCATTC'
p3895
I6843
sS'TCATTA'
p3896
I6582
sS'CGTTTA'
p3897
I2805
sS'ATTCTT'
p3898
I2861
sS'CGTTTC'
p3899
I3847
sS'TGGCAA'
p3900
I4232
sS'CCGATC'
p3901
I528
sS'TGGCAG'
p3902
I8002
sS'GGCCGT'
p3903
I1798
sS'GCTGAA'
p3904
I3913
sS'GCTGAC'
p3905
I4627
sS'TGGCAT'
p3906
I2239
sS'GGCCGG'
p3907
I11549
sS'GTTCAA'
p3908
I4322
sS'NNGATC'
p3909
I1
sS'CCGATG'
p3910
I958
sS'GGCCGC'
p3911
I11613
sS'GAACTT'
p3912
I1100
sS'GGCCGA'
p3913
I4029
sS'GGCAAT'
p3914
I3046
sS'CTATAA'
p3915
I2842
sS'CTGATT'
p3916
I2763
sS'NCCCAC'
p3917
I1
sS'CCATCG'
p3918
I674
sS'CTAAAT'
p3919
I1457
sS'CCATCC'
p3920
I5170
sS'CCATCA'
p3921
I3715
sS'CTGATC'
p3922
I4481
sS'CTGATA'
p3923
I6477
sS'GAGTTT'
p3924
I4949
sS'GGCAAC'
p3925
I7265
sS'GGCAAA'
p3926
I9447
sS'CTAAAG'
p3927
I3618
sS'CCATCT'
p3928
I3152
sS'CTAAAC'
p3929
I2793
sS'ACGAAT'
p3930
I210
sS'GACACC'
p3931
I13969
sS'GACACA'
p3932
I22486
sS'GACACG'
p3933
I4834
sS'CCAAGA'
p3934
I2939
sS'GCGCCT'
p3935
I1576
sS'CGTATA'
p3936
I1023
sS'TACGAG'
p3937
I1371
sS'TACGAC'
p3938
I1047
sS'GACACT'
p3939
I11703
sS'GGCGAT'
p3940
I565
sS'AGTCCG'
p3941
I1948
sS'TGTTAC'
p3942
I6981
sS'ACGCTG'
p3943
I2503
sS'GCATAA'
p3944
I1123
sS'ACGCTC'
p3945
I1455
sS'TCGATG'
p3946
I849
sS'TCGATA'
p3947
I433
sS'TCGATC'
p3948
I408
sS'CTATTT'
p3949
I3279
sS'CGCGAA'
p3950
I967
sS'GCATTG'
p3951
I4405
sS'GAACTG'
p3952
I6704
sS'GTCATG'
p3953
I14764
sS'TCGGCA'
p3954
I1069
sS'GCGCCC'
p3955
I5099
sS'AACCAA'
p3956
I10675
sS'TGCCGG'
p3957
I5263
sS'AACCAC'
p3958
I11999
sS'TGCCGC'
p3959
I5669
sS'AACCAG'
p3960
I11540
sS'TGCCGA'
p3961
I2104
sS'TTGGAC'
p3962
I2520
sS'CGTGAA'
p3963
I1174
sS'GAGTTC'
p3964
I9828
sS'TGCCGT'
p3965
I1568
sS'AACCAT'
p3966
I3914
sS'AACAGA'
p3967
I19437
sS'ACGTCG'
p3968
I548
sS'AACAGC'
p3969
I15194
sS'ACGTCC'
p3970
I1847
sS'AACAGG'
p3971
I18044
sS'ACGTCA'
p3972
I1870
sS'CCCAAG'
p3973
I8487
sS'TTGGAG'
p3974
I4895
sS'GACGAA'
p3975
I1885
sS'CCCAAC'
p3976
I6052
sS'ATTCGA'
p3977
I748
sS'CCCAAA'
p3978
I7036
sS'GGGAGG'
p3979
I23491
sS'GGGAGA'
p3980
I9555
sS'AACAGT'
p3981
I10184
sS'GGGAGC'
p3982
I9241
sS'ACGAAG'
p3983
I738
sS'CCCAAT'
p3984
I1896
sS'GACGAT'
p3985
I760
sS'GGGCGC'
p3986
I5581
sS'GGGCGA'
p3987
I2487
sS'GCATCA'
p3988
I3636
sS'GGGCGG'
p3989
I12810
sS'TCTCTT'
p3990
I3709
sS'GTACAG'
p3991
I1758
sS'CAGAAT'
p3992
I2707
sS'ACGACT'
p3993
I503
sS'TCTCTC'
p3994
I14342
sS'TCTCTA'
p3995
I10100
sS'TCTCTG'
p3996
I18484
sS'GGGCGT'
p3997
I1286
sS'CAGAAA'
p3998
I8712
sS'CAGAAC'
p3999
I6776
sS'GAATAA'
p4000
I3924
sS'ACGACG'
p4001
I431
sS'CAGAAG'
p4002
I10710
sS'TAAGTG'
p4003
I6788
sS'CACTTT'
p4004
I9793
sS'CATATT'
p4005
I4040
sS'CCTAAT'
p4006
I989
sS'GTCATT'
p4007
I6461
sS'CACTTG'
p4008
I20071
sS'CCTAAC'
p4009
I2734
sS'CTACCC'
p4010
I2757
sS'CCTAAA'
p4011
I3280
sS'CACTTC'
p4012
I21460
sS'CCTAAG'
p4013
I3940
sS'CACTTA'
p4014
I18679
sS'GCGGAT'
p4015
I166
sS'AATCCT'
p4016
I5808
sS'CTGCGG'
p4017
I5467
sS'AAGATT'
p4018
I2913
sS'CTCATG'
p4019
I17403
sS'GACTCG'
p4020
I5573
sS'CTCATC'
p4021
I14775
sS'GACTCC'
p4022
I19552
sS'CTCATA'
p4023
I13696
sS'GACTCA'
p4024
I39871
sS'ATAGGT'
p4025
I741
sS'CTCCAA'
p4026
I9614
sS'AAGATG'
p4027
I12786
sS'GACTCT'
p4028
I15066
sS'CTCATT'
p4029
I7870
sS'ATCGAA'
p4030
I628
sS'ATCGAC'
p4031
I535
sS'ATATTT'
p4032
I3357
sS'ACGGTA'
p4033
I683
sS'GGACTC'
p4034
I1761
sS'ATAGTT'
p4035
I853
sS'TACTGT'
p4036
I11746
sS'ATATTC'
p4037
I4717
sS'GATCGG'
p4038
I1807
sS'ATATTG'
p4039
I5855
sS'TACTGC'
p4040
I12556
sS'TACTGA'
p4041
I14787
sS'TACTGG'
p4042
I12568
sS'ATAGTG'
p4043
I3344
sS'ATAGAC'
p4044
I1084
sS'CAGGCA'
p4045
I16810
sS'CAGGCC'
p4046
I16817
sS'CATCCG'
p4047
I2371
sS'AGGAAA'
p4048
I11280
sS'CATCCA'
p4049
I10013
sS'CAGGCG'
p4050
I5839
sS'CATCCC'
p4051
I11013
sS'TTATGA'
p4052
I5554
sS'CAAGCT'
p4053
I2055
sS'CGGAGT'
p4054
I1124
sS'TTATGG'
p4055
I4609
sS'CATCCT'
p4056
I6944
sS'AGGAAT'
p4057
I3633
sS'CAGGCT'
p4058
I7368
sS'ACGGAT'
p4059
I124
sS'CGGAGA'
p4060
I2608
sS'CGGAGC'
p4061
I4693
sS'TTATGT'
p4062
I4194
sS'CGGAGG'
p4063
I6123
sS'ATGGAA'
p4064
I3227
sS'ATGGAC'
p4065
I1986
sS'ATGGAG'
p4066
I3677
sS'CGCTTG'
p4067
I4879
sS'CGCTTA'
p4068
I2631
sS'CGCTTC'
p4069
I6565
sS'TGAACA'
p4070
I6140
sS'ATGGAT'
p4071
I778
sS'CTATAT'
p4072
I1579
sS'TTTGCA'
p4073
I10432
sS'CGCTTT'
p4074
I2201
sS'GTAGTG'
p4075
I3520
sS'GATCGT'
p4076
I846
sS'TTTGCC'
p4077
I8484
sS'GAAAAG'
p4078
I9920
sS'TAAACC'
p4079
I6900
sS'GAAAAC'
p4080
I7262
sS'ATAGAT'
p4081
I579
sS'GAAAAA'
p4082
I7432
sS'AGACCT'
p4083
I1113
sS'ACGGTT'
p4084
I186
sS'GAAAAT'
p4085
I2534
sS'CAACAG'
p4086
I2209
sS'ACAAGG'
p4087
I4377
sS'GCCTAA'
p4088
I5835
sS'ACAAGA'
p4089
I3621
sS'ACAAGC'
p4090
I2750
sS'ACACGT'
p4091
I261
sS'CTGCGT'
p4092
I1257
sS'GCGGAG'
p4093
I2582
sS'CATAAG'
p4094
I7123
sS'GTCCCT'
p4095
I8068
sS'CATAAA'
p4096
I11237
sS'GCGGAC'
p4097
I876
sS'CATAAC'
p4098
I5858
sS'ACACGC'
p4099
I650
sS'ACAAGT'
p4100
I1798
sS'ACACGA'
p4101
I372
sS'ACACGG'
p4102
I623
sS'CATAAT'
p4103
I3572
sS'GTCCCA'
p4104
I11220
sS'GCACAT'
p4105
I448
sS'GTCCCC'
p4106
I12748
sS'CTGCGA'
p4107
I1837
sS'CTGCGC'
p4108
I4907
sS'CGGCAA'
p4109
I831
sS'CGGCAC'
p4110
I1450
sS'CGGCAG'
p4111
I2976
sS'CCTCCT'
p4112
I5377
sS'CGGCAT'
p4113
I319
sS'CCTCCC'
p4114
I15417
sS'CCTCCA'
p4115
I7320
sS'CCTCCG'
p4116
I3267
s.