(dp0
S'GAACGT'
p1
I12247
sS'CTTCTT'
p2
I106544
sS'CACCCT'
p3
I80498
sS'GAACGG'
p4
I13789
sS'GAACGC'
p5
I13623
sS'GAACGA'
p6
I10780
sS'CACCCA'
p7
I95038
sS'CTTCTA'
p8
I60027
sS'CACCCC'
p9
I88878
sS'CTTCTC'
p10
I108563
sS'CACCCG'
p11
I30974
sS'CTTCTG'
p12
I110307
sS'CGTGTG'
p13
I25904
sS'TAAGGT'
p14
I38223
sS'CGTGTC'
p15
I16697
sS'TGAGTG'
p16
I77006
sS'CGTGTA'
p17
I10274
sS'AGGCAA'
p18
I81210
sS'GGAAAT'
p19
I101763
sS'TAAGGG'
p20
I41211
sS'CGTGTT'
p21
I16964
sS'TAAGGC'
p22
I38418
sS'TAAGGA'
p23
I61025
sS'GACGTG'
p24
I17673
sS'GTCAAC'
p25
I31233
sS'GTCAAG'
p26
I42544
sS'CTGTCC'
p27
I79986
sS'TCAGAG'
p28
I103535
sS'CTGTCA'
p29
I78905
sS'CTCGCC'
p30
I34625
sS'CTGTCG'
p31
I16618
sS'TCAGAC'
p32
I55654
sS'TCAGAA'
p33
I106748
sS'GTCAAT'
p34
I34135
sS'GTATCA'
p35
I31944
sS'GGTGGN'
p36
I1
sS'GTATCC'
p37
I24263
sS'GTATCG'
p38
I4310
sS'CTGTCT'
p39
I104363
sS'GGTGTC'
p40
I43712
sS'GGTGTA'
p41
I27765
sS'GGTGTG'
p42
I76110
sS'TATCCT'
p43
I47482
sS'CCGGGG'
p44
I63444
sS'TTCTGT'
p45
I114952
sS'ATTCCT'
p46
I93139
sS'CCGGGC'
p47
I71152
sS'CCGGGA'
p48
I48118
sS'TATCCA'
p49
I44854
sS'TATCCC'
p50
I33917
sS'TGGTTG'
p51
I54965
sS'GGCGAG'
p52
I34627
sS'GGTGTT'
p53
I48657
sS'ATTCCG'
p54
I11564
sS'TTCTGG'
p55
I103472
sS'CCGGGT'
p56
I30322
sS'ATTCCC'
p57
I62022
sS'TTCTGC'
p58
I91424
sS'ATTCCA'
p59
I88647
sS'TTCTGA'
p60
I106717
sS'TGCACT'
p61
I64877
sS'GGNCCC'
p62
I1
sS'GGNCCG'
p63
I1
sS'CGTCAT'
p64
I11836
sS'CGCGGT'
p65
I16866
sS'CCCGCG'
p66
I49834
sS'CGCGGG'
p67
I49841
sS'NCCGCC'
p68
I1
sS'CGCGGC'
p69
I51174
sS'CGCGGA'
p70
I20903
sS'GTCCTT'
p71
I56504
sS'ACCTGT'
p72
I65132
sS'TCATGT'
p73
I67084
sS'CTCCGA'
p74
I19995
sS'TTACAG'
p75
I84736
sS'CTCCGC'
p76
I48493
sS'TTACAA'
p77
I71968
sS'TTACAC'
p78
I43427
sS'CTCCGG'
p79
I40060
sS'TCATGC'
p80
I58226
sS'ACCTGG'
p81
I87492
sS'GGCGAA'
p82
I14439
sS'TCATGG'
p83
I61821
sS'AGGGAA'
p84
I121256
sS'GCGCNN'
p85
I1
sS'ACCTGA'
p86
I63901
sS'TTACAT'
p87
I71265
sS'CTCGAT'
p88
I9026
sS'CTCCGT'
p89
I23156
sS'TCCANT'
p90
I1
sS'GCCTGA'
p91
I75387
sS'GCCTGC'
p92
I90954
sS'GCCTGG'
p93
I149446
sS'TCTTGC'
p94
I64945
sS'TAAAGG'
p95
I63612
sS'CAAATT'
p96
I83317
sS'TAAAGA'
p97
I86441
sS'TAAAGC'
p98
I55646
sS'GCCTGT'
p99
I83342
sS'CGTCAA'
p100
I8117
sS'TAAAGT'
p101
I69906
sS'CAAATA'
p102
I98980
sS'ACGTCC'
p103
I13821
sS'CAAATC'
p104
I60872
sS'TGCAAT'
p105
I59888
sS'CAAATG'
p106
I91833
sS'AATACT'
p107
I61710
sS'CGTCAC'
p108
I15539
sS'GGCATG'
p109
I66014
sS'GGCATA'
p110
I34349
sS'GGCATC'
p111
I45361
sS'AATACG'
p112
I10385
sS'AATACA'
p113
I84502
sS'AATACC'
p114
I41931
sS'GGCATT'
p115
I61714
sS'CGTCAG'
p116
I16613
sS'CTTGGT'
p117
I59434
sS'GAGCAC'
p118
I50593
sS'GAGCAA'
p119
I69694
sS'GAGCAG'
p120
I99153
sS'AGTAGT'
p121
I39476
sS'TCTCGC'
p122
I20734
sS'TCTCGA'
p123
I13877
sS'TCTCGG'
p124
I25295
sS'ACTGAG'
p125
I84893
sS'AGTAGA'
p126
I54651
sS'ACTGAC'
p127
I52524
sS'ACTGAA'
p128
I86460
sS'ACGGCC'
p129
I20094
sS'TCTCGT'
p130
I12847
sS'GTGTCG'
p131
I10227
sS'TCGAAC'
p132
I8800
sS'TCGAAA'
p133
I10115
sS'GTGTCC'
p134
I52064
sS'TCGAAG'
p135
I10715
sS'GTGTCA'
p136
I56697
sS'ATTTGC'
p137
I70952
sS'CTTGCT'
p138
I82598
sS'CCGTCT'
p139
I23424
sS'GTGTCT'
p140
I66393
sS'TTGAAG'
p141
I68358
sS'TCGAAT'
p142
I8387
sS'CTTGCG'
p143
I13075
sS'CTTGCA'
p144
I60373
sS'CTTGCC'
p145
I67675
sS'CGAAAG'
p146
I14367
sS'CGAAAA'
p147
I13775
sS'CGAAAC'
p148
I11327
sS'AATCAT'
p149
I76019
sS'AAATGC'
p150
I94724
sS'CACGGC'
p151
I25769
sS'AAATGA'
p152
I141909
sS'CCANTC'
p153
I1
sS'AAATGG'
p154
I95828
sS'CACGGG'
p155
I24828
sS'ACAGTA'
p156
I57008
sS'CGAAAT'
p157
I10600
sS'ACAGTT'
p158
I67882
sS'AATCAG'
p159
I72505
sS'AATCAA'
p160
I68511
sS'AAATGT'
p161
I129902
sS'AATCAC'
p162
I63417
sS'TTTGTA'
p163
I90037
sS'TCTAGT'
p164
I44331
sS'TTGCCG'
p165
I13446
sS'TTGCCA'
p166
I75108
sS'GGGTAT'
p167
I26769
sS'GGGTAC'
p168
I21651
sS'TCTAGG'
p169
I50613
sS'GGGTAA'
p170
I37964
sS'TCTAGA'
p171
I53912
sS'GGGTAG'
p172
I38666
sS'TCTAGC'
p173
I37912
sS'ATACGG'
p174
I7272
sS'TTTGTG'
p175
I100459
sS'TGGGCC'
p176
I76051
sS'TCGGGC'
p177
I23209
sS'TCGCCC'
p178
I28036
sS'AGNNNN'
p179
I1
sS'TCGCCA'
p180
I16441
sS'ATAGTC'
p181
I30065
sS'TCGCCG'
p182
I16016
sS'GGTAAT'
p183
I35656
sS'ACCCAT'
p184
I43973
sS'GTGTAT'
p185
I45452
sS'ACCCAC'
p186
I62577
sS'GGTAAC'
p187
I28735
sS'ACCCAA'
p188
I55516
sS'AGATGG'
p189
I82703
sS'ACCCAG'
p190
I99417
sS'GGTAAG'
p191
I38923
sS'TCGCCT'
p192
I20264
sS'AGATGC'
p193
I55920
sS'TTTGAG'
p194
I98302
sS'CCCCAT'
p195
I66272
sS'TTGGGT'
p196
I55500
sS'CACTAG'
p197
I40348
sS'CACTAA'
p198
I44801
sS'CACTAC'
p199
I31757
sS'CCCCAA'
p200
I78147
sS'CCCCAC'
p201
I106669
sS'CCCCAG'
p202
I135652
sS'CACTAT'
p203
I39602
sS'TTGGGG'
p204
I78111
sS'TCGGTT'
p205
I11122
sS'TTGGGA'
p206
I86914
sS'TTGGGC'
p207
I53548
sS'TGCCTG'
p208
I123673
sS'TGCAGA'
p209
I94148
sS'TTTCTG'
p210
I146100
sS'TGCAGC'
p211
I91122
sS'TTTCTA'
p212
I101761
sS'TTTCTC'
p213
I141036
sS'TGCAGG'
p214
I98420
sS'TGNNNN'
p215
I1
sS'GTATCT'
p216
I40082
sS'TTTCTT'
p217
I198145
sS'TGCCTT'
p218
I94125
sS'TGCAGT'
p219
I92299
sS'ACGATG'
p220
I11894
sS'TAGTGC'
p221
I28451
sS'AAGGAA'
p222
I149739
sS'AAGGAC'
p223
I56491
sS'AATGTC'
p224
I61570
sS'AAGGAG'
p225
I107235
sS'ATATGC'
p226
I40799
sS'GTTCCA'
p227
I54141
sS'ATATGA'
p228
I60511
sS'TACGAA'
p229
I8146
sS'ATATGG'
p230
I41348
sS'GAGTTC'
p231
I53523
sS'AAGGAT'
p232
I63891
sS'TGACTT'
p233
I81533
sS'GGTCCC'
p234
I57303
sS'GCCCAG'
p235
I141192
sS'GGTCCA'
p236
I38011
sS'GCCCAA'
p237
I53544
sS'GGTCCG'
p238
I16888
sS'AGGTCT'
p239
I57616
sS'TGTGTC'
p240
I74097
sS'AGACCC'
p241
I54716
sS'AGACCA'
p242
I66727
sS'AGACCG'
p243
I14684
sS'CTTCGC'
p244
I16823
sS'ATGCAA'
p245
I66076
sS'TCCGGG'
p246
I35953
sS'AGGTCA'
p247
I72377
sS'AAAGTT'
p248
I91382
sS'TCCGGC'
p249
I26923
sS'GGTCCT'
p250
I49523
sS'TCCGGA'
p251
I19495
sS'CTTAGC'
p252
I42233
sS'ATTGTG'
p253
I61995
sS'CTTAGA'
p254
I51793
sS'CCACTC'
p255
I69036
sS'CTTAGG'
p256
I46848
sS'ATTGTC'
p257
I41914
sS'AGACCT'
p258
I57625
sS'GCCTTT'
p259
I79446
sS'ATTTTG'
p260
I110349
sS'GAGGTG'
p261
I87205
sS'ATTTTA'
p262
I153243
sS'TAAATT'
p263
I98396
sS'ATTTTC'
p264
I121728
sS'TCCAGC'
p265
I102871
sS'TAGCAG'
p266
I52179
sS'GATACT'
p267
I31910
sS'TAGCAC'
p268
I35800
sS'TAGCAA'
p269
I52583
sS'TAAATA'
p270
I123917
sS'ATTTTT'
p271
I214101
sS'GCCTTG'
p272
I69932
sS'GTGGGG'
p273
I106627
sS'GCCTTA'
p274
I38403
sS'TTGACA'
p275
I55017
sS'GCCTTC'
p276
I73268
sS'GATACG'
p277
I6429
sS'TAGCAT'
p278
I45108
sS'GATACC'
p279
I22250
sS'GTGGGA'
p280
I83760
sS'TGAGCT'
p281
I82585
sS'ACGGAC'
p282
I10345
sS'GATCAT'
p283
I39564
sS'ACCGAG'
p284
I18469
sS'AAGACC'
p285
I50388
sS'GTGGGC'
p286
I65480
sS'AAGACG'
p287
I16139
sS'GATCAG'
p288
I41605
sS'TGAGCG'
p289
I20019
sS'CTCGAG'
p290
I16987
sS'GATCAC'
p291
I41733
sS'TGAGCC'
p292
I90052
sS'AAGACT'
p293
I66454
sS'GCGGTC'
p294
I16636
sS'GCGGTA'
p295
I8278
sS'CGTGCA'
p296
I18369
sS'GCGGTG'
p297
I34259
sS'CGGTGT'
p298
I15231
sS'TCGTTA'
p299
I7686
sS'TCGTTC'
p300
I10779
sS'CTTCCC'
p301
I128609
sS'TCGTTG'
p302
I9586
sS'GCGGTT'
p303
I13697
sS'ACTTGC'
p304
I49194
sS'ACCACC'
p305
I60293
sS'ACTTGA'
p306
I61174
sS'CGGTGG'
p307
I33326
sS'TCGTTT'
p308
I17055
sS'ACGGAA'
p309
I15904
sS'CGGTGC'
p310
I23306
sS'TTCCTA'
p311
I73888
sS'TAGACT'
p312
I37647
sS'TTCCTC'
p313
I123537
sS'ATGTGC'
p314
I54449
sS'TTCCTG'
p315
I146629
sS'TCCTTT'
p316
I125590
sS'GACCCA'
p317
I52863
sS'ACGCTA'
p318
I7304
sS'TAGACG'
p319
I7577
sS'TTCCTT'
p320
I149699
sS'TAGACC'
p321
I24283
sS'TAGACA'
p322
I46569
sS'TCCTTG'
p323
I82128
sS'TCCTTA'
p324
I61008
sS'TCCTTC'
p325
I108693
sS'ATCTCT'
p326
I82346
sS'ACCGTT'
p327
I9320
sS'TGGCGC'
p328
I29136
sS'TTTACG'
p329
I11093
sS'TGGCGA'
p330
I16444
sS'GGCCAT'
p331
I48822
sS'AATGCA'
p332
I85003
sS'ATCTCG'
p333
I13845
sS'ATCTCA'
p334
I76015
sS'ATCTCC'
p335
I61897
sS'GGCCAA'
p336
I67358
sS'GGCCAC'
p337
I72962
sS'AGGTAG'
p338
I49474
sS'ACCGTA'
p339
I7445
sS'TGGCGT'
p340
I16878
sS'ACCGTC'
p341
I11173
sS'ACCGAC'
p342
I8962
sS'AGAATT'
p343
I93304
sS'NGATCC'
p344
I1
sS'GGCAGT'
p345
I68971
sS'ANNAAC'
p346
I1
sS'CCATAA'
p347
I46105
sS'CAAAGG'
p348
I87739
sS'CCATAC'
p349
I26875
sS'CTAACT'
p350
I41517
sS'AGATTC'
p351
I56871
sS'CAAAGC'
p352
I79442
sS'CCATAG'
p353
I34913
sS'GGCAGA'
p354
I104127
sS'GGCAGC'
p355
I105805
sS'TAAGTT'
p356
I51858
sS'GGCAGG'
p357
I142630
sS'CAACGC'
p358
I11824
sS'CTAACA'
p359
I47387
sS'CAACGA'
p360
I9588
sS'CTAACC'
p361
I32300
sS'CAACGG'
p362
I11038
sS'CTAACG'
p363
I8099
sS'GGGGGT'
p364
I58199
sS'TACGCT'
p365
I7054
sS'GAAACC'
p366
I68226
sS'CGATCT'
p367
I11840
sS'NNNNNC'
p368
I3
sS'CTCTAG'
p369
I53804
sS'CTCTAA'
p370
I56403
sS'CTCTAC'
p371
I48296
sS'GGGGGG'
p372
I57988
sS'TACGCA'
p373
I7866
sS'TACGCC'
p374
I6991
sS'GGGGGC'
p375
I93426
sS'CGATCG'
p376
I3119
sS'GGGGGA'
p377
I81305
sS'TACGCG'
p378
I3511
sS'CTCTAT'
p379
I46837
sS'CAGACC'
p380
I59108
sS'CAGACA'
p381
I90133
sS'CAGACG'
p382
I20461
sS'CGCTAA'
p383
I7898
sS'TAGTTG'
p384
I35705
sS'GCTAAT'
p385
I41158
sS'TAGTTC'
p386
I37460
sS'TAGTTA'
p387
I39409
sS'CAGACT'
p388
I68953
sS'GCTAAG'
p389
I42246
sS'TAGTTT'
p390
I68765
sS'GCTAAC'
p391
I26275
sS'GCTAAA'
p392
I48457
sS'TGCATT'
p393
I85022
sS'TGCTGC'
p394
I97015
sS'AACCCT'
p395
I57674
sS'ATCNNN'
p396
I1
sS'AACCCC'
p397
I53027
sS'AACCCA'
p398
I67236
sS'TGCATA'
p399
I50326
sS'TGCATC'
p400
I47838
sS'AGATTT'
p401
I92561
sS'ACGTAA'
p402
I11252
sS'CTACAC'
p403
I34049
sS'AACTGA'
p404
I78969
sS'AGTTTA'
p405
I68882
sS'CCCAGA'
p406
I111930
sS'CCCAGC'
p407
I160729
sS'AGAATC'
p408
I62964
sS'CCCAGG'
p409
I169616
sS'AACTGT'
p410
I67880
sS'AGTTTT'
p411
I108507
sS'CTACAT'
p412
I43160
sS'AGTCAA'
p413
I60128
sS'CGAGTC'
p414
I16229
sS'CCCAGT'
p415
I80696
sS'TTGACG'
p416
I8113
sS'TATAAT'
p417
I67129
sS'AGACAT'
p418
I66745
sS'CGCATA'
p419
I5898
sS'ATACTG'
p420
I48388
sS'CGCATC'
p421
I11723
sS'ATACTA'
p422
I35455
sS'ATACTC'
p423
I33333
sS'CGCATG'
p424
I13621
sS'GCGCAA'
p425
I10776
sS'GCGAAT'
p426
I7614
sS'ATACTT'
p427
I58056
sS'CGCATT'
p428
I11017
sS'AGGCCC'
p429
I81978
sS'GCTCCG'
p430
I40824
sS'TATTGT'
p431
I59798
sS'GCTCCC'
p432
I91833
sS'GCTCCA'
p433
I77906
sS'CCTACT'
p434
I46040
sS'TGTACT'
p435
I47205
sS'TTTAGT'
p436
I68443
sS'TATTGG'
p437
I39652
sS'GCTCCT'
p438
I88541
sS'TATTGC'
p439
I41635
sS'TATTGA'
p440
I51789
sS'TTTAGG'
p441
I58737
sS'TGTACG'
p442
I7556
sS'CCTACG'
p443
I9721
sS'TGTACA'
p444
I55760
sS'CCTACA'
p445
I43462
sS'ACAGTG'
p446
I86226
sS'CCTACC'
p447
I43353
sS'TTCGCG'
p448
I6960
sS'TTCGCA'
p449
I9961
sS'TTCGCC'
p450
I14431
sS'AGTATC'
p451
I31913
sS'GACTAA'
p452
I46103
sS'AGTATA'
p453
I40844
sS'GACTAC'
p454
I26905
sS'AGTATG'
p455
I40784
sS'TTTGGA'
p456
I91910
sS'GACTAG'
p457
I29349
sS'TTCGCT'
p458
I13694
sS'GATCNN'
p459
I1
sS'TTTGGT'
p460
I73359
sS'GCCACA'
p461
I81550
sS'GACTAT'
p462
I30080
sS'AGTTTG'
p463
I76035
sS'AGTATT'
p464
I61722
sS'TTACTC'
p465
I56486
sS'TTACTA'
p466
I48421
sS'TTACTG'
p467
I65114
sS'ACCTTG'
p468
I59540
sS'ACCTTC'
p469
I57672
sS'ACCTTA'
p470
I38197
sS'TATATC'
p471
I34835
sS'TTACTT'
p472
I78521
sS'ACGCTT'
p473
I12631
sS'ACCTTT'
p474
I68747
sS'ACAGGG'
p475
I81198
sS'CTGGGA'
p476
I146715
sS'CTGGGC'
p477
I141206
sS'ACAGGC'
p478
I83397
sS'CTTTTA'
p479
I98176
sS'TTATAT'
p480
I76145
sS'CTGGGG'
p481
I135583
sS'AGGACG'
p482
I21737
sS'GCAGCT'
p483
I94641
sS'CAGGAA'
p484
I146656
sS'TCGCTT'
p485
I16489
sS'CAGGAG'
p486
I142030
sS'AGGACA'
p487
I81567
sS'GCGCAT'
p488
I11491
sS'TTATAC'
p489
I38099
sS'ACAGGT'
p490
I65149
sS'CTGGGT'
p491
I99406
sS'TTATAG'
p492
I50339
sS'TCGCTG'
p493
I22592
sS'GCAGCG'
p494
I43674
sS'AGGACT'
p495
I65012
sS'TCGCTC'
p496
I21229
sS'GCAGCC'
p497
I111639
sS'CAGGAT'
p498
I75136
sS'CCTCAG'
p499
I121193
sS'CCTCAA'
p500
I67405
sS'CCTCAC'
p501
I78125
sS'TATGTT'
p502
I66097
sS'ATGGGC'
p503
I46326
sS'TCTTTG'
p504
I99417
sS'ATGGGA'
p505
I69014
sS'TCTTTA'
p506
I86398
sS'ATGGGG'
p507
I66258
sS'TCTTTC'
p508
I120386
sS'CCTCAT'
p509
I70877
sS'TCTTTT'
p510
I157541
sS'TATGTG'
p511
I63682
sS'TATGTA'
p512
I59334
sS'ATGGGT'
p513
I43978
sS'TATGTC'
p514
I37720
sS'GAAAGA'
p515
I120393
sS'ATCAAG'
p516
I48092
sS'CATGAT'
p517
I55000
sS'ATCAAC'
p518
I35467
sS'GAAAGG'
p519
I101550
sS'ATCAAA'
p520
I71233
sS'CGCTAG'
p521
I9642
sS'ACGTGG'
p522
I25652
sS'CATGAG'
p523
I71713
sS'ATCAAT'
p524
I43341
sS'GTCCAA'
p525
I38265
sS'CATGAC'
p526
I54026
sS'ACCTGC'
p527
I71970
sS'GTAGCG'
p528
I8206
sS'CAAGTT'
p529
I63592
sS'GCGGCT'
p530
I38139
sS'GTAGCC'
p531
I31152
sS'GCTTTC'
p532
I75212
sS'ACGTGT'
p533
I18228
sS'GAGGAT'
p534
I61553
sS'AAAGTA'
p535
I83300
sS'GCGGCG'
p536
I71114
sS'CAAGTG'
p537
I67393
sS'GTAGCT'
p538
I44120
sS'GCGGCC'
p539
I62017
sS'CAAGTC'
p540
I52466
sS'GCGGCA'
p541
I27403
sS'CAAGTA'
p542
I47930
sS'AACGGT'
p543
I9317
sS'TAATCG'
p544
I6337
sS'CTTGTG'
p545
I65851
sS'TAATCA'
p546
I55090
sS'AGTCAT'
p547
I94439
sS'TAATCC'
p548
I53148
sS'TGCGAA'
p549
I9963
sS'CGGCCC'
p550
I59270
sS'CGACTA'
p551
I5139
sS'CGGCCA'
p552
I32136
sS'CGCTAT'
p553
I6742
sS'CGGCCG'
p554
I46596
sS'TCGTGA'
p555
I12474
sS'ATGAAG'
p556
I76489
sS'GGTCTG'
p557
I59096
sS'TAATCT'
p558
I54814
sS'GGTCTC'
p559
I60084
sS'GGTCTA'
p560
I24292
sS'CAGTCA'
p561
I75389
sS'AAAATG'
p562
I161943
sS'AAAATC'
p563
I94886
sS'CGGCCT'
p564
I40766
sS'TTCAGC'
p565
I75852
sS'TTCAGA'
p566
I98457
sS'TTCAGG'
p567
I85149
sS'GAACAT'
p568
I53788
sS'TCGTCG'
p569
I4725
sS'TTTAGC'
p570
I48438
sS'TGCCAA'
p571
I76934
sS'GAACAA'
p572
I67180
sS'ATCCCG'
p573
I16032
sS'GAACAC'
p574
I48328
sS'TCGTCT'
p575
I12969
sS'GAACAG'
p576
I69496
sS'ATCCCA'
p577
I76748
sS'GCACTT'
p578
I65907
sS'AACGGA'
p579
I13400
sS'CGGCTT'
p580
I21792
sS'CACCAC'
p581
I80900
sS'NNNCTG'
p582
I1
sS'CACCAA'
p583
I61317
sS'CACCAG'
p584
I84584
sS'AACATT'
p585
I95587
sS'AACGGG'
p586
I15042
sS'TCCGTC'
p587
I16798
sS'GAGTTA'
p588
I42018
sS'TCCGTA'
p589
I8085
sS'ACCAGA'
p590
I66154
sS'GTGNTN'
p591
I1
sS'ACGCGA'
p592
I5694
sS'CACCAT'
p593
I65137
sS'AACATG'
p594
I72541
sS'AACATA'
p595
I66067
sS'AACATC'
p596
I54312
sS'GTCAGN'
p597
I1
sS'TCAGCA'
p598
I92926
sS'GCACGG'
p599
I23047
sS'GTCAGA'
p600
I65062
sS'GCACGA'
p601
I12244
sS'CAGTCC'
p602
I61815
sS'GCACGC'
p603
I21432
sS'GCAAGT'
p604
I49187
sS'GCAAGC'
p605
I45891
sS'GCACGT'
p606
I17640
sS'CAGTCT'
p607
I73836
sS'TCAGCT'
p608
I90590
sS'GTCAGT'
p609
I52520
sS'TATCTA'
p610
I41797
sS'GTATAC'
p611
I22367
sS'TTCCGT'
p612
I15899
sS'ACGGCT'
p613
I15674
sS'GTATAG'
p614
I23847
sS'CCGGAA'
p615
I23650
sS'CCGGAC'
p616
I19542
sS'CCGGAG'
p617
I40062
sS'TATCAT'
p618
I48990
sS'CTCGTA'
p619
I7492
sS'TTCCGG'
p620
I23646
sS'TTCCGA'
p621
I13219
sS'TTCCGC'
p622
I19197
sS'GTATAT'
p623
I43322
sS'TATCAC'
p624
I36632
sS'TATCAA'
p625
I43479
sS'CGTCTG'
p626
I20462
sS'CCGGAT'
p627
I12629
sS'CTCTTC'
p628
I100336
sS'TGTTAT'
p629
I61219
sS'CTCTTA'
p630
I57347
sS'CTCTTG'
p631
I76695
sS'AGGGCT'
p632
I89909
sS'TACGTA'
p633
I8961
sS'TACGTC'
p634
I6454
sS'TCTGGT'
p635
I66163
sS'AACAAA'
p636
I155450
sS'CGCGAT'
p637
I6426
sS'TACGTG'
p638
I12800
sS'TGTTAG'
p639
I47434
sS'GGTTTC'
p640
I68287
sS'CTCGTG'
p641
I18047
sS'CTCTTT'
p642
I115281
sS'TGTTAA'
p643
I66596
sS'TCTGGG'
p644
I111924
sS'CGCGAC'
p645
I10147
sS'GATATT'
p646
I52484
sS'TCTGGC'
p647
I82032
sS'TACGTT'
p648
I10196
sS'CGCGAG'
p649
I18554
sS'AGTCGT'
p650
I9766
sS'TTACCT'
p651
I57641
sS'CTCCAT'
p652
I74109
sS'TTACCG'
p653
I8690
sS'CTCCAC'
p654
I85063
sS'CTCCAA'
p655
I77802
sS'TTACCC'
p656
I37952
sS'CTCCAG'
p657
I134689
sS'TTACCA'
p658
I52470
sS'AGTCGC'
p659
I12402
sS'CTCCAN'
p660
I1
sS'CCGACT'
p661
I14675
sS'GCCTAC'
p662
I28455
sS'GCCTAA'
p663
I35638
sS'GCCTAG'
p664
I42234
sS'CCGACA'
p665
I12227
sS'CCCTGT'
p666
I81218
sS'CCGACC'
p667
I19065
sS'CCGACG'
p668
I9603
sS'GCCTAT'
p669
I31046
sS'TGACGG'
p670
I13660
sS'ACGCTC'
p671
I14483
sS'CCCGAG'
p672
I39864
sS'CTCGTT'
p673
I13333
sS'CTAAGT'
p674
I45324
sS'GCTGTC'
p675
I61788
sS'CGCACA'
p676
I20083
sS'ATACAC'
p677
I45444
sS'CGCACC'
p678
I23492
sS'GGGTCG'
p679
I19103
sS'ACTGCT'
p680
I73180
sS'GGGTCA'
p681
I50436
sS'ATTGCC'
p682
I43736
sS'GGGTCC'
p683
I52044
sS'GAGCGT'
p684
I14485
sS'CTCACT'
p685
I99828
sS'GGGTCT'
p686
I54736
sS'ACTGCA'
p687
I92303
sS'TTTGTC'
p688
I74340
sS'ACTGCC'
p689
I68963
sS'CGCACT'
p690
I14859
sS'ATACAT'
p691
I65585
sS'ACTGCG'
p692
I19188
sS'NTNTGC'
p693
I1
sS'CTCACC'
p694
I83752
sS'CTCACA'
p695
I88831
sS'GTCAGG'
p696
I72165
sS'CTCACG'
p697
I24651
sS'TAGTGG'
p698
I41720
sS'GTGAGG'
p699
I78104
sS'GATTTT'
p700
I94878
sS'ACAATT'
p701
I63461
sS'GTGAGC'
p702
I70367
sS'TAGTGA'
p703
I47489
sS'GTGAGA'
p704
I71692
sS'TCGACG'
p705
I3175
sS'TCGACA'
p706
I6714
sS'TCGACC'
p707
I7503
sS'ACAATA'
p708
I59769
sS'GTGAGT'
p709
I77101
sS'TAGTGT'
p710
I38779
sS'GATTTC'
p711
I63780
sS'ACAATG'
p712
I68315
sS'TCGACT'
p713
I7667
sS'GTGGGN'
p714
I1
sS'CTGGTT'
p715
I71557
sS'TGCAAA'
p716
I96445
sS'TCAAAA'
p717
I109289
sS'CGAACG'
p718
I4794
sS'CGAACC'
p719
I9704
sS'CGAACA'
p720
I9443
sS'CGGNCC'
p721
I1
sS'CTGGTG'
p722
I84550
sS'CTGGTA'
p723
I44259
sS'CTGGTC'
p724
I62586
sS'CTGCAA'
p725
I81739
sS'CGAACT'
p726
I11734
sS'TTGCAT'
p727
I66096
sS'GACGAG'
p728
I14855
sS'NNGAAT'
p729
I1
sS'CGTCTT'
p730
I16145
sS'TTGCAG'
p731
I81792
sS'ACTCCT'
p732
I76833
sS'TTGCAC'
p733
I46329
sS'TTGCAA'
p734
I68275
sS'AAGATC'
p735
I45711
sS'ACGTAC'
p736
I7257
sS'GAGGGC'
p737
I87157
sS'TCGCAT'
p738
I7902
sS'GAGCGG'
p739
I36065
sS'GTCGTG'
p740
I10953
sS'GTCGTA'
p741
I4919
sS'GTCGTC'
p742
I9079
sS'CCGTTT'
p743
I18040
sS'ACTGAT'
p744
I52450
sS'GCCTCG'
p745
I37908
sS'GTCGTT'
p746
I8451
sS'TCAGAT'
p747
I69593
sS'TCGCAG'
p748
I18591
sS'CGAATT'
p749
I9513
sS'TCGCAC'
p750
I10211
sS'CCGTTG'
p751
I11038
sS'CCGTTA'
p752
I7275
sS'CCGTTC'
p753
I13799
sS'GATCGG'
p754
I8074
sS'AATGCT'
p755
I76376
sS'GGTACG'
p756
I6271
sS'GGTACA'
p757
I32075
sS'GGTACC'
p758
I21786
sS'TATTTG'
p759
I98975
sS'CCAGTT'
p760
I69969
sS'TATTTC'
p761
I97073
sS'TATTTA'
p762
I123890
sS'CCCCCT'
p763
I78283
sS'GGTACT'
p764
I26969
sS'AATGCG'
p765
I11016
sS'AATGCC'
p766
I61708
sS'GCCGTG'
p767
I25768
sS'CCCCCC'
p768
I58011
sS'CCCCCA'
p769
I100683
sS'TATTTT'
p770
I193740
sS'CCCCCG'
p771
I54096
sS'CTTGAG'
p772
I73218
sS'ATGATG'
p773
I65526
sS'ATGATA'
p774
I48935
sS'GCGTTA'
p775
I6969
sS'ATGATC'
p776
I39564
sS'CGGACT'
p777
I13477
sS'TGCAAC'
p778
I45726
sS'TTGAGT'
p779
I63840
sS'TGCAAG'
p780
I60389
sS'GCCGTC'
p781
I18609
sS'ATGATT'
p782
I76012
sS'CTTGAT'
p783
I48082
sS'CGAATC'
p784
I8568
sS'TTGAGG'
p785
I67354
sS'AATCTC'
p786
I61382
sS'CAATGT'
p787
I55378
sS'TTGAGC'
p788
I53123
sS'TTGAGA'
p789
I84836
sS'GAGAAT'
p790
I75001
sS'TGTCTT'
p791
I91681
sS'CGAATA'
p792
I6814
sS'AGTAGC'
p793
I43664
sS'AAGGCC'
p794
I65594
sS'ATAACC'
p795
I34888
sS'AAGGCA'
p796
I94099
sS'ATAACA'
p797
I61166
sS'AAGGCG'
p798
I24190
sS'TCCAGA'
p799
I92502
sS'GAGGGT'
p800
I61227
sS'TGTCTG'
p801
I90133
sS'GAGAAG'
p802
I108580
sS'GAGAAA'
p803
I141071
sS'TGTCTC'
p804
I86202
sS'GAGAAC'
p805
I58802
sS'TCACAC'
p806
I67775
sS'TGTGGC'
p807
I81561
sS'TGTGGA'
p808
I77368
sS'TGTGGG'
p809
I90187
sS'ATAACT'
p810
I52836
sS'AGTAGG'
p811
I46039
sS'CTGTAA'
p812
I84675
sS'AGGTAT'
p813
I44344
sS'ACCAAG'
p814
I59455
sS'GGTCAG'
p815
I67543
sS'ACCAAA'
p816
I73368
sS'ATCATC'
p817
I52199
sS'ACCAAC'
p818
I40545
sS'GGTCAC'
p819
I48416
sS'TAACGA'
p820
I7685
sS'GATCGC'
p821
I11038
sS'GGTCAT'
p822
I41921
sS'ACCAAT'
p823
I40354
sS'TGTGGT'
p824
I85551
sS'AGGTAA'
p825
I57644
sS'CAAACT'
p826
I76092
sS'TTTTGC'
p827
I85969
sS'TCTTAC'
p828
I46802
sS'AATTGG'
p829
I46691
sS'TCTTAA'
p830
I71869
sS'AATTGA'
p831
I54830
sS'TCTTAG'
p832
I54191
sS'AATTGC'
p833
I50117
sS'TAGCCA'
p834
I51790
sS'TGGGGT'
p835
I74589
sS'TAGCCC'
p836
I33397
sS'GATAAT'
p837
I45655
sS'CGCTCA'
p838
I20024
sS'TAGCCG'
p839
I10562
sS'AATTGT'
p840
I63474
sS'GCCATC'
p841
I49411
sS'TCTTAT'
p842
I59846
sS'TTTTGT'
p843
I145663
sS'CGCTCT'
p844
I26870
sS'GATAAA'
p845
I67684
sS'GATAAC'
p846
I27509
sS'TAGCCT'
p847
I46290
sS'TGGGGC'
p848
I96209
sS'GATAAG'
p849
I37572
sS'GATCCT'
p850
I45872
sS'AAGAAT'
p851
I99260
sS'TGTCTA'
p852
I46553
sS'CGAAGT'
p853
I11944
sS'GTTATC'
p854
I27509
sS'AAGAAC'
p855
I68117
sS'GATCCA'
p856
I40532
sS'AAGAAA'
p857
I198279
sS'TATTAG'
p858
I44744
sS'AAGAAG'
p859
I106544
sS'GATCCG'
p860
I12695
sS'GCCCCA'
p861
I96215
sS'ATGCCG'
p862
I11711
sS'CAAGGG'
p863
I66137
sS'CAAGGC'
p864
I69915
sS'GGTTCT'
p865
I55172
sS'CAAGGA'
p866
I82127
sS'GGCGCN'
p867
I1
sS'GGTTCA'
p868
I45502
sS'GCAACC'
p869
I40356
sS'GGTTCC'
p870
I48152
sS'AAGGCT'
p871
I77079
sS'AACCTT'
p872
I56318
sS'CTGTAT'
p873
I57499
sS'ATTATA'
p874
I67083
sS'ATTATC'
p875
I45642
sS'TAGAAT'
p876
I63434
sS'CAAACG'
p877
I15970
sS'ATTATG'
p878
I56066
sS'AGTCTT'
p879
I66440
sS'TAGAAA'
p880
I101808
sS'TAGAAC'
p881
I39630
sS'ATTATT'
p882
I105256
sS'TAGAAG'
p883
I60057
sS'AGTCTA'
p884
I37644
sS'AGTCTC'
p885
I65078
sS'GTTCTG'
p886
I70752
sS'AGTCTG'
p887
I68948
sS'TAACTC'
p888
I42042
sS'TAACTA'
p889
I39412
sS'TAACTG'
p890
I53969
sS'ATCTAT'
p891
I44975
sS'ACGCGT'
p892
I5433
sS'GCCCCG'
p893
I78572
sS'TAACTT'
p894
I63388
sS'ATCTAG'
p895
I38763
sS'ATCTAC'
p896
I33009
sS'ATCTAA'
p897
I47003
sS'CCATGT'
p898
I64282
sS'GCCCCC'
p899
I93440
sS'TGGAGG'
p900
I109581
sS'TGGAGA'
p901
I105298
sS'TGGAGC'
p902
I77918
sS'CCATGC'
p903
I54735
sS'CCATGA'
p904
I61830
sS'CCATGG'
p905
I64797
sS'TGGAGT'
p906
I78719
sS'ATTACG'
p907
I7915
sS'TCAGTA'
p908
I54890
sS'TCAGTC'
p909
I57848
sS'CTCTCT'
p910
I139758
sS'GGGGAT'
p911
I50080
sS'TCAGTG'
p912
I84566
sS'CGATAT'
p913
I5306
sS'GGNNNN'
p914
I1
sS'GGGGAA'
p915
I99301
sS'GGGGAC'
p916
I63340
sS'CTCTCC'
p917
I122090
sS'TCAGTT'
p918
I78981
sS'CTCTCA'
p919
I84376
sS'CGATAG'
p920
I4952
sS'CGATAA'
p921
I6417
sS'CGATAC'
p922
I4309
sS'CTAAGG'
p923
I46319
sS'GTGTTT'
p924
I90100
sS'GCTACT'
p925
I43628
sS'GTGGTT'
p926
I66104
sS'GTGTTC'
p927
I48326
sS'GTGTTA'
p928
I40326
sS'GTGTTG'
p929
I51652
sS'CGTGCC'
p930
I23481
sS'GTGGTA'
p931
I38689
sS'GCTACA'
p932
I39373
sS'GTGGTC'
p933
I42538
sS'GCTACC'
p934
I28605
sS'GTGGTG'
p935
I80828
sS'GCTACG'
p936
I8905
sS'GCCCCT'
p937
I87523
sS'TTTCGT'
p938
I13807
sS'GATCGT'
p939
I7407
sS'TGCCCT'
p940
I94794
sS'AGCGTT'
p941
I13739
sS'CGTGCG'
p942
I13695
sS'TGCCCC'
p943
I81220
sS'TTTCGC'
p944
I12073
sS'TGCCCG'
p945
I32786
sS'TTTCGG'
p946
I14004
sS'AGCGTA'
p947
I7051
sS'AGCGTC'
p948
I16103
sS'AGCGTG'
p949
I20455
sS'GGCCCC'
p950
I96566
sS'GGCCCA'
p951
I76032
sS'CACGTG'
p952
I30949
sS'GGCCCG'
p953
I51994
sS'CACGTA'
p954
I12807
sS'CACGTC'
p955
I17680
sS'CTACGC'
p956
I8082
sS'ACGTGA'
p957
I18660
sS'GGGACT'
p958
I61880
sS'ACAGTC'
p959
I53349
sS'CACGTT'
p960
I18761
sS'TTCACG'
p961
I15751
sS'GNCCCA'
p962
I1
sS'GGCCCT'
p963
I78906
sS'GGGACA'
p964
I68775
sS'CTGAAT'
p965
I81743
sS'GGGACC'
p966
I57301
sS'AGGGAC'
p967
I64551
sS'GTCTCA'
p968
I70897
sS'CTACGT'
p969
I9764
sS'AGAGAG'
p970
I139757
sS'AGAGAA'
p971
I142625
sS'AGAGAC'
p972
I78017
sS'TCTATA'
p973
I43543
sS'GTCTTT'
p974
I74506
sS'TCTATC'
p975
I35813
sS'TCTATG'
p976
I45318
sS'AGAGAT'
p977
I82356
sS'TCGTGC'
p978
I12258
sS'GTCTTG'
p979
I54519
sS'TCTATT'
p980
I66009
sS'GTCTTC'
p981
I57146
sS'GTCTTA'
p982
I38417
sS'GCAGAG'
p983
I121565
sS'GCTCAA'
p984
I53143
sS'GCTCAC'
p985
I70302
sS'GCAGAC'
p986
I51930
sS'GCAGAA'
p987
I91448
sS'GCTCAG'
p988
I94732
sS'AGACGT'
p989
I14414
sS'ATGCGT'
p990
I10427
sS'TTGCTG'
p991
I91123
sS'CTTGAC'
p992
I42546
sS'TTGCTA'
p993
I52538
sS'TTGCTC'
p994
I69680
sS'GCAGAT'
p995
I59781
sS'GCTCAT'
p996
I55133
sS'GTTTGC'
p997
I57614
sS'TTGCTT'
p998
I99366
sS'ATGCGG'
p999
I12436
sS'CGCTCC'
p1000
I40395
sS'ATGCGC'
p1001
I11488
sS'ATGCGA'
p1002
I7906
sS'TGTAAG'
p1003
I52332
sS'GGCTAG'
p1004
I36241
sS'ANANCA'
p1005
I1
sS'GTTTGA'
p1006
I59804
sS'TGTAAC'
p1007
I44303
sS'GGCTAC'
p1008
I31165
sS'GACTGT'
p1009
I53332
sS'CTGAAA'
p1010
I113825
sS'TACAAG'
p1011
I45180
sS'TTGGTA'
p1012
I42194
sS'ACTGTC'
p1013
I52030
sS'TTGGTC'
p1014
I41850
sS'TTCGAC'
p1015
I5881
sS'ACTGTG'
p1016
I86567
sS'TTGGTG'
p1017
I61267
sS'GACTGC'
p1018
I49627
sS'GGCTAT'
p1019
I32929
sS'GACTGA'
p1020
I57843
sS'GACTGG'
p1021
I63526
sS'TTCGAT'
p1022
I7484
sS'TTGGTT'
p1023
I68250
sS'ACTGTT'
p1024
I66876
sS'GTTTCT'
p1025
I100539
sS'ATAATT'
p1026
I85432
sS'CCTTTT'
p1027
I111496
sS'GTTTCG'
p1028
I11315
sS'GTTTCC'
p1029
I81769
sS'TGGGGG'
p1030
I100649
sS'ATAATG'
p1031
I62616
sS'CCTTTA'
p1032
I63601
sS'CCTTTC'
p1033
I101560
sS'ATAATC'
p1034
I45512
sS'NNNNGA'
p1035
I2
sS'ATAATA'
p1036
I80470
sS'CCTTTG'
p1037
I87742
sS'ACAGAA'
p1038
I114959
sS'CTCTCG'
p1039
I22429
sS'ACAGAC'
p1040
I64154
sS'ACAGAG'
p1041
I116876
sS'TTATCT'
p1042
I73501
sS'CTGGAC'
p1043
I62269
sS'CTGGAA'
p1044
I119694
sS'CTGGAG'
p1045
I134627
sS'ACAGAT'
p1046
I72697
sS'TTATCG'
p1047
I6410
sS'TTATCA'
p1048
I56835
sS'CTGGAT'
p1049
I66274
sS'TTATCC'
p1050
I41548
sS'CCAATG'
p1051
I44891
sS'AAACCG'
p1052
I15970
sS'AAACCA'
p1053
I99010
sS'CCAATC'
p1054
I38711
sS'AAACCC'
p1055
I68150
sS'CCAATA'
p1056
I39667
sS'TGTCGG'
p1057
I12219
sS'GAGATC'
p1058
I44280
sS'CCCTAT'
p1059
I33001
sS'GAGATA'
p1060
I48264
sS'TGTCGC'
p1061
I13653
sS'GAGATG'
p1062
I80287
sS'AACGAC'
p1063
I8459
sS'AAACCT'
p1064
I78445
sS'CCAATT'
p1065
I46692
sS'CTAGTT'
p1066
I40133
sS'TTGCCC'
p1067
I64212
sS'ATTTGG'
p1068
I78825
sS'CCCTAG'
p1069
I45340
sS'TGTCGT'
p1070
I10171
sS'CCCTAC'
p1071
I37970
sS'GAGATT'
p1072
I61408
sS'CCCTAA'
p1073
I44317
sS'CATTAT'
p1074
I62643
sS'TGTTTG'
p1075
I106797
sS'TGGATT'
p1076
I64980
sS'ATCACA'
p1077
I70211
sS'ATCACC'
p1078
I50467
sS'CATGCT'
p1079
I65046
sS'TGACAC'
p1080
I56715
sS'TGACAA'
p1081
I66121
sS'TGGATA'
p1082
I44832
sS'CATTAG'
p1083
I44992
sS'CATTAA'
p1084
I64173
sS'CATTAC'
p1085
I40684
sS'CATGCA'
p1086
I66096
sS'TGACAT'
p1087
I66765
sS'CATGCC'
p1088
I66005
sS'ATCACT'
p1089
I66149
sS'AATTAG'
p1090
I59030
sS'GTAGAA'
p1091
I50228
sS'GTAGAC'
p1092
I23925
sS'GTAGAG'
p1093
I48317
sS'GATTGG'
p1094
I38715
sS'ACAACC'
p1095
I41080
sS'GATTGC'
p1096
I34035
sS'ACAACG'
p1097
I10917
sS'ACTAAG'
p1098
I45014
sS'GTAGAT'
p1099
I32999
sS'TGCTAC'
p1100
I37062
sS'TTGCCT'
p1101
I81175
sS'ATGAGT'
p1102
I81665
sS'GATCAA'
p1103
I33475
sS'TTCAGT'
p1104
I86455
sS'ACAACT'
p1105
I53465
sS'GCGCGT'
p1106
I14645
sS'TAATAG'
p1107
I45609
sS'GTCCGG'
p1108
I19537
sS'TAATAC'
p1109
I40427
sS'GTCCGA'
p1110
I9186
sS'TAATAA'
p1111
I90566
sS'GTCCGC'
p1112
I17791
sS'TGTTTA'
p1113
I100996
sS'GATCCC'
p1114
I37815
sS'GANTGG'
p1115
I1
sS'CACATC'
p1116
I59159
sS'GTCCGT'
p1117
I10345
sS'TAATAT'
p1118
I69594
sS'CGTAAC'
p1119
I6539
sS'TGTTTC'
p1120
I98940
sS'ATTCGC'
p1121
I7610
sS'TTCTCC'
p1122
I112289
sS'TGAACT'
p1123
I67864
sS'TTCTCA'
p1124
I110943
sS'ATCCAT'
p1125
I49849
sS'TTCTCG'
p1126
I17337
sS'TCGTAC'
p1127
I4477
sS'TACCTT'
p1128
I50933
sS'TCGTAA'
p1129
I8144
sS'TCGTAG'
p1130
I7384
sS'GAACCT'
p1131
I46440
sS'ATCCAA'
p1132
I51962
sS'ATCCAC'
p1133
I47129
sS'TGAACC'
p1134
I45572
sS'TTCTCT'
p1135
I142608
sS'TGAACA'
p1136
I72333
sS'GAACCC'
p1137
I44681
sS'GAACCA'
p1138
I53344
sS'TACCTA'
p1139
I35733
sS'TACCTC'
p1140
I42096
sS'TCGTAT'
p1141
I6988
sS'ATGTTA'
p1142
I59634
sS'ACCATA'
p1143
I37156
sS'ACCATG'
p1144
I59633
sS'ATGTTG'
p1145
I64593
sS'AGCTCT'
p1146
I88184
sS'TGTCCT'
p1147
I81598
sS'AGTGGT'
p1148
I60335
sS'CGTGGT'
p1149
I22084
sS'AGATGT'
p1150
I64669
sS'ATGAGC'
p1151
I55162
sS'CTGTGG'
p1152
I111967
sS'ACCATT'
p1153
I52552
sS'CGTAAA'
p1154
I11092
sS'AGTGGA'
p1155
I68911
sS'AGTGGC'
p1156
I74174
sS'AGCTCC'
p1157
I86413
sS'AGCTCA'
p1158
I82531
sS'TCCATG'
p1159
I63805
sS'CAGTAA'
p1160
I65134
sS'CAGTAC'
p1161
I33920
sS'CAGTAG'
p1162
I51257
sS'AACGTT'
p1163
I15093
sS'TTTCAC'
p1164
I85404
sS'CAGTAT'
p1165
I48408
sS'GTTCCT'
p1166
I67774
sS'TGCCAG'
p1167
I100533
sS'NANCAC'
p1168
I1
sS'CCGGCT'
p1169
I39904
sS'GATCTA'
p1170
I25854
sS'GATCTC'
p1171
I44256
sS'ATTGAC'
p1172
I34139
sS'GATCTG'
p1173
I51643
sS'TCCCTT'
p1174
I98148
sS'CCGGCC'
p1175
I67246
sS'ATTAGG'
p1176
I40138
sS'CCGGCG'
p1177
I39325
sS'CACATT'
p1178
I86682
sS'GTTCCC'
p1179
I56600
sS'TCCCTC'
p1180
I113613
sS'GAGCTT'
p1181
I59912
sS'TCCCTA'
p1182
I51150
sS'TGCCAC'
p1183
I75196
sS'TCCCTG'
p1184
I123276
sS'GATCTT'
p1185
I45697
sS'AAGTGA'
p1186
I93839
sS'AAGTGC'
p1187
I65961
sS'TGTTCT'
p1188
I90431
sS'AAGTGG'
p1189
I72192
sS'TGATTG'
p1190
I50661
sS'TGCGCA'
p1191
I17410
sS'TCTGAT'
p1192
I68373
sS'TGATTA'
p1193
I55093
sS'TGTTCA'
p1194
I72337
sS'CACAAG'
p1195
I65876
sS'TGTTCC'
p1196
I66612
sS'AAGTGT'
p1197
I65573
sS'CACAAC'
p1198
I47259
sS'TGTTCG'
p1199
I9440
sS'TCTGAA'
p1200
I98492
sS'TCTGAC'
p1201
I65082
sS'AGACTA'
p1202
I39338
sS'TCTGAG'
p1203
I103592
sS'CGCGCC'
p1204
I51738
sS'CGCGCA'
p1205
I20099
sS'GGTAAA'
p1206
I53514
sS'CGCGCG'
p1207
I42559
sS'CTCCCT'
p1208
I140026
sS'AGCGGG'
p1209
I36045
sS'AGCGGA'
p1210
I20014
sS'AGCGGC'
p1211
I35692
sS'AGATGA'
p1212
I91857
sS'GAAATA'
p1213
I97046
sS'GACATT'
p1214
I61583
sS'CGCGCT'
p1215
I24136
sS'GTGCGA'
p1216
I10202
sS'ACCTCA'
p1217
I74030
sS'CTCCCA'
p1218
I132885
sS'GTGCGG'
p1219
I24621
sS'GCCTCT'
p1220
I96523
sS'TAAGCC'
p1221
I40951
sS'TAGCTC'
p1222
I40513
sS'CCCATG'
p1223
I59835
sS'CGGGAA'
p1224
I30750
sS'CCCATA'
p1225
I35960
sS'TAGCTG'
p1226
I60977
sS'CCCATC'
p1227
I65221
sS'CCGAGA'
p1228
I25306
sS'CCTGCT'
p1229
I112263
sS'ANTGGA'
p1230
I1
sS'CCGAAT'
p1231
I9740
sS'CCCATT'
p1232
I64688
sS'CGGGAT'
p1233
I16028
sS'TGGGTT'
p1234
I67247
sS'GCCTCA'
p1235
I88512
sS'TAAGCT'
p1236
I44073
sS'GCCTCC'
p1237
I130828
sS'CCGAAC'
p1238
I10226
sS'CCTGCG'
p1239
I39102
sS'CCGAAA'
p1240
I14009
sS'CCGAAG'
p1241
I19043
sS'CCTGCC'
p1242
I142631
sS'CCTGCA'
p1243
I98428
sS'GTACTG'
p1244
I33909
sS'CAAGGT'
p1245
I59549
sS'CTTCAT'
p1246
I76513
sS'CCATTC'
p1247
I61725
sS'CCATTA'
p1248
I43812
sS'TATAAA'
p1249
I103345
sS'TNNTAT'
p1250
I1
sS'TATAAC'
p1251
I35105
sS'GCNNNN'
p1252
I1
sS'GATTTG'
p1253
I60839
sS'CATTTC'
p1254
I111370
sS'GGTTCG'
p1255
I9695
sS'CGACAG'
p1256
I16631
sS'CCATTT'
p1257
I95823
sS'TCTACA'
p1258
I51480
sS'TCTACC'
p1259
I41147
sS'TCTACG'
p1260
I8183
sS'CACCGT'
p1261
I19214
sS'CGCAAC'
p1262
I9093
sS'TGCTTA'
p1263
I59695
sS'CGCAAA'
p1264
I13030
sS'ATACCG'
p1265
I6071
sS'CGCAAG'
p1266
I13080
sS'ATACCA'
p1267
I45711
sS'ATACCC'
p1268
I26759
sS'TCTACT'
p1269
I54625
sS'CCGAGT'
p1270
I19842
sS'ATACCT'
p1271
I44347
sS'CGCAAT'
p1272
I7827
sS'TAGTAA'
p1273
I48465
sS'TGGGTG'
p1274
I95042
sS'TAGTAC'
p1275
I21695
sS'CTCAAG'
p1276
I73218
sS'GTTTTG'
p1277
I87966
sS'CTCAAA'
p1278
I98425
sS'TAGTAG'
p1279
I34995
sS'CTCAAC'
p1280
I47383
sS'GTGTGC'
p1281
I58236
sS'GTGTGA'
p1282
I67776
sS'GTGTGG'
p1283
I78473
sS'TAACGG'
p1284
I7275
sS'CTCAAT'
p1285
I50483
sS'ATTACA'
p1286
I78754
sS'TAGTAT'
p1287
I35468
sS'CTCCCG'
p1288
I56025
sS'GTGTGT'
p1289
I148191
sS'ATCTTT'
p1290
I89635
sS'GTTGGG'
p1291
I55080
sS'GTTGGA'
p1292
I46576
sS'GTTGGC'
p1293
I44856
sS'CCTTGG'
p1294
I87035
sS'CCTTGA'
p1295
I62958
sS'GCGTAT'
p1296
I5813
sS'AGGATT'
p1297
I68168
sS'GGACGT'
p1298
I13816
sS'GTTGGT'
p1299
I40545
sS'ATCTTG'
p1300
I61141
sS'CTGNNN'
p1301
I1
sS'ATCTTA'
p1302
I51240
sS'ATCTTC'
p1303
I59411
sS'CCTTGT'
p1304
I64034
sS'AGGATA'
p1305
I47477
sS'AGGATG'
p1306
I80405
sS'GACATG'
p1307
I48084
sS'TANNAA'
p1308
I1
sS'GACATC'
p1309
I39231
sS'GACATA'
p1310
I37708
sS'TCGGCG'
p1311
I15167
sS'GAATAT'
p1312
I57698
sS'GGTGCA'
p1313
I50492
sS'TCGGCC'
p1314
I29351
sS'ATCAGA'
p1315
I68347
sS'TTGCGA'
p1316
I7960
sS'TTGCGC'
p1317
I10785
sS'TTGCGG'
p1318
I13742
sS'GAATAG'
p1319
I41160
sS'TCGGCT'
p1320
I21851
sS'CATAGA'
p1321
I45312
sS'GAATAC'
p1322
I35216
sS'GAATAA'
p1323
I73069
sS'CGTCGT'
p1324
I4919
sS'ATACAA'
p1325
I65142
sS'GGACGA'
p1326
I13376
sS'TGCCTC'
p1327
I98388
sS'ACGTCG'
p1328
I4756
sS'GGACGC'
p1329
I25504
sS'TTATAA'
p1330
I82064
sS'GAAATG'
p1331
I111344
sS'AATGAT'
p1332
I73632
sS'TGCCTA'
p1333
I50453
sS'GAAATC'
p1334
I63780
sS'NNNCCA'
p1335
I1
sS'ACCGGT'
p1336
I8411
sS'GAAATT'
p1337
I88341
sS'AATGAA'
p1338
I124140
sS'ATGTCC'
p1339
I45262
sS'AATGAC'
p1340
I72115
sS'CTCCCC'
p1341
I131461
sS'AATGAG'
p1342
I94646
sS'AGGAAA'
p1343
I173151
sS'ATGGTA'
p1344
I43001
sS'CTTGGA'
p1345
I74365
sS'CTTGGC'
p1346
I83272
sS'GTTTTC'
p1347
I92507
sS'CTTGGG'
p1348
I82985
sS'ATACAG'
p1349
I57499
sS'TTGTGA'
p1350
I71614
sS'GCGTAA'
p1351
I6520
sS'TTGAAT'
p1352
I76158
sS'GTCCTA'
p1353
I30293
sS'GTCCTC'
p1354
I58790
sS'TGCACG'
p1355
I18357
sS'TGCACA'
p1356
I77805
sS'GTCCTG'
p1357
I72241
sS'TGCACC'
p1358
I50508
sS'TTGAAA'
p1359
I108018
sS'TTGAAC'
p1360
I51987
sS'AGCCCA'
p1361
I92283
sS'AGCCCC'
p1362
I93443
sS'CTTATG'
p1363
I41336
sS'ATAAAT'
p1364
I127185
sS'TGGTCG'
p1365
I10160
sS'TGGTCA'
p1366
I59311
sS'TGGTCC'
p1367
I44359
sS'ACGATT'
p1368
I9160
sS'GAGACT'
p1369
I65057
sS'GATTCA'
p1370
I66965
sS'TGGTCT'
p1371
I66798
sS'ATAAAG'
p1372
I83101
sS'ATAAAA'
p1373
I160876
sS'ATGGTG'
p1374
I65063
sS'ATAAAC'
p1375
I71012
sS'GAGACG'
p1376
I25321
sS'GATTCG'
p1377
I8564
sS'CTACAG'
p1378
I56741
sS'GAGACC'
p1379
I60053
sS'ACGATC'
p1380
I7396
sS'GAGACA'
p1381
I86154
sS'ACGATA'
p1382
I6212
sS'GGTTAC'
p1383
I27717
sS'ATGTGT'
p1384
I81528
sS'GGTTAA'
p1385
I40655
sS'ACCACT'
p1386
I60348
sS'GGTTAG'
p1387
I32322
sS'CTTCCT'
p1388
I159831
sS'GAATGT'
p1389
I72190
sS'GAGGAC'
p1390
I58823
sS'CGTGAA'
p1391
I15758
sS'CTCAGT'
p1392
I84894
sS'TCCGCT'
p1393
I20015
sS'CTTCCA'
p1394
I99952
sS'ATGTGG'
p1395
I72017
sS'ATGTGA'
p1396
I76773
sS'CGTATG'
p1397
I7281
sS'ACCACA'
p1398
I85524
sS'GGTTAT'
p1399
I34909
sS'TCCGCC'
p1400
I39827
sS'TCCGCA'
p1401
I17654
sS'TCCGCG'
p1402
I20904
sS'AACGTC'
p1403
I11089
sS'AACGTA'
p1404
I10190
sS'AACGTG'
p1405
I18758
sS'CGTGAC'
p1406
I16059
sS'GGTAGC'
p1407
I28608
sS'AGTGTG'
p1408
I73323
sS'TCTTCG'
p1409
I14122
sS'AGTGTA'
p1410
I43024
sS'TCTTCA'
p1411
I89113
sS'AGTGTC'
p1412
I50906
sS'TCTTCC'
p1413
I112938
sS'TAAGTG'
p1414
I55869
sS'TAAGTC'
p1415
I37278
sS'TAAGTA'
p1416
I50729
sS'CCGTGA'
p1417
I18029
sS'TCTTCT'
p1418
I111933
sS'AGTGTT'
p1419
I68862
sS'AACCGG'
p1420
I13667
sS'GTGCGC'
p1421
I21849
sS'TTGGCA'
p1422
I76907
sS'AAAGGT'
p1423
I68708
sS'TTGGCC'
p1424
I67374
sS'GCTCGA'
p1425
I10234
sS'CTTATT'
p1426
I70325
sS'TTGGCG'
p1427
I15311
sS'GACTTC'
p1428
I54542
sS'TCGAGT'
p1429
I9751
sS'GACTTA'
p1430
I37270
sS'GACTTG'
p1431
I52458
sS'AAAGGG'
p1432
I90554
sS'AAAGGA'
p1433
I125531
sS'TTGGCT'
p1434
I82210
sS'AAAGGC'
p1435
I79429
sS'GAGTAC'
p1436
I24167
sS'GTATGG'
p1437
I26871
sS'NNNGAT'
p1438
I1
sS'GTCGAT'
p1439
I4762
sS'GACTTT'
p1440
I67159
sS'TTCTTT'
p1441
I184403
sS'CAAGAA'
p1442
I90582
sS'AGCGAG'
p1443
I27543
sS'CAAGAC'
p1444
I54549
sS'TCAGCG'
p1445
I21408
sS'CGTATT'
p1446
I10389
sS'TTCTTG'
p1447
I90498
sS'TTCTTC'
p1448
I111280
sS'TTCTTA'
p1449
I85611
sS'CAAGAT'
p1450
I61165
sS'CCCGAT'
p1451
I10006
sS'TACGGG'
p1452
I8323
sS'TACGGA'
p1453
I8091
sS'TACGGC'
p1454
I7238
sS'CCAACT'
p1455
I54986
sS'TAGAGT'
p1456
I42446
sS'TACGGT'
p1457
I7445
sS'AGGGCG'
p1458
I41151
sS'AGGGCA'
p1459
I94786
sS'AGGGCC'
p1460
I78912
sS'TAGAGC'
p1461
I38581
sS'TAGAGA'
p1462
I71396
sS'TAGAGG'
p1463
I52981
sS'GTGTAA'
p1464
I43438
sS'GTGCTG'
p1465
I91639
sS'GTGCTA'
p1466
I35805
sS'ATCTGT'
p1467
I72695
sS'GTGCTC'
p1468
I50596
sS'GGCGAC'
p1469
I20309
sS'ATCTGA'
p1470
I69581
sS'GTGCTT'
p1471
I61792
sS'ATCTGC'
p1472
I59788
sS'TCGAGG'
p1473
I16109
sS'CGAATG'
p1474
I10878
sS'CTAAGC'
p1475
I40129
sS'ATCATA'
p1476
I49273
sS'GATAGC'
p1477
I21770
sS'AAGCAG'
p1478
I103513
sS'GATAGA'
p1479
I35791
sS'AAGCAA'
p1480
I99385
sS'GATAGG'
p1481
I29352
sS'ATCATG'
p1482
I54998
sS'TTTACC'
p1483
I53508
sS'GTTATG'
p1484
I35347
sS'CTAGGT'
p1485
I39283
sS'CATTTA'
p1486
I97272
sS'ACGCAT'
p1487
I10425
sS'CATTTG'
p1488
I91812
sS'GTTATA'
p1489
I35097
sS'CAAACA'
p1490
I106808
sS'AAGCAT'
p1491
I68330
sS'CAAACC'
p1492
I61532
sS'GTGGCC'
p1493
I72953
sS'ATCATT'
p1494
I73629
sS'GATAGT'
p1495
I25648
sS'CTAGGG'
p1496
I45313
sS'GTTATT'
p1497
I59049
sS'CTAGGC'
p1498
I42244
sS'CATTTT'
p1499
I162011
sS'CTAGGA'
p1500
I53920
sS'AAGTTT'
p1501
I91367
sS'TACAGT'
p1502
I58999
sS'CTCGAA'
p1503
I14346
sS'CTCGGC'
p1504
I42812
sS'CTAAGA'
p1505
I54181
sS'GGGGCT'
p1506
I93458
sS'TACAGG'
p1507
I66033
sS'AAGTTG'
p1508
I59120
sS'GGATGC'
p1509
I44972
sS'AAGTTA'
p1510
I63369
sS'CAGTTA'
p1511
I53950
sS'AAGTTC'
p1512
I58041
sS'TACAGA'
p1513
I69342
sS'GGGGCC'
p1514
I96582
sS'GTATGA'
p1515
I37459
sS'GGGGCA'
p1516
I81216
sS'ATATGT'
p1517
I64827
sS'GGGGCG'
p1518
I84465
sS'AGCGGT'
p1519
I14138
sS'TTACGC'
p1520
I6521
sS'TATATA'
p1521
I87212
sS'TGTATA'
p1522
I54454
sS'TATATG'
p1523
I53579
sS'ACATCG'
p1524
I9295
sS'TCCGGT'
p1525
I13494
sS'TATATT'
p1526
I83226
sS'CGTCTA'
p1527
I7583
sS'CANTCC'
p1528
I1
sS'TGATGG'
p1529
I58318
sS'CATATG'
p1530
I48494
sS'TGATGC'
p1531
I47108
sS'GCCCAC'
p1532
I65499
sS'TGATGA'
p1533
I77351
sS'AGCATG'
p1534
I65030
sS'TGCCAT'
p1535
I68767
sS'ACTCTT'
p1536
I67372
sS'TCGTCA'
p1537
I9967
sS'CACATA'
p1538
I63695
sS'TTAATT'
p1539
I91244
sS'CACATG'
p1540
I75312
sS'TTTCAT'
p1541
I116721
sS'ATGAGA'
p1542
I80399
sS'TGATGT'
p1543
I62265
sS'AGTAAC'
p1544
I43374
sS'ATGAGG'
p1545
I70861
sS'TTAATA'
p1546
I76548
sS'ACTCTG'
p1547
I87461
sS'TTAATC'
p1548
I48944
sS'ACTCTA'
p1549
I42440
sS'ATTGTT'
p1550
I75131
sS'ACTCTC'
p1551
I57249
sS'TTAATG'
p1552
I64168
sS'AAATTC'
p1553
I92968
sS'AAATTA'
p1554
I117892
sS'AAATTG'
p1555
I78271
sS'CCAGTA'
p1556
I44383
sS'CTTCGA'
p1557
I10716
sS'CGTACC'
p1558
I6273
sS'AAATTT'
p1559
I129897
sS'TTCGAA'
p1560
I10291
sS'CTTAGT'
p1561
I44996
sS'GTCTAT'
p1562
I30037
sS'GGGAAC'
p1563
I56606
sS'GGTGCG'
p1564
I23483
sS'GGGAAA'
p1565
I120245
sS'GGGAAG'
p1566
I128612
sS'GGTGCC'
p1567
I57151
sS'TCGTCC'
p1568
I13375
sS'GCCCAT'
p1569
I46333
sS'AGAGCG'
p1570
I26876
sS'GCGACT'
p1571
I12399
sS'AGAGCC'
p1572
I82523
sS'AGAGCA'
p1573
I92356
sS'GCGTAG'
p1574
I8077
sS'GGTGCT'
p1575
I60539
sS'GCGTAC'
p1576
I5004
sS'GGGAAT'
p1577
I62033
sS'GCGACG'
p1578
I10986
sS'AGAGCT'
p1579
I88199
sS'GCGACA'
p1580
I13660
sS'TATCGG'
p1581
I4884
sS'GCGACC'
p1582
I15757
sS'AGGTCG'
p1583
I13796
sS'GCAGGA'
p1584
I109216
sS'GCAGGC'
p1585
I90930
sS'GCAGGG'
p1586
I120256
sS'CAATTT'
p1587
I78296
sS'GCACTA'
p1588
I28437
sS'CCGTGC'
p1589
I23044
sS'GCTCGG'
p1590
I31975
sS'TATTCT'
p1591
I74809
sS'CCGTGG'
p1592
I29387
sS'AAATAC'
p1593
I91654
sS'GCAGGT'
p1594
I71964
sS'TCTTGA'
p1595
I67632
sS'ACGTCT'
p1596
I14413
sS'TATTCC'
p1597
I50650
sS'CAATTG'
p1598
I36224
sS'TATTCA'
p1599
I74795
sS'CAATTA'
p1600
I49052
sS'TATTCG'
p1601
I6811
sS'CAATTC'
p1602
I51507
sS'TGTAGA'
p1603
I51474
sS'GGCTCA'
p1604
I89951
sS'TGTAGC'
p1605
I39393
sS'GGCTCC'
p1606
I95328
sS'ACCGGG'
p1607
I21213
sS'TGTAGG'
p1608
I43456
sS'GGCTCG'
p1609
I26928
sS'TTCGGA'
p1610
I11845
sS'TTCGGC'
p1611
I13121
sS'CTTTAC'
p1612
I51008
sS'TTCAAG'
p1613
I77647
sS'TTCGGG'
p1614
I17195
sS'CACGAG'
p1615
I18021
sS'GGCTCT'
p1616
I82510
sS'TTTCAG'
p1617
I113799
sS'TTTACT'
p1618
I90118
sS'AGCATA'
p1619
I44850
sS'ATTGTA'
p1620
I51866
sS'TTCGGT'
p1621
I10815
sS'GAGCAT'
p1622
I46739
sS'GTTTAT'
p1623
I71034
sS'GGGGAG'
p1624
I131490
sS'GCACTC'
p1625
I51777
sS'CGCTAC'
p1626
I8214
sS'GTTTAA'
p1627
I64686
sS'TCCAGG'
p1628
I115027
sS'CACGAA'
p1629
I13894
sS'GTTTAG'
p1630
I43083
sS'GAGGTA'
p1631
I42073
sS'CTGGCT'
p1632
I120067
sS'AGGCGG'
p1633
I55094
sS'AGGCGA'
p1634
I20256
sS'AGGCGC'
p1635
I35671
sS'AGGAGT'
p1636
I76800
sS'ACAGCC'
p1637
I81538
sS'ACAGCA'
p1638
I95262
sS'GAGGTC'
p1639
I55244
sS'ACAGCG'
p1640
I22759
sS'AGGAGC'
p1641
I88532
sS'AGGCGT'
p1642
I23211
sS'AGGAGA'
p1643
I121216
sS'GTGGGT'
p1644
I62548
sS'AGGAGG'
p1645
I151477
sS'CTGGCA'
p1646
I100528
sS'CTGGCC'
p1647
I114434
sS'GCGCCC'
p1648
I61969
sS'GCATCG'
p1649
I10154
sS'GGGGAN'
p1650
I1
sS'ACAGCT'
p1651
I83877
sS'GGAAAA'
p1652
I140380
sS'ATTGGT'
p1653
I40331
sS'AATTTT'
p1654
I149076
sS'AAACAG'
p1655
I117066
sS'TGTCAC'
p1656
I65810
sS'CCCTCT'
p1657
I107784
sS'GCTCTA'
p1658
I38569
sS'AAACAA'
p1659
I159176
sS'ATTGGG'
p1660
I39421
sS'AATTTA'
p1661
I98341
sS'AATTTC'
p1662
I88306
sS'AACGCC'
p1663
I14335
sS'AACGCA'
p1664
I13343
sS'AATTTG'
p1665
I83268
sS'CCCTCA'
p1666
I80697
sS'ATTTAA'
p1667
I115393
sS'TGTCAT'
p1668
I74925
sS'CCCTCG'
p1669
I33451
sS'GAGGTT'
p1670
I61297
sS'GGCGTT'
p1671
I14333
sS'TGACCA'
p1672
I59312
sS'CATTCT'
p1673
I96153
sS'TAAATC'
p1674
I56503
sS'TGACCG'
p1675
I12637
sS'ACCACG'
p1676
I22093
sS'CATTCG'
p1677
I10876
sS'TGACCT'
p1678
I72426
sS'CATTCA'
p1679
I87338
sS'TCCATA'
p1680
I43281
sS'TAAATG'
p1681
I97330
sS'ACAAAT'
p1682
I99305
sS'GATTAA'
p1683
I48963
sS'GTAGGC'
p1684
I28444
sS'GATTAC'
p1685
I42728
sS'CTGACA'
p1686
I72738
sS'GTAGGG'
p1687
I37951
sS'GATTAG'
p1688
I32343
sS'GAATGA'
p1689
I88938
sS'ACAAAC'
p1690
I78657
sS'TTTCAA'
p1691
I108022
sS'ACAAAA'
p1692
I145709
sS'ACAAAG'
p1693
I96898
sS'GCGGGC'
p1694
I60619
sS'GTCGGT'
p1695
I8960
sS'GCGGGA'
p1696
I43251
sS'GCGGGG'
p1697
I93865
sS'GATTAT'
p1698
I45552
sS'GTAGGT'
p1699
I34215
sS'AACCTG'
p1700
I70233
sS'TAATGA'
p1701
I67563
sS'GATGTT'
p1702
I54288
sS'TAATGC'
p1703
I41219
sS'GGGATG'
p1704
I66754
sS'TAATGG'
p1705
I43815
sS'GGCGTA'
p1706
I6993
sS'CGCAGT'
p1707
I19193
sS'GCCCTC'
p1708
I87169
sS'GATGTG'
p1709
I59153
sS'GATACA'
p1710
I40022
sS'GATGTA'
p1711
I33858
sS'GCCCTG'
p1712
I116314
sS'GATGTC'
p1713
I39231
sS'CAATAG'
p1714
I38937
sS'TGAAAT'
p1715
I114223
sS'NNTATA'
p1716
I1
sS'TTCTAG'
p1717
I63637
sS'TTCTAA'
p1718
I82096
sS'ATCCGT'
p1719
I9162
sS'TTCTAC'
p1720
I50212
sS'TGAAAA'
p1721
I138456
sS'TGAAAC'
p1722
I76092
sS'TGAAAG'
p1723
I95350
sS'TTCTAT'
p1724
I68816
sS'ATCCGC'
p1725
I12913
sS'ATCCGA'
p1726
I8273
sS'ATCCGG'
p1727
I12629
sS'TGGCTC'
p1728
I95440
sS'TGGCTA'
p1729
I51812
sS'NNNNCT'
p1730
I1
sS'TGGCTG'
p1731
I118388
sS'GTCGGA'
p1732
I9908
sS'AGTTGT'
p1733
I53441
sS'AGCTAT'
p1734
I45465
sS'ATTAGT'
p1735
I47199
sS'AAGACA'
p1736
I91669
sS'CTGGCG'
p1737
I34466
sS'CGTCGA'
p1738
I3172
sS'NNNNCA'
p1739
I1
sS'TGGCTT'
p1740
I95752
sS'AGTTGG'
p1741
I54976
sS'AGCTAA'
p1742
I52865
sS'AGCTAC'
p1743
I44134
sS'AGTTGC'
p1744
I44245
sS'AGTTGA'
p1745
I51941
sS'AGCTAG'
p1746
I42054
sS'CGTTGA'
p1747
I9136
sS'TCCAGT'
p1748
I72644
sS'GCACCT'
p1749
I58089
sS'CAGTGT'
p1750
I79515
sS'TAACAA'
p1751
I65364
sS'TCAGGT'
p1752
I63918
sS'TCAAGG'
p1753
I62943
sS'ACGCAC'
p1754
I15427
sS'TCAAGC'
p1755
I49733
sS'TCAAGA'
p1756
I67630
sS'CTAATA'
p1757
I44740
sS'CAGTGC'
p1758
I72648
sS'GCACCC'
p1759
I54107
sS'CAGTGA'
p1760
I104849
sS'CAGTGG'
p1761
I99151
sS'GCACCG'
p1762
I23306
sS'TCAAGT'
p1763
I61182
sS'TCAGGG'
p1764
I86197
sS'TCAGGA'
p1765
I98840
sS'TCAGGC'
p1766
I75368
sS'CGAGCT'
p1767
I18422
sS'CGTTGG'
p1768
I12953
sS'GTCGGC'
p1769
I15202
sS'GTTCAT'
p1770
I49157
sS'TTCCCT'
p1771
I121225
sS'AGTTNN'
p1772
I1
sS'CGAGCG'
p1773
I17764
sS'CGAGCA'
p1774
I15920
sS'GAGCCG'
p1775
I41302
sS'CGAGCC'
p1776
I26922
sS'TTCCCA'
p1777
I116120
sS'TTCCCC'
p1778
I99284
sS'GTTCAC'
p1779
I39965
sS'TTCCCG'
p1780
I30740
sS'TGAGCA'
p1781
I80887
sS'GGACCT'
p1782
I46009
sS'TACATG'
p1783
I50489
sS'AAGTAC'
p1784
I40279
sS'AAGTAA'
p1785
I78547
sS'TACATC'
p1786
I33868
sS'AAGTAG'
p1787
I54125
sS'TACATA'
p1788
I59355
sS'CATGGT'
p1789
I59584
sS'ATTTAT'
p1790
I127146
sS'AACGCT'
p1791
I13733
sS'GGACCA'
p1792
I44351
sS'CTTTCT'
p1793
I145431
sS'GGACCC'
p1794
I52058
sS'CACACG'
p1795
I25899
sS'TACATT'
p1796
I73505
sS'CACACC'
p1797
I76113
sS'GCACAA'
p1798
I51276
sS'CACACA'
p1799
I177486
sS'TCTGCC'
p1800
I104147
sS'TCTGCA'
p1801
I94112
sS'TCTGCG'
p1802
I23699
sS'TTTCGA'
p1803
I10115
sS'CCCGTC'
p1804
I24780
sS'TTAAGG'
p1805
I51220
sS'CCCGTA'
p1806
I8321
sS'TTAAGA'
p1807
I71812
sS'CCCGTG'
p1808
I24815
sS'TTAAGC'
p1809
I42691
sS'TTACGT'
p1810
I11255
sS'TAGATC'
p1811
I25865
sS'TGTCAA'
p1812
I55067
sS'TAGATA'
p1813
I41807
sS'TGCCCA'
p1814
I97654
sS'TAGATG'
p1815
I47555
sS'TCTGCT'
p1816
I102725
sS'CGTGCT'
p1817
I18832
sS'TTAAGT'
p1818
I63193
sS'TTACGA'
p1819
I8137
sS'TTACGG'
p1820
I8627
sS'CCCGTT'
p1821
I15044
sS'NNAACT'
p1822
I1
sS'AGTGAC'
p1823
I69331
sS'AGTGAA'
p1824
I84767
sS'AGTGAG'
p1825
I99894
sS'ACATTT'
p1826
I129918
sS'CGGGCG'
p1827
I50961
sS'AAACAC'
p1828
I90099
sS'TAAGAG'
p1829
I57385
sS'CGGGCC'
p1830
I51995
sS'TAAGAA'
p1831
I85682
sS'CGGGCA'
p1832
I32758
sS'TAAGAC'
p1833
I38451
sS'TGTCAG'
p1834
I72759
sS'AGTGAT'
p1835
I66168
sS'GGGNCC'
p1836
I1
sS'TAAGAT'
p1837
I51259
sS'CCTGAA'
p1838
I85172
sS'CGGGCT'
p1839
I37584
sS'CCTGAG'
p1840
I113027
sS'GTTAGG'
p1841
I34715
sS'GCCAAC'
p1842
I44831
sS'TATACT'
p1843
I40859
sS'GTTAGC'
p1844
I26284
sS'GTTAGA'
p1845
I36686
sS'GNNNNN'
p1846
I3
sS'GCCAAA'
p1847
I71061
sS'TATACG'
p1848
I6117
sS'GTTAGT'
p1849
I31708
sS'TATACC'
p1850
I26242
sS'TATACA'
p1851
I54442
sS'ATTGGC'
p1852
I42681
sS'CGTATA'
p1853
I6122
sS'TCTTGT'
p1854
I69371
sS'TCCACG'
p1855
I21743
sS'ACTAGT'
p1856
I29351
sS'TTTATT'
p1857
I184623
sS'GTAATA'
p1858
I44309
sS'ATTGGA'
p1859
I47458
sS'GTAATC'
p1860
I42687
sS'GTACAG'
p1861
I41910
sS'TCTAAC'
p1862
I36679
sS'CGTTCT'
p1863
I16304
sS'CCACCG'
p1864
I33347
sS'CGGATC'
p1865
I12679
sS'CCACCA'
p1866
I93438
sS'CCACCC'
p1867
I112393
sS'GTTCGT'
p1868
I8058
sS'TTTATG'
p1869
I86454
sS'ACTAGG'
p1870
I36697
sS'GTAACG'
p1871
I7003
sS'TTTATC'
p1872
I67655
sS'ACTAGC'
p1873
I26841
sS'TTTATA'
p1874
I103279
sS'ACTAGA'
p1875
I44324
sS'CCACCT'
p1876
I101572
sS'CGTTCG'
p1877
I4795
sS'ACTTGT'
p1878
I54150
sS'CGTTCA'
p1879
I12187
sS'TCAAAC'
p1880
I59828
sS'CGTTCC'
p1881
I17171
sS'TCTAAT'
p1882
I52559
sS'CTTTGT'
p1883
I96864
sS'CCCTCC'
p1884
I150854
sS'ACTGGA'
p1885
I72626
sS'ACTGGC'
p1886
I60726
sS'TAGTCC'
p1887
I31062
sS'GTGACC'
p1888
I48400
sS'TAGTCA'
p1889
I56894
sS'GTGACA'
p1890
I65775
sS'TAGTCG'
p1891
I5140
sS'GTGACG'
p1892
I15532
sS'ATTTAG'
p1893
I63782
sS'ACTGGT'
p1894
I49027
sS'CTTTGG'
p1895
I95933
sS'NTGGAG'
p1896
I1
sS'GTATTT'
p1897
I91694
sS'TGGNNN'
p1898
I1
sS'CTTTGC'
p1899
I80035
sS'ACGTGC'
p1900
I17637
sS'GTGACT'
p1901
I84098
sS'TAGTCT'
p1902
I39351
sS'GTGCAC'
p1903
I41362
sS'GCGCTT'
p1904
I17807
sS'ACCTAG'
p1905
I39285
sS'GCAATT'
p1906
I50090
sS'ACCTAA'
p1907
I41990
sS'CGACGC'
p1908
I10051
sS'ACCTAC'
p1909
I34225
sS'CCGCAG'
p1910
I44610
sS'CCGCAA'
p1911
I13739
sS'CCGCAC'
p1912
I24631
sS'CTACGG'
p1913
I9136
sS'CGAAGC'
p1914
I15905
sS'GCGCTG'
p1915
I41372
sS'CGAAGA'
p1916
I14131
sS'CCCCGT'
p1917
I25388
sS'CGAAGG'
p1918
I18689
sS'GCGCTC'
p1919
I33273
sS'GTGCAT'
p1920
I45663
sS'GCGCTA'
p1921
I8493
sS'NCTGAC'
p1922
I1
sS'CCGCAT'
p1923
I12431
sS'GTTCGC'
p1924
I8542
sS'GAAGAT'
p1925
I59415
sS'GGATCT'
p1926
I42783
sS'CTTCCG'
p1927
I26973
sS'TCATGA'
p1928
I69099
sS'TCGGAA'
p1929
I13216
sS'TCGGAC'
p1930
I9191
sS'GAATCT'
p1931
I56906
sS'TCGGAG'
p1932
I20006
sS'GGATCG'
p1933
I10540
sS'GAAGAG'
p1934
I100317
sS'GAAGAA'
p1935
I111301
sS'GTTCGG'
p1936
I10224
sS'GAAGAC'
p1937
I57156
sS'GGATCA'
p1938
I43753
sS'GGATCN'
p1939
I1
sS'GAATCA'
p1940
I73971
sS'GAATCC'
p1941
I44862
sS'TCGGAT'
p1942
I8265
sS'NNNCAG'
p1943
I1
sS'GAATCG'
p1944
I10979
sS'ATGGTC'
p1945
I33574
sS'CAGATG'
p1946
I87043
sS'ACGCCG'
p1947
I13546
sS'TGACCC'
p1948
I50450
sS'ACGCCA'
p1949
I16887
sS'CAGATC'
p1950
I51638
sS'ACGCCC'
p1951
I27405
sS'TGCGTG'
p1952
I22698
sS'CAATCG'
p1953
I7564
sS'CTATCT'
p1954
I42974
sS'CAGATT'
p1955
I71614
sS'CTCGAC'
p1956
I9631
sS'ATGGTT'
p1957
I51336
sS'TCGCAA'
p1958
I7960
sS'TGCGTC'
p1959
I14401
sS'CCGGTA'
p1960
I8118
sS'GCGTGG'
p1961
I33917
sS'AATGGT'
p1962
I52528
sS'TGTGNT'
p1963
I1
sS'GGGACG'
p1964
I28505
sS'AATGGC'
p1965
I56538
sS'AATGGA'
p1966
I77172
sS'AATGGG'
p1967
I64652
sS'GTCAAA'
p1968
I52324
sS'CCCCGA'
p1969
I30251
sS'AATAGA'
p1970
I66005
sS'GNTNTG'
p1971
I1
sS'AACGCG'
p1972
I7580
sS'AATAGC'
p1973
I46226
sS'ATTTAC'
p1974
I69602
sS'GTGAAT'
p1975
I61282
sS'TTGACC'
p1976
I36906
sS'NAACTA'
p1977
I1
sS'GGAGGG'
p1978
I150851
sS'AAAAGT'
p1979
I107858
sS'GGAGGA'
p1980
I138690
sS'GGAGGC'
p1981
I130814
sS'TGGTAG'
p1982
I42633
sS'CATTCC'
p1983
I82604
sS'GAGTGT'
p1984
I52293
sS'TGGTAC'
p1985
I27344
sS'TGGTAA'
p1986
I52492
sS'AAAAGG'
p1987
I111481
sS'GGAGGT'
p1988
I78420
sS'AGCCAT'
p1989
I65930
sS'AAAAGC'
p1990
I94594
sS'AGCCAA'
p1991
I82234
sS'AAAAGA'
p1992
I157565
sS'TTGACT'
p1993
I60114
sS'GAGTGG'
p1994
I69031
sS'CGCCAG'
p1995
I34474
sS'TGGTAT'
p1996
I45756
sS'ACGCCT'
p1997
I23191
sS'GAGTGC'
p1998
I51700
sS'CGCCAC'
p1999
I31149
sS'GAGTGA'
p2000
I73872
sS'GCCAGG'
p2001
I135874
sS'GCCAGA'
p2002
I82033
sS'GCCAGC'
p2003
I90929
sS'GCCCGT'
p2004
I18352
sS'CAATCC'
p2005
I39863
sS'TACCGA'
p2006
I6586
sS'TACCGC'
p2007
I8277
sS'TACCGG'
p2008
I8122
sS'GCCCGC'
p2009
I60652
sS'GCCAGT'
p2010
I60712
sS'GCCCGA'
p2011
I23215
sS'GCCCGG'
p2012
I71182
sS'TGCGAT'
p2013
I9190
sS'CTTCAC'
p2014
I63767
sS'CTTCAA'
p2015
I68360
sS'TACCGT'
p2016
I7648
sS'TCCGAG'
p2017
I21096
sS'TCCGAA'
p2018
I11845
sS'TCCGAC'
p2019
I9909
sS'AATTCA'
p2020
I86209
sS'AATTCC'
p2021
I74031
sS'AATTCG'
p2022
I9509
sS'TCCGAT'
p2023
I7830
sS'NTCCCC'
p2024
I1
sS'TAGCGG'
p2025
I9642
sS'AATTCT'
p2026
I93294
sS'TAGCGC'
p2027
I8492
sS'GTCATC'
p2028
I53244
sS'GTCATA'
p2029
I43737
sS'GTAGGA'
p2030
I41916
sS'GTCATG'
p2031
I54010
sS'GTGCAN'
p2032
I1
sS'AGCAGG'
p2033
I112263
sS'CCAGGT'
p2034
I87491
sS'TTGGAA'
p2035
I92265
sS'TTNNTA'
p2036
I1
sS'AGCAGC'
p2037
I107373
sS'AGCAGA'
p2038
I102701
sS'GTCATT'
p2039
I72158
sS'ACGACC'
p2040
I8558
sS'CCAGGG'
p2041
I126848
sS'AGCAGT'
p2042
I73167
sS'CCAGGA'
p2043
I132867
sS'CCAGGC'
p2044
I149432
sS'TTGGAT'
p2045
I51952
sS'ACGGTA'
p2046
I7644
sS'CATCTG'
p2047
I87037
sS'ACGGTC'
p2048
I9722
sS'CATCTA'
p2049
I47546
sS'ATAGAC'
p2050
I30026
sS'CATCTC'
p2051
I80264
sS'ATAGAA'
p2052
I68807
sS'GGATGG'
p2053
I66155
sS'CAAGCC'
p2054
I62461
sS'CATCTT'
p2055
I80311
sS'CAAGCA'
p2056
I70781
sS'CAAGCG'
p2057
I17337
sS'CCTGGC'
p2058
I135893
sS'TATANN'
p2059
I1
sS'GTTCTT'
p2060
I68113
sS'ACATGA'
p2061
I67089
sS'CGTAAT'
p2062
I7918
sS'ACATGC'
p2063
I52867
sS'ACATGG'
p2064
I64265
sS'AGGGAT'
p2065
I60269
sS'GTAAAC'
p2066
I48073
sS'TGGCGG'
p2067
I35915
sS'CGTAAG'
p2068
I9007
sS'AAACTG'
p2069
I100936
sS'ACATGT'
p2070
I62183
sS'GTTCTA'
p2071
I39613
sS'GTTCTC'
p2072
I58782
sS'AGGGAG'
p2073
I140037
sS'ATCCTT'
p2074
I63892
sS'CCCGCC'
p2075
I105340
sS'CCCGCA'
p2076
I33072
sS'CCCTTT'
p2077
I90599
sS'AGCGCA'
p2078
I18590
sS'TCTTGG'
p2079
I80853
sS'GTTGTT'
p2080
I58919
sS'ATTAGC'
p2081
I41117
sS'TGGATC'
p2082
I40510
sS'TTGTCG'
p2083
I8101
sS'TTGTCC'
p2084
I52236
sS'TTGTCA'
p2085
I66070
sS'ATCCTC'
p2086
I61569
sS'GTTGTA'
p2087
I34276
sS'ATCCTA'
p2088
I41362
sS'GTTGTC'
p2089
I34253
sS'ATCCTG'
p2090
I75106
sS'GTTGTG'
p2091
I47246
sS'TTGTCT'
p2092
I77022
sS'CTATGC'
p2093
I31485
sS'CCACTG'
p2094
I99247
sS'TGACTA'
p2095
I56901
sS'AAGGGG'
p2096
I76893
sS'TGACTC'
p2097
I114159
sS'TGGGCA'
p2098
I97619
sS'TGGGCG'
p2099
I40612
sS'TGACTG'
p2100
I75378
sS'AAGCCG'
p2101
I21786
sS'AAGCCC'
p2102
I68109
sS'AAGCCA'
p2103
I95713
sS'CAAAAT'
p2104
I110407
sS'ACGCGG'
p2105
I15495
sS'TGGGCT'
p2106
I92308
sS'CAAAAC'
p2107
I88007
sS'CAAAAA'
p2108
I142619
sS'AAGCCT'
p2109
I75608
sS'CAAAAG'
p2110
I94654
sS'TGATTT'
p2111
I100767
sS'TCAATG'
p2112
I48678
sS'CCCTTA'
p2113
I41217
sS'ACCGTG'
p2114
I18842
sS'TCAATC'
p2115
I34593
sS'TCAATA'
p2116
I51774
sS'CAGTTC'
p2117
I66152
sS'GACCCG'
p2118
I23148
sS'CAGTTG'
p2119
I57191
sS'GACCCC'
p2120
I50795
sS'CTCTGT'
p2121
I116836
sS'TCAATT'
p2122
I54824
sS'GGCCAG'
p2123
I114462
sS'CTCTGC'
p2124
I121562
sS'GACCCT'
p2125
I49502
sS'CTCTGA'
p2126
I103492
sS'ACAATC'
p2127
I39405
sS'CTCTGG'
p2128
I116656
sS'CAGTTT'
p2129
I100959
sS'GCGAAG'
p2130
I16824
sS'ACGTTC'
p2131
I12249
sS'TGCTGG'
p2132
I117619
sS'CGAGGT'
p2133
I20300
sS'TGCTGA'
p2134
I92974
sS'GAGTCT'
p2135
I59644
sS'GCGAAA'
p2136
I12079
sS'TAGGGA'
p2137
I51138
sS'GCTGGT'
p2138
I71705
sS'GTGATT'
p2139
I63420
sS'ACGTTA'
p2140
I10046
sS'TGCTGT'
p2141
I95267
sS'AGCTGA'
p2142
I90591
sS'GCCCTT'
p2143
I66304
sS'TGTACC'
p2144
I32083
sS'GTGATG'
p2145
I58918
sS'GCTGGG'
p2146
I160733
sS'GTGATC'
p2147
I41762
sS'GCTGGC'
p2148
I90914
sS'GTGATA'
p2149
I36589
sS'GCTGGA'
p2150
I102798
sS'TGATAA'
p2151
I56862
sS'TGTAGT'
p2152
I48695
sS'TGATAC'
p2153
I31959
sS'TGATAG'
p2154
I35618
sS'CTTGTT'
p2155
I73647
sS'GACGGT'
p2156
I11179
sS'GCTAGG'
p2157
I39968
sS'GCTAGA'
p2158
I37903
sS'ATGAAT'
p2159
I96124
sS'GCTAGC'
p2160
I24544
sS'AAGGGT'
p2161
I51602
sS'TGATAT'
p2162
I48941
sS'GTAGTG'
p2163
I31740
sS'GCTAGT'
p2164
I26854
sS'ATGAAC'
p2165
I49152
sS'GACGGG'
p2166
I24788
sS'ATGAAA'
p2167
I116708
sS'GACGGA'
p2168
I16784
sS'CTTGTA'
p2169
I45120
sS'GACGGC'
p2170
I18607
sS'CTTGTC'
p2171
I53005
sS'CAAAGA'
p2172
I99426
sS'CTACTT'
p2173
I54118
sS'CTGTAG'
p2174
I56718
sS'CCCGCT'
p2175
I36059
sS'GNCCGC'
p2176
I1
sS'CAACGT'
p2177
I12643
sS'GGTGAA'
p2178
I61652
sS'GGTGAC'
p2179
I59957
sS'GCGTCT'
p2180
I18692
sS'TGTAAA'
p2181
I96096
sS'GGTGAG'
p2182
I83755
sS'GGAATG'
p2183
I82597
sS'CGTCCT'
p2184
I21746
sS'GGCTAA'
p2185
I41734
sS'GGAATC'
p2186
I48194
sS'GGAATA'
p2187
I50638
sS'GCGTCA'
p2188
I13363
sS'GCGTCC'
p2189
I25508
sS'GGTGAT'
p2190
I50501
sS'GCGTCG'
p2191
I10054
sS'CGTCCG'
p2192
I11976
sS'GGAATT'
p2193
I74047
sS'CGTCCC'
p2194
I28510
sS'CGTCCA'
p2195
I15613
sS'CCGTAT'
p2196
I7272
sS'GAAGTC'
p2197
I54557
sS'GAAGTA'
p2198
I49006
sS'GAAGTG'
p2199
I75897
sS'GCCGTA'
p2200
I7233
sS'CCGTAC'
p2201
I6050
sS'CCGTAA'
p2202
I8624
sS'CCGTAG'
p2203
I9133
sS'AGTCCG'
p2204
I13473
sS'CAAAGT'
p2205
I87015
sS'GCCGTT'
p2206
I12370
sS'GAAGTT'
p2207
I65137
sS'GGCGCG'
p2208
I51725
sS'ATGCCC'
p2209
I50907
sS'TTAGTT'
p2210
I55427
sS'ATGCCA'
p2211
I71984
sS'GGCGCC'
p2212
I57844
sS'TATTAA'
p2213
I76626
sS'GGCGCA'
p2214
I27568
sS'TATTAC'
p2215
I44336
sS'ACTATG'
p2216
I41894
sS'CCATAT'
p2217
I41369
sS'TTTAAG'
p2218
I84792
sS'ACTATC'
p2219
I25656
sS'TTTAAA'
p2220
I197363
sS'ACTATA'
p2221
I38631
sS'TTTAAC'
p2222
I63631
sS'TATTAT'
p2223
I80527
sS'TTAGTG'
p2224
I44779
sS'GGCGCT'
p2225
I35452
sS'TTAGTC'
p2226
I46115
sS'ATGCCT'
p2227
I72804
sS'TTAGTA'
p2228
I46017
sS'TTTAAT'
p2229
I111160
sS'ACTATT'
p2230
I51974
sS'GGANTG'
p2231
I1
sS'GCCGAT'
p2232
I8326
sS'GGGCAT'
p2233
I50900
sS'AAAGAC'
p2234
I74510
sS'TTTCCG'
p2235
I19897
sS'TTTCCA'
p2236
I127945
sS'TTTCCC'
p2237
I120230
sS'GTACGT'
p2238
I7257
sS'TATCGA'
p2239
I4732
sS'GTTTGT'
p2240
I78632
sS'TCAGNN'
p2241
I1
sS'TTTCCT'
p2242
I173122
sS'GGGCAG'
p2243
I129715
sS'GTCTGT'
p2244
I64149
sS'GGGCAA'
p2245
I64244
sS'GGGCAC'
p2246
I61537
sS'GTACGG'
p2247
I6049
sS'ACGTAG'
p2248
I9771
sS'GTTTGG'
p2249
I64208
sS'GTACGA'
p2250
I4475
sS'CCGCTC'
p2251
I36062
sS'GCATGT'
p2252
I52877
sS'CCGCTA'
p2253
I9641
sS'CCGCTG'
p2254
I39451
sS'AGCATT'
p2255
I76395
sS'GCGCGG'
p2256
I56040
sS'GCGCGC'
p2257
I52933
sS'TGTTTT'
p2258
I170173
sS'GCGCGA'
p2259
I14880
sS'GCATGG'
p2260
I54709
sS'GCATGC'
p2261
I44969
sS'CCGCTT'
p2262
I20750
sS'GCATGA'
p2263
I58225
sS'GTCGAC'
p2264
I4782
sS'GTCGAA'
p2265
I5880
sS'GTCGAG'
p2266
I9636
sS'CGTGGC'
p2267
I29522
sS'GAGCTA'
p2268
I40493
sS'TGCGCT'
p2269
I18586
sS'GAGCTC'
p2270
I68071
sS'ATTGAT'
p2271
I43368
sS'GAGCTG'
p2272
I107162
sS'AAACGA'
p2273
I17065
sS'AAACGC'
p2274
I16579
sS'CACGCG'
p2275
I14775
sS'AAACGG'
p2276
I18040
sS'ATTGAA'
p2277
I61925
sS'TGCGCG'
p2278
I20092
sS'TGTCCA'
p2279
I64683
sS'TGTCCG'
p2280
I14532
sS'TGCGCC'
p2281
I27586
sS'ATTGAG'
p2282
I50477
sS'CGCTGA'
p2283
I21405
sS'GCGCAG'
p2284
I39539
sS'AAACGT'
p2285
I20198
sS'ATTTCG'
p2286
I10589
sS'ATTTCA'
p2287
I114174
sS'ATTTCC'
p2288
I101726
sS'ATCAGT'
p2289
I52451
sS'ATCGGG'
p2290
I10004
sS'CATAGT'
p2291
I41903
sS'GCAGCA'
p2292
I96999
sS'CCGTGT'
p2293
I19243
sS'ATCGGA'
p2294
I7826
sS'ATTTCT'
p2295
I133919
sS'CGATCA'
p2296
I7112
sS'TGGGTC'
p2297
I52884
sS'TTTTCA'
p2298
I138375
sS'TGGGTA'
p2299
I46297
sS'CATAGG'
p2300
I36765
sS'ATCGGT'
p2301
I6454
sS'ATCAGG'
p2302
I54062
sS'CATAGC'
p2303
I38870
sS'ATCAGC'
p2304
I51441
sS'GGTCAA'
p2305
I36920
sS'ACGGGT'
p2306
I11058
sS'GTCTGA'
p2307
I55632
sS'ATTCGG'
p2308
I9731
sS'GATTCT'
p2309
I62942
sS'CTTTTG'
p2310
I94581
sS'TACTAG'
p2311
I27438
sS'CTTTTC'
p2312
I120266
sS'TACTAC'
p2313
I27022
sS'GATTCC'
p2314
I48184
sS'ACGGGG'
p2315
I25389
sS'ACGGGA'
p2316
I18177
sS'ACGGGC'
p2317
I18360
sS'TACTAT'
p2318
I40135
sS'CTTTTT'
p2319
I158203
sS'TCACGA'
p2320
I12463
sS'TCACGC'
p2321
I21026
sS'CGATTG'
p2322
I7564
sS'TCACGG'
p2323
I18028
sS'TCTCAT'
p2324
I80458
sS'TCACGT'
p2325
I18663
sS'TTCCAC'
p2326
I73693
sS'TAGTTN'
p2327
I1
sS'TTCCAA'
p2328
I92280
sS'TTCCAG'
p2329
I119698
sS'GTTTCA'
p2330
I76082
sS'ACCCTT'
p2331
I51602
sS'TGAAGT'
p2332
I70781
sS'ATGCTT'
p2333
I68309
sS'TTCCAT'
p2334
I85020
sS'ACCCTA'
p2335
I34138
sS'ACCCTC'
p2336
I61229
sS'TGAAGG'
p2337
I78576
sS'ACCCTG'
p2338
I79929
sS'CTGACT'
p2339
I89281
sS'CCCCTT'
p2340
I76929
sS'AGTTAT'
p2341
I52869
sS'ACATAT'
p2342
I64841
sS'CTGACG'
p2343
I16613
sS'CTGACC'
p2344
I67542
sS'CAATGA'
p2345
I66125
sS'AGTTAA'
p2346
I61370
sS'CCCCTG'
p2347
I94980
sS'AGTTAC'
p2348
I43050
sS'CCCCTC'
p2349
I110743
sS'AGTTAG'
p2350
I41536
sS'CCCCTA'
p2351
I40250
sS'ACACAG'
p2352
I107695
sS'ACACAA'
p2353
I80446
sS'ACACAC'
p2354
I148194
sS'AATGTT'
p2355
I95556
sS'CTGCAG'
p2356
I142106
sS'CATGGG'
p2357
I59837
sS'CTGCAC'
p2358
I78088
sS'CATGGC'
p2359
I62309
sS'TGTAAT'
p2360
I78722
sS'ACACAT'
p2361
I81552
sS'AATGTA'
p2362
I73431
sS'AATGTG'
p2363
I86654
sS'GCACAC'
p2364
I58238
sS'CTGCAT'
p2365
I74004
sS'GCACAG'
p2366
I88206
sS'CGATTC'
p2367
I10982
sS'CCACAG'
p2368
I112010
sS'ATGTTC'
p2369
I53791
sS'CGAGAT'
p2370
I13900
sS'ATTACT'
p2371
I60470
sS'CACAAT'
p2372
I62006
sS'ACATTG'
p2373
I55383
sS'ACATTA'
p2374
I59856
sS'ACATTC'
p2375
I72185
sS'CGAGAG'
p2376
I22430
sS'ATGCTC'
p2377
I46728
sS'ATTACC'
p2378
I35640
sS'CGAGAC'
p2379
I19140
sS'CGAGAA'
p2380
I17345
sS'AAGTCT'
p2381
I65280
sS'GCTATT'
p2382
I46239
sS'GGACAT'
p2383
I45265
sS'CAGCGT'
p2384
I22928
sS'NNNNCC'
p2385
I1
sS'GCTATA'
p2386
I30011
sS'GCTATC'
p2387
I21772
sS'AAGTCG'
p2388
I11191
sS'AACCTA'
p2389
I40239
sS'AAGTCA'
p2390
I81509
sS'GCTATG'
p2391
I38862
sS'AAGTCC'
p2392
I53436
sS'GGACAG'
p2393
I79998
sS'GGACAC'
p2394
I52077
sS'GGACAA'
p2395
I52273
sS'CTAATT'
p2396
I59062
sS'AGGGTT'
p2397
I57678
sS'GAGGCG'
p2398
I52112
sS'TGTTGG'
p2399
I65341
sS'GAGGCA'
p2400
I98381
sS'TGTTGA'
p2401
I65934
sS'GAGGCC'
p2402
I98882
sS'TGTTGC'
p2403
I58340
sS'TCCAAG'
p2404
I74370
sS'ACTCGA'
p2405
I9744
sS'TAAAAT'
p2406
I153378
sS'ACTCGC'
p2407
I14297
sS'NCCACC'
p2408
I1
sS'ACTCGG'
p2409
I19841
sS'TGTTGT'
p2410
I69345
sS'GAGGCT'
p2411
I104279
sS'AGCGCC'
p2412
I35452
sS'AGGGTG'
p2413
I80474
sS'AGGGTA'
p2414
I39244
sS'AGCGCG'
p2415
I24137
sS'AGGGTC'
p2416
I49501
sS'TAAAAG'
p2417
I98247
sS'ACTCGT'
p2418
I9842
sS'TAAAAC'
p2419
I86763
sS'TAAAAA'
p2420
I185421
sS'CTACTC'
p2421
I43363
sS'AGCTGC'
p2422
I94642
sS'CTACTA'
p2423
I34954
sS'TAGGGC'
p2424
I34979
sS'CTACTG'
p2425
I51259
sS'AGCTGG'
p2426
I118192
sS'TAGGGG'
p2427
I40238
sS'AGTGCG'
p2428
I14861
sS'AGTGCA'
p2429
I64801
sS'AGAGTT'
p2430
I71157
sS'AGTGCC'
p2431
I60072
sS'CCAAAA'
p2432
I94375
sS'TAGGGT'
p2433
I34160
sS'GCATAG'
p2434
I31494
sS'AGCTGT'
p2435
I83876
sS'ACGTTT'
p2436
I20200
sS'AGTGCT'
p2437
I78978
sS'AGAGTC'
p2438
I58440
sS'AGAGTA'
p2439
I49907
sS'AGAGTG'
p2440
I74980
sS'TTCGTA'
p2441
I8140
sS'GTTAAA'
p2442
I63640
sS'GCACCA'
p2443
I56207
sS'GTTAAC'
p2444
I29795
sS'CCTGGA'
p2445
I115014
sS'CCTGGG'
p2446
I169644
sS'GTTAAG'
p2447
I40643
sS'AGCCCG'
p2448
I37573
sS'TTCGTC'
p2449
I9760
sS'CTAATC'
p2450
I32342
sS'GTCTGG'
p2451
I66885
sS'GTCTGC'
p2452
I51917
sS'GTTAAT'
p2453
I43456
sS'CCTGGT'
p2454
I76099
sS'GCGGNC'
p2455
I1
sS'CCGGTC'
p2456
I17086
sS'GGAAGG'
p2457
I130459
sS'ATAACG'
p2458
I8002
sS'CCACAT'
p2459
I72029
sS'GGAAGC'
p2460
I90439
sS'CTAATG'
p2461
I44961
sS'GGAAGA'
p2462
I112976
sS'TGTATT'
p2463
I84533
sS'TCCTCT'
p2464
I117845
sS'GCGTTC'
p2465
I13617
sS'CAATGC'
p2466
I44039
sS'GCGTTG'
p2467
I11813
sS'CAATGG'
p2468
I49599
sS'ATGCTG'
p2469
I79321
sS'GGAAGT'
p2470
I81624
sS'CCACAC'
p2471
I78517
sS'CCACAA'
p2472
I72196
sS'ATTTGT'
p2473
I99273
sS'TCCTCG'
p2474
I25900
sS'TGTATG'
p2475
I54676
sS'TCCTCA'
p2476
I94278
sS'GCGTTT'
p2477
I16567
sS'TCCTCC'
p2478
I138669
sS'TGTATC'
p2479
I40027
sS'CGTTAG'
p2480
I8108
sS'TAACCG'
p2481
I7269
sS'TCATAG'
p2482
I49084
sS'TTCGTG'
p2483
I13876
sS'TCATAA'
p2484
I66212
sS'TAACCC'
p2485
I32847
sS'TCATAC'
p2486
I37496
sS'TAACCA'
p2487
I49927
sS'ACCGCT'
p2488
I14144
sS'TCGCGA'
p2489
I5722
sS'TGCATG'
p2490
I66132
sS'TTCGTT'
p2491
I14139
sS'TCATAT'
p2492
I60534
sS'TAACCT'
p2493
I45547
sS'GTGAAG'
p2494
I63775
sS'GTGAAA'
p2495
I85406
sS'GTGAAC'
p2496
I39973
sS'AACCCG'
p2497
I17799
sS'ACCGCG'
p2498
I16882
sS'ACCGCA'
p2499
I16837
sS'AACGAG'
p2500
I13342
sS'ACCGCC'
p2501
I25073
sS'CCGCCT'
p2502
I55091
sS'AGGCTT'
p2503
I75614
sS'CCTTCT'
p2504
I106991
sS'GTTGCA'
p2505
I45761
sS'AACGAA'
p2506
I14147
sS'GTTGCC'
p2507
I46164
sS'GTGCCG'
p2508
I18644
sS'GTGCCA'
p2509
I64590
sS'GTTGCG'
p2510
I9088
sS'GTGCCC'
p2511
I61534
sS'CCGCCG'
p2512
I63458
sS'AGGCTA'
p2513
I46266
sS'CCTTCC'
p2514
I130422
sS'AGGCTC'
p2515
I74744
sS'CCGCCC'
p2516
I99779
sS'TGTCGA'
p2517
I6712
sS'CCTTCG'
p2518
I18690
sS'AGGCTG'
p2519
I151725
sS'GTGCCT'
p2520
I68791
sS'GTTGCT'
p2521
I54051
sS'NNNGCG'
p2522
I1
sS'GGATAT'
p2523
I37431
sS'TCGGGT'
p2524
I13904
sS'ATTTGA'
p2525
I85672
sS'GCAGTT'
p2526
I61423
sS'GAAGCT'
p2527
I73658
sS'TCGCGT'
p2528
I5693
sS'GGATAA'
p2529
I41558
sS'GGATAC'
p2530
I24274
sS'NNNNNG'
p2531
I3
sS'TCGGGG'
p2532
I30246
sS'GGATAG'
p2533
I29042
sS'GAAGCG'
p2534
I23170
sS'GCAGTG'
p2535
I100179
sS'GAAGCC'
p2536
I76571
sS'GCAGTA'
p2537
I42389
sS'GAAGCA'
p2538
I83179
sS'GCAGTC'
p2539
I49627
sS'CGCCCG'
p2540
I50987
sS'CTATAN'
p2541
I1
sS'GAGAGA'
p2542
I126232
sS'GAGAGG'
p2543
I115230
sS'CGCCCA'
p2544
I40591
sS'CTACAA'
p2545
I49135
sS'ACGCAG'
p2546
I21928
sS'NNNNNN'
p2547
I1012
sS'GCATTC'
p2548
I54169
sS'ACGCAA'
p2549
I10535
sS'CTCGCA'
p2550
I16475
sS'CGCCCT'
p2551
I41153
sS'CTCGCG'
p2552
I18552
sS'AAACAT'
p2553
I110497
sS'CTATAT'
p2554
I40201
sS'AGTTTC'
p2555
I82326
sS'GCCGGG'
p2556
I76720
sS'AGCATC'
p2557
I53236
sS'TACCCG'
p2558
I9848
sS'GCCGGC'
p2559
I51130
sS'CATGTT'
p2560
I72608
sS'GCCGGA'
p2561
I26917
sS'ATCTGG'
p2562
I65606
sS'AGATCT'
p2563
I54336
sS'AACTGC'
p2564
I61404
sS'GCCACT'
p2565
I74245
sS'CATGTA'
p2566
I50488
sS'CATGTC'
p2567
I48081
sS'GCCGGT'
p2568
I18346
sS'CATGTG'
p2569
I75320
sS'AGTTCG'
p2570
I11698
sS'TCACTT'
p2571
I93833
sS'GGCCTC'
p2572
I98948
sS'NNGCGC'
p2573
I1
sS'GGCCTA'
p2574
I32060
sS'TTTGTT'
p2575
I155359
sS'AATCGG'
p2576
I9509
sS'AATCGC'
p2577
I10493
sS'AATCGA'
p2578
I8064
sS'GTTCAG'
p2579
I56738
sS'GGCCTT'
p2580
I65617
sS'TCACTA'
p2581
I47486
sS'TCACTC'
p2582
I73856
sS'ATCGGC'
p2583
I8325
sS'AATCGT'
p2584
I9165
sS'AGCCGA'
p2585
I21869
sS'CCTTCA'
p2586
I78562
sS'AGCCGC'
p2587
I38152
sS'TAATTG'
p2588
I49058
sS'AAAAAT'
p2589
I214144
sS'AGCCGG'
p2590
I39891
sS'GTTTTT'
p2591
I122113
sS'TGGTGA'
p2592
I80854
sS'GATGGA'
p2593
I60881
sS'TGGTGC'
p2594
I56213
sS'GGGCTA'
p2595
I33395
sS'GGGCTG'
p2596
I128433
sS'TGGTGG'
p2597
I93394
sS'GATGGG'
p2598
I65215
sS'TAATTT'
p2599
I117990
sS'GTTTTA'
p2600
I86713
sS'GGGCTC'
p2601
I83358
sS'GAGCGA'
p2602
I21245
sS'GTTCAA'
p2603
I51960
sS'AAAAAG'
p2604
I158273
sS'TGACAG'
p2605
I78946
sS'CCAAGG'
p2606
I87044
sS'ACGTAT'
p2607
I10138
sS'TCTCAG'
p2608
I105328
sS'TCTCAA'
p2609
I84963
sS'TGGTGT'
p2610
I61206
sS'TCTCAC'
p2611
I71703
sS'ATTCGT'
p2612
I10020
sS'AGAACT'
p2613
I75417
sS'CCGCCA'
p2614
I35922
sS'TACCAT'
p2615
I43047
sS'TCCCGC'
p2616
I43251
sS'AGATAG'
p2617
I42976
sS'ACCCGG'
p2618
I30324
sS'ACCCGA'
p2619
I13897
sS'AGATAC'
p2620
I40082
sS'ACCCGC'
p2621
I26492
sS'ACCAGT'
p2622
I49037
sS'TACCAC'
p2623
I38721
sS'AGAACG'
p2624
I16299
sS'TACCAA'
p2625
I42231
sS'AGAACA'
p2626
I90407
sS'TACCAG'
p2627
I44304
sS'AGAACC'
p2628
I55149
sS'ATGTCA'
p2629
I66735
sS'CACTGG'
p2630
I85208
sS'CCTATG'
p2631
I36769
sS'ATCACG'
p2632
I13764
sS'ACCAGG'
p2633
I76115
sS'CACTGC'
p2634
I100188
sS'CCTATC'
p2635
I29347
sS'GTAACA'
p2636
I45175
sS'TAGGTT'
p2637
I40254
sS'GTTTAC'
p2638
I48076
sS'AATTAT'
p2639
I85441
sS'CTGTTG'
p2640
I71320
sS'GTAACC'
p2641
I27701
sS'CTGTTC'
p2642
I69485
sS'CGGGTT'
p2643
I17787
sS'CTGTTA'
p2644
I54981
sS'AATTAC'
p2645
I55031
sS'AATTAA'
p2646
I91258
sS'CATGGA'
p2647
I63792
sS'TAGGTA'
p2648
I35734
sS'TAGGTC'
p2649
I27651
sS'CGGGTC'
p2650
I23146
sS'CTGTTT'
p2651
I117056
sS'CGGGTA'
p2652
I9841
sS'CGGGTG'
p2653
I30962
sS'CTTCGG'
p2654
I19035
sS'CACACT'
p2655
I73346
sS'TGGATG'
p2656
I64880
sS'TTAGGG'
p2657
I44281
sS'ATATAT'
p2658
I99108
sS'AGCAAC'
p2659
I54062
sS'TTAGGC'
p2660
I35625
sS'AAAGCT'
p2661
I85500
sS'TTAGGA'
p2662
I58459
sS'ATGCTA'
p2663
I45113
sS'AAAGCA'
p2664
I119330
sS'AAAGCC'
p2665
I81295
sS'TTAGGT'
p2666
I41971
sS'ATATAA'
p2667
I76133
sS'AGCAAT'
p2668
I67586
sS'ATATAC'
p2669
I43328
sS'ATAGCA'
p2670
I51706
sS'ATAGCC'
p2671
I32924
sS'TACTTG'
p2672
I47940
sS'ATGTTT'
p2673
I110488
sS'CAGCGC'
p2674
I41373
sS'ATAGCT'
p2675
I45459
sS'TACTTT'
p2676
I83395
sS'CATGCG'
p2677
I13620
sS'CGAGTT'
p2678
I12507
sS'TCCAAT'
p2679
I47476
sS'CGTACT'
p2680
I6465
sS'TCCCGT'
p2681
I18174
sS'TATGCT'
p2682
I44885
sS'CTTAAG'
p2683
I48958
sS'ACATAA'
p2684
I67869
sS'CTTAAA'
p2685
I84811
sS'ACATAG'
p2686
I47352
sS'CTTAAC'
p2687
I40620
sS'CGTACA'
p2688
I7551
sS'CGAGTG'
p2689
I16439
sS'TTGTTA'
p2690
I65322
sS'TCCAAC'
p2691
I46605
sS'TCCAAA'
p2692
I91965
sS'AGGGGA'
p2693
I98846
sS'CTTAAT'
p2694
I54604
sS'AGGGGC'
p2695
I87498
sS'TATGCA'
p2696
I50304
sS'AGGGGG'
p2697
I78237
sS'TGNTNT'
p2698
I1
sS'CGTTTG'
p2699
I15964
sS'CGACTT'
p2700
I11191
sS'TGAATT'
p2701
I86266
sS'TTGTAA'
p2702
I71950
sS'CACAAA'
p2703
I100521
sS'TTGTAC'
p2704
I35058
sS'GTACCT'
p2705
I31943
sS'NNCAGA'
p2706
I1
sS'CGTTTA'
p2707
I12215
sS'TGAATC'
p2708
I66982
sS'ACAACA'
p2709
I69330
sS'TGAATA'
p2710
I74801
sS'TCGGGA'
p2711
I21170
sS'TGAATG'
p2712
I87368
sS'AAGTAT'
p2713
I58053
sS'CGACTG'
p2714
I13344
sS'TTGTAT'
p2715
I65138
sS'ATCGTG'
p2716
I11745
sS'GCTTCG'
p2717
I15898
sS'GCTTCA'
p2718
I63915
sS'GCTTCC'
p2719
I90437
sS'TGGGAG'
p2720
I132881
sS'TGGGAA'
p2721
I116154
sS'TGGGAC'
p2722
I60667
sS'GCTTCT'
p2723
I86340
sS'TGGCAC'
p2724
I64597
sS'GATTGA'
p2725
I34583
sS'TGGGAT'
p2726
I76834
sS'CTAGCC'
p2727
I36235
sS'CTAGCA'
p2728
I41318
sS'CTAGCG'
p2729
I9639
sS'CGGTGA'
p2730
I20168
sS'CGGTAG'
p2731
I9677
sS'ACTTAG'
p2732
I45301
sS'TAGATT'
p2733
I48610
sS'ACTTAA'
p2734
I63200
sS'CGGTAC'
p2735
I6187
sS'ACTTAC'
p2736
I41962
sS'CGGTAA'
p2737
I8689
sS'GACCAG'
p2738
I62552
sS'GACCAC'
p2739
I42535
sS'CTAGCT'
p2740
I42066
sS'TTCGAG'
p2741
I14330
sS'TACACC'
p2742
I27757
sS'CGGTAT'
p2743
I6071
sS'TACACA'
p2744
I70354
sS'AGCCCT'
p2745
I89903
sS'GCGAGA'
p2746
I20754
sS'GAGAGC'
p2747
I69961
sS'GCGAGC'
p2748
I25353
sS'GGCCGT'
p2749
I20092
sS'GCGAGG'
p2750
I36806
sS'CAGCCG'
p2751
I41918
sS'CAGCCA'
p2752
I118363
sS'CAGCCC'
p2753
I128404
sS'GCTGAA'
p2754
I75859
sS'GCGAGT'
p2755
I14293
sS'GAACTG'
p2756
I66146
sS'GAACTC'
p2757
I53557
sS'GAACTA'
p2758
I37435
sS'GGACTT'
p2759
I53434
sS'CACCTA'
p2760
I44783
sS'AACTAT'
p2761
I48339
sS'CACCTC'
p2762
I87240
sS'CACCTG'
p2763
I104213
sS'TGATCC'
p2764
I43796
sS'AACACT'
p2765
I68863
sS'TGATCA'
p2766
I47005
sS'TGATCG'
p2767
I7114
sS'CTATAG'
p2768
I29210
sS'GGACTG'
p2769
I61804
sS'CACCTT'
p2770
I69245
sS'AACTAC'
p2771
I37394
sS'GGACTC'
p2772
I50454
sS'AACGAT'
p2773
I9200
sS'AACACG'
p2774
I16957
sS'AACACA'
p2775
I95948
sS'CGTCTC'
p2776
I25334
sS'AACACC'
p2777
I48654
sS'TGATCT'
p2778
I58535
sS'ATATCG'
p2779
I5305
sS'CTATAC'
p2780
I23854
sS'CAACAG'
p2781
I71323
sS'GACAGT'
p2782
I52030
sS'CAACAA'
p2783
I71336
sS'AAAGAA'
p2784
I184485
sS'CAACAC'
p2785
I51680
sS'GCTGAT'
p2786
I51432
sS'GCATTA'
p2787
I41228
sS'GACAGG'
p2788
I78406
sS'CAACAT'
p2789
I64591
sS'GACAGC'
p2790
I61767
sS'GGGANT'
p2791
I1
sS'GACAGA'
p2792
I87723
sS'GTATTA'
p2793
I40406
sS'GTATTC'
p2794
I35204
sS'GTAAGT'
p2795
I41966
sS'CCAGCG'
p2796
I38486
sS'TCTGNN'
p2797
I1
sS'GTATTG'
p2798
I31249
sS'GGTGGC'
p2799
I87286
sS'TCCCCT'
p2800
I98854
sS'GGTGGA'
p2801
I75875
sS'TATCTT'
p2802
I64200
sS'GGTGGG'
p2803
I117056
sS'NNNGAA'
p2804
I1
sS'AGAGGC'
p2805
I96522
sS'GTAAGA'
p2806
I46787
sS'AGAGGA'
p2807
I117802
sS'GTAAGC'
p2808
I30128
sS'AGAGGG'
p2809
I107768
sS'ANTCCC'
p2810
I1
sS'GTAAGG'
p2811
I36042
sS'TCCCCG'
p2812
I48844
sS'TATCTC'
p2813
I48289
sS'TCCCCC'
p2814
I81305
sS'GGTGGT'
p2815
I60295
sS'TCCCCA'
p2816
I115110
sS'GTCGCG'
p2817
I10149
sS'GTCGCA'
p2818
I9019
sS'GTCGCC'
p2819
I20282
sS'TCGGTC'
p2820
I10975
sS'TCGGTA'
p2821
I6580
sS'GAGAGT'
p2822
I57256
sS'TCGGTG'
p2823
I16018
sS'GTCGCT'
p2824
I13336
sS'CCGTCG'
p2825
I9150
sS'CCGTCA'
p2826
I13659
sS'CCGTCC'
p2827
I25128
sS'GGCTGT'
p2828
I81541
sS'CGCGTG'
p2829
I14775
sS'GCATTT'
p2830
I94760
sS'CGCGTC'
p2831
I15408
sS'TGCANA'
p2832
I1
sS'CGCGTA'
p2833
I3512
sS'ATGCAG'
p2834
I74008
sS'CCACTA'
p2835
I41720
sS'ATGCAC'
p2836
I45667
sS'CGCGTT'
p2837
I7583
sS'GGCTGG'
p2838
I151925
sS'GGCTGA'
p2839
I95232
sS'GGCTGC'
p2840
I111639
sS'CCACTT'
p2841
I72222
sS'TTTAGA'
p2842
I76068
sS'CTCTGN'
p2843
I1
sS'ATGACG'
p2844
I11825
sS'GGAGTT'
p2845
I67705
sS'ATGACA'
p2846
I74877
sS'ATGACC'
p2847
I41913
sS'CCTGAT'
p2848
I54080
sS'GGGCCT'
p2849
I81975
sS'ATGACT'
p2850
I94436
sS'GGAGTA'
p2851
I35909
sS'TATCCG'
p2852
I6041
sS'GGAGTC'
p2853
I56663
sS'GGAGTG'
p2854
I78531
sS'GGGCCG'
p2855
I59257
sS'GGGCCC'
p2856
I85034
sS'GGGCCA'
p2857
I77256
sS'GGCAAG'
p2858
I67696
sS'ACGAGT'
p2859
I9838
sS'TTCNNN'
p2860
I1
sS'AGGCCA'
p2861
I94278
sS'GCGCAC'
p2862
I21855
sS'AAAGTC'
p2863
I67141
sS'AGGCCG'
p2864
I40719
sS'ACGAGG'
p2865
I19559
sS'ACGAGC'
p2866
I11452
sS'ACGAGA'
p2867
I12846
sS'CTGATG'
p2868
I67864
sS'AGGCCT'
p2869
I84791
sS'GATTTA'
p2870
I56491
sS'AGACGG'
p2871
I23418
sS'GGGTTG'
p2872
I50076
sS'TTTGGG'
p2873
I96735
sS'GGGTTA'
p2874
I32833
sS'CTCGGG'
p2875
I39859
sS'GGGTTC'
p2876
I44665
sS'TTTGAT'
p2877
I71221
sS'NCACAC'
p2878
I1
sS'ATTCGA'
p2879
I8387
sS'CTACGA'
p2880
I7386
sS'ATTGCT'
p2881
I67551
sS'GGGTTT'
p2882
I68205
sS'TGCGAC'
p2883
I9015
sS'AGATCC'
p2884
I42760
sS'TGCGAG'
p2885
I16475
sS'AACGGC'
p2886
I12372
sS'AGACGC'
p2887
I18693
sS'ATTGCA'
p2888
I59880
sS'TTTGGC'
p2889
I71030
sS'ATTGCG'
p2890
I7827
sS'TTTGAC'
p2891
I52331
sS'TTTGAA'
p2892
I113178
sS'CCTGAC'
p2893
I72212
sS'TGACGT'
p2894
I15094
sS'AGTCGG'
p2895
I14676
sS'CTCGTC'
p2896
I14863
sS'CCCTGG'
p2897
I126859
sS'CCCTGA'
p2898
I86218
sS'AAGCTT'
p2899
I65974
sS'CCCTGC'
p2900
I120286
sS'GCANAN'
p2901
I1
sS'GATATC'
p2902
I24105
sS'AAGCTC'
p2903
I59916
sS'GATATA'
p2904
I34811
sS'CTAAAA'
p2905
I89593
sS'GATATG'
p2906
I35360
sS'AAGCTG'
p2907
I90011
sS'TGACGC'
p2908
I13366
sS'TACTCT'
p2909
I49921
sS'CATCGT'
p2910
I11907
sS'CAGGGT'
p2911
I79954
sS'CCAGTC'
p2912
I63545
sS'TACGAT'
p2913
I6438
sS'CCAGTG'
p2914
I85226
sS'TACTCG'
p2915
I8569
sS'CATCGA'
p2916
I8339
sS'CATCGC'
p2917
I13178
sS'TACTCC'
p2918
I35905
sS'NGAATT'
p2919
I1
sS'TACTCA'
p2920
I62967
sS'CATCGG'
p2921
I10155
sS'CAGGGG'
p2922
I94937
sS'CAGGGA'
p2923
I123250
sS'CAGGGC'
p2924
I116323
sS'AATCTG'
p2925
I71608
sS'TACAAT'
p2926
I51905
sS'GCCATT'
p2927
I56553
sS'AGTCGA'
p2928
I7672
sS'AATCTA'
p2929
I48568
sS'TGAACG'
p2930
I12185
sS'GGGCTT'
p2931
I68120
sS'TCACAA'
p2932
I71633
sS'TCACAG'
p2933
I99628
sS'GCCATA'
p2934
I32801
sS'CGGACG'
p2935
I11974
sS'AATCTT'
p2936
I71304
sS'CGGACA'
p2937
I14540
sS'CGGACC'
p2938
I16878
sS'GCCATG'
p2939
I62319
sS'TTTTAA'
p2940
I190842
sS'CGCNNN'
p2941
I1
sS'TCACAT'
p2942
I76786
sS'ATTAAC'
p2943
I43458
sS'ATTAAA'
p2944
I111151
sS'ATTAAG'
p2945
I54615
sS'TTTTAC'
p2946
I82156
sS'GGCCTG'
p2947
I105337
sS'ATCCAG'
p2948
I66290
sS'CAGNNN'
p2949
I1
sS'GTGCAG'
p2950
I78035
sS'ATTAAT'
p2951
I71800
sS'AAGCAC'
p2952
I61799
sS'TACCTG'
p2953
I54725
sS'GGTATG'
p2954
I32530
sS'GGTATA'
p2955
I26228
sS'GGTATC'
p2956
I22249
sS'GAACCG'
p2957
I14126
sS'ACGAAT'
p2958
I10019
sS'GGTATT'
p2959
I41936
sS'CTGAAC'
p2960
I56733
sS'GGAACC'
p2961
I48148
sS'CTGAAG'
p2962
I93727
sS'NNNNGC'
p2963
I1
sS'CCCGAA'
p2964
I17207
sS'CATTGC'
p2965
I53264
sS'CCCGGC'
p2966
I76749
sS'CATTGA'
p2967
I48670
sS'AGAGGT'
p2968
I73155
sS'CATTGG'
p2969
I44900
sS'TCAACT'
p2970
I51935
sS'ACCATC'
p2971
I43835
sS'ACACCG'
p2972
I15235
sS'CTGCCA'
p2973
I109642
sS'CTGCCC'
p2974
I129726
sS'ACACCC'
p2975
I58287
sS'ACACCA'
p2976
I61204
sS'CTGCCG'
p2977
I38326
sS'CTAGTG'
p2978
I40335
sS'TCAACC'
p2979
I38801
sS'TCAACA'
p2980
I65928
sS'CTAGTC'
p2981
I29350
sS'TCAACG'
p2982
I9133
sS'CTAGTA'
p2983
I27413
sS'CATTGT'
p2984
I68324
sS'TATGAC'
p2985
I43740
sS'GTAATG'
p2986
I40675
sS'ACACCT'
p2987
I61509
sS'CTGCCT'
p2988
I143821
sS'CCTCGT'
p2989
I19565
sS'TATGAA'
p2990
I68332
sS'AGACTG'
p2991
I73843
sS'TCACTG'
p2992
I104812
sS'GCACTG'
p2993
I72626
sS'CCTCGG'
p2994
I45129
sS'CCTCGC'
p2995
I36808
sS'CCCGAC'
p2996
I21482
sS'CCTCGA'
p2997
I16116
sS'CGAGGA'
p2998
I25898
sS'CGAGGC'
p2999
I37885
sS'CGAGGG'
p3000
I33451
sS'ACTTTC'
p3001
I75498
sS'ACTTTA'
p3002
I69852
sS'ACTTTG'
p3003
I86908
sS'GACCTG'
p3004
I59351
sS'GACCTA'
p3005
I27654
sS'GACCTC'
p3006
I55298
sS'CACCGG'
p3007
I22602
sS'ACGCTG'
p3008
I22912
sS'CACCGA'
p3009
I16026
sS'CACCGC'
p3010
I34289
sS'GACCTT'
p3011
I47645
sS'CGCCCC'
p3012
I84480
sS'GGACGG'
p3013
I25128
sS'CTATTA'
p3014
I45590
sS'CACAGC'
p3015
I104332
sS'CTTATC'
p3016
I37558
sS'CACAGA'
p3017
I113252
sS'CTTATA'
p3018
I41181
sS'CACAGG'
p3019
I103393
sS'TTAACT'
p3020
I61341
sS'ACTCAT'
p3021
I81657
sS'GAGGAG'
p3022
I132791
sS'GACGTA'
p3023
I6453
sS'CGTATC'
p3024
I6435
sS'GCATAC'
p3025
I24148
sS'TAAACT'
p3026
I68908
sS'GAGGAA'
p3027
I123557
sS'AGCGAT'
p3028
I12817
sS'TTAACA'
p3029
I66535
sS'ACTCAC'
p3030
I77107
sS'TTAACC'
p3031
I40633
sS'ACTCAA'
p3032
I63859
sS'ACTCAG'
p3033
I96809
sS'TTAACG'
p3034
I8872
sS'CACAGT'
p3035
I86581
sS'AGCGAC'
p3036
I13331
sS'TAAACA'
p3037
I100996
sS'AGCGAA'
p3038
I13687
sS'TAAACC'
p3039
I44714
sS'GACGTT'
p3040
I11086
sS'TCTAAA'
p3041
I76135
sS'TAAACG'
p3042
I12205
sS'AGTTCC'
p3043
I60132
sS'GTATGT'
p3044
I46772
sS'AGTTCA'
p3045
I67819
sS'TACTTA'
p3046
I50693
sS'CTGTGC'
p3047
I88206
sS'CTGTGA'
p3048
I99613
sS'CGGGGT'
p3049
I31452
sS'TAGGAC'
p3050
I30306
sS'GCAAAG'
p3051
I80050
sS'TAGGAA'
p3052
I73914
sS'GCAAAA'
p3053
I85969
sS'TAGGAG'
p3054
I56028
sS'GCAAAC'
p3055
I57632
sS'CGGGGC'
p3056
I78576
sS'CGGGGA'
p3057
I48839
sS'CTGTGT'
p3058
I107687
sS'CGGGGG'
p3059
I54095
sS'GTATGC'
p3060
I24138
sS'AGTTCT'
p3061
I75424
sS'GCAAAT'
p3062
I71007
sS'TAGGAT'
p3063
I41381
sS'TAATTA'
p3064
I65876
sS'TTCAAT'
p3065
I61913
sS'TGCTTT'
p3066
I119342
sS'ACAGGA'
p3067
I95092
sS'TGGGNC'
p3068
I1
sS'GTAATT'
p3069
I55035
sS'GTTACC'
p3070
I28721
sS'GTTACA'
p3071
I44287
sS'TAATTC'
p3072
I57975
sS'GTTACG'
p3073
I6535
sS'TATCGC'
p3074
I5155
sS'TATAGT'
p3075
I38630
sS'GTCTAA'
p3076
I31572
sS'CAGGAC'
p3077
I72248
sS'GTCTAC'
p3078
I23936
sS'TGCTTC'
p3079
I83230
sS'TTCAAA'
p3080
I113199
sS'TTCAAC'
p3081
I51720
sS'TGCTTG'
p3082
I70755
sS'TATAGC'
p3083
I30025
sS'TATCGT'
p3084
I6228
sS'TATAGA'
p3085
I43557
sS'AGTGGG'
p3086
I78562
sS'TATAGG'
p3087
I31444
sS'GTTACT'
p3088
I43371
sS'GCTCTC'
p3089
I69952
sS'GGAAAC'
p3090
I81775
sS'GATGGC'
p3091
I49386
sS'GCTCTG'
p3092
I111211
sS'CCACGT'
p3093
I25650
sS'CAATAT'
p3094
I52590
sS'AGGACC'
p3095
I49510
sS'GAATGG'
p3096
I61729
sS'GGCTTT'
p3097
I81321
sS'ACTACT'
p3098
I39469
sS'GAATGC'
p3099
I54166
sS'CCACGA'
p3100
I17152
sS'CAATAC'
p3101
I31283
sS'CCACGC'
p3102
I33943
sS'CAATAA'
p3103
I70135
sS'GTTCCG'
p3104
I13532
sS'AACCTC'
p3105
I61247
sS'CCACGG'
p3106
I29406
sS'GCTCTT'
p3107
I70120
sS'GGCTTA'
p3108
I40925
sS'ACTACC'
p3109
I27345
sS'GGCTTC'
p3110
I76574
sS'ACTACA'
p3111
I48697
sS'ACTACG'
p3112
I7556
sS'GGCTTG'
p3113
I62449
sS'TCCTAG'
p3114
I53930
sS'AGTCAG'
p3115
I89285
sS'CGTTGC'
p3116
I12092
sS'TAACAC'
p3117
I40340
sS'TCCTAC'
p3118
I41929
sS'AGTCAC'
p3119
I84098
sS'TCCTAA'
p3120
I58493
sS'TAACAG'
p3121
I55001
sS'TCATCG'
p3122
I11919
sS'AAGCGT'
p3123
I12634
sS'TCATCC'
p3124
I64564
sS'AAAAAC'
p3125
I122139
sS'TCATCA'
p3126
I77336
sS'GCGGGT'
p3127
I26485
sS'TCCTAT'
p3128
I47302
sS'TAACAT'
p3129
I59673
sS'CGTTGT'
p3130
I10916
sS'CTTTCC'
p3131
I117428
sS'CTTTCA'
p3132
I95326
sS'CTTTCG'
p3133
I14347
sS'AGCCGT'
p3134
I15676
sS'GAGCGC'
p3135
I33269
sS'GTTGAT'
p3136
I35471
sS'CGACCA'
p3137
I10158
sS'CGACCC'
p3138
I19103
sS'CGACCG'
p3139
I7827
sS'CCTTAT'
p3140
I45256
sS'GTTGAC'
p3141
I31216
sS'GTTGAA'
p3142
I51717
sS'ACTGGG'
p3143
I80664
sS'GTTGAG'
p3144
I47373
sS'CCTTAC'
p3145
I36049
sS'CCTTAA'
p3146
I51238
sS'CCTTAG'
p3147
I46309
sS'CGACCT'
p3148
I13800
sS'CAACTC'
p3149
I52629
sS'CAACTA'
p3150
I35704
sS'CAACTG'
p3151
I57204
sS'AATAGG'
p3152
I46739
sS'AATATC'
p3153
I52477
sS'GATGGT'
p3154
I43824
sS'GGGGTT'
p3155
I53039
sS'GTCCCT'
p3156
I64563
sS'ATTCNN'
p3157
I1
sS'GGATGT'
p3158
I50333
sS'AATAGT'
p3159
I51975
sS'TCGCTA'
p3160
I7037
sS'CAACTT'
p3161
I59156
sS'ACTGTA'
p3162
I58988
sS'GGGGTG'
p3163
I88849
sS'GGATGA'
p3164
I64568
sS'GGGGTC'
p3165
I50796
sS'GGGGTA'
p3166
I29636
sS'TCTCCG'
p3167
I26368
sS'GAGTCC'
p3168
I50463
sS'GAGTCA'
p3169
I114137
sS'TCTCCC'
p3170
I112010
sS'AAACTA'
p3171
I68735
sS'TCTCCA'
p3172
I105286
sS'AAACTC'
p3173
I74818
sS'CTATGA'
p3174
I49072
sS'AGTACG'
p3175
I6463
sS'ACGCGC'
p3176
I14644
sS'AGTACC'
p3177
I26977
sS'CTATGG'
p3178
I34902
sS'AGTACA'
p3179
I47187
sS'AAACTT'
p3180
I91355
sS'CCCTTC'
p3181
I95082
sS'TCTCCT'
p3182
I121228
sS'ANCACA'
p3183
I1
sS'CCCTTG'
p3184
I66140
sS'AGTACT'
p3185
I39422
sS'CTATGT'
p3186
I47361
sS'GCCGAA'
p3187
I13123
sS'GTGGAG'
p3188
I85079
sS'GCCGAC'
p3189
I15203
sS'GTGGAC'
p3190
I38013
sS'GCCGAG'
p3191
I42811
sS'GTGGAA'
p3192
I73687
sS'GTGGAT'
p3193
I47122
sS'ACGAAC'
p3194
I8057
sS'CCTATT'
p3195
I46773
sS'TATCTG'
p3196
I57431
sS'CACTGT'
p3197
I86236
sS'GTAGTC'
p3198
I26897
sS'AAATCG'
p3199
I12361
sS'GTAGTA'
p3200
I26987
sS'CACGCA'
p3201
I22702
sS'AAATCC'
p3202
I70349
sS'ACCGAA'
p3203
I10819
sS'AAATCA'
p3204
I100736
sS'CTTTGA'
p3205
I80536
sS'ATGTCT'
p3206
I66747
sS'CACGCT'
p3207
I20466
sS'AAATCT'
p3208
I92553
sS'ACCGAT'
p3209
I6460
sS'CTTGAA'
p3210
I77673
sS'GTAGTT'
p3211
I37412
sS'AGATAA'
p3212
I73527
sS'CGTTAT'
p3213
I8012
sS'GATGAT'
p3214
I52201
sS'GGAGCA'
p3215
I76997
sS'GGAGCC'
p3216
I95330
sS'AAAGTG'
p3217
I98367
sS'CCAAAT'
p3218
I78876
sS'GGAGCG'
p3219
I40388
sS'AAAACT'
p3220
I108533
sS'GATGAC'
p3221
I53240
sS'TGTCCC'
p3222
I68794
sS'GATGAA'
p3223
I70447
sS'GATGAG'
p3224
I69828
sS'AAAACC'
p3225
I87183
sS'CCAAAC'
p3226
I64216
sS'AAAACG'
p3227
I23536
sS'GGAGCT'
p3228
I86441
sS'CCAAAG'
p3229
I96010
sS'TCGCGG'
p3230
I15808
sS'CGGTCC'
p3231
I19276
sS'TCGCGC'
p3232
I14883
sS'GGGAGT'
p3233
I64254
sS'TACCCT'
p3234
I39269
sS'AGATCA'
p3235
I58524
sS'GCCACC'
p3236
I87342
sS'AGAAAT'
p3237
I133943
sS'CGACGG'
p3238
I9154
sS'GCCACG'
p3239
I29524
sS'AGATCG'
p3240
I11844
sS'ACCAGC'
p3241
I71693
sS'GGACCG'
p3242
I19271
sS'GTGCAA'
p3243
I46319
sS'ACCCGT'
p3244
I11067
sS'AGAAAG'
p3245
I145493
sS'CGACGA'
p3246
I4727
sS'CTAGAC'
p3247
I30552
sS'AGAAAC'
p3248
I100522
sS'TACCCA'
p3249
I46295
sS'AGAAAA'
p3250
I207449
sS'TACCCC'
p3251
I29668
sS'ATGTAC'
p3252
I37112
sS'ACTTCG'
p3253
I11936
sS'ATGTAA'
p3254
I71312
sS'ATGTAG'
p3255
I43126
sS'CCTATA'
p3256
I31415
sS'ACGTCA'
p3257
I15094
sS'CCGGCA'
p3258
I26691
sS'GACGAC'
p3259
I9083
sS'ATGTCG'
p3260
I7826
sS'ATGTAT'
p3261
I65573
sS'ATTAGA'
p3262
I52527
sS'CACTGA'
p3263
I84598
sS'GGCGTC'
p3264
I21702
sS'GACCGG'
p3265
I17077
sS'AGCACT'
p3266
I78935
sS'TTAGAA'
p3267
I82112
sS'CGGCTG'
p3268
I41909
sS'TTAGAC'
p3269
I31569
sS'CGGCTC'
p3270
I41285
sS'TTAGAG'
p3271
I56393
sS'CGGCTA'
p3272
I10563
sS'AGCACC'
p3273
I60562
sS'AGCACA'
p3274
I81427
sS'AGCACG'
p3275
I18830
sS'ATAGCG'
p3276
I6738
sS'GTCGGG'
p3277
I21477
sS'GCATAT'
p3278
I40812
sS'TTAGAT'
p3279
I46998
sS'CCAGCA'
p3280
I117565
sS'ACCTAT'
p3281
I32951
sS'CCAGCC'
p3282
I152021
sS'AAAGAG'
p3283
I115277
sS'ATATCA'
p3284
I48911
sS'CGACGT'
p3285
I4757
sS'TTATTT'
p3286
I185397
sS'TGTGAG'
p3287
I88894
sS'TGTGAA'
p3288
I88224
sS'CTACCT'
p3289
I49471
sS'TGTGAC'
p3290
I68516
sS'ATATCT'
p3291
I55087
sS'CCAGCT'
p3292
I118180
sS'CACGGT'
p3293
I18827
sS'AAAGAT'
p3294
I89673
sS'TGTGAT'
p3295
I70267
sS'TTATTG'
p3296
I70104
sS'TTATTA'
p3297
I90503
sS'GAAAGC'
p3298
I75217
sS'TTATTC'
p3299
I73017
sS'ACATCT'
p3300
I64657
sS'TTTTAT'
p3301
I160869
sS'GCGAAC'
p3302
I8545
sS'CTTACT'
p3303
I54681
sS'TCCACT'
p3304
I68922
sS'TACAAA'
p3305
I90104
sS'AGACGA'
p3306
I12963
sS'TACAAC'
p3307
I34307
sS'CCTCTG'
p3308
I129916
sS'AGGTGG'
p3309
I101534
sS'CCTCTC'
p3310
I115274
sS'AGGTGC'
p3311
I58095
sS'CCTCTA'
p3312
I52984
sS'AGGTGA'
p3313
I84250
sS'CTTACG'
p3314
I8997
sS'TCCACA'
p3315
I77341
sS'TTTTAG'
p3316
I89598
sS'TCCACC'
p3317
I75882
sS'CTTACC'
p3318
I38920
sS'ACATCA'
p3319
I62250
sS'CTTACA'
p3320
I52300
sS'ACATCC'
p3321
I50331
sS'AGGTGT'
p3322
I61511
sS'CCTCTT'
p3323
I97217
sS'CGTCGG'
p3324
I9605
sS'TATGAG'
p3325
I51938
sS'CCCGGA'
p3326
I35970
sS'NNCTGA'
p3327
I1
sS'CCCGGG'
p3328
I79165
sS'TTGTGT'
p3329
I80456
sS'TGGAAT'
p3330
I88685
sS'TAGGTG'
p3331
I44778
sS'NCAGAG'
p3332
I1
sS'TTGTGC'
p3333
I51260
sS'TATGAT'
p3334
I49299
sS'TTGTGG'
p3335
I72146
sS'CCCGGT'
p3336
I21217
sS'GGCGTG'
p3337
I38064
sS'TGGAAG'
p3338
I99967
sS'TGGAAC'
p3339
I54155
sS'TGGAAA'
p3340
I127959
sS'TGAGGA'
p3341
I94279
sS'AAGAGG'
p3342
I97210
sS'TGAGGC'
p3343
I88533
sS'AAGAGA'
p3344
I114993
sS'AAGAGC'
p3345
I70126
sS'TGAGGG'
p3346
I80684
sS'GCTTAG'
p3347
I40127
sS'GCTTAC'
p3348
I30137
sS'GCTTAA'
p3349
I42701
sS'TGATTC'
p3350
I73983
sS'AAGCGC'
p3351
I17812
sS'AAGAGT'
p3352
I67376
sS'AAGCGA'
p3353
I16487
sS'TGAGGT'
p3354
I74006
sS'GCTTAT'
p3355
I40195
sS'CTGCTA'
p3356
I52160
sS'GCGTGT'
p3357
I19598
sS'CTGCTC'
p3358
I99156
sS'ACTTCT'
p3359
I80222
sS'GACCGT'
p3360
I9726
sS'CTGCTG'
p3361
I140669
sS'CGGTCA'
p3362
I12637
sS'GGTCGT'
p3363
I8556
sS'CTAGAG'
p3364
I53814
sS'CTAGAA'
p3365
I63642
sS'GAAAGT'
p3366
I75504
sS'GACCGA'
p3367
I10967
sS'GACCGC'
p3368
I16639
sS'TTTTGG'
p3369
I94313
sS'ACTTCC'
p3370
I81606
sS'CTGCTT'
p3371
I103525
sS'ACTTCA'
p3372
I70759
sS'CTAGAT'
p3373
I38776
sS'GGTCGG'
p3374
I19056
sS'CATGAA'
p3375
I75589
sS'CGGTCT'
p3376
I14682
sS'GGTCGC'
p3377
I15761
sS'GGTCGA'
p3378
I7502
sS'CGTCGC'
p3379
I10986
sS'CAGCAT'
p3380
I79339
sS'TGAAGC'
p3381
I63941
sS'GCGTGA'
p3382
I21049
sS'GCGTGC'
p3383
I21419
sS'TGCTCA'
p3384
I80878
sS'TTCATC'
p3385
I70437
sS'TGCTCC'
p3386
I77007
sS'TTCATA'
p3387
I68284
sS'TTCATG'
p3388
I75528
sS'TGCTCG'
p3389
I15912
sS'CAGAAT'
p3390
I89503
sS'CAGCAG'
p3391
I140712
sS'GCTTTG'
p3392
I79448
sS'CAGCAC'
p3393
I91588
sS'CAGCAA'
p3394
I91149
sS'ATATCC'
p3395
I37435
sS'GTACAC'
p3396
I28486
sS'TGCTCT'
p3397
I92348
sS'TTCATT'
p3398
I124104
sS'GCTTTA'
p3399
I55627
sS'TGGCCG'
p3400
I32136
sS'GCTGCA'
p3401
I91098
sS'AACTCT'
p3402
I71169
sS'GCTGCG'
p3403
I42679
sS'TGGCCA'
p3404
I99901
sS'GTAGCA'
p3405
I37050
sS'TCATCT'
p3406
I91869
sS'AGCAAA'
p3407
I108619
sS'TGGCCT'
p3408
I94330
sS'AACTCC'
p3409
I67743
sS'GCTGCT'
p3410
I107389
sS'AACTCG'
p3411
I12503
sS'CAGTCG'
p3412
I13339
sS'GGATCC'
p3413
I39772
sS'TGAAGA'
p3414
I89117
sS'AATATT'
p3415
I125210
sS'GTTCGA'
p3416
I8782
sS'CAACCT'
p3417
I57701
sS'GCTGCC'
p3418
I105801
sS'GGCACG'
p3419
I23475
sS'GGCACA'
p3420
I72836
sS'GACAAT'
p3421
I41931
sS'GGCACC'
p3422
I57133
sS'CAACCG'
p3423
I11296
sS'GTACAT'
p3424
I37101
sS'AATATG'
p3425
I70123
sS'CGGTCG'
p3426
I7824
sS'AATATA'
p3427
I83165
sS'AGCAAG'
p3428
I82606
sS'CAACCA'
p3429
I54966
sS'CTTCGT'
p3430
I14064
sS'GACAAA'
p3431
I74357
sS'GGCACT'
p3432
I60089
sS'GACAAC'
p3433
I34270
sS'CAGAAC'
p3434
I70782
sS'GACAAG'
p3435
I53045
sS'TGGCCC'
p3436
I77258
sS'GCTTTT'
p3437
I94599
sS'GCAATA'
p3438
I41614
sS'GAATTT'
p3439
I92969
sS'CGATGG'
p3440
I12196
sS'TCCCAT'
p3441
I69078
sS'CGATGC'
p3442
I10158
sS'GTAAAT'
p3443
I69618
sS'CGATGA'
p3444
I11935
sS'GAATTA'
p3445
I57953
sS'GAATTC'
p3446
I60681
sS'GAATTG'
p3447
I51514
sS'CGCACG'
p3448
I13696
sS'TCCCAA'
p3449
I87014
sS'CGATGT'
p3450
I9303
sS'TCCCAC'
p3451
I83790
sS'GTAAAG'
p3452
I51004
sS'TCCCAG'
p3453
I146704
sS'GTGGNN'
p3454
I1
sS'GGATTT'
p3455
I70351
sS'GTGCGT'
p3456
I15424
sS'CTATCG'
p3457
I4948
sS'GGATTC'
p3458
I44872
sS'GGATTA'
p3459
I53234
sS'AGGTCC'
p3460
I46018
sS'ACCTCT'
p3461
I73159
sS'CTATCA'
p3462
I35585
sS'ATATAG'
p3463
I40203
sS'TCTGTG'
p3464
I113244
sS'CTATCC'
p3465
I29023
sS'GTCCCG'
p3466
I27919
sS'AACTCA'
p3467
I71661
sS'GGCGGC'
p3468
I83981
sS'CTCCTT'
p3469
I107262
sS'GGCGGA'
p3470
I39822
sS'CAGATA'
p3471
I57410
sS'GGCGGG'
p3472
I105313
sS'AACCGA'
p3473
I11118
sS'TCTGTT'
p3474
I98326
sS'AAAGCG'
p3475
I18700
sS'CTCCTG'
p3476
I142039
sS'AACCGT'
p3477
I10180
sS'CTCCTA'
p3478
I56031
sS'CTCCTC'
p3479
I132773
sS'GGCGGT'
p3480
I25061
sS'GACGCA'
p3481
I14390
sS'CCCACG'
p3482
I32739
sS'CCCACA'
p3483
I90188
sS'CCCACC'
p3484
I117114
sS'TACTTC'
p3485
I49023
sS'AGCCTT'
p3486
I77083
sS'AAGCTA'
p3487
I48033
sS'CCGATT'
p3488
I9516
sS'CCCACT'
p3489
I78579
sS'ACTTTT'
p3490
I107855
sS'AACAAT'
p3491
I75168
sS'GACGCT'
p3492
I16105
sS'ACCTCC'
p3493
I78396
sS'CCGATA'
p3494
I4878
sS'AGCCTG'
p3495
I123190
sS'AGCCTA'
p3496
I43874
sS'AGCCTC'
p3497
I104288
sS'GTACCC'
p3498
I21636
sS'GTACCA'
p3499
I27332
sS'GTACCG'
p3500
I6180
sS'CGCCTT'
p3501
I24193
sS'TGGTTC'
p3502
I53354
sS'TCNNNN'
p3503
I2
sS'CAGAGT'
p3504
I87455
sS'GCATCT'
p3505
I55901
sS'ACCTCG'
p3506
I20321
sS'TGGTTT'
p3507
I99031
sS'CGCCTC'
p3508
I52130
sS'GCGCCA'
p3509
I29144
sS'CGCCTA'
p3510
I10959
sS'AGGCAG'
p3511
I143836
sS'CGCCTG'
p3512
I46927
sS'ACGAAG'
p3513
I14064
sS'CAGAGG'
p3514
I129890
sS'GCATCC'
p3515
I44968
sS'GCATCA'
p3516
I47098
sS'CAGAGC'
p3517
I111244
sS'AAAATT'
p3518
I149098
sS'CAGAGA'
p3519
I130096
sS'TAGCTA'
p3520
I35005
sS'AGACTC'
p3521
I59681
sS'CCTAGA'
p3522
I50614
sS'CCTAGC'
p3523
I39971
sS'TTTGCT'
p3524
I108611
sS'CGGGAG'
p3525
I56044
sS'TGCGGT'
p3526
I16838
sS'CCTAGG'
p3527
I53511
sS'TAAGCA'
p3528
I59702
sS'ACGTTG'
p3529
I12643
sS'GTCTAG'
p3530
I30549
sS'TTTGCA'
p3531
I96395
sS'TGCGGA'
p3532
I17655
sS'CCTAGT'
p3533
I36710
sS'TGCGGG'
p3534
I33068
sS'TTTGCG'
p3535
I13020
sS'TGAGTT'
p3536
I71677
sS'CGGGAC'
p3537
I27917
sS'ATCGCT'
p3538
I12814
sS'ATCGCC'
p3539
I11428
sS'TGGTTA'
p3540
I49902
sS'ATCGCA'
p3541
I9193
sS'TGAGTA'
p3542
I62978
sS'ATCGCG'
p3543
I6438
sS'TGAGTC'
p3544
I107805
sS'AAGGTG'
p3545
I69203
sS'AAGGTC'
p3546
I47593
sS'CATCAT'
p3547
I65559
sS'AAGGTA'
p3548
I50879
sS'AAGCGG'
p3549
I20747
sS'ACGGCA'
p3550
I14936
sS'CATCAC'
p3551
I58931
sS'AAGGTT'
p3552
I56334
sS'CATCAA'
p3553
I52677
sS'CATCAG'
p3554
I67901
sS'ACGGCG'
p3555
I13268
sS'TCACCT'
p3556
I84256
sS'TCTAAG'
p3557
I51798
sS'CGGAAT'
p3558
I11568
sS'GTGGCT'
p3559
I93135
sS'ATCGAT'
p3560
I5987
sS'TCACCG'
p3561
I20177
sS'TCACCA'
p3562
I80859
sS'TCACCC'
p3563
I70540
sS'CGGAAG'
p3564
I26978
sS'CAACCC'
p3565
I50073
sS'AACTGG'
p3566
I69978
sS'AAAATA'
p3567
I193589
sS'CGGAAC'
p3568
I13540
sS'AGCTCG'
p3569
I18416
sS'CGGAAA'
p3570
I19903
sS'TAGCTT'
p3571
I48075
sS'ATGGCG'
p3572
I17506
sS'TGTGTA'
p3573
I70343
sS'TGTGTG'
p3574
I177388
sS'ATGGCA'
p3575
I68721
sS'ATCCCT'
p3576
I60265
sS'ATGGCT'
p3577
I65932
sS'TGTGTT'
p3578
I95964
sS'CCAAGT'
p3579
I66853
sS'AGATTA'
p3580
I54821
sS'GAAACG'
p3581
I20151
sS'GAAACA'
p3582
I98876
sS'AGATTG'
p3583
I48677
sS'ATGCAT'
p3584
I63460
sS'CTGAGT'
p3585
I96820
sS'AGGTAC'
p3586
I31937
sS'GAAACT'
p3587
I82349
sS'AGAATG'
p3588
I96160
sS'AGAATA'
p3589
I74790
sS'ACATAC'
p3590
I46752
sS'CTGAGC'
p3591
I94732
sS'CTGAGA'
p3592
I105304
sS'CTGAGG'
p3593
I121198
sS'CATACC'
p3594
I32517
sS'CATACA'
p3595
I54696
sS'CATACG'
p3596
I7280
sS'GCAATC'
p3597
I34043
sS'TCAAAT'
p3598
I85706
sS'GTCCAT'
p3599
I36145
sS'AGGGGT'
p3600
I58128
sS'CATACT'
p3601
I40795
sS'GTCCAG'
p3602
I62260
sS'CAAGCT'
p3603
I60736
sS'TCAAAG'
p3604
I80557
sS'GTCCAC'
p3605
I38009
sS'GCAATG'
p3606
I53266
sS'CGGCGG'
p3607
I63465
sS'TTGATG'
p3608
I52665
sS'ATCGAG'
p3609
I9018
sS'CGGCGC'
p3610
I45861
sS'TTGATC'
p3611
I33453
sS'CGGCGA'
p3612
I16018
sS'TTGATA'
p3613
I43440
sS'TTGATT'
p3614
I68496
sS'CGGCGT'
p3615
I13549
sS'ATGGCC'
p3616
I48810
sS'GTACGC'
p3617
I5003
sS'ATCGAC'
p3618
I4764
sS'TATAAG'
p3619
I41232
sS'CGAGTA'
p3620
I8561
sS'CGGTTA'
p3621
I7259
sS'GGTTTA'
p3622
I44733
sS'CGGTTC'
p3623
I14127
sS'GCTGTT'
p3624
I70694
sS'TTTACA'
p3625
I96034
sS'CGGTTG'
p3626
I11303
sS'GGTTTG'
p3627
I61537
sS'CCATTG'
p3628
I49623
sS'CGTACG'
p3629
I2498
sS'GCTGTG'
p3630
I104306
sS'GGTTTT'
p3631
I87211
sS'CGGTTT'
p3632
I15971
sS'GCTGTA'
p3633
I46663
sS'TATGCG'
p3634
I5894
sS'AGGTTG'
p3635
I57710
sS'AGGTTC'
p3636
I46427
sS'AGGTTA'
p3637
I45528
sS'CNNNNN'
p3638
I3
sS'GAGGGA'
p3639
I113585
sS'TTTTTC'
p3640
I165559
sS'TCCATC'
p3641
I60905
sS'TTTTTA'
p3642
I185320
sS'TTTTTG'
p3643
I142446
sS'GAGGGG'
p3644
I110731
sS'TTAAAT'
p3645
I115408
sS'AGGTTT'
p3646
I78448
sS'TAAGCG'
p3647
I8470
sS'TATGCC'
p3648
I34353
sS'TTAAAC'
p3649
I64657
sS'ATACGT'
p3650
I10135
sS'TTAAAA'
p3651
I190796
sS'ACTCCG'
p3652
I19155
sS'TTAAAG'
p3653
I86032
sS'ACTCCA'
p3654
I78778
sS'TTTTTT'
p3655
I469050
sS'ACTCCC'
p3656
I64270
sS'TAGGCT'
p3657
I43874
sS'GTCACG'
p3658
I16046
sS'CTGTAC'
p3659
I41920
sS'GCAACT'
p3660
I44246
sS'GTCACC'
p3661
I59938
sS'CTTTAG'
p3662
I55343
sS'GTCACA'
p3663
I68514
sS'GCAACG'
p3664
I12087
sS'GGTCTT'
p3665
I50400
sS'GTCACT'
p3666
I69330
sS'TAGGCG'
p3667
I10960
sS'ACGAAA'
p3668
I13807
sS'TAGGCA'
p3669
I50451
sS'GCAACA'
p3670
I58320
sS'TAGGCC'
p3671
I32052
sS'ATTCAT'
p3672
I96117
sS'GTAAAA'
p3673
I82187
sS'GCGATT'
p3674
I10493
sS'TCGTGT'
p3675
I12765
sS'TTCACT'
p3676
I84742
sS'GTCTCT'
p3677
I78005
sS'TCCGTG'
p3678
I20291
sS'ATTCAG'
p3679
I81722
sS'ATTCAA'
p3680
I76151
sS'ATTCAC'
p3681
I61265
sS'GTCTCC'
p3682
I68597
sS'TCGTGG'
p3683
I17143
sS'GCGATG'
p3684
I13171
sS'GTCTCG'
p3685
I19132
sS'GCGATA'
p3686
I5148
sS'TTCACA'
p3687
I88220
sS'GCGATC'
p3688
I11026
sS'GAAGGC'
p3689
I73256
sS'GAAGGA'
p3690
I108674
sS'GAAGGG'
p3691
I95081
sS'CGATTA'
p3692
I6337
sS'CAATCT'
p3693
I48688
sS'AGACTT'
p3694
I65284
sS'GGAACA'
p3695
I66585
sS'GGAACG'
p3696
I17166
sS'TGACGA'
p3697
I9960
sS'TACTGC'
p3698
I42411
sS'CGATTT'
p3699
I12362
sS'AAAACA'
p3700
I170092
sS'GAAGGT'
p3701
I57661
sS'CTCGCT'
p3702
I27524
sS'TTGTAG'
p3703
I49125
sS'CAATCA'
p3704
I50653
sS'GGAACT'
p3705
I60161
sS'TCCTGA'
p3706
I98896
sS'AGTCCA'
p3707
I56388
sS'TCCTGC'
p3708
I109208
sS'AGTCCC'
p3709
I61868
sS'ACTAAA'
p3710
I68416
sS'TCCTGG'
p3711
I132835
sS'ACTAAC'
p3712
I31716
sS'TAACGC'
p3713
I6977
sS'CAGCTG'
p3714
I129138
sS'CAGCTA'
p3715
I60958
sS'CAGCTC'
p3716
I107147
sS'ACTAAT'
p3717
I47230
sS'GATTGT'
p3718
I39414
sS'CGACTC'
p3719
I14843
sS'AGTCCT'
p3720
I65001
sS'TCCTGT'
p3721
I95116
sS'TAATGT'
p3722
I59887
sS'CAGCTT'
p3723
I90006
sS'TAACGT'
p3724
I10048
sS'AGCCAG'
p3725
I120096
sS'GTACTT'
p3726
I40270
sS'CGACAT'
p3727
I7827
sS'TTGTTC'
p3728
I67166
sS'CCGAGG'
p3729
I45106
sS'TTGTTG'
p3730
I71285
sS'CAGGCC'
p3731
I105334
sS'CCGAGC'
p3732
I31980
sS'CCGCGT'
p3733
I15499
sS'CGACAC'
p3734
I10226
sS'CGACAA'
p3735
I8107
sS'GTACTC'
p3736
I24173
sS'GTACTA'
p3737
I21686
sS'CCGCGC'
p3738
I56053
sS'AGCCAC'
p3739
I93236
sS'CCGCGA'
p3740
I15803
sS'CCGCGG'
p3741
I51449
sS'TTGTTT'
p3742
I159128
sS'TCCGTT'
p3743
I13408
sS'CAGGCG'
p3744
I46957
sS'AATAAC'
p3745
I59038
sS'AATAAA'
p3746
I184680
sS'AATAAG'
p3747
I70318
sS'ATCGTT'
p3748
I9195
sS'CGCCAT'
p3749
I17512
sS'GGATTG'
p3750
I39850
sS'TACTAA'
p3751
I46022
sS'AATAAT'
p3752
I105275
sS'ACGGTG'
p3753
I19201
sS'CCAACC'
p3754
I53817
sS'CCAACA'
p3755
I65272
sS'CCAACG'
p3756
I12943
sS'GGGATT'
p3757
I64815
sS'CGCCGC'
p3758
I71125
sS'AGTAAA'
p3759
I90140
sS'CGCCGA'
p3760
I15171
sS'GAGTAG'
p3761
I43385
sS'CGCCGG'
p3762
I39313
sS'GAGTAA'
p3763
I56494
sS'AGTAAG'
p3764
I54688
sS'CTCAGG'
p3765
I113026
sS'CTCAGC'
p3766
I116538
sS'CTCAGA'
p3767
I103556
sS'GAGTAT'
p3768
I33345
sS'TCGAGA'
p3769
I13837
sS'GTGTAG'
p3770
I34043
sS'TCGAGC'
p3771
I10241
sS'AGTAAT'
p3772
I60483
sS'GTGTAC'
p3773
I28483
sS'CGCCGT'
p3774
I13269
sS'GTGGCA'
p3775
I75168
sS'CATATT'
p3776
I70165
sS'CTCGGA'
p3777
I21094
sS'GTGGCG'
p3778
I31111
sS'GCCGCC'
p3779
I83993
sS'GCCGCA'
p3780
I27843
sS'GCCGCG'
p3781
I51172
sS'ACACTT'
p3782
I65564
sS'CTCGGT'
p3783
I18468
sS'AGATAT'
p3784
I55097
sS'CATATC'
p3785
I35358
sS'CATATA'
p3786
I53588
sS'GTCAGC'
p3787
I56371
sS'ACACTC'
p3788
I52287
sS'ACACTA'
p3789
I38788
sS'ACACTG'
p3790
I79512
sS'GCCGCT'
p3791
I35691
sS'ACCGGA'
p3792
I13490
sS'AAATAA'
p3793
I185483
sS'ACCGGC'
p3794
I18341
sS'TCAGCC'
p3795
I95257
sS'CTTTAA'
p3796
I86044
sS'AATCCT'
p3797
I68181
sS'AAATAG'
p3798
I85289
sS'AACTTA'
p3799
I51842
sS'CAGGTA'
p3800
I54716
sS'AACTTC'
p3801
I65123
sS'CAGGTC'
p3802
I59372
sS'CACGAC'
p3803
I10948
sS'AACTTG'
p3804
I63595
sS'CAGGTG'
p3805
I104240
sS'CTTTAT'
p3806
I83125
sS'AATCCC'
p3807
I64711
sS'GCTCGT'
p3808
I11455
sS'AATCCA'
p3809
I64955
sS'AAATAT'
p3810
I151203
sS'AATCCG'
p3811
I10261
sS'CACGAT'
p3812
I11749
sS'CAGGTT'
p3813
I70248
sS'AACTTT'
p3814
I91376
sS'TCTGTC'
p3815
I87682
sS'GGGATA'
p3816
I33913
sS'GGGATC'
p3817
I37810
sS'GGGTGT'
p3818
I58282
sS'GGAGAT'
p3819
I61890
sS'GATGCT'
p3820
I53209
sS'CGCCAA'
p3821
I15313
sS'GAGTCG'
p3822
I14840
sS'GAGCCT'
p3823
I74733
sS'GGAGAC'
p3824
I68644
sS'GGGTGA'
p3825
I70548
sS'GGAGAA'
p3826
I112374
sS'GGGTGC'
p3827
I54081
sS'GGAGAG'
p3828
I122106
sS'GGGTGG'
p3829
I112378
sS'GAGCCA'
p3830
I95478
sS'CGCAGG'
p3831
I39105
sS'GATGCG'
p3832
I11719
sS'CGCAGA'
p3833
I23715
sS'GATGCA'
p3834
I47820
sS'CGCAGC'
p3835
I42672
sS'GATGCC'
p3836
I45368
sS'CGGATT'
p3837
I10259
sS'GGTAGT'
p3838
I27342
sS'ACCCCT'
p3839
I58139
sS'GCCAAT'
p3840
I42697
sS'AACCGC'
p3841
I13698
sS'AGAAGT'
p3842
I80252
sS'ACCCCA'
p3843
I74571
sS'GGTAGA'
p3844
I41140
sS'ACCCCC'
p3845
I58213
sS'CGGATG'
p3846
I13959
sS'GCCAAG'
p3847
I83280
sS'CGGATA'
p3848
I6047
sS'ACCCCG'
p3849
I31432
sS'GGTAGG'
p3850
I43364
sS'AGAAGA'
p3851
I111949
sS'AGAAGC'
p3852
I86350
sS'GCAAGA'
p3853
I64965
sS'AGAAGG'
p3854
I106991
sS'GTTNNT'
p3855
I1
sS'CACTCC'
p3856
I78596
sS'CACTCA'
p3857
I77011
sS'CACTCG'
p3858
I16431
sS'TGCGTT'
p3859
I13348
sS'GCAAGG'
p3860
I63725
sS'AGCTTT'
p3861
I85529
sS'CCCCGG'
p3862
I63445
sS'TGCGTA'
p3863
I7864
sS'CCCCGC'
p3864
I93872
sS'CACTCT'
p3865
I75001
sS'AGCTTC'
p3866
I73659
sS'GAGCCC'
p3867
I83349
sS'AGCTTA'
p3868
I44040
sS'AGCTTG'
p3869
I60705
sS'ATACGA'
p3870
I6988
sS'CAAGAG'
p3871
I76759
sS'TTAGCT'
p3872
I52844
sS'NTATAG'
p3873
I1
sS'GTATAA'
p3874
I38113
sS'TTAGCC'
p3875
I41725
sS'TTAGCA'
p3876
I55542
sS'GACCAT'
p3877
I33570
sS'TTAGCG'
p3878
I7892
sS'CGATCC'
p3879
I10536
sS'ATAGGT'
p3880
I32940
sS'ATAAGG'
p3881
I45244
sS'TGTGCT'
p3882
I81431
sS'AAGGGC'
p3883
I66297
sS'ATAAGC'
p3884
I40182
sS'AAGGGA'
p3885
I98106
sS'ATAAGA'
p3886
I59835
sS'CCAGAC'
p3887
I66901
sS'TCTGTA'
p3888
I69289
sS'CCAGAA'
p3889
I103495
sS'CCAGAG'
p3890
I116684
sS'TGTGCG'
p3891
I20085
sS'ATAAGT'
p3892
I45175
sS'ATAGGG'
p3893
I32964
sS'TGTGCC'
p3894
I72867
sS'ATAGGA'
p3895
I47279
sS'TGTGCA'
p3896
I77785
sS'ATAGGC'
p3897
I31033
sS'GCTCGC'
p3898
I25360
sS'ATACGC'
p3899
I5814
sS'CCAGAT'
p3900
I65648
sS'AGACAA'
p3901
I77011
sS'AACAAG'
p3902
I73674
sS'AGACAC'
p3903
I66394
sS'TCCATT'
p3904
I77178
sS'AGACAG'
p3905
I104334
sS'TTTTCT'
p3906
I207375
sS'CGCTGT'
p3907
I22770
sS'GACGCC'
p3908
I21697
sS'CGTGGG'
p3909
I32731
sS'TACACT'
p3910
I43038
sS'CGTGGA'
p3911
I21740
sS'TTTTCG'
p3912
I13759
sS'AACAAC'
p3913
I58954
sS'CGCTGC'
p3914
I43676
sS'TTTTCC'
p3915
I140335
sS'CAGCGA'
p3916
I22594
sS'CGCTGG'
p3917
I38486
sS'TATGGA'
p3918
I43278
sS'TATGGC'
p3919
I32798
sS'CGTAGG'
p3920
I9720
sS'ATCGTC'
p3921
I7324
sS'CGTAGA'
p3922
I8188
sS'TATGGG'
p3923
I35952
sS'CGTAGC'
p3924
I8910
sS'CTTCAG'
p3925
I93724
sS'TGGACT'
p3926
I56407
sS'CGTAGT'
p3927
I7565
sS'TATGGT'
p3928
I37159
sS'TGGACA'
p3929
I64666
sS'TGGACC'
p3930
I38008
sS'TGGACG'
p3931
I15616
sS'CGTTAC'
p3932
I7006
sS'GGCGGN'
p3933
I1
sS'CCGGTT'
p3934
I13660
sS'GACCAA'
p3935
I41859
sS'TNTGCA'
p3936
I1
sS'GCTTGA'
p3937
I49737
sS'TGAGAC'
p3938
I70897
sS'GCTTGC'
p3939
I45879
sS'TGAGAA'
p3940
I110998
sS'TGAGAG'
p3941
I84400
sS'GCTTGG'
p3942
I65396
sS'CCTGTT'
p3943
I76990
sS'CCGGTG'
p3944
I22587
sS'CCTTGC'
p3945
I63753
sS'ACTTAT'
p3946
I45177
sS'CCTGTC'
p3947
I78409
sS'CCTGTA'
p3948
I65946
sS'CCTGTG'
p3949
I103422
sS'GCTTGT'
p3950
I50220
sS'TGAGAT'
p3951
I76045
sS'ATCGTA'
p3952
I6435
sS'GGTTGT'
p3953
I41088
sS'CANANC'
p3954
I1
sS'TATCAG'
p3955
I44324
sS'AATTCN'
p3956
I1
sS'TACACG'
p3957
I10280
sS'TAGCGT'
p3958
I7311
sS'GGTTGG'
p3959
I53814
sS'GGTTGA'
p3960
I38792
sS'GGTTGC'
p3961
I40388
sS'CACGGA'
p3962
I20287
sS'TCCCGA'
p3963
I21172
sS'TCCCGG'
p3964
I48100
sS'TGCTAT'
p3965
I51755
sS'CGTTTT'
p3966
I23545
sS'ATTCTC'
p3967
I74961
sS'ATTCTA'
p3968
I63388
sS'ATTCTG'
p3969
I89491
sS'TCATTT'
p3970
I141949
sS'GTAACT'
p3971
I43052
sS'TGCTAA'
p3972
I55575
sS'TGCTAG'
p3973
I41331
sS'CAGCGG'
p3974
I39455
sS'AGGATC'
p3975
I45866
sS'TCATTC'
p3976
I88924
sS'TCATTA'
p3977
I67524
sS'TCATTG'
p3978
I66120
sS'ATTCTT'
p3979
I99248
sS'CGTTTC'
p3980
I20163
sS'TGGCAA'
p3981
I75135
sS'CCGATC'
p3982
I8068
sS'TGGCAG'
p3983
I109658
sS'GCTGAG'
p3984
I116550
sS'CCAAGC'
p3985
I65403
sS'GCTGAC'
p3986
I56381
sS'TGGCAT'
p3987
I71974
sS'GGCCGG'
p3988
I67232
sS'NNGATC'
p3989
I1
sS'CCGATG'
p3990
I10159
sS'GGCCGC'
p3991
I62030
sS'GAACTT'
p3992
I58070
sS'GGCCGA'
p3993
I29321
sS'GGCAAT'
p3994
I43750
sS'CGCTCG'
p3995
I17770
sS'CTATAA'
p3996
I50330
sS'CTGATT'
p3997
I72522
sS'NCCCAC'
p3998
I1
sS'CCATCG'
p3999
I12195
sS'CTAAAT'
p4000
I63783
sS'CCATCC'
p4001
I66135
sS'CCATCA'
p4002
I58289
sS'CTGATC'
p4003
I41615
sS'CTGATA'
p4004
I44311
sS'GAGTTT'
p4005
I74791
sS'GGCAAC'
p4006
I46184
sS'GGCAAA'
p4007
I76476
sS'CTAAAG'
p4008
I55341
sS'CCATCT'
p4009
I82734
sS'CTAAAC'
p4010
I43084
sS'TTGCGT'
p4011
I10529
sS'GACACC'
p4012
I43706
sS'GACACA'
p4013
I74074
sS'GACACG'
p4014
I16698
sS'CCAAGA'
p4015
I80868
sS'GCGCCT'
p4016
I35673
sS'TTCACC'
p4017
I61663
sS'TAGCGA'
p4018
I7042
sS'TACGAG'
p4019
I7491
sS'TACGAC'
p4020
I4922
sS'GGAAAG'
p4021
I117446
sS'GACACT'
p4022
I50913
sS'GGCGAT'
p4023
I11431
sS'CGTGAG'
p4024
I24694
sS'TGTTAC'
p4025
I45178
sS'CTATTG'
p4026
I38928
sS'GCATAA'
p4027
I39017
sS'CTATTC'
p4028
I41145
sS'TCGATG'
p4029
I8339
sS'TCGATA'
p4030
I4735
sS'TCGATC'
p4031
I6127
sS'CTATTT'
p4032
I85265
sS'CGCGAA'
p4033
I6959
sS'GCATTG'
p4034
I44024
sS'CAGCCT'
p4035
I151768
sS'TCGATT'
p4036
I8072
sS'TCGGCA'
p4037
I13097
sS'GAGTTG'
p4038
I52616
sS'NNCCAC'
p4039
I1
sS'TTTTGA'
p4040
I109169
sS'AACCAA'
p4041
I68262
sS'TGCCGG'
p4042
I26707
sS'AACCAC'
p4043
I66109
sS'TGCCGC'
p4044
I27390
sS'AACCAG'
p4045
I71554
sS'TGCCGA'
p4046
I13099
sS'TTGGAC'
p4047
I38266
sS'TCTGGA'
p4048
I92499
sS'GCGCCG'
p4049
I45854
sS'TGCCGT'
p4050
I14949
sS'AACCAT'
p4051
I51341
sS'AACAGA'
p4052
I98315
sS'CTACCG'
p4053
I9679
sS'AACAGC'
p4054
I70670
sS'CTACCC'
p4055
I38671
sS'AACAGG'
p4056
I76976
sS'CTACCA'
p4057
I42630
sS'CCCAAG'
p4058
I82996
sS'TTGGAG'
p4059
I77780
sS'GACGAA'
p4060
I9762
sS'CCCAAC'
p4061
I55103
sS'CCCAAA'
p4062
I96885
sS'GGGAGG'
p4063
I192315
sS'GGGAGA'
p4064
I111988
sS'AACAGT'
p4065
I66887
sS'GGGAGC'
p4066
I91849
sS'CCCAAT'
p4067
I39431
sS'GACGAT'
p4068
I7320
sS'GGGCGC'
p4069
I61953
sS'GGGCGA'
p4070
I28048
sS'NGCGCC'
p4071
I1
sS'GGGCGG'
p4072
I99760
sS'TCTCTT'
p4073
I115029
sS'AGGCAT'
p4074
I72844
sS'CGTTAA'
p4075
I8883
sS'GTACAA'
p4076
I35054
sS'ACGACT'
p4077
I9769
sS'TCTCTC'
p4078
I126218
sS'TCTCTA'
p4079
I71362
sS'TCTCTG'
p4080
I130073
sS'GGGCGT'
p4081
I27400
sS'CAGAAA'
p4082
I146106
sS'ACGACA'
p4083
I10171
sS'ACGACG'
p4084
I4921
sS'CAGAAG'
p4085
I110305
sS'CACTTT'
p4086
I98353
sS'CCTAAT'
p4087
I40162
sS'CACTTG'
p4088
I67384
sS'CCTAAC'
p4089
I34730
sS'CCTAAA'
p4090
I58798
sS'CACTTC'
p4091
I75913
sS'CCTAAG'
p4092
I46870
sS'CACTTA'
p4093
I55853
sS'GCGGAT'
p4094
I12906
sS'CTGCGG'
p4095
I44607
sS'AAGATT'
p4096
I71329
sS'AACTAG'
p4097
I40111
sS'CTCATG'
p4098
I71707
sS'GACTCG'
p4099
I16221
sS'CTCATC'
p4100
I69831
sS'GACTCC'
p4101
I56675
sS'CTCATA'
p4102
I51936
sS'GACTCA'
p4103
I107787
sS'AAGATA'
p4104
I64163
sS'GCCCTA'
p4105
I34971
sS'AAGATG'
p4106
I80276
sS'GACTCT'
p4107
I58442
sS'CTCATT'
p4108
I94644
sS'ATCGAA'
p4109
I7483
sS'GGACTA'
p4110
I31049
sS'ATATTT'
p4111
I151176
sS'ATAGAG'
p4112
I46831
sS'AACTAA'
p4113
I55420
sS'ATAGTT'
p4114
I48315
sS'TACTGT'
p4115
I57049
sS'ATATTC'
p4116
I57677
sS'ATATTA'
p4117
I69568
sS'ATATTG'
p4118
I52543
sS'ATAGTA'
p4119
I40099
sS'TACTGA'
p4120
I54910
sS'TACTGG'
p4121
I44377
sS'ATAGTG'
p4122
I39577
sS'GATCGA'
p4123
I6124
sS'CAGGCA'
p4124
I123660
sS'AGGAAG'
p4125
I159846
sS'CATCCG'
p4126
I13968
sS'ACGGAG'
p4127
I23138
sS'CATCCA'
p4128
I64862
sS'AGGAAC'
p4129
I67766
sS'CATCCC'
p4130
I66768
sS'TTATGA'
p4131
I66188
sS'TTATGC'
p4132
I39001
sS'CGGAGT'
p4133
I19146
sS'TTATGG'
p4134
I46077
sS'CATCCT'
p4135
I80426
sS'AGGAAT'
p4136
I93183
sS'TACAGC'
p4137
I46685
sS'CAGGCT'
p4138
I123167
sS'ACGGAT'
p4139
I9165
sS'CGGAGA'
p4140
I26371
sS'CGGAGC'
p4141
I40844
sS'TTATGT'
p4142
I67865
sS'CGGAGG'
p4143
I45374
sS'ATGGAA'
p4144
I85039
sS'ATANNA'
p4145
I1
sS'ATGGAC'
p4146
I36147
sS'ATGGAG'
p4147
I74057
sS'CGCTTG'
p4148
I17342
sS'CGCTTA'
p4149
I8470
sS'CGCTTC'
p4150
I23172
sS'ATGGAT'
p4151
I49855
sS'GTGTGN'
p4152
I1
sS'TGCGGC'
p4153
I27850
sS'CGCTTT'
p4154
I18707
sS'TGGGGA'
p4155
I115140
sS'ATCCCC'
p4156
I50069
sS'ACTTGG'
p4157
I66817
sS'TTTGCC'
p4158
I76460
sS'GAAAAG'
p4159
I120317
sS'GAAAAC'
p4160
I92527
sS'ATAGAT'
p4161
I44992
sS'GAAAAA'
p4162
I165655
sS'ACGGTT'
p4163
I10182
sS'GAAAAT'
p4164
I121776
sS'ACAAGG'
p4165
I64028
sS'ACAAGA'
p4166
I69390
sS'AAAAAA'
p4167
I469772
sS'ACAAGC'
p4168
I50224
sS'ACACGT'
p4169
I18227
sS'CTGCGT'
p4170
I21921
sS'GACGTC'
p4171
I12858
sS'GCGGAG'
p4172
I48506
sS'CATAAG'
p4173
I41352
sS'GCGGAA'
p4174
I19196
sS'CATAAA'
p4175
I86465
sS'GCGGAC'
p4176
I17791
sS'CATAAC'
p4177
I35357
sS'ACACGC'
p4178
I19591
sS'ACAAGT'
p4179
I54155
sS'ACACGA'
p4180
I12762
sS'ACACGG'
p4181
I19235
sS'CCTCCC'
p4182
I192339
sS'CATAAT'
p4183
I56104
sS'GTCCCA'
p4184
I60650
sS'GCACAT'
p4185
I54442
sS'GTCCCC'
p4186
I63315
sS'CTGCGA'
p4187
I18580
sS'CTGCGC'
p4188
I39545
sS'CGGCAA'
p4189
I13446
sS'CGGCAC'
p4190
I18637
sS'CGGCAG'
p4191
I38333
sS'GACGCG'
p4192
I15404
sS'NTGCAC'
p4193
I1
sS'CCTCCT'
p4194
I151482
sS'AGCGCT'
p4195
I22772
sS'CGGCAT'
p4196
I11716
sS'AGGCAC'
p4197
I68800
sS'CCTCCA'
p4198
I109574
sS'CACGCC'
p4199
I38015
sS'CCTCCG'
p4200
I45365
sS'CGTGAT'
p4201
I13777
s.