(dp0
S'GGGCTT'
p1
I67784
sS'GAACGT'
p2
I10411
sS'CTTCTT'
p3
I58453
sS'CACCCT'
p4
I80032
sS'GAACGG'
p5
I16008
sS'GAACGC'
p6
I16197
sS'GAACGA'
p7
I9492
sS'CACCCA'
p8
I86863
sS'CTTCTA'
p9
I30090
sS'CACCCC'
p10
I121115
sS'CTTCTC'
p11
I82820
sS'CACCCG'
p12
I45844
sS'CTTCTG'
p13
I80159
sS'CGTGTG'
p14
I32830
sS'TAAGGT'
p15
I17333
sS'CGTGTC'
p16
I20844
sS'CGTGTA'
p17
I8330
sS'AGGCAA'
p18
I50505
sS'GGAAAT'
p19
I55196
sS'TAAGGG'
p20
I26112
sS'CGTGTT'
p21
I14344
sS'TAAGGC'
p22
I23520
sS'TAAGGA'
p23
I30173
sS'GTCAAA'
p24
I25227
sS'AGGGAT'
p25
I43702
sS'GTCAAG'
p26
I25769
sS'CTGTCC'
p27
I87893
sS'TCAGAG'
p28
I73250
sS'CTGTCA'
p29
I57650
sS'CTGTCG'
p30
I19898
sS'TCAGAC'
p31
I38575
sS'TCAGAA'
p32
I55592
sS'GTCAAT'
p33
I15277
sS'GTATCA'
p34
I14277
sS'GTATCC'
p35
I13911
sS'GTATCG'
p36
I3301
sS'CTGTCT'
p37
I77877
sS'GGTGTC'
p38
I44517
sS'GGTGTA'
p39
I16339
sS'GGTGTG'
p40
I63856
sS'TATCCT'
p41
I23240
sS'CCGGGG'
p42
I108732
sS'TTCTGT'
p43
I65392
sS'ATTCCT'
p44
I42169
sS'CCGGGC'
p45
I110386
sS'CCGGGA'
p46
I70756
sS'TATCCA'
p47
I22222
sS'TATCCC'
p48
I20586
sS'GTTCTG'
p49
I51405
sS'GGCGAG'
p50
I50656
sS'GGTGTT'
p51
I32189
sS'ATTCCG'
p52
I9906
sS'TTCTGG'
p53
I73829
sS'CCGGGT'
p54
I43349
sS'ATTCCC'
p55
I39770
sS'TTCTGC'
p56
I68719
sS'ATTCCA'
p57
I40986
sS'TTCTGA'
p58
I55567
sS'TGCACT'
p59
I44094
sS'GGNCCC'
p60
I1
sS'GGNCCG'
p61
I1
sS'CGTCAT'
p62
I10029
sS'CGCGGT'
p63
I23964
sS'CCCGCG'
p64
I79025
sS'ACGAAC'
p65
I6708
sS'CGCGGG'
p66
I79029
sS'NCCGCC'
p67
I1
sS'CGCGGC'
p68
I78179
sS'CGCGGA'
p69
I31913
sS'NCCCAC'
p70
I1
sS'ACCTGT'
p71
I39165
sS'TCATGT'
p72
I31843
sS'CTCCGA'
p73
I26873
sS'TTACAG'
p74
I40562
sS'CTCCGC'
p75
I68819
sS'TTACAA'
p76
I30109
sS'CCGGCA'
p77
I40938
sS'TTACAC'
p78
I20304
sS'CTCCGG'
p79
I59564
sS'TCATGC'
p80
I30396
sS'ACCTGG'
p81
I80946
sS'GGCGAA'
p82
I16915
sS'TCATGG'
p83
I36469
sS'ACCTGC'
p84
I71960
sS'GCGCNN'
p85
I1
sS'ACCTGA'
p86
I39180
sS'GTATTT'
p87
I37145
sS'CTCGAT'
p88
I8455
sS'CTCCGT'
p89
I27969
sS'GCCTGA'
p90
I70000
sS'GCCTGC'
p91
I122684
sS'GCCTGG'
p92
I184617
sS'TCTTGC'
p93
I40153
sS'GGGTCA'
p94
I50673
sS'TAAAGG'
p95
I32643
sS'CAAATT'
p96
I38643
sS'TAAAGA'
p97
I38320
sS'TAAAGC'
p98
I30503
sS'GCCTGT'
p99
I75885
sS'TCCCCG'
p100
I75451
sS'TAAAGT'
p101
I28504
sS'CAAATA'
p102
I37985
sS'ACGTCC'
p103
I18122
sS'CAAATC'
p104
I34107
sS'CGTGCT'
p105
I24040
sS'CAAATG'
p106
I48058
sS'AATACT'
p107
I23479
sS'TATCTC'
p108
I29120
sS'GGCATG'
p109
I46087
sS'GGCATA'
p110
I17929
sS'GGCATC'
p111
I43938
sS'AATACG'
p112
I5767
sS'AATACA'
p113
I36059
sS'AATACC'
p114
I17205
sS'GGCATT'
p115
I35742
sS'CGTCAG'
p116
I20232
sS'TGCACA'
p117
I58799
sS'GAGCAC'
p118
I49005
sS'ACTGAT'
p119
I28088
sS'GAGCAG'
p120
I109479
sS'AGTAGT'
p121
I16310
sS'TCTCGC'
p122
I24227
sS'TCTCGA'
p123
I11200
sS'TCTCGG'
p124
I30932
sS'ACTGAG'
p125
I54902
sS'AGTAGA'
p126
I25138
sS'AGTAGG'
p127
I25935
sS'ACTGAA'
p128
I41860
sS'ACGGCC'
p129
I32545
sS'TCTCGT'
p130
I12032
sS'GTGTCG'
p131
I12839
sS'TCGAAC'
p132
I6790
sS'TCGAAA'
p133
I7002
sS'GTGTCC'
p134
I55895
sS'TCGAAG'
p135
I10683
sS'GTGTCA'
p136
I35065
sS'ATTTGC'
p137
I37037
sS'CTTGCT'
p138
I54055
sS'CCGTCT'
p139
I26732
sS'GTGTCT'
p140
I51887
sS'AGCCCC'
p141
I137789
sS'TCGAAT'
p142
I5493
sS'CTTGCG'
p143
I16154
sS'CTTGCA'
p144
I40669
sS'CTTGCC'
p145
I55144
sS'CGAAAG'
p146
I12753
sS'CGAAAA'
p147
I9987
sS'CGAAAC'
p148
I9257
sS'AATCAT'
p149
I31054
sS'AAATGC'
p150
I50813
sS'CACGGC'
p151
I40646
sS'AAATGA'
p152
I65881
sS'CCANTC'
p153
I1
sS'AAATGG'
p154
I53577
sS'CACGGG'
p155
I40128
sS'ACAGTA'
p156
I26404
sS'CGAAAT'
p157
I7607
sS'ACAGTT'
p158
I33579
sS'AATCAG'
p159
I41445
sS'AATCAA'
p160
I34096
sS'AAATGT'
p161
I58695
sS'AATCAC'
p162
I31420
sS'GGGTCT'
p163
I62044
sS'GCTCAA'
p164
I31506
sS'TCTAGT'
p165
I20549
sS'TTGCCG'
p166
I15629
sS'TTGCCA'
p167
I45220
sS'TTGCCC'
p168
I48608
sS'GGGTAC'
p169
I18809
sS'TCTAGG'
p170
I30864
sS'GGGTAA'
p171
I22679
sS'TCTAGA'
p172
I26843
sS'GGGTAG'
p173
I32160
sS'TCTAGC'
p174
I22854
sS'ATACGG'
p175
I5070
sS'ATACAT'
p176
I26568
sS'AGATGT'
p177
I42428
sS'TCGCCC'
p178
I38934
sS'AGNNNN'
p179
I1
sS'TCGCCA'
p180
I19756
sS'ATAGTC'
p181
I12486
sS'TCGCCG'
p182
I24136
sS'GGTAAT'
p183
I18523
sS'ACCCAT'
p184
I28010
sS'GTCAAC'
p185
I16090
sS'CTCACC'
p186
I75692
sS'ACCCAC'
p187
I59418
sS'GGTAAC'
p188
I16011
sS'ACCCAA'
p189
I33787
sS'AGATGG'
p190
I65086
sS'ACCCAG'
p191
I90469
sS'GGTAAG'
p192
I22741
sS'TCGCCT'
p193
I25345
sS'AGATGC'
p194
I47497
sS'TTTGAG'
p195
I44710
sS'CCCCAT'
p196
I64001
sS'TTGGGT'
p197
I33757
sS'CACTAG'
p198
I22648
sS'CACTAA'
p199
I23371
sS'CACTAC'
p200
I17282
sS'CCCCAA'
p201
I72771
sS'CCCCAC'
p202
I143633
sS'CCCCAG'
p203
I190407
sS'CACTAT'
p204
I17084
sS'TTGGGG'
p205
I72737
sS'TCGGTT'
p206
I9903
sS'TTGGGA'
p207
I50463
sS'TTGGGC'
p208
I44522
sS'TGCCTG'
p209
I117930
sS'TGCAGA'
p210
I81868
sS'TTTCTG'
p211
I85574
sS'TGCAGC'
p212
I102001
sS'TTTCTA'
p213
I47065
sS'TTTCTC'
p214
I80018
sS'TGCAGG'
p215
I111207
sS'ACGCCT'
p216
I23484
sS'GTATCT'
p217
I20720
sS'TTTCTT'
p218
I88803
sS'ACGTGC'
p219
I21356
sS'TGCCTT'
p220
I63268
sS'TGCAGT'
p221
I57331
sS'TAGTGC'
p222
I17297
sS'AAGGAA'
p223
I74951
sS'TACAGT'
p224
I25849
sS'AAGGAC'
p225
I41448
sS'AAGGAG'
p226
I78285
sS'ATATGC'
p227
I18978
sS'GTTCCA'
p228
I36886
sS'ATATGA'
p229
I23479
sS'TACGAA'
p230
I4665
sS'ATATGG'
p231
I21140
sS'GAGTTC'
p232
I32447
sS'GTGTAT'
p233
I21796
sS'AAGGAT'
p234
I32800
sS'CTATCA'
p235
I18573
sS'TGACTT'
p236
I39658
sS'GGTCCC'
p237
I81077
sS'GCCCAG'
p238
I172134
sS'GGTCCA'
p239
I40047
sS'GCCCAA'
p240
I44568
sS'GGTCCG'
p241
I26149
sS'AGGTCT'
p242
I43488
sS'TGTGTC'
p243
I53531
sS'AGACCC'
p244
I62017
sS'AGACCA'
p245
I45010
sS'CTTCGA'
p246
I10685
sS'CTTCGC'
p247
I21326
sS'ATGCAA'
p248
I32375
sS'GCCCAT'
p249
I42225
sS'AGGTCA'
p250
I50414
sS'TCCGGC'
p251
I38704
sS'GGTCCT'
p252
I55558
sS'TCCGGA'
p253
I23889
sS'CTTAGC'
p254
I25360
sS'ATTGTG'
p255
I28862
sS'CTTAGA'
p256
I25419
sS'ATGCAC'
p257
I30445
sS'CTTAGG'
p258
I27803
sS'TCAGAT'
p259
I40526
sS'TCTTGG'
p260
I50651
sS'GCCTTT'
p261
I56887
sS'ATTTTG'
p262
I48345
sS'CGCTAA'
p263
I7484
sS'ATTTTA'
p264
I65073
sS'TAAATT'
p265
I45792
sS'ATTTTC'
p266
I59457
sS'TCCAGC'
p267
I100580
sS'TAGCAG'
p268
I34487
sS'GATACT'
p269
I15206
sS'TAGCAC'
p270
I20460
sS'TAGCAA'
p271
I25599
sS'GAGGTT'
p272
I36732
sS'ATTTTT'
p273
I88387
sS'GCCTTG'
p274
I62963
sS'GTGGGG'
p275
I143620
sS'GCCTTA'
p276
I23520
sS'TTGACA'
p277
I27864
sS'GCCTTC'
p278
I68906
sS'GATACG'
p279
I4644
sS'TAGCAT'
p280
I21038
sS'GATACC'
p281
I12952
sS'GATACA'
p282
I19394
sS'TGAGCT'
p283
I59765
sS'ACGGAC'
p284
I13070
sS'GATCAT'
p285
I19096
sS'TACCGG'
p286
I8376
sS'AAGACA'
p287
I48187
sS'AAGACC'
p288
I33648
sS'GTGGGC'
p289
I87828
sS'AAACAT'
p290
I48267
sS'AAGACG'
p291
I15169
sS'GATCAG'
p292
I28342
sS'TGAGCG'
p293
I27135
sS'CTCGAG'
p294
I21161
sS'TGAGCA'
p295
I58577
sS'TGAGCC'
p296
I73684
sS'AAGACT'
p297
I31075
sS'GCGGTC'
p298
I24583
sS'GCGGTA'
p299
I9400
sS'CGTGCA'
p300
I23846
sS'GCGGTG'
p301
I48126
sS'CGGTGT'
p302
I18504
sS'TCGTTA'
p303
I5065
sS'TCGTTC'
p304
I9491
sS'CTTCCC'
p305
I122003
sS'ACTTGT'
p306
I26324
sS'TGTGTG'
p307
I136806
sS'GCGGTT'
p308
I15445
sS'ACTTGC'
p309
I30574
sS'ATGTGA'
p310
I38923
sS'ACTTGA'
p311
I28473
sS'CGGTGG'
p312
I46927
sS'ACTTGG'
p313
I41359
sS'CGGTGA'
p314
I23236
sS'CGGTGC'
p315
I35707
sS'TTCCTA'
p316
I36388
sS'TAGACT'
p317
I17285
sS'TTCCTC'
p318
I85438
sS'ACTGAC'
p319
I32017
sS'CTTCCG'
p320
I31611
sS'TTCCTG'
p321
I101690
sS'TCCTTT'
p322
I67214
sS'GACCCA'
p323
I52678
sS'ACGCTA'
p324
I5879
sS'TAGACG'
p325
I6558
sS'TTCCTT'
p326
I74886
sS'TAGACC'
p327
I14931
sS'TAGACA'
p328
I23368
sS'TCCTTG'
p329
I54288
sS'TCCTTA'
p330
I30135
sS'TCCTTC'
p331
I75599
sS'ATCTCT'
p332
I47960
sS'ACCGTT'
p333
I7861
sS'TGGCGC'
p334
I40644
sS'TGGCGA'
p335
I19766
sS'GGCCAT'
p336
I47310
sS'ATCTCG'
p337
I11959
sS'ATCTCA'
p338
I40782
sS'ATCTCC'
p339
I46324
sS'GGCCAA'
p340
I52619
sS'GGCCAC'
p341
I92751
sS'ACCGTG'
p342
I20414
sS'ACCGTA'
p343
I5054
sS'TGGCGT'
p344
I20474
sS'ACCGTC'
p345
I13754
sS'ACCGAC'
p346
I11315
sS'AGATTA'
p347
I28141
sS'NGATCC'
p348
I1
sS'GGCAGT'
p349
I60319
sS'CCATAA'
p350
I22106
sS'CAAAGG'
p351
I56735
sS'CCATAC'
p352
I14654
sS'CTAACT'
p353
I19447
sS'AGATTC'
p354
I29900
sS'CAAAGC'
p355
I56185
sS'CAACGT'
p356
I9722
sS'GGCAGA'
p357
I99039
sS'GGCAGC'
p358
I143313
sS'AACGTA'
p359
I5544
sS'GGCAGG'
p360
I176025
sS'CAACGC'
p361
I13884
sS'CTAACA'
p362
I23473
sS'CAACGA'
p363
I8406
sS'CTAACC'
p364
I18592
sS'CCATAT'
p365
I21163
sS'GCACTG'
p366
I66971
sS'GGGGGT'
p367
I81793
sS'CGAGTG'
p368
I20920
sS'GAAACC'
p369
I43198
sS'CGATCT'
p370
I9727
sS'NNNNNC'
p371
I1
sS'CTCTAG'
p372
I33655
sS'CTCTAA'
p373
I30288
sS'CTCTAC'
p374
I27088
sS'GGGGGG'
p375
I91816
sS'TACGCA'
p376
I6028
sS'TACGCC'
p377
I7227
sS'GGGGGC'
p378
I154359
sS'CGATCG'
p379
I4241
sS'GGGGGA'
p380
I101753
sS'TACGCG'
p381
I4789
sS'CTCTAT'
p382
I22882
sS'CAGACC'
p383
I64145
sS'CAGACA'
p384
I76992
sS'CAGACG'
p385
I28353
sS'TAGTTG'
p386
I15705
sS'GCTAAT'
p387
I23882
sS'TAGTTC'
p388
I16932
sS'TAGTTA'
p389
I16332
sS'CGCTNN'
p390
I1
sS'CAGACT'
p391
I48976
sS'GCTAAG'
p392
I25383
sS'TAGTTT'
p393
I27275
sS'GCTAAC'
p394
I15612
sS'GCTAAA'
p395
I24840
sS'TGCATT'
p396
I44433
sS'TGCTGC'
p397
I106593
sS'AACCCT'
p398
I38529
sS'AACCCC'
p399
I48419
sS'AACCCA'
p400
I44589
sS'AACCCG'
p401
I20100
sS'TTTCCG'
p402
I19046
sS'TGCATC'
p403
I35865
sS'AGAATA'
p404
I31854
sS'ACGTAA'
p405
I6278
sS'CTACAC'
p406
I20619
sS'TAAGTA'
p407
I20668
sS'AGTTTA'
p408
I27880
sS'CCCAGA'
p409
I113559
sS'CCCAGC'
p410
I196437
sS'AGAATC'
p411
I32902
sS'CCCAGG'
p412
I207900
sS'AACTGT'
p413
I33555
sS'AGTTTT'
p414
I44487
sS'CTACAT'
p415
I20828
sS'CCCAGT'
p416
I69380
sS'CGCATA'
p417
I4593
sS'ATACTG'
p418
I21602
sS'CGCATC'
p419
I16079
sS'ATACTA'
p420
I13269
sS'ATACTC'
p421
I14316
sS'CGCATG'
p422
I15727
sS'GCGCAA'
p423
I12797
sS'GCGAAT'
p424
I6926
sS'ATACTT'
p425
I20974
sS'CGCATT'
p426
I9857
sS'AGGCCC'
p427
I116842
sS'GCTCCG'
p428
I60986
sS'TATTGT'
p429
I24322
sS'GCTCCC'
p430
I122690
sS'GCTCCA'
p431
I81756
sS'CCTACT'
p432
I25936
sS'TGTACT'
p433
I22538
sS'TTTAGT'
p434
I27882
sS'TATTGG'
p435
I17543
sS'GCTCCT'
p436
I96556
sS'TATTGC'
p437
I18420
sS'TATTGA'
p438
I20545
sS'TTTAGG'
p439
I29024
sS'TGTACG'
p440
I6250
sS'CCTACG'
p441
I10418
sS'TGTACA'
p442
I26753
sS'TTTAGC'
p443
I24814
sS'ACAGTG'
p444
I55774
sS'CCTACC'
p445
I34035
sS'TTCGCG'
p446
I9683
sS'TTCGCA'
p447
I9664
sS'TTCGCC'
p448
I16917
sS'AGTATC'
p449
I15203
sS'GACTAA'
p450
I16344
sS'AGTATA'
p451
I14816
sS'TTTGGG'
p452
I56947
sS'AGTATG'
p453
I16694
sS'TTTGGA'
p454
I45716
sS'TTTGGC'
p455
I41127
sS'TTCGCT'
p456
I12921
sS'GATCNN'
p457
I3
sS'TTTGGT'
p458
I35099
sS'GCCACA'
p459
I73350
sS'GACTAT'
p460
I12496
sS'AGTATT'
p461
I23480
sS'TTACTC'
p462
I22143
sS'TTACTA'
p463
I18981
sS'TTACTG'
p464
I32273
sS'ACCTTG'
p465
I38071
sS'ACCTTC'
p466
I40794
sS'ACCTTA'
p467
I17322
sS'TTACTT'
p468
I32402
sS'ACTCTC'
p469
I38736
sS'ACGCTT'
p470
I11231
sS'ACCTTT'
p471
I33771
sS'ACAGGG'
p472
I77733
sS'CTGGGA'
p473
I134262
sS'CTGGGC'
p474
I172106
sS'ACAGGC'
p475
I75905
sS'TTATAT'
p476
I30493
sS'CTGGGG'
p477
I190385
sS'AGGACG'
p478
I31039
sS'GCAGCT'
p479
I109828
sS'CAGGAA'
p480
I101734
sS'TCGCTT'
p481
I14113
sS'CAGGAG'
p482
I136780
sS'AGGACA'
p483
I67120
sS'GCGCAT'
p484
I14597
sS'TTATAC'
p485
I15280
sS'ACAGGT'
p486
I39179
sS'CTGGGT'
p487
I90423
sS'TTATAG'
p488
I19788
sS'TCGCTG'
p489
I29763
sS'GAGTTG'
p490
I32382
sS'GCAGCG'
p491
I69248
sS'AGGACT'
p492
I47993
sS'GCAGCA'
p493
I106583
sS'TCGCTA'
p494
I6057
sS'CAGGAT'
p495
I53188
sS'CCTCAG'
p496
I111027
sS'CCTCAA'
p497
I41490
sS'CCTCAC'
p498
I75283
sS'TATGTT'
p499
I26955
sS'ATGGGC'
p500
I42243
sS'TCTTTG'
p501
I51769
sS'ATGGGA'
p502
I47074
sS'TCTTTA'
p503
I38264
sS'ATGGGG'
p504
I63990
sS'TCTTTC'
p505
I64814
sS'CCTCAT'
p506
I47048
sS'NNNAGC'
p507
I1
sS'TCTTTT'
p508
I72953
sS'TATGTG'
p509
I29155
sS'TATGTA'
p510
I22901
sS'ATGGGT'
p511
I27995
sS'TATGTC'
p512
I17871
sS'GAAAGA'
p513
I64866
sS'ATCAAG'
p514
I26019
sS'CATGAT'
p515
I25627
sS'ATCAAC'
p516
I18210
sS'GAAAGG'
p517
I70847
sS'GTCCAC'
p518
I38436
sS'GTCAGG'
p519
I61466
sS'ACGTGG'
p520
I30587
sS'AGTTTC'
p521
I41451
sS'CATGAG'
p522
I38521
sS'ATCAAT'
p523
I20857
sS'GTCCAA'
p524
I23800
sS'CATGAC'
p525
I27445
sS'CATGAA'
p526
I35936
sS'GTAGCG'
p527
I9395
sS'CAAGTT'
p528
I30092
sS'GCTTTG'
p529
I56147
sS'GTAGCC'
p530
I23997
sS'GCTTTC'
p531
I53690
sS'AGCGGT'
p532
I17575
sS'GAGGAT'
p533
I41601
sS'AAAGTA'
p534
I32644
sS'GCTTTT'
p535
I57150
sS'TGCCAG'
p536
I95797
sS'GTAGCT'
p537
I24407
sS'GCGGCC'
p538
I100858
sS'CAAGTC'
p539
I34565
sS'GCGGCA'
p540
I43004
sS'TTACAT'
p541
I31436
sS'AACGGT'
p542
I7859
sS'CGTACG'
p543
I2966
sS'TAATCG'
p544
I4351
sS'CTTGTG'
p545
I40871
sS'TAATCA'
p546
I28484
sS'TAATCC'
p547
I23068
sS'TGCGAA'
p548
I9671
sS'CGGCCC'
p549
I98854
sS'CGACTA'
p550
I4317
sS'CGGCCA'
p551
I50587
sS'CGGCCG'
p552
I71657
sS'TCGTGA'
p553
I9473
sS'CTTGTA'
p554
I21337
sS'GGTCTG'
p555
I64170
sS'TAATCT'
p556
I28156
sS'TGCGAC'
p557
I11345
sS'GGTCTC'
p558
I54877
sS'GGTCTA'
p559
I14940
sS'AAAATG'
p560
I75354
sS'AAAATC'
p561
I46869
sS'CGGCCT'
p562
I59679
sS'TCGTCA'
p563
I8914
sS'ATCCCT'
p564
I43688
sS'TTCAGG'
p565
I55978
sS'GAACAT'
p566
I28334
sS'TCGTCG'
p567
I7121
sS'TGCCAA'
p568
I45645
sS'TCGGGA'
p569
I25335
sS'GAACAA'
p570
I34580
sS'ATCCCG'
p571
I20488
sS'GAACAC'
p572
I33123
sS'ATCCCC'
p573
I48425
sS'GAACAG'
p574
I51266
sS'TTCAGT'
p575
I41828
sS'GCACTT'
p576
I41174
sS'AACGGA'
p577
I11460
sS'CACCAC'
p578
I65100
sS'NNNCTG'
p579
I1
sS'CACCAA'
p580
I39286
sS'CACCAG'
p581
I85123
sS'TCCGTG'
p582
I25247
sS'TCGTGC'
p583
I13895
sS'TCCGTC'
p584
I19554
sS'GAGTTA'
p585
I20877
sS'TCCGTA'
p586
I6365
sS'ACCAGA'
p587
I51558
sS'ACGCGA'
p588
I7718
sS'CACCAT'
p589
I40851
sS'AACATG'
p590
I35548
sS'AACATA'
p591
I26979
sS'AACATC'
p592
I30738
sS'GTCAGN'
p593
I1
sS'GTCAGC'
p594
I50316
sS'GCACGG'
p595
I34840
sS'GTCAGA'
p596
I41226
sS'GCACGA'
p597
I13895
sS'CAGTCC'
p598
I59815
sS'GCACGC'
p599
I30900
sS'CAGTCA'
p600
I46213
sS'GCAAGC'
p601
I39142
sS'GCACGT'
p602
I21356
sS'CAGTCT'
p603
I47867
sS'TCAGCT'
p604
I66118
sS'GTCAGT'
p605
I32005
sS'GTATAC'
p606
I8130
sS'TTCCGT'
p607
I13443
sS'ACGGCT'
p608
I20469
sS'GTATAG'
p609
I9108
sS'CCGGAA'
p610
I26907
sS'CCGGAC'
p611
I29068
sS'CAACGG'
p612
I12217
sS'CCGGAG'
p613
I59577
sS'TATCAT'
p614
I22413
sS'CTCGTA'
p615
I6239
sS'TTCCGG'
p616
I26901
sS'TTCCGA'
p617
I12909
sS'TTCCGC'
p618
I23672
sS'GTATAT'
p619
I16091
sS'CGTCTC'
p620
I27901
sS'TATCAA'
p621
I20228
sS'CGTCTG'
p622
I28359
sS'CCGGAT'
p623
I15201
sS'CTCTTC'
p624
I73029
sS'TGTTAT'
p625
I29386
sS'CTCTTA'
p626
I29398
sS'CTCTTG'
p627
I50374
sS'CCCGAT'
p628
I12134
sS'TACGTA'
p629
I4325
sS'TACGTC'
p630
I5093
sS'TCTGGT'
p631
I51526
sS'AACAAA'
p632
I66606
sS'CGCGAT'
p633
I7967
sS'TACGTG'
p634
I9504
sS'TGTTAG'
p635
I23491
sS'ATTATA'
p636
I29515
sS'GGTTTC'
p637
I43221
sS'CTCGTG'
p638
I20514
sS'CTCTTT'
p639
I64520
sS'TGTTAA'
p640
I32001
sS'TCTGGG'
p641
I113543
sS'CGCGAC'
p642
I15138
sS'GATATT'
p643
I22562
sS'TCTGGC'
p644
I81636
sS'TACGTT'
p645
I5548
sS'TCTGGA'
p646
I73755
sS'AGTCGT'
p647
I8161
sS'TTACCT'
p648
I26650
sS'CTCCAT'
p649
I54709
sS'ACTAGA'
p650
I20555
sS'TTACCG'
p651
I7054
sS'CTCCAC'
p652
I81877
sS'CTCCAA'
p653
I53053
sS'TTACCC'
p654
I22649
sS'CTCCAG'
p655
I136713
sS'TTACCA'
p656
I24958
sS'AGTCGC'
p657
I15080
sS'CTCCAN'
p658
I1
sS'AATGCC'
p659
I35733
sS'GTACCG'
p660
I6921
sS'CCGACT'
p661
I18292
sS'GCCTAC'
p662
I21084
sS'GCCTAA'
p663
I20719
sS'CCGAGG'
p664
I66858
sS'GCCTAG'
p665
I31624
sS'GTGCGG'
p666
I38305
sS'CCGACA'
p667
I16619
sS'CCCTGT'
p668
I77755
sS'CCGACC'
p669
I28777
sS'CCGACG'
p670
I15707
sS'AACTCA'
p671
I35261
sS'GCCTAT'
p672
I16464
sS'TGACGG'
p673
I17278
sS'ACGCTC'
p674
I18499
sS'CCCGAG'
p675
I60809
sS'AAGCTG'
p676
I67385
sS'TCAGCG'
p677
I27715
sS'CTAAGT'
p678
I21281
sS'GCTGTC'
p679
I65615
sS'CGCACA'
p680
I27852
sS'ATACAC'
p681
I21805
sS'CGCACC'
p682
I34998
sS'GGGTCG'
p683
I30196
sS'ACTGCT'
p684
I50737
sS'ATACAG'
p685
I27721
sS'CGCACG'
p686
I21631
sS'GGGTCC'
p687
I78557
sS'GAGCGT'
p688
I18497
sS'CTCACT'
p689
I59504
sS'TTTGTA'
p690
I36959
sS'ACTGCA'
p691
I57299
sS'TTTGTC'
p692
I39697
sS'ACTGCC'
p693
I60307
sS'CGCACT'
p694
I19614
sS'TTTGTG'
p695
I51608
sS'ACTGCG'
p696
I22996
sS'CTTGAC'
p697
I25754
sS'CTCACA'
p698
I59633
sS'CTCACG'
p699
I25251
sS'GTGGGT'
p700
I59407
sS'GTGAGG'
p701
I75286
sS'GATTTT'
p702
I46837
sS'ACAATT'
p703
I29065
sS'GTGAGC'
p704
I57107
sS'TAGTGA'
p705
I21302
sS'GTGAGA'
p706
I45963
sS'TCGACG'
p707
I4839
sS'TCGACA'
p708
I6070
sS'TCGACC'
p709
I9011
sS'ACAATA'
p710
I24323
sS'GTGAGT'
p711
I41913
sS'TAGTGT'
p712
I18416
sS'GTGGGA'
p713
I78435
sS'GATTTA'
p714
I29713
sS'TCGACT'
p715
I6839
sS'GTGGGN'
p716
I1
sS'CTGGTT'
p717
I50380
sS'TTGAGT'
p718
I27466
sS'CGAACG'
p719
I6211
sS'CGAACC'
p720
I11579
sS'CGAACA'
p721
I8737
sS'CGGNCC'
p722
I1
sS'CTGGTG'
p723
I85106
sS'CTGGTA'
p724
I27815
sS'CTGGTC'
p725
I56991
sS'CGAACT'
p726
I9434
sS'CGCTGA'
p727
I27724
sS'TTGCAT'
p728
I32392
sS'GACGAG'
p729
I19350
sS'NNGAAT'
p730
I2
sS'GCGGAA'
p731
I23671
sS'CGTCTT'
p732
I15164
sS'TTGCAG'
p733
I56511
sS'GAGGGA'
p734
I113195
sS'CTTGAT'
p735
I26032
sS'TTGCAC'
p736
I27631
sS'TTGCAA'
p737
I33371
sS'AAGATC'
p738
I24188
sS'ACGTAC'
p739
I5478
sS'TCCATC'
p740
I46787
sS'ATTGCG'
p741
I6164
sS'TCGCAT'
p742
I6773
sS'GAGCGG'
p743
I54459
sS'GTCGTG'
p744
I12638
sS'GTCGTA'
p745
I4127
sS'GTCGTC'
p746
I11720
sS'GCGTCC'
p747
I40730
sS'CCGTTT'
p748
I15627
sS'GAGCAA'
p749
I41970
sS'GCCTCG'
p750
I54925
sS'GTCGTT'
p751
I7437
sS'TCGCAG'
p752
I24922
sS'TCCATG'
p753
I43143
sS'TCGCAC'
p754
I12269
sS'CCGTTG'
p755
I12216
sS'CCGTTA'
p756
I6411
sS'CCGTTC'
p757
I16005
sS'GATCGG'
p758
I9516
sS'AATGCT'
p759
I38252
sS'GGTACG'
p760
I6544
sS'GGTACA'
p761
I18834
sS'TCCAGG'
p762
I116753
sS'GGTACC'
p763
I18748
sS'TATTTG'
p764
I37975
sS'CCAGTT'
p765
I41824
sS'TTCAGC'
p766
I51428
sS'TATTTC'
p767
I43027
sS'TATTTA'
p768
I49142
sS'CCCCCT'
p769
I102889
sS'GGTACT'
p770
I16523
sS'AATGCG'
p771
I9864
sS'TTGAGA'
p772
I38314
sS'AATGCA'
p773
I44409
sS'CCCCCC'
p774
I91820
sS'CCCCCA'
p775
I141490
sS'TATTTT'
p776
I79382
sS'CCCCCG'
p777
I93529
sS'CTTGAG'
p778
I41924
sS'ATGATG'
p779
I32873
sS'ATGATA'
p780
I22395
sS'GCGTTA'
p781
I6045
sS'ATGATC'
p782
I19090
sS'CGGACT'
p783
I16790
sS'TGCAAC'
p784
I26511
sS'TGCAAA'
p785
I53040
sS'TGCAAG'
p786
I40705
sS'GCCGTC'
p787
I29814
sS'ATGATT'
p788
I31049
sS'TATCAC'
p789
I18991
sS'CGAATC'
p790
I7512
sS'TTGAGG'
p791
I41455
sS'AATCTC'
p792
I32649
sS'TTGAGC'
p793
I31494
sS'TGCAAT'
p794
I29742
sS'GAGAAT'
p795
I37925
sS'TGTCTT'
p796
I48188
sS'CGAATA'
p797
I4099
sS'AGTAGC'
p798
I23393
sS'AAGGCC'
p799
I64511
sS'ATAACC'
p800
I17313
sS'AAGGCA'
p801
I63253
sS'ATAACA'
p802
I29357
sS'AAGGCG'
p803
I30028
sS'ATAACG'
p804
I5420
sS'GAGGGT'
p805
I62927
sS'TGTCTG'
p806
I77014
sS'GAGAAG'
p807
I82838
sS'GAGAAA'
p808
I80088
sS'TGTCTC'
p809
I58730
sS'GAGAAC'
p810
I40832
sS'TGTCTA'
p811
I23390
sS'TGTGGC'
p812
I73337
sS'TGTGGA'
p813
I56075
sS'TGTGGG'
p814
I90339
sS'ATAACT'
p815
I21805
sS'AAGGCT'
p816
I54481
sS'CTGTAA'
p817
I40534
sS'AGGTAT'
p818
I16060
sS'ACCAAG'
p819
I38083
sS'GAGCAT'
p820
I32581
sS'GCCCCC'
p821
I154374
sS'AAGCAG'
p822
I79780
sS'ACCAAC'
p823
I23676
sS'GGTCAC'
p824
I45354
sS'TAACGA'
p825
I5071
sS'GATCGC'
p826
I10979
sS'GGTCAT'
p827
I26485
sS'ACCAAT'
p828
I19293
sS'TGTGGT'
p829
I47723
sS'AGGTAA'
p830
I26660
sS'GATAGG'
p831
I17930
sS'TTTTGC'
p832
I44882
sS'TCTTAC'
p833
I21091
sS'AATTGG'
p834
I25419
sS'TCTTAA'
p835
I31543
sS'AATTGA'
p836
I28406
sS'TCTTAG'
p837
I24774
sS'AATTGC'
p838
I26340
sS'TAGCCA'
p839
I28715
sS'TGGGGT'
p840
I79869
sS'TAGCCC'
p841
I27675
sS'GATAAT'
p842
I26819
sS'CGCTCA'
p843
I27127
sS'TAGCCG'
p844
I10799
sS'AATTGT'
p845
I29068
sS'CGAGAG'
p846
I28957
sS'AATCTT'
p847
I30979
sS'TCTTAT'
p848
I27634
sS'TTTTGT'
p849
I62981
sS'CGCTCT'
p850
I33357
sS'TGGGGG'
p851
I141471
sS'GATAAC'
p852
I17393
sS'TAGCCT'
p853
I26509
sS'TGGGGC'
p854
I128606
sS'GATAAG'
p855
I26385
sS'GATCCT'
p856
I31373
sS'AAGAAT'
p857
I38873
sS'CGAAGT'
p858
I10750
sS'CATTTG'
p859
I48037
sS'AAGAAC'
p860
I35505
sS'GATCCA'
p861
I27377
sS'AAGAAA'
p862
I88936
sS'ATGCCA'
p863
I43335
sS'AAGAAG'
p864
I58487
sS'GATCCG'
p865
I14464
sS'NGATCT'
p866
I2
sS'GCCCCA'
p867
I128603
sS'ATGCCG'
p868
I13949
sS'CAAGGG'
p869
I58723
sS'CAAGGC'
p870
I62971
sS'GGTTCT'
p871
I39682
sS'CAAGGA'
p872
I54345
sS'GGCGCN'
p873
I1
sS'GGTTCA'
p874
I28725
sS'GCAACC'
p875
I29901
sS'GGTTCC'
p876
I45960
sS'CAAGGT'
p877
I38083
sS'AACCTT'
p878
I28079
sS'TAGGCA'
p879
I27260
sS'ATTAAC'
p880
I23630
sS'ATTATC'
p881
I26813
sS'TAGAAT'
p882
I26191
sS'CAAACG'
p883
I13404
sS'ATTATG'
p884
I26636
sS'AGTCTT'
p885
I31065
sS'TAGAAA'
p886
I47125
sS'TAGAAC'
p887
I18646
sS'ATTATT'
p888
I46471
sS'TAGAAG'
p889
I30133
sS'AGTCTA'
p890
I17286
sS'AGTCTC'
p891
I41998
sS'AGTCTG'
p892
I48988
sS'TAACTC'
p893
I20886
sS'TAACTA'
p894
I16337
sS'TAACTG'
p895
I26875
sS'ATCTAT'
p896
I20191
sS'ACGCGT'
p897
I7831
sS'GCCCCG'
p898
I125921
sS'TAACTT'
p899
I24904
sS'ATCTAG'
p900
I18940
sS'ATCTAC'
p901
I16788
sS'ATCTAA'
p902
I23977
sS'GGTCAG'
p903
I62615
sS'CCATGT'
p904
I42565
sS'ACCAAA'
p905
I35152
sS'TGGAGG'
p906
I111586
sS'TGGAGA'
p907
I82002
sS'TGGAGC'
p908
I81782
sS'CCATGC'
p909
I46921
sS'TCCAGA'
p910
I73774
sS'CCATGA'
p911
I36473
sS'CCATGG'
p912
I59897
sS'TGGAGT'
p913
I50963
sS'ATTACG'
p914
I4758
sS'TCAGTA'
p915
I25545
sS'TCAGTC'
p916
I37090
sS'CTCTCT'
p917
I103268
sS'GGGGAT'
p918
I48425
sS'TCAGTG'
p919
I54317
sS'CGATAT'
p920
I3115
sS'GGGGAA'
p921
I89130
sS'GGGGAC'
p922
I91223
sS'CTCTCC'
p923
I122753
sS'TCAGTT'
p924
I39768
sS'GGGGAG'
p925
I171920
sS'ATGTTT'
p926
I48231
sS'CGATAG'
p927
I3965
sS'CGATAA'
p928
I4707
sS'ATGCTG'
p929
I55788
sS'CGATAC'
p930
I3301
sS'GTGTTT'
p931
I49822
sS'GCTACT'
p932
I23391
sS'GTGGTT'
p933
I35012
sS'GTGTTC'
p934
I33109
sS'GTGTTA'
p935
I20059
sS'GTGTTG'
p936
I32520
sS'CGTGCC'
p937
I31467
sS'GTGGTA'
p938
I19789
sS'GCTACA'
p939
I24218
sS'GTGGTC'
p940
I37409
sS'GCTACC'
p941
I22146
sS'GTGGTG'
p942
I65047
sS'GCTACG'
p943
I9705
sS'AGGTAG'
p944
I28316
sS'TTTCGT'
p945
I9034
sS'TGCCCT'
p946
I95013
sS'AGCGTT'
p947
I12485
sS'CGTGCG'
p948
I21626
sS'TGCCCC'
p949
I107562
sS'TGCCCA'
p950
I92311
sS'TGCCCG'
p951
I50684
sS'TTTCGG'
p952
I13016
sS'AGCGTA'
p953
I5541
sS'AGCGTC'
p954
I21060
sS'AGCGTG'
p955
I26439
sS'GGCCCC'
p956
I159279
sS'GGCCCA'
p957
I102605
sS'CACGTG'
p958
I37384
sS'GGCCCG'
p959
I86018
sS'CACGTA'
p960
I9512
sS'CACGTC'
p961
I21332
sS'CTACGC'
p962
I8992
sS'ACGTGA'
p963
I15924
sS'GGGACT'
p964
I59987
sS'ACAGTC'
p965
I34781
sS'CACGTT'
p966
I15487
sS'TTCACG'
p967
I13530
sS'GNCCCA'
p968
I1
sS'GGCCCT'
p969
I109981
sS'GGGACA'
p970
I75466
sS'TTTTGG'
p971
I43748
sS'GGGACC'
p972
I81069
sS'AGGGAC'
p973
I69427
sS'GTCTCA'
p974
I39601
sS'CTACGT'
p975
I7626
sS'AGAGAG'
p976
I103330
sS'AGAGAA'
p977
I82748
sS'AGAGAC'
p978
I56864
sS'TCTATA'
p979
I17358
sS'GTCTTT'
p980
I39368
sS'TCTATC'
p981
I18928
sS'TCTATG'
p982
I20790
sS'AGAGAT'
p983
I47984
sS'ATGTGC'
p984
I36460
sS'GTCTTG'
p985
I32360
sS'TCTATT'
p986
I29672
sS'GTCTTC'
p987
I38846
sS'GTCTTA'
p988
I17387
sS'GCAGAG'
p989
I125503
sS'CGATTG'
p990
I6217
sS'GCTCAC'
p991
I57084
sS'GCAGAC'
p992
I56542
sS'GCAGAA'
p993
I68768
sS'GCTCAG'
p994
I95636
sS'AGACGT'
p995
I13292
sS'ATGCGT'
p996
I8850
sS'TTGCTG'
p997
I62171
sS'TTGCTA'
p998
I25583
sS'TTGCTC'
p999
I41957
sS'GCAGAT'
p1000
I50119
sS'GCTCAT'
p1001
I34847
sS'GTTTGC'
p1002
I34043
sS'TTGCTT'
p1003
I49836
sS'ATGCGG'
p1004
I16038
sS'CGCTCC'
p1005
I60649
sS'ATGCGC'
p1006
I14600
sS'TATATG'
p1007
I19286
sS'TGTAAG'
p1008
I24711
sS'GGCTAG'
p1009
I27107
sS'TGTAAC'
p1010
I20480
sS'GGCTAC'
p1011
I24017
sS'GACTGT'
p1012
I34798
sS'CTGAAA'
p1013
I61727
sS'TTCGAG'
p1014
I12278
sS'TTGGTA'
p1015
I18172
sS'ACTGTC'
p1016
I36657
sS'TTGGTC'
p1017
I25830
sS'TTCGAC'
p1018
I5557
sS'ACTGTG'
p1019
I54263
sS'TTGGTG'
p1020
I39257
sS'GACTGC'
p1021
I43965
sS'GGCTAT'
p1022
I18455
sS'TGTAAT'
p1023
I35562
sS'GACTGG'
p1024
I54082
sS'TTCGAT'
p1025
I4994
sS'TTGGTT'
p1026
I32785
sS'ACTGTT'
p1027
I33785
sS'GTTTCT'
p1028
I57003
sS'ATAATT'
p1029
I43017
sS'CCTTTT'
p1030
I60968
sS'GTTTCG'
p1031
I9254
sS'GTTTCC'
p1032
I57003
sS'GTTTCA'
p1033
I37090
sS'ATAATG'
p1034
I30571
sS'CCTTTA'
p1035
I32604
sS'CCTTTC'
p1036
I70814
sS'ATAATC'
p1037
I21828
sS'NNNNGA'
p1038
I5
sS'ATAATA'
p1039
I34048
sS'CCTTTG'
p1040
I56722
sS'ACAGAA'
p1041
I65437
sS'CTCTCG'
p1042
I28934
sS'ACAGAC'
p1043
I51962
sS'GCCCCT'
p1044
I125647
sS'ACAGAG'
p1045
I83436
sS'TTATCT'
p1046
I47417
sS'CTGGAC'
p1047
I66326
sS'CTGGAA'
p1048
I85889
sS'CTGGAG'
p1049
I136710
sS'ACAGAT'
p1050
I49983
sS'GTGAAG'
p1051
I43897
sS'TTATCG'
p1052
I4713
sS'TTATCA'
p1053
I33069
sS'CTGGAT'
p1054
I48576
sS'TTATCC'
p1055
I22677
sS'CCAATG'
p1056
I26460
sS'AAACCG'
p1057
I13517
sS'ATTTGT'
p1058
I43009
sS'CCAATC'
p1059
I25390
sS'AAACCC'
p1060
I44670
sS'CCAATA'
p1061
I17554
sS'TGTCGG'
p1062
I16616
sS'GAGATC'
p1063
I29421
sS'CCCTAT'
p1064
I18809
sS'GAGATA'
p1065
I29111
sS'TGTCGC'
p1066
I15824
sS'GAGATG'
p1067
I55926
sS'AACGAC'
p1068
I7446
sS'AAACCT'
p1069
I39125
sS'CCAATT'
p1070
I25423
sS'CTAGTT'
p1071
I18101
sS'GGGTAT'
p1072
I15392
sS'ATTTGG'
p1073
I39576
sS'CCCTAG'
p1074
I37462
sS'TGTCGT'
p1075
I9266
sS'CCCTAC'
p1076
I32066
sS'GAGATT'
p1077
I32652
sS'CCCTAA'
p1078
I29071
sS'CATTAT'
p1079
I30591
sS'TGTTTG'
p1080
I52083
sS'TGGATT'
p1081
I36105
sS'ATCACA'
p1082
I38473
sS'ATCACC'
p1083
I30671
sS'CATGCT'
p1084
I42466
sS'TGACAC'
p1085
I35047
sS'TGACAA'
p1086
I35158
sS'TGGATA'
p1087
I22210
sS'CATTAG'
p1088
I25572
sS'CATTAA'
p1089
I34101
sS'TGGATG'
p1090
I47713
sS'CATGCA'
p1091
I43588
sS'TGACAT'
p1092
I36435
sS'CATGCC'
p1093
I46099
sS'ATCACT'
p1094
I32436
sS'AATTAG'
p1095
I32946
sS'GTAGAA'
p1096
I23921
sS'GTAGAC'
p1097
I14213
sS'GTAGAG'
p1098
I27111
sS'GATTGG'
p1099
I25383
sS'ACAACC'
p1100
I25445
sS'GCATGA'
p1101
I30416
sS'GATTGC'
p1102
I19209
sS'GATTGA'
p1103
I18134
sS'ACTAAG'
p1104
I18946
sS'GTAGAT'
p1105
I16802
sS'TGCTAC'
p1106
I21641
sS'TTGCCT'
p1107
I50484
sS'TGATGC'
p1108
I32518
sS'GATTGT'
p1109
I20041
sS'ACAACT'
p1110
I25207
sS'GCGCGT'
p1111
I22666
sS'TAATAG'
p1112
I20853
sS'GTCCGG'
p1113
I29068
sS'TAATAC'
p1114
I16535
sS'GTCCGA'
p1115
I12120
sS'TAATAA'
p1116
I40991
sS'GTCCGC'
p1117
I26688
sS'TGTTTA'
p1118
I43269
sS'GATCCC'
p1119
I36750
sS'GANTGG'
p1120
I1
sS'CACATC'
p1121
I42188
sS'GTCCGT'
p1122
I13071
sS'TAATAT'
p1123
I28881
sS'CGTAAC'
p1124
I4482
sS'GGGNCC'
p1125
I1
sS'ATTCGC'
p1126
I6927
sS'TTCTCC'
p1127
I82043
sS'TGAACT'
p1128
I33325
sS'TTCTCA'
p1129
I58511
sS'ATCCAT'
p1130
I27421
sS'TTCTCG'
p1131
I18054
sS'TCGTAC'
p1132
I3811
sS'TACCTT'
p1133
I21895
sS'TCGTAA'
p1134
I4565
sS'TCGTAG'
p1135
I6479
sS'GAACCT'
p1136
I31878
sS'ATCCAA'
p1137
I26431
sS'ATCCAC'
p1138
I31017
sS'CTCTCA'
p1139
I60200
sS'TTCTCT'
p1140
I82694
sS'TGAACA'
p1141
I38105
sS'GAACCC'
p1142
I41998
sS'TACCTG'
p1143
I30207
sS'TACCTA'
p1144
I13564
sS'TACCTC'
p1145
I23908
sS'TCGTAT'
p1146
I3838
sS'ATGTTA'
p1147
I26342
sS'ACCATA'
p1148
I16783
sS'ACCATG'
p1149
I34478
sS'ATGTTG'
p1150
I29420
sS'AGCTCT'
p1151
I71129
sS'GAGCTG'
p1152
I113271
sS'AGTGGT'
p1153
I34975
sS'CGTGGT'
p1154
I22578
sS'TGATGT'
p1155
I34913
sS'CTGTGG'
p1156
I105783
sS'ACCATT'
p1157
I25474
sS'AGTGGA'
p1158
I47311
sS'AGTGGC'
p1159
I60515
sS'AGCTCC'
p1160
I91592
sS'AGTGGG'
p1161
I76026
sS'CAGTAA'
p1162
I32303
sS'CAGTAC'
p1163
I20376
sS'CAGTAG'
p1164
I28731
sS'TTAATA'
p1165
I35576
sS'CAGTAT'
p1166
I21621
sS'GTTCCT'
p1167
I46328
sS'TTAATC'
p1168
I25751
sS'CCGGCT'
p1169
I59610
sS'GATCTA'
p1170
I13534
sS'GATCTC'
p1171
I29412
sS'ATTGAC'
p1172
I15282
sS'GATCTG'
p1173
I39626
sS'TTTCAG'
p1174
I61685
sS'CCGGCC'
p1175
I107004
sS'ATTAGG'
p1176
I22975
sS'CCGGCG'
p1177
I60868
sS'CACATT'
p1178
I42756
sS'ATTAGC'
p1179
I23857
sS'TCCCTC'
p1180
I113182
sS'TGTCCG'
p1181
I19480
sS'TCCCTA'
p1182
I33283
sS'TGCCAC'
p1183
I60549
sS'TCCCTG'
p1184
I127854
sS'GATCTT'
p1185
I24183
sS'CTAGAC'
p1186
I17819
sS'AAGTGA'
p1187
I45698
sS'AAGTGC'
p1188
I41172
sS'TGTTCT'
p1189
I52881
sS'AAGTGG'
p1190
I49052
sS'TGATTG'
p1191
I26883
sS'TCTGAT'
p1192
I40721
sS'TGATTA'
p1193
I28480
sS'TGTTCA'
p1194
I38111
sS'CACAAG'
p1195
I40903
sS'TGTTCC'
p1196
I47479
sS'CACAAA'
p1197
I51675
sS'CACAAC'
p1198
I28755
sS'TGTTCG'
p1199
I8738
sS'TCTGAA'
p1200
I53821
sS'TCTGAC'
p1201
I41226
sS'TCCANT'
p1202
I1
sS'TCTGAG'
p1203
I72151
sS'CGCGCC'
p1204
I75194
sS'CGCGCA'
p1205
I31031
sS'GGTAAA'
p1206
I24151
sS'CGCGCG'
p1207
I61083
sS'CTCCCT'
p1208
I142281
sS'AGCGGG'
p1209
I56147
sS'AGCGGA'
p1210
I25940
sS'ACCTCT'
p1211
I49303
sS'AGATGA'
p1212
I49494
sS'GAAATA'
p1213
I43077
sS'GACGTG'
p1214
I21334
sS'CGCGCT'
p1215
I37099
sS'GTGCGA'
p1216
I12269
sS'ACCTCA'
p1217
I45986
sS'CTCCCA'
p1218
I120417
sS'CTCCCC'
p1219
I171895
sS'GCCTCT'
p1220
I97568
sS'TAAGCC'
p1221
I24697
sS'TAGCTC'
p1222
I24928
sS'CCCATG'
p1223
I52597
sS'CGGGAA'
p1224
I38613
sS'CCCATA'
p1225
I20945
sS'TAGCTG'
p1226
I34819
sS'CCCATC'
p1227
I65011
sS'CCGAGA'
p1228
I30944
sS'CCTGCT'
p1229
I119930
sS'GTCTAT'
p1230
I14132
sS'ANTGGA'
p1231
I1
sS'CCGAAT'
p1232
I8365
sS'CCCATT'
p1233
I42854
sS'CGGGAT'
p1234
I20488
sS'ATTTCG'
p1235
I7596
sS'TAGCTT'
p1236
I23621
sS'TAAGCT'
p1237
I22149
sS'GCCTCC'
p1238
I149620
sS'CCGAAC'
p1239
I12018
sS'CCTGCG'
p1240
I63590
sS'CCGAAA'
p1241
I13020
sS'CCGAAG'
p1242
I23213
sS'CCTGCC'
p1243
I176006
sS'CCTGCA'
p1244
I111190
sS'GTACTG'
p1245
I20381
sS'CCATTC'
p1246
I37660
sS'TATAAG'
p1247
I15875
sS'TATAAA'
p1248
I40155
sS'TATAAC'
p1249
I13806
sS'GCNNNN'
p1250
I1
sS'GATTTG'
p1251
I34098
sS'CATTTC'
p1252
I58684
sS'GGTTCG'
p1253
I11585
sS'TATAAT'
p1254
I29557
sS'CCATTT'
p1255
I53565
sS'TCTACA'
p1256
I25882
sS'TCTACC'
p1257
I23792
sS'TCTACG'
p1258
I7141
sS'ACTTTC'
p1259
I37839
sS'CGCAAC'
p1260
I10251
sS'TGCTTA'
p1261
I30403
sS'CGCAAA'
p1262
I11957
sS'ATACCG'
p1263
I4337
sS'GACGCG'
p1264
I23757
sS'ATACCA'
p1265
I18910
sS'ATACCC'
p1266
I15397
sS'TCTACT'
p1267
I25129
sS'CCGAGT'
p1268
I23643
sS'ATACCT'
p1269
I16038
sS'CGCAAT'
p1270
I6164
sS'TAGTAA'
p1271
I19013
sS'TGGGTG'
p1272
I86858
sS'TAGTAC'
p1273
I9206
sS'CTCAAG'
p1274
I41916
sS'CTCAAA'
p1275
I44769
sS'TAGTAG'
p1276
I14018
sS'CTCAAC'
p1277
I27540
sS'GTGTGC'
p1278
I56434
sS'GTGTGA'
p1279
I44559
sS'GTGTGG'
p1280
I72443
sS'TAACGG'
p1281
I6411
sS'CTCAAT'
p1282
I24677
sS'TAGTAT'
p1283
I13281
sS'GTTCTC'
p1284
I40820
sS'CTCGTT'
p1285
I12071
sS'CTCCCG'
p1286
I80322
sS'GTGTGT'
p1287
I111753
sS'ATCTTT'
p1288
I42844
sS'GTTGGG'
p1289
I48339
sS'GTTGGA'
p1290
I29156
sS'GTTGGC'
p1291
I33198
sS'CCTTGG'
p1292
I75692
sS'CCTTGA'
p1293
I39610
sS'GCGTAT'
p1294
I4283
sS'AGGATT'
p1295
I34594
sS'GGACGT'
p1296
I18124
sS'CTAAGC'
p1297
I24213
sS'GTTGGT'
p1298
I23676
sS'ATCTTG'
p1299
I31147
sS'ATCTTA'
p1300
I22734
sS'ATCTTC'
p1301
I34451
sS'CCTTGT'
p1302
I42506
sS'AGGATA'
p1303
I23249
sS'AGGATG'
p1304
I58088
sS'GACATG'
p1305
I32404
sS'GACATC'
p1306
I30024
sS'GACATA'
p1307
I17870
sS'GATTTC'
p1308
I35767
sS'GAATAT'
p1309
I23775
sS'GGTGCA'
p1310
I50182
sS'TCGGCC'
p1311
I40360
sS'ATCAGA'
p1312
I40708
sS'TTGCGA'
p1313
I6801
sS'GACATT'
p1314
I31127
sS'TTGCGG'
p1315
I16355
sS'GAATAG'
p1316
I18931
sS'TCGGCT'
p1317
I25379
sS'CATAGA'
p1318
I20805
sS'AGGAAG'
p1319
I113849
sS'GAATAA'
p1320
I31863
sS'CGTCGT'
p1321
I7443
sS'GTACAT'
p1322
I17223
sS'ATACAA'
p1323
I25828
sS'GACCTT'
p1324
I33611
sS'TGCCTC'
p1325
I86546
sS'ACGTCG'
p1326
I6987
sS'GGACGC'
p1327
I40732
sS'TTATAA'
p1328
I33681
sS'GAAATG'
p1329
I58716
sS'AATGAT'
p1330
I33104
sS'TGCCTA'
p1331
I27261
sS'GAAATC'
p1332
I35796
sS'ACCGGT'
p1333
I8763
sS'GAAATT'
p1334
I40826
sS'AATGAA'
p1335
I57500
sS'ATGTCC'
p1336
I32743
sS'AATGAC'
p1337
I32506
sS'AATGAG'
p1338
I46760
sS'TCATTG'
p1339
I30017
sS'AGGAAA'
p1340
I96378
sS'ATGGTA'
p1341
I18663
sS'CTTGGA'
p1342
I49186
sS'CTTGGC'
p1343
I68082
sS'GTCCTT'
p1344
I41437
sS'CTTGGG'
p1345
I72406
sS'AGCCCT'
p1346
I95766
sS'GGGAAT'
p1347
I39798
sS'TTGAAT'
p1348
I33001
sS'GTCCTA'
p1349
I19026
sS'GTCCTC'
p1350
I61869
sS'TGCACG'
p1351
I23854
sS'CTTGGT'
p1352
I38076
sS'GTCCTG'
p1353
I79363
sS'TGCACC'
p1354
I50194
sS'TTGAAA'
p1355
I50070
sS'TTGAAC'
p1356
I23019
sS'AGCCCA'
p1357
I95598
sS'TTGAAG'
p1358
I34864
sS'CTTATG'
p1359
I17840
sS'ATAAAT'
p1360
I55349
sS'TGGTCG'
p1361
I12692
sS'TGGTCA'
p1362
I39407
sS'TGGTCC'
p1363
I45511
sS'ACGATT'
p1364
I5745
sS'GAGACT'
p1365
I42007
sS'GATTCA'
p1366
I27550
sS'TGGTCT'
p1367
I45015
sS'ATAAAG'
p1368
I38054
sS'CCTGTG'
p1369
I98274
sS'ATAAAA'
p1370
I67912
sS'TCAGCC'
p1371
I83813
sS'ATAAAC'
p1372
I31210
sS'GAGACG'
p1373
I27907
sS'ACGATG'
p1374
I10430
sS'CTACAG'
p1375
I34328
sS'GAGACC'
p1376
I54842
sS'ACGATC'
p1377
I5832
sS'GAGACA'
p1378
I58721
sS'ACGATA'
p1379
I3703
sS'GGTTAC'
p1380
I15205
sS'ATGTGT'
p1381
I44444
sS'GGTTAA'
p1382
I21038
sS'ACCACT'
p1383
I34980
sS'GGTTAG'
p1384
I18606
sS'CTTCCT'
p1385
I113793
sS'GAATGT'
p1386
I31398
sS'TCCATT'
p1387
I42041
sS'CGTGAA'
p1388
I13529
sS'CCAACA'
p1389
I40640
sS'TCCGCT'
p1390
I25936
sS'CTTCCA'
p1391
I71478
sS'ATGTGG'
p1392
I47842
sS'ACCACC'
p1393
I52092
sS'CGTATG'
p1394
I4932
sS'ACCACA'
p1395
I47717
sS'GGTTAT'
p1396
I17328
sS'TCCGCC'
p1397
I51614
sS'TCCGCA'
p1398
I24869
sS'TCCGCG'
p1399
I31915
sS'AACGTC'
p1400
I9406
sS'TAAGTT'
p1401
I20146
sS'AACGTG'
p1402
I15487
sS'CGTGAC'
p1403
I17310
sS'GGTAGC'
p1404
I22141
sS'AGTGTG'
p1405
I51761
sS'TCTTCG'
p1406
I14102
sS'AGTGTA'
p1407
I19696
sS'TCTTCA'
p1408
I47832
sS'AGTGTC'
p1409
I36802
sS'TCTTCC'
p1410
I79715
sS'TAAGTG'
p1411
I29566
sS'TAAGTC'
p1412
I17268
sS'AACGTT'
p1413
I8607
sS'CAATTT'
p1414
I37789
sS'TCTTCT'
p1415
I63763
sS'AGTGTT'
p1416
I34610
sS'GTGCGC'
p1417
I33729
sS'TTGGCA'
p1418
I45622
sS'AAAGGT'
p1419
I33796
sS'TTGGCC'
p1420
I52619
sS'AGTAAC'
p1421
I19625
sS'CTTATT'
p1422
I30931
sS'TTGGCG'
p1423
I18670
sS'GACTTC'
p1424
I35804
sS'TCGAGT'
p1425
I8764
sS'GACTTA'
p1426
I17262
sS'GACTTG'
p1427
I34544
sS'ACGTAG'
p1428
I7633
sS'AAAGGG'
p1429
I63355
sS'AAAGGA'
p1430
I67219
sS'TTGGCT'
p1431
I51917
sS'AAAGGC'
p1432
I56890
sS'GAGTAC'
p1433
I14171
sS'GTATGG'
p1434
I14642
sS'GTCGAT'
p1435
I4571
sS'GACTTT'
p1436
I33672
sS'TTCTTT'
p1437
I81305
sS'CAAGAA'
p1438
I45312
sS'AGCGAG'
p1439
I34087
sS'CAAGAC'
p1440
I32389
sS'GATTCG'
p1441
I7506
sS'CAAGAG'
p1442
I50407
sS'TTCTTG'
p1443
I45248
sS'TTCTTC'
p1444
I59222
sS'TTCTTA'
p1445
I35516
sS'CAAGAT'
p1446
I31166
sS'AGGGCT'
p1447
I95787
sS'TACGGG'
p1448
I8645
sS'TACGGA'
p1449
I6374
sS'TACGGC'
p1450
I7866
sS'CTCAGA'
p1451
I72140
sS'TAGAGT'
p1452
I19530
sS'TACGGT'
p1453
I5063
sS'AGGGCG'
p1454
I61212
sS'AGGGCA'
p1455
I95016
sS'AGGGCC'
p1456
I109973
sS'TCGAGA'
p1457
I11194
sS'TAGAGC'
p1458
I25671
sS'TAGAGA'
p1459
I35281
sS'TAGAGG'
p1460
I33487
sS'GTGTAA'
p1461
I20315
sS'GTGCTG'
p1462
I87248
sS'GTGCTA'
p1463
I20458
sS'ATCTGT'
p1464
I49960
sS'GTGCTC'
p1465
I49005
sS'GGCGAC'
p1466
I27014
sS'ATCTGA'
p1467
I40511
sS'GTGCTT'
p1468
I41589
sS'ATCTGC'
p1469
I50108
sS'TCGAGG'
p1470
I20535
sS'CGAATG'
p1471
I8701
sS'ATCTGG'
p1472
I57193
sS'ATCATA'
p1473
I19992
sS'GATAGC'
p1474
I14305
sS'ATCATC'
p1475
I26719
sS'GATAGA'
p1476
I18915
sS'AAGCAA'
p1477
I49881
sS'CAAACT'
p1478
I35515
sS'ATCATG'
p1479
I25612
sS'TTTACC'
p1480
I24135
sS'GTTATG'
p1481
I15575
sS'CTAGGT'
p1482
I20829
sS'CATTTA'
p1483
I46748
sS'ACGCAT'
p1484
I8843
sS'GTTATC'
p1485
I17390
sS'GTTATA'
p1486
I13808
sS'CAAACA'
p1487
I52094
sS'AAGCAT'
p1488
I35357
sS'CAAACC'
p1489
I37993
sS'GTGGCC'
p1490
I92751
sS'ATCATT'
p1491
I33118
sS'GATAGT'
p1492
I12553
sS'ACGCAG'
p1493
I29824
sS'CTAGGG'
p1494
I37446
sS'GTTATT'
p1495
I27176
sS'CTAGGC'
p1496
I31607
sS'CATTTT'
p1497
I75328
sS'CTAGGA'
p1498
I32284
sS'AAGTTT'
p1499
I35001
sS'AAGGTC'
p1500
I33604
sS'CTCGAA'
p1501
I12289
sS'CTAAGG'
p1502
I27328
sS'CTAAGA'
p1503
I24782
sS'GGGGCT'
p1504
I137807
sS'TACAGG'
p1505
I33557
sS'AAGTTG'
p1506
I27914
sS'GGATGC'
p1507
I45914
sS'AAGTTA'
p1508
I24892
sS'TACAGC'
p1509
I30708
sS'AAGTTC'
p1510
I27892
sS'TACAGA'
p1511
I37464
sS'GGGGCC'
p1512
I159294
sS'GTATGA'
p1513
I14575
sS'GGGGCA'
p1514
I107564
sS'ATATGT'
p1515
I27371
sS'GGGGCG'
p1516
I129909
sS'TATATC'
p1517
I14822
sS'TATATA'
p1518
I30595
sS'CTTTTA'
p1519
I45727
sS'ACATCG'
p1520
I8753
sS'TCCGGT'
p1521
I14931
sS'TATATT'
p1522
I32391
sS'CANTCC'
p1523
I1
sS'TGATGG'
p1524
I42934
sS'CATATG'
p1525
I25963
sS'ATGAGT'
p1526
I27953
sS'GCCCAC'
p1527
I87851
sS'TGATGA'
p1528
I37662
sS'AGCATG'
p1529
I42461
sS'TGCCAT'
p1530
I45064
sS'ACTCTT'
p1531
I32071
sS'TGTTTC'
p1532
I57353
sS'CACATA'
p1533
I29155
sS'TTAATT'
p1534
I52814
sS'CACATG'
p1535
I53688
sS'TTTCAT'
p1536
I54812
sS'ATGAGA'
p1537
I42048
sS'ATGAGC'
p1538
I34847
sS'ATGAGG'
p1539
I47034
sS'TTTCAC'
p1540
I42804
sS'ACTCTG'
p1541
I56570
sS'TTTCAA'
p1542
I50091
sS'ACTCTA'
p1543
I19531
sS'TGTTTT'
p1544
I85613
sS'CTAACG'
p1545
I6571
sS'TTAATG'
p1546
I34060
sS'AAATTC'
p1547
I38659
sS'CCCGGT'
p1548
I30787
sS'AAATTA'
p1549
I57033
sS'AAATTG'
p1550
I37773
sS'CCAGTA'
p1551
I25286
sS'AGACCG'
p1552
I17016
sS'AAATTT'
p1553
I51825
sS'TTCGAA'
p1554
I7108
sS'CTTAGT'
p1555
I18935
sS'CGTCTA'
p1556
I6555
sS'GGGAAC'
p1557
I52920
sS'GGTGCG'
p1558
I35001
sS'GGGAAA'
p1559
I83152
sS'GGGAAG'
p1560
I122016
sS'GGTGCC'
p1561
I72802
sS'TCGTCC'
p1562
I18332
sS'TCCGGG'
p1563
I53210
sS'AGAGCG'
p1564
I33361
sS'GCGACT'
p1565
I15077
sS'AGAGCC'
p1566
I88738
sS'AGAGCA'
p1567
I72310
sS'GCGTAG'
p1568
I8992
sS'GGTGCT'
p1569
I61414
sS'GCGTAC'
p1570
I5425
sS'GCGTAA'
p1571
I4885
sS'GCGACG'
p1572
I16285
sS'AGAGCT'
p1573
I71137
sS'GCGACA'
p1574
I15831
sS'TATCGG'
p1575
I4086
sS'GCGACC'
p1576
I23248
sS'AGGTCG'
p1577
I17610
sS'GCAGGA'
p1578
I110325
sS'GCAGGC'
p1579
I122684
sS'GCAGGG'
p1580
I165799
sS'GGCGAT'
p1581
I13627
sS'GCACTA'
p1582
I17302
sS'CCGTGC'
p1583
I34830
sS'GCTCGG'
p1584
I48837
sS'TATTCT'
p1585
I31827
sS'CCGTGG'
p1586
I46180
sS'CTTTAG'
p1587
I27235
sS'GCAGGT'
p1588
I71981
sS'TGAAGC'
p1589
I45782
sS'ACGTCT'
p1590
I13294
sS'TATTCC'
p1591
I24400
sS'CAATTG'
p1592
I17238
sS'TATTCA'
p1593
I29440
sS'CAATTA'
p1594
I29531
sS'TATTCG'
p1595
I4099
sS'CAATTC'
p1596
I24732
sS'TGTAGA'
p1597
I25919
sS'GGCTCA'
p1598
I73615
sS'TGTAGC'
p1599
I24221
sS'GGCTCC'
p1600
I128830
sS'TTTACG'
p1601
I6689
sS'TGTAGG'
p1602
I26604
sS'GGCTCG'
p1603
I39463
sS'TTCGGA'
p1604
I11385
sS'TTCGGC'
p1605
I15219
sS'CTTTAC'
p1606
I23841
sS'TTCAAG'
p1607
I36491
sS'TTCGGG'
p1608
I20879
sS'ATTGTC'
p1609
I22268
sS'CACGAG'
p1610
I20515
sS'GGCTCT'
p1611
I88720
sS'TGTAGT'
p1612
I22059
sS'TTTACT'
p1613
I36341
sS'AGCATA'
p1614
I20988
sS'AGACCT'
p1615
I43503
sS'TTCGGT'
p1616
I9116
sS'GTTTAT'
p1617
I31208
sS'GTCTAG'
p1618
I17811
sS'GCACTC'
p1619
I43311
sS'CGCTAC'
p1620
I9401
sS'GTTTAA'
p1621
I29639
sS'GAGGTG'
p1622
I80720
sS'AACTTG'
p1623
I30057
sS'CGAATT'
p1624
I6576
sS'GTTTAG'
p1625
I20624
sS'GAGGTA'
p1626
I23904
sS'CTGGCT'
p1627
I121191
sS'AGGCGG'
p1628
I77087
sS'AGGCGA'
p1629
I25350
sS'AGGCGC'
p1630
I53035
sS'AGGAGT'
p1631
I48952
sS'ACAGCC'
p1632
I84343
sS'GATAAA'
p1633
I37392
sS'ACAGCA'
p1634
I73780
sS'GAGGTC'
p1635
I49124
sS'ACAGCG'
p1636
I29812
sS'AGGAGC'
p1637
I96566
sS'AGGCGT'
p1638
I23492
sS'AGGAGA'
p1639
I92462
sS'CTGGCG'
p1640
I54377
sS'AGGAGG'
p1641
I153785
sS'CTGGCA'
p1642
I95751
sS'CTGGCC'
p1643
I145975
sS'GCGCCC'
p1644
I96795
sS'GCATCG'
p1645
I13004
sS'GGGGAN'
p1646
I1
sS'ACAGCT'
p1647
I68072
sS'GCTCTC'
p1648
I70892
sS'ATTGGT'
p1649
I19291
sS'AATTTT'
p1650
I60052
sS'TGTCAA'
p1651
I27894
sS'TGTCAC'
p1652
I45017
sS'CCCTCT'
p1653
I107452
sS'GCTCTA'
p1654
I25669
sS'ATTTAT'
p1655
I55325
sS'ATTGGG'
p1656
I23937
sS'AATTTA'
p1657
I45747
sS'AATTTC'
p1658
I40783
sS'AACGCC'
p1659
I16771
sS'ATTGGA'
p1660
I25029
sS'AATTTG'
p1661
I38612
sS'CCCTCA'
p1662
I81721
sS'CCCTCC'
p1663
I198820
sS'TGTCAT'
p1664
I38259
sS'CCCTCG'
p1665
I52948
sS'TAAATA'
p1666
I49216
sS'GGCGTT'
p1667
I16766
sS'TGACCA'
p1668
I39407
sS'CATTCT'
p1669
I45084
sS'TAAATC'
p1670
I29717
sS'TGACCG'
p1671
I15879
sS'ACCACG'
p1672
I22591
sS'CATTCG'
p1673
I8701
sS'CATTCC'
p1674
I43062
sS'CATTCA'
p1675
I41873
sS'TCCATA'
p1676
I21274
sS'CGCTAT'
p1677
I5620
sS'ACAAAT'
p1678
I43027
sS'GATTAA'
p1679
I25768
sS'GTAGGC'
p1680
I21088
sS'GATTAC'
p1681
I17710
sS'GTAGGA'
p1682
I24975
sS'GTAGGG'
p1683
I32078
sS'GATTAG'
p1684
I18814
sS'GAATGA'
p1685
I40307
sS'ACAAAC'
p1686
I37114
sS'ACAAAA'
p1687
I63062
sS'ACAAAG'
p1688
I52008
sS'GCGGGC'
p1689
I95104
sS'GTCGGT'
p1690
I11308
sS'GCGGGA'
p1691
I64548
sS'GCGGGG'
p1692
I147780
sS'GATTAT'
p1693
I21837
sS'GTAGGT'
p1694
I18870
sS'AACCTG'
p1695
I43930
sS'TAATGA'
p1696
I33615
sS'GATGTT'
p1697
I30734
sS'TAATGC'
p1698
I22001
sS'GGAGAT'
p1699
I46356
sS'GCCCTT'
p1700
I62119
sS'GGCGTA'
p1701
I7218
sS'GCCCTC'
p1702
I110239
sS'GATGTG'
p1703
I42184
sS'GCCCTA'
p1704
I28780
sS'GATGTA'
p1705
I19080
sS'GCCCTG'
p1706
I160841
sS'GATGTC'
p1707
I30018
sS'CAATAG'
p1708
I16915
sS'TGAAAT'
p1709
I54347
sS'AACCTA'
p1710
I17949
sS'TTCTAA'
p1711
I37734
sS'ATCCGT'
p1712
I8162
sS'TTCTAC'
p1713
I23914
sS'TGAAAA'
p1714
I66932
sS'TGAAAC'
p1715
I37117
sS'TGAAAG'
p1716
I51301
sS'TTCTAT'
p1717
I29556
sS'ATCCGC'
p1718
I15160
sS'ATCCGA'
p1719
I8233
sS'ATCCGG'
p1720
I15200
sS'TGGCTC'
p1721
I82955
sS'TGGCTA'
p1722
I28730
sS'NNNNCT'
p1723
I1
sS'TGGCTG'
p1724
I119650
sS'GACCGG'
p1725
I24290
sS'GTCGGA'
p1726
I13009
sS'AGTTGT'
p1727
I25210
sS'AGCTAT'
p1728
I21714
sS'ATTAGT'
p1729
I20634
sS'GTCGGC'
p1730
I22386
sS'CGTCGA'
p1731
I4842
sS'TGGCTT'
p1732
I66255
sS'AGTTGG'
p1733
I34062
sS'AGCTAA'
p1734
I27901
sS'AGCTAC'
p1735
I24398
sS'AGTTGC'
p1736
I26631
sS'AGTTGA'
p1737
I24323
sS'AGCTAG'
p1738
I25134
sS'CGTTGA'
p1739
I7823
sS'TCCAGT'
p1740
I46424
sS'GCACCT'
p1741
I57330
sS'CAGTGT'
p1742
I53783
sS'AGTCAG'
p1743
I49060
sS'TCAGGT'
p1744
I39171
sS'TCAAGG'
p1745
I39600
sS'ACGCAC'
p1746
I19782
sS'TCAAGC'
p1747
I29976
sS'TCAAGA'
p1748
I32137
sS'CTAATA'
p1749
I19460
sS'CAGTGC'
p1750
I66966
sS'CTAATC'
p1751
I18813
sS'CAGTGA'
p1752
I64015
sS'CAGTGG'
p1753
I80793
sS'GCACCG'
p1754
I35709
sS'TCAAGT'
p1755
I28475
sS'CTGCAA'
p1756
I56504
sS'GAGCCC'
p1757
I110627
sS'TCAGGC'
p1758
I69998
sS'CGAGCT'
p1759
I24990
sS'CGTTGG'
p1760
I14243
sS'AGTCAA'
p1761
I25132
sS'TTCCCT'
p1762
I87079
sS'CGAGCG'
p1763
I26598
sS'CGAGCA'
p1764
I21153
sS'GAGCCG'
p1765
I59800
sS'CGAGCC'
p1766
I39447
sS'GTTCAG'
p1767
I37533
sS'TTCCCC'
p1768
I89080
sS'GTTCAC'
p1769
I25487
sS'GTTCAA'
p1770
I23014
sS'GATCAC'
p1771
I22971
sS'GCTGAG'
p1772
I103926
sS'TACATG'
p1773
I23201
sS'AAGTAC'
p1774
I19034
sS'CACACT'
p1775
I51774
sS'TACATC'
p1776
I19083
sS'AAGTAG'
p1777
I24766
sS'TACATA'
p1778
I22931
sS'CATGGT'
p1779
I34470
sS'GGACCG'
p1780
I29480
sS'AACGCT'
p1781
I12486
sS'GGACCA'
p1782
I45501
sS'CTTTCT'
p1783
I81696
sS'GGACCC'
p1784
I78563
sS'CACACG'
p1785
I32839
sS'TACATT'
p1786
I30924
sS'CACACC'
p1787
I63848
sS'GCACAA'
p1788
I32665
sS'CACACA'
p1789
I136857
sS'TCTGCC'
p1790
I99036
sS'TCTGCA'
p1791
I81832
sS'TCTGCG'
p1792
I33335
sS'TAGATT'
p1793
I22967
sS'ATTGCC'
p1794
I25224
sS'CCCGTC'
p1795
I35864
sS'TTAAGG'
p1796
I25580
sS'CCCGTA'
p1797
I8645
sS'TTAAGA'
p1798
I31539
sS'CCCGTG'
p1799
I40138
sS'TTAAGC'
p1800
I22650
sS'TTACGT'
p1801
I6278
sS'TAGATC'
p1802
I13540
sS'AAACAG'
p1803
I71476
sS'TAGATA'
p1804
I19884
sS'TTTCGC'
p1805
I10505
sS'TAGATG'
p1806
I23532
sS'TCTGCT'
p1807
I86543
sS'TTACGC'
p1808
I4885
sS'TTAAGT'
p1809
I28802
sS'TTACGA'
p1810
I4569
sS'TTACGG'
p1811
I6333
sS'CCCGTT'
p1812
I16713
sS'AGTGAC'
p1813
I42124
sS'AGTGAA'
p1814
I42556
sS'AGTGAG'
p1815
I59545
sS'CGGGCG'
p1816
I74360
sS'AAACAC'
p1817
I49855
sS'TAAGAG'
p1818
I29430
sS'CCTGAT'
p1819
I37314
sS'TAAGAA'
p1820
I35581
sS'CGGGCA'
p1821
I50693
sS'TAAGAC'
p1822
I17417
sS'TGTCAG'
p1823
I53168
sS'AGTGAT'
p1824
I32458
sS'CTTTCC'
p1825
I81323
sS'TAAGAT'
p1826
I22748
sS'CCTGAA'
p1827
I56010
sS'CCTGAC'
p1828
I61499
sS'CCTGAG'
p1829
I103831
sS'GTTAGG'
p1830
I19952
sS'GCCAAC'
p1831
I33207
sS'TATACT'
p1832
I14822
sS'GTTAGC'
p1833
I15610
sS'GTTAGA'
p1834
I18301
sS'GNNNNN'
p1835
I1
sS'GCCAAA'
p1836
I41164
sS'TATACG'
p1837
I2948
sS'GTTAGT'
p1838
I14235
sS'TATACC'
p1839
I10028
sS'TATACA'
p1840
I20820
sS'ATTGGC'
p1841
I26481
sS'CGTATA'
p1842
I2949
sS'TCTTGT'
p1843
I36102
sS'ACTAGT'
p1844
I11771
sS'TTTATT'
p1845
I77443
sS'GTAATA'
p1846
I18016
sS'AACGCA'
p1847
I12454
sS'GTAATC'
p1848
I17671
sS'GTACAG'
p1849
I24829
sS'TCTAAC'
p1850
I18315
sS'CGTTCT'
p1851
I15074
sS'CCACCG'
p1852
I46933
sS'CGGATC'
p1853
I14459
sS'CCACCA'
p1854
I82542
sS'CCACCC'
p1855
I143057
sS'GTTCGT'
p1856
I6709
sS'TTTATG'
p1857
I37323
sS'GTAATT'
p1858
I29324
sS'GTAACG'
p1859
I5370
sS'CTACTG'
p1860
I28722
sS'ACTAGC'
p1861
I14927
sS'TTTATA'
p1862
I40084
sS'ATTTAC'
p1863
I29713
sS'CCACCT'
p1864
I94891
sS'CGTTCG'
p1865
I6212
sS'TCGTTG'
p1866
I8407
sS'CGTTCA'
p1867
I10786
sS'CGTTCC'
p1868
I20035
sS'TCTAAT'
p1869
I29291
sS'CTTTGT'
p1870
I51989
sS'ATTTAA'
p1871
I55848
sS'ACTGGA'
p1872
I46425
sS'ACTGGC'
p1873
I51214
sS'TAGTCC'
p1874
I17610
sS'GTGACC'
p1875
I45343
sS'TAGTCA'
p1876
I18064
sS'GTGACA'
p1877
I45013
sS'TAGTCG'
p1878
I4317
sS'GTGACG'
p1879
I18142
sS'ATTTAG'
p1880
I30422
sS'ACTGGT'
p1881
I28222
sS'CTTTGG'
p1882
I56530
sS'CCTATG'
p1883
I18986
sS'CTTTGC'
p1884
I53800
sS'CTTTGA'
p1885
I42114
sS'GTGACT'
p1886
I40872
sS'TAGTCT'
p1887
I18277
sS'GTGCAC'
p1888
I39993
sS'GCGCTT'
p1889
I23040
sS'ACCTAG'
p1890
I20851
sS'GCAATT'
p1891
I26339
sS'ACCTAA'
p1892
I19326
sS'CGACGC'
p1893
I15424
sS'ACCTAC'
p1894
I18871
sS'CCGCAG'
p1895
I72691
sS'CCGCAA'
p1896
I16356
sS'CCGCAC'
p1897
I38307
sS'CTACGG'
p1898
I10182
sS'ACCTAT'
p1899
I13436
sS'GCGCTG'
p1900
I65260
sS'CGAAGA'
p1901
I14106
sS'CCCCGT'
p1902
I38173
sS'CGAAGG'
p1903
I23073
sS'GCGCTC'
p1904
I50205
sS'GTGCAT'
p1905
I30443
sS'GCGCTA'
p1906
I10004
sS'NCTGAC'
p1907
I1
sS'CCGCAT'
p1908
I16035
sS'GTTCGC'
p1909
I10436
sS'GAAGAT'
p1910
I34470
sS'GGATCT'
p1911
I32788
sS'TCATGA'
p1912
I28708
sS'TCGGAA'
p1913
I12904
sS'TCGGAC'
p1914
I12123
sS'GAATCT'
p1915
I29868
sS'TCGGAG'
p1916
I26872
sS'GGATCG'
p1917
I11572
sS'GAAGAG'
p1918
I73076
sS'GAAGAA'
p1919
I59261
sS'GGATCC'
p1920
I39245
sS'GAAGAC'
p1921
I38868
sS'GGATCA'
p1922
I26318
sS'GGATCN'
p1923
I1
sS'GAATCA'
p1924
I30114
sS'GAATCC'
p1925
I30857
sS'TCGGAT'
p1926
I8227
sS'GAATCG'
p1927
I8745
sS'ATGGTC'
p1928
I22380
sS'CAGATG'
p1929
I80726
sS'ACGCCG'
p1930
I21110
sS'TGACCC'
p1931
I50659
sS'ATGGTG'
p1932
I40837
sS'CAGATC'
p1933
I39627
sS'ACGCCC'
p1934
I37375
sS'TGCGTG'
p1935
I29641
sS'CTATCT'
p1936
I23760
sS'CAGATT'
p1937
I41640
sS'CTCGAC'
p1938
I11270
sS'ATGGTT'
p1939
I25530
sS'TCGCAA'
p1940
I6794
sS'TTGCGC'
p1941
I12794
sS'TGCGTC'
p1942
I18881
sS'CCGGTA'
p1943
I8376
sS'AATGGT'
p1944
I25443
sS'GTTACG'
p1945
I4483
sS'ACGTGT'
p1946
I15841
sS'AATGGC'
p1947
I36049
sS'AATGGA'
p1948
I42037
sS'AATGGG'
p1949
I42817
sS'GATCAA'
p1950
I17606
sS'CCCCGA'
p1951
I48996
sS'AATAGA'
p1952
I29672
sS'AACGCG'
p1953
I10322
sS'AATAGC'
p1954
I23164
sS'CGTTAG'
p1955
I6578
sS'TTGACC'
p1956
I21951
sS'GGAGGG'
p1957
I198843
sS'AAAAGT'
p1958
I43926
sS'GGAGGA'
p1959
I136626
sS'GGAGGC'
p1960
I149609
sS'TGGTAG'
p1961
I24214
sS'CGCCAT'
p1962
I20816
sS'GAGTGT'
p1963
I37482
sS'TGGTAC'
p1964
I16389
sS'TGGTAA'
p1965
I24980
sS'AAAAGG'
p1966
I61012
sS'GGAGGT'
p1967
I71469
sS'AGCCAT'
p1968
I45639
sS'AAAAGC'
p1969
I57178
sS'AAAAGA'
p1970
I73040
sS'TTGACT'
p1971
I25107
sS'GAGTGG'
p1972
I65764
sS'CGCCAG'
p1973
I54388
sS'TGGTAT'
p1974
I18924
sS'CGCCAA'
p1975
I18676
sS'GAGTGC'
p1976
I43294
sS'CGCCAC'
p1977
I42147
sS'GAGTGA'
p1978
I45579
sS'GCCAGG'
p1979
I165120
sS'GCCAGA'
p1980
I81679
sS'GCCAGC'
p1981
I119432
sS'GCCCGT'
p1982
I28393
sS'CAATCC'
p1983
I24243
sS'TACCGA'
p1984
I5153
sS'TACCGC'
p1985
I9402
sS'CTTCAT'
p1986
I40562
sS'GCCCGC'
p1987
I95117
sS'GCCAGT'
p1988
I51243
sS'GCCCGA'
p1989
I35248
sS'GCCCGG'
p1990
I110397
sS'TGCGAT'
p1991
I8243
sS'CTTCAC'
p1992
I43889
sS'CTTCAA'
p1993
I34872
sS'TACCGT'
p1994
I5446
sS'TCCGAG'
p1995
I28557
sS'TCCGAA'
p1996
I11387
sS'TCCGAC'
p1997
I13011
sS'AATTCA'
p1998
I40651
sS'TNNNNN'
p1999
I1
sS'AATTCC'
p2000
I33776
sS'AATTCG'
p2001
I6569
sS'TCCGAT'
p2002
I7190
sS'NNNGAT'
p2003
I3
sS'TAGCGG'
p2004
I11186
sS'AATTCT'
p2005
I39783
sS'TAGCGC'
p2006
I10007
sS'GTCATC'
p2007
I29298
sS'GTCATA'
p2008
I16169
sS'GTCATG'
p2009
I27439
sS'AGCAGG'
p2010
I119919
sS'CCAGGT'
p2011
I80945
sS'TTGGAA'
p2012
I45789
sS'AGCAGC'
p2013
I123623
sS'AGCAGA'
p2014
I86542
sS'GTCATT'
p2015
I32513
sS'CCAGGG'
p2016
I170208
sS'AGCAGT'
p2017
I50733
sS'CCAGGA'
p2018
I128499
sS'CCAGGC'
p2019
I184595
sS'TTGGAT'
p2020
I26427
sS'ACGGTA'
p2021
I5437
sS'CATCTG'
p2022
I80748
sS'ACGGTC'
p2023
I11532
sS'CATCTA'
p2024
I23532
sS'GATCGA'
p2025
I5491
sS'CATCTC'
p2026
I55931
sS'ATAGAA'
p2027
I29557
sS'ATGCGA'
p2028
I6777
sS'ATTAGA'
p2029
I29264
sS'TCCAAC'
p2030
I29155
sS'GGGGTC'
p2031
I78129
sS'CAAGCC'
p2032
I55977
sS'CATCTT'
p2033
I44265
sS'CAAGCA'
p2034
I46701
sS'CAAGCG'
p2035
I18686
sS'ACTCGA'
p2036
I8767
sS'GACTGA'
p2037
I37083
sS'CCTGGC'
p2038
I165106
sS'GTTCTT'
p2039
I35491
sS'ACATGA'
p2040
I31855
sS'CGTAAT'
p2041
I4763
sS'ACATGC'
p2042
I35174
sS'TCTTGA'
p2043
I32125
sS'ACATGG'
p2044
I42561
sS'CCCGCT'
p2045
I56146
sS'GTAAAC'
p2046
I19761
sS'TGGCGG'
p2047
I55125
sS'CGTAAG'
p2048
I6141
sS'GAGTCA'
p2049
I41716
sS'ACATGT'
p2050
I35248
sS'GTTCTA'
p2051
I18626
sS'CGTAAA'
p2052
I6698
sS'AGGGAG'
p2053
I142327
sS'ATCCTT'
p2054
I32822
sS'ACTCGG'
p2055
I23644
sS'CCCGCC'
p2056
I156747
sS'CCCGCA'
p2057
I54976
sS'CCCTTT'
p2058
I63365
sS'AGCGCA'
p2059
I26654
sS'GTTGTT'
p2060
I28536
sS'TGGATC'
p2061
I27364
sS'TTGTCG'
p2062
I7703
sS'TTGTCC'
p2063
I37224
sS'TTGTCA'
p2064
I35133
sS'ATCCTC'
p2065
I41599
sS'GTTGTA'
p2066
I15814
sS'ATCCTA'
p2067
I19676
sS'GTTGTC'
p2068
I22334
sS'ATCCTG'
p2069
I53161
sS'GTTGTG'
p2070
I28737
sS'TTGTCT'
p2071
I42676
sS'CTATGC'
p2072
I16790
sS'CCACTG'
p2073
I80838
sS'TGACTA'
p2074
I18059
sS'TGGGCC'
p2075
I102599
sS'TGACTC'
p2076
I41743
sS'TGGGCA'
p2077
I92318
sS'TGGGCG'
p2078
I56185
sS'TGACTG'
p2079
I46214
sS'AAGCCG'
p2080
I27569
sS'NNNNGC'
p2081
I1
sS'AAGCCC'
p2082
I67787
sS'AAGCCA'
p2083
I66253
sS'CAAAAT'
p2084
I48402
sS'ACGCGG'
p2085
I25107
sS'TGGGCT'
p2086
I95628
sS'CAAAAC'
p2087
I43187
sS'CAAAAA'
p2088
I59461
sS'AAGCCT'
p2089
I54349
sS'CAAAAG'
p2090
I47551
sS'TCAATG'
p2091
I23167
sS'AAACTT'
p2092
I34996
sS'TCAATC'
p2093
I18137
sS'TCAATA'
p2094
I20552
sS'CAGTTC'
p2095
I43329
sS'GACCCG'
p2096
I35526
sS'CAGTTG'
p2097
I34211
sS'GACCCC'
p2098
I78111
sS'CTCTGT'
p2099
I83381
sS'TCAATT'
p2100
I28427
sS'GGCCAG'
p2101
I146000
sS'CTCTGC'
p2102
I125438
sS'GACCCT'
p2103
I55131
sS'CTCTGA'
p2104
I73221
sS'ACAATC'
p2105
I20048
sS'CTCTGG'
p2106
I118100
sS'CAGTTT'
p2107
I50904
sS'GCGAAG'
p2108
I21335
sS'ACGTTC'
p2109
I10412
sS'TGCTGG'
p2110
I116040
sS'CGAGGT'
p2111
I23689
sS'TGCTGA'
p2112
I65906
sS'GAGTCT'
p2113
I39902
sS'GCGAAA'
p2114
I10505
sS'AGCTGC'
p2115
I109819
sS'GCTGGT'
p2116
I66121
sS'GTGATT'
p2117
I31428
sS'CTACTA'
p2118
I13994
sS'TGCTGT'
p2119
I73790
sS'TAGGGC'
p2120
I28780
sS'TAATGG'
p2121
I26189
sS'TGTACC'
p2122
I18846
sS'GTGATG'
p2123
I38932
sS'GCTGGG'
p2124
I196451
sS'GTGATC'
p2125
I22975
sS'GCTGGC'
p2126
I119427
sS'GTGATA'
p2127
I18975
sS'GCTGGA'
p2128
I100572
sS'TGATAA'
p2129
I33103
sS'TGATAC'
p2130
I14301
sS'TGATAG'
p2131
I18591
sS'CTTGTT'
p2132
I38711
sS'GACGGT'
p2133
I13752
sS'GCTAGG'
p2134
I30651
sS'GCTAGA'
p2135
I22858
sS'ATGAAT'
p2136
I37623
sS'GCTAGC'
p2137
I19164
sS'ATAGGG'
p2138
I18788
sS'TGATAT'
p2139
I21942
sS'GCTAGT'
p2140
I14917
sS'ATGAAC'
p2141
I24844
sS'GACGGG'
p2142
I35872
sS'ATGAAA'
p2143
I54841
sS'GACGGA'
p2144
I19558
sS'ATGAAG'
p2145
I40572
sS'GACGGC'
p2146
I29810
sS'CTTGTC'
p2147
I38500
sS'CAAAGA'
p2148
I51811
sS'GNCCGC'
p2149
I1
sS'CCATAG'
p2150
I20223
sS'GGTGAA'
p2151
I38118
sS'GGTGAC'
p2152
I47483
sS'GCGTCT'
p2153
I25618
sS'TGTAAA'
p2154
I41770
sS'GGTGAG'
p2155
I75725
sS'GGAATG'
p2156
I43091
sS'CGTCCT'
p2157
I31038
sS'GGCTAA'
p2158
I24163
sS'GGAATC'
p2159
I31666
sS'GGAATA'
p2160
I24416
sS'GCGTCA'
p2161
I15882
sS'TAGTGG'
p2162
I23296
sS'GGTGAT'
p2163
I30695
sS'GCGTCG'
p2164
I15419
sS'CGTCCG'
p2165
I18538
sS'GGAATT'
p2166
I33791
sS'CGTCCC'
p2167
I45334
sS'CGTCCA'
p2168
I22518
sS'TTTCGA'
p2169
I6998
sS'CCGTAT'
p2170
I5065
sS'GAAGTC'
p2171
I35805
sS'GAAGTA'
p2172
I22715
sS'GAAGTG'
p2173
I49228
sS'GCCGTA'
p2174
I7866
sS'CCGTAC'
p2175
I6341
sS'CCGTAA'
p2176
I6336
sS'CCGTAG'
p2177
I10176
sS'AGTCCG'
p2178
I16782
sS'CAAAGT'
p2179
I40000
sS'GCCGTT'
p2180
I14223
sS'GAAGTT'
p2181
I30822
sS'GGCGCG'
p2182
I75183
sS'ATGCCC'
p2183
I44181
sS'TTAGTT'
p2184
I23761
sS'TATTAG'
p2185
I19470
sS'GGCGCC'
p2186
I89870
sS'TATTAA'
p2187
I35619
sS'GGCGCA'
p2188
I40936
sS'TATTAC'
p2189
I18052
sS'ACTATG'
p2190
I15957
sS'CCTACA'
p2191
I26594
sS'TTTAAG'
p2192
I36935
sS'ACTATC'
p2193
I12568
sS'TTTAAA'
p2194
I89055
sS'ACTATA'
p2195
I13509
sS'TTTAAC'
p2196
I29303
sS'TATTAT'
p2197
I34093
sS'TTAGTG'
p2198
I23342
sS'GGCGCT'
p2199
I54003
sS'TTAGTC'
p2200
I16321
sS'ATGCCT'
p2201
I42217
sS'TTAGTA'
p2202
I18155
sS'TTTAAT'
p2203
I57331
sS'ACTATT'
p2204
I19746
sS'GGANTG'
p2205
I1
sS'GGGCAT'
p2206
I44182
sS'AAAGAC'
p2207
I39395
sS'TTCTAG'
p2208
I30724
sS'TTTCCA'
p2209
I74712
sS'TTTCCC'
p2210
I83113
sS'GTACGT'
p2211
I5475
sS'GTTTGT'
p2212
I37087
sS'TCAGNN'
p2213
I1
sS'TTTCCT'
p2214
I96326
sS'GGGCAG'
p2215
I174184
sS'CCTGGA'
p2216
I116765
sS'GGGCAA'
p2217
I48618
sS'GGGCAC'
p2218
I78641
sS'GTACGG'
p2219
I6345
sS'GTTTGA'
p2220
I28555
sS'GTTTGG'
p2221
I39237
sS'GTACGA'
p2222
I3809
sS'CCGCTC'
p2223
I54451
sS'GCATGT'
p2224
I35185
sS'CCGCTA'
p2225
I11185
sS'CCGCTG'
p2226
I62936
sS'AGCATT'
p2227
I38241
sS'GCGCGG'
p2228
I83196
sS'GCGCGC'
p2229
I77635
sS'GCGCGA'
p2230
I20893
sS'GCATGG'
p2231
I46918
sS'GCATGC'
p2232
I35401
sS'CCGCTT'
p2233
I26287
sS'TGACCT'
p2234
I50458
sS'GTCGAC'
p2235
I5368
sS'GTCGAA'
p2236
I5563
sS'GTCGAG'
p2237
I11274
sS'CGTGGC'
p2238
I43358
sS'GAGCTA'
p2239
I24928
sS'TGCGCT'
p2240
I26653
sS'GAGCTC'
p2241
I66258
sS'ATTGAT'
p2242
I20852
sS'TGTCCT'
p2243
I67132
sS'AAACGA'
p2244
I11605
sS'AAACGC'
p2245
I15908
sS'GTAACA'
p2246
I20878
sS'CACGCG'
p2247
I24457
sS'AAACGG'
p2248
I15626
sS'ATTGAA'
p2249
I29449
sS'TGCGCG'
p2250
I31027
sS'TGTCCA'
p2251
I51728
sS'GAGCTT'
p2252
I43034
sS'TGCGCC'
p2253
I40940
sS'ATTGAG'
p2254
I24660
sS'TGCGCA'
p2255
I24132
sS'GCGCAG'
p2256
I61633
sS'AAACGT'
p2257
I12877
sS'TGGGTT'
p2258
I44585
sS'ATTTCA'
p2259
I54264
sS'ATTTCC'
p2260
I55134
sS'ATCAGT'
p2261
I28071
sS'ATCGGG'
p2262
I12141
sS'CATAGT'
p2263
I15967
sS'ATCGGC'
p2264
I9944
sS'CCGTGT'
p2265
I24337
sS'ATCGGA'
p2266
I7184
sS'ATTTCT'
p2267
I61051
sS'CGATCA'
p2268
I6294
sS'TGGGTC'
p2269
I52670
sS'TGGGTA'
p2270
I27438
sS'CATAGG'
p2271
I18987
sS'ATCGGT'
p2272
I5553
sS'ATCAGG'
p2273
I37316
sS'CATAGC'
p2274
I20569
sS'ATCAGC'
p2275
I37923
sS'GGTCAA'
p2276
I21961
sS'ACGGGT'
p2277
I12967
sS'GTCTGA'
p2278
I38580
sS'ATTCGG'
p2279
I8367
sS'GATTCT'
p2280
I32888
sS'CTTTTG'
p2281
I47479
sS'TACTAG'
p2282
I11328
sS'CTTTTC'
p2283
I66700
sS'TACTAC'
p2284
I11289
sS'GATTCC'
p2285
I31655
sS'ACGGGG'
p2286
I38177
sS'ACGGGA'
p2287
I21817
sS'ACGGGC'
p2288
I28391
sS'TACTAT'
p2289
I14739
sS'CTTTTT'
p2290
I74716
sS'TCACGA'
p2291
I9461
sS'TCACGC'
p2292
I20279
sS'TCACGG'
p2293
I21096
sS'GCAGCC'
p2294
I152454
sS'TCTCAT'
p2295
I42063
sS'TCACGT'
p2296
I15924
sS'TTCCAC'
p2297
I47175
sS'TTCCAA'
p2298
I45803
sS'TTCCAG'
p2299
I85888
sS'CGAGGC'
p2300
I54923
sS'ACCCTT'
p2301
I35145
sS'TGAAGT'
p2302
I35678
sS'AAACAA'
p2303
I68983
sS'ATGCTT'
p2304
I35346
sS'TTCCAT'
p2305
I45218
sS'ACCCTA'
p2306
I20263
sS'ACCCTC'
p2307
I62929
sS'TGAAGG'
p2308
I53701
sS'ACCCTG'
p2309
I79702
sS'CTGACT'
p2310
I49034
sS'CCCCTT'
p2311
I75368
sS'AGTTAT'
p2312
I21809
sS'ACATAT'
p2313
I27389
sS'CTGACG'
p2314
I20226
sS'CTGACC'
p2315
I62599
sS'CTGACA'
p2316
I53138
sS'AGTTAA'
p2317
I28596
sS'CCCCTG'
p2318
I129360
sS'AGTTAC'
p2319
I19123
sS'CCCCTC'
p2320
I154649
sS'AGTTAG'
p2321
I19458
sS'CCCCTA'
p2322
I35020
sS'ACACAG'
p2323
I81409
sS'ACACAA'
p2324
I41592
sS'ACACAC'
p2325
I111789
sS'AATGTT'
p2326
I39126
sS'CTGCAG'
p2327
I163948
sS'CATGGG'
p2328
I52599
sS'CTGCAC'
p2329
I78825
sS'CATGGC'
p2330
I55613
sS'AATGTC'
p2331
I31102
sS'ACACAT'
p2332
I44466
sS'AATGTA'
p2333
I30889
sS'AATGTG'
p2334
I42720
sS'GCACAC'
p2335
I56450
sS'CTGCAT'
p2336
I53011
sS'GCACAG'
p2337
I88935
sS'CGATTC'
p2338
I8749
sS'ACATTT'
p2339
I58671
sS'ATGTTC'
p2340
I28325
sS'CGAGAT'
p2341
I11973
sS'ATTACT'
p2342
I26241
sS'CACAAT'
p2343
I28886
sS'ACATTG'
p2344
I25490
sS'GTACCA'
p2345
I16372
sS'ACATTA'
p2346
I28372
sS'ACATTC'
p2347
I31390
sS'ATTACA'
p2348
I35560
sS'ATGCTC'
p2349
I32581
sS'ATTACC'
p2350
I18516
sS'CGAGAC'
p2351
I19474
sS'CGAGAA'
p2352
I18059
sS'AAGTCT'
p2353
I33297
sS'GCTATT'
p2354
I23174
sS'GGACAT'
p2355
I32764
sS'CAGCGT'
p2356
I29922
sS'GCTATA'
p2357
I12903
sS'GCTATC'
p2358
I14306
sS'AAGTCG'
p2359
I11024
sS'AAGTCA'
p2360
I39641
sS'GCTATG'
p2361
I20559
sS'AAGTCC'
p2362
I37327
sS'GGACAG'
p2363
I87917
sS'GGACAC'
p2364
I55897
sS'GGACAA'
p2365
I37238
sS'CTAATT'
p2366
I32941
sS'AGGGTT'
p2367
I38534
sS'GAGGCG'
p2368
I71656
sS'TGTTGG'
p2369
I40656
sS'GAGGCA'
p2370
I86552
sS'TGTTGA'
p2371
I30928
sS'GAGGCC'
p2372
I124827
sS'TGTTGC'
p2373
I35058
sS'TCCAAG'
p2374
I49218
sS'CAATGT'
p2375
I25479
sS'TAAAAT'
p2376
I65199
sS'ACTCGC'
p2377
I17343
sS'TGTATA'
p2378
I20805
sS'TGTTGT'
p2379
I35910
sS'GAGGCT'
p2380
I97528
sS'AGCGCC'
p2381
I53997
sS'AGGGTG'
p2382
I80008
sS'AGGGTA'
p2383
I24317
sS'AGCGCG'
p2384
I37097
sS'AGGGTC'
p2385
I55121
sS'TAAAAG'
p2386
I45805
sS'ACTCGT'
p2387
I8183
sS'TAAAAC'
p2388
I38903
sS'TAAAAA'
p2389
I79335
sS'CTACTC'
p2390
I23232
sS'TAGGGA'
p2391
I33279
sS'ACGTTA'
p2392
I6034
sS'AGCTGA'
p2393
I66121
sS'ACGTTG'
p2394
I9725
sS'AGCTGG'
p2395
I121363
sS'TAGGGG'
p2396
I35003
sS'TAAATG'
p2397
I46775
sS'AGTGCG'
p2398
I19617
sS'AGTGCA'
p2399
I44080
sS'AGAGTT'
p2400
I34779
sS'AGTGCC'
p2401
I54159
sS'CCAAAA'
p2402
I43795
sS'TTCGTG'
p2403
I12202
sS'TAGGGT'
p2404
I20263
sS'GCATAG'
p2405
I16785
sS'AGCTGT'
p2406
I68080
sS'CTACTT'
p2407
I24756
sS'AGTGCT'
p2408
I50845
sS'AGAGTC'
p2409
I38565
sS'AGAGTA'
p2410
I23018
sS'AGAGTG'
p2411
I50550
sS'TTCGTA'
p2412
I4661
sS'GTTAAA'
p2413
I29280
sS'GCACCA'
p2414
I52941
sS'GTTAAC'
p2415
I14978
sS'GTCTGT'
p2416
I51965
sS'CCTGGG'
p2417
I207898
sS'GTTAAG'
p2418
I19933
sS'AGCCCG'
p2419
I58045
sS'TTCGTC'
p2420
I8900
sS'GCACCC'
p2421
I73380
sS'GTCTGG'
p2422
I71448
sS'NNNNNA'
p2423
I1
sS'GTCTGC'
p2424
I56535
sS'GTTAAT'
p2425
I23628
sS'CCTGGT'
p2426
I74506
sS'GCGGNC'
p2427
I1
sS'TCTAAA'
p2428
I35075
sS'CCGGTC'
p2429
I24288
sS'GGAAGG'
p2430
I122046
sS'CCACAT'
p2431
I47850
sS'GGAAGC'
p2432
I85965
sS'CTAATG'
p2433
I25565
sS'GGAAGA'
p2434
I79764
sS'TGTATT'
p2435
I36082
sS'TCCTCT'
p2436
I89703
sS'GCGTTC'
p2437
I16200
sS'CAATGC'
p2438
I26008
sS'GCGTTG'
p2439
I13882
sS'CAATGG'
p2440
I28980
sS'CCACAG'
p2441
I105841
sS'GGAAGT'
p2442
I51351
sS'CCACAC'
p2443
I72453
sS'CCACAA'
p2444
I41412
sS'AAACCA'
p2445
I51157
sS'TCCTCG'
p2446
I35228
sS'TGTATG'
p2447
I25631
sS'TCCTCA'
p2448
I68589
sS'GCGTTT'
p2449
I15906
sS'TCCTCC'
p2450
I136615
sS'TGTATC'
p2451
I19430
sS'GTGAAT'
p2452
I28520
sS'TAACCG'
p2453
I5804
sS'TCATAG'
p2454
I19558
sS'TCAGGG'
p2455
I84017
sS'TCATAA'
p2456
I26945
sS'TAACCC'
p2457
I20690
sS'TCATAC'
p2458
I14570
sS'TAACCA'
p2459
I23882
sS'ACCGCT'
p2460
I17574
sS'TCGCGA'
p2461
I7343
sS'TGCATG'
p2462
I43617
sS'TCAGGA'
p2463
I65348
sS'TTCGTT'
p2464
I9251
sS'TCATAT'
p2465
I23500
sS'TAACCT'
p2466
I21750
sS'CGTTAT'
p2467
I5427
sS'GTGAAA'
p2468
I42798
sS'GTGAAC'
p2469
I25505
sS'TGCATA'
p2470
I23226
sS'ACCGCG'
p2471
I23968
sS'ACCGCA'
p2472
I19363
sS'AACGAG'
p2473
I12071
sS'ACCGCC'
p2474
I36677
sS'CCGCCT'
p2475
I77079
sS'AGGCTT'
p2476
I54348
sS'CCTTCT'
p2477
I79034
sS'GTTGCA'
p2478
I26502
sS'AACGAA'
p2479
I9258
sS'GTTGCC'
p2480
I33161
sS'GTGCCG'
p2481
I28963
sS'GTGCCA'
p2482
I53926
sS'GTTGCG'
p2483
I10248
sS'GTGCCC'
p2484
I78633
sS'CCTTCA'
p2485
I53663
sS'AGGCTA'
p2486
I26513
sS'CCTTCC'
p2487
I121987
sS'AGGCTC'
p2488
I77327
sS'CCGCCC'
p2489
I148562
sS'TGTCGA'
p2490
I6070
sS'CCTTCG'
p2491
I23066
sS'AGGCTG'
p2492
I136773
sS'GTGCCT'
p2493
I62648
sS'CAGCGA'
p2494
I29766
sS'GTTGCT'
p2495
I34896
sS'NNNGCG'
p2496
I1
sS'GGATAT'
p2497
I17067
sS'TCGGGT'
p2498
I16891
sS'ATTTGA'
p2499
I38984
sS'GCAGTT'
p2500
I40211
sS'GAAGCT'
p2501
I55069
sS'GGATAA'
p2502
I22691
sS'GGATAC'
p2503
I13917
sS'NNNNNG'
p2504
I6
sS'TCGGGG'
p2505
I48998
sS'GGATAG'
p2506
I17401
sS'GAAGCG'
p2507
I29975
sS'GCAGTG'
p2508
I81431
sS'GAAGCC'
p2509
I75137
sS'GCAGTA'
p2510
I25743
sS'GAAGCA'
p2511
I60244
sS'GCAGTC'
p2512
I43968
sS'CGCCCG'
p2513
I74375
sS'GAGAGA'
p2514
I91783
sS'GTTCAT'
p2515
I24831
sS'GAGAGG'
p2516
I113945
sS'CGCCCA'
p2517
I56185
sS'AGTTTG'
p2518
I35506
sS'CTATAG'
p2519
I12150
sS'NNNNNN'
p2520
I1702
sS'GCATTC'
p2521
I29439
sS'CTATAA'
p2522
I19794
sS'CTCGCA'
p2523
I21525
sS'CGCCCT'
p2524
I61221
sS'CTCGCG'
p2525
I27406
sS'GTCTCG'
p2526
I19470
sS'CTATAT'
p2527
I15199
sS'AACTGA'
p2528
I39784
sS'GCCGGG'
p2529
I119156
sS'AGCATC'
p2530
I43044
sS'TACCCG'
p2531
I11208
sS'GCCGGC'
p2532
I83818
sS'CATGTT'
p2533
I35559
sS'GCCGGA'
p2534
I38709
sS'AGATCT'
p2535
I32936
sS'AACTGC'
p2536
I40198
sS'GCCACT'
p2537
I60552
sS'CATGTA'
p2538
I23185
sS'NNAGCG'
p2539
I1
sS'CATGTC'
p2540
I32391
sS'GCCGGT'
p2541
I26758
sS'CATGTG'
p2542
I53682
sS'AGTTCG'
p2543
I9427
sS'GTACTC'
p2544
I14167
sS'TCACTT'
p2545
I45696
sS'GGCCTC'
p2546
I124829
sS'NNGCGC'
p2547
I1
sS'CAAGCT'
p2548
I42619
sS'TTTGTT'
p2549
I66482
sS'AATCGG'
p2550
I8326
sS'AATCGC'
p2551
I8688
sS'AATCGA'
p2552
I5714
sS'TTCCCA'
p2553
I82889
sS'TCACTG'
p2554
I64013
sS'TCACTA'
p2555
I21294
sS'TCACTC'
p2556
I45569
sS'AATCGT'
p2557
I5749
sS'AGCCGA'
p2558
I25389
sS'CCGCCG'
p2559
I95875
sS'AGCCGC'
p2560
I59763
sS'TAATTG'
p2561
I29515
sS'AAAAAT'
p2562
I88469
sS'AGCCGG'
p2563
I59614
sS'GTTTTT'
p2564
I57466
sS'TGGTGA'
p2565
I51197
sS'GATGGA'
p2566
I46765
sS'TGGTGC'
p2567
I52940
sS'GGGCTA'
p2568
I27661
sS'GGGCTG'
p2569
I181191
sS'TGGTGG'
p2570
I82524
sS'GATGGG'
p2571
I64993
sS'TAATTT'
p2572
I57039
sS'AAAAAC'
p2573
I57551
sS'GGGCTC'
p2574
I110630
sS'GTTTTG'
p2575
I43151
sS'TTCCCG'
p2576
I38594
sS'AAAAAG'
p2577
I74851
sS'TGACAG'
p2578
I57695
sS'CCAAGG'
p2579
I75702
sS'ACGTAT'
p2580
I5100
sS'TCTCAG'
p2581
I72768
sS'TCTCAA'
p2582
I38370
sS'TGGTGT'
p2583
I43595
sS'TCTCAC'
p2584
I45947
sS'ATTCGT'
p2585
I6086
sS'AGAACT'
p2586
I38748
sS'CCGCCA'
p2587
I55124
sS'TACCAT'
p2588
I18680
sS'GGACCT'
p2589
I49256
sS'AGATAG'
p2590
I23765
sS'CACTGT'
p2591
I55788
sS'ACCCGA'
p2592
I16903
sS'AGATAC'
p2593
I20718
sS'ACCCGC'
p2594
I39474
sS'ACCAGT'
p2595
I28228
sS'TACCAC'
p2596
I19807
sS'AGAACG'
p2597
I15075
sS'TACCAA'
p2598
I18215
sS'AGAACA'
p2599
I52892
sS'TACCAG'
p2600
I27843
sS'AGAACC'
p2601
I39684
sS'ATGTCA'
p2602
I36400
sS'CACTGG'
p2603
I74095
sS'AGATAT'
p2604
I24730
sS'ATCACG'
p2605
I10690
sS'CCTATA'
p2606
I12463
sS'CACTGC'
p2607
I81458
sS'CCTATC'
p2608
I17920
sS'CACTGA'
p2609
I54347
sS'TAGGTT'
p2610
I17950
sS'GTTTAC'
p2611
I19768
sS'AATTAT'
p2612
I43028
sS'CTGTTG'
p2613
I47006
sS'TGCTAT'
p2614
I25151
sS'CTGTTC'
p2615
I51229
sS'CGGGTT'
p2616
I20094
sS'CTGTTA'
p2617
I30601
sS'AATTAC'
p2618
I29340
sS'AATTAA'
p2619
I52830
sS'CATGGA'
p2620
I43142
sS'TAGGTA'
p2621
I13536
sS'TAGGTC'
p2622
I16468
sS'CGGGTC'
p2623
I35522
sS'CTGTTT'
p2624
I71445
sS'CGGGTA'
p2625
I11207
sS'CGGGTG'
p2626
I45849
sS'ATTGTT'
p2627
I32158
sS'AAGTAA'
p2628
I32445
sS'CATTAC'
p2629
I19999
sS'GCAATG'
p2630
I29656
sS'TTAGGG'
p2631
I29034
sS'ATATAT'
p2632
I35283
sS'AGCAAC'
p2633
I34905
sS'TTAGGC'
p2634
I20713
sS'AAAGCT'
p2635
I49814
sS'TTAGGA'
p2636
I30614
sS'ATGCTA'
p2637
I21031
sS'AAAGCA'
p2638
I69169
sS'ATATAG'
p2639
I15187
sS'TTAGGT'
p2640
I19293
sS'ATATAA'
p2641
I30497
sS'AGCAAT'
p2642
I32479
sS'ATATAC'
p2643
I16076
sS'ATAGCA'
p2644
I25136
sS'ATAGCC'
p2645
I18454
sS'TACTTG'
p2646
I21107
sS'ATAGCG'
p2647
I5614
sS'CAGCAT'
p2648
I55806
sS'CAGCGC'
p2649
I65266
sS'ATAGCT'
p2650
I21703
sS'TACTTT'
p2651
I32653
sS'CATGCG'
p2652
I15718
sS'GTTTTC'
p2653
I51817
sS'CGAGTT'
p2654
I11697
sS'TCCAAT'
p2655
I25041
sS'CGTACT'
p2656
I5294
sS'TCCCGT'
p2657
I21830
sS'TATGCT'
p2658
I21002
sS'CTTAAG'
p2659
I22894
sS'ACATAA'
p2660
I29462
sS'CTTAAA'
p2661
I36953
sS'AGGGGT'
p2662
I63240
sS'CTTAAC'
p2663
I19920
sS'CGTACA'
p2664
I6254
sS'CGTACC'
p2665
I6545
sS'CGAGTA'
p2666
I6607
sS'TCCAAA'
p2667
I45765
sS'AGGGGA'
p2668
I102606
sS'CTTAAT'
p2669
I28879
sS'AGGGGC'
p2670
I125653
sS'TATGCA'
p2671
I23218
sS'AGGGGG'
p2672
I102879
sS'CGTTTG'
p2673
I13410
sS'CGACTT'
p2674
I11031
sS'TGAATT'
p2675
I40690
sS'TTGTAA'
p2676
I30094
sS'TTGTAC'
p2677
I16409
sS'GTACCT'
p2678
I18543
sS'TTGTAG'
p2679
I22959
sS'TGAATC'
p2680
I27569
sS'ACAACA'
p2681
I35906
sS'TGAATA'
p2682
I29452
sS'CGACTC'
p2683
I17031
sS'TGAATG'
p2684
I41911
sS'AAGTAT'
p2685
I20985
sS'CGACTG'
p2686
I16008
sS'TTGTAT'
p2687
I25831
sS'ATCGTG'
p2688
I9443
sS'GCTTCG'
p2689
I20530
sS'ATCGTC'
p2690
I6778
sS'ATCGTA'
p2691
I3668
sS'TGGGAG'
p2692
I120440
sS'TGGGAA'
p2693
I82943
sS'TGGGAC'
p2694
I58136
sS'GCTTCT'
p2695
I68112
sS'TGGCAC'
p2696
I53948
sS'ACAACG'
p2697
I8935
sS'TGGGAT'
p2698
I48846
sS'CTAGCC'
p2699
I27103
sS'GACCAT'
p2700
I22384
sS'CTAGCG'
p2701
I10633
sS'CGGTAG'
p2702
I10047
sS'ACTTAG'
p2703
I21303
sS'ACTTAA'
p2704
I28839
sS'CGGTAC'
p2705
I6925
sS'ACTTAC'
p2706
I19011
sS'CGGTAA'
p2707
I7064
sS'GACCAG'
p2708
I56999
sS'GACCAC'
p2709
I37419
sS'GACCAA'
p2710
I25835
sS'TACACC'
p2711
I16338
sS'CGGTAT'
p2712
I4337
sS'TACACA'
p2713
I34289
sS'TACACG'
p2714
I8339
sS'GCGAGA'
p2715
I24238
sS'GAGAGC'
p2716
I70883
sS'GCGAGC'
p2717
I36654
sS'CTTCGG'
p2718
I23208
sS'GCGAGG'
p2719
I55468
sS'CAGCCG'
p2720
I67066
sS'CAGCCA'
p2721
I119627
sS'CAGCCC'
p2722
I181188
sS'GCTGAA'
p2723
I51477
sS'GCGAGT'
p2724
I17343
sS'GAACTG'
p2725
I43347
sS'GAACTC'
p2726
I32473
sS'GAACTA'
p2727
I16952
sS'GGACTT'
p2728
I37331
sS'CACCTA'
p2729
I24435
sS'AACTAT'
p2730
I17432
sS'CACCTC'
p2731
I80711
sS'NAGCGA'
p2732
I1
sS'CACCTG'
p2733
I95477
sS'TGATCC'
p2734
I26332
sS'AACACT'
p2735
I34625
sS'TGATCA'
p2736
I24080
sS'TGATCG'
p2737
I6288
sS'AACTAG'
p2738
I18106
sS'GGACTG'
p2739
I59816
sS'CACCTT'
p2740
I46431
sS'AACTAC'
p2741
I16976
sS'GGACTC'
p2742
I50150
sS'AACGAT'
p2743
I5817
sS'AACACG'
p2744
I14340
sS'AACACA'
p2745
I54462
sS'AACACC'
p2746
I32186
sS'TGATCT'
p2747
I31323
sS'ATATCG'
p2748
I3114
sS'CTATAC'
p2749
I9110
sS'CAACAG'
p2750
I47033
sS'GACAGT'
p2751
I36660
sS'CAACAA'
p2752
I33625
sS'AAAGAA'
p2753
I81421
sS'CAACAC'
p2754
I32546
sS'GCTGAT'
p2755
I37925
sS'ACGCAA'
p2756
I8562
sS'GACAGG'
p2757
I75552
sS'CAACAT'
p2758
I29402
sS'GACAGC'
p2759
I65604
sS'GGGANT'
p2760
I1
sS'GACAGA'
p2761
I65570
sS'GTATTA'
p2762
I16525
sS'GTATTC'
p2763
I15336
sS'GTAAGT'
p2764
I18992
sS'CCAGCG'
p2765
I61100
sS'GTATTG'
p2766
I13517
sS'GGTGGC'
p2767
I97112
sS'TCCCCT'
p2768
I102592
sS'GGTGGA'
p2769
I67166
sS'TATCTT'
p2770
I31815
sS'GGTGGG'
p2771
I150981
sS'NNNGAA'
p2772
I2
sS'AGAGGC'
p2773
I97560
sS'GTAAGA'
p2774
I21080
sS'AGAGGA'
p2775
I89720
sS'GTAAGC'
p2776
I16368
sS'AGAGGG'
p2777
I107460
sS'ANTCCC'
p2778
I1
sS'ACCGAG'
p2779
I23063
sS'GTAAGG'
p2780
I20831
sS'TATCTA'
p2781
I19892
sS'CGTCAC'
p2782
I18154
sS'TCCCCC'
p2783
I101740
sS'GGTGGT'
p2784
I52081
sS'TCCCCA'
p2785
I120774
sS'GTCGCG'
p2786
I15138
sS'GTCGCA'
p2787
I11344
sS'GTCGCC'
p2788
I27007
sS'TCGGTC'
p2789
I13588
sS'TCGGTA'
p2790
I5149
sS'GAGAGT'
p2791
I38731
sS'TCGGTG'
p2792
I20396
sS'GTCGCT'
p2793
I16944
sS'CCGTCG'
p2794
I14746
sS'CCGTCA'
p2795
I17282
sS'CCGTCC'
p2796
I40228
sS'GGCTGT'
p2797
I84352
sS'CGCGTG'
p2798
I24458
sS'GCATTT'
p2799
I50811
sS'CGCGTC'
p2800
I23758
sS'CGCGTA'
p2801
I4790
sS'ATGCAG'
p2802
I53017
sS'CCACTA'
p2803
I23302
sS'CCACTC'
p2804
I65760
sS'CGCGTT'
p2805
I10318
sS'GGCTGG'
p2806
I184069
sS'GGCTGA'
p2807
I83822
sS'GGCTGC'
p2808
I152431
sS'ATGCAT'
p2809
I31234
sS'TTTAGA'
p2810
I35032
sS'ATGACG'
p2811
I10028
sS'GGAGTT'
p2812
I40278
sS'ATGACA'
p2813
I38233
sS'ATGACC'
p2814
I26473
sS'CGGGCC'
p2815
I86027
sS'GGGCCT'
p2816
I116841
sS'ATGACT'
p2817
I30621
sS'GGAGTA'
p2818
I21353
sS'TATCCG'
p2819
I5012
sS'GGAGTC'
p2820
I51029
sS'GGAGTG'
p2821
I66639
sS'GGGCCG'
p2822
I98844
sS'GGGCCC'
p2823
I140340
sS'GGGCCA'
p2824
I101852
sS'GGCAAG'
p2825
I55155
sS'ACGAGT'
p2826
I8181
sS'TTCNNN'
p2827
I2
sS'AGGCCA'
p2828
I94776
sS'GCGCAC'
p2829
I33729
sS'AAAGTC'
p2830
I33676
sS'AGGCCG'
p2831
I59680
sS'ACGAGG'
p2832
I23928
sS'ACGAGC'
p2833
I14040
sS'ACGAGA'
p2834
I12041
sS'CTGATG'
p2835
I47934
sS'AGGCCT'
p2836
I95599
sS'AGACGG'
p2837
I26731
sS'GGGTTG'
p2838
I44293
sS'GACTAC'
p2839
I13608
sS'GGGTTA'
p2840
I20692
sS'CTCGGG'
p2841
I60783
sS'GGGTTC'
p2842
I41972
sS'TTTGAT'
p2843
I35098
sS'ATTCGA'
p2844
I5493
sS'CTACGA'
p2845
I6480
sS'ATTGCT'
p2846
I32468
sS'GGGTTT'
p2847
I44688
sS'TACAAG'
p2848
I21358
sS'AGATCC'
p2849
I32785
sS'TGCGAG'
p2850
I21530
sS'AACGGC'
p2851
I14226
sS'AGACGC'
p2852
I25616
sS'ATTGCA'
p2853
I29737
sS'GACTAG'
p2854
I15875
sS'AACGGG'
p2855
I16719
sS'TTTGAC'
p2856
I25213
sS'TTTGAA'
p2857
I50956
sS'CGGGCT'
p2858
I58055
sS'TGACGT'
p2859
I13653
sS'CTCGTC'
p2860
I19338
sS'CCCTGG'
p2861
I170238
sS'CCCTGA'
p2862
I84033
sS'AAGCTT'
p2863
I35616
sS'CCCTGC'
p2864
I165817
sS'GATATC'
p2865
I12586
sS'AAGCTC'
p2866
I43032
sS'GATATA'
p2867
I14822
sS'AAGCTA'
p2868
I23609
sS'GATATG'
p2869
I16916
sS'TGACGA'
p2870
I8917
sS'TGACGC'
p2871
I15879
sS'CTCGGA'
p2872
I28557
sS'TACTCT'
p2873
I23029
sS'CATCGT'
p2874
I10438
sS'CAGGGT'
p2875
I79686
sS'CCAGTC'
p2876
I54073
sS'GACACA'
p2877
I53515
sS'CCAGTG'
p2878
I74089
sS'TACTCG'
p2879
I6612
sS'CATCGA'
p2880
I8185
sS'CATCGC'
p2881
I16441
sS'TACTCC'
p2882
I21352
sS'NGAATT'
p2883
I2
sS'TACTCA'
p2884
I22878
sS'CATCGG'
p2885
I12889
sS'CAGGGG'
p2886
I129349
sS'CAGGGA'
p2887
I127869
sS'CAGGGC'
p2888
I160840
sS'AATCTG'
p2889
I41647
sS'TACAAT'
p2890
I21262
sS'GCCATT'
p2891
I36054
sS'AGTCGA'
p2892
I6841
sS'AATCTA'
p2893
I22959
sS'TGAACG'
p2894
I10778
sS'TCACAC'
p2895
I44561
sS'TCACAA'
p2896
I34409
sS'TCACAG'
p2897
I69176
sS'GCCATA'
p2898
I19088
sS'CGGACG'
p2899
I18534
sS'GCCATC'
p2900
I48113
sS'CGGACA'
p2901
I19473
sS'CGGACC'
p2902
I26152
sS'GCCATG'
p2903
I55627
sS'TTTTAA'
p2904
I86541
sS'CGCNNN'
p2905
I1
sS'CTCGGC'
p2906
I57838
sS'TCACAT'
p2907
I38945
sS'TGAACC'
p2908
I28731
sS'CACGGA'
p2909
I25253
sS'ATTAAA'
p2910
I57338
sS'ATTAAG'
p2911
I28889
sS'CTTACA'
p2912
I24685
sS'GGCCTG'
p2913
I151972
sS'TCCACG'
p2914
I27943
sS'CAGNNN'
p2915
I1
sS'GTGCAG'
p2916
I78805
sS'ATTAAT'
p2917
I38480
sS'AAGCAC'
p2918
I41616
sS'GCTCGT'
p2919
I14038
sS'GAACCA'
p2920
I35493
sS'GGTATG'
p2921
I14530
sS'GGTATA'
p2922
I10026
sS'GGTATC'
p2923
I12959
sS'GAACCG'
p2924
I16616
sS'GGCCTA'
p2925
I25584
sS'CAATGA'
p2926
I30047
sS'ACGAAT'
p2927
I6091
sS'GGTATT'
p2928
I17204
sS'CTGAAC'
p2929
I37543
sS'GGAACC'
p2930
I45956
sS'CTGAAG'
p2931
I63576
sS'ATTGTA'
p2932
I21206
sS'CCCGAA'
p2933
I20877
sS'CATTGC'
p2934
I29642
sS'CCCGGC'
p2935
I119165
sS'CATTGA'
p2936
I23172
sS'AGAGGT'
p2937
I49330
sS'CATTGG'
p2938
I26449
sS'TCAACT'
p2939
I24311
sS'ACCATC'
p2940
I30779
sS'ACACCG'
p2941
I18510
sS'CTGCCA'
p2942
I104461
sS'CTGCCC'
p2943
I174169
sS'ACACCC'
p2944
I54976
sS'ACACCA'
p2945
I43592
sS'CTGCCG'
p2946
I60350
sS'CTAGTG'
p2947
I22644
sS'TCAACC'
p2948
I22825
sS'TCAACA'
p2949
I30919
sS'CTAGTC'
p2950
I15854
sS'TCAACG'
p2951
I7828
sS'CTAGTA'
p2952
I11320
sS'CATTGT'
p2953
I31197
sS'TATGAC'
p2954
I16172
sS'GTAATG'
p2955
I19974
sS'ACACCT'
p2956
I39798
sS'CTGCCT'
p2957
I139606
sS'CCTCGT'
p2958
I23924
sS'TATGAA'
p2959
I27373
sS'GAGGAC'
p2960
I61864
sS'AGACTG'
p2961
I47874
sS'GGCCTT'
p2962
I64504
sS'AGACTA'
p2963
I18265
sS'CCTCGG'
p2964
I66860
sS'CCTCGC'
p2965
I55465
sS'CCCGAC'
p2966
I32693
sS'CCTCGA'
p2967
I20536
sS'CGAGGA'
p2968
I35237
sS'AGACTT'
p2969
I33294
sS'NNNNAG'
p2970
I1
sS'CGAGGG'
p2971
I52953
sS'CACCGT'
p2972
I21944
sS'ACTTTA'
p2973
I28453
sS'ACTTTG'
p2974
I39948
sS'GAATAC'
p2975
I15346
sS'GACCTG'
p2976
I61662
sS'GACCTA'
p2977
I16466
sS'GACCTC'
p2978
I49144
sS'CACCGG'
p2979
I33936
sS'ACGCTG'
p2980
I29916
sS'CACCGA'
p2981
I20396
sS'CACCGC'
p2982
I48136
sS'GGACGA'
p2983
I18338
sS'CGCCCC'
p2984
I129900
sS'GGACGG'
p2985
I40233
sS'CTATTA'
p2986
I20830
sS'CACAGC'
p2987
I106221
sS'CTTATC'
p2988
I26367
sS'CACAGA'
p2989
I86657
sS'CTTATA'
p2990
I15852
sS'CACAGG'
p2991
I98307
sS'TTAACT'
p2992
I28589
sS'ACTCAT'
p2993
I27951
sS'GAGGAG'
p2994
I141364
sS'GACGTA'
p2995
I5093
sS'CGTATC'
p2996
I4645
sS'GCATAC'
p2997
I12128
sS'TAAACT'
p2998
I27911
sS'GAGGAA'
p2999
I85488
sS'AGCGAT'
p3000
I10608
sS'TTAACA'
p3001
I31963
sS'ACTCAC'
p3002
I41914
sS'TTAACC'
p3003
I21007
sS'ACTCAA'
p3004
I27469
sS'ACTCAG'
p3005
I55379
sS'TTAACG'
p3006
I6194
sS'CACAGT'
p3007
I54269
sS'AGCGAC'
p3008
I16944
sS'TAAACA'
p3009
I43305
sS'AGCGAA'
p3010
I12922
sS'TAAACC'
p3011
I22168
sS'GACGTT'
p3012
I9407
sS'CGTATT'
p3013
I5771
sS'TAAACG'
p3014
I7921
sS'AGTTCC'
p3015
I39091
sS'GTATGT'
p3016
I20412
sS'AGTTCA'
p3017
I33289
sS'TACTTA'
p3018
I20680
sS'CTGTGC'
p3019
I88895
sS'CTGTGA'
p3020
I69159
sS'CGGGGT'
p3021
I48782
sS'TAGGAC'
p3022
I19036
sS'GCAAAG'
p3023
I53827
sS'TAGGAA'
p3024
I36443
sS'GCAAAA'
p3025
I44937
sS'TAGGAG'
p3026
I35302
sS'GCAAAC'
p3027
I34057
sS'CGGGGC'
p3028
I125912
sS'CGGGGA'
p3029
I75455
sS'CTGTGT'
p3030
I81378
sS'CGGGGG'
p3031
I93547
sS'GTATGC'
p3032
I12121
sS'AGTTCT'
p3033
I38750
sS'GCAAAT'
p3034
I37089
sS'TAGGAT'
p3035
I19693
sS'TAATTA'
p3036
I43094
sS'TTCAAT'
p3037
I29446
sS'TCGCTN'
p3038
I1
sS'TGCTTT'
p3039
I69147
sS'ACAGGA'
p3040
I66793
sS'TGGGNC'
p3041
I1
sS'ACTAGG'
p3042
I20714
sS'GTTACC'
p3043
I16012
sS'GTTACA'
p3044
I20464
sS'TAATTC'
p3045
I28444
sS'TATCGA'
p3046
I2973
sS'TATCGC'
p3047
I4337
sS'TATAGT'
p3048
I13500
sS'GTCTAA'
p3049
I16017
sS'CAGGAC'
p3050
I79366
sS'GTCTAC'
p3051
I14210
sS'TGCTTC'
p3052
I60231
sS'TTCAAA'
p3053
I50970
sS'TTCAAC'
p3054
I24048
sS'TGCTTG'
p3055
I46704
sS'TATAGC'
p3056
I12902
sS'TATCGT'
p3057
I3698
sS'TATAGA'
p3058
I17369
sS'AGCTCA'
p3059
I59743
sS'TATAGG'
p3060
I12459
sS'GTTACT'
p3061
I19638
sS'GGAAAA'
p3062
I79995
sS'GGAAAC'
p3063
I57020
sS'GATGGC'
p3064
I48088
sS'GCTCTG'
p3065
I117394
sS'CCACGT'
p3066
I30584
sS'CAATAT'
p3067
I20771
sS'AGGACC'
p3068
I55548
sS'GAATGG'
p3069
I37677
sS'GGCTTT'
p3070
I60127
sS'ACTACT'
p3071
I16315
sS'GAATGC'
p3072
I29451
sS'CCACGA'
p3073
I20432
sS'CAATAC'
p3074
I13514
sS'CCACGC'
p3075
I48662
sS'CAATAA'
p3076
I29711
sS'GTTCCG'
p3077
I16360
sS'AACCTC'
p3078
I36724
sS'CCACGG'
p3079
I46183
sS'GCTCTT'
p3080
I51550
sS'GGCTTA'
p3081
I24671
sS'ACTACC'
p3082
I14764
sS'GGCTTC'
p3083
I75120
sS'ACTACA'
p3084
I22048
sS'ACTACG'
p3085
I6016
sS'GGCTTG'
p3086
I55971
sS'TCCTAG'
p3087
I32288
sS'TAACAA'
p3088
I28699
sS'CGTTGC'
p3089
I13229
sS'TAACAC'
p3090
I20081
sS'TCCTAC'
p3091
I24971
sS'AGTCAC'
p3092
I40898
sS'TCCTAA'
p3093
I30638
sS'TAACAG'
p3094
I30629
sS'TCATCG'
p3095
I10368
sS'AAGCGT'
p3096
I11237
sS'TCATCC'
p3097
I41057
sS'GTTTTA'
p3098
I38837
sS'TCATCA'
p3099
I37629
sS'AGTCAT'
p3100
I30638
sS'TCCTAT'
p3101
I22508
sS'TAACAT'
p3102
I26371
sS'CGTTGT'
p3103
I8938
sS'GAGCGA'
p3104
I24595
sS'CTTTCA'
p3105
I51237
sS'CTTTCG'
p3106
I12746
sS'GCGGGT'
p3107
I39471
sS'AGCCGT'
p3108
I20465
sS'GAGCGC'
p3109
I50207
sS'GTTGAT'
p3110
I18201
sS'CGACCA'
p3111
I12692
sS'CGACCC'
p3112
I30203
sS'CGACCG'
p3113
I11616
sS'CCTTAT'
p3114
I23356
sS'GTTGAC'
p3115
I16078
sS'GTTGAA'
p3116
I24054
sS'ACTGGG'
p3117
I69370
sS'GTTGAG'
p3118
I27541
sS'CCTTAC'
p3119
I20832
sS'CCTTAA'
p3120
I25607
sS'CCTTAG'
p3121
I27320
sS'CGACCT'
p3122
I17612
sS'CAACTC'
p3123
I32391
sS'CAACTA'
p3124
I15711
sS'CAACTG'
p3125
I34241
sS'AATAGG'
p3126
I21841
sS'AATATC'
p3127
I22539
sS'GATGGT'
p3128
I30781
sS'GGGGTT'
p3129
I48434
sS'ATTCNN'
p3130
I2
sS'GGATGT'
p3131
I35947
sS'AATAGT'
p3132
I19731
sS'CCAAGA'
p3133
I50672
sS'CAACTT'
p3134
I27921
sS'ACTGTA'
p3135
I25834
sS'GGGGTG'
p3136
I121140
sS'GGATGA'
p3137
I41072
sS'GGATGG'
p3138
I66851
sS'GGGGTA'
p3139
I26032
sS'TCTCCG'
p3140
I34495
sS'GAGTCC'
p3141
I50151
sS'AAACTG'
p3142
I50919
sS'TCTCCC'
p3143
I109643
sS'AAACTA'
p3144
I27268
sS'TCTCCA'
p3145
I81999
sS'AAACTC'
p3146
I36273
sS'CTATGA'
p3147
I19551
sS'AGTACG'
p3148
I5295
sS'ACGCGC'
p3149
I22662
sS'AGTACC'
p3150
I16529
sS'CTATGG'
p3151
I20207
sS'AGTACA'
p3152
I22516
sS'CCCTTA'
p3153
I26116
sS'CCCTTC'
p3154
I92560
sS'TCTCCT'
p3155
I92451
sS'CCCTTG'
p3156
I58708
sS'AGTACT'
p3157
I18432
sS'CTATGT'
p3158
I19724
sS'GCCGAA'
p3159
I15227
sS'GTGGAG'
p3160
I81875
sS'GCCGAC'
p3161
I22389
sS'GTGGAC'
p3162
I38436
sS'GCCGAG'
p3163
I57844
sS'GTGGAA'
p3164
I47177
sS'NTGGAG'
p3165
I1
sS'GTGGAT'
p3166
I31015
sS'GCCGAT'
p3167
I9936
sS'CCTATT'
p3168
I21852
sS'TATCTG'
p3169
I35819
sS'ACCCGG'
p3170
I43365
sS'GTAGTC'
p3171
I13600
sS'AAATCG'
p3172
I9160
sS'GTAGTA'
p3173
I11269
sS'GTAGTG'
p3174
I17276
sS'AAATCC'
p3175
I40054
sS'ACCGAA'
p3176
I9120
sS'AAATCA'
p3177
I52507
sS'ATGTCT'
p3178
I34828
sS'CACGCT'
p3179
I26443
sS'AAATCT'
p3180
I44766
sS'ACCGAT'
p3181
I5557
sS'CTTGAA'
p3182
I36509
sS'GTAGTT'
p3183
I16981
sS'AGATAA'
p3184
I47441
sS'TGCCGT'
p3185
I18483
sS'GATGAT'
p3186
I26725
sS'GGAGCA'
p3187
I80965
sS'GGAGCC'
p3188
I128837
sS'AAAGTG'
p3189
I49322
sS'CCAAAT'
p3190
I39600
sS'GGAGCG'
p3191
I60650
sS'AAAACT'
p3192
I44540
sS'GATGAC'
p3193
I29288
sS'TGTCCC'
p3194
I75472
sS'GATGAA'
p3195
I37024
sS'GATGAG'
p3196
I45617
sS'AAAACC'
p3197
I45099
sS'CCAAAC'
p3198
I39239
sS'AAAACG'
p3199
I16290
sS'GGAGCT'
p3200
I91604
sS'CCAAAG'
p3201
I56595
sS'TCGCGG'
p3202
I24250
sS'CTAGAG'
p3203
I33658
sS'TCGCGC'
p3204
I20895
sS'AGATCN'
p3205
I2
sS'GGGAGT'
p3206
I57798
sS'TACCCT'
p3207
I24319
sS'AGATCA'
p3208
I31311
sS'GCCACC'
p3209
I97136
sS'AGAAAT'
p3210
I61111
sS'CGACGG'
p3211
I14744
sS'GCCACG'
p3212
I43352
sS'AGATCG'
p3213
I9714
sS'ACCAGC'
p3214
I66129
sS'TCGCGT'
p3215
I7719
sS'GTGCAA'
p3216
I27637
sS'ACCCGT'
p3217
I12968
sS'AGAAAG'
p3218
I81741
sS'CGACGA'
p3219
I7122
sS'TCCCTT'
p3220
I68128
sS'AGAAAC'
p3221
I57029
sS'TACCCA'
p3222
I27452
sS'AGAAAA'
p3223
I102137
sS'TACCCC'
p3224
I26039
sS'ATGTAC'
p3225
I17224
sS'ACTTCG'
p3226
I10743
sS'ATGTAA'
p3227
I31457
sS'ATGTAG'
p3228
I20836
sS'ACCAGG'
p3229
I74514
sS'ACGTCA'
p3230
I13656
sS'TCGCTC'
p3231
I24589
sS'NTCCCC'
p3232
I1
sS'GACGAC'
p3233
I11733
sS'ATGTCG'
p3234
I7345
sS'ATGTAT'
p3235
I26556
sS'AAAGTT'
p3236
I34654
sS'GGCGTC'
p3237
I33952
sS'GTTCCC'
p3238
I52916
sS'AGCACT'
p3239
I50839
sS'TTAGAA'
p3240
I37745
sS'CGGCTG'
p3241
I67071
sS'TTAGAC'
p3242
I16021
sS'CGGCTC'
p3243
I59794
sS'TTAGAG'
p3244
I30268
sS'CGGCTA'
p3245
I10806
sS'AGCACC'
p3246
I61429
sS'AGCACA'
p3247
I61994
sS'AGCACG'
p3248
I24031
sS'GTCGGG'
p3249
I32689
sS'GGTCGG'
p3250
I28783
sS'CGGCTT'
p3251
I27568
sS'TTAGAT'
p3252
I23972
sS'CCAGCA'
p3253
I116009
sS'CGAAGC'
p3254
I20537
sS'CCAGCC'
p3255
I184075
sS'AAAGAG'
p3256
I64573
sS'ATATCA'
p3257
I21927
sS'CGACGT'
p3258
I6987
sS'TTATTT'
p3259
I79382
sS'TGTGAG'
p3260
I59693
sS'TGTGAA'
p3261
I46487
sS'GGGAGG'
p3262
I224951
sS'TGTGAC'
p3263
I42506
sS'ATATCT'
p3264
I24732
sS'CCAGCT'
p3265
I121371
sS'CACGGT'
p3266
I20408
sS'AAAGAT'
p3267
I42858
sS'TGTGAT'
p3268
I38482
sS'TTATTG'
p3269
I29684
sS'TTATTA'
p3270
I40918
sS'GAAAGC'
p3271
I53710
sS'TTATTC'
p3272
I31815
sS'ACATCT'
p3273
I42418
sS'TTTTAT'
p3274
I67878
sS'GCGAAC'
p3275
I10446
sS'CTTACT'
p3276
I23704
sS'TCCACT'
p3277
I47331
sS'TACAAA'
p3278
I37037
sS'AGACGA'
p3279
I12359
sS'TACAAC'
p3280
I15848
sS'CCTCTG'
p3281
I127202
sS'AGGTGG'
p3282
I94884
sS'CCTCTC'
p3283
I113945
sS'AGGTGC'
p3284
I57335
sS'CCTCTA'
p3285
I33486
sS'AGGTGA'
p3286
I55060
sS'CTTACG'
p3287
I6134
sS'TCCACA'
p3288
I56063
sS'TTTTAG'
p3289
I38570
sS'TCCACC'
p3290
I67165
sS'CTTACC'
p3291
I22720
sS'ACATCA'
p3292
I34898
sS'TTTTAC'
p3293
I35651
sS'ACATCC'
p3294
I35923
sS'AGGTGT'
p3295
I39806
sS'CCTCTT'
p3296
I69377
sS'CGTCGG'
p3297
I15708
sS'TATGAG'
p3298
I21011
sS'CCCGGA'
p3299
I53210
sS'NNCTGA'
p3300
I1
sS'CCCGGG'
p3301
I130080
sS'TTGTGT'
p3302
I41548
sS'TGGAAT'
p3303
I40999
sS'TAGGTG'
p3304
I24446
sS'TTGTGC'
p3305
I32645
sS'TATGAT'
p3306
I20005
sS'TTGTGG'
p3307
I41378
sS'TTTTGA'
p3308
I46422
sS'GGCGTG'
p3309
I44481
sS'TGGAAG'
p3310
I71513
sS'TGGAAC'
p3311
I36908
sS'TGGAAA'
p3312
I74788
sS'TGAGGA'
p3313
I68636
sS'AAGAGG'
p3314
I69387
sS'TGAGGC'
p3315
I78485
sS'AAGAGA'
p3316
I64503
sS'AAGAGC'
p3317
I51552
sS'TGAGGG'
p3318
I81743
sS'GCTTAG'
p3319
I24209
sS'GCTTAC'
p3320
I16365
sS'GCTTAA'
p3321
I22662
sS'TGATTC'
p3322
I30127
sS'AAGCGC'
p3323
I23049
sS'AAGAGT'
p3324
I32072
sS'AAGCGA'
p3325
I14119
sS'TGAGGT'
p3326
I45999
sS'GCTTAT'
p3327
I21487
sS'GTTCGG'
p3328
I12020
sS'CTGCTA'
p3329
I34473
sS'GCGTGT'
p3330
I25183
sS'CTGCTC'
p3331
I109462
sS'ACTTCT'
p3332
I40745
sS'GACCGT'
p3333
I11532
sS'CTGCTG'
p3334
I157038
sS'CGGTCA'
p3335
I15872
sS'GGTCGT'
p3336
I11085
sS'CGGTCC'
p3337
I29482
sS'CTAGAA'
p3338
I30740
sS'GAAAGT'
p3339
I37854
sS'GACCGA'
p3340
I13586
sS'GACCGC'
p3341
I24578
sS'ACTTCC'
p3342
I51349
sS'CTGCTT'
p3343
I79751
sS'ACTTCA'
p3344
I35645
sS'CTAGAT'
p3345
I18950
sS'AAGTGT'
p3346
I33235
sS'CGGTCT'
p3347
I17019
sS'GGTCGC'
p3348
I23249
sS'GGTCGA'
p3349
I9012
sS'CGTCGC'
p3350
I16288
sS'GCGTGG'
p3351
I48657
sS'GCGTGA'
p3352
I20287
sS'GCGTGC'
p3353
I30891
sS'TGCTCA'
p3354
I58582
sS'TTCATC'
p3355
I37010
sS'TGCTCC'
p3356
I80966
sS'TTCATA'
p3357
I27348
sS'TTCATG'
p3358
I35898
sS'TGCTCG'
p3359
I21141
sS'CAGAAT'
p3360
I46593
sS'CAGCAG'
p3361
I157084
sS'TACACT'
p3362
I19710
sS'GCGGCT'
p3363
I59776
sS'CAGCAC'
p3364
I87218
sS'CAGCAA'
p3365
I62206
sS'ATATCC'
p3366
I17064
sS'GTACAC'
p3367
I15901
sS'TGATTT'
p3368
I52509
sS'TTCATT'
p3369
I57470
sS'GCTTTA'
p3370
I30465
sS'TGGCCG'
p3371
I50586
sS'GCTGCA'
p3372
I101960
sS'AACTCT'
p3373
I34779
sS'TGGCCC'
p3374
I101857
sS'TGGCCA'
p3375
I91422
sS'GTAGCA'
p3376
I21640
sS'TCATCT'
p3377
I49469
sS'TGCTCT'
p3378
I72318
sS'AGCAAA'
p3379
I58291
sS'TGGCCT'
p3380
I94779
sS'AACTCC'
p3381
I40292
sS'GCTGCT'
p3382
I123620
sS'AACTCG'
p3383
I11695
sS'CAGTCG'
p3384
I16002
sS'CTACAA'
p3385
I22968
sS'TGAAGA'
p3386
I47891
sS'AATATT'
p3387
I45067
sS'GTTCGA'
p3388
I6783
sS'CAACCT'
p3389
I33933
sS'CAGTTA'
p3390
I26863
sS'GCTGCC'
p3391
I143291
sS'GGCACG'
p3392
I31456
sS'GGCACA'
p3393
I65789
sS'GACAAT'
p3394
I22289
sS'GGCACC'
p3395
I72765
sS'CAACCG'
p3396
I12204
sS'CAGAAA'
p3397
I85617
sS'AATATG'
p3398
I28880
sS'CGGTCG'
p3399
I11617
sS'CAACCC'
p3400
I44289
sS'AGCAAG'
p3401
I54075
sS'CAACCA'
p3402
I33175
sS'CTTCGT'
p3403
I13211
sS'GACAAA'
p3404
I39748
sS'GGCACT'
p3405
I54182
sS'GACAAC'
p3406
I22335
sS'CAGAAC'
p3407
I51404
sS'GACAAG'
p3408
I38538
sS'GCTGCG'
p3409
I69149
sS'GCGGCG'
p3410
I105545
sS'GCAATA'
p3411
I18425
sS'GAATTT'
p3412
I38661
sS'CAAGTG'
p3413
I41059
sS'CGATGG'
p3414
I15819
sS'GACACT'
p3415
I36807
sS'TCCCAT'
p3416
I47089
sS'CGATGC'
p3417
I12997
sS'GTAAAT'
p3418
I29729
sS'CGATGA'
p3419
I10377
sS'GAATTA'
p3420
I28438
sS'GAATTC'
p3421
I29031
sS'GAATTG'
p3422
I24728
sS'TCCCAA'
p3423
I50503
sS'CGATGT'
p3424
I8745
sS'GTAAAA'
p3425
I35639
sS'GTAAAG'
p3426
I23858
sS'TCCCAG'
p3427
I134252
sS'GGATTT'
p3428
I40044
sS'GTGCGT'
p3429
I19788
sS'CAAGTA'
p3430
I21112
sS'CTATCG'
p3431
I3967
sS'GGATTC'
p3432
I30873
sS'GGATTA'
p3433
I23093
sS'AGGTCC'
p3434
I49263
sS'AGCGGC'
p3435
I55213
sS'ACGCCA'
p3436
I20473
sS'AAAGCC'
p3437
I60144
sS'TCTGTG'
p3438
I86632
sS'CTATCC'
p3439
I17395
sS'GTCCCG'
p3440
I43052
sS'TCTGTA'
p3441
I37409
sS'AACCGG'
p3442
I14637
sS'CTCCTT'
p3443
I78239
sS'GGCGGA'
p3444
I51609
sS'CAGATA'
p3445
I35802
sS'AACCGC'
p3446
I15450
sS'AACCGA'
p3447
I9903
sS'TCTGTT'
p3448
I60989
sS'AAAGCG'
p3449
I18515
sS'CTCCTG'
p3450
I136751
sS'AACCGT'
p3451
I8160
sS'CTCCTA'
p3452
I35279
sS'CTCCTC'
p3453
I141313
sS'GGCGGT'
p3454
I36671
sS'AACAAG'
p3455
I38765
sS'GACGCC'
p3456
I33957
sS'CCCACA'
p3457
I90316
sS'CCCACC'
p3458
I150970
sS'TACTTC'
p3459
I22707
sS'AGCCTT'
p3460
I54473
sS'CCGATT'
p3461
I8327
sS'CCCACT'
p3462
I76042
sS'ACTTTT'
p3463
I43932
sS'AACAAT'
p3464
I32191
sS'GACGCT'
p3465
I21069
sS'ACCTCC'
p3466
I71436
sS'CCGATA'
p3467
I4085
sS'AGCCTG'
p3468
I117693
sS'AGCCTA'
p3469
I25334
sS'AGCCTC'
p3470
I97523
sS'GTACCC'
p3471
I18802
sS'GAGTTT'
p3472
I36275
sS'TGGTTA'
p3473
I23862
sS'CGCCTT'
p3474
I30031
sS'TGGTTC'
p3475
I35487
sS'TCNNNN'
p3476
I5
sS'CAGAGT'
p3477
I56576
sS'GCATCT'
p3478
I47483
sS'ACCTCG'
p3479
I23688
sS'AGGCAC'
p3480
I62675
sS'CGCCTC'
p3481
I71679
sS'GCGCCA'
p3482
I40646
sS'CGCCTA'
p3483
I11684
sS'AGGCAG'
p3484
I139618
sS'CGCCTG'
p3485
I65587
sS'ACGAAG'
p3486
I13210
sS'CAGAGG'
p3487
I127207
sS'GCATCC'
p3488
I45908
sS'GCATCA'
p3489
I32510
sS'CAGAGC'
p3490
I117418
sS'AAAATT'
p3491
I60053
sS'CAGAGA'
p3492
I99200
sS'TAGCTA'
p3493
I15760
sS'AGACTC'
p3494
I39899
sS'CCTAGA'
p3495
I30874
sS'CCTAGC'
p3496
I30661
sS'TTTGCT'
p3497
I58237
sS'CGGGAG'
p3498
I80335
sS'TGCGGT'
p3499
I19356
sS'CCTAGG'
p3500
I39996
sS'TAAGCA'
p3501
I30408
sS'TTTGCA'
p3502
I52979
sS'TTTGCC'
p3503
I46461
sS'CCTAGT'
p3504
I20720
sS'TGCGGG'
p3505
I54982
sS'TTTGCG'
p3506
I11943
sS'TGAGTT'
p3507
I35269
sS'GGGACG'
p3508
I45329
sS'CGGGAC'
p3509
I43056
sS'ATCGCT'
p3510
I10597
sS'ATCGCC'
p3511
I13622
sS'TGAGTG'
p3512
I54019
sS'ATCGCA'
p3513
I8240
sS'TGAGTA'
p3514
I22880
sS'ATCGCG'
p3515
I7975
sS'TGAGTC'
p3516
I40525
sS'AAGGTG'
p3517
I46442
sS'CGTCAA'
p3518
I7340
sS'CATCAT'
p3519
I32898
sS'AAGGTA'
p3520
I21893
sS'TACGCT'
p3521
I5541
sS'AAGCGG'
p3522
I26283
sS'ACGGCA'
p3523
I18477
sS'CATCAC'
p3524
I38949
sS'AAGGTT'
p3525
I28066
sS'CATCAA'
p3526
I28253
sS'CATCAG'
p3527
I47953
sS'ACGGCG'
p3528
I21061
sS'TCACCT'
p3529
I55067
sS'TCTAAG'
p3530
I25441
sS'TCGTTT'
p3531
I11606
sS'CGGAAT'
p3532
I9905
sS'GTGGCT'
p3533
I78838
sS'ATCGAT'
p3534
I4343
sS'TCACCG'
p3535
I23230
sS'TCACCA'
p3536
I51172
sS'TCACCC'
p3537
I62442
sS'CGGAAG'
p3538
I31609
sS'AATATA'
p3539
I32362
sS'AACTGG'
p3540
I41806
sS'AAAATA'
p3541
I79401
sS'CGGAAC'
p3542
I16373
sS'AGCTCG'
p3543
I24985
sS'CGGAAA'
p3544
I19057
sS'GCCTCA'
p3545
I78461
sS'ATCCAG'
p3546
I48572
sS'ATGGCG'
p3547
I20812
sS'TGTGTA'
p3548
I34264
sS'ATGGCC'
p3549
I47292
sS'ATGGCA'
p3550
I45063
sS'TTCAGA'
p3551
I53805
sS'ATGGCT'
p3552
I45633
sS'TGTGTT'
p3553
I54462
sS'CCAAGT'
p3554
I41369
sS'AGAATT'
p3555
I39807
sS'GAAACG'
p3556
I18408
sS'GAAACA'
p3557
I57369
sS'AGATTG'
p3558
I25460
sS'AAGATA'
p3559
I31832
sS'CTGAGT'
p3560
I55358
sS'AGGTAC'
p3561
I18545
sS'GAAACT'
p3562
I41489
sS'AGAATG'
p3563
I45070
sS'AGATTT'
p3564
I44779
sS'GCTNNN'
p3565
I1
sS'ACATAC'
p3566
I20435
sS'CTGAGC'
p3567
I95619
sS'CTGAGA'
p3568
I72769
sS'CTGAGG'
p3569
I110982
sS'CATACC'
p3570
I14528
sS'CATACA'
p3571
I25636
sS'CATACG'
p3572
I4927
sS'GCAATC'
p3573
I19210
sS'TCAAAT'
p3574
I39006
sS'GTCCAT'
p3575
I25887
sS'ACATAG'
p3576
I19726
sS'CATACT'
p3577
I16699
sS'GTCCAG'
p3578
I66344
sS'TCAAAG'
p3579
I42156
sS'TCAAAA'
p3580
I46496
sS'TCAAAC'
p3581
I28568
sS'CGGCGG'
p3582
I95880
sS'TTGATG'
p3583
I28230
sS'ATCGAG'
p3584
I8448
sS'CGGCGC'
p3585
I69518
sS'TTGATC'
p3586
I17594
sS'CGGCGA'
p3587
I24139
sS'TTGATA'
p3588
I20191
sS'TTGATT'
p3589
I34075
sS'CGGCGT'
p3590
I21107
sS'GTACGC'
p3591
I5422
sS'ATCGAC'
p3592
I4570
sS'CCATTA'
p3593
I26212
sS'TCGTCT'
p3594
I12343
sS'CGGTTA'
p3595
I5803
sS'GGTTTA'
p3596
I22167
sS'CGGTTC'
p3597
I16617
sS'GCTGTT'
p3598
I53492
sS'TTTACA'
p3599
I41691
sS'CGGTTG'
p3600
I12206
sS'GGTTTG'
p3601
I37979
sS'CCATTG'
p3602
I28981
sS'CGAGTC'
p3603
I18704
sS'GCTGTG'
p3604
I106192
sS'GGTTTT'
p3605
I45122
sS'CGGTTT'
p3606
I13507
sS'GCTGTA'
p3607
I30691
sS'TATGCG'
p3608
I4592
sS'AGGTTG'
p3609
I33933
sS'AGGTTC'
p3610
I31874
sS'ATATTT'
p3611
I55406
sS'AGGTTA'
p3612
I21753
sS'CNNNNN'
p3613
I6
sS'ACTCCT'
p3614
I48959
sS'TTTTTC'
p3615
I81077
sS'GAGGGC'
p3616
I110248
sS'TTTTTA'
p3617
I79087
sS'TTTTTG'
p3618
I59315
sS'GAGGGG'
p3619
I154653
sS'TTAAAT'
p3620
I55842
sS'AGGTTT'
p3621
I39108
sS'TAAGCG'
p3622
I7495
sS'TATGCC'
p3623
I17933
sS'TTAAAC'
p3624
I29640
sS'ATACGT'
p3625
I5095
sS'TTAAAA'
p3626
I86578
sS'ACTCCG'
p3627
I21598
sS'TTAAAG'
p3628
I40607
sS'ACTCCA'
p3629
I51002
sS'TTTTTT'
p3630
I207015
sS'ACTCCC'
p3631
I57795
sS'TAGGCT'
p3632
I25332
sS'GTCACG'
p3633
I17306
sS'CTGTAC'
p3634
I24824
sS'GCAACT'
p3635
I26627
sS'GTCACC'
p3636
I47463
sS'CTGTAG'
p3637
I34336
sS'GTCACA'
p3638
I42488
sS'GCAACG'
p3639
I13230
sS'GGTCTT'
p3640
I33652
sS'GTCACT'
p3641
I42115
sS'TAGGCG'
p3642
I11686
sS'ACGAAA'
p3643
I9043
sS'CTGTAT'
p3644
I27726
sS'GCAACA'
p3645
I35071
sS'TAGGCC'
p3646
I25582
sS'ATTCAT'
p3647
I37628
sS'TCCCAC'
p3648
I78427
sS'GCGATT'
p3649
I8695
sS'TCGTGT'
p3650
I10997
sS'TTCACT'
p3651
I42539
sS'GTCTCT'
p3652
I56845
sS'AACATT'
p3653
I39123
sS'ATTCAG'
p3654
I40370
sS'ATTCAA'
p3655
I32991
sS'ATTCAC'
p3656
I28510
sS'GTCTCC'
p3657
I67525
sS'TCGTGG'
p3658
I20436
sS'GCGATG'
p3659
I16446
sS'TTCACC'
p3660
I38118
sS'GCGATA'
p3661
I4338
sS'TTCACA'
p3662
I46443
sS'GCGATC'
p3663
I10976
sS'GAAGGC'
p3664
I68895
sS'GAAGGA'
p3665
I75647
sS'GAAGGG'
p3666
I92570
sS'CGATTA'
p3667
I4349
sS'CAATCT'
p3668
I25451
sS'GGAACA'
p3669
I47469
sS'GGAACG'
p3670
I20044
sS'AGCCAC'
p3671
I78875
sS'CACGAA'
p3672
I12218
sS'TACTGC'
p3673
I25762
sS'CGATTT'
p3674
I9157
sS'AAAACA'
p3675
I85611
sS'GAAGGT'
p3676
I40804
sS'CTCGCT'
p3677
I34080
sS'CAATCG'
p3678
I6222
sS'CAATCA'
p3679
I26880
sS'GGAACT'
p3680
I39093
sS'TCCTGA'
p3681
I65342
sS'AGTCCA'
p3682
I40143
sS'TCCTGC'
p3683
I110302
sS'AGTCCC'
p3684
I59959
sS'ACTAAA'
p3685
I27889
sS'TCCTGG'
p3686
I128486
sS'ACTAAC'
p3687
I14242
sS'TAACGC'
p3688
I6043
sS'CAGCTG'
p3689
I149914
sS'CAGCTA'
p3690
I34812
sS'CAGCTC'
p3691
I113278
sS'ACTAAT'
p3692
I20641
sS'AGTCCT'
p3693
I47986
sS'TCCTGT'
p3694
I66775
sS'TAATGT'
p3695
I28358
sS'CAGCTT'
p3696
I67380
sS'TAACGT'
p3697
I6039
sS'AGCCAG'
p3698
I121198
sS'GTACTT'
p3699
I19007
sS'CGACAT'
p3700
I7353
sS'TTGTTC'
p3701
I34540
sS'CGCAAG'
p3702
I16156
sS'TTGTTA'
p3703
I28669
sS'TTGTTG'
p3704
I33590
sS'ACGGAA'
p3705
I13441
sS'CCGAGC'
p3706
I48830
sS'CCGCGT'
p3707
I25109
sS'CGACAC'
p3708
I12850
sS'CGACAA'
p3709
I7709
sS'CGACAG'
p3710
I19917
sS'GTACTA'
p3711
I9206
sS'CCGCGC'
p3712
I83198
sS'TTGACG'
p3713
I7338
sS'CCGCGA'
p3714
I24248
sS'CCGCGG'
p3715
I80536
sS'TTGTTT'
p3716
I68881
sS'GCATAT'
p3717
I18993
sS'TCCGTT'
p3718
I11465
sS'AGCCAA'
p3719
I51948
sS'AATAAC'
p3720
I27168
sS'AATAAA'
p3721
I77518
sS'AATAAG'
p3722
I30936
sS'ATCGTT'
p3723
I5815
sS'GGATTG'
p3724
I24225
sS'TACTAA'
p3725
I18186
sS'AATAAT'
p3726
I46510
sS'ACGGTG'
p3727
I21936
sS'CCAACC'
p3728
I45418
sS'CTCAGT'
p3729
I54869
sS'CCAACG'
p3730
I14237
sS'GGGATT'
p3731
I37819
sS'CGCCGC'
p3732
I105544
sS'AGTAAA'
p3733
I36354
sS'CGCCGA'
p3734
I23167
sS'GAGTAG'
p3735
I23256
sS'CGCCGG'
p3736
I60871
sS'GAGTAA'
p3737
I22163
sS'AGTAAG'
p3738
I23706
sS'CTCAGG'
p3739
I103795
sS'CTAAAA'
p3740
I38595
sS'CTCAGC'
p3741
I103906
sS'CCAACT'
p3742
I34067
sS'GAGTAT'
p3743
I14319
sS'GCTTCA'
p3744
I45769
sS'GTGTAG'
p3745
I20611
sS'TCGAGC'
p3746
I12661
sS'AGTAAT'
p3747
I26253
sS'GTGTAC'
p3748
I15900
sS'CGCCGT'
p3749
I21058
sS'GTGGCA'
p3750
I60506
sS'CATATT'
p3751
I28860
sS'GCTTCC'
p3752
I85936
sS'GTGGCG'
p3753
I42140
sS'GCCGCC'
p3754
I131616
sS'GCCGCA'
p3755
I44176
sS'GCCGCG'
p3756
I78181
sS'ACACTT'
p3757
I33246
sS'CTCGGT'
p3758
I23061
sS'CATATC'
p3759
I16907
sS'CATATA'
p3760
I19287
sS'TCAGCA'
p3761
I65873
sS'ACACTC'
p3762
I37488
sS'ACACTA'
p3763
I18416
sS'ACACTG'
p3764
I53789
sS'GCCGCT'
p3765
I55213
sS'ACCGGA'
p3766
I14925
sS'AAATAA'
p3767
I79456
sS'ACCGGC'
p3768
I26749
sS'AAATAC'
p3769
I37142
sS'CTTTAA'
p3770
I40598
sS'AATCCT'
p3771
I34583
sS'AAATAG'
p3772
I37745
sS'AACTTA'
p3773
I20144
sS'CAGGTA'
p3774
I30195
sS'AACTTC'
p3775
I30809
sS'CAGGTC'
p3776
I61633
sS'CACGAC'
p3777
I12643
sS'ACGTTT'
p3778
I12884
sS'CAGGTG'
p3779
I95478
sS'CTTTAT'
p3780
I38036
sS'AATCCC'
p3781
I37795
sS'TTTATC'
p3782
I37372
sS'AATCCA'
p3783
I36117
sS'AAATAT'
p3784
I55453
sS'AATCCG'
p3785
I9699
sS'CACGAT'
p3786
I9448
sS'CAGGTT'
p3787
I43938
sS'AACTTT'
p3788
I34646
sS'TCTGTC'
p3789
I65560
sS'GGGATA'
p3790
I20575
sS'GGGATC'
p3791
I36746
sS'GGGTGT'
p3792
I54963
sS'GGGATG'
p3793
I66354
sS'GATGCT'
p3794
I43062
sS'CGCAGT'
p3795
I23000
sS'GAGTCG'
p3796
I17027
sS'GAGCCT'
p3797
I77350
sS'GGAGAC'
p3798
I67548
sS'GGGTGA'
p3799
I62451
sS'GGAGAA'
p3800
I82126
sS'GGGTGC'
p3801
I73404
sS'GGAGAG'
p3802
I122809
sS'GGGTGG'
p3803
I143028
sS'GAGCCA'
p3804
I82984
sS'CGCAGG'
p3805
I63612
sS'GATGCG'
p3806
I16074
sS'CGCAGA'
p3807
I33351
sS'GATGCA'
p3808
I35865
sS'CGCAGC'
p3809
I69155
sS'GATGCC'
p3810
I43937
sS'CGGATT'
p3811
I9704
sS'GGTAGT'
p3812
I14765
sS'ACCCCT'
p3813
I63235
sS'GCCAAT'
p3814
I26497
sS'GGCGGG'
p3815
I156761
sS'AGAAGT'
p3816
I40759
sS'ACCCCA'
p3817
I79865
sS'GGTAGA'
p3818
I23797
sS'ACCCCC'
p3819
I81779
sS'CGGATG'
p3820
I17579
sS'GCCAAG'
p3821
I68111
sS'CGGATA'
p3822
I5013
sS'ACCCCG'
p3823
I48786
sS'GGTAGG'
p3824
I34037
sS'AGAAGA'
p3825
I63787
sS'AGAAGC'
p3826
I68107
sS'GCAAGA'
p3827
I40196
sS'AGAAGG'
p3828
I79039
sS'CACTCC'
p3829
I66634
sS'CACTCA'
p3830
I54042
sS'CACTCG'
p3831
I20924
sS'TGCGTT'
p3832
I12463
sS'GCAAGG'
p3833
I56229
sS'AGCTTT'
p3834
I49789
sS'CCCCGG'
p3835
I108730
sS'TGCGTA'
p3836
I6033
sS'CCCCGC'
p3837
I147780
sS'CACTCT'
p3838
I50538
sS'AGCTTC'
p3839
I55062
sS'AGCTTA'
p3840
I22141
sS'AGCTTG'
p3841
I42596
sS'ATACGA'
p3842
I3837
sS'CCACTT'
p3843
I49059
sS'TTAGCT'
p3844
I27875
sS'GTATAA'
p3845
I15287
sS'TTAGCC'
p3846
I24156
sS'TTAGCA'
p3847
I30059
sS'CTAGCA'
p3848
I24710
sS'TTAGCG'
p3849
I7483
sS'CGATCC'
p3850
I11574
sS'AAGGGG'
p3851
I75358
sS'ATAAGG'
p3852
I23354
sS'TGTGCT'
p3853
I62000
sS'AAGGGC'
p3854
I62113
sS'ATAAGC'
p3855
I21478
sS'AAGGGA'
p3856
I68115
sS'ATAAGA'
p3857
I27634
sS'CCAGAC'
p3858
I71452
sS'CCAGAA'
p3859
I73892
sS'CCAGAG'
p3860
I118155
sS'GCAAGT'
p3861
I30585
sS'TGTGCG'
p3862
I27843
sS'ATAAGT'
p3863
I18566
sS'AAGGGT'
p3864
I35135
sS'TGTGCC'
p3865
I65804
sS'ATAGGA'
p3866
I22496
sS'TGTGCA'
p3867
I58786
sS'ATAGGC'
p3868
I16455
sS'GCTCGC'
p3869
I36653
sS'ATACGC'
p3870
I4283
sS'CCAGAT'
p3871
I57212
sS'AGACAA'
p3872
I42694
sS'GACGCA'
p3873
I18884
sS'AGACAC'
p3874
I51900
sS'AGACAG'
p3875
I77846
sS'TTTTCT'
p3876
I102016
sS'CGCTGT'
p3877
I29820
sS'CCCACG'
p3878
I51974
sS'CGTGGG'
p3879
I51984
sS'AGACAT'
p3880
I34830
sS'CGTGGA'
p3881
I27953
sS'TTTTCG'
p3882
I9974
sS'AACAAC'
p3883
I28556
sS'CGCTGC'
p3884
I69249
sS'TTTTCC'
p3885
I79915
sS'TTTTCA'
p3886
I66845
sS'CGCTGG'
p3887
I61106
sS'TATGGA'
p3888
I21291
sS'TATGGC'
p3889
I19079
sS'CGTAGG'
p3890
I10416
sS'CGTAGA'
p3891
I7146
sS'TATGGG'
p3892
I20916
sS'CGTAGC'
p3893
I9702
sS'CTTCAG'
p3894
I63580
sS'TGGACT'
p3895
I40133
sS'CGTAGT'
p3896
I6021
sS'GCTCGA'
p3897
I12658
sS'TATGGT'
p3898
I16775
sS'TGGACA'
p3899
I51696
sS'TGGACC'
p3900
I40044
sS'TGGACG'
p3901
I22510
sS'CGTTAC'
p3902
I5379
sS'GGCGGN'
p3903
I1
sS'CCGGTT'
p3904
I14634
sS'CTAGCT'
p3905
I25124
sS'GCTTGA'
p3906
I29987
sS'TGAGAC'
p3907
I39620
sS'GCTTGC'
p3908
I39135
sS'TGAGAA'
p3909
I58613
sS'TGAGAG'
p3910
I60224
sS'GCTTGG'
p3911
I60169
sS'CCTGTT'
p3912
I52138
sS'CCGGTG'
p3913
I33924
sS'CCTTGC'
p3914
I56229
sS'ACTTAT'
p3915
I18579
sS'CCTGTC'
p3916
I75543
sS'CCTGTA'
p3917
I33506
sS'CTCGCC'
p3918
I50649
sS'GCTTGT'
p3919
I34632
sS'TGAGAT'
p3920
I40799
sS'GGTTGT'
p3921
I25436
sS'TATCAG'
p3922
I26308
sS'AATTCN'
p3923
I2
sS'TAGCGT'
p3924
I5883
sS'GGTTGG'
p3925
I45423
sS'CTGAAT'
p3926
I40370
sS'GGTTGA'
p3927
I22814
sS'GGTTGC'
p3928
I29916
sS'TCCCGC'
p3929
I64548
sS'TCCCGA'
p3930
I25345
sS'TCCCGG'
p3931
I70730
sS'GTAACC'
p3932
I15198
sS'CGTTTT'
p3933
I16293
sS'ATTCTC'
p3934
I37888
sS'AGGGAA'
p3935
I87116
sS'ATTCTA'
p3936
I26182
sS'ATTCTG'
p3937
I46551
sS'TCATTT'
p3938
I65856
sS'GTAACT'
p3939
I19123
sS'TGCTAA'
p3940
I30093
sS'TGCTAG'
p3941
I24728
sS'CAGCGG'
p3942
I62941
sS'AGGATC'
p3943
I31368
sS'TCATTC'
p3944
I40284
sS'TCATTA'
p3945
I33576
sS'CGTTTA'
p3946
I7923
sS'ATTCTT'
p3947
I38828
sS'CGTTTC'
p3948
I18398
sS'ACCGGG'
p3949
I30776
sS'TGGCAA'
p3950
I45229
sS'CCGATC'
p3951
I9513
sS'TGGCAG'
p3952
I104492
sS'GGCCGT'
p3953
I32542
sS'CCAAGC'
p3954
I60184
sS'GCTGAC'
p3955
I50332
sS'TGGCAT'
p3956
I43346
sS'GGCCGG'
p3957
I107005
sS'NNGATC'
p3958
I3
sS'CCGATG'
p3959
I12882
sS'GGCCGC'
p3960
I100864
sS'GAACTT'
p3961
I27893
sS'GGCCGA'
p3962
I40357
sS'GGCAAT'
p3963
I25226
sS'CGCTCG'
p3964
I26596
sS'ATCNNN'
p3965
I3
sS'CTGATT'
p3966
I41433
sS'CCATCG'
p3967
I15819
sS'CTAAAT'
p3968
I30430
sS'CCATCC'
p3969
I66846
sS'CCATCA'
p3970
I42932
sS'CTGATC'
p3971
I28344
sS'CTGATA'
p3972
I26285
sS'TGGTTG'
p3973
I33157
sS'GGCAAC'
p3974
I33167
sS'GGCAAA'
p3975
I46474
sS'CTAAAG'
p3976
I27267
sS'CCATCT'
p3977
I65068
sS'CTAAAC'
p3978
I20628
sS'TTGCGT'
p3979
I8557
sS'GACACC'
p3980
I44496
sS'TACGAT'
p3981
I3669
sS'GACACG'
p3982
I20840
sS'GCGCCT'
p3983
I53040
sS'TAGCGA'
p3984
I6061
sS'TACGAG'
p3985
I6241
sS'TACGAC'
p3986
I4133
sS'GGAAAG'
p3987
I81362
sS'TCGGCG'
p3988
I23165
sS'CCGTGA'
p3989
I21093
sS'CGTGAG'
p3990
I25265
sS'TGTTAC'
p3991
I20891
sS'CTATTG'
p3992
I16911
sS'GCATAA'
p3993
I18861
sS'CTATTC'
p3994
I18917
sS'TCGATG'
p3995
I8186
sS'TCGATA'
p3996
I2969
sS'TCGATC'
p3997
I5494
sS'CTATTT'
p3998
I37746
sS'CGCGAA'
p3999
I9686
sS'GCATTG'
p4000
I26003
sS'CAGCCT'
p4001
I136802
sS'TCGATT'
p4002
I5711
sS'TCGGCA'
p4003
I16472
sS'TGGTTT'
p4004
I51155
sS'ACAATG'
p4005
I31208
sS'AACCAA'
p4006
I32806
sS'TGCCGG'
p4007
I40946
sS'AACCAC'
p4008
I35031
sS'TGCCGC'
p4009
I43022
sS'AACCAG'
p4010
I50410
sS'TGCCGA'
p4011
I16474
sS'TTGGAC'
p4012
I23801
sS'TCGGGC'
p4013
I35241
sS'CGCGAG'
p4014
I27415
sS'GCGCCG'
p4015
I69518
sS'GGCGGC'
p4016
I131622
sS'AACCAT'
p4017
I25554
sS'AACAGA'
p4018
I61007
sS'CTACCG'
p4019
I10050
sS'AACAGC'
p4020
I53509
sS'CTACCC'
p4021
I32146
sS'AACAGG'
p4022
I52164
sS'CTACCA'
p4023
I24199
sS'CCCAAG'
p4024
I72459
sS'TTGGAG'
p4025
I53054
sS'GACGAA'
p4026
I8899
sS'CTNNNN'
p4027
I1
sS'CCCAAC'
p4028
I48346
sS'CCCAAA'
p4029
I57010
sS'CTACCT'
p4030
I28297
sS'GGGAGA'
p4031
I109684
sS'AACAGT'
p4032
I33780
sS'GGGAGC'
p4033
I122691
sS'CCCAAT'
p4034
I23963
sS'GACGAT'
p4035
I6781
sS'GGGCGC'
p4036
I96805
sS'GGGCGA'
p4037
I38940
sS'NGCGCC'
p4038
I1
sS'GGGCGG'
p4039
I148563
sS'TCTCTT'
p4040
I64488
sS'AGGCAT'
p4041
I42226
sS'CGTTAA'
p4042
I6196
sS'GTACAA'
p4043
I16411
sS'ACGACT'
p4044
I8162
sS'TCTCTC'
p4045
I91747
sS'TCTCTA'
p4046
I35244
sS'TCTCTG'
p4047
I99178
sS'GGGCGT'
p4048
I37364
sS'ACGACC'
p4049
I11079
sS'ACGACA'
p4050
I9265
sS'ACGACG'
p4051
I7442
sS'CAGAAG'
p4052
I80196
sS'CACTTT'
p4053
I49313
sS'CCTAAT'
p4054
I22988
sS'CGCTAG'
p4055
I10637
sS'CACTTG'
p4056
I41049
sS'CCTAAC'
p4057
I19964
sS'CCTAAA'
p4058
I29047
sS'CACTTC'
p4059
I49218
sS'CCTAAG'
p4060
I27836
sS'CACTTA'
p4061
I29555
sS'GCGGAT'
p4062
I15159
sS'CTGCGG'
p4063
I72686
sS'AAGATT'
p4064
I30982
sS'CTCATG'
p4065
I38503
sS'GACTCG'
p4066
I18700
sS'CTCATC'
p4067
I45578
sS'GACTCC'
p4068
I51033
sS'CTCATA'
p4069
I21006
sS'GACTCA'
p4070
I40509
sS'ATAGGT'
p4071
I13422
sS'AGTCGG'
p4072
I18301
sS'AAGATG'
p4073
I44254
sS'GACTCT'
p4074
I38563
sS'CTCATT'
p4075
I46749
sS'ATCGAA'
p4076
I4999
sS'GGACTA'
p4077
I17620
sS'GCATTA'
p4078
I22010
sS'ATAGAG'
p4079
I22893
sS'AACTAA'
p4080
I23785
sS'ATAGTT'
p4081
I17425
sS'TACTGT'
p4082
I26417
sS'ATATTC'
p4083
I23753
sS'ATATTA'
p4084
I28827
sS'ATATTG'
p4085
I20742
sS'ATAGTA'
p4086
I14706
sS'TACTGA'
p4087
I25559
sS'TACTGG'
p4088
I25292
sS'ATAGTG'
p4089
I17052
sS'ATAGAC'
p4090
I14118
sS'CAGGCA'
p4091
I117890
sS'CAGGCC'
p4092
I151978
sS'CATCCG'
p4093
I17577
sS'ACGGAG'
p4094
I27974
sS'CATCCA'
p4095
I47723
sS'AGGAAC'
p4096
I46364
sS'CATCCC'
p4097
I66330
sS'TTATGA'
p4098
I26910
sS'TTATGC'
p4099
I18847
sS'CGGAGT'
p4100
I21598
sS'TTATGG'
p4101
I22101
sS'CATCCT'
p4102
I58086
sS'AGGAAT'
p4103
I42191
sS'CAGGCT'
p4104
I117669
sS'ACGGAT'
p4105
I8165
sS'CGGAGA'
p4106
I34497
sS'CGGAGC'
p4107
I60998
sS'TTATGT'
p4108
I29428
sS'CGGAGG'
p4109
I66169
sS'ATGGAA'
p4110
I45207
sS'ATGGAC'
p4111
I25873
sS'ATGGAG'
p4112
I54700
sS'CGCTTG'
p4113
I18686
sS'CGCTTA'
p4114
I7494
sS'CGCTTC'
p4115
I29978
sS'ATGGAT'
p4116
I27421
sS'TGCGGC'
p4117
I44179
sS'CGCTTT'
p4118
I18513
sS'GCCGTG'
p4119
I40648
sS'TGGGGA'
p4120
I120810
sS'GATCGT'
p4121
I5830
sS'TGCGGA'
p4122
I24877
sS'TTGTGA'
p4123
I34396
sS'GAAAAG'
p4124
I66796
sS'GAAAAC'
p4125
I51874
sS'ATAGAT'
p4126
I20193
sS'GAAAAA'
p4127
I81222
sS'ACGGTT'
p4128
I8159
sS'GAAAAT'
p4129
I59529
sS'CGGCAT'
p4130
I13948
sS'CACGCA'
p4131
I29649
sS'ACAAGG'
p4132
I42499
sS'ACAAGA'
p4133
I36124
sS'AAAAAA'
p4134
I207566
sS'ACAAGC'
p4135
I34655
sS'ACACGT'
p4136
I15845
sS'CTGCGT'
p4137
I29820
sS'GACGTC'
p4138
I16225
sS'GCGGAG'
p4139
I68834
sS'CATAAG'
p4140
I17860
sS'GTCCCT'
p4141
I69410
sS'CATAAA'
p4142
I37382
sS'GCGGAC'
p4143
I26688
sS'CATAAC'
p4144
I15583
sS'ACACGC'
p4145
I25178
sS'ACAAGT'
p4146
I26328
sS'ACACGA'
p4147
I11009
sS'ACACGG'
p4148
I24328
sS'CATAAT'
p4149
I26663
sS'GTCCCA'
p4150
I58119
sS'GCACAT'
p4151
I36480
sS'GTCCCC'
p4152
I91223
sS'ATCCCA'
p4153
I48809
sS'CTGCGA'
p4154
I24926
sS'CTGCGC'
p4155
I61630
sS'CGGCAA'
p4156
I15638
sS'CGGCAC'
p4157
I28968
sS'CGGCAG'
p4158
I60346
sS'CCTCCT'
p4159
I153765
sS'ATCAAA'
p4160
I35109
sS'AGCGCT'
p4161
I30774
sS'CAGGCG'
p4162
I65578
sS'CCTCCC'
p4163
I224894
sS'CCTCCA'
p4164
I111583
sS'CACGCC'
p4165
I44482
sS'CCTCCG'
p4166
I66178
sS'CGTGAT'
p4167
I10696
s.