(dp0
S'GAACGT'
p1
I6075
sS'CGTCGT'
p2
I3352
sS'CTTCTT'
p3
I37753
sS'CACCCT'
p4
I37455
sS'GAACGG'
p5
I8106
sS'GAACGC'
p6
I8444
sS'GAACGA'
p7
I5590
sS'CACCCA'
p8
I41894
sS'CTTCTA'
p9
I19603
sS'CACCCC'
p10
I47696
sS'CTTCTC'
p11
I45543
sS'CACCCG'
p12
I18284
sS'CTTCTG'
p13
I43563
sS'CGTGTG'
p14
I13790
sS'TAAGGT'
p15
I12373
sS'TGTCAG'
p16
I26687
sS'CGTGTA'
p17
I4770
sS'GGAAAT'
p18
I34908
sS'TAAGGG'
p19
I16062
sS'CGTGTT'
p20
I8158
sS'TAAGGC'
p21
I14518
sS'TAAGGA'
p22
I20841
sS'GTCAAA'
p23
I16566
sS'GTCAAC'
p24
I11394
sS'GTCAAG'
p25
I16323
sS'CTGTCC'
p26
I37220
sS'TCAGAG'
p27
I40417
sS'CTGTCA'
p28
I28263
sS'CTGTCG'
p29
I9596
sS'GTATCT'
p30
I12544
sS'CTGTGC'
p31
I37496
sS'TCAGAA'
p32
I35569
sS'GTCAAT'
p33
I10421
sS'GTATCA'
p34
I9210
sS'GTATCC'
p35
I8709
sS'GTATCG'
p36
I2040
sS'GCCCTG'
p37
I58860
sS'GGTGTC'
p38
I20660
sS'GGTGTA'
p39
I10132
sS'GGTGTG'
p40
I32853
sS'TATCCT'
p41
I14664
sS'CCGGGG'
p42
I38760
sS'TTCTGT'
p43
I38186
sS'ATTCCT'
p44
I31676
sS'CCGGGC'
p45
I43195
sS'CCGGGA'
p46
I30348
sS'TATCCA'
p47
I13390
sS'TATCCC'
p48
I12288
sS'TGGTTG'
p49
I20482
sS'TATCCG'
p50
I2987
sS'GGTGTT'
p51
I19260
sS'ATTCCG'
p52
I6165
sS'TTCTGG'
p53
I40187
sS'CCGGGT'
p54
I18707
sS'ATTCCC'
p55
I24682
sS'TTCTGC'
p56
I35299
sS'ATTCCA'
p57
I31261
sS'TTCTGA'
p58
I35550
sS'TGCACT'
p59
I24953
sS'GGNCCC'
p60
I1
sS'GGNCCG'
p61
I1
sS'CGTCAT'
p62
I6192
sS'GTTCTC'
p63
I23373
sS'CCCGCG'
p64
I32096
sS'CGCGGG'
p65
I32084
sS'NCCGCC'
p66
I1
sS'CGCGGC'
p67
I34116
sS'CGCGGA'
p68
I14492
sS'ACAGGT'
p69
I21652
sS'ACCTGT'
p70
I21639
sS'TCATGT'
p71
I20252
sS'CTCCGA'
p72
I12189
sS'TTACAG'
p73
I28431
sS'CTCCGC'
p74
I32509
sS'TTACAA'
p75
I20443
sS'TTACAC'
p76
I14251
sS'CTCCGG'
p77
I25383
sS'TCATGC'
p78
I19713
sS'ACCTGG'
p79
I36882
sS'TCATGA'
p80
I20404
sS'TCATGG'
p81
I21711
sS'ACCTGC'
p82
I30132
sS'GCGCNN'
p83
I1
sS'ACCTGA'
p84
I22940
sS'AGAGGG'
p85
I53455
sS'CTCGAT'
p86
I4397
sS'CTCCGT'
p87
I13205
sS'GAATTT'
p88
I27904
sS'GCCTGA'
p89
I32901
sS'GCCTGC'
p90
I46495
sS'GCCTGG'
p91
I73506
sS'TCTTGC'
p92
I24976
sS'TAAAGG'
p93
I21737
sS'CAAATT'
p94
I23256
sS'TAAAGA'
p95
I25093
sS'TAAAGC'
p96
I17948
sS'GCCTGT'
p97
I36216
sS'TCCCCG'
p98
I30355
sS'TAAAGT'
p99
I19517
sS'CAAATA'
p100
I27417
sS'ACGTCC'
p101
I8188
sS'CAAATC'
p102
I20627
sS'TGCAAT'
p103
I19378
sS'CAAATG'
p104
I28682
sS'AATACT'
p105
I16825
sS'CGTCAC'
p106
I9888
sS'CCGGCG'
p107
I26093
sS'GGCATG'
p108
I24963
sS'GGCATA'
p109
I10535
sS'GGCATC'
p110
I19356
sS'AATACG'
p111
I4073
sS'AATACA'
p112
I23687
sS'AATACC'
p113
I12410
sS'GGCATT'
p114
I21316
sS'TATCTG'
p115
I18054
sS'TGCTTA'
p116
I18832
sS'GAGCAC'
p117
I22197
sS'ACTGAT'
p118
I16215
sS'GAGCAG'
p119
I45310
sS'AGTAGT'
p120
I12032
sS'TCTCGC'
p121
I12721
sS'CGTGTC'
p122
I9073
sS'TCTCGA'
p123
I7103
sS'TCTCGG'
p124
I14870
sS'ACTGAG'
p125
I32671
sS'AGTAGA'
p126
I17817
sS'AGTAGG'
p127
I17129
sS'GAGCAT'
p128
I17462
sS'ACGGCC'
p129
I12487
sS'ATACAG'
p130
I17210
sS'GTGTCG'
p131
I6016
sS'TCGAAC'
p132
I4860
sS'TCGAAA'
p133
I4581
sS'GTGTCC'
p134
I24446
sS'TCGAAG'
p135
I5573
sS'GTGTCA'
p136
I20091
sS'CTTGCT'
p137
I32067
sS'CCGTCT'
p138
I13298
sS'CCACAA'
p139
I25475
sS'GTGTCT'
p140
I27399
sS'TTGAAG'
p141
I23368
sS'TCGAAT'
p142
I3931
sS'CTTGCG'
p143
I8232
sS'CTTGCA'
p144
I23422
sS'CTTGCC'
p145
I28407
sS'CGAAAG'
p146
I7694
sS'CGAAAA'
p147
I6463
sS'CGAAAC'
p148
I5864
sS'AATCAT'
p149
I20806
sS'AAATGC'
p150
I30335
sS'CACGGC'
p151
I15253
sS'AAATGA'
p152
I40568
sS'AAATGG'
p153
I32093
sS'CACGGG'
p154
I14258
sS'ACAGTA'
p155
I17140
sS'CGAAAT'
p156
I4900
sS'ACAGTT'
p157
I22111
sS'AATCAG'
p158
I24315
sS'AATCAA'
p159
I19691
sS'AAATGT'
p160
I36968
sS'AATCAC'
p161
I20529
sS'TTTGTA'
p162
I26492
sS'GCTCAA'
p163
I20189
sS'TCTAGT'
p164
I15077
sS'TTGCCG'
p165
I7618
sS'TTGCCA'
p166
I26261
sS'GGGTAT'
p167
I9385
sS'TTGCCT'
p168
I29504
sS'TCTAGG'
p169
I19801
sS'ATACGC'
p170
I2656
sS'TCTAGA'
p171
I18187
sS'GGGTAG'
p172
I17039
sS'TCTAGC'
p173
I14602
sS'ATACGG'
p174
I3150
sS'ATACAT'
p175
I16166
sS'TGGGCC'
p176
I38503
sS'AGATGT'
p177
I21773
sS'TCGCCC'
p178
I17757
sS'AGNNNN'
p179
I1
sS'TCGCCA'
p180
I9538
sS'ATAGTC'
p181
I8635
sS'TCGCCG'
p182
I10944
sS'GGTAAT'
p183
I10807
sS'ACCCAT'
p184
I16222
sS'CGTCAG'
p185
I9936
sS'ACCCAC'
p186
I27590
sS'GGTAAC'
p187
I10545
sS'ACCCAA'
p188
I21104
sS'AGATGG'
p189
I33690
sS'ACCCAG'
p190
I44395
sS'GGTAAG'
p191
I14414
sS'TCGCCT'
p192
I12112
sS'AGATGC'
p193
I21936
sS'CCCCAT'
p194
I29773
sS'TTGGGT'
p195
I21089
sS'CACTAG'
p196
I16127
sS'CACTAA'
p197
I14087
sS'CACTAC'
p198
I11800
sS'CCCCAA'
p199
I35713
sS'CCCCAC'
p200
I56315
sS'CCCCAG'
p201
I69411
sS'CACTAT'
p202
I11562
sS'TTGGGG'
p203
I35706
sS'TCGGTT'
p204
I5837
sS'TTGGGA'
p205
I33773
sS'TTGGGC'
p206
I23605
sS'TGCCTG'
p207
I51579
sS'GTGGGT'
p208
I27588
sS'TTTCTG'
p209
I49837
sS'TGCAGC'
p210
I41300
sS'TTTCTA'
p211
I29583
sS'TTTCTC'
p212
I49902
sS'TGCAGG'
p213
I44173
sS'GGGTCA'
p214
I23714
sS'TGNNNN'
p215
I1
sS'TCAGAC'
p216
I22064
sS'TTTCTT'
p217
I62976
sS'ACGTGC'
p218
I9548
sS'TGCCTT'
p219
I35373
sS'TGCAGT'
p220
I35277
sS'TAGTGC'
p221
I10404
sS'AAGGAA'
p222
I52844
sS'AAGGAC'
p223
I23101
sS'AAGGAG'
p224
I45281
sS'ATATGC'
p225
I10867
sS'ATATGA'
p226
I14746
sS'TACGAA'
p227
I3369
sS'ATATGG'
p228
I11608
sS'AAGGAT'
p229
I21591
sS'AGGGCC'
p230
I40901
sS'TGGTTT'
p231
I31013
sS'TGTGTC'
p232
I28105
sS'ATATGT'
p233
I15786
sS'GGTCCC'
p234
I31221
sS'GCCCAG'
p235
I70210
sS'ATGCAG'
p236
I26681
sS'GCCCAA'
p237
I23616
sS'GGTCCG'
p238
I10989
sS'GCCCAC'
p239
I33337
sS'ATGGCG'
p240
I11268
sS'AGACCC'
p241
I26628
sS'ATTGTT'
p242
I20703
sS'CTTCGA'
p243
I5573
sS'CTTCGC'
p244
I10536
sS'ATGCAA'
p245
I20700
sS'GCCCAT'
p246
I19328
sS'AGGTCA'
p247
I30161
sS'TCCGGC'
p248
I17617
sS'GGTCCT'
p249
I24539
sS'TCCGGA'
p250
I11851
sS'CTTAGC'
p251
I15837
sS'ATTGTG'
p252
I18698
sS'CTTAGA'
p253
I17625
sS'ATGCAC'
p254
I16283
sS'CTTAGG'
p255
I17884
sS'ATTGTC'
p256
I13113
sS'ATTGTA'
p257
I13375
sS'CGCTAC'
p258
I5045
sS'ATTTTG'
p259
I31402
sS'GAGGTG'
p260
I40660
sS'ATTTTA'
p261
I39378
sS'TAAATT'
p262
I25237
sS'ATTTTC'
p263
I36145
sS'GAGGTC'
p264
I26189
sS'TAGCAG'
p265
I18439
sS'GATACT'
p266
I9895
sS'TAGCAC'
p267
I12584
sS'TAGCAA'
p268
I16595
sS'GAGGTT'
p269
I24378
sS'ATTTTT'
p270
I58647
sS'GCCTTG'
p271
I31510
sS'GTGGGG'
p272
I56309
sS'GCCTTA'
p273
I14514
sS'TTGACA'
p274
I17280
sS'GCCTTC'
p275
I34189
sS'GATACG'
p276
I2855
sS'TAGCAT'
p277
I12812
sS'CTGTCT'
p278
I41697
sS'GATACC'
p279
I7675
sS'GATACA'
p280
I12057
sS'TGAGCT'
p281
I32588
sS'ACGGAC'
p282
I6016
sS'GATCAT'
p283
I12372
sS'TACCGG'
p284
I4650
sS'TGGCAC'
p285
I25911
sS'AAGACA'
p286
I30408
sS'AAGACC'
p287
I20191
sS'GATTTA'
p288
I16758
sS'AAGACG'
p289
I8518
sS'GATCAG'
p290
I15699
sS'TGAGCG'
p291
I11936
sS'CTCGAG'
p292
I9761
sS'TGAGCA'
p293
I30477
sS'TGAGCC'
p294
I38749
sS'CGGGGA'
p295
I30351
sS'AAGACT'
p296
I22609
sS'GCGGTC'
p297
I10786
sS'GCGGTA'
p298
I4923
sS'CGTGCA'
p299
I9874
sS'GCGGTG'
p300
I21618
sS'CTATCG'
p301
I2407
sS'CGGTGT'
p302
I8568
sS'TCGTTA'
p303
I3251
sS'TCGTTC'
p304
I5589
sS'CTTCCC'
p305
I61592
sS'TCGTTG'
p306
I4684
sS'GCGGTT'
p307
I8114
sS'AGTAAA'
p308
I25896
sS'ATGTGA'
p309
I24336
sS'ACTTGA'
p310
I20585
sS'CGGTGG'
p311
I19840
sS'TCGTTT'
p312
I7466
sS'CGGTGA'
p313
I11264
sS'CCGTTA'
p314
I3831
sS'CGGTGC'
p315
I14412
sS'TGCCGC'
p316
I17429
sS'TTCCTA'
p317
I24650
sS'TAGACT'
p318
I11914
sS'TTCCTC'
p319
I51270
sS'ACTGAC'
p320
I19231
sS'CTTCCG'
p321
I17593
sS'TTCCTG'
p322
I57422
sS'TCCTTT'
p323
I44278
sS'GACCCA'
p324
I24318
sS'ACGCTA'
p325
I3576
sS'TAGACG'
p326
I3883
sS'TTCCTT'
p327
I52839
sS'TAGACC'
p328
I9234
sS'TAGACA'
p329
I14950
sS'TCCTTG'
p330
I32646
sS'TCCTTA'
p331
I20805
sS'TCCTTC'
p332
I45000
sS'AGTCAG'
p333
I31795
sS'ACCGTT'
p334
I4636
sS'TGGCGC'
p335
I19305
sS'TGGCGA'
p336
I9536
sS'GGCCAT'
p337
I20436
sS'ATCTCG'
p338
I7083
sS'ATCTCA'
p339
I25323
sS'ATCTCC'
p340
I24852
sS'GGCCAA'
p341
I29263
sS'ACGGAG'
p342
I13201
sS'GGCCAC'
p343
I37448
sS'ACCGTG'
p344
I9564
sS'ACCGTA'
p345
I3285
sS'GGCCAG'
p346
I56339
sS'ACCGTC'
p347
I6410
sS'ACTGAA'
p348
I27751
sS'AGAATT'
p349
I27973
sS'NGATCC'
p350
I1
sS'GGCAGT'
p351
I29814
sS'CCATAA'
p352
I13322
sS'CAAAGG'
p353
I34282
sS'CCATAC'
p354
I9057
sS'CTAACT'
p355
I13550
sS'AGATTC'
p356
I19661
sS'CAAAGC'
p357
I31105
sS'CAACGT'
p358
I5942
sS'GGCAGA'
p359
I45087
sS'GGCAGC'
p360
I54125
sS'TAAGTT'
p361
I14610
sS'GGCAGG'
p362
I68712
sS'CAACGC'
p363
I7163
sS'CTAACA'
p364
I15239
sS'CAACGA'
p365
I4684
sS'GCACTC'
p366
I22814
sS'CCATAT'
p367
I11619
sS'GCACTG'
p368
I31207
sS'GGGGGT'
p369
I31317
sS'TACGCT'
p370
I3329
sS'GAAACC'
p371
I26885
sS'CGATCT'
p372
I5971
sS'NNNNNC'
p373
I3
sS'CTCTAG'
p374
I21833
sS'CTCTAA'
p375
I19041
sS'CTCTAC'
p376
I18190
sS'GGGGGG'
p377
I33506
sS'TACGCA'
p378
I3900
sS'TACGCC'
p379
I4039
sS'GGGGGC'
p380
I55453
sS'CGATCG'
p381
I2042
sS'GGGGGA'
p382
I43441
sS'TACGCG'
p383
I2435
sS'CTCTAT'
p384
I14517
sS'CAGACC'
p385
I27230
sS'CAGACA'
p386
I36873
sS'CAGACG'
p387
I12002
sS'ACGTGA'
p388
I9656
sS'TAGTTG'
p389
I11202
sS'GCTAAT'
p390
I13084
sS'TAGTTC'
p391
I12088
sS'TAGTTA'
p392
I10826
sS'CAGACT'
p393
I27068
sS'GCTAAG'
p394
I15853
sS'TAGTTT'
p395
I19097
sS'GCTAAC'
p396
I9731
sS'GCTAAA'
p397
I15589
sS'TGCATT'
p398
I26676
sS'TGCTGC'
p399
I43717
sS'AACCCT'
p400
I23221
sS'GTCCAC'
p401
I17717
sS'AACCCC'
p402
I25082
sS'AACCCA'
p403
I26257
sS'TGCATA'
p404
I14464
sS'TTTCCG'
p405
I11377
sS'TGCATC'
p406
I18009
sS'AGAATA'
p407
I20304
sS'CTACAA'
p408
I15982
sS'CTACAC'
p409
I12602
sS'AACGTT'
p410
I6188
sS'AGTTTA'
p411
I19674
sS'CCCAGA'
p412
I51994
sS'CCCAGC'
p413
I81061
sS'AGAATC'
p414
I21946
sS'CCCAGG'
p415
I83263
sS'AACTGT'
p416
I22115
sS'AGTTTT'
p417
I31895
sS'CTACAT'
p418
I13077
sS'AGTCAA'
p419
I18737
sS'CCCAGT'
p420
I35382
sS'CGCATA'
p421
I2689
sS'ATACTG'
p422
I14182
sS'CGCATC'
p423
I6740
sS'ATACTA'
p424
I8821
sS'ATACTC'
p425
I9904
sS'CGCATG'
p426
I8141
sS'GCGCAA'
p427
I7182
sS'GCGAAT'
p428
I4058
sS'ACTTGC'
p429
I18763
sS'ATACTT'
p430
I15142
sS'CGCATT'
p431
I5593
sS'GCGCAC'
p432
I14589
sS'GCTCCG'
p433
I26383
sS'TATTGT'
p434
I15418
sS'GCTCCC'
p435
I49863
sS'GCTCCA'
p436
I36529
sS'CCTACT'
p437
I17121
sS'TGTACT'
p438
I14464
sS'TTTAGT'
p439
I19477
sS'TATTGG'
p440
I12035
sS'GCTCCT'
p441
I43134
sS'AGGCCG'
p442
I25261
sS'TATTGA'
p443
I13403
sS'TTTAGG'
p444
I19408
sS'TGTACG'
p445
I3551
sS'CCTACG'
p446
I5475
sS'TGTACA'
p447
I16821
sS'CCTACA'
p448
I15923
sS'ACAGTG'
p449
I31655
sS'CCTACC'
p450
I18694
sS'TTCGCG'
p451
I4950
sS'TTCGCA'
p452
I5312
sS'TTCGCC'
p453
I8847
sS'AGTATC'
p454
I9894
sS'GACTAA'
p455
I12919
sS'AGTATA'
p456
I9671
sS'TTTGGG'
p457
I36580
sS'AGTATG'
p458
I11660
sS'TTTGGA'
p459
I30629
sS'GACTAG'
p460
I10837
sS'TTCGCT'
p461
I7556
sS'GATCNN'
p462
I1
sS'TTTGGT'
p463
I23348
sS'GCCACA'
p464
I33909
sS'GACTAT'
p465
I8635
sS'AGTTTG'
p466
I25252
sS'AGTATT'
p467
I16826
sS'TTACTC'
p468
I16815
sS'TTACTA'
p469
I13006
sS'TTACTG'
p470
I20555
sS'ACCTTG'
p471
I23293
sS'ACCTTC'
p472
I23527
sS'ACCTTA'
p473
I12350
sS'TTACTT'
p474
I22971
sS'ACGCTT'
p475
I6448
sS'ACCTTT'
p476
I23277
sS'ACAGGG'
p477
I35732
sS'CTGGGA'
p478
I67624
sS'CTGGGC'
p479
I70174
sS'ACAGGC'
p480
I36271
sS'TTATAT'
p481
I17307
sS'CTGGGG'
p482
I69402
sS'AGGACG'
p483
I12996
sS'GCAGCT'
p484
I43919
sS'CAGGAA'
p485
I57449
sS'TCGCTT'
p486
I8864
sS'CAGGAG'
p487
I64852
sS'AGGACA'
p488
I32824
sS'GCGCAT'
p489
I7534
sS'TTATAC'
p490
I9490
sS'TTATAA'
p491
I19407
sS'CTGGGT'
p492
I44392
sS'TTATAG'
p493
I12223
sS'TCGCTG'
p494
I13294
sS'GCAGCG'
p495
I27641
sS'AGGACT'
p496
I26730
sS'GCAGCA'
p497
I43707
sS'TCGCTA'
p498
I3738
sS'CAGGAT'
p499
I28540
sS'CCTCAG'
p500
I54206
sS'CCTCAA'
p501
I25964
sS'CCTCAC'
p502
I35472
sS'TATGTT'
p503
I16853
sS'ATGGGC'
p504
I19321
sS'TCTTTG'
p505
I33519
sS'ATGGGA'
p506
I26402
sS'TCTTTA'
p507
I25074
sS'ATGGGG'
p508
I29783
sS'TCTTTC'
p509
I42455
sS'CCTCAT'
p510
I26664
sS'TCTTTT'
p511
I48760
sS'TATGTG'
p512
I18745
sS'TATGTA'
p513
I14984
sS'ATGGGT'
p514
I16211
sS'TATGTC'
p515
I10918
sS'GAAAGA'
p516
I42464
sS'ATCAAG'
p517
I15746
sS'CATGAT'
p518
I16351
sS'ATCAAC'
p519
I11167
sS'GAAAGG'
p520
I41796
sS'ATCAAA'
p521
I20824
sS'TCGTGG'
p522
I9321
sS'CGCTAG'
p523
I6203
sS'ACGTGG'
p524
I14031
sS'AGTTTC'
p525
I28809
sS'CATGAG'
p526
I24289
sS'ATCAAT'
p527
I11645
sS'GTCCAA'
p528
I15029
sS'CATGAC'
p529
I18411
sS'CATGAA'
p530
I23048
sS'GTAGCG'
p531
I5045
sS'CAAGTT'
p532
I21476
sS'GCTTTG'
p533
I31085
sS'GTAGCC'
p534
I12882
sS'GCTTTC'
p535
I29804
sS'AGCGGT'
p536
I8274
sS'AAAGTA'
p537
I23229
sS'GCTTTT'
p538
I32751
sS'TGCCAG'
p539
I40806
sS'GTAGCT'
p540
I16369
sS'TTCTTT'
p541
I57924
sS'GCGGCC'
p542
I40492
sS'CAAGTC'
p543
I21259
sS'GCGGCA'
p544
I17433
sS'CAAGTA'
p545
I15380
sS'AACGGT'
p546
I4636
sS'CGTACG'
p547
I1669
sS'TAATCG'
p548
I2589
sS'GGTCTT'
p549
I20190
sS'TAATCA'
p550
I15173
sS'TAATCC'
p551
I18115
sS'TGCGAA'
p552
I5320
sS'CGGCCC'
p553
I37393
sS'CGACTA'
p554
I2694
sS'AAAATT'
p555
I39187
sS'CGGCCG'
p556
I30363
sS'TCGTGA'
p557
I5806
sS'CTTGTA'
p558
I14585
sS'GGTCTG'
p559
I27241
sS'TAATCT'
p560
I15546
sS'GGTCTC'
p561
I28161
sS'GGTCTA'
p562
I9224
sS'AAAATG'
p563
I46746
sS'AAAATC'
p564
I28336
sS'CGGCCT'
p565
I25276
sS'TTCAGC'
p566
I28839
sS'ATCCCT'
p567
I24006
sS'TTCAGG'
p568
I32139
sS'ATATCC'
p569
I10934
sS'TCGTCG'
p570
I3214
sS'TTTAGC'
p571
I15589
sS'TGTTTT'
p572
I52216
sS'GAACAA'
p573
I22244
sS'ATCCCG'
p574
I9727
sS'GAACAC'
p575
I18415
sS'ATCCCC'
p576
I23122
sS'GAACAG'
p577
I26147
sS'TTTGAG'
p578
I32980
sS'GCACTT'
p579
I25356
sS'AACGGA'
p580
I7020
sS'CACCAC'
p581
I34584
sS'NNNCTG'
p582
I1
sS'CACCAA'
p583
I23231
sS'AAGCAC'
p584
I23285
sS'CACCAG'
p585
I38602
sS'AACATT'
p586
I26918
sS'TCGTGC'
p587
I6461
sS'TCCGTC'
p588
I9877
sS'GAGTTA'
p589
I13978
sS'TCCGTA'
p590
I4011
sS'ACCAGA'
p591
I25638
sS'ACGCGA'
p592
I4068
sS'CACCAT'
p593
I23778
sS'AACATG'
p594
I22708
sS'AACATA'
p595
I16855
sS'AACATC'
p596
I17978
sS'GTCAGN'
p597
I1
sS'TCAGCA'
p598
I35130
sS'GCACGG'
p599
I13202
sS'GTCAGA'
p600
I24111
sS'GCACGA'
p601
I6455
sS'GTCAGG'
p602
I31268
sS'GCACGC'
p603
I13645
sS'CAGTCA'
p604
I26982
sS'GCAAGC'
p605
I20214
sS'GCACGT'
p606
I9544
sS'CAGTCT'
p607
I28506
sS'GCAAGG'
p608
I28218
sS'GTCAGT'
p609
I19234
sS'GTATAC'
p610
I5666
sS'TTCCGT'
p611
I8476
sS'GTATAA'
p612
I9498
sS'GTATAG'
p613
I6254
sS'CCGGAA'
p614
I15291
sS'CCGGAC'
p615
I12553
sS'CCGGAG'
p616
I25398
sS'TATCAT'
p617
I12380
sS'CTCGTA'
p618
I3360
sS'TTCCGG'
p619
I15285
sS'TTCCGA'
p620
I7174
sS'TTCCGC'
p621
I12714
sS'GTATAT'
p622
I10182
sS'CGTCTC'
p623
I14585
sS'CGTCTA'
p624
I3882
sS'CGTCTG'
p625
I11998
sS'CCGGAT'
p626
I7416
sS'CTCTTC'
p627
I41775
sS'TGTTAT'
p628
I16709
sS'CTCTTA'
p629
I19274
sS'CTCTTG'
p630
I30648
sS'AGGGCT'
p631
I41675
sS'TACGTA'
p632
I3319
sS'TACGTC'
p633
I3390
sS'TCTGGT'
p634
I25635
sS'CGCGAT'
p635
I4421
sS'TACGTG'
p636
I5617
sS'GCCGTT'
p637
I7178
sS'TGTTAG'
p638
I15257
sS'GGTTTC'
p639
I26900
sS'CTCGTG'
p640
I9597
sS'CTCTTT'
p641
I40427
sS'ACCGAC'
p642
I5405
sS'TCTGGG'
p643
I51964
sS'CGCGAC'
p644
I7347
sS'CCCTGC'
p645
I62289
sS'TCTGGC'
p646
I35441
sS'TACGTT'
p647
I3988
sS'TCTGGA'
p648
I37234
sS'AGTCGT'
p649
I4784
sS'GGCTCC'
p650
I52150
sS'CTCCAT'
p651
I29105
sS'ACTAGA'
p652
I15080
sS'TATGCC'
p653
I10552
sS'TTACCG'
p654
I4388
sS'CTCCAC'
p655
I39872
sS'AGTCGG'
p656
I8872
sS'TTACCC'
p657
I14377
sS'CTCCAG'
p658
I63508
sS'TTACCA'
p659
I16328
sS'AGTCGC'
p660
I7543
sS'GTACCG'
p661
I3506
sS'CCGACT'
p662
I8872
sS'GCCTAC'
p663
I11845
sS'GCCTAA'
p664
I12644
sS'CCGAGG'
p665
I27057
sS'GCCTAG'
p666
I18337
sS'GTGCGG'
p667
I15177
sS'CCGACA'
p668
I7248
sS'GATATC'
p669
I7271
sS'CCGACC'
p670
I12078
sS'CCGACG'
p671
I6701
sS'AAGCTC'
p672
I24116
sS'GCCTAT'
p673
I10368
sS'TGACGG'
p674
I7748
sS'ACGCTC'
p675
I8645
sS'CCCGAG'
p676
I23988
sS'CTCGTT'
p677
I6667
sS'TCAGCG'
p678
I12796
sS'GCTGTC'
p679
I27699
sS'CGTCCT'
p680
I12994
sS'CGCACA'
p681
I11731
sS'ATACAC'
p682
I14162
sS'CGCACC'
p683
I14293
sS'ATACAA'
p684
I17658
sS'ACTGCT'
p685
I27450
sS'TTTGTT'
p686
I48099
sS'CGCACG'
p687
I9631
sS'GGGTCC'
p688
I28722
sS'CTCACT'
p689
I37094
sS'GGGTCT'
p690
I26624
sS'ACTGCA'
p691
I35241
sS'TTTGTC'
p692
I24738
sS'ACTGCC'
p693
I29822
sS'CGCACT'
p694
I9152
sS'TTTGTG'
p695
I32749
sS'ACTGCG'
p696
I11560
sS'CTCACC'
p697
I36929
sS'CTCACA'
p698
I33625
sS'CTCACG'
p699
I13289
sS'TAGTGG'
p700
I16140
sS'GTGAGG'
p701
I35478
sS'GATTTT'
p702
I28337
sS'ACAATT'
p703
I17657
sS'GTGAGC'
p704
I30545
sS'TAGTGA'
p705
I14749
sS'GTGAGA'
p706
I27539
sS'TCGACG'
p707
I2211
sS'TCGACA'
p708
I3297
sS'TCGACC'
p709
I4395
sS'GATTTG'
p710
I20619
sS'GTGAGT'
p711
I27497
sS'TAGTGT'
p712
I12280
sS'GTGGGA'
p713
I38328
sS'ACAATG'
p714
I20212
sS'TCGACT'
p715
I3849
sS'GTGGGN'
p716
I1
sS'CTGGTT'
p717
I26814
sS'TGCAAA'
p718
I32517
sS'CGAACG'
p719
I3352
sS'GCGTCA'
p720
I8500
sS'CGAACC'
p721
I6092
sS'CGAACA'
p722
I4686
sS'CGGNCC'
p723
I1
sS'CTGGTG'
p724
I38585
sS'CTGGTA'
p725
I15836
sS'CTGGTC'
p726
I27808
sS'CGTCCG'
p727
I8286
sS'CTGCAA'
p728
I31629
sS'CGAACT'
p729
I6231
sS'TTGCAT'
p730
I20704
sS'GACGAG'
p731
I8588
sS'NNGAAT'
p732
I5
sS'TTGCAG'
p733
I31655
sS'TCCATA'
p734
I12800
sS'TTGCAC'
p735
I17492
sS'TTGCAA'
p736
I22811
sS'GGGNNN'
p737
I1
sS'AAGATC'
p738
I15736
sS'ACGTAC'
p739
I3359
sS'GAGGGC'
p740
I47477
sS'ATTGCG'
p741
I4189
sS'TCGCAT'
p742
I3683
sS'GAGCGG'
p743
I23322
sS'GTCGTG'
p744
I6088
sS'GTCGTA'
p745
I2347
sS'GTCGTC'
p746
I5508
sS'CCGTTT'
p747
I9165
sS'GAGCAA'
p748
I26057
sS'GCCTCG'
p749
I23339
sS'ATATCG'
p750
I2000
sS'GTCGTT'
p751
I4276
sS'TCAGAT'
p752
I22682
sS'TCGCAG'
p753
I11104
sS'GTGCTC'
p754
I22188
sS'CCAAGC'
p755
I29703
sS'TCGCAC'
p756
I5935
sS'CCGTTG'
p757
I6229
sS'CGCTGC'
p758
I27651
sS'CCGTTC'
p759
I8107
sS'GATCGG'
p760
I4631
sS'AATGCT'
p761
I24006
sS'GGTACG'
p762
I3391
sS'GGTACA'
p763
I10995
sS'TCCAGG'
p764
I52594
sS'GGTACC'
p765
I9369
sS'TATTTG'
p766
I27432
sS'CAGGGA'
p767
I56761
sS'TATTTC'
p768
I27495
sS'TATTTA'
p769
I32773
sS'CCCCCT'
p770
I44268
sS'GGTACT'
p771
I10003
sS'AATGCG'
p772
I5594
sS'AATGCC'
p773
I21315
sS'AATGCA'
p774
I26648
sS'CCCCCC'
p775
I33515
sS'CCCCCA'
p776
I52664
sS'TATTTT'
p777
I51423
sS'CCCCCG'
p778
I33186
sS'CTTGAG'
p779
I28313
sS'ATGATG'
p780
I20355
sS'ATGATA'
p781
I12377
sS'ATGATC'
p782
I12362
sS'TGCAAC'
p783
I17378
sS'TTGAGT'
p784
I20077
sS'TGCAAG'
p785
I23451
sS'GCCGTC'
p786
I11864
sS'ATGATT'
p787
I20807
sS'CTTGAT'
p788
I15749
sS'CGAATC'
p789
I4476
sS'TTGAGG'
p790
I25968
sS'AATCTC'
p791
I20828
sS'CAATGT'
p792
I16649
sS'TTGAGC'
p793
I20190
sS'TTGAGA'
p794
I28894
sS'GAGAAT'
p795
I25658
sS'TGTCTT'
p796
I30430
sS'AGTAGC'
p797
I16182
sS'AAGGCC'
p798
I30713
sS'ATAACC'
p799
I10764
sS'AAGGCA'
p800
I35345
sS'ATAACA'
p801
I16701
sS'AAGGCG'
p802
I15074
sS'ATAACG'
p803
I3356
sS'TGTGGT'
p804
I28390
sS'TGTCTG'
p805
I36888
sS'GAGAAG'
p806
I45550
sS'GAGAAA'
p807
I49896
sS'TGTCTC'
p808
I34075
sS'GAGAAC'
p809
I23373
sS'TCACAC'
p810
I26430
sS'TGTGGC'
p811
I33927
sS'TGTGGA'
p812
I29848
sS'TGTGGG'
p813
I39815
sS'ATAACT'
p814
I14379
sS'AAGGCT'
p815
I30888
sS'TAGGCT'
p816
I15658
sS'AACGGC'
p817
I7180
sS'AGGTAT'
p818
I11995
sS'ACCAAG'
p819
I23186
sS'GGTCAG'
p820
I30894
sS'GCCCCC'
p821
I55459
sS'GGTCAA'
p822
I14372
sS'ACCAAC'
p823
I15377
sS'GGTCAC'
p824
I22504
sS'GATCGC'
p825
I6424
sS'GGTCAT'
p826
I15292
sS'ACCAAT'
p827
I13721
sS'GCCCCT'
p828
I48192
sS'AGGTAA'
p829
I17666
sS'CAAACT'
p830
I25263
sS'TTTTGC'
p831
I28100
sS'TCTTAC'
p832
I15030
sS'AATTGG'
p833
I14524
sS'TCTTAA'
p834
I21842
sS'AATTGA'
p835
I15120
sS'TCTTAG'
p836
I18034
sS'AATTGC'
p837
I15703
sS'TAGCCA'
p838
I17694
sS'TGGGGT'
p839
I35290
sS'TAGCCC'
p840
I14384
sS'GATAAT'
p841
I12735
sS'CGCTCA'
p842
I11937
sS'TAGCCG'
p843
I5997
sS'AATTGT'
p844
I17649
sS'CGAGAG'
p845
I13548
sS'AATCTT'
p846
I20934
sS'TCTTAT'
p847
I16713
sS'TTTTGT'
p848
I44276
sS'CGCTCT'
p849
I16532
sS'TGGGGG'
p850
I52712
sS'GATAAC'
p851
I8964
sS'TAGCCT'
p852
I16128
sS'TGGGGC'
p853
I49539
sS'TGGGGA'
p854
I53764
sS'CTCTCA'
p855
I33296
sS'CATTTA'
p856
I27242
sS'GATCCT'
p857
I18474
sS'AAGAAT'
p858
I29429
sS'TGTCTA'
p859
I14959
sS'CGAAGT'
p860
I6248
sS'GTTATC'
p861
I8960
sS'AAGAAC'
p862
I23442
sS'GATCCA'
p863
I15507
sS'AAGAAA'
p864
I63016
sS'ATGCCA'
p865
I24161
sS'AAGAAG'
p866
I37760
sS'GATCCG'
p867
I7499
sS'ATGCCG'
p868
I6283
sS'GCAACG'
p869
I7002
sS'CAAGGG'
p870
I29763
sS'CAAGGC'
p871
I31515
sS'GGTTCT'
p872
I22287
sS'CAAGGA'
p873
I32642
sS'GGCGCN'
p874
I1
sS'GGTTCA'
p875
I18018
sS'CAGGGC'
p876
I58880
sS'CAAGGT'
p877
I23303
sS'GGTTCG'
p878
I6084
sS'TAGGCA'
p879
I17057
sS'ATTATA'
p880
I15304
sS'ATTATC'
p881
I12727
sS'TAGAAT'
p882
I17597
sS'CAAACG'
p883
I7916
sS'ATTATG'
p884
I13937
sS'AGTCTT'
p885
I22603
sS'TAGAAA'
p886
I29593
sS'TAGAAC'
p887
I12711
sS'ATTATT'
p888
I27053
sS'TAGAAG'
p889
I19628
sS'AGTCTA'
p890
I11903
sS'AGTCTC'
p891
I26590
sS'GTTCTG'
p892
I27167
sS'AGTCTG'
p893
I27081
sS'TAACTC'
p894
I13995
sS'TAACTA'
p895
I10833
sS'TAACTG'
p896
I17510
sS'ATCTAT'
p897
I11665
sS'ACGCGT'
p898
I3659
sS'GCCCCG'
p899
I51257
sS'NNNCAC'
p900
I1
sS'TAACTT'
p901
I18479
sS'ATCTAG'
p902
I12742
sS'ATCTAC'
p903
I10362
sS'ATCTAA'
p904
I13414
sS'CCATGT'
p905
I23409
sS'ACCAAA'
p906
I23352
sS'TGGAGG'
p907
I51865
sS'TGGAGA'
p908
I43566
sS'TGGAGC'
p909
I36529
sS'CCATGC'
p910
I21621
sS'TCCAGA'
p911
I37255
sS'CCATGA'
p912
I21714
sS'GCCCCA'
p913
I49527
sS'TGGAGT'
p914
I32006
sS'ATTACG'
p915
I3217
sS'TCAGTA'
p916
I17018
sS'TCAGTC'
p917
I22129
sS'CTCTCT'
p918
I57277
sS'GGGGAT'
p919
I23115
sS'TCAGTG'
p920
I30907
sS'CGATAT'
p921
I2002
sS'GGNNNN'
p922
I1
sS'GGGGAA'
p923
I45619
sS'GGGGAC'
p924
I34360
sS'CTCTCC'
p925
I58824
sS'TCAGTT'
p926
I25789
sS'GGGGAG'
p927
I71967
sS'CGATAG'
p928
I2407
sS'CGATAA'
p929
I2641
sS'TATCAA'
p930
I11756
sS'CTAAGG'
p931
I17670
sS'GTGTTT'
p932
I31403
sS'GCTACT'
p933
I16186
sS'GTGGTT'
p934
I22462
sS'GTGTTC'
p935
I18402
sS'GTGTTA'
p936
I13132
sS'GTGTTG'
p937
I20230
sS'CGTGCC'
p938
I13037
sS'GTGGTA'
p939
I12950
sS'GCTACA'
p940
I13758
sS'GTGGTC'
p941
I18379
sS'GCTACC'
p942
I12038
sS'GTGGTG'
p943
I34575
sS'GCTACG'
p944
I5041
sS'AGGTAG'
p945
I17472
sS'TTTCGT'
p946
I6144
sS'TGCCCT'
p947
I43026
sS'AGCGTT'
p948
I7157
sS'CGTGCG'
p949
I9626
sS'TGCCCC'
p950
I41486
sS'TGCCCA'
p951
I41035
sS'TGCCCG'
p952
I18835
sS'TTTCGG'
p953
I7472
sS'AGCGTA'
p954
I3326
sS'AGCGTC'
p955
I9843
sS'AGCGTG'
p956
I11329
sS'GGCCCC'
p957
I55544
sS'GGCCCA'
p958
I38483
sS'CACGTG'
p959
I17365
sS'GGCCCG'
p960
I32657
sS'CACGTA'
p961
I5617
sS'TGTACC'
p962
I11006
sS'CACGTC'
p963
I9948
sS'CTACGC'
p964
I4842
sS'CTACGA'
p965
I3611
sS'GGGACT'
p966
I30057
sS'ACAGTC'
p967
I19926
sS'CACGTT'
p968
I8710
sS'CTAAGT'
p969
I14880
sS'GNCCCA'
p970
I1
sS'GGCCCT'
p971
I40904
sS'GGGACA'
p972
I32151
sS'TTTTGG'
p973
I29451
sS'GGGACC'
p974
I31218
sS'TGACGA'
p975
I5000
sS'ACGTGT'
p976
I8390
sS'AGAGAG'
p977
I57290
sS'AGAGAA'
p978
I50418
sS'AGAGAC'
p979
I32495
sS'TCTATA'
p980
I10680
sS'GTCTTT'
p981
I25044
sS'TCTATC'
p982
I11266
sS'TCTATG'
p983
I13330
sS'AGAGAT'
p984
I28099
sS'ATGTGC'
p985
I18788
sS'GCAACA'
p986
I21894
sS'GTCTTG'
p987
I21177
sS'TCTATT'
p988
I18039
sS'GTCTTC'
p989
I22887
sS'GTCTTA'
p990
I12573
sS'GCAGAG'
p991
I55756
sS'CGATTG'
p992
I4125
sS'GCTCAC'
p993
I30517
sS'GCAGAC'
p994
I23863
sS'GCAGAA'
p995
I35318
sS'GCTCAG'
p996
I43199
sS'AGACGT'
p997
I7454
sS'ATGCGT'
p998
I5157
sS'TTGCTG'
p999
I34304
sS'TTGCTA'
p1000
I16581
sS'TTGCTC'
p1001
I26042
sS'GCAGAT'
p1002
I23134
sS'GCTCAT'
p1003
I19698
sS'GTTTGC'
p1004
I21830
sS'TTGCTT'
p1005
I33012
sS'CGATTC'
p1006
I5738
sS'CGCTCC'
p1007
I26355
sS'ATGCGC'
p1008
I7536
sS'ATGCGA'
p1009
I3683
sS'TGTAAG'
p1010
I16738
sS'GGCTAG'
p1011
I15547
sS'AAGCGT'
p1012
I6449
sS'TGTAAC'
p1013
I13982
sS'GGCTAC'
p1014
I12881
sS'TGTAAA'
p1015
I28362
sS'GGTATT'
p1016
I12411
sS'TTCGAG'
p1017
I7489
sS'TTGGTA'
p1018
I13149
sS'ACTGTC'
p1019
I19991
sS'TTGGTC'
p1020
I16518
sS'TTCGAC'
p1021
I3124
sS'TTCGAA'
p1022
I4973
sS'TTGGTG'
p1023
I23218
sS'GACTGC'
p1024
I21971
sS'GGCTAT'
p1025
I10441
sS'TGTAAT'
p1026
I23581
sS'GACTGG'
p1027
I27869
sS'TTCGAT'
p1028
I3334
sS'TTGGTT'
p1029
I22682
sS'ACTGTT'
p1030
I21765
sS'AACTTG'
p1031
I21468
sS'GTTTCT'
p1032
I35571
sS'AGGTCC'
p1033
I22548
sS'ATAATT'
p1034
I21291
sS'CCTTTT'
p1035
I39183
sS'GTTTCG'
p1036
I5862
sS'GTTTCC'
p1037
I33375
sS'GTTTCA'
p1038
I25152
sS'ATAATG'
p1039
I15994
sS'CCTTTA'
p1040
I21710
sS'CCTTTC'
p1041
I41779
sS'ATAATC'
p1042
I12366
sS'NNNNGA'
p1043
I5
sS'ATAATA'
p1044
I19381
sS'CCTTTG'
p1045
I34271
sS'ACAGAA'
p1046
I38216
sS'CTCTCG'
p1047
I13544
sS'ACAGAC'
p1048
I25983
sS'ACAGAG'
p1049
I45591
sS'TTATCT'
p1050
I21859
sS'CTGGAC'
p1051
I29455
sS'CTGGAA'
p1052
I47235
sS'CTGGAG'
p1053
I63492
sS'ACAGAT'
p1054
I24151
sS'GTGAAG'
p1055
I25286
sS'ACGTCT'
p1056
I7454
sS'GATAAG'
p1057
I12853
sS'TTATCA'
p1058
I16144
sS'CTGGAT'
p1059
I25208
sS'TTATCC'
p1060
I13116
sS'CCAATG'
p1061
I17240
sS'AAACCG'
p1062
I8026
sS'AAACCA'
p1063
I31002
sS'CCAATC'
p1064
I17101
sS'AAACCC'
p1065
I27421
sS'CCAATA'
p1066
I12037
sS'TGTCGG'
p1067
I7247
sS'GAGATC'
p1068
I17665
sS'CCCTAT'
p1069
I11825
sS'GAGATA'
p1070
I15662
sS'AACGAA'
p1071
I6282
sS'GAGATG'
p1072
I31236
sS'AACGAC'
p1073
I4278
sS'ATTTGA'
p1074
I24467
sS'CCAATT'
p1075
I14534
sS'ATTTGC'
p1076
I22666
sS'TTGCCC'
p1077
I27192
sS'ATTTGG'
p1078
I24826
sS'CCCTAG'
p1079
I21154
sS'TGTCGT'
p1080
I5033
sS'CCCTAC'
p1081
I17080
sS'GAGATT'
p1082
I20826
sS'CCCTAA'
p1083
I17448
sS'CATTAT'
p1084
I16005
sS'TGGATT'
p1085
I21882
sS'ATCACA'
p1086
I23350
sS'ATCACC'
p1087
I18355
sS'CATGCT'
p1088
I23077
sS'TGACAC'
p1089
I20104
sS'TGACAA'
p1090
I20961
sS'TGGATA'
p1091
I13375
sS'CATTAG'
p1092
I13586
sS'CATTAA'
p1093
I18121
sS'CATTAC'
p1094
I12347
sS'CATGCA'
p1095
I22876
sS'TGACAT'
p1096
I21492
sS'CAATCC'
p1097
I15661
sS'ATCACT'
p1098
I21314
sS'AATTAG'
p1099
I17130
sS'AACCTG'
p1100
I25489
sS'GTAGAA'
p1101
I15876
sS'GTAGAC'
p1102
I8803
sS'GTAGAG'
p1103
I18205
sS'ACAACA'
p1104
I22733
sS'ACAACC'
p1105
I15722
sS'GATTGC'
p1106
I12575
sS'GATTGA'
p1107
I11354
sS'ACTAAG'
p1108
I14208
sS'GTAGAT'
p1109
I10359
sS'TGCTAC'
p1110
I12741
sS'ATACGA'
p1111
I2573
sS'TGATGC'
p1112
I17137
sS'GATTGT'
p1113
I12684
sS'TTCAGT'
p1114
I27757
sS'ACAACT'
p1115
I17477
sS'GGGTAA'
p1116
I14380
sS'TAATAG'
p1117
I11992
sS'ACTAAC'
p1118
I9889
sS'TAATAC'
p1119
I10694
sS'GTCCGA'
p1120
I5625
sS'TAATAA'
p1121
I23500
sS'GTCCGC'
p1122
I12049
sS'TGTTTA'
p1123
I29581
sS'GATCCC'
p1124
I17965
sS'CACATC'
p1125
I21891
sS'GTCCGT'
p1126
I6016
sS'TAATAT'
p1127
I16427
sS'CGTAAC'
p1128
I3155
sS'GGGNCC'
p1129
I1
sS'ATTCGC'
p1130
I4063
sS'TTCTCC'
p1131
I46512
sS'TGAACT'
p1132
I23494
sS'TTCTCA'
p1133
I37912
sS'ATCCAT'
p1134
I15463
sS'TTCTCG'
p1135
I9539
sS'TCGTAC'
p1136
I2160
sS'TACCTT'
p1137
I15395
sS'TCGTAA'
p1138
I3160
sS'TCGTAG'
p1139
I3613
sS'GAACCT'
p1140
I19028
sS'ATCCAA'
p1141
I16816
sS'ATCCAC'
p1142
I17745
sS'TGAACC'
p1143
I18037
sS'TTCTCT'
p1144
I50391
sS'TGAACA'
p1145
I23164
sS'GAACCC'
p1146
I21845
sS'GAACCA'
p1147
I20486
sS'TACCTA'
p1148
I10174
sS'TACCTC'
p1149
I15275
sS'TCGTAT'
p1150
I2574
sS'ATGTTA'
p1151
I15981
sS'ACCATA'
p1152
I10402
sS'ACCATG'
p1153
I20815
sS'ATGTTG'
p1154
I20377
sS'AGCTCT'
p1155
I35866
sS'GAGCTG'
p1156
I49847
sS'AGTGGT'
p1157
I21910
sS'CGTGGT'
p1158
I11427
sS'TGATGT'
p1159
I20855
sS'ATGTTT'
p1160
I31355
sS'ACCATT'
p1161
I16205
sS'AGTGGA'
p1162
I27464
sS'AGTGGC'
p1163
I32066
sS'AGCTCC'
p1164
I42028
sS'AGTGGG'
p1165
I35638
sS'GGCCTT'
p1166
I30709
sS'TCCATG'
p1167
I23203
sS'CAGTAA'
p1168
I20566
sS'CAGTAC'
p1169
I12205
sS'CAGTAG'
p1170
I18793
sS'CGCGGT'
p1171
I11424
sS'TTAATA'
p1172
I20137
sS'CAGTAT'
p1173
I14195
sS'GTTCCT'
p1174
I27270
sS'TTAATC'
p1175
I14562
sS'CCGGCT'
p1176
I24535
sS'GATCTA'
p1177
I8285
sS'GATCTC'
p1178
I17657
sS'ATTGAC'
p1179
I10414
sS'GATCTG'
p1180
I20283
sS'TCCCTT'
p1181
I40218
sS'CCGGCC'
p1182
I41970
sS'ATTAGG'
p1183
I12847
sS'ATTAGA'
p1184
I14695
sS'CACATT'
p1185
I27003
sS'ATTAGC'
p1186
I13071
sS'TCCCTC'
p1187
I56027
sS'GAGCTT'
p1188
I24112
sS'TCCCTA'
p1189
I20126
sS'TGCCAC'
p1190
I31015
sS'TCCCTG'
p1191
I56735
sS'GATCTT'
p1192
I15715
sS'AAGTGA'
p1193
I31392
sS'AAGTGC'
p1194
I25368
sS'TGTTCT'
p1195
I30107
sS'AAGTGG'
p1196
I28212
sS'TGATTG'
p1197
I17727
sS'TGCGCA'
p1198
I12343
sS'TCTGAT'
p1199
I22471
sS'TGATTA'
p1200
I15174
sS'TGTTCA'
p1201
I23159
sS'CACAAG'
p1202
I25434
sS'TGTTCC'
p1203
I25556
sS'CACAAA'
p1204
I32776
sS'CACAAC'
p1205
I18102
sS'TGTTCG'
p1206
I4685
sS'TCTGAA'
p1207
I33511
sS'TCTGAC'
p1208
I24106
sS'TCTGAG'
p1209
I40617
sS'CGCGCC'
p1210
I34325
sS'CGCGCA'
p1211
I14296
sS'GGTAAA'
p1212
I17011
sS'CGCGCG'
p1213
I29698
sS'CTCCCT'
p1214
I68039
sS'AGCGGG'
p1215
I22812
sS'AGCGGA'
p1216
I12762
sS'ACCTCT'
p1217
I29295
sS'AGATGA'
p1218
I29726
sS'GACGTG'
p1219
I9946
sS'CGCGCT'
p1220
I16772
sS'ACCTCC'
p1221
I37182
sS'ACCTCA'
p1222
I28570
sS'CTCCCA'
p1223
I60530
sS'CTCCCC'
p1224
I71955
sS'TAGCTA'
p1225
I10627
sS'TAAGCC'
p1226
I14766
sS'TAGCTC'
p1227
I15343
sS'CCCATG'
p1228
I24438
sS'CGGGAA'
p1229
I18769
sS'CCCATA'
p1230
I12484
sS'TAGCTG'
p1231
I22300
sS'CCCATC'
p1232
I29728
sS'CCGAGA'
p1233
I14881
sS'CCTGCT'
p1234
I50360
sS'CCGAAT'
p1235
I4965
sS'CCCATT'
p1236
I25073
sS'CGGGAT'
p1237
I9732
sS'ATTTCG'
p1238
I4904
sS'TAGCTT'
p1239
I15062
sS'TAAGCT'
p1240
I14009
sS'GCCTCC'
p1241
I68354
sS'CCGAAC'
p1242
I6183
sS'CCTGCG'
p1243
I25187
sS'CCGAAA'
p1244
I7467
sS'CCGAAG'
p1245
I11244
sS'CCTGCC'
p1246
I68715
sS'CCTGCA'
p1247
I44148
sS'GTACTG'
p1248
I12206
sS'CCATTC'
p1249
I25060
sS'TATAAG'
p1250
I10432
sS'TATAAA'
p1251
I24067
sS'TATAAC'
p1252
I8706
sS'GCNNNN'
p1253
I1
sS'CNNNNN'
p1254
I6
sS'CATTTC'
p1255
I37218
sS'TATAAT'
p1256
I15303
sS'TGTGNN'
p1257
I1
sS'CCATTT'
p1258
I32088
sS'TCTACA'
p1259
I16412
sS'TCTACC'
p1260
I14829
sS'TCTACG'
p1261
I4136
sS'ACTTTC'
p1262
I25873
sS'CGCAAC'
p1263
I5532
sS'ACTCCA'
p1264
I32015
sS'CGCAAA'
p1265
I6908
sS'ATACCG'
p1266
I2691
sS'CGCAAG'
p1267
I8241
sS'ATACCA'
p1268
I12918
sS'ATACCC'
p1269
I9381
sS'TCTACT'
p1270
I17814
sS'ATACCT'
p1271
I11991
sS'CGCAAT'
p1272
I4192
sS'TAGTAA'
p1273
I13030
sS'TGGGTG'
p1274
I41921
sS'TAGTAC'
p1275
I6330
sS'CTCAAG'
p1276
I28324
sS'CTCAAA'
p1277
I33007
sS'TAGTAG'
p1278
I10640
sS'CTCAAC'
p1279
I18004
sS'GTGTGC'
p1280
I25707
sS'GTGTGA'
p1281
I26434
sS'GTGTGG'
p1282
I34735
sS'TAACGG'
p1283
I3835
sS'CTCAAT'
p1284
I15876
sS'TAGTAT'
p1285
I8834
sS'CTCCCG'
p1286
I34966
sS'GTGTGT'
p1287
I62573
sS'ATCTTT'
p1288
I26480
sS'GTTGGG'
p1289
I25358
sS'GTTGGA'
p1290
I18240
sS'ACGCAA'
p1291
I5496
sS'CCTTGG'
p1292
I38991
sS'CCTTGA'
p1293
I24658
sS'GGGAAA'
p1294
I48810
sS'CCTTGC'
p1295
I28219
sS'GACCTA'
p1296
I10612
sS'CTAAGC'
p1297
I15013
sS'GTTGGT'
p1298
I15369
sS'ATCTTG'
p1299
I20497
sS'ATCTTA'
p1300
I14330
sS'ATCTTC'
p1301
I20693
sS'CCTTGT'
p1302
I25321
sS'AGGATA'
p1303
I14662
sS'AGGATG'
p1304
I31216
sS'GACATG'
p1305
I17317
sS'GACATC'
p1306
I15581
sS'GACATA'
p1307
I10910
sS'GATTTC'
p1308
I22508
sS'GAATAT'
p1309
I15290
sS'GGTGCA'
p1310
I22084
sS'TCGGCC'
p1311
I18038
sS'ATCAGA'
p1312
I22469
sS'TTGCGA'
p1313
I4092
sS'GACATT'
p1314
I19708
sS'TTGCGG'
p1315
I8072
sS'GAATAG'
p1316
I12466
sS'TCGGCT'
p1317
I12706
sS'ATCAGC'
p1318
I19373
sS'GAATAC'
p1319
I10618
sS'GAATAA'
p1320
I20400
sS'AAGTCG'
p1321
I6062
sS'TGCAGA'
p1322
I37689
sS'CGACAG'
p1323
I9596
sS'GGACGA'
p1324
I8023
sS'TACAAG'
p1325
I14608
sS'TGCCTC'
p1326
I42435
sS'ACGTCG'
p1327
I3289
sS'GGACGC'
p1328
I16638
sS'GAAATG'
p1329
I37216
sS'AATGAT'
p1330
I20669
sS'GAAATA'
p1331
I27490
sS'GAAATC'
p1332
I22492
sS'ACCGGT'
p1333
I4399
sS'GAAATT'
p1334
I26400
sS'AATGAA'
p1335
I36627
sS'ATGTCC'
p1336
I16999
sS'AATGAC'
p1337
I21842
sS'AATGAG'
p1338
I30084
sS'GCGTAC'
p1339
I2906
sS'CTTGGA'
p1340
I30147
sS'CTTGGC'
p1341
I35481
sS'GTATTG'
p1342
I9236
sS'GTCCTT'
p1343
I23093
sS'CTTGGG'
p1344
I37723
sS'TTGTGA'
p1345
I23428
sS'GGGAAT'
p1346
I24674
sS'TTGAAT'
p1347
I21746
sS'GTCCTA'
p1348
I11733
sS'GTCCTC'
p1349
I28233
sS'TGCACG'
p1350
I9878
sS'CTTGGT'
p1351
I23162
sS'GTCCTG'
p1352
I33999
sS'TGCACC'
p1353
I22090
sS'TTGAAA'
p1354
I32419
sS'TTGAAC'
p1355
I18081
sS'AGCCCA'
p1356
I41550
sS'AGCCCC'
p1357
I49647
sS'CTTATG'
p1358
I12393
sS'ATAAAT'
p1359
I32468
sS'TGGTCG'
p1360
I5966
sS'TGGTCA'
p1361
I22097
sS'TGGTCC'
p1362
I20860
sS'ACGATT'
p1363
I3852
sS'GAGACT'
p1364
I26606
sS'GATTCA'
p1365
I20126
sS'TGGTCT'
p1366
I26108
sS'ATAAAG'
p1367
I22976
sS'CCTGTG'
p1368
I43334
sS'ATAAAA'
p1369
I39999
sS'TCAGCC'
p1370
I41952
sS'ATAAAC'
p1371
I19684
sS'GAGACG'
p1372
I14580
sS'ACGATG'
p1373
I5413
sS'CTACAG'
p1374
I20721
sS'GAGACC'
p1375
I28154
sS'ACGATC'
p1376
I3455
sS'GAGACA'
p1377
I34042
sS'ACGATA'
p1378
I2326
sS'GGTTAC'
p1379
I10345
sS'ATGTGT'
p1380
I26053
sS'GGTTAA'
p1381
I14120
sS'ACCACT'
p1382
I21922
sS'GGTTAG'
p1383
I12184
sS'CTTCCT'
p1384
I65864
sS'GAATGT'
p1385
I23464
sS'TCCATT'
p1386
I27241
sS'CGTGAA'
p1387
I7636
sS'CCAACA'
p1388
I24728
sS'TCCGCT'
p1389
I12765
sS'CTTCCA'
p1390
I39520
sS'ATGTGG'
p1391
I25211
sS'ACCACC'
p1392
I26667
sS'CGTATG'
p1393
I2970
sS'ACCACA'
p1394
I28370
sS'GGTTAT'
p1395
I10768
sS'TCCGCC'
p1396
I26893
sS'TCCGCA'
p1397
I10850
sS'TCCGCG'
p1398
I14484
sS'AACGTC'
p1399
I5812
sS'AACGTA'
p1400
I3979
sS'AACGTG'
p1401
I8706
sS'CGTGAC'
p1402
I9385
sS'GGTAGC'
p1403
I12041
sS'AGTGTG'
p1404
I28679
sS'TCTTCG'
p1405
I7617
sS'AGTGTA'
p1406
I13244
sS'TCTTCA'
p1407
I30784
sS'AGTGTC'
p1408
I20142
sS'TCTTCC'
p1409
I46606
sS'CGTGAT'
p1410
I6596
sS'TAAGTC'
p1411
I12248
sS'TAAGTA'
p1412
I14106
sS'CAATTT'
p1413
I21839
sS'TCTTCT'
p1414
I39613
sS'AGTGTT'
p1415
I22980
sS'GTGCGC'
p1416
I14593
sS'TTGGCA'
p1417
I25547
sS'AAAGGT'
p1418
I23261
sS'TTGGCC'
p1419
I29273
sS'AGTAAC'
p1420
I14192
sS'ACTTGG'
p1421
I26231
sS'TTAACG'
p1422
I3877
sS'TTGGCG'
p1423
I9188
sS'GACTTC'
p1424
I21862
sS'TCGAGT'
p1425
I4970
sS'GACTTA'
p1426
I12236
sS'GACTTG'
p1427
I21242
sS'GAGTAA'
p1428
I16807
sS'ACGTAG'
p1429
I4715
sS'AAAGGG'
p1430
I37633
sS'AAAGGA'
p1431
I44293
sS'TTGGCT'
p1432
I31336
sS'AAAGGC'
p1433
I31813
sS'GAGTAC'
p1434
I8777
sS'GTCGAT'
p1435
I2342
sS'GACTTT'
p1436
I23742
sS'GAGGAT'
p1437
I24695
sS'CAAGAA'
p1438
I30774
sS'AGCGAG'
p1439
I16427
sS'CAAGAC'
p1440
I21189
sS'GATTCG'
p1441
I4477
sS'CAAGAG'
p1442
I30677
sS'TTCTTG'
p1443
I30751
sS'TTCTTC'
p1444
I39336
sS'TTCTTA'
p1445
I25418
sS'CAAGAT'
p1446
I20502
sS'CCCGAT'
p1447
I5451
sS'TACGGG'
p1448
I4540
sS'TACGGA'
p1449
I4014
sS'TACGGC'
p1450
I4061
sS'CTCAGA'
p1451
I40606
sS'TAGAGT'
p1452
I13507
sS'TACGGT'
p1453
I3284
sS'AGGGCG'
p1454
I27255
sS'AGGGCA'
p1455
I43017
sS'CCCGAC'
p1456
I13356
sS'TCGAGA'
p1457
I7104
sS'TAGAGC'
p1458
I14842
sS'TAGAGA'
p1459
I23885
sS'TAGAGG'
p1460
I21416
sS'CAATTA'
p1461
I13210
sS'GTGCTG'
p1462
I40059
sS'CGGGGT'
p1463
I19523
sS'GTGCTA'
p1464
I12573
sS'ATCTGT'
p1465
I24139
sS'CGAATT'
p1466
I4240
sS'GGCGAC'
p1467
I13125
sS'ATCTGA'
p1468
I22680
sS'GTGCTT'
p1469
I23271
sS'ATCTGC'
p1470
I23134
sS'CGAATA'
p1471
I2849
sS'CGAATG'
p1472
I5533
sS'ATCTGG'
p1473
I25091
sS'ATCATA'
p1474
I12372
sS'GATAGC'
p1475
I7713
sS'ATCATC'
p1476
I16493
sS'GATAGA'
p1477
I11267
sS'AAGCAA'
p1478
I33003
sS'GATAGG'
p1479
I10811
sS'CTAACC'
p1480
I12171
sS'TTTACC'
p1481
I17017
sS'GTTATG'
p1482
I10542
sS'CTAGGT'
p1483
I14762
sS'TTTCAT'
p1484
I33595
sS'ACGCAT'
p1485
I5160
sS'CATTTG'
p1486
I28672
sS'GTTATA'
p1487
I8693
sS'CAAACA'
p1488
I36942
sS'AAGCAT'
p1489
I21164
sS'CAAACC'
p1490
I22849
sS'TTTACA'
p1491
I28324
sS'ATCATT'
p1492
I20676
sS'GATAGT'
p1493
I7776
sS'ACGCAG'
p1494
I13064
sS'CTAGGG'
p1495
I21142
sS'GTTATT'
p1496
I16988
sS'CTAGGC'
p1497
I18333
sS'CATTTT'
p1498
I46732
sS'CTAGGA'
p1499
I21172
sS'AAGTTT'
p1500
I27274
sS'TACAGT'
p1501
I17567
sS'CTCGAA'
p1502
I7497
sS'CTAACG'
p1503
I4096
sS'CTCGGC'
p1504
I25953
sS'CTAAGA'
p1505
I18031
sS'GGGGCT'
p1506
I49655
sS'TACAGG'
p1507
I23773
sS'AAGTTG'
p1508
I19747
sS'GGATGC'
p1509
I20035
sS'AAGTTA'
p1510
I18480
sS'TACAGC'
p1511
I16825
sS'AAGTTC'
p1512
I20446
sS'TACAGA'
p1513
I22531
sS'GGGGCC'
p1514
I55543
sS'GTATGA'
p1515
I10540
sS'GGGGCA'
p1516
I41490
sS'GGGGCG'
p1517
I57754
sS'CCATGG'
p1518
I27647
sS'GGGGNN'
p1519
I1
sS'TATATC'
p1520
I8295
sS'TATATA'
p1521
I19302
sS'TGTATA'
p1522
I13136
sS'TATATG'
p1523
I12121
sS'GCTGGG'
p1524
I81032
sS'TCCGGT'
p1525
I8007
sS'GGTCCA'
p1526
I17903
sS'TATATT'
p1527
I18999
sS'TGATGG'
p1528
I21870
sS'CATATG'
p1529
I12875
sS'ATGAGT'
p1530
I22941
sS'AGGTCT'
p1531
I23520
sS'TGATGA'
p1532
I24127
sS'TGCCAT'
p1533
I24549
sS'ACTCTT'
p1534
I22325
sS'TGTTTC'
p1535
I33613
sS'CACATA'
p1536
I18725
sS'TTAATT'
p1537
I24657
sS'CACATG'
p1538
I26773
sS'TGTTTG'
p1539
I36946
sS'ATGAGA'
p1540
I25308
sS'ATGAGC'
p1541
I19706
sS'ATGAGG'
p1542
I26661
sS'TTTCAC'
p1543
I28687
sS'ACTCTG'
p1544
I33326
sS'TTTCAA'
p1545
I32441
sS'ACTCTA'
p1546
I13497
sS'TTTCAG'
p1547
I37887
sS'ACTCTC'
p1548
I22343
sS'TTAATG'
p1549
I18114
sS'AAATTC'
p1550
I27903
sS'GACTGA'
p1551
I22124
sS'AAATTA'
p1552
I31116
sS'AAATTG'
p1553
I21832
sS'CCAGTA'
p1554
I16110
sS'AGACCG'
p1555
I8564
sS'CGTACC'
p1556
I3391
sS'AAATTT'
p1557
I33211
sS'CTTAGT'
p1558
I14203
sS'GGGAAC'
p1559
I26755
sS'GGTGCG'
p1560
I14294
sS'GCGTAT'
p1561
I2654
sS'GGGAAG'
p1562
I61620
sS'GGTGCC'
p1563
I28647
sS'TCGTCC'
p1564
I8022
sS'TCCGGG'
p1565
I23165
sS'AGAGCG'
p1566
I16543
sS'GCGACT'
p1567
I7542
sS'AGAGCC'
p1568
I38628
sS'AGAGCA'
p1569
I36195
sS'GCGTAG'
p1570
I4843
sS'GGTGCT'
p1571
I27527
sS'CTTGTG'
p1572
I25428
sS'GCGTAA'
p1573
I3302
sS'GCGACG'
p1574
I7861
sS'AGAGCT'
p1575
I35873
sS'GCGACA'
p1576
I8155
sS'TATCGG'
p1577
I2307
sS'GCGACC'
p1578
I10459
sS'AGGTCG'
p1579
I8194
sS'GCAGGA'
p1580
I49548
sS'GCAGGC'
p1581
I46493
sS'GCAGGG'
p1582
I62288
sS'GGCGAT'
p1583
I6647
sS'GCACTA'
p1584
I10404
sS'GCTCGA'
p1585
I5973
sS'GCTCGG'
p1586
I20031
sS'TATTCT'
p1587
I20321
sS'CCGTGG'
p1588
I16849
sS'CTTTAG'
p1589
I18041
sS'GCAGGT'
p1590
I30126
sS'TGAAGC'
p1591
I24881
sS'CTATAC'
p1592
I6252
sS'TATTCC'
p1593
I16044
sS'GGCGAG'
p1594
I21775
sS'TATTCA'
p1595
I19536
sS'GGCGAA'
p1596
I8854
sS'TATTCG'
p1597
I2846
sS'GCTCGT'
p1598
I6354
sS'TGTAGA'
p1599
I16434
sS'GGCTCA'
p1600
I38673
sS'AGCATT'
p1601
I23999
sS'ACCCTC'
p1602
I29051
sS'TTTACG'
p1603
I4599
sS'TGTAGG'
p1604
I15934
sS'GGCTCG'
p1605
I16598
sS'TTCGGA'
p1606
I6357
sS'TTCGGC'
p1607
I7850
sS'CTTTAC'
p1608
I16634
sS'TTCAAG'
p1609
I26934
sS'TTCGGG'
p1610
I10173
sS'AGCATG'
p1611
I23082
sS'GGCTCT'
p1612
I38632
sS'TGTAGT'
p1613
I16326
sS'TTTACT'
p1614
I25887
sS'AGCATA'
p1615
I12528
sS'TTACAT'
p1616
I19495
sS'TCTTGG'
p1617
I31654
sS'TTCGGT'
p1618
I5480
sS'GTTTAT'
p1619
I19699
sS'GTCTAG'
p1620
I11922
sS'GCCTTT'
p1621
I31813
sS'AGGCAT'
p1622
I24819
sS'GTTTAA'
p1623
I19406
sS'CGCTAA'
p1624
I4178
sS'CACGAA'
p1625
I6628
sS'GTTTAG'
p1626
I14095
sS'GAGGTA'
p1627
I15271
sS'CTGGCT'
p1628
I52461
sS'AGGCGG'
p1629
I35638
sS'GTCGGT'
p1630
I5399
sS'AGGCGC'
p1631
I23718
sS'AGGAGT'
p1632
I31086
sS'ACAGCC'
p1633
I36257
sS'GATAAA'
p1634
I19239
sS'ACAGCA'
p1635
I36240
sS'TCCAGC'
p1636
I47975
sS'ACAGCG'
p1637
I13483
sS'AGGAGC'
p1638
I43143
sS'AGGCGT'
p1639
I13059
sS'AGGAGA'
p1640
I50451
sS'CTGGCG'
p1641
I21936
sS'AGGAGG'
p1642
I75459
sS'CTGGCA'
p1643
I40785
sS'GTCGGG'
p1644
I13358
sS'GCGCCC'
p1645
I39742
sS'CGATAC'
p1646
I2043
sS'ACAGCT'
p1647
I32118
sS'GCTCTC'
p1648
I32886
sS'ATTGGT'
p1649
I13724
sS'AATTTT'
p1650
I39172
sS'TGTCAA'
p1651
I17305
sS'TGTCAC'
p1652
I24220
sS'AAACAC'
p1653
I31413
sS'GGAAAC'
p1654
I33380
sS'AAACAA'
p1655
I49479
sS'ATTGGG'
p1656
I14568
sS'AATTTA'
p1657
I25205
sS'AATTTC'
p1658
I26393
sS'AACGCC'
p1659
I8683
sS'AACGCA'
p1660
I7064
sS'AATTTG'
p1661
I23262
sS'CCCTCA'
p1662
I36998
sS'AAACAT'
p1663
I31370
sS'TGTCAT'
p1664
I22637
sS'CCCTCG'
p1665
I20834
sS'TCCAGT'
p1666
I27622
sS'GGCGTT'
p1667
I8685
sS'CTGACG'
p1668
I9924
sS'TGACCA'
p1669
I22082
sS'CATTCT'
p1670
I31198
sS'TAAATC'
p1671
I16782
sS'TGACCG'
p1672
I7055
sS'TAGCGT'
p1673
I3575
sS'GCGCCA'
p1674
I19314
sS'ACCACG'
p1675
I11429
sS'CATTCG'
p1676
I5535
sS'CATTCC'
p1677
I32170
sS'CATTCA'
p1678
I28634
sS'ACGAAA'
p1679
I6143
sS'CGCTAT'
p1680
I3353
sS'ACAAAT'
p1681
I27988
sS'GATTAA'
p1682
I14573
sS'GTAGGC'
p1683
I11843
sS'GATTAC'
p1684
I14210
sS'GTAGGA'
p1685
I15805
sS'GTAGGG'
p1686
I17074
sS'GATTAG'
p1687
I10312
sS'GAATGA'
p1688
I29419
sS'ACAAAC'
p1689
I26854
sS'ACAAAA'
p1690
I44299
sS'ACAAAG'
p1691
I33107
sS'GCGGGC'
p1692
I38548
sS'AGGCGA'
p1693
I12120
sS'GCGGGA'
p1694
I28554
sS'GCGGGG'
p1695
I61887
sS'GATTAT'
p1696
I12372
sS'GTAGGT'
p1697
I12493
sS'GGCGTC'
p1698
I14389
sS'TAATGA'
p1699
I18493
sS'GATGTT'
p1700
I17968
sS'TAATGC'
p1701
I12138
sS'GGAGAT'
p1702
I24859
sS'TAATGG'
p1703
I13631
sS'GCGCCG'
p1704
I30867
sS'GGCGTA'
p1705
I4041
sS'GCCCTC'
p1706
I47491
sS'GATGTG'
p1707
I21890
sS'GCCCTA'
p1708
I15380
sS'GATGTA'
p1709
I10688
sS'TAATGT'
p1710
I15807
sS'GATGTC'
p1711
I15587
sS'AACCTC'
p1712
I24373
sS'TGAAAT'
p1713
I34144
sS'GCTCTT'
p1714
I28604
sS'TTCTAA'
p1715
I24178
sS'ATCCGT'
p1716
I4371
sS'TTCTAC'
p1717
I15869
sS'TGAAAA'
p1718
I41236
sS'TGAAAC'
p1719
I25194
sS'TGAAAG'
p1720
I32164
sS'TTCTAT'
p1721
I18251
sS'ATCCGC'
p1722
I7742
sS'ATCCGA'
p1723
I4309
sS'ATCCGG'
p1724
I7410
sS'TGGCTC'
p1725
I41615
sS'TGGCTA'
p1726
I17713
sS'NNNNCT'
p1727
I1
sS'TGGCTG'
p1728
I52339
sS'GACCGG'
p1729
I10827
sS'GTCGGA'
p1730
I6199
sS'AGTTGT'
p1731
I17481
sS'AGCTAT'
p1732
I13852
sS'CTTACG'
p1733
I4155
sS'ATTAGT'
p1734
I11955
sS'GTCGGC'
p1735
I9928
sS'CGTCGA'
p1736
I2212
sS'NNNNCA'
p1737
I1
sS'TGGCTT'
p1738
I35258
sS'AGTTGG'
p1739
I21200
sS'AGCTAA'
p1740
I17222
sS'AGCTAC'
p1741
I16369
sS'AGTTGC'
p1742
I16717
sS'AGTTGA'
p1743
I16879
sS'AGCTAG'
p1744
I15890
sS'CGTTGA'
p1745
I4472
sS'GCACCT'
p1746
I25404
sS'CAGTGT'
p1747
I30013
sS'TAACAA'
p1748
I18564
sS'TCAGGT'
p1749
I22948
sS'TCAAGG'
p1750
I24659
sS'CTGGCC'
p1751
I56342
sS'TCAAGC'
p1752
I19320
sS'TCAAGA'
p1753
I22743
sS'CTAATA'
p1754
I11547
sS'CAGTGC'
p1755
I31202
sS'GCACCC'
p1756
I28191
sS'CAGTGA'
p1757
I38668
sS'CAGTGG'
p1758
I41107
sS'GCACCG'
p1759
I14410
sS'TCAAGT'
p1760
I20595
sS'TCAGGG'
p1761
I38318
sS'GAGCCC'
p1762
I43309
sS'TCAGGC'
p1763
I32912
sS'CGAGCT'
p1764
I11023
sS'CGTTGG'
p1765
I7332
sS'CAACCA'
p1766
I20482
sS'GTTCAT'
p1767
I15571
sS'TTCCCT'
p1768
I49620
sS'CGAGCG'
p1769
I12276
sS'CGAGCA'
p1770
I8947
sS'CGCAGC'
p1771
I27581
sS'CGAGCC'
p1772
I16597
sS'GTTCAG'
p1773
I21754
sS'TTCCCC'
p1774
I45608
sS'GTTCAC'
p1775
I15309
sS'GTTCAA'
p1776
I18043
sS'GATCAC'
p1777
I15897
sS'GGACCT'
p1778
I22556
sS'TCCACC'
p1779
I34588
sS'AAGTAC'
p1780
I12867
sS'AAGTAA'
p1781
I22983
sS'TACATC'
p1782
I10704
sS'AAGTAG'
p1783
I17620
sS'TACATA'
p1784
I14991
sS'CATGGT'
p1785
I20802
sS'GGACCG'
p1786
I12524
sS'AACGCT'
p1787
I7159
sS'GGACCA'
p1788
I20868
sS'CTTTCT'
p1789
I51752
sS'GGACCC'
p1790
I28720
sS'CACACG'
p1791
I13796
sS'TACATT'
p1792
I19259
sS'CACACC'
p1793
I32862
sS'GCACAA'
p1794
I18877
sS'AAGTAT'
p1795
I15133
sS'TCTGCC'
p1796
I45095
sS'TCTGCA'
p1797
I37665
sS'TCTGCG'
p1798
I14544
sS'TAGATT'
p1799
I13439
sS'CCCGTC'
p1800
I15218
sS'TTAAGG'
p1801
I17691
sS'CCCGTA'
p1802
I4540
sS'TTAAGA'
p1803
I21824
sS'CCCGTG'
p1804
I14257
sS'TTAAGC'
p1805
I14081
sS'TTACGT'
p1806
I4649
sS'TAGATC'
p1807
I8291
sS'AAACAG'
p1808
I40055
sS'TAGATA'
p1809
I11160
sS'TTTCGC'
p1810
I6716
sS'TAGATG'
p1811
I15300
sS'TCTGCT'
p1812
I40710
sS'TTACGC'
p1813
I3302
sS'TTAAGT'
p1814
I18713
sS'TTACGA'
p1815
I3157
sS'TTACGG'
p1816
I4015
sS'CCCGTT'
p1817
I8503
sS'AGTGAC'
p1818
I26107
sS'AGTGAA'
p1819
I27859
sS'GGACGT'
p1820
I8183
sS'AGTGAG'
p1821
I37134
sS'ACATTT'
p1822
I36969
sS'CGGGCG'
p1823
I32405
sS'CCCTCT'
p1824
I53449
sS'TAAGAG'
p1825
I19306
sS'CCTGAT'
p1826
I20081
sS'TAAGAA'
p1827
I25470
sS'CGGGCA'
p1828
I18833
sS'TAAGAC'
p1829
I12595
sS'ATTTAT'
p1830
I32463
sS'AGTGAT'
p1831
I21314
sS'CTTTCC'
p1832
I48280
sS'TAAGAT'
p1833
I14351
sS'CCTGAA'
p1834
I32141
sS'CCTGAC'
p1835
I31289
sS'CCTGAG'
p1836
I48981
sS'GTTAGG'
p1837
I13258
sS'GCCAAC'
p1838
I18513
sS'TATACT'
p1839
I9670
sS'GTTAGC'
p1840
I9736
sS'GTTAGA'
p1841
I12210
sS'TGTAGC'
p1842
I13770
sS'GNNNNN'
p1843
I3
sS'GCCAAA'
p1844
I24241
sS'TATACG'
p1845
I2070
sS'GTTAGT'
p1846
I9885
sS'TATACC'
p1847
I6717
sS'TATACA'
p1848
I13128
sS'ATTGGC'
p1849
I17133
sS'CGTATA'
p1850
I2069
sS'TCTTGT'
p1851
I23674
sS'GTAATG'
p1852
I12351
sS'TTTATT'
p1853
I49357
sS'GTAATA'
p1854
I11462
sS'ATTGGA'
p1855
I15468
sS'GTAATC'
p1856
I14192
sS'TCTAAC'
p1857
I12216
sS'CGTTCT'
p1858
I8447
sS'CCACCG'
p1859
I19863
sS'CGGATC'
p1860
I7495
sS'CCACCA'
p1861
I40933
sS'CCACCC'
p1862
I58629
sS'GTTCGT'
p1863
I3935
sS'TTTATG'
p1864
I22388
sS'ACTAGG'
p1865
I14631
sS'TTTATC'
p1866
I19227
sS'ACTAGC'
p1867
I9685
sS'TTTATA'
p1868
I24031
sS'ATAGAA'
p1869
I18260
sS'CCACCT'
p1870
I46620
sS'CGTTCG'
p1871
I3353
sS'ACTTGT'
p1872
I17883
sS'CGTTCA'
p1873
I6072
sS'CGTTCC'
p1874
I10330
sS'TCTAAT'
p1875
I14695
sS'CTTTGT'
p1876
I33100
sS'ATTTAA'
p1877
I31119
sS'ACTGGA'
p1878
I27623
sS'ACTGGC'
p1879
I25254
sS'TAGTCC'
p1880
I11962
sS'GTGACC'
p1881
I22488
sS'TAGTCA'
p1882
I15022
sS'GTGACA'
p1883
I24203
sS'TAGTCG'
p1884
I2699
sS'GTGACG'
p1885
I9883
sS'ATTTAG'
p1886
I18285
sS'ACTGGT'
p1887
I16747
sS'CTTTGG'
p1888
I36358
sS'CTTTGC'
p1889
I31137
sS'CTTTGA'
p1890
I27969
sS'GTGACT'
p1891
I29617
sS'TAGTCT'
p1892
I12632
sS'GTGCAC'
p1893
I17977
sS'GCGCTT'
p1894
I11428
sS'ACCTAG'
p1895
I14760
sS'GCAATT'
p1896
I15708
sS'ACCTAA'
p1897
I13438
sS'CGACGC'
p1898
I7190
sS'ACCTAC'
p1899
I12499
sS'CCGCAG'
p1900
I27909
sS'CCGCAA'
p1901
I8077
sS'CCGCAC'
p1902
I15180
sS'CTACGG'
p1903
I5347
sS'ACCTAT'
p1904
I9481
sS'ATTACA'
p1905
I23577
sS'CGAAGA'
p1906
I7625
sS'CCCCGT'
p1907
I15261
sS'CGAAGG'
p1908
I11082
sS'GCGCTC'
p1909
I22226
sS'GTGCAT'
p1910
I16280
sS'GCGCTA'
p1911
I5418
sS'NCTGAC'
p1912
I1
sS'CCGCAT'
p1913
I6786
sS'GTTCGC'
p1914
I5367
sS'GAAGAT'
p1915
I20690
sS'GGATCT'
p1916
I17516
sS'TCGGAA'
p1917
I7173
sS'TCGGAC'
p1918
I5627
sS'GAATCT'
p1919
I19648
sS'TCGGAG'
p1920
I12187
sS'GGATCG'
p1921
I6069
sS'GAAGAG'
p1922
I41797
sS'GAAGAA'
p1923
I39354
sS'CGAGAA'
p1924
I9542
sS'GAAGAC'
p1925
I22892
sS'GGATCA'
p1926
I16802
sS'GGATCN'
p1927
I1
sS'GAATCA'
p1928
I22549
sS'GAATCC'
p1929
I18613
sS'TCGGAT'
p1930
I4313
sS'GAATCG'
p1931
I5744
sS'ATGGTC'
p1932
I12287
sS'CAGATG'
p1933
I33053
sS'ACGCCG'
p1934
I9497
sS'TGACCC'
p1935
I23715
sS'ATGGTG'
p1936
I23769
sS'CAGATC'
p1937
I20283
sS'CTATCC'
p1938
I10545
sS'TGCGTG'
p1939
I12910
sS'CTATCT'
p1940
I13918
sS'CAGATT'
p1941
I23681
sS'CTCGAC'
p1942
I5583
sS'ATGGTT'
p1943
I15704
sS'TCGCAA'
p1944
I4097
sS'TTGCGC'
p1945
I7180
sS'TGCGTC'
p1946
I8970
sS'CCGGTA'
p1947
I4647
sS'GCGTGG'
p1948
I20804
sS'AATGGT'
p1949
I16190
sS'GTTACG'
p1950
I3151
sS'CTACGT'
p1951
I4713
sS'AATGGC'
p1952
I20747
sS'AATGGA'
p1953
I27229
sS'AATGGG'
p1954
I25073
sS'GATCAA'
p1955
I11195
sS'NCCCCC'
p1956
I1
sS'CCCCGA'
p1957
I18409
sS'AATAGA'
p1958
I18046
sS'AACGCG'
p1959
I5404
sS'TGCACA'
p1960
I29080
sS'AATAGC'
p1961
I14029
sS'ATTTAC'
p1962
I20098
sS'CGTTAG'
p1963
I4094
sS'TTGACC'
p1964
I14366
sS'GGAGGG'
p1965
I83656
sS'AAAAGT'
p1966
I32095
sS'GGAGGA'
p1967
I69878
sS'GGAGGC'
p1968
I68372
sS'TGGTAG'
p1969
I15130
sS'TGACCT'
p1970
I30171
sS'GAGTGT'
p1971
I20875
sS'TGGTAC'
p1972
I9678
sS'TGGTAA'
p1973
I16345
sS'AAAAGG'
p1974
I39198
sS'GGAGGT'
p1975
I37196
sS'AGCCAT'
p1976
I23289
sS'AAAAGC'
p1977
I32758
sS'AAAAGA'
p1978
I48776
sS'TTGACT'
p1979
I18737
sS'GAGTGG'
p1980
I31671
sS'CGCCAG'
p1981
I21944
sS'TGGTAT'
p1982
I12924
sS'CGCCAA'
p1983
I9184
sS'GAGTGC'
p1984
I22771
sS'CGCCAC'
p1985
I19745
sS'GAGTGA'
p1986
I27565
sS'GCCAGG'
p1987
I65498
sS'GCCAGA'
p1988
I35443
sS'GCCAGC'
p1989
I45346
sS'GCCCGT'
p1990
I10883
sS'TACCGA'
p1991
I3171
sS'TACCGC'
p1992
I4923
sS'CTTCAT'
p1993
I25086
sS'GCCCGC'
p1994
I38559
sS'GCCAGT'
p1995
I25250
sS'GCCCGA'
p1996
I14311
sS'GCCCGG'
p1997
I43206
sS'TGCGAT'
p1998
I4539
sS'CTTCAC'
p1999
I25291
sS'CTTCAA'
p2000
I23365
sS'TACCGT'
p2001
I3464
sS'TCCGAG'
p2002
I12679
sS'TCCGAA'
p2003
I6354
sS'TCCGAC'
p2004
I6202
sS'AATTCA'
p2005
I25041
sS'AATTCC'
p2006
I25583
sS'AATTCG'
p2007
I4237
sS'TCCGAT'
p2008
I4069
sS'NNNGAT'
p2009
I1
sS'TAGCGG'
p2010
I6036
sS'AATTCT'
p2011
I27978
sS'NNCCCC'
p2012
I1
sS'TAGCGC'
p2013
I5420
sS'GTCATC'
p2014
I18552
sS'GTCATA'
p2015
I11534
sS'GTCATG'
p2016
I18422
sS'ATCTCT'
p2017
I28073
sS'AGCAGG'
p2018
I50385
sS'CCAGGT'
p2019
I36902
sS'TTGGAA'
p2020
I31149
sS'TTGGAG'
p2021
I31460
sS'AGCAGA'
p2022
I40702
sS'GTCATT'
p2023
I21845
sS'CCAGGG'
p2024
I64939
sS'AGCAGT'
p2025
I27462
sS'CCAGGA'
p2026
I60878
sS'CCAGGC'
p2027
I73504
sS'TTGGAT'
p2028
I16818
sS'ACGGTA'
p2029
I3458
sS'CATCTG'
p2030
I33046
sS'ACGGTC'
p2031
I5516
sS'CATCTA'
p2032
I15302
sS'ATAGAC'
p2033
I8903
sS'CATCTC'
p2034
I31238
sS'CAAGCT'
p2035
I23899
sS'TCCAAC'
p2036
I18262
sS'GGGGTC'
p2037
I28125
sS'GATCGT'
p2038
I3458
sS'CATCTT'
p2039
I27571
sS'CAAGCA'
p2040
I26575
sS'ACGGTT'
p2041
I4913
sS'CCTGGC'
p2042
I65522
sS'GTTCTT'
p2043
I23442
sS'ACATGA'
p2044
I20236
sS'CGTAAT'
p2045
I3215
sS'ACATGC'
p2046
I18808
sS'TCTTGA'
p2047
I22750
sS'ACATGG'
p2048
I23391
sS'CCCGCT'
p2049
I22802
sS'GTACAT'
p2050
I10632
sS'TGGCGG'
p2051
I23459
sS'CGTAAG'
p2052
I4165
sS'GAGTCA'
p2053
I37163
sS'ACATGT'
p2054
I18806
sS'GTTCTA'
p2055
I12704
sS'CGTAAA'
p2056
I4598
sS'AGGGAG'
p2057
I68045
sS'ACGGAA'
p2058
I8475
sS'CCCGCC'
p2059
I70508
sS'AGACGC'
p2060
I11613
sS'CCCGCA'
p2061
I20168
sS'AAACTA'
p2062
I19108
sS'AGCGCA'
p2063
I11463
sS'GTTGTT'
p2064
I19453
sS'ATCCTT'
p2065
I21587
sS'TTGTCG'
p2066
I4229
sS'TTGTCC'
p2067
I20584
sS'TTGTCA'
p2068
I20946
sS'ATCCTC'
p2069
I24688
sS'GTTGTA'
p2070
I10585
sS'ATCCTA'
p2071
I13306
sS'GTTGTC'
p2072
I13001
sS'ATCCTG'
p2073
I28525
sS'GTTGTG'
p2074
I18094
sS'TTGTCT'
p2075
I26011
sS'CTATGC'
p2076
I10425
sS'TGACTA'
p2077
I15028
sS'AAGGGG'
p2078
I37290
sS'TGACTC'
p2079
I37176
sS'TGGGCA'
p2080
I41047
sS'TGGGCG'
p2081
I25365
sS'TGACTG'
p2082
I26984
sS'AAGCCG'
p2083
I13019
sS'AAGCCC'
p2084
I31948
sS'AAGCCA'
p2085
I35239
sS'CAAAAT'
p2086
I31405
sS'ACGCGG'
p2087
I10614
sS'TGGGCT'
p2088
I41577
sS'CAAAAC'
p2089
I28969
sS'CAAAAA'
p2090
I43470
sS'AAGCCT'
p2091
I29925
sS'CAAAAG'
p2092
I31000
sS'TCAATG'
p2093
I15097
sS'CCCTTA'
p2094
I16063
sS'TCAATC'
p2095
I11351
sS'TCAATA'
p2096
I13399
sS'CAGTTC'
p2097
I25532
sS'GACCCG'
p2098
I14714
sS'CAGTTG'
p2099
I20622
sS'GACCCC'
p2100
I28115
sS'CTCTGT'
p2101
I45561
sS'TCAATT'
p2102
I15126
sS'TGGCGT'
p2103
I9820
sS'CTCTGC'
p2104
I55718
sS'GACCCT'
p2105
I24171
sS'CTCTGA'
p2106
I40393
sS'ACAATC'
p2107
I12690
sS'CTCTGG'
p2108
I53758
sS'CAGTTT'
p2109
I33518
sS'GCGAAG'
p2110
I10539
sS'ACGTTC'
p2111
I6074
sS'TGCTGG'
p2112
I52701
sS'TGCTGA'
p2113
I35144
sS'GAGTCT'
p2114
I24225
sS'GCGAAA'
p2115
I6718
sS'AGCTGC'
p2116
I43921
sS'GCTGGT'
p2117
I31858
sS'GTGATT'
p2118
I20524
sS'ACGTTA'
p2119
I4105
sS'TGCTGT'
p2120
I36259
sS'AGCTGA'
p2121
I35163
sS'GCCCTT'
p2122
I31119
sS'ATGCGG'
p2123
I6782
sS'GTGATG'
p2124
I22220
sS'CTACTG'
p2125
I18785
sS'GTGATC'
p2126
I15906
sS'GCTGGC'
p2127
I45349
sS'GTGATA'
p2128
I10992
sS'GCTGGA'
p2129
I47937
sS'TGATAA'
p2130
I16158
sS'TGATAC'
p2131
I9212
sS'TGATAG'
p2132
I10696
sS'CTTGTT'
p2133
I25323
sS'GACGGT'
p2134
I6412
sS'GCTAGG'
p2135
I17890
sS'GCTAGA'
p2136
I14603
sS'ATGAAT'
p2137
I26206
sS'GCTAGC'
p2138
I10690
sS'AAGGGT'
p2139
I21028
sS'TGATAT'
p2140
I12564
sS'GCTAGT'
p2141
I9689
sS'ATGAAC'
p2142
I15566
sS'GACGGG'
p2143
I15236
sS'ATGAAA'
p2144
I33592
sS'GACGGA'
p2145
I9876
sS'ATGAAG'
p2146
I25095
sS'GACGGC'
p2147
I11867
sS'CTTGTC'
p2148
I20962
sS'CAAAGA'
p2149
I33542
sS'GNCCGC'
p2150
I1
sS'CCATAG'
p2151
I12254
sS'GGTGAA'
p2152
I23469
sS'GGTGAC'
p2153
I25350
sS'GCGTCT'
p2154
I11614
sS'GACTGT'
p2155
I19927
sS'GGTGAG'
p2156
I36934
sS'GGAATG'
p2157
I32177
sS'AGCCCT'
p2158
I41686
sS'GGCTAA'
p2159
I15348
sS'GGAATC'
p2160
I20008
sS'GGAATA'
p2161
I16032
sS'ACTGTA'
p2162
I17559
sS'GCGTCC'
p2163
I16633
sS'GGTGAT'
p2164
I18371
sS'GCGTCG'
p2165
I7192
sS'GTGGCC'
p2166
I37434
sS'GGAATT'
p2167
I25584
sS'CGTCCC'
p2168
I18262
sS'CGTCCA'
p2169
I9198
sS'TTTCGA'
p2170
I4576
sS'CCGTAT'
p2171
I3152
sS'GAAGTC'
p2172
I21877
sS'GAAGTA'
p2173
I15876
sS'GAAGTG'
p2174
I30295
sS'GCCGTA'
p2175
I4060
sS'CCGTAC'
p2176
I3386
sS'CCGTAA'
p2177
I4014
sS'CCGTAG'
p2178
I5347
sS'CAAAGT'
p2179
I29744
sS'CTAAAA'
p2180
I26486
sS'CCCTCC'
p2181
I83640
sS'GAAGTT'
p2182
I22686
sS'GGCGCG'
p2183
I34322
sS'ATGCCC'
p2184
I20883
sS'TTAGTT'
p2185
I15683
sS'TATTAG'
p2186
I11553
sS'GGCGCC'
p2187
I37670
sS'TATTAA'
p2188
I20149
sS'GGCGCA'
p2189
I17985
sS'TATTAC'
p2190
I11464
sS'ACTATG'
p2191
I12155
sS'CAACGG'
p2192
I6228
sS'TTTAAG'
p2193
I25564
sS'ACTATC'
p2194
I7772
sS'TTTAAA'
p2195
I55607
sS'ACTATA'
p2196
I8870
sS'TTTAAC'
p2197
I19009
sS'TATTAT'
p2198
I19390
sS'TTAGTG'
p2199
I14087
sS'GGCGCT'
p2200
I23614
sS'TTAGTC'
p2201
I12910
sS'ATGCCT'
p2202
I24816
sS'TTAGTA'
p2203
I12808
sS'TTTAAT'
p2204
I29534
sS'ACTATT'
p2205
I13890
sS'GGGCAT'
p2206
I20881
sS'AAAGAC'
p2207
I25059
sS'TTCTAG'
p2208
I21172
sS'TTTCCA'
p2209
I44783
sS'TTTCCC'
p2210
I48785
sS'GTACGT'
p2211
I3361
sS'GTTTGT'
p2212
I26843
sS'TCAGNN'
p2213
I1
sS'TTTCCT'
p2214
I61411
sS'GGGCAG'
p2215
I65774
sS'CCTGGA'
p2216
I52588
sS'GGGCAA'
p2217
I27200
sS'GGGCAC'
p2218
I30539
sS'GTACGG'
p2219
I3384
sS'GTTTGA'
p2220
I19981
sS'GTTTGG'
p2221
I24280
sS'GTACGA'
p2222
I2159
sS'CCGCTC'
p2223
I23323
sS'GCATGT'
p2224
I18798
sS'CCGCTA'
p2225
I6035
sS'CCGCTG'
p2226
I24848
sS'GCGCGG'
p2227
I36860
sS'GCGCGC'
p2228
I37146
sS'GTAAAC'
p2229
I15529
sS'GCGCGA'
p2230
I10629
sS'GCATGG'
p2231
I21615
sS'TGGATC'
p2232
I15509
sS'GCATGC'
p2233
I18937
sS'CCGCTT'
p2234
I12842
sS'GCATGA'
p2235
I19723
sS'GTCGAC'
p2236
I2713
sS'GTCGAA'
p2237
I3122
sS'GTCGAG'
p2238
I5578
sS'CGTGGC'
p2239
I17734
sS'GAGCTA'
p2240
I15332
sS'TGCGCT'
p2241
I11468
sS'GAGCTC'
p2242
I32212
sS'ATTGAT'
p2243
I11636
sS'TGTCCT'
p2244
I32841
sS'AAACGA'
p2245
I7470
sS'AAACGC'
p2246
I9025
sS'GTAACA'
p2247
I13938
sS'CACGCG'
p2248
I10220
sS'AAACGG'
p2249
I9165
sS'ATTGAA'
p2250
I17013
sS'TGCGCG'
p2251
I14299
sS'TGTCCA'
p2252
I25708
sS'GAGGGA'
p2253
I56036
sS'TGTCCG'
p2254
I8562
sS'TGCGCC'
p2255
I18000
sS'ATTGAG'
p2256
I15868
sS'CGCTGA'
p2257
I12795
sS'CACGCA'
p2258
I12903
sS'AAACGT'
p2259
I8579
sS'TGGGTT'
p2260
I26255
sS'ATTTCA'
p2261
I34128
sS'ATTTCC'
p2262
I34892
sS'ATCAGT'
p2263
I16208
sS'ATCGGG'
p2264
I5450
sS'CATAGT'
p2265
I12152
sS'ATCGGC'
p2266
I4715
sS'CCGTGT'
p2267
I10279
sS'ATCGGA'
p2268
I4065
sS'ATTTCT'
p2269
I39657
sS'CGATCA'
p2270
I3481
sS'TGGGTC'
p2271
I24321
sS'TGGGTA'
p2272
I16819
sS'CATAGG'
p2273
I12276
sS'ATCGGT'
p2274
I3089
sS'ATCAGG'
p2275
I20072
sS'CATAGC'
p2276
I13047
sS'CATAGA'
p2277
I13334
sS'ACGGGT'
p2278
I5912
sS'CCTGGT'
p2279
I34832
sS'GATTCT'
p2280
I21929
sS'CTTTTG'
p2281
I30986
sS'TACTAG'
p2282
I8115
sS'CTTTTC'
p2283
I42612
sS'CTTTTA'
p2284
I28704
sS'GATTCC'
p2285
I19996
sS'ACGGGG'
p2286
I15265
sS'ACGGGA'
p2287
I10487
sS'ACGGGC'
p2288
I10886
sS'GGGGGN'
p2289
I1
sS'TACTAT'
p2290
I9948
sS'CTTTTT'
p2291
I50354
sS'CGTAGA'
p2292
I4137
sS'TCACGA'
p2293
I5809
sS'TCACGC'
p2294
I11537
sS'TCACGG'
p2295
I9895
sS'GCAGCC'
p2296
I57497
sS'TCTCAT'
p2297
I25314
sS'TCACGT'
p2298
I9665
sS'TTCCAC'
p2299
I28764
sS'TTCCAA'
p2300
I31164
sS'TTCCAG'
p2301
I47226
sS'CGAGGC'
p2302
I23332
sS'ACCCTT'
p2303
I21040
sS'TGAAGT'
p2304
I23901
sS'ATGCTT'
p2305
I21166
sS'TTCCAT'
p2306
I29188
sS'ACCCTA'
p2307
I13047
sS'TGAAGA'
p2308
I30811
sS'TGAAGG'
p2309
I30801
sS'ACCCTG'
p2310
I36295
sS'CTGACT'
p2311
I31801
sS'CCCCTT'
p2312
I37279
sS'AGTTAT'
p2313
I14376
sS'GCGTTA'
p2314
I3671
sS'CTGACC'
p2315
I30895
sS'CTGACA'
p2316
I26680
sS'AGTTAA'
p2317
I18839
sS'CCCCTG'
p2318
I49387
sS'AGTTAC'
p2319
I14046
sS'CCCCTC'
p2320
I62404
sS'AGTTAG'
p2321
I13560
sS'CCCCTA'
p2322
I18917
sS'ACACAG'
p2323
I41992
sS'ACACAA'
p2324
I27184
sS'ACACAC'
p2325
I62582
sS'AATGTT'
p2326
I26904
sS'CTGCAG'
p2327
I65793
sS'CATGGG'
p2328
I24439
sS'CTGCAC'
p2329
I34206
sS'CATGGC'
p2330
I25914
sS'AATGTC'
p2331
I19706
sS'ACACAT'
p2332
I26066
sS'AATGTA'
p2333
I19233
sS'AATGTG'
p2334
I27006
sS'GCACAC'
p2335
I25716
sS'CTGCAT'
p2336
I26675
sS'GCACAG'
p2337
I37510
sS'ATGCTG'
p2338
I28828
sS'ATGTTC'
p2339
I16707
sS'CGAGAT'
p2340
I7089
sS'ATTACT'
p2341
I15960
sS'CACAAT'
p2342
I18710
sS'ACATTG'
p2343
I16641
sS'ACATTA'
p2344
I15788
sS'ACATTC'
p2345
I23449
sS'GTTCGA'
p2346
I4848
sS'ATGCTC'
p2347
I17455
sS'ATTACC'
p2348
I10811
sS'CGAGAC'
p2349
I10895
sS'GTTCGG'
p2350
I6183
sS'AAGTCT'
p2351
I22834
sS'GCTATT'
p2352
I14026
sS'GGACAT'
p2353
I17002
sS'CAGCGT'
p2354
I12994
sS'NNNNCC'
p2355
I1
sS'GCTATA'
p2356
I7826
sS'GCTATC'
p2357
I7716
sS'ACGCCT'
p2358
I13052
sS'AAGTCA'
p2359
I27221
sS'GCTATG'
p2360
I13053
sS'AAGTCC'
p2361
I23024
sS'GGACAG'
p2362
I37219
sS'GGACAC'
p2363
I24452
sS'GGACAA'
p2364
I20596
sS'CTAATT'
p2365
I17138
sS'AGGGTT'
p2366
I23211
sS'GAGGCG'
p2367
I34282
sS'TGTTGG'
p2368
I24764
sS'GAGGCA'
p2369
I42423
sS'TGTTGA'
p2370
I21517
sS'GAGGCC'
p2371
I51708
sS'TGTTGC'
p2372
I21914
sS'TCCAAG'
p2373
I30164
sS'ACTCGA'
p2374
I4969
sS'TAAAAT'
p2375
I39460
sS'ACTCGC'
p2376
I8315
sS'ACTCGG'
p2377
I11315
sS'TGTTGT'
p2378
I22754
sS'GAGGCT'
p2379
I47666
sS'AGCGCC'
p2380
I23617
sS'AGGGTG'
p2381
I37460
sS'AGGGTA'
p2382
I14601
sS'AGCGCG'
p2383
I16773
sS'AGGGTC'
p2384
I24167
sS'TAAAAG'
p2385
I28762
sS'ACTCGT'
p2386
I4546
sS'TAAAAC'
p2387
I24190
sS'TAAAAA'
p2388
I50622
sS'CTACTC'
p2389
I16099
sS'TAGGGA'
p2390
I20138
sS'CTACTA'
p2391
I10620
sS'TAGGGC'
p2392
I15397
sS'ACGTTG'
p2393
I5939
sS'AGCTGG'
p2394
I53310
sS'TAGGGG'
p2395
I18921
sS'TAAATG'
p2396
I27306
sS'AGTGCG'
p2397
I9155
sS'AGTGCA'
p2398
I24920
sS'AGAGTT'
p2399
I24092
sS'AGTGCC'
p2400
I25930
sS'AAAACC'
p2401
I28312
sS'TAGGGT'
p2402
I13063
sS'GCTTGG'
p2403
I29696
sS'AGCTGT'
p2404
I32119
sS'CTACTT'
p2405
I17611
sS'AGTGCT'
p2406
I29752
sS'AGAGTC'
p2407
I22986
sS'AGAGTA'
p2408
I15479
sS'AGAGTG'
p2409
I28942
sS'TTCGTA'
p2410
I3359
sS'GTTAAA'
p2411
I19008
sS'GCACCA'
p2412
I24564
sS'GTTAAC'
p2413
I10178
sS'GTCTGT'
p2414
I25981
sS'CCTGGG'
p2415
I83269
sS'GTTAAG'
p2416
I13690
sS'AGCCCG'
p2417
I23030
sS'TTCGTC'
p2418
I5159
sS'CTAATC'
p2419
I10301
sS'GTCTGG'
p2420
I31294
sS'GTCTGC'
p2421
I23869
sS'GTTAAT'
p2422
I13780
sS'GTCTGA'
p2423
I22059
sS'GCGGNC'
p2424
I1
sS'TCTAAA'
p2425
I22444
sS'CCGGTC'
p2426
I10824
sS'GGAAGG'
p2427
I62438
sS'CCACAT'
p2428
I25201
sS'GGAAGC'
p2429
I42362
sS'CTAATG'
p2430
I13589
sS'GGAAGA'
p2431
I46621
sS'TGTATT'
p2432
I23725
sS'CAATGA'
p2433
I20748
sS'GCGTTC'
p2434
I8437
sS'CAATGC'
p2435
I15484
sS'GCGTTG'
p2436
I7154
sS'CAATGG'
p2437
I18484
sS'CCACAG'
p2438
I46497
sS'GGAAGT'
p2439
I33271
sS'CCACAC'
p2440
I34741
sS'ATGCTA'
p2441
I12811
sS'ATTTGT'
p2442
I27997
sS'TCCTCG'
p2443
I15328
sS'TGTATG'
p2444
I16358
sS'TCCTCA'
p2445
I38009
sS'GCGTTT'
p2446
I9027
sS'TCCTCC'
p2447
I69857
sS'TGTATC'
p2448
I12070
sS'GTGAAT'
p2449
I19312
sS'TAACCG'
p2450
I3612
sS'TCATAG'
p2451
I14078
sS'TTCGTG'
p2452
I6626
sS'TCATAA'
p2453
I16933
sS'TAACCC'
p2454
I12950
sS'TCATAC'
p2455
I10548
sS'TAACCA'
p2456
I15692
sS'ACCGCT'
p2457
I8274
sS'TCGCGA'
p2458
I4343
sS'TGCATG'
p2459
I22893
sS'TCAGGA'
p2460
I38293
sS'TTCGTT'
p2461
I6275
sS'TCATAT'
p2462
I14746
sS'TAACCT'
p2463
I15179
sS'CGTTAT'
p2464
I3358
sS'GTGAAA'
p2465
I28676
sS'GTGAAC'
p2466
I15314
sS'AGCAGC'
p2467
I49792
sS'AACCCG'
p2468
I10595
sS'ACCGCG'
p2469
I11436
sS'ACCGCA'
p2470
I9096
sS'AACGAG'
p2471
I6666
sS'ACCGCC'
p2472
I16652
sS'AGTTCC'
p2473
I24156
sS'CCGCCT'
p2474
I35658
sS'AGGCTT'
p2475
I29941
sS'CCTTCT'
p2476
I44580
sS'GGGACG'
p2477
I18254
sS'TGTCGC'
p2478
I8143
sS'GTTGCC'
p2479
I19597
sS'GTGCCG'
p2480
I11258
sS'GTGCCA'
p2481
I25906
sS'GTTGCG'
p2482
I5531
sS'GTGCCC'
p2483
I30536
sS'CCTTCA'
p2484
I30759
sS'AGGCTA'
p2485
I16125
sS'CCTTCC'
p2486
I62420
sS'AGGCTC'
p2487
I35505
sS'CCGCCC'
p2488
I67873
sS'TGTCGA'
p2489
I3298
sS'CCTTCG'
p2490
I11076
sS'AGGCTG'
p2491
I67208
sS'GTGCCT'
p2492
I29485
sS'CAGCGA'
p2493
I13295
sS'GTTGCT'
p2494
I20818
sS'NNNGCG'
p2495
I1
sS'GGATAT'
p2496
I10942
sS'TCGGGT'
p2497
I8016
sS'AAACCT'
p2498
I25767
sS'GCAGTT'
p2499
I23874
sS'GAAGCT'
p2500
I29866
sS'GGATAA'
p2501
I13125
sS'TCGGGA'
p2502
I12229
sS'NNNNNG'
p2503
I6
sS'TCGGGG'
p2504
I18407
sS'GGATAG'
p2505
I10550
sS'GAAGCG'
p2506
I14593
sS'GCAGTG'
p2507
I42796
sS'GAAGCC'
p2508
I35641
sS'GCAGTA'
p2509
I15460
sS'GAAGCA'
p2510
I31810
sS'GCAGTC'
p2511
I21975
sS'CGCCCG'
p2512
I32412
sS'GAGAGA'
p2513
I52142
sS'GAGAGG'
p2514
I55649
sS'CGCCCA'
p2515
I25370
sS'ACGTAA'
p2516
I4646
sS'CTATAG'
p2517
I8166
sS'NNNNNN'
p2518
I1689
sS'ACGCAC'
p2519
I9105
sS'GCATTA'
p2520
I12131
sS'CTCGCA'
p2521
I9623
sS'CGCCCT'
p2522
I27256
sS'GAGAGT'
p2523
I22339
sS'GTCTCG'
p2524
I10893
sS'CTATAT'
p2525
I9472
sS'AACTGA'
p2526
I25786
sS'GCCGGG'
p2527
I47209
sS'AGCATC'
p2528
I20659
sS'TACCCG'
p2529
I5600
sS'GCCGGC'
p2530
I32876
sS'CATGTT'
p2531
I22720
sS'GCCGGA'
p2532
I17609
sS'AGATCT'
p2533
I18681
sS'AACTGC'
p2534
I23874
sS'GCCACT'
p2535
I32097
sS'CATGTA'
p2536
I14465
sS'GTTGCA'
p2537
I17358
sS'CATGTC'
p2538
I17326
sS'GCCGGT'
p2539
I11308
sS'CATGTG'
p2540
I26777
sS'ATTAAC'
p2541
I13780
sS'GGCCTG'
p2542
I54520
sS'GGCGGA'
p2543
I26903
sS'GGCCTC'
p2544
I51723
sS'NNGCGC'
p2545
I1
sS'GGCCTA'
p2546
I13853
sS'AATCGG'
p2547
I4878
sS'AATCGC'
p2548
I5661
sS'AATCGA'
p2549
I3615
sS'TTCCCA'
p2550
I47738
sS'TCACTG'
p2551
I38631
sS'TCACTA'
p2552
I14747
sS'TCACTC'
p2553
I27546
sS'AATCGT'
p2554
I3853
sS'TCGAGG'
p2555
I9190
sS'AGCCGA'
p2556
I12731
sS'CCGCCG'
p2557
I41025
sS'AGCCGC'
p2558
I24429
sS'TAATTG'
p2559
I13210
sS'AAAAAT'
p2560
I58642
sS'AGCCGG'
p2561
I24533
sS'GTTTTT'
p2562
I37582
sS'TGGTGA'
p2563
I30304
sS'GATGGA'
p2564
I24254
sS'TGGTGC'
p2565
I24563
sS'GATGGC'
p2566
I22335
sS'GGGCTG'
p2567
I66314
sS'TGGTGG'
p2568
I40944
sS'GATGGG'
p2569
I29737
sS'AAAAAA'
p2570
I159022
sS'CAGCTG'
p2571
I56714
sS'AAAAAC'
p2572
I37603
sS'GGGCTC'
p2573
I43306
sS'GTTTTG'
p2574
I28946
sS'TTCCCG'
p2575
I18770
sS'AAAAAG'
p2576
I50376
sS'TGACAG'
p2577
I28275
sS'CCAAGG'
p2578
I38998
sS'ACGTAT'
p2579
I3583
sS'TCTCAG'
p2580
I41500
sS'TCTCAA'
p2581
I28937
sS'TGGTGT'
p2582
I24356
sS'CCAAGA'
p2583
I31662
sS'ATTCGT'
p2584
I4144
sS'AGAACT'
p2585
I25857
sS'CCGCCA'
p2586
I23460
sS'TACCAT'
p2587
I12116
sS'AGATAG'
p2588
I13915
sS'CACTGT'
p2589
I31655
sS'ACCCGA'
p2590
I8013
sS'ATGTCT'
p2591
I21166
sS'ACCCGC'
p2592
I16564
sS'AGATAA'
p2593
I21855
sS'TACCAC'
p2594
I12960
sS'AGAACG'
p2595
I8451
sS'TACCAA'
p2596
I13165
sS'AGAACA'
p2597
I30101
sS'TACCAG'
p2598
I15851
sS'AGAACC'
p2599
I22296
sS'ATGTCA'
p2600
I21488
sS'CACTGG'
p2601
I35618
sS'CCTATG'
p2602
I12267
sS'ATCACG'
p2603
I6593
sS'CCTATA'
p2604
I8728
sS'CACTGC'
p2605
I42793
sS'CCTATC'
p2606
I10814
sS'CACTGA'
p2607
I30924
sS'TAGGTT'
p2608
I12626
sS'GTTTAC'
p2609
I15524
sS'AATTAT'
p2610
I21293
sS'CTGTTG'
p2611
I26977
sS'TGCTAT'
p2612
I14968
sS'CTGTTC'
p2613
I26144
sS'CGGGTT'
p2614
I10583
sS'CTGTTA'
p2615
I18020
sS'AATTAC'
p2616
I15547
sS'TACATG'
p2617
I14467
sS'AATTAA'
p2618
I24666
sS'CATGGA'
p2619
I23195
sS'TAGGTA'
p2620
I10178
sS'TAGGTC'
p2621
I10617
sS'CGGGTC'
p2622
I14723
sS'CTGTTT'
p2623
I40043
sS'CGGGTA'
p2624
I5596
sS'CGGGTG'
p2625
I18278
sS'GGGTAC'
p2626
I9486
sS'CTTCGG'
p2627
I11241
sS'CACACT'
p2628
I28683
sS'TGGATG'
p2629
I24461
sS'TTAGGG'
p2630
I17439
sS'ATATAT'
p2631
I21717
sS'AGCAAC'
p2632
I20813
sS'TTAGGC'
p2633
I12636
sS'AAAGCT'
p2634
I29274
sS'TTAGGA'
p2635
I19859
sS'AAAGCA'
p2636
I40210
sS'ATATAG'
p2637
I9461
sS'TTAGGT'
p2638
I13437
sS'ATATAA'
p2639
I17305
sS'AGCAAT'
p2640
I20373
sS'ATATAC'
p2641
I10185
sS'ATAGCA'
p2642
I14945
sS'ATAGCC'
p2643
I10443
sS'TACTTG'
p2644
I15379
sS'ATAGCG'
p2645
I3345
sS'CAGCGC'
p2646
I27073
sS'ACGGCT'
p2647
I8855
sS'ATAGCT'
p2648
I13847
sS'TACTTT'
p2649
I23242
sS'CATGCG'
p2650
I8140
sS'GTTTTC'
p2651
I32080
sS'CGAGTT'
p2652
I6351
sS'TCCAAT'
p2653
I15476
sS'CGTACT'
p2654
I3197
sS'TCCCGT'
p2655
I10486
sS'TATGCT'
p2656
I12534
sS'CTTAAG'
p2657
I17567
sS'ACATAA'
p2658
I17749
sS'CTTAAA'
p2659
I25569
sS'ACATAG'
p2660
I14048
sS'CTTAAC'
p2661
I13687
sS'CGTACA'
p2662
I3550
sS'CGAGTG'
p2663
I9360
sS'CGAGTA'
p2664
I4220
sS'CGAGTC'
p2665
I9220
sS'AGGGGA'
p2666
I47492
sS'CTTAAT'
p2667
I15518
sS'AGGGGC'
p2668
I48194
sS'TATGCA'
p2669
I14462
sS'ACATAT'
p2670
I15779
sS'CGTTTG'
p2671
I7910
sS'CGACTT'
p2672
I6065
sS'TGAATT'
p2673
I25072
sS'TTGTAA'
p2674
I20442
sS'TTGTAC'
p2675
I10956
sS'GTACCT'
p2676
I11098
sS'TTGTAG'
p2677
I15987
sS'TGAATC'
p2678
I20131
sS'GATTGG'
p2679
I17095
sS'TGAATA'
p2680
I19542
sS'GGATAC'
p2681
I8699
sS'TGAATG'
p2682
I28651
sS'CACACA'
p2683
I74120
sS'CGACTG'
p2684
I7799
sS'TTGTAT'
p2685
I17663
sS'ATCGTG'
p2686
I5232
sS'TTATCG'
p2687
I2638
sS'GCTTCA'
p2688
I24864
sS'GCTTCC'
p2689
I42348
sS'TGGGAG'
p2690
I60564
sS'TGGGAA'
p2691
I47777
sS'TGGGAC'
p2692
I27700
sS'GCTTCT'
p2693
I35052
sS'ATCGTT'
p2694
I3779
sS'ACAACG'
p2695
I5205
sS'TGGGAT'
p2696
I30227
sS'CTAGCC'
p2697
I15545
sS'CTAGCA'
p2698
I15218
sS'CTAGCG'
p2699
I6204
sS'CGGTAG'
p2700
I5611
sS'ACTTAG'
p2701
I14880
sS'ACTTAA'
p2702
I18716
sS'CGGTAC'
p2703
I3506
sS'ACTTAC'
p2704
I13174
sS'CGGTAA'
p2705
I4394
sS'GACCAG'
p2706
I27792
sS'GACCAC'
p2707
I18381
sS'CTAGCT'
p2708
I15885
sS'TACACC'
p2709
I10144
sS'CGGTAT'
p2710
I2690
sS'TACACA'
p2711
I22834
sS'TACACG'
p2712
I4772
sS'GCGAGA'
p2713
I12731
sS'GAGAGC'
p2714
I32890
sS'GCGAGC'
p2715
I16482
sS'GCTGAG'
p2716
I52152
sS'GCGAGG'
p2717
I23730
sS'CAGCCG'
p2718
I25806
sS'CAGCCA'
p2719
I52296
sS'CAGCCC'
p2720
I66311
sS'GCGAGT'
p2721
I8312
sS'GAACTG'
p2722
I25544
sS'GAACTC'
p2723
I21689
sS'GAACTA'
p2724
I12090
sS'GGACTT'
p2725
I23027
sS'CACCTA'
p2726
I16766
sS'AACTAT'
p2727
I12541
sS'CACCTC'
p2728
I40660
sS'CACCTG'
p2729
I41419
sS'TGATCC'
p2730
I16818
sS'AACACT'
p2731
I22971
sS'TGATCA'
p2732
I15052
sS'TGATCG'
p2733
I3480
sS'AACTAG'
p2734
I12766
sS'GGACTG'
p2735
I28617
sS'CACCTT'
p2736
I27108
sS'AACTAC'
p2737
I12260
sS'GGACTC'
p2738
I24710
sS'AACGAT'
p2739
I3785
sS'AACACG'
p2740
I8160
sS'AACACA'
p2741
I32765
sS'AACACC'
p2742
I19255
sS'TGATCT'
p2743
I19807
sS'CGTCAA'
p2744
I4283
sS'GCATTC'
p2745
I19631
sS'CAACAG'
p2746
I26975
sS'GACAGT'
p2747
I19995
sS'CAACAA'
p2748
I23291
sS'AAAGAA'
p2749
I57992
sS'CAACAC'
p2750
I20227
sS'GCTGAT'
p2751
I19372
sS'CTATAA'
p2752
I12225
sS'GACAGG'
p2753
I34091
sS'CAACAT'
p2754
I20364
sS'GACAGC'
p2755
I27700
sS'GACAGA'
p2756
I35009
sS'GTATTA'
p2757
I10685
sS'GTATTC'
p2758
I10614
sS'GTAAGT'
p2759
I13174
sS'CCAGCG'
p2760
I24279
sS'AGAGGT'
p2761
I29302
sS'GGTGGC'
p2762
I44275
sS'TCCCCT'
p2763
I47484
sS'GGTGGA'
p2764
I34600
sS'TATCTT'
p2765
I17825
sS'GGTGGG'
p2766
I60474
sS'NNNGAA'
p2767
I5
sS'AGAGGC'
p2768
I45632
sS'GTAAGA'
p2769
I15022
sS'AGAGGA'
p2770
I49160
sS'GTAAGC'
p2771
I10667
sS'GTATTT'
p2772
I26494
sS'ACCGAG'
p2773
I10658
sS'GTAAGG'
p2774
I13796
sS'TATCTA'
p2775
I11163
sS'TATCTC'
p2776
I15673
sS'TCCCCC'
p2777
I43426
sS'GGTGGT'
p2778
I26666
sS'TCCCCA'
p2779
I53741
sS'GTCCGG'
p2780
I12552
sS'GTCGCA'
p2781
I5341
sS'GTCGCC'
p2782
I13123
sS'TCGGTC'
p2783
I6578
sS'TCGGTA'
p2784
I3172
sS'CTCGCG'
p2785
I13406
sS'TCGGTG'
p2786
I9034
sS'GTCGCT'
p2787
I8200
sS'CCGTCG'
p2788
I6429
sS'CCGTCA'
p2789
I7737
sS'CCGTCC'
p2790
I15896
sS'GGCTGT'
p2791
I36269
sS'CGCGTG'
p2792
I10225
sS'GCATTT'
p2793
I30330
sS'CGCGTC'
p2794
I10736
sS'CGCGTA'
p2795
I2434
sS'CCACTG'
p2796
I41126
sS'CCACTA'
p2797
I16142
sS'CCACTC'
p2798
I31677
sS'CGCGTT'
p2799
I5401
sS'GGCTGG'
p2800
I75940
sS'GGCTGA'
p2801
I41950
sS'GGCTGC'
p2802
I57509
sS'ATGCAT'
p2803
I18313
sS'TTTAGA'
p2804
I22446
sS'ATGACG'
p2805
I6184
sS'GGAGTT'
p2806
I28080
sS'ATGACA'
p2807
I22625
sS'ATGACC'
p2808
I15276
sS'CGGGCC'
p2809
I32643
sS'GGGCCT'
p2810
I43895
sS'ATGACT'
p2811
I26233
sS'GGAGTA'
p2812
I13696
sS'GGAGTC'
p2813
I27156
sS'GGAGTG'
p2814
I35625
sS'GGGCCG'
p2815
I37409
sS'GGGCCC'
p2816
I47477
sS'GGGCCA'
p2817
I38810
sS'GGCAAG'
p2818
I28416
sS'ACGAGT'
p2819
I4546
sS'TTCNNN'
p2820
I4
sS'AGGCCA'
p2821
I41634
sS'AGGCCC'
p2822
I43894
sS'AAAGTC'
p2823
I23745
sS'GCGCAG'
p2824
I26783
sS'ACGAGG'
p2825
I10955
sS'ACGAGC'
p2826
I6353
sS'ACGAGA'
p2827
I6343
sS'CTGATG'
p2828
I24633
sS'AGGCCT'
p2829
I39968
sS'GCTCTA'
p2830
I14837
sS'AGACGG'
p2831
I13298
sS'GGGTTG'
p2832
I22913
sS'GACTAC'
p2833
I9920
sS'GGGTTA'
p2834
I12935
sS'CTCGGG'
p2835
I23978
sS'GGGTTC'
p2836
I21831
sS'NNNCCC'
p2837
I1
sS'TTTGAT'
p2838
I20826
sS'NCACAC'
p2839
I1
sS'ATTCGA'
p2840
I3929
sS'ATTGCT'
p2841
I20371
sS'GGGTTT'
p2842
I27439
sS'TGCGAC'
p2843
I5340
sS'AGATCC'
p2844
I17502
sS'TGCGAG'
p2845
I9635
sS'ATTGCC'
p2846
I15011
sS'ATTCGG'
p2847
I4961
sS'ATTGCA'
p2848
I19372
sS'TTTGGC'
p2849
I24236
sS'AACGGG'
p2850
I8510
sS'TTTGAC'
p2851
I16566
sS'TTTGAA'
p2852
I34836
sS'AAGCAG'
p2853
I39991
sS'CGGGCT'
p2854
I23045
sS'TGACGT'
p2855
I9040
sS'CTCGTC'
p2856
I8592
sS'CCCTGG'
p2857
I64937
sS'CCCTGA'
p2858
I38310
sS'AAGCTT'
p2859
I22232
sS'GATATT'
p2860
I14242
sS'GTGGGC'
p2861
I33338
sS'GTGTAA'
p2862
I14236
sS'CCCTGT'
p2863
I35727
sS'TTGACG'
p2864
I4279
sS'GATATA'
p2865
I8293
sS'AAGCTA'
p2866
I15057
sS'GATATG'
p2867
I10055
sS'AAGCTG'
p2868
I35642
sS'TGACGC'
p2869
I8497
sS'CTCGGA'
p2870
I12676
sS'TACTCT'
p2871
I15483
sS'CATCGT'
p2872
I5421
sS'CAGGGT'
p2873
I36308
sS'CCAGTC'
p2874
I27867
sS'GACACA'
p2875
I28076
sS'CCAGTG'
p2876
I35620
sS'TACTCG'
p2877
I4220
sS'CATCGA'
p2878
I3933
sS'CATCGC'
p2879
I7527
sS'TACTCC'
p2880
I13691
sS'NGAATT'
p2881
I5
sS'TACTCA'
p2882
I18185
sS'CATCGG'
p2883
I5509
sS'CAGGGG'
p2884
I49385
sS'CCAGTT'
p2885
I25419
sS'AAAGTT'
p2886
I27191
sS'AATCTG'
p2887
I23667
sS'CGGACT'
p2888
I8399
sS'GCCATT'
p2889
I20746
sS'AGTCGA'
p2890
I3854
sS'AATCTA'
p2891
I13431
sS'TGAACG'
p2892
I6075
sS'GGGCTT'
p2893
I31945
sS'TCACAA'
p2894
I23433
sS'TCACAG'
p2895
I37740
sS'GCCATA'
p2896
I10549
sS'CGGACG'
p2897
I8285
sS'GCCATC'
p2898
I22342
sS'CGGACA'
p2899
I8562
sS'CGGACC'
p2900
I10986
sS'GCCATG'
p2901
I25908
sS'TTTTAA'
p2902
I52647
sS'CGCNNN'
p2903
I1
sS'TCACAT'
p2904
I24353
sS'CACGGA'
p2905
I11158
sS'ATTAAA'
p2906
I29521
sS'ATTAAG'
p2907
I15516
sS'CTTACA'
p2908
I16711
sS'TCACTT'
p2909
I31393
sS'TCCACG'
p2910
I12182
sS'CAGNNN'
p2911
I1
sS'GTGNNN'
p2912
I1
sS'GTGCAG'
p2913
I34182
sS'CGGCCA'
p2914
I19957
sS'ATTAAT'
p2915
I18677
sS'ATCATG'
p2916
I16336
sS'TACCTG'
p2917
I17388
sS'GGTATG'
p2918
I10200
sS'GGTATA'
p2919
I6717
sS'GGTATC'
p2920
I7674
sS'AGTACA'
p2921
I14447
sS'GAACCG'
p2922
I8352
sS'ACGAAT'
p2923
I4141
sS'CTGAAA'
p2924
I37881
sS'CTGAAC'
p2925
I21742
sS'GGAACC'
p2926
I23285
sS'CTGAAG'
p2927
I36547
sS'NNNNGC'
p2928
I1
sS'CCCGAA'
p2929
I10175
sS'CATTGC'
p2930
I18776
sS'CCCGGC'
p2931
I47232
sS'CATTGA'
p2932
I15075
sS'CTAGTT'
p2933
I12763
sS'CATTGG'
p2934
I17245
sS'TCAACT'
p2935
I16876
sS'ACCATC'
p2936
I16493
sS'ACACCG'
p2937
I8569
sS'CTGCCA'
p2938
I45538
sS'CTGCCC'
p2939
I65776
sS'ACACCC'
p2940
I27341
sS'ACACCA'
p2941
I24347
sS'CTGCCG'
p2942
I23828
sS'CTAGTG'
p2943
I16122
sS'TCAACC'
p2944
I14485
sS'TCAACA'
p2945
I21498
sS'CTAGTC'
p2946
I10832
sS'TCAACG'
p2947
I4474
sS'CTAGTA'
p2948
I8103
sS'CATTGT'
p2949
I20192
sS'CCCGGG'
p2950
I47773
sS'ACACCT'
p2951
I22621
sS'CTGCCT'
p2952
I62589
sS'TATCAC'
p2953
I10998
sS'CCTCGT'
p2954
I10962
sS'TATGAA'
p2955
I17911
sS'GAGGAC'
p2956
I28251
sS'AGACTG'
p2957
I28497
sS'CGAGGT'
p2958
I11426
sS'AGACTA'
p2959
I12617
sS'CCTCGG'
p2960
I27059
sS'CCTCGC'
p2961
I23733
sS'CCTCGA'
p2962
I9180
sS'CGAGGA'
p2963
I15331
sS'AGACTT'
p2964
I22823
sS'CGAGGG'
p2965
I20839
sS'CACCGT'
p2966
I10003
sS'ACTTTA'
p2967
I19488
sS'ACTTTG'
p2968
I29726
sS'GACCTG'
p2969
I27332
sS'GTCGCG'
p2970
I7344
sS'ACTAGT'
p2971
I8458
sS'GACCTC'
p2972
I26196
sS'CACCGG'
p2973
I13452
sS'ACGCTG'
p2974
I12991
sS'CACCGA'
p2975
I9027
sS'ACTTTT'
p2976
I32078
sS'GACCTT'
p2977
I20332
sS'CGCCCC'
p2978
I57754
sS'GGACGG'
p2979
I15900
sS'CTATTA'
p2980
I11981
sS'CACAGC'
p2981
I45721
sS'CTTATC'
p2982
I12865
sS'CACAGA'
p2983
I43182
sS'CTTATA'
p2984
I10407
sS'CACAGG'
p2985
I43339
sS'TTAACT'
p2986
I18819
sS'ACTCAT'
p2987
I22942
sS'GAGGAG'
p2988
I68255
sS'GACGTA'
p2989
I3393
sS'CTTGAC'
p2990
I16318
sS'GCATAC'
p2991
I7677
sS'TAAACT'
p2992
I19678
sS'GAGGAA'
p2993
I51261
sS'AGCGAT'
p2994
I6630
sS'TTAACA'
p2995
I19776
sS'ACTCAC'
p2996
I27504
sS'TTAACC'
p2997
I14126
sS'ACTCAA'
p2998
I20086
sS'ACTCAG'
p2999
I35516
sS'CTTATT'
p3000
I19977
sS'CACAGT'
p3001
I31506
sS'AGCGAC'
p3002
I8201
sS'TAAACA'
p3003
I29574
sS'AGCGAA'
p3004
I7557
sS'TAAACC'
p3005
I14207
sS'GACGTT'
p3006
I5813
sS'CGTATT'
p3007
I4075
sS'TAAACG'
p3008
I5248
sS'CTGTGG'
p3009
I46486
sS'GTATGT'
p3010
I13916
sS'AGTTCA'
p3011
I23454
sS'TACTTA'
p3012
I14099
sS'AGTTCG'
p3013
I6218
sS'CTGTGA'
p3014
I37734
sS'GAGCGT'
p3015
I8644
sS'TAGGAC'
p3016
I11746
sS'GCAAAG'
p3017
I31135
sS'TAGGAA'
p3018
I24667
sS'GCAAAA'
p3019
I28098
sS'TAGGAG'
p3020
I21724
sS'GCAAAC'
p3021
I21836
sS'CGGGGC'
p3022
I51245
sS'GTATGG'
p3023
I9056
sS'CTGTGT'
p3024
I41984
sS'CGGGGG'
p3025
I33200
sS'GTATGC'
p3026
I7668
sS'AGTTCT'
p3027
I25855
sS'GCAAAT'
p3028
I22676
sS'TAGGAT'
p3029
I13334
sS'TAATTA'
p3030
I17525
sS'TTCAAT'
p3031
I17010
sS'TGCTTT'
p3032
I40232
sS'GTCTAT'
p3033
I8907
sS'TGGGNC'
p3034
I1
sS'GTAATT'
p3035
I15547
sS'GTTACC'
p3036
I10543
sS'GTTACA'
p3037
I13977
sS'TAATTC'
p3038
I16772
sS'TATCGA'
p3039
I1828
sS'TATCGC'
p3040
I2625
sS'TATAGT'
p3041
I8877
sS'GTCTAA'
p3042
I10343
sS'CAGGAC'
p3043
I34001
sS'GTCTAC'
p3044
I8803
sS'TGCTTC'
p3045
I31836
sS'TTCAAA'
p3046
I34834
sS'TTCAAC'
p3047
I16781
sS'TGCTTG'
p3048
I26584
sS'TATAGC'
p3049
I7825
sS'TATCGT'
p3050
I2326
sS'TATAGA'
p3051
I10693
sS'AGCTCA'
p3052
I32552
sS'TATAGG'
p3053
I8733
sS'GTTACT'
p3054
I14181
sS'GGAAAA'
p3055
I49917
sS'AACCTT'
p3056
I19634
sS'GGGCTA'
p3057
I14373
sS'GCTCTG'
p3058
I50865
sS'CCACGT'
p3059
I14036
sS'CAATAT'
p3060
I13504
sS'AGGACC'
p3061
I24532
sS'GAATGG'
p3062
I25057
sS'GGCTTT'
p3063
I31799
sS'ACTACT'
p3064
I12038
sS'GAATGC'
p3065
I19627
sS'CCACGA'
p3066
I9326
sS'CAATAC'
p3067
I9239
sS'CCACGC'
p3068
I20810
sS'CAATAA'
p3069
I18402
sS'GTTCCG'
p3070
I8516
sS'CAATAG'
p3071
I11608
sS'CCACGG'
p3072
I16854
sS'AACCTA'
p3073
I12617
sS'GGCTTA'
p3074
I14757
sS'ACTACC'
p3075
I9691
sS'GGCTTC'
p3076
I35643
sS'ACTACA'
p3077
I16307
sS'ACTACG'
p3078
I3866
sS'GGCTTG'
p3079
I27948
sS'TCCTAG'
p3080
I21156
sS'TAATTT'
p3081
I31126
sS'CGTTGC'
p3082
I7005
sS'TAACAC'
p3083
I13132
sS'TCCTAC'
p3084
I15821
sS'AGTCAC'
p3085
I29609
sS'TCCTAA'
p3086
I19867
sS'TAACAG'
p3087
I18050
sS'TCATCG'
p3088
I5671
sS'GCATAG'
p3089
I10425
sS'TCATCC'
p3090
I24113
sS'GTTTTA'
p3091
I24160
sS'TCATCA'
p3092
I24121
sS'AGTCAT'
p3093
I26227
sS'TCCTAT'
p3094
I14554
sS'TAACAT'
p3095
I16002
sS'CGTTGT'
p3096
I5202
sS'TAAATA'
p3097
I32813
sS'GAGCGA'
p3098
I12916
sS'CTTTCA'
p3099
I32122
sS'CTTTCG'
p3100
I7689
sS'GCGGGT'
p3101
I16558
sS'AGCCGT'
p3102
I8854
sS'GAGCGC'
p3103
I22231
sS'GTTGAT'
p3104
I11166
sS'CGACCA'
p3105
I5961
sS'CGACCC'
p3106
I12273
sS'CGACCG'
p3107
I5561
sS'CCTTAT'
p3108
I14585
sS'GTTGAC'
p3109
I11399
sS'GTTGAA'
p3110
I16777
sS'ACTGGG'
p3111
I35370
sS'GTTGAG'
p3112
I18015
sS'CCTTAC'
p3113
I13803
sS'CCTTAA'
p3114
I17695
sS'CCTTAG'
p3115
I17668
sS'CGACCT'
p3116
I8194
sS'CAACTC'
p3117
I20700
sS'CAACTA'
p3118
I11204
sS'CAACTG'
p3119
I20630
sS'AATAGG'
p3120
I14408
sS'GATGGT'
p3121
I16504
sS'GGGGTT'
p3122
I25087
sS'ATTCNN'
p3123
I5
sS'GGATGT'
p3124
I19222
sS'AATAGT'
p3125
I13881
sS'TCTCAC'
p3126
I27547
sS'CAACTT'
p3127
I19756
sS'GGGGTG'
p3128
I47693
sS'GGATGA'
p3129
I24131
sS'GGATGG'
p3130
I30518
sS'GGGGTA'
p3131
I13266
sS'TCTCCG'
p3132
I16356
sS'GAGTCC'
p3133
I24704
sS'AAACTG'
p3134
I33509
sS'TCTCCC'
p3135
I53114
sS'CCCTTT'
p3136
I37645
sS'TCTCCA'
p3137
I43550
sS'AAACTC'
p3138
I25781
sS'CTATGA'
p3139
I14081
sS'AGTACG'
p3140
I3200
sS'ACGCGC'
p3141
I10455
sS'AGTACC'
p3142
I10006
sS'CTATGG'
p3143
I12259
sS'GTTGGC'
p3144
I18521
sS'AAACTT'
p3145
I27270
sS'CCCTTC'
p3146
I46205
sS'TCTCCT'
p3147
I50425
sS'CCCTTG'
p3148
I29755
sS'TGCCAA'
p3149
I25563
sS'AGCAAA'
p3150
I36720
sS'AGTACT'
p3151
I12515
sS'CTATGT'
p3152
I14044
sS'GCCGAA'
p3153
I7849
sS'GTGGAG'
p3154
I39876
sS'GCCGAC'
p3155
I9936
sS'GTGGAC'
p3156
I17725
sS'GCCGAG'
p3157
I25950
sS'GTGGAA'
p3158
I28764
sS'GTGGAT'
p3159
I17747
sS'GCCGAT'
p3160
I4717
sS'CCTATT'
p3161
I14412
sS'ACCCGG'
p3162
I18714
sS'GTAGTC'
p3163
I9921
sS'AAATCG'
p3164
I5550
sS'GTAGTA'
p3165
I7921
sS'GTAGTG'
p3166
I11796
sS'AAATCC'
p3167
I25331
sS'ACCGAA'
p3168
I5479
sS'AAATCA'
p3169
I29904
sS'AGATAC'
p3170
I12535
sS'TCCCGA'
p3171
I12226
sS'CACGCT'
p3172
I11327
sS'AAATCT'
p3173
I27469
sS'ACCGAT'
p3174
I3088
sS'CTTGAA'
p3175
I26964
sS'GTAGTT'
p3176
I12255
sS'ACCAGT'
p3177
I16753
sS'TGCCGT'
p3178
I7914
sS'GATGAT'
p3179
I16501
sS'GGAGCA'
p3180
I35391
sS'GGAGCC'
p3181
I52147
sS'AAAGTG'
p3182
I33094
sS'CCAAAT'
p3183
I24842
sS'GGAGCG'
p3184
I26343
sS'AAAACT'
p3185
I31905
sS'GATGAC'
p3186
I18553
sS'TGTCCC'
p3187
I32176
sS'GATGAA'
p3188
I22867
sS'GATGAG'
p3189
I25757
sS'CCAAAA'
p3190
I29476
sS'CCAAAC'
p3191
I24277
sS'AAAACG'
p3192
I10392
sS'GGAGCT'
p3193
I42032
sS'CCAAAG'
p3194
I36382
sS'TCGCGG'
p3195
I11081
sS'CGGTCC'
p3196
I12523
sS'TCGCGC'
p3197
I10636
sS'GGGAGT'
p3198
I29967
sS'TACCCT'
p3199
I14605
sS'AGATCA'
p3200
I19806
sS'GCCACC'
p3201
I44292
sS'AGAAAT'
p3202
I39662
sS'CGACGG'
p3203
I6423
sS'GCCACG'
p3204
I17740
sS'AGATCG'
p3205
I5979
sS'TGCCTA'
p3206
I17044
sS'ACCAGC'
p3207
I31848
sS'TCGCGT'
p3208
I4069
sS'GTGCAA'
p3209
I17491
sS'ACCCGT'
p3210
I5914
sS'AGAAAG'
p3211
I51758
sS'CGACGA'
p3212
I3217
sS'CTAGAC'
p3213
I11919
sS'AGAAAC'
p3214
I35562
sS'TACCCA'
p3215
I16811
sS'AGAAAA'
p3216
I65408
sS'TACCCC'
p3217
I13285
sS'ATGTAC'
p3218
I10633
sS'ACTTCG'
p3219
I6243
sS'ATGTAA'
p3220
I19502
sS'ATGTAG'
p3221
I13081
sS'ACCAGG'
p3222
I34841
sS'ACGTCA'
p3223
I9036
sS'CCGGCA'
p3224
I16426
sS'GACGAC'
p3225
I5509
sS'ATGTCG'
p3226
I3886
sS'ATGTAT'
p3227
I16179
sS'GTTCCA'
p3228
I20762
sS'GTTCCC'
p3229
I26745
sS'AGCACT'
p3230
I29725
sS'TTAGAA'
p3231
I24179
sS'CGGCTG'
p3232
I25817
sS'TTAGAC'
p3233
I10343
sS'CGGCTC'
p3234
I25695
sS'TTAGAG'
p3235
I19049
sS'CGGCTA'
p3236
I6003
sS'AGCACC'
p3237
I27528
sS'AGCACA'
p3238
I30498
sS'AGCACG'
p3239
I10322
sS'GGTCGG'
p3240
I12075
sS'CGGCTT'
p3241
I13015
sS'TTAGAT'
p3242
I13418
sS'CCAGCA'
p3243
I52666
sS'CGAAGC'
p3244
I9635
sS'CCAGCC'
p3245
I75972
sS'AAAGAG'
p3246
I40443
sS'ATATCA'
p3247
I12545
sS'CGACGT'
p3248
I3291
sS'TTATTT'
p3249
I51038
sS'TGTGAG'
p3250
I33660
sS'TGTGAA'
p3251
I29625
sS'CTACCT'
p3252
I17459
sS'TGTGAC'
p3253
I25379
sS'ATATCT'
p3254
I14365
sS'CCAGCT'
p3255
I53307
sS'CACGGT'
p3256
I9567
sS'AAAGAT'
p3257
I26502
sS'TGTGAT'
p3258
I23366
sS'TTATTG'
p3259
I18386
sS'TTATTA'
p3260
I23454
sS'GAAAGC'
p3261
I29810
sS'TTATTC'
p3262
I20381
sS'ACATCT'
p3263
I21774
sS'TTTTAT'
p3264
I39977
sS'GCGAAC'
p3265
I5362
sS'CTTACT'
p3266
I17358
sS'TCCACT'
p3267
I27474
sS'TACAAA'
p3268
I26519
sS'AGACGA'
p3269
I6626
sS'TACAAC'
p3270
I10593
sS'CCTCTG'
p3271
I59631
sS'AGGTGG'
p3272
I46602
sS'CCTCTC'
p3273
I55657
sS'AGGTGC'
p3274
I25399
sS'CCTCTA'
p3275
I21406
sS'AGGTGA'
p3276
I31330
sS'TACAAT'
p3277
I13395
sS'TCCACA'
p3278
I29815
sS'TTTTAG'
p3279
I26488
sS'ACATCG'
p3280
I4303
sS'CTTACC'
p3281
I14414
sS'ACATCA'
p3282
I20843
sS'TTTTAC'
p3283
I23611
sS'ACATCC'
p3284
I19218
sS'AGGTGT'
p3285
I22643
sS'CCTCTT'
p3286
I40827
sS'CGTCGG'
p3287
I6705
sS'TATGAG'
p3288
I14488
sS'CCCGGA'
p3289
I23162
sS'NNCTGA'
p3290
I1
sS'TATGAC'
p3291
I11542
sS'TTGTGT'
p3292
I27185
sS'TGGAAT'
p3293
I31271
sS'TAGGTG'
p3294
I16785
sS'TTGTGC'
p3295
I18871
sS'TATGAT'
p3296
I12397
sS'TTGTGG'
p3297
I25463
sS'CCCGGT'
p3298
I12892
sS'GGCGTG'
p3299
I22695
sS'TGGAAG'
p3300
I39551
sS'TGGAAC'
p3301
I20778
sS'TGGAAA'
p3302
I44792
sS'TGAGGA'
p3303
I38058
sS'AAGAGG'
p3304
I40840
sS'TGAGGC'
p3305
I38775
sS'AAGAGA'
p3306
I40477
sS'AAGAGC'
p3307
I28616
sS'TGAGGG'
p3308
I37023
sS'GCTTAG'
p3309
I15009
sS'GCTTAC'
p3310
I10670
sS'GCTTAA'
p3311
I14084
sS'TGATTC'
p3312
I22559
sS'AAGCGC'
p3313
I11430
sS'AAGAGT'
p3314
I22329
sS'AAGCGA'
p3315
I8867
sS'TGAGGT'
p3316
I28580
sS'GCTTAT'
p3317
I12191
sS'CTGCTA'
p3318
I18419
sS'GCGTGT'
p3319
I11163
sS'CTGCTC'
p3320
I45325
sS'ACTTCT'
p3321
I27287
sS'GACCGT'
p3322
I5519
sS'CTGCTG'
p3323
I64552
sS'CGGTCA'
p3324
I7053
sS'GGTCGT'
p3325
I5060
sS'CTAGAG'
p3326
I21833
sS'CTAGAA'
p3327
I21170
sS'GAAAGT'
p3328
I25888
sS'GACCGA'
p3329
I6584
sS'GACCGC'
p3330
I10790
sS'ACTTCC'
p3331
I33269
sS'CTGCTT'
p3332
I39999
sS'ACTTCA'
p3333
I23889
sS'CTAGAT'
p3334
I12747
sS'AAGTGT'
p3335
I21859
sS'CGGTCT'
p3336
I8557
sS'GGTCGC'
p3337
I10463
sS'GGTCGA'
p3338
I4397
sS'CGTCGC'
p3339
I7864
sS'CAGCAT'
p3340
I28825
sS'GCGTGA'
p3341
I11529
sS'GCGTGC'
p3342
I13643
sS'TGCTCA'
p3343
I30471
sS'TTCATC'
p3344
I22866
sS'TGCTCC'
p3345
I35389
sS'TTCATA'
p3346
I17892
sS'TTCATG'
p3347
I23043
sS'TGCTCG'
p3348
I8950
sS'CAGAAT'
p3349
I28742
sS'CAGCAG'
p3350
I64564
sS'TACACT'
p3351
I13239
sS'GCGGCT'
p3352
I24431
sS'CAGCAC'
p3353
I40049
sS'CAGCAA'
p3354
I34322
sS'GTACAC'
p3355
I9970
sS'TGATTT'
p3356
I29925
sS'TTCATT'
p3357
I36627
sS'GCTTTA'
p3358
I17933
sS'GCTGCC'
p3359
I54127
sS'GCTGCA'
p3360
I41257
sS'AACTCT'
p3361
I24101
sS'TGGCCC'
p3362
I38826
sS'TGGCCA'
p3363
I43074
sS'GTAGCA'
p3364
I12735
sS'TCATCT'
p3365
I29729
sS'TGCTCT'
p3366
I36202
sS'AACTCA'
p3367
I23624
sS'TGGCCT'
p3368
I41650
sS'AACTCC'
p3369
I28088
sS'GCTGCT'
p3370
I49784
sS'AACTCG'
p3371
I6351
sS'CAGTCG'
p3372
I7795
sS'GGATCC'
p3373
I19051
sS'AATATT'
p3374
I31291
sS'CAACCT'
p3375
I22150
sS'CAGTTA'
p3376
I17509
sS'TGGCCG'
p3377
I19954
sS'GGCACG'
p3378
I13033
sS'GGCACA'
p3379
I29553
sS'GACAAT'
p3380
I13117
sS'GGCACC'
p3381
I28651
sS'CAACCG'
p3382
I6549
sS'CAGAAA'
p3383
I49863
sS'AATATG'
p3384
I17962
sS'CGGTCG'
p3385
I5555
sS'AATATA'
p3386
I18980
sS'AGCAAG'
p3387
I32061
sS'AATATC'
p3388
I14249
sS'CTTCGT'
p3389
I7214
sS'GACAAA'
p3390
I24762
sS'GGCACT'
p3391
I25915
sS'GACAAC'
p3392
I13005
sS'CAGAAC'
p3393
I27170
sS'GACAAG'
p3394
I20975
sS'GCTGCG'
p3395
I27569
sS'GCGGCG'
p3396
I46685
sS'GCAATA'
p3397
I11896
sS'GCAATG'
p3398
I18783
sS'CAAGTG'
p3399
I25408
sS'CGATGG'
p3400
I6756
sS'GACACT'
p3401
I20134
sS'TCCCAT'
p3402
I26414
sS'CGATGC'
p3403
I5656
sS'GTAAAT'
p3404
I20102
sS'CGATGA'
p3405
I5676
sS'GAATTA'
p3406
I16782
sS'GAATTC'
p3407
I21306
sS'GAATTG'
p3408
I16894
sS'TCCCAA'
p3409
I33796
sS'CGATGT'
p3410
I4304
sS'GTAAAA'
p3411
I23622
sS'GTAAAG'
p3412
I16629
sS'TCCCAG'
p3413
I67619
sS'GGATTT'
p3414
I25304
sS'GTGCGT'
p3415
I9105
sS'ATGGTA'
p3416
I12100
sS'GGATTC'
p3417
I18603
sS'GGATTA'
p3418
I18125
sS'GGATTG'
p3419
I15661
sS'AGCGGC'
p3420
I23204
sS'CTATCA'
p3421
I10686
sS'AAAGCC'
p3422
I31799
sS'TCTGTG'
p3423
I43182
sS'ACGCCC'
p3424
I17407
sS'GTCCCG'
p3425
I18155
sS'TCTGTA'
p3426
I22502
sS'AACCGG'
p3427
I7677
sS'CTCCTT'
p3428
I45264
sS'ACGCCA'
p3429
I9813
sS'CAGATA'
p3430
I18043
sS'AACCGC'
p3431
I8116
sS'AACCGA'
p3432
I5840
sS'CAGTCC'
p3433
I28614
sS'AAAGCG'
p3434
I10311
sS'CTCCTG'
p3435
I64829
sS'AACCGT'
p3436
I4913
sS'CTCCTA'
p3437
I21705
sS'CTCCTC'
p3438
I68236
sS'GGCGGT'
p3439
I16664
sS'AACAAG'
p3440
I25349
sS'GACGCC'
p3441
I14393
sS'AACAAC'
p3442
I19463
sS'AACAAA'
p3443
I48159
sS'TACTTC'
p3444
I15866
sS'AGCCTT'
p3445
I30878
sS'CCGATT'
p3446
I4875
sS'CCCACT'
p3447
I35637
sS'AACAAT'
p3448
I20721
sS'GACGCT'
p3449
I9847
sS'GTGCGA'
p3450
I5938
sS'CCGATA'
p3451
I2308
sS'AGCCTG'
p3452
I54529
sS'AGCCTA'
p3453
I15658
sS'AGCCTC'
p3454
I47662
sS'GTACCC'
p3455
I9489
sS'GAGTTT'
p3456
I25771
sS'TGGTTA'
p3457
I15697
sS'CGCCTT'
p3458
I15082
sS'GCGCCT'
p3459
I23729
sS'TCNNNN'
p3460
I5
sS'CAGAGT'
p3461
I33326
sS'GCATCT'
p3462
I21940
sS'ACCTCG'
p3463
I11431
sS'GAGTTG'
p3464
I20700
sS'CGCCTC'
p3465
I34291
sS'AGGCAA'
p3466
I29518
sS'CGCCTA'
p3467
I6624
sS'AGGCAG'
p3468
I62615
sS'CGCCTG'
p3469
I28552
sS'CAATTG'
p3470
I11089
sS'CAGAGG'
p3471
I59645
sS'GCATCC'
p3472
I20029
sS'GCATCA'
p3473
I17130
sS'CAGAGC'
p3474
I50884
sS'GCATCG'
p3475
I5653
sS'CAGAGA'
p3476
I51714
sS'GCCTCT'
p3477
I45635
sS'AGACTC'
p3478
I24245
sS'CCTAGA'
p3479
I19799
sS'CCTAGC'
p3480
I17893
sS'TTTGCT'
p3481
I36721
sS'CGGGAG'
p3482
I34986
sS'TGCGGT'
p3483
I9099
sS'CCTAGG'
p3484
I23085
sS'TAAGCA'
p3485
I18853
sS'TGCGGC'
p3486
I17821
sS'TTTGCC'
p3487
I27582
sS'CCTAGT'
p3488
I14621
sS'TGCGGG'
p3489
I20187
sS'TTTGCG'
p3490
I6900
sS'TGAGTT'
p3491
I23642
sS'CGGGAC'
p3492
I18155
sS'ATCGCT'
p3493
I6631
sS'TCTCGT'
p3494
I6350
sS'ATCGCC'
p3495
I6644
sS'TGAGTG'
p3496
I28988
sS'ATCGCA'
p3497
I4535
sS'TGAGTA'
p3498
I18199
sS'ATCGCG'
p3499
I4422
sS'TGAGTC'
p3500
I35267
sS'AAGGTG'
p3501
I27106
sS'AAGGTC'
p3502
I20317
sS'CATCAT'
p3503
I20360
sS'AAGGTA'
p3504
I15393
sS'AAGCGG'
p3505
I12840
sS'ACGGCA'
p3506
I7907
sS'CATCAC'
p3507
I22223
sS'AAGGTT'
p3508
I19631
sS'CATCAA'
p3509
I16735
sS'CATCAG'
p3510
I24636
sS'ACGGCG'
p3511
I9095
sS'TCACCT'
p3512
I31330
sS'TCTAAG'
p3513
I17635
sS'CGGAAT'
p3514
I6164
sS'CAATTC'
p3515
I16893
sS'GTGGCT'
p3516
I39757
sS'ATCGAT'
p3517
I2366
sS'TCACCG'
p3518
I11268
sS'TCACCA'
p3519
I30303
sS'TCACCC'
p3520
I31191
sS'CGGAAG'
p3521
I17595
sS'CAACCC'
p3522
I22920
sS'AACTGG'
p3523
I25413
sS'AAAATA'
p3524
I51377
sS'CGGAAC'
p3525
I8514
sS'AGCTCG'
p3526
I11028
sS'CGGAAA'
p3527
I11383
sS'GCCTCA'
p3528
I38741
sS'ATCCAG'
p3529
I25190
sS'TCGTCA'
p3530
I4997
sS'TGTGTA'
p3531
I22839
sS'TGTGTG'
p3532
I74148
sS'ATGGCA'
p3533
I24538
sS'TTCAGA'
p3534
I33496
sS'ATGGCT'
p3535
I23298
sS'TGTGTT'
p3536
I32789
sS'CCAAGT'
p3537
I26238
sS'GAACAT'
p3538
I16709
sS'AGATTA'
p3539
I15535
sS'GAAACG'
p3540
I10682
sS'GAAACA'
p3541
I33575
sS'AGATTG'
p3542
I16211
sS'CTGAGT'
p3543
I35511
sS'AGGTAC'
p3544
I11102
sS'GAAACT'
p3545
I28814
sS'AGAATG'
p3546
I31196
sS'AGATTT'
p3547
I27457
sS'ACATAC'
p3548
I13906
sS'CTGAGC'
p3549
I43192
sS'CTGAGA'
p3550
I41483
sS'CTGAGG'
p3551
I54211
sS'CATACC'
p3552
I10192
sS'CATACA'
p3553
I16347
sS'GCGCGT'
p3554
I10456
sS'CATACG'
p3555
I2965
sS'GCAATC'
p3556
I12582
sS'TCAAAT'
p3557
I24479
sS'GTCCAT'
p3558
I13730
sS'AGGGGT'
p3559
I28048
sS'CATACT'
p3560
I11668
sS'GTCCAG'
p3561
I29458
sS'TCAAAG'
p3562
I27977
sS'CACGAG'
p3563
I9594
sS'TCAAAA'
p3564
I32890
sS'TCAAAC'
p3565
I19999
sS'CGGCGG'
p3566
I41017
sS'TTGATG'
p3567
I16739
sS'ATCGAG'
p3568
I4397
sS'CGGCGC'
p3569
I30861
sS'TTGATC'
p3570
I11191
sS'CGGCGA'
p3571
I10950
sS'TTGATA'
p3572
I11732
sS'TTGATT'
p3573
I19693
sS'CGGCGT'
p3574
I9500
sS'ATGGCC'
p3575
I20426
sS'GTACGC'
p3576
I2904
sS'ATCGAC'
p3577
I2341
sS'CCATTA'
p3578
I13630
sS'TGACTT'
p3579
I27214
sS'TCGTCT'
p3580
I6617
sS'CGGTTA'
p3581
I3610
sS'GGTTTA'
p3582
I14207
sS'CGGTTC'
p3583
I8355
sS'GCTGTT'
p3584
I27891
sS'CGGTTG'
p3585
I6551
sS'GGTTTG'
p3586
I22858
sS'CCATTG'
p3587
I18475
sS'TCCAAA'
p3588
I30686
sS'GCTGTG'
p3589
I45715
sS'GGTTTT'
p3590
I28327
sS'CGGTTT'
p3591
I8025
sS'GCTGTA'
p3592
I16814
sS'TATGCG'
p3593
I2691
sS'AGGTTG'
p3594
I22165
sS'AGGTTC'
p3595
I19021
sS'AGGTTA'
p3596
I15163
sS'ACTCCT'
p3597
I31107
sS'TTTTTC'
p3598
I52187
sS'TCCATC'
p3599
I24271
sS'TTTTTA'
p3600
I50525
sS'TCCTCT'
p3601
I49171
sS'TTTTTG'
p3602
I43429
sS'GAGGGG'
p3603
I62396
sS'TTAAAT'
p3604
I31123
sS'AGGTTT'
p3605
I25776
sS'TAAGCG'
p3606
I4373
sS'AGGGGG'
p3607
I44291
sS'TTAAAC'
p3608
I19403
sS'ATACGT'
p3609
I3585
sS'TTAAAA'
p3610
I52660
sS'ACTCCG'
p3611
I11502
sS'TTAAAG'
p3612
I26557
sS'GAGGGT'
p3613
I29053
sS'TTTTTT'
p3614
I158743
sS'ACTCCC'
p3615
I29965
sS'CTGTAA'
p3616
I28409
sS'GTCACG'
p3617
I9379
sS'CTGTAC'
p3618
I14257
sS'GCAACT'
p3619
I16713
sS'GTCACC'
p3620
I25342
sS'CTGTAG'
p3621
I20726
sS'GTCACA'
p3622
I25359
sS'AGGGAT'
p3623
I24008
sS'GTCACT'
p3624
I26106
sS'TAGGCG'
p3625
I6630
sS'GCAACC'
p3626
I17680
sS'CTGTAT'
p3627
I17209
sS'GCGCTG'
p3628
I27066
sS'TAGGCC'
p3629
I13858
sS'ATTCAT'
p3630
I26201
sS'TCCCAC'
p3631
I38337
sS'GCGATT'
p3632
I5658
sS'TCGTGT'
p3633
I5962
sS'TTCACT'
p3634
I27860
sS'GTCTCT'
p3635
I32477
sS'TCCGTG'
p3636
I11155
sS'ATTCAG'
p3637
I26056
sS'ATTCAA'
p3638
I21741
sS'ATTCAC'
p3639
I19302
sS'GTCTCC'
p3640
I33317
sS'GTCTCA'
p3641
I26693
sS'GCGATG'
p3642
I7531
sS'TTCACC'
p3643
I23490
sS'GCGATA'
p3644
I2624
sS'TTCACA'
p3645
I29598
sS'GCGATC'
p3646
I6419
sS'GAAGGC'
p3647
I34196
sS'GAAGGA'
p3648
I45007
sS'GAAGGG'
p3649
I46198
sS'CGATTA'
p3650
I2587
sS'CAATCT'
p3651
I16214
sS'GGAACA'
p3652
I25543
sS'GGAACG'
p3653
I10329
sS'AGCCAC'
p3654
I39794
sS'TACTGC'
p3655
I15476
sS'CGATTT'
p3656
I5551
sS'AAAACA'
p3657
I52157
sS'GAAGGT'
p3658
I23532
sS'CTCGCT'
p3659
I16432
sS'CAATCG'
p3660
I4120
sS'CAATCA'
p3661
I17710
sS'GGAACT'
p3662
I24157
sS'TCCTGA'
p3663
I38295
sS'AGTCCA'
p3664
I23119
sS'TCCTGC'
p3665
I49540
sS'AGTCCC'
p3666
I30057
sS'ACTAAA'
p3667
I19458
sS'TCCTGG'
p3668
I60871
sS'AGTCCG'
p3669
I8406
sS'TAACGC'
p3670
I3676
sS'TAACGA'
p3671
I3253
sS'CAGCTA'
p3672
I22297
sS'CAGCTC'
p3673
I49845
sS'ACTAAT'
p3674
I11963
sS'CGACTC'
p3675
I8498
sS'TCATTG'
p3676
I20740
sS'TCCTGT'
p3677
I36061
sS'CAGCTT'
p3678
I35642
sS'TAACGT'
p3679
I4103
sS'AGCCAG'
p3680
I52477
sS'GTACTT'
p3681
I12867
sS'CGACAT'
p3682
I3884
sS'TTGTTC'
p3683
I22241
sS'TTGTTA'
p3684
I18521
sS'TTGTTG'
p3685
I23269
sS'CAGGCC'
p3686
I54510
sS'CCGAGC'
p3687
I20041
sS'CCGCGT'
p3688
I10613
sS'CGACAC'
p3689
I6019
sS'CGACAA'
p3690
I4232
sS'GTACTC'
p3691
I8776
sS'GTACTA'
p3692
I6334
sS'CCGCGC'
p3693
I36855
sS'CCGAGT'
p3694
I11316
sS'CCGCGA'
p3695
I11082
sS'CCGCGG'
p3696
I33589
sS'TTGTTT'
p3697
I49447
sS'GCATAT'
p3698
I10869
sS'TCCGTT'
p3699
I7017
sS'AGCCAA'
p3700
I31361
sS'AATAAC'
p3701
I16998
sS'AATAAA'
p3702
I49401
sS'AATAAG'
p3703
I19978
sS'CGCCAT'
p3704
I11268
sS'TACTAA'
p3705
I12815
sS'AATAAT'
p3706
I27081
sS'ACGGTG'
p3707
I10006
sS'CCAACC'
p3708
I24224
sS'CTCAGT'
p3709
I32657
sS'CCAACG'
p3710
I7325
sS'GGGATT'
p3711
I26413
sS'CGCCGC'
p3712
I46698
sS'GTGTAT'
p3713
I14168
sS'CGCCGA'
p3714
I10458
sS'GAGTAG'
p3715
I16106
sS'CGCCGG'
p3716
I26097
sS'GCTTCG'
p3717
I9631
sS'AGTAAG'
p3718
I17360
sS'CTCAGG'
p3719
I48967
sS'CTCAGC'
p3720
I52154
sS'CCAACT'
p3721
I21205
sS'GAGTAT'
p3722
I9896
sS'ATCGTC'
p3723
I3607
sS'GTGTAG'
p3724
I12606
sS'TCGAGC'
p3725
I5979
sS'AGTAAT'
p3726
I15965
sS'GTGTAC'
p3727
I9967
sS'CGCCGT'
p3728
I9102
sS'GTGGCA'
p3729
I30996
sS'CATATT'
p3730
I17959
sS'ATCGTA'
p3731
I2434
sS'GTGGCG'
p3732
I19733
sS'GCCGCC'
p3733
I53927
sS'GCCGCA'
p3734
I17817
sS'GCCGCG'
p3735
I34128
sS'ACACTT'
p3736
I21870
sS'CTCGGT'
p3737
I10654
sS'AGATAT'
p3738
I14363
sS'TCGCTC'
p3739
I12904
sS'CATATC'
p3740
I10056
sS'CATATA'
p3741
I12103
sS'GTCAGC'
p3742
I24686
sS'TACTAC'
p3743
I7935
sS'ACACTC'
p3744
I20878
sS'ACACTA'
p3745
I12263
sS'ACACTG'
p3746
I30014
sS'GCCGCT'
p3747
I23209
sS'ACCGGA'
p3748
I8008
sS'AAATAA'
p3749
I51073
sS'ACCGGC'
p3750
I11301
sS'AAATAC'
p3751
I26486
sS'CTTTAA'
p3752
I26533
sS'AATCCT'
p3753
I23823
sS'AAATAG'
p3754
I24301
sS'AACTTA'
p3755
I14600
sS'CAGGTA'
p3756
I17376
sS'AACTTC'
p3757
I22689
sS'CAGGTC'
p3758
I27333
sS'CACGAC'
p3759
I6092
sS'ACGTTT'
p3760
I8580
sS'CAGGTG'
p3761
I41424
sS'CTTTAT'
p3762
I22975
sS'AATCCC'
p3763
I26376
sS'AATCCA'
p3764
I21882
sS'AAATAT'
p3765
I37270
sS'AATCCG'
p3766
I5594
sS'CACGAT'
p3767
I5225
sS'CAGGTT'
p3768
I25489
sS'AACTTT'
p3769
I27185
sS'TCTGTC'
p3770
I34998
sS'GGGATA'
p3771
I12282
sS'GGGATC'
p3772
I17962
sS'GGGTGT'
p3773
I27350
sS'GGGATG'
p3774
I30448
sS'GATGCT'
p3775
I20646
sS'CGCAGT'
p3776
I11561
sS'GAGTCG'
p3777
I8494
sS'GAGCCT'
p3778
I35487
sS'GGAGAC'
p3779
I33319
sS'GGGTGA'
p3780
I31218
sS'GGAGAA'
p3781
I46532
sS'GGGTGC'
p3782
I28188
sS'GGAGAG'
p3783
I58854
sS'GGGTGG'
p3784
I58631
sS'GAGCCA'
p3785
I41623
sS'CGCAGG'
p3786
I25186
sS'GATGCG'
p3787
I6738
sS'CGCAGA'
p3788
I14542
sS'GATGCA'
p3789
I17986
sS'GAGCCG'
p3790
I25705
sS'GATGCC'
p3791
I19346
sS'CGGATT'
p3792
I5593
sS'GGTAGT'
p3793
I9693
sS'ACCCCT'
p3794
I28048
sS'GCCAAT'
p3795
I17136
sS'GGCGGG'
p3796
I70496
sS'AGAAGT'
p3797
I27290
sS'ACCCCA'
p3798
I35268
sS'GGTAGA'
p3799
I14836
sS'ACCCCC'
p3800
I31308
sS'CGGATG'
p3801
I7751
sS'GCCAAG'
p3802
I35490
sS'CGGATA'
p3803
I2985
sS'ACCCCG'
p3804
I19521
sS'GGTAGG'
p3805
I18707
sS'AGAAGA'
p3806
I39634
sS'AGAAGC'
p3807
I35054
sS'GCAAGA'
p3808
I24989
sS'AGAAGG'
p3809
I44600
sS'CACTCC'
p3810
I35628
sS'CACTCA'
p3811
I28965
sS'CACTCG'
p3812
I9357
sS'TGCGTT'
p3813
I7065
sS'TCAGCT'
p3814
I35159
sS'TCTGTT'
p3815
I33137
sS'AGCTTT'
p3816
I29277
sS'CCCCGG'
p3817
I38761
sS'TGCGTA'
p3818
I3903
sS'CCCCGC'
p3819
I61890
sS'CACTCT'
p3820
I28944
sS'AGCTTC'
p3821
I29861
sS'AGCTTA'
p3822
I13996
sS'AGCTTG'
p3823
I23889
sS'AGACCA'
p3824
I26081
sS'CCACTT'
p3825
I28207
sS'TTAGCT'
p3826
I17212
sS'ACTGTG'
p3827
I31508
sS'TTAGCC'
p3828
I15344
sS'TTAGCA'
p3829
I17486
sS'GACCAT'
p3830
I12292
sS'TTAGCG'
p3831
I4173
sS'CGATCC'
p3832
I6066
sS'ATAGGT'
p3833
I9477
sS'ATAAGG'
p3834
I14575
sS'TGTGCT'
p3835
I30501
sS'AAGGGC'
p3836
I31118
sS'ATAAGC'
p3837
I12193
sS'AAGGGA'
p3838
I40228
sS'ATAAGA'
p3839
I16718
sS'CCAGAC'
p3840
I31298
sS'CCAGAA'
p3841
I40209
sS'CCAGAG'
p3842
I53782
sS'GCAAGT'
p3843
I18761
sS'TGTGCG'
p3844
I11734
sS'ATAAGT'
p3845
I12176
sS'ATAGGG'
p3846
I11815
sS'TGTGCC'
p3847
I29588
sS'ATAGGA'
p3848
I14558
sS'TGTGCA'
p3849
I29080
sS'ATAGGC'
p3850
I10367
sS'GCTCGC'
p3851
I16478
sS'CCAGAT'
p3852
I25083
sS'AGACAA'
p3853
I26025
sS'GACGCA'
p3854
I8964
sS'AGACAC'
p3855
I27405
sS'AGACAG'
p3856
I41697
sS'TTTTCT'
p3857
I65388
sS'CGCTGT'
p3858
I13485
sS'CCCACG'
p3859
I19654
sS'CGTGGG'
p3860
I19653
sS'AGACAT'
p3861
I21159
sS'CGTGGA'
p3862
I12186
sS'TTTTCG'
p3863
I6454
sS'CCCACA'
p3864
I39801
sS'CGTCTT'
p3865
I8512
sS'TTTTCC'
p3866
I49889
sS'TTTTCA'
p3867
I41166
sS'CGCTGG'
p3868
I24279
sS'TATGGA'
p3869
I12808
sS'TATGGC'
p3870
I10546
sS'CGTAGG'
p3871
I5475
sS'CCCACC'
p3872
I60470
sS'TATGGG'
p3873
I12488
sS'CGTAGC'
p3874
I5043
sS'CTTCAG'
p3875
I36554
sS'TGGACT'
p3876
I23118
sS'CGTAGT'
p3877
I3864
sS'NNCACA'
p3878
I1
sS'TATGGT'
p3879
I10404
sS'TGGACA'
p3880
I25712
sS'TGGACC'
p3881
I17917
sS'TGGACG'
p3882
I9204
sS'CGTTAC'
p3883
I3530
sS'GGCGGN'
p3884
I1
sS'CCGGTT'
p3885
I7675
sS'GACCAA'
p3886
I16520
sS'GCTTGA'
p3887
I19334
sS'TGAGAC'
p3888
I26702
sS'GCTTGC'
p3889
I20211
sS'TGAGAA'
p3890
I37971
sS'TGAGAG'
p3891
I33327
sS'AGGGAC'
p3892
I31501
sS'CCTGTT'
p3893
I28434
sS'CCGGTG'
p3894
I13452
sS'AGGATT'
p3895
I23832
sS'ACTTAT'
p3896
I12171
sS'CCTGTC'
p3897
I34099
sS'CCTGTA'
p3898
I23737
sS'CTCGCC'
p3899
I21763
sS'GCTTGT'
p3900
I19488
sS'TGAGAT'
p3901
I25349
sS'GGTTGT'
p3902
I15726
sS'TATCAG'
p3903
I13489
sS'TATTGC'
p3904
I11900
sS'AATTCN'
p3905
I5
sS'ACAATA'
p3906
I15397
sS'GGTTGG'
p3907
I24225
sS'CTGAAT'
p3908
I26073
sS'GGTTGA'
p3909
I14478
sS'TTCACG'
p3910
I7624
sS'GGTTGC'
p3911
I17688
sS'TCCCGC'
p3912
I28566
sS'GTAACG'
p3913
I3529
sS'TCCCGG'
p3914
I30356
sS'GTAACC'
p3915
I10344
sS'CGTTTT'
p3916
I10392
sS'ATTCTC'
p3917
I25645
sS'AGGGAA'
p3918
I49639
sS'ATTCTA'
p3919
I17595
sS'ATTCTG'
p3920
I28745
sS'TCATTT'
p3921
I40563
sS'GTAACT'
p3922
I14045
sS'TGCTAA'
p3923
I17485
sS'TGCTAG'
p3924
I15230
sS'CAGCGG'
p3925
I24852
sS'AGGATC'
p3926
I18472
sS'TCATTC'
p3927
I29417
sS'TCATTA'
p3928
I18499
sS'CGTTTA'
p3929
I5250
sS'ATTCTT'
p3930
I29419
sS'CGTTTC'
p3931
I10678
sS'ACCGGG'
p3932
I12890
sS'TGGCAA'
p3933
I26259
sS'CCGATC'
p3934
I4633
sS'TGGCAG'
p3935
I45542
sS'GGCCGT'
p3936
I12491
sS'GCTGAA'
p3937
I28848
sS'GCTGAC'
p3938
I24685
sS'TGGCAT'
p3939
I24165
sS'GGCCGG'
p3940
I41960
sS'NNGATC'
p3941
I1
sS'CCGATG'
p3942
I5509
sS'GGCCGC'
p3943
I40506
sS'GAACTT'
p3944
I20458
sS'GGCCGA'
p3945
I18036
sS'GGCAAT'
p3946
I15011
sS'CGCTCG'
p3947
I12279
sS'ATCNNN'
p3948
I1
sS'CTGATT'
p3949
I24312
sS'NCCCAC'
p3950
I1
sS'CCATCG'
p3951
I6759
sS'CTAAAT'
p3952
I18285
sS'CCATCC'
p3953
I30516
sS'CCATCA'
p3954
I21853
sS'CTGATC'
p3955
I15682
sS'CTGATA'
p3956
I13484
sS'GTACCA'
p3957
I9669
sS'GGCAAC'
p3958
I19601
sS'GGCAAA'
p3959
I27588
sS'CTAAAG'
p3960
I18043
sS'CCATCT'
p3961
I33694
sS'CTAAAC'
p3962
I14096
sS'TTGCGT'
p3963
I5501
sS'GACACC'
p3964
I20656
sS'TACGAT'
p3965
I2437
sS'GACACG'
p3966
I9066
sS'TGGTTC'
p3967
I20503
sS'TAGCGA'
p3968
I3741
sS'TACGAG'
p3969
I3364
sS'TACGAC'
p3970
I2350
sS'GGAAAG'
p3971
I48295
sS'TCGGCG'
p3972
I10460
sS'CCGTGA'
p3973
I9894
sS'CGTGAG'
p3974
I13312
sS'TGTTAC'
p3975
I13953
sS'CTATTG'
p3976
I11605
sS'GCATAA'
p3977
I11256
sS'CTATTC'
p3978
I12465
sS'GGTTCC'
p3979
I23288
sS'TCGATG'
p3980
I3933
sS'TGTTAA'
p3981
I19816
sS'TCGATA'
p3982
I1827
sS'TCGATC'
p3983
I3063
sS'CTATTT'
p3984
I24302
sS'CGCGAA'
p3985
I4951
sS'GCATTG'
p3986
I15476
sS'CAGCCT'
p3987
I67206
sS'TCGATT'
p3988
I3618
sS'TCGGCA'
p3989
I7221
sS'AGGCAC'
p3990
I29487
sS'TTTTGA'
p3991
I32814
sS'AACCAA'
p3992
I22687
sS'TGCCGG'
p3993
I16436
sS'AACCAC'
p3994
I22468
sS'CGTATC'
p3995
I2851
sS'ACGAAC'
p3996
I3935
sS'AACCAG'
p3997
I26827
sS'TGCCGA'
p3998
I7221
sS'TTGGAC'
p3999
I15018
sS'TCGGGC'
p4000
I14305
sS'CCGTGC'
p4001
I13212
sS'CGCGAG'
p4002
I13410
sS'GAGTTC'
p4003
I21673
sS'GGCGGC'
p4004
I53921
sS'AACCAT'
p4005
I15714
sS'AACAGA'
p4006
I33145
sS'CTACCG'
p4007
I5615
sS'AACAGC'
p4008
I27886
sS'CTACCC'
p4009
I17035
sS'AACAGG'
p4010
I28440
sS'CTACCA'
p4011
I15120
sS'CCCAAG'
p4012
I37732
sS'GTCCCT'
p4013
I31498
sS'GACGAA'
p4014
I5158
sS'CCCAAC'
p4015
I25369
sS'CCCAAA'
p4016
I36636
sS'GGGAGG'
p4017
I102625
sS'TTACCT'
p4018
I17670
sS'GGGAGA'
p4019
I53128
sS'AACAGT'
p4020
I21782
sS'GGGAGC'
p4021
I49869
sS'ACGAAG'
p4022
I7211
sS'CCCAAT'
p4023
I14566
sS'GACGAT'
p4024
I3611
sS'GGGCGC'
p4025
I39729
sS'GGGCGA'
p4026
I17771
sS'NGCGCC'
p4027
I1
sS'GGGCGG'
p4028
I67867
sS'TCTCTT'
p4029
I40467
sS'GTACAG'
p4030
I14250
sS'CGTTAA'
p4031
I3879
sS'GTACAA'
p4032
I10954
sS'ACGACT'
p4033
I4787
sS'TCTCTC'
p4034
I52133
sS'TCTCTA'
p4035
I23862
sS'TCTCTG'
p4036
I51724
sS'GGGCGT'
p4037
I17403
sS'ACGACC'
p4038
I5054
sS'ACGACA'
p4039
I5027
sS'ACGACG'
p4040
I3351
sS'CAGAAG'
p4041
I43594
sS'TAAGTG'
p4042
I18029
sS'CACTTT'
p4043
I33075
sS'CCTAAT'
p4044
I12839
sS'CACTTG'
p4045
I25382
sS'CCTAAC'
p4046
I13259
sS'CCTAAA'
p4047
I19418
sS'CACTTC'
p4048
I30293
sS'CCTAAG'
p4049
I17895
sS'CACTTA'
p4050
I18008
sS'GCGGAT'
p4051
I7737
sS'ACAGGA'
p4052
I36056
sS'GTCCCC'
p4053
I34363
sS'AAGATT'
p4054
I20931
sS'CTCATG'
p4055
I24276
sS'GACTCG'
p4056
I9216
sS'CTCATC'
p4057
I25749
sS'GACTCC'
p4058
I27155
sS'CTCATA'
p4059
I14484
sS'GACTCA'
p4060
I35252
sS'AAGATA'
p4061
I17821
sS'CTCCAA'
p4062
I31475
sS'AAGATG'
p4063
I27548
sS'GACTCT'
p4064
I22973
sS'CTCATT'
p4065
I30080
sS'ATCGAA'
p4066
I3334
sS'GGACTA'
p4067
I11959
sS'ATATTT'
p4068
I37263
sS'ATAGAG'
p4069
I14515
sS'AACTAA'
p4070
I15699
sS'ATAGTT'
p4071
I12534
sS'TACTGT'
p4072
I17153
sS'ATATTC'
p4073
I15267
sS'ATATTA'
p4074
I16407
sS'ATATTG'
p4075
I13502
sS'ATAGTA'
p4076
I9949
sS'TACTGA'
p4077
I17022
sS'TACTGG'
p4078
I16107
sS'ATAGTG'
p4079
I11551
sS'GATCGA'
p4080
I3063
sS'CAGGCA'
p4081
I51569
sS'AGGAAG'
p4082
I65877
sS'CATCCG'
p4083
I7755
sS'AGGAAA'
p4084
I61451
sS'CATCCA'
p4085
I24447
sS'AGGAAC'
p4086
I27283
sS'CATCCC'
p4087
I30453
sS'CGTGCT'
p4088
I10335
sS'TTATGA'
p4089
I16915
sS'TTATGC'
p4090
I11256
sS'CGGAGT'
p4091
I11503
sS'TTATGG'
p4092
I13312
sS'CATCCT'
p4093
I31199
sS'AGGAAT'
p4094
I31684
sS'CAGGCT'
p4095
I54534
sS'ACGGAT'
p4096
I4369
sS'CGGAGA'
p4097
I16360
sS'CGGAGC'
p4098
I26381
sS'TTATGT'
p4099
I17735
sS'CGGAGG'
p4100
I29084
sS'ATGGAA'
p4101
I29178
sS'ATGGAC'
p4102
I13730
sS'ATGGAG'
p4103
I29100
sS'CGCTTG'
p4104
I10305
sS'CGCTTA'
p4105
I4369
sS'CGCTTC'
p4106
I14592
sS'ATGGAT'
p4107
I15453
sS'GTGTGN'
p4108
I1
sS'TTTGCA'
p4109
I32479
sS'CGCTTT'
p4110
I10313
sS'GCCGTG'
p4111
I15249
sS'GGGTCG'
p4112
I12271
sS'CAAGCC'
p4113
I27953
sS'TGCGGA'
p4114
I10857
sS'GAAAAG'
p4115
I42634
sS'GAAAAC'
p4116
I32068
sS'ATAGAT'
p4117
I11657
sS'GAAAAA'
p4118
I52212
sS'CACCGC'
p4119
I21632
sS'AGACCT'
p4120
I23535
sS'CAAGCG'
p4121
I10305
sS'GAAAAT'
p4122
I36157
sS'CGGCAT'
p4123
I6287
sS'ACAAGG'
p4124
I25329
sS'ACAAGA'
p4125
I23679
sS'ACAAGC'
p4126
I19489
sS'ACACGT'
p4127
I8389
sS'CTGCGT'
p4128
I13068
sS'GACGTC'
p4129
I8818
sS'GCGGAG'
p4130
I32521
sS'CATAAG'
p4131
I12397
sS'GCGGAA'
p4132
I12712
sS'CATAAA'
p4133
I22407
sS'GCGGAC'
p4134
I12047
sS'CATAAC'
p4135
I10543
sS'ACACGC'
p4136
I11167
sS'ACAAGT'
p4137
I17877
sS'ACACGA'
p4138
I5953
sS'ACACGG'
p4139
I10274
sS'CATAAT'
p4140
I13941
sS'GTCCCA'
p4141
I27683
sS'GCACAT'
p4142
I18798
sS'CTGCGG'
p4143
I27900
sS'ATCCCA'
p4144
I30176
sS'CTGCGA'
p4145
I11098
sS'CTGCGC'
p4146
I26778
sS'CGGCAA'
p4147
I7620
sS'CGGCAC'
p4148
I11265
sS'CATGCC'
p4149
I24939
sS'CGGCAG'
p4150
I23828
sS'GACGCG'
p4151
I10738
sS'CCTCCT'
p4152
I75446
sS'AGCGCT'
p4153
I14300
sS'CAGGCG'
p4154
I28565
sS'CCTCCC'
p4155
I102620
sS'CCTCCA'
p4156
I51834
sS'CACGCC'
p4157
I22667
sS'CCTCCG'
p4158
I29066
sS'AGTCCT'
p4159
I26725
s.