(dp0
S'GGGCTT'
p1
I15894
sS'GAACGT'
p2
I3150
sS'CGTCGT'
p3
I1720
sS'CTTCTT'
p4
I18993
sS'CACCCT'
p5
I18648
sS'ATTGAA'
p6
I8490
sS'GAACGG'
p7
I4170
sS'GAACGC'
p8
I4222
sS'GAACGA'
p9
I2797
sS'CACCCA'
p10
I20823
sS'CTTCTA'
p11
I9727
sS'CACCCC'
p12
I23757
sS'CTTCTC'
p13
I22760
sS'CACCCG'
p14
I9051
sS'CTTCTG'
p15
I21868
sS'CGTGTG'
p16
I6970
sS'TAAGGT'
p17
I6237
sS'CGTGTC'
p18
I4605
sS'AACGGG'
p19
I4358
sS'GGAAAT'
p20
I17553
sS'TAAGGG'
p21
I8016
sS'CGTGTT'
p22
I4105
sS'TAAGGC'
p23
I7155
sS'TAAGGA'
p24
I10286
sS'GTCAAA'
p25
I8339
sS'GTCAAC'
p26
I5695
sS'GTCAAG'
p27
I8229
sS'CTGTCC'
p28
I18623
sS'TCAGAG'
p29
I20224
sS'CTGTCA'
p30
I14089
sS'CTGTCG'
p31
I4748
sS'GTATCT'
p32
I6278
sS'TCAGAA'
p33
I17567
sS'GTCAAT'
p34
I5258
sS'GTATCA'
p35
I4617
sS'GTATCC'
p36
I4317
sS'GTATCG'
p37
I1016
sS'CTGTCT'
p38
I20697
sS'GGTGTC'
p39
I10312
sS'GGTGTA'
p40
I5062
sS'GGTGTG'
p41
I16348
sS'TATCCT'
p42
I7347
sS'CCGGGG'
p43
I19289
sS'TTCTGT'
p44
I19060
sS'ATTCCT'
p45
I15866
sS'CCGGGC'
p46
I21525
sS'CCGGGA'
p47
I15161
sS'TATCCA'
p48
I6536
sS'TATCCC'
p49
I6186
sS'TGGTTG'
p50
I10231
sS'TATCCG'
p51
I1471
sS'GGTGTT'
p52
I9595
sS'ATTCCG'
p53
I3068
sS'TTCTGG'
p54
I20203
sS'CCGGGT'
p55
I9323
sS'ATTCCC'
p56
I12356
sS'TTCTGC'
p57
I17602
sS'ATTCCA'
p58
I15563
sS'TTCTGA'
p59
I17984
sS'CTTGGA'
p60
I15033
sS'GGNCCC'
p61
I1
sS'CGTCAT'
p62
I3115
sS'GTAAAC'
p63
I7757
sS'CGCGGT'
p64
I5747
sS'CCCGCG'
p65
I16021
sS'CGCGGG'
p66
I16076
sS'CGCGGC'
p67
I16882
sS'CGCGGA'
p68
I7310
sS'NCCCAC'
p69
I1
sS'ACCTGT'
p70
I10903
sS'TCATGT'
p71
I10088
sS'AGGGAC'
p72
I15924
sS'TTACAG'
p73
I14166
sS'CTCCGC'
p74
I16035
sS'TTACAA'
p75
I10169
sS'TTACAC'
p76
I7157
sS'CTCCGG'
p77
I12646
sS'TCATGC'
p78
I9841
sS'ACCTGG'
p79
I18442
sS'TCATGA'
p80
I10209
sS'TCATGG'
p81
I11006
sS'ACCTGC'
p82
I15017
sS'GCGCNN'
p83
I1
sS'ACCTGA'
p84
I11351
sS'TTACAT'
p85
I9695
sS'CTCGAT'
p86
I2189
sS'CTCCGT'
p87
I6523
sS'GCCTGA'
p88
I16484
sS'GCCTGC'
p89
I23478
sS'GCCTGG'
p90
I36565
sS'TCTTGC'
p91
I12535
sS'GGGTCA'
p92
I11838
sS'TAAAGG'
p93
I10796
sS'CAAATT'
p94
I11654
sS'TAAAGA'
p95
I12514
sS'TAAAGC'
p96
I9094
sS'GCCTGT'
p97
I18145
sS'TATCTA'
p98
I5556
sS'TAAAGT'
p99
I9829
sS'CAAATA'
p100
I13779
sS'ACGTCC'
p101
I4120
sS'CAAATC'
p102
I10315
sS'TGCAAT'
p103
I9587
sS'CAAATG'
p104
I14416
sS'AATACT'
p105
I8325
sS'CGTCAC'
p106
I4961
sS'TCGATT'
p107
I1836
sS'CCGGCG'
p108
I13147
sS'TGGTTC'
p109
I10230
sS'GGCATA'
p110
I5291
sS'GGCATC'
p111
I9619
sS'AATACG'
p112
I2089
sS'AATACA'
p113
I11849
sS'AATACC'
p114
I6162
sS'GGCATT'
p115
I10713
sS'TATCTG'
p116
I9116
sS'CTTGGT'
p117
I11607
sS'GAGCAC'
p118
I11131
sS'ACTGAT'
p119
I8176
sS'CATATC'
p120
I5081
sS'GAGCAG'
p121
I22754
sS'AGTAGT'
p122
I5970
sS'TCTCGC'
p123
I6271
sS'TCTCGA'
p124
I3576
sS'TCTCGG'
p125
I7494
sS'ACTGAG'
p126
I16191
sS'AGTAGA'
p127
I8976
sS'ACTGAC'
p128
I9482
sS'GAGCAT'
p129
I8706
sS'AGCCCG'
p130
I11529
sS'TTTGTT'
p131
I24006
sS'GTGTCG'
p132
I2994
sS'TCGAAC'
p133
I2429
sS'TCGAAA'
p134
I2333
sS'GTGTCC'
p135
I12309
sS'TCGAAG'
p136
I2758
sS'GTGTCA'
p137
I10016
sS'CTTGCT'
p138
I15998
sS'CCGTCT'
p139
I6646
sS'GTGTCT'
p140
I13696
sS'TTGAAG'
p141
I11697
sS'TCGAAT'
p142
I1998
sS'CTTGCG'
p143
I4162
sS'CTTGCA'
p144
I11686
sS'CTTGCC'
p145
I14290
sS'CGAAAG'
p146
I3876
sS'CGAAAA'
p147
I3280
sS'CGAAAC'
p148
I2966
sS'AAGGTT'
p149
I9761
sS'AATCAT'
p150
I10377
sS'ACAGTG'
p151
I15897
sS'CACGGC'
p152
I7572
sS'AAATGA'
p153
I20226
sS'AAATGG'
p154
I16125
sS'CACGGG'
p155
I7062
sS'ACAGTA'
p156
I8524
sS'CGAAAT'
p157
I2396
sS'ACAGTT'
p158
I11180
sS'AATCAG'
p159
I12140
sS'AATCAA'
p160
I9758
sS'AAATGT'
p161
I18451
sS'AATCAC'
p162
I10205
sS'GGGTCT'
p163
I13196
sS'TCTAGT'
p164
I7470
sS'TTGCCG'
p165
I3753
sS'TTGCCA'
p166
I13166
sS'TTGCCC'
p167
I13696
sS'GGGTAC'
p168
I4601
sS'TCTAGG'
p169
I9778
sS'ATACGC'
p170
I1361
sS'TCTAGA'
p171
I9093
sS'GGGTAG'
p172
I8433
sS'TCTAGC'
p173
I7256
sS'ATACGG'
p174
I1612
sS'TAGAGG'
p175
I10713
sS'GGCTCC'
p176
I25927
sS'TCGGGC'
p177
I7216
sS'TCGCCC'
p178
I8813
sS'AGNNNN'
p179
I1
sS'TCGCCA'
p180
I4746
sS'ATAGTC'
p181
I4298
sS'TCGCCG'
p182
I5456
sS'GGTAAT'
p183
I5387
sS'ACCCAT'
p184
I8126
sS'CGTCAG'
p185
I4962
sS'GTGTAT'
p186
I7120
sS'ACCCAC'
p187
I13856
sS'GGTAAC'
p188
I5285
sS'ACCCAA'
p189
I10536
sS'GGTAAA'
p190
I8519
sS'ACCCAG'
p191
I22097
sS'GGTAAG'
p192
I7235
sS'TCGCCT'
p193
I6009
sS'AGATGC'
p194
I11046
sS'CCCCAT'
p195
I14867
sS'TTGGGT'
p196
I10554
sS'CACTAG'
p197
I8108
sS'CACTAA'
p198
I7097
sS'CACTAC'
p199
I6035
sS'CCCCAA'
p200
I17676
sS'CCCCAC'
p201
I28019
sS'CCCCAG'
p202
I34578
sS'CACTAT'
p203
I5756
sS'TTGGGG'
p204
I18034
sS'TCGGTT'
p205
I2958
sS'TTGGGA'
p206
I17013
sS'TTGGGC'
p207
I11725
sS'TGCCTG'
p208
I25787
sS'GTGGGT'
p209
I13732
sS'TTTCTG'
p210
I25049
sS'TGCAGC'
p211
I20695
sS'TGCCTC'
p212
I21265
sS'TTTCTC'
p213
I25082
sS'TGCAGG'
p214
I21970
sS'ACGCCT'
p215
I6532
sS'TCAGAC'
p216
I11082
sS'TTTCTT'
p217
I31615
sS'ACGTGC'
p218
I4853
sS'TGCCTT'
p219
I17808
sS'TGCAGT'
p220
I17832
sS'TAGTGC'
p221
I5117
sS'AAGGAA'
p222
I26330
sS'AAGGAC'
p223
I11507
sS'AAGGAG'
p224
I22588
sS'ATATGC'
p225
I5370
sS'ATATGA'
p226
I7272
sS'ATATGG'
p227
I5771
sS'GAGTTC'
p228
I10939
sS'GATGGA'
p229
I11985
sS'AAGGAT'
p230
I10731
sS'AGGGCC'
p231
I20636
sS'TGGTTT'
p232
I15442
sS'ATATGT'
p233
I7990
sS'GGTCCC'
p234
I15532
sS'GCCCAG'
p235
I35225
sS'ATGCAG'
p236
I13299
sS'GCCCAA'
p237
I11883
sS'GGTCCG'
p238
I5470
sS'GCCCAC'
p239
I16778
sS'TGTGTC'
p240
I14054
sS'AGACCC'
p241
I13426
sS'TAGCGA'
p242
I1879
sS'CTTCGG'
p243
I5599
sS'CTTCGA'
p244
I2817
sS'CTTCGC'
p245
I5194
sS'ATGCAA'
p246
I10341
sS'TCCGGG'
p247
I11507
sS'AGGTCA'
p248
I15075
sS'AAAGTT'
p249
I13708
sS'TCCGGC'
p250
I8777
sS'GGTCCT'
p251
I12221
sS'TCCGGA'
p252
I5927
sS'CTTAGC'
p253
I7911
sS'CTTCGT'
p254
I3645
sS'CTTAGA'
p255
I8806
sS'ATGCAC'
p256
I8033
sS'CTTAGG'
p257
I8914
sS'TCAGAT'
p258
I11316
sS'ATTGTA'
p259
I6723
sS'CGCTAC'
p260
I2520
sS'ATTTTG'
p261
I15816
sS'CGCTAA'
p262
I2038
sS'ATTTTA'
p263
I19483
sS'TCCAGA'
p264
I18557
sS'ATTTTC'
p265
I18020
sS'GATTTG'
p266
I10308
sS'TAGCAG'
p267
I9312
sS'GATACT'
p268
I4953
sS'TAGCAC'
p269
I6360
sS'TAGCAA'
p270
I8295
sS'TCCAGT'
p271
I13712
sS'ATTTTT'
p272
I29250
sS'TAAATC'
p273
I8378
sS'GTGGGG'
p274
I28296
sS'GCCTTA'
p275
I7357
sS'GCCTTC'
p276
I17016
sS'GATACG'
p277
I1470
sS'TAGCAT'
p278
I6402
sS'GATACC'
p279
I3786
sS'GATACA'
p280
I6059
sS'TGAGCT'
p281
I16242
sS'ACGGAC'
p282
I3012
sS'GATCAT'
p283
I6198
sS'TACCGG'
p284
I2297
sS'AAGACA'
p285
I15294
sS'AAGACC'
p286
I10082
sS'GATTTA'
p287
I8391
sS'AAGACG'
p288
I4247
sS'CCACTT'
p289
I14193
sS'TGAGCG'
p290
I6019
sS'CTCGAG'
p291
I4880
sS'TGAGCA'
p292
I15286
sS'TGAGCC'
p293
I19393
sS'AAGACT'
p294
I11247
sS'GCGGTC'
p295
I5406
sS'GCGGTA'
p296
I2486
sS'ATAAGT'
p297
I6099
sS'GCGGTG'
p298
I10837
sS'CTATCG'
p299
I1172
sS'CGGTGT'
p300
I4260
sS'TCGTTA'
p301
I1625
sS'TCGTTC'
p302
I2793
sS'ATGTGG'
p303
I12662
sS'ACTTGT'
p304
I8988
sS'GAGTTT'
p305
I12747
sS'TGTGTG'
p306
I37046
sS'GCGGTT'
p307
I4034
sS'ACTTGC'
p308
I9345
sS'ATGTGA'
p309
I12146
sS'ACTTGA'
p310
I10246
sS'CGGTGG'
p311
I9832
sS'TCGTTT'
p312
I3719
sS'CGGTGA'
p313
I5702
sS'CGGTGC'
p314
I7291
sS'TTCCTA'
p315
I12454
sS'TAGACT'
p316
I5972
sS'TTCCTC'
p317
I25647
sS'CTTCCG'
p318
I8898
sS'TTCCTG'
p319
I28919
sS'TCCTTT'
p320
I22211
sS'GACCCA'
p321
I12191
sS'ACGCTA'
p322
I1780
sS'TAGACG'
p323
I1954
sS'TTCCTT'
p324
I26506
sS'TAGACC'
p325
I4698
sS'TAGACA'
p326
I7458
sS'TCCTTG'
p327
I16271
sS'TCCTTA'
p328
I10539
sS'TCCTTC'
p329
I22592
sS'ATCTCT'
p330
I13881
sS'ACCGTT'
p331
I2296
sS'TGGCGC'
p332
I9584
sS'TGGCGA'
p333
I4790
sS'GGCCAT'
p334
I10137
sS'AATGCA'
p335
I13170
sS'AATTGA'
p336
I7454
sS'ATCTCG'
p337
I3510
sS'ATCTCA'
p338
I12607
sS'ATCTCC'
p339
I12478
sS'GGCCAA'
p340
I14695
sS'ACGGAG'
p341
I6680
sS'GGCCAC'
p342
I18607
sS'ACCGTG'
p343
I4832
sS'ACCGTA'
p344
I1596
sS'TGGCGT'
p345
I4967
sS'ACCGTC'
p346
I3163
sS'AGATTA'
p347
I7837
sS'NGATCC'
p348
I1
sS'GGCAGT'
p349
I14870
sS'CCATAA'
p350
I6566
sS'CAAAGG'
p351
I17060
sS'CCATAC'
p352
I4387
sS'CTAACT'
p353
I6669
sS'GAAACG'
p354
I5417
sS'CAAAGC'
p355
I15662
sS'CAACGT'
p356
I2903
sS'GGCAGA'
p357
I22558
sS'GGCAGC'
p358
I27240
sS'AACGTA'
p359
I1995
sS'GGCAGG'
p360
I34524
sS'CAACGC'
p361
I3575
sS'CTAACA'
p362
I7734
sS'CAACGA'
p363
I2278
sS'GCACTC'
p364
I11369
sS'CCATAT'
p365
I5841
sS'GCACTG'
p366
I15541
sS'GGGGGT'
p367
I15645
sS'TACGCT'
p368
I1742
sS'AGATTG'
p369
I8042
sS'CGATCT'
p370
I2927
sS'NNNNNC'
p371
I1
sS'CTCTAG'
p372
I10851
sS'CTCTAA'
p373
I9551
sS'CTCTAC'
p374
I9145
sS'GGGGGG'
p375
I16744
sS'TACGCA'
p376
I1894
sS'TACGCC'
p377
I1991
sS'GGGGGC'
p378
I27691
sS'CGATCG'
p379
I1019
sS'GGGGGA'
p380
I21720
sS'TACGCG'
p381
I1160
sS'CTCTAT'
p382
I7202
sS'ACCGAA'
p383
I2705
sS'CAGACC'
p384
I13754
sS'CAGACA'
p385
I18523
sS'CAGACG'
p386
I6031
sS'ACGTGA'
p387
I4748
sS'TAGTTG'
p388
I5615
sS'GCTAAT'
p389
I6501
sS'TAGTTC'
p390
I6056
sS'TAGTTA'
p391
I5369
sS'CAGACT'
p392
I13579
sS'GCGAAC'
p393
I2719
sS'TAGTTT'
p394
I9502
sS'GCTAAC'
p395
I4788
sS'GCTAAA'
p396
I7736
sS'TGCATT'
p397
I13485
sS'GCGAAA'
p398
I3401
sS'AACCCT'
p399
I11760
sS'GTCCAC'
p400
I8813
sS'AACCCC'
p401
I12615
sS'AACCCA'
p402
I13078
sS'TGCATA'
p403
I7256
sS'TGCATC'
p404
I8932
sS'AGAATA'
p405
I10112
sS'CTACAA'
p406
I7985
sS'AACTGG'
p407
I12673
sS'AACTGA'
p408
I12831
sS'AGTTTA'
p409
I9889
sS'CCCAGA'
p410
I26051
sS'CCCAGC'
p411
I40358
sS'AGAATC'
p412
I10944
sS'CCCAGG'
p413
I41655
sS'AACTGT'
p414
I10930
sS'AGTTTT'
p415
I15862
sS'CTACAT'
p416
I6596
sS'CGAGTC'
p417
I4544
sS'CCCAGT'
p418
I17572
sS'CGCATA'
p419
I1329
sS'ATACTG'
p420
I6963
sS'CGCATC'
p421
I3252
sS'ATACTA'
p422
I4336
sS'ATACTC'
p423
I4905
sS'CGCATG'
p424
I4096
sS'GCGCAA'
p425
I3571
sS'GCGAAT'
p426
I2027
sS'ATACTT'
p427
I7520
sS'CGCATT'
p428
I2743
sS'GCGCAC'
p429
I7213
sS'GCTCCG'
p430
I13062
sS'TATTGT'
p431
I7861
sS'GCTCCC'
p432
I24851
sS'GCTCCA'
p433
I18355
sS'CCTACT'
p434
I8521
sS'TGTACT'
p435
I7244
sS'TTTAGT'
p436
I9753
sS'TATTGG'
p437
I6081
sS'GCTCCT'
p438
I21581
sS'AGGCCG'
p439
I12657
sS'TATTGA'
p440
I6759
sS'TTTAGG'
p441
I9656
sS'TGTACG'
p442
I1829
sS'CCTACG'
p443
I2746
sS'TGTACA'
p444
I8408
sS'TTTAGC'
p445
I7857
sS'TGTACC'
p446
I5585
sS'CCTACC'
p447
I9284
sS'TTCGCG'
p448
I2534
sS'TTCGCA'
p449
I2613
sS'TTCGCC'
p450
I4366
sS'AGTATC'
p451
I4940
sS'GACTAA'
p452
I6446
sS'AGTATA'
p453
I4891
sS'GACTAC'
p454
I4982
sS'AGTATG'
p455
I5984
sS'TTTGGA'
p456
I15351
sS'TTTGGC'
p457
I12069
sS'TTCGCT'
p458
I3669
sS'TTTGGT'
p459
I11468
sS'GCCACA'
p460
I16877
sS'GACTAT'
p461
I4336
sS'AGTATT'
p462
I8503
sS'TTACTC'
p463
I8330
sS'TTACTA'
p464
I6558
sS'TTACTG'
p465
I10262
sS'ACCTTG'
p466
I11809
sS'ACCTTC'
p467
I11745
sS'ACCTTA'
p468
I6127
sS'TTACTT'
p469
I11591
sS'ACGCTT'
p470
I3306
sS'ACCTTT'
p471
I11628
sS'ACAGGG'
p472
I17900
sS'CTGGGA'
p473
I33909
sS'CTGGGC'
p474
I34962
sS'ACAGGC'
p475
I18095
sS'TTATAT'
p476
I8538
sS'CTGGGG'
p477
I34825
sS'AGGACG'
p478
I6453
sS'GCAGCT'
p479
I22000
sS'CAGGAA'
p480
I28525
sS'TCGCTT'
p481
I4376
sS'CAGGAG'
p482
I32404
sS'AGGACA'
p483
I16355
sS'GCGCAT'
p484
I3738
sS'TTATAC'
p485
I4690
sS'ACAGGT'
p486
I10745
sS'CTGGGT'
p487
I22298
sS'TTATAG'
p488
I6142
sS'GTCAGA'
p489
I12027
sS'CTCCGA'
p490
I6081
sS'TCGCTG'
p491
I6584
sS'GAGTTG'
p492
I10392
sS'GCAGCG'
p493
I13958
sS'AGGACT'
p494
I13194
sS'GCAGCA'
p495
I21971
sS'GGAGGG'
p496
I41910
sS'TCGCTA'
p497
I1859
sS'CAGGAT'
p498
I14416
sS'CCTCAG'
p499
I27323
sS'CCTCAA'
p500
I12931
sS'CCTCAC'
p501
I17546
sS'TATGTT'
p502
I8490
sS'ATGGGC'
p503
I9752
sS'TCTTTG'
p504
I16976
sS'ATGGGA'
p505
I13285
sS'TCTTTA'
p506
I12568
sS'ATGGGG'
p507
I14901
sS'TCTTTC'
p508
I21427
sS'CCTCAT'
p509
I13378
sS'TCTTTT'
p510
I24417
sS'TATGTG'
p511
I9370
sS'TATGTA'
p512
I7537
sS'ATGGGT'
p513
I8091
sS'TATGTC'
p514
I5384
sS'GAAAGA'
p515
I21034
sS'ATCAAG'
p516
I7900
sS'CATGAT'
p517
I8106
sS'ATCAAC'
p518
I5614
sS'GAAAGG'
p519
I20916
sS'ATCAAA'
p520
I10287
sS'GTCAGG'
p521
I15538
sS'ACGTGG'
p522
I7036
sS'CATGAG'
p523
I12212
sS'ATCAAT'
p524
I5808
sS'TCAAAC'
p525
I9968
sS'CATGAC'
p526
I9213
sS'CATGAA'
p527
I11444
sS'GTAGCG'
p528
I2526
sS'CAAGTT'
p529
I10738
sS'GCTTTG'
p530
I15432
sS'GTAGCC'
p531
I6377
sS'GCTTTC'
p532
I14953
sS'ACGTGT'
p533
I4204
sS'GAGGAT'
p534
I12517
sS'GCTTTT'
p535
I16364
sS'TGCCAG'
p536
I20443
sS'GTAGCT'
p537
I8123
sS'GCGGCC'
p538
I20170
sS'CAAGTC'
p539
I10622
sS'GCGGCA'
p540
I8689
sS'CAAGTA'
p541
I7617
sS'AACGGT'
p542
I2338
sS'GACGGG'
p543
I7553
sS'GGGGAA'
p544
I22820
sS'TAATCG'
p545
I1311
sS'CTTGTG'
p546
I12773
sS'TAATCA'
p547
I7485
sS'TAATCC'
p548
I9079
sS'CTAAGC'
p549
I7657
sS'CGGCCC'
p550
I18527
sS'CGGCCA'
p551
I9913
sS'TTGATA'
p552
I5958
sS'CGGCCG'
p553
I15183
sS'TCGTGA'
p554
I2948
sS'ATGAAG'
p555
I12547
sS'GGTCTG'
p556
I13481
sS'TAATCT'
p557
I7707
sS'GGTCTC'
p558
I14075
sS'GGTCTA'
p559
I4536
sS'CAGTCA'
p560
I13592
sS'AAAATG'
p561
I23359
sS'AAAATC'
p562
I14190
sS'CGGCCT'
p563
I12616
sS'TCGTCA'
p564
I2505
sS'ATCCCT'
p565
I12011
sS'TTCAGG'
p566
I16184
sS'GAACAT'
p567
I8317
sS'TCGTCG'
p568
I1634
sS'TGCCAA'
p569
I12867
sS'TCGGGA'
p570
I6165
sS'GAACAA'
p571
I11124
sS'ATCCCG'
p572
I4808
sS'GAACAC'
p573
I9353
sS'ATCCCC'
p574
I11665
sS'GAACAG'
p575
I13008
sS'ATCCCA'
p576
I15077
sS'AACGGA'
p577
I3562
sS'CACCAC'
p578
I17375
sS'CACCAA'
p579
I11652
sS'CACCAG'
p580
I19326
sS'AACATT'
p581
I13408
sS'CCGTTA'
p582
I1914
sS'TCCGTC'
p583
I4909
sS'GAGTTA'
p584
I6943
sS'TCCGTA'
p585
I2029
sS'ACCAGA'
p586
I12681
sS'ACGCGA'
p587
I2014
sS'CACCAT'
p588
I11912
sS'AACATG'
p589
I11405
sS'AACATA'
p590
I8368
sS'AACATC'
p591
I8901
sS'GTCAGN'
p592
I1
sS'TCAGCA'
p593
I17603
sS'GCACGG'
p594
I6554
sS'TCAGCC'
p595
I20987
sS'GCACGA'
p596
I3216
sS'CAGTCC'
p597
I14350
sS'GCACGC'
p598
I6745
sS'GCAAGT'
p599
I9414
sS'GCAAGC'
p600
I10070
sS'GCACGT'
p601
I4692
sS'CAGTCT'
p602
I14217
sS'GCAAGG'
p603
I14093
sS'GTCAGT'
p604
I9752
sS'GTATAC'
p605
I2833
sS'TTCCGT'
p606
I4217
sS'GTATAA'
p607
I4804
sS'GTATAG'
p608
I3097
sS'CCGGAA'
p609
I7769
sS'CCGGAC'
p610
I6249
sS'CCGGAG'
p611
I12741
sS'TATCAT'
p612
I6196
sS'CTCGTA'
p613
I1622
sS'TTCCGG'
p614
I7520
sS'TTCCGA'
p615
I3556
sS'TTCCGC'
p616
I6356
sS'GTATAT'
p617
I5171
sS'CGTCTC'
p618
I7318
sS'TATCAA'
p619
I5784
sS'CGTCTG'
p620
I5968
sS'CCGGAT'
p621
I3690
sS'CTCTTC'
p622
I20740
sS'TGTTAT'
p623
I8221
sS'CTCTTA'
p624
I9737
sS'CTCTTG'
p625
I15324
sS'AGGGCT'
p626
I20864
sS'TACGTA'
p627
I1659
sS'TACGTC'
p628
I1711
sS'TCTGGT'
p629
I12963
sS'AACAAA'
p630
I24123
sS'CGCGAT'
p631
I2175
sS'TACGTG'
p632
I2841
sS'TGTTAG'
p633
I7512
sS'GGTTTC'
p634
I13569
sS'TGTTAC'
p635
I7041
sS'CTCTTT'
p636
I20479
sS'TGTTAA'
p637
I9979
sS'TCTGGG'
p638
I25930
sS'CGCGAC'
p639
I3767
sS'GATATT'
p640
I7163
sS'TCTGGC'
p641
I17688
sS'TACGTT'
p642
I1988
sS'CGCGAG'
p643
I6613
sS'AGTCGT'
p644
I2371
sS'TTACCT'
p645
I8915
sS'CTCCAT'
p646
I14554
sS'AATGCG'
p647
I2849
sS'TTACCG'
p648
I2234
sS'CTCCAC'
p649
I19929
sS'CTCCAA'
p650
I15769
sS'TTACCC'
p651
I7092
sS'CTCCAG'
p652
I31893
sS'TTACCA'
p653
I8118
sS'AGTCGC'
p654
I3682
sS'GTACCG'
p655
I1740
sS'CCGACT'
p656
I4488
sS'GCCTAC'
p657
I5915
sS'GCCTAA'
p658
I6418
sS'GCCTAG'
p659
I9201
sS'GTGCGG'
p660
I7666
sS'CCGACA'
p661
I3661
sS'GATATC'
p662
I3636
sS'CCGACC'
p663
I5901
sS'CCGACG'
p664
I3335
sS'GCCTAT'
p665
I5113
sS'TGACGG'
p666
I3859
sS'ACGCTC'
p667
I4371
sS'CCCGAG'
p668
I11806
sS'CTCGTT'
p669
I3377
sS'TCAGCG'
p670
I6407
sS'CTAAGT'
p671
I7463
sS'CCCGAA'
p672
I5150
sS'CGCACA'
p673
I5797
sS'ATACAC'
p674
I7048
sS'CGCACC'
p675
I7046
sS'ATACAA'
p676
I8722
sS'ACTGCT'
p677
I13535
sS'ATACAG'
p678
I8603
sS'CGCACG'
p679
I4694
sS'GGGTCC'
p680
I14277
sS'GAGCGT'
p681
I4273
sS'CTCACT'
p682
I18418
sS'TTTGTA'
p683
I13401
sS'ACTGCA'
p684
I17425
sS'TTTGTC'
p685
I12463
sS'ACTGCC'
p686
I14949
sS'CGCACT'
p687
I4552
sS'ATACAT'
p688
I8099
sS'ACTGCG'
p689
I5767
sS'CTCACC'
p690
I18238
sS'CTCACA'
p691
I16741
sS'CTCACG'
p692
I6547
sS'TAGTGG'
p693
I8064
sS'GTGAGG'
p694
I17935
sS'GATTTT'
p695
I14153
sS'ACAATT'
p696
I8717
sS'GTGAGC'
p697
I15311
sS'TAGTGA'
p698
I7341
sS'GTGAGA'
p699
I14003
sS'TCGACG'
p700
I1097
sS'TCGACA'
p701
I1659
sS'TCGACC'
p702
I2175
sS'ACAATA'
p703
I7546
sS'GTGAGT'
p704
I13804
sS'ACAATC'
p705
I6417
sS'GATTTC'
p706
I11300
sS'ACAATG'
p707
I10047
sS'TTGATT'
p708
I9937
sS'ACGTAA'
p709
I2314
sS'CTGGTT'
p710
I13414
sS'TTGAGT'
p711
I10131
sS'CGAACG'
p712
I1676
sS'CGAACC'
p713
I3049
sS'CGAACA'
p714
I2363
sS'CGGNCC'
p715
I1
sS'CTGGTG'
p716
I19274
sS'CTGGTA'
p717
I7940
sS'CTGGTC'
p718
I13941
sS'CTGCAA'
p719
I15834
sS'CGAACT'
p720
I3144
sS'TTGCAT'
p721
I10359
sS'NNGAAT'
p722
I3
sS'TTGCAG'
p723
I15807
sS'ACTCCT'
p724
I15558
sS'TTGCAC'
p725
I8672
sS'TTGCAA'
p726
I11403
sS'GGGNNN'
p727
I1
sS'AAGATC'
p728
I7837
sS'ACGTAC'
p729
I1673
sS'GAGGGC'
p730
I23690
sS'TCGCAT'
p731
I1777
sS'GAGCGG'
p732
I11789
sS'GTCGTG'
p733
I3016
sS'GTCGTA'
p734
I1146
sS'GTCGTC'
p735
I2789
sS'CCGTTT'
p736
I4493
sS'GAGCAA'
p737
I13013
sS'GCCTCG'
p738
I11668
sS'ATATCG'
p739
I994
sS'GTCGTT'
p740
I2146
sS'TCGCAG'
p741
I5608
sS'TCCATG'
p742
I11521
sS'TCGCAC'
p743
I2919
sS'CCGTTG'
p744
I3115
sS'CGCTGC'
p745
I13688
sS'CCGTTC'
p746
I3938
sS'GATCGG'
p747
I2373
sS'AATGCT'
p748
I12076
sS'GGTACG'
p749
I1659
sS'GGTACA'
p750
I5413
sS'GGTACC'
p751
I4683
sS'TATTTG'
p752
I13643
sS'CCAGTT'
p753
I12744
sS'TTCAGC'
p754
I14627
sS'TATTTC'
p755
I13680
sS'TATTTA'
p756
I16335
sS'CCCCCT'
p757
I22203
sS'GGTACT'
p758
I4994
sS'TCCAGG'
p759
I26320
sS'AATGCC'
p760
I10606
sS'GCCGTG'
p761
I7677
sS'CCCCCC'
p762
I16762
sS'CCCCCA'
p763
I26397
sS'TATTTT'
p764
I25629
sS'CCCCCG'
p765
I16524
sS'CTTGAG'
p766
I14231
sS'ATGATG'
p767
I10148
sS'GAAGTA'
p768
I7896
sS'ATGATA'
p769
I6176
sS'GCGTTA'
p770
I1846
sS'ATGATC'
p771
I6163
sS'TGCAAC'
p772
I8698
sS'TGCAAA'
p773
I16396
sS'TGCAAG'
p774
I11750
sS'GCCGTC'
p775
I5892
sS'ATGATT'
p776
I10429
sS'CTTGAT'
p777
I7850
sS'CGAATC'
p778
I2192
sS'TTGAGG'
p779
I13044
sS'GCCATT'
p780
I10342
sS'CAATGT'
p781
I8360
sS'TTGAGC'
p782
I10160
sS'TTGAGA'
p783
I14503
sS'GAGAAT'
p784
I12930
sS'TGTCTT'
p785
I15125
sS'TTCAGA'
p786
I16617
sS'AGTAGC'
p787
I8039
sS'AAGGCC'
p788
I15263
sS'ATAACC'
p789
I5416
sS'AAGGCA'
p790
I17548
sS'ATAACA'
p791
I8481
sS'AAGGCG'
p792
I7525
sS'ATAACG'
p793
I1724
sS'TCCATT'
p794
I13529
sS'TGTCTG'
p795
I18355
sS'GAGAAG'
p796
I22792
sS'GAGAAA'
p797
I24809
sS'TGTCTC'
p798
I16912
sS'GAGAAC'
p799
I11701
sS'TGTCTA'
p800
I7492
sS'TGTGGC'
p801
I17044
sS'TGTGGA'
p802
I14916
sS'TGTGGG'
p803
I20013
sS'ATAACT'
p804
I7275
sS'AGTAGG'
p805
I8606
sS'CTGTAA'
p806
I14249
sS'AACGGC'
p807
I3620
sS'AGGTAT'
p808
I6019
sS'ACCAAG'
p809
I11567
sS'ACTGAA'
p810
I13948
sS'ACCAAA'
p811
I11881
sS'GGTCAA'
p812
I7163
sS'ACCAAC'
p813
I7658
sS'GGTCAC'
p814
I11179
sS'GATCGC'
p815
I3258
sS'GGTCAT'
p816
I7680
sS'ACCAAT'
p817
I6893
sS'GCCCCT'
p818
I23912
sS'AGGTAA'
p819
I8759
sS'AGGTAC'
p820
I5560
sS'TTTTGC'
p821
I14046
sS'TCTTAC'
p822
I7506
sS'AATTGG'
p823
I7210
sS'TCTTAA'
p824
I10896
sS'TTTTGG'
p825
I14633
sS'ATCATG'
p826
I8243
sS'AATTGC'
p827
I7937
sS'TAGCCA'
p828
I8855
sS'TGGGGT'
p829
I17772
sS'TAGCCC'
p830
I7157
sS'GATAAT'
p831
I6387
sS'CGCTCA'
p832
I5915
sS'TAGCCG'
p833
I2975
sS'AATTGT'
p834
I8934
sS'CGAGAG'
p835
I6790
sS'AATCTT'
p836
I10412
sS'TCTTAT'
p837
I8351
sS'TTTTGT'
p838
I22312
sS'CGCTCT'
p839
I8269
sS'TGGGGG'
p840
I26301
sS'TCTCGT'
p841
I3208
sS'TAGCCT'
p842
I8109
sS'TGGGGC'
p843
I24991
sS'TGGGGA'
p844
I27060
sS'GATCCT'
p845
I9127
sS'AAGAAT'
p846
I14689
sS'CGAAGT'
p847
I3093
sS'GTTATC'
p848
I4401
sS'AAGAAC'
p849
I11756
sS'GATCCA'
p850
I7784
sS'AAGAAA'
p851
I31368
sS'GATCCC'
p852
I9024
sS'AAGAAG'
p853
I18766
sS'GATCCG'
p854
I3745
sS'ATGCCG'
p855
I3129
sS'GCAACG'
p856
I3477
sS'CAAGGG'
p857
I15044
sS'CAAGGC'
p858
I15759
sS'GGTTCT'
p859
I11178
sS'CAAGGA'
p860
I16368
sS'GGCGCN'
p861
I1
sS'GGTTCA'
p862
I8969
sS'GGTTCC'
p863
I11575
sS'CAAGGT'
p864
I11487
sS'GGTTCG'
p865
I3039
sS'TAGGCA'
p866
I8515
sS'ATTATA'
p867
I7644
sS'ATTATC'
p868
I6346
sS'TAGAAT'
p869
I8765
sS'GATAGT'
p870
I3908
sS'ATTATG'
p871
I6956
sS'AGTCTT'
p872
I11354
sS'TAGAAA'
p873
I14746
sS'TAGAAC'
p874
I6415
sS'ATTATT'
p875
I13472
sS'TAGAAG'
p876
I9884
sS'AGTCTA'
p877
I5933
sS'AGTCTC'
p878
I13199
sS'AGTCTG'
p879
I13492
sS'TAACTC'
p880
I7045
sS'TAACTA'
p881
I5457
sS'TAACTG'
p882
I8728
sS'ATCTAT'
p883
I5903
sS'ACGCGT'
p884
I1830
sS'GCCCCG'
p885
I25403
sS'NNNCAC'
p886
I1
sS'TAACTT'
p887
I9223
sS'ATCTAG'
p888
I6344
sS'ATCTAC'
p889
I5227
sS'ATCTAA'
p890
I6775
sS'GGTCAG'
p891
I15404
sS'CCATGT'
p892
I11723
sS'GCCCCC'
p893
I27769
sS'TGGAGG'
p894
I25913
sS'TGGAGA'
p895
I21791
sS'TGGAGC'
p896
I18176
sS'CCATGC'
p897
I10605
sS'CCATGA'
p898
I10708
sS'GCCCCA'
p899
I24535
sS'TGGAGT'
p900
I15931
sS'ATTACG'
p901
I1585
sS'TCAGTA'
p902
I8595
sS'TCAGTC'
p903
I11093
sS'CTCTCT'
p904
I28586
sS'GGGGAT'
p905
I11449
sS'TCAGTG'
p906
I15428
sS'CGATAT'
p907
I1007
sS'GGNNNN'
p908
I1
sS'CTCTCG'
p909
I6757
sS'GGGGAC'
p910
I17136
sS'CTCTCC'
p911
I29072
sS'TCAGTT'
p912
I12955
sS'CTCTCA'
p913
I16476
sS'CGATAG'
p914
I1235
sS'CGATAA'
p915
I1350
sS'CGATAC'
p916
I1026
sS'GAGGGT'
p917
I14506
sS'GTGTTT'
p918
I15600
sS'GCTACT'
p919
I8147
sS'GTGGTT'
p920
I11247
sS'CTAAGA'
p921
I9036
sS'GTGTTC'
p922
I9059
sS'GTGTTA'
p923
I6517
sS'GTGTTG'
p924
I10120
sS'CGTGCC'
p925
I6561
sS'GTGGTA'
p926
I6496
sS'GCTACA'
p927
I6866
sS'GTGGTC'
p928
I9132
sS'GCTACC'
p929
I6031
sS'GTGGTG'
p930
I17210
sS'GCTACG'
p931
I2540
sS'CGTGCA'
p932
I4956
sS'TTTCGT'
p933
I3083
sS'GATCGT'
p934
I1705
sS'TGCCCT'
p935
I21444
sS'AGCGTT'
p936
I3583
sS'CGTGCG'
p937
I4934
sS'TGCCCC'
p938
I20747
sS'TGCCCA'
p939
I20622
sS'TGCCCG'
p940
I9547
sS'TTTCGG'
p941
I3754
sS'AGCGTA'
p942
I1587
sS'AGCGTC'
p943
I4816
sS'AGCGTG'
p944
I5676
sS'GGCCCC'
p945
I27544
sS'GGCCCA'
p946
I19202
sS'CACGTG'
p947
I8682
sS'GGCCCG'
p948
I16183
sS'CACGTA'
p949
I2775
sS'CACGTC'
p950
I5048
sS'CTACGC'
p951
I2407
sS'CTACGA'
p952
I1829
sS'CTACGG'
p953
I2673
sS'ACAGTC'
p954
I10061
sS'CACGTT'
p955
I4285
sS'TTCACG'
p956
I3831
sS'GNCCCA'
p957
I1
sS'GGCCCT'
p958
I20275
sS'GGGACA'
p959
I16026
sS'CTGAAT'
p960
I12922
sS'GGGACC'
p961
I15685
sS'TCGTGG'
p962
I4670
sS'CTACGT'
p963
I2395
sS'TCTTAG'
p964
I9002
sS'AGAGAG'
p965
I28688
sS'AGAGAA'
p966
I25168
sS'AGAGAC'
p967
I16349
sS'TCTATA'
p968
I5337
sS'GTCTTT'
p969
I12514
sS'TCTATC'
p970
I5679
sS'TCTATG'
p971
I6697
sS'AGAGAT'
p972
I14202
sS'ATGTGC'
p973
I9434
sS'GTCTTG'
p974
I10613
sS'TCTATT'
p975
I9138
sS'GTCTTC'
p976
I11517
sS'GTCTTA'
p977
I6188
sS'GCAGAG'
p978
I27855
sS'GCTCAA'
p979
I10026
sS'GCTCAC'
p980
I15224
sS'GCAGAC'
p981
I11956
sS'GCAGAA'
p982
I17706
sS'GCTCAG'
p983
I21545
sS'AGACGT'
p984
I3712
sS'ATGCGT'
p985
I2604
sS'TTGCTG'
p986
I17100
sS'TTGCTA'
p987
I8286
sS'TTGCTC'
p988
I13037
sS'GCAGAT'
p989
I11613
sS'GCTCAT'
p990
I9949
sS'GTACGG'
p991
I1683
sS'TTGCTT'
p992
I16526
sS'GAAGGG'
p993
I23082
sS'GAGAGG'
p994
I27933
sS'CGCTCC'
p995
I13084
sS'ATGCGC'
p996
I3794
sS'ATGCGA'
p997
I1905
sS'TGTAAG'
p998
I8271
sS'GGCTAG'
p999
I7716
sS'TGTAAC'
p1000
I7085
sS'GGCTAC'
p1001
I6505
sS'TGTAAA'
p1002
I14267
sS'GGCTAA'
p1003
I7655
sS'TTCGAG'
p1004
I3722
sS'TTGGTA'
p1005
I6574
sS'ACTGTC'
p1006
I9847
sS'TTGGTC'
p1007
I8255
sS'TTCGAC'
p1008
I1540
sS'TTCGAA'
p1009
I2487
sS'GTTTGG'
p1010
I12052
sS'GGAACC'
p1011
I11708
sS'GGCTAT'
p1012
I5256
sS'TGTAAT'
p1013
I11807
sS'GACTGG'
p1014
I14045
sS'TTCGAT'
p1015
I1669
sS'TTGGTT'
p1016
I11208
sS'ACTGTT'
p1017
I10825
sS'GTTTCT'
p1018
I17821
sS'GAATGA'
p1019
I14732
sS'ATAATT'
p1020
I10618
sS'CCTTTT'
p1021
I19576
sS'GTTTCG'
p1022
I2896
sS'GTTTCC'
p1023
I16553
sS'GATAAA'
p1024
I9666
sS'ATAATG'
p1025
I8072
sS'CCTTTA'
p1026
I10928
sS'CCTTTC'
p1027
I20878
sS'ATAATC'
p1028
I6196
sS'ATAATA'
p1029
I9731
sS'CCTTTG'
p1030
I17221
sS'ACAGAA'
p1031
I19140
sS'ACAGAC'
p1032
I13141
sS'GATAAC'
p1033
I4558
sS'ACAGAG'
p1034
I22788
sS'TTATCT'
p1035
I10906
sS'CTGGAC'
p1036
I14787
sS'CTGGAA'
p1037
I23717
sS'CTGGAG'
p1038
I31603
sS'ACAGAT'
p1039
I12029
sS'TTATCG'
p1040
I1290
sS'CCTTGC'
p1041
I14127
sS'TTATCA'
p1042
I8021
sS'CTGGAT'
p1043
I12612
sS'TTATCC'
p1044
I6496
sS'CCAATG'
p1045
I8652
sS'AAACCG'
p1046
I3911
sS'AAACCA'
p1047
I15569
sS'CCAATC'
p1048
I8512
sS'AAACCC'
p1049
I13763
sS'CCAATA'
p1050
I5957
sS'TGTCGG'
p1051
I3586
sS'ATACGT'
p1052
I1783
sS'CCCTAT'
p1053
I5904
sS'GAGATA'
p1054
I7884
sS'AACGAA'
p1055
I3104
sS'GAGATG'
p1056
I15731
sS'AACGAC'
p1057
I2130
sS'ATTTGA'
p1058
I12324
sS'CCAATT'
p1059
I7320
sS'ATTTGC'
p1060
I11234
sS'GGGTAT'
p1061
I4628
sS'ATTTGG'
p1062
I12322
sS'CCCTAG'
p1063
I10632
sS'TGTCGT'
p1064
I2452
sS'CCCTAC'
p1065
I8537
sS'CATGGA'
p1066
I11678
sS'CCCTAA'
p1067
I8748
sS'CATTAT'
p1068
I7935
sS'TGTTTG'
p1069
I18383
sS'TGGATT'
p1070
I10927
sS'ATCACA'
p1071
I11557
sS'ATCACC'
p1072
I9127
sS'CATGCT'
p1073
I11411
sS'TGACAC'
p1074
I10078
sS'TGACAA'
p1075
I10431
sS'TGGATA'
p1076
I6843
sS'CATTAG'
p1077
I6798
sS'CATTAA'
p1078
I8966
sS'CATTAC'
p1079
I6137
sS'CATGCA'
p1080
I11384
sS'TGACAT'
p1081
I10676
sS'CAATCC'
p1082
I7846
sS'ATCACT'
p1083
I10658
sS'CATGCG'
p1084
I4040
sS'AACCTG'
p1085
I12718
sS'GTAGAA'
p1086
I8009
sS'GTAGAC'
p1087
I4442
sS'GTAGAG'
p1088
I9054
sS'ACAACA'
p1089
I11321
sS'ACAACC'
p1090
I7834
sS'GATTGC'
p1091
I6292
sS'ACAACG'
p1092
I2601
sS'TAAATT'
p1093
I12646
sS'ACTAAG'
p1094
I7162
sS'GTAGAT'
p1095
I5127
sS'TGCTAC'
p1096
I6311
sS'TTGCCT'
p1097
I14861
sS'ATGAGT'
p1098
I11629
sS'GATTGT'
p1099
I6274
sS'TTCAGT'
p1100
I13810
sS'ACAACT'
p1101
I8637
sS'GGGTAA'
p1102
I7289
sS'TAATAG'
p1103
I6061
sS'AGTCCG'
p1104
I4176
sS'TAATAC'
p1105
I5354
sS'GTCCGA'
p1106
I2767
sS'TAATAA'
p1107
I11871
sS'GTCCGC'
p1108
I6033
sS'TGTTTA'
p1109
I14812
sS'CACATC'
p1110
I10926
sS'GTCCGT'
p1111
I3004
sS'TAATAT'
p1112
I8298
sS'CGTAAC'
p1113
I1586
sS'ATTCGC'
p1114
I2033
sS'TTCTCC'
p1115
I23274
sS'ATTCGA'
p1116
I1935
sS'TTCTCA'
p1117
I18874
sS'ATCCAT'
p1118
I7647
sS'TTCTCG'
p1119
I4784
sS'TCGTAC'
p1120
I1049
sS'TACCTT'
p1121
I7695
sS'TCGTAA'
p1122
I1573
sS'TCGTAG'
p1123
I1781
sS'GAACCT'
p1124
I9550
sS'TGAACG'
p1125
I3035
sS'ATCCAC'
p1126
I8775
sS'TGAACC'
p1127
I9055
sS'TTCTCT'
p1128
I25234
sS'TGAACA'
p1129
I11501
sS'GAACCC'
p1130
I10923
sS'GAACCA'
p1131
I10268
sS'TACCTA'
p1132
I5087
sS'TACCTC'
p1133
I7639
sS'TCGTAT'
p1134
I1285
sS'CGTGTA'
p1135
I2412
sS'ACCATC'
p1136
I8310
sS'ACCATA'
p1137
I5178
sS'ACCATG'
p1138
I10363
sS'ATGTTG'
p1139
I10250
sS'AGCTCT'
p1140
I17988
sS'GAGCTG'
p1141
I24652
sS'AGTGGT'
p1142
I10951
sS'CGTGGT'
p1143
I5778
sS'AGATGT'
p1144
I10845
sS'TGATGT'
p1145
I10482
sS'ATGTTT'
p1146
I15876
sS'ACCATT'
p1147
I8198
sS'AGTGGA'
p1148
I13930
sS'AGTGGC'
p1149
I16122
sS'AGCTCC'
p1150
I21054
sS'AGCTCA'
p1151
I16319
sS'GGCCTT'
p1152
I15445
sS'CAGTAA'
p1153
I10299
sS'CAGTAC'
p1154
I6123
sS'CAGTAG'
p1155
I9438
sS'TTAATA'
p1156
I10150
sS'CAGTAT'
p1157
I7222
sS'AAAGTA'
p1158
I11521
sS'AAAGTC'
p1159
I11940
sS'CCGGCT'
p1160
I12282
sS'GATCTA'
p1161
I4195
sS'GATCTC'
p1162
I8778
sS'ATTGAC'
p1163
I5158
sS'GATCTG'
p1164
I10162
sS'TCCCTT'
p1165
I19972
sS'CCGGCC'
p1166
I20896
sS'ATTAGG'
p1167
I6396
sS'ATTAGA'
p1168
I7339
sS'CACATT'
p1169
I13385
sS'GTTCCC'
p1170
I13401
sS'TCCCTC'
p1171
I27808
sS'TGTCCG'
p1172
I4291
sS'TCCCTA'
p1173
I10155
sS'TTAATG'
p1174
I9152
sS'TCCCTG'
p1175
I28276
sS'GATCTT'
p1176
I7885
sS'CACAAT'
p1177
I9246
sS'AAGTGC'
p1178
I12826
sS'TGTTCT'
p1179
I14970
sS'AAGTGG'
p1180
I14012
sS'TGATTG'
p1181
I8920
sS'TGCGCA'
p1182
I6171
sS'TCTGAT'
p1183
I11340
sS'AGACTC'
p1184
I12240
sS'TGTTCA'
p1185
I11655
sS'CACAAG'
p1186
I12656
sS'TGTTCC'
p1187
I12766
sS'CACAAA'
p1188
I16350
sS'CACAAC'
p1189
I9056
sS'TGTTCG'
p1190
I2326
sS'TCTGAA'
p1191
I16876
sS'TGATTT'
p1192
I15008
sS'TCTGAG'
p1193
I20224
sS'CGCGCC'
p1194
I17135
sS'CGCGCA'
p1195
I7048
sS'AGATGG'
p1196
I16703
sS'CGCGCG'
p1197
I14850
sS'CTCCCT'
p1198
I33834
sS'AGCGGG'
p1199
I11527
sS'AGCGGA'
p1200
I6449
sS'ACCTCT'
p1201
I14693
sS'AGATGA'
p1202
I14843
sS'CGCGCT'
p1203
I8398
sS'ACCTCC'
p1204
I18525
sS'ACCTCA'
p1205
I14378
sS'CTCCCA'
p1206
I30123
sS'CTCCCC'
p1207
I35681
sS'TAGCTA'
p1208
I5314
sS'TAAGCC'
p1209
I7410
sS'TAGCTC'
p1210
I7665
sS'CCCATG'
p1211
I12110
sS'CGGGAA'
p1212
I9397
sS'CCCATA'
p1213
I6257
sS'TAGCTG'
p1214
I11151
sS'CCCATC'
p1215
I14831
sS'TTGTTG'
p1216
I11771
sS'CCTGCT'
p1217
I25132
sS'CCGAAT'
p1218
I2479
sS'CCCATT'
p1219
I12484
sS'CGGGAT'
p1220
I4924
sS'TGGGTT'
p1221
I13184
sS'TAGCTT'
p1222
I7537
sS'TAAGCT'
p1223
I7081
sS'GCCTCC'
p1224
I34063
sS'CCGAAC'
p1225
I3117
sS'CCTGCG'
p1226
I12646
sS'CCGAAA'
p1227
I3716
sS'CCGAAG'
p1228
I5645
sS'CCTGCC'
p1229
I34182
sS'CCTGCA'
p1230
I22183
sS'GTACTG'
p1231
I6086
sS'CCATTC'
p1232
I12502
sS'CCATTA'
p1233
I6777
sS'TATAAA'
p1234
I12140
sS'TATAAC'
p1235
I4385
sS'GCNNNN'
p1236
I1
sS'CNNNNN'
p1237
I3
sS'TATAAT'
p1238
I7659
sS'GTCGAA'
p1239
I1582
sS'CCATTT'
p1240
I15968
sS'TCTACA'
p1241
I8207
sS'TCTACC'
p1242
I7480
sS'TCTACG'
p1243
I2058
sS'ACTTTC'
p1244
I12924
sS'CGCAAC'
p1245
I2664
sS'CGCAAA'
p1246
I3475
sS'ATACCG'
p1247
I1345
sS'CGCAAG'
p1248
I4075
sS'ATACCA'
p1249
I6393
sS'ATACCC'
p1250
I4751
sS'TCTACT'
p1251
I8845
sS'CCGAGT'
p1252
I5685
sS'ATACCT'
p1253
I5976
sS'GATAGG'
p1254
I5430
sS'CGCAAT'
p1255
I2062
sS'TAGTAA'
p1256
I6466
sS'TGGGTG'
p1257
I21081
sS'TAGTAC'
p1258
I3294
sS'CTCAAG'
p1259
I14085
sS'GTTTTG'
p1260
I14546
sS'CTCAAA'
p1261
I16378
sS'TAGTAG'
p1262
I5289
sS'CTCAAC'
p1263
I8938
sS'GTGTGC'
p1264
I12815
sS'GTGTGA'
p1265
I13329
sS'GTGTGG'
p1266
I17357
sS'TAACGG'
p1267
I1918
sS'TTGCGT'
p1268
I2815
sS'CTCAAT'
p1269
I7929
sS'TAGTAT'
p1270
I4492
sS'GTTCTC'
p1271
I11671
sS'GTGTGT'
p1272
I31275
sS'ATCTTT'
p1273
I13232
sS'GTTGGG'
p1274
I12836
sS'GTTGGA'
p1275
I9286
sS'GTTGGC'
p1276
I9198
sS'CCTTGG'
p1277
I19470
sS'GGGGGN'
p1278
I1
sS'CCTTGA'
p1279
I12293
sS'GCGTAT'
p1280
I1293
sS'AGGATT'
p1281
I11982
sS'GGACGT'
p1282
I4064
sS'GTTGGT'
p1283
I7715
sS'ATCTTG'
p1284
I10327
sS'GAGAGT'
p1285
I11260
sS'ATCTTA'
p1286
I7026
sS'ATCTTC'
p1287
I10411
sS'CCTTGT'
p1288
I12657
sS'AGGATA'
p1289
I7319
sS'AGGATG'
p1290
I15642
sS'GACATG'
p1291
I8718
sS'GACATC'
p1292
I7747
sS'GACATA'
p1293
I5536
sS'TCGGCG'
p1294
I5235
sS'GAATAT'
p1295
I7570
sS'GGTGCA'
p1296
I11098
sS'TCGGCC'
p1297
I8995
sS'ATCAGA'
p1298
I11136
sS'TTGCGA'
p1299
I2099
sS'GACATT'
p1300
I9910
sS'TTGCGG'
p1301
I4055
sS'GAATAG'
p1302
I6192
sS'TCGGCT'
p1303
I6410
sS'ATCAGC'
p1304
I9729
sS'GAATAC'
p1305
I5298
sS'GAATAA'
p1306
I10167
sS'AAAGAG'
p1307
I19952
sS'TGCAGA'
p1308
I18750
sS'GGACGA'
p1309
I4041
sS'TACAAG'
p1310
I7328
sS'TTTCTA'
p1311
I14841
sS'ACGTCG'
p1312
I1663
sS'GAAATG'
p1313
I18571
sS'AATGAT'
p1314
I10347
sS'GAAATA'
p1315
I13815
sS'GAAATC'
p1316
I11207
sS'ACCGGT'
p1317
I2199
sS'GAAATT'
p1318
I13279
sS'AATGAA'
p1319
I18332
sS'ATGTCC'
p1320
I8442
sS'AATGAC'
p1321
I10882
sS'AATGAG'
p1322
I15077
sS'CGACAG'
p1323
I4852
sS'CTTGGC'
p1324
I17677
sS'GTATTG'
p1325
I4584
sS'GTCCTT'
p1326
I11591
sS'CTTGGG'
p1327
I18948
sS'AGCCCT'
p1328
I20815
sS'GGGAAT'
p1329
I12318
sS'TTGAAT'
p1330
I10807
sS'GTCCTA'
p1331
I5865
sS'GTCCTC'
p1332
I14240
sS'TGCACG'
p1333
I4917
sS'TACTAC'
p1334
I3938
sS'GTCCTG'
p1335
I17071
sS'TGCACC'
p1336
I10987
sS'TTGAAA'
p1337
I16367
sS'TTGAAC'
p1338
I9013
sS'AGCCCA'
p1339
I20804
sS'AGCCCC'
p1340
I24748
sS'CTTATG'
p1341
I6193
sS'ATAAAT'
p1342
I16304
sS'TGGTCG'
p1343
I3003
sS'TGGTCA'
p1344
I10943
sS'TGGTCC'
p1345
I10442
sS'ACGATT'
p1346
I1934
sS'GAGACT'
p1347
I13397
sS'GATTCA'
p1348
I10154
sS'TGGTCT'
p1349
I13061
sS'ATAAAG'
p1350
I11552
sS'CCTGTG'
p1351
I21601
sS'ATAAAA'
p1352
I20231
sS'ATGGTG'
p1353
I11858
sS'ATAAAC'
p1354
I9843
sS'GAGACG'
p1355
I7266
sS'ACGATG'
p1356
I2772
sS'CTACAG'
p1357
I10388
sS'GAGACC'
p1358
I14078
sS'ACGATC'
p1359
I1753
sS'GAGACA'
p1360
I17145
sS'ACGATA'
p1361
I1150
sS'GGTTAC'
p1362
I5165
sS'ATGTGT'
p1363
I13144
sS'GGTTAA'
p1364
I6983
sS'ACCACT'
p1365
I10964
sS'GCACTT'
p1366
I12536
sS'CTTCCT'
p1367
I33072
sS'GAATGT'
p1368
I11831
sS'GAGGAC'
p1369
I14004
sS'CGTGAA'
p1370
I3799
sS'CCAACA'
p1371
I12323
sS'TCCGCT'
p1372
I6315
sS'CTTCCA'
p1373
I19696
sS'CTTCCC'
p1374
I30650
sS'ACCACC'
p1375
I13387
sS'GAGGAA'
p1376
I25619
sS'ACCACA'
p1377
I14299
sS'GGTTAT'
p1378
I5351
sS'TCCGCC'
p1379
I13304
sS'TCCGCA'
p1380
I5359
sS'TCCGCG'
p1381
I7178
sS'AACGTC'
p1382
I2901
sS'TAAGTT'
p1383
I7301
sS'AACGTG'
p1384
I4418
sS'CGTGAC'
p1385
I4685
sS'GGTAGC'
p1386
I6009
sS'AGTGTG'
p1387
I14419
sS'TCTTCG'
p1388
I3827
sS'AGTGTA'
p1389
I6578
sS'TCTTCA'
p1390
I15482
sS'AGTGTC'
p1391
I10058
sS'TCTTCC'
p1392
I23119
sS'CGTGAT'
p1393
I3308
sS'TAAGTC'
p1394
I6137
sS'AACGTT'
p1395
I3093
sS'GGCGAT'
p1396
I3372
sS'TCTTCT'
p1397
I19750
sS'AGTGTT'
p1398
I11353
sS'GTGCGC'
p1399
I7381
sS'TTGGCA'
p1400
I12692
sS'AAAGGT'
p1401
I11642
sS'TTGGCC'
p1402
I14567
sS'AGTAAC'
p1403
I6998
sS'TTAACG'
p1404
I1910
sS'TTGGCG'
p1405
I4550
sS'GACTTC'
p1406
I11042
sS'CGCCGG'
p1407
I12949
sS'GACTTA'
p1408
I6106
sS'GACTTG'
p1409
I10629
sS'ACGTCA'
p1410
I4540
sS'AAAGGG'
p1411
I18867
sS'AAAGGA'
p1412
I22072
sS'TTGGCT'
p1413
I15699
sS'AAAGGC'
p1414
I15795
sS'GAGTAC'
p1415
I4297
sS'GTCGAT'
p1416
I1197
sS'GACTTT'
p1417
I11804
sS'TTCTTT'
p1418
I29182
sS'CAAGAA'
p1419
I15323
sS'AGCGAG'
p1420
I8338
sS'CAAGAC'
p1421
I10567
sS'GATTCG'
p1422
I2287
sS'CAAGAG'
p1423
I15333
sS'TTCTTG'
p1424
I15439
sS'TTCTTC'
p1425
I19537
sS'TTCTTA'
p1426
I12793
sS'CAAGAT'
p1427
I10169
sS'CCCGAT'
p1428
I2740
sS'TACGGG'
p1429
I2216
sS'TACGGA'
p1430
I1980
sS'TACGGC'
p1431
I2063
sS'CTCAGA'
p1432
I20384
sS'TAGAGT'
p1433
I6677
sS'TACGGT'
p1434
I1688
sS'GAGTAT'
p1435
I4997
sS'AGGGCG'
p1436
I13693
sS'AGGGCA'
p1437
I21572
sS'CCCGAC'
p1438
I6613
sS'TCGAGA'
p1439
I3526
sS'TAGAGC'
p1440
I7482
sS'TAGAGA'
p1441
I11997
sS'AAGGGG'
p1442
I18666
sS'GGCGAA'
p1443
I4483
sS'GTGCTG'
p1444
I20050
sS'GTGCTA'
p1445
I6221
sS'ATCTGT'
p1446
I12115
sS'GTGCTC'
p1447
I11062
sS'CAATTC'
p1448
I8394
sS'TAGGAC'
p1449
I5879
sS'ATCTGA'
p1450
I11369
sS'GTGCTT'
p1451
I11602
sS'ATCTGC'
p1452
I11526
sS'CGAATA'
p1453
I1454
sS'CGAATG'
p1454
I2768
sS'ATCTGG'
p1455
I12706
sS'ATCATA'
p1456
I6170
sS'GATAGC'
p1457
I3917
sS'ATCATC'
p1458
I8223
sS'GATAGA'
p1459
I5587
sS'AAGCAA'
p1460
I16492
sS'CAAACT'
p1461
I12644
sS'CTAACC'
p1462
I6182
sS'TTTACC'
p1463
I8494
sS'CATTTC'
p1464
I18643
sS'CTAGGT'
p1465
I7321
sS'CATTTA'
p1466
I13660
sS'ACGCAT'
p1467
I2553
sS'CATTTG'
p1468
I14263
sS'GTTATA'
p1469
I4312
sS'CAAACA'
p1470
I18565
sS'AAGCAT'
p1471
I10650
sS'CAAACC'
p1472
I11468
sS'GTGGCC'
p1473
I18830
sS'ATCATT'
p1474
I10331
sS'CAAACG'
p1475
I4059
sS'ACGCAG'
p1476
I6517
sS'CTAGGG'
p1477
I10510
sS'GTTATT'
p1478
I8329
sS'CTAGGC'
p1479
I9137
sS'CATTTT'
p1480
I23383
sS'CTAGGA'
p1481
I10459
sS'AAGTTT'
p1482
I13637
sS'TACAGT'
p1483
I8799
sS'CTCGAA'
p1484
I3773
sS'CTAACG'
p1485
I2040
sS'CTAAGG'
p1486
I8758
sS'CGGGGA'
p1487
I15242
sS'GGGGCT'
p1488
I24911
sS'TACAGG'
p1489
I11803
sS'AAGTTG'
p1490
I9999
sS'AAGTTA'
p1491
I9263
sS'TACAGC'
p1492
I8429
sS'AAGTTC'
p1493
I10117
sS'TACAGA'
p1494
I11239
sS'GGGGCC'
p1495
I28004
sS'CGGGGG'
p1496
I16672
sS'GGGGCA'
p1497
I20736
sS'GGGGCG'
p1498
I29165
sS'CCATGG'
p1499
I13815
sS'GGGGNN'
p1500
I1
sS'TATATC'
p1501
I4131
sS'TTACGC'
p1502
I1608
sS'TATATA'
p1503
I9650
sS'TGTATA'
p1504
I6617
sS'TATATG'
p1505
I6062
sS'GCTGGG'
p1506
I40681
sS'TCCGGT'
p1507
I3981
sS'GGTCCA'
p1508
I8909
sS'TATATT'
p1509
I9456
sS'TGATGG'
p1510
I10887
sS'CATATG'
p1511
I6437
sS'TGATGC'
p1512
I8613
sS'AGGTCT'
p1513
I11709
sS'TGATGA'
p1514
I11986
sS'AGCATG'
p1515
I11674
sS'TGCCAT'
p1516
I12167
sS'ACTCTT'
p1517
I11117
sS'TGTTTC'
p1518
I16753
sS'CACATA'
p1519
I9371
sS'TTAATT'
p1520
I12203
sS'CACATG'
p1521
I13322
sS'TTTCAT'
p1522
I16870
sS'ATGAGA'
p1523
I12764
sS'ATGAGC'
p1524
I9751
sS'ATGAGG'
p1525
I13283
sS'TTTCAC'
p1526
I14325
sS'ACTCTG'
p1527
I16625
sS'TTTCAA'
p1528
I16060
sS'ACTCTA'
p1529
I6824
sS'AGACCA'
p1530
I13044
sS'ACTCTC'
p1531
I11074
sS'TGCCAC'
p1532
I15432
sS'AAATTC'
p1533
I14105
sS'GACTGA'
p1534
I11040
sS'AAATTA'
p1535
I15694
sS'AAATTG'
p1536
I10907
sS'CCAGTA'
p1537
I8111
sS'AGACCG'
p1538
I4332
sS'CGTACC'
p1539
I1730
sS'TTAATC'
p1540
I7201
sS'AAATTT'
p1541
I16600
sS'CTTAGT'
p1542
I7044
sS'CGTCTA'
p1543
I1929
sS'GGGAAC'
p1544
I13348
sS'GGTGCG'
p1545
I7244
sS'GGGAAA'
p1546
I24555
sS'GGGAAG'
p1547
I30960
sS'GGTGCC'
p1548
I14584
sS'GCCCAT'
p1549
I9574
sS'AGAGCG'
p1550
I8269
sS'GCGACT'
p1551
I3862
sS'AGCGAT'
p1552
I3270
sS'AGAGCC'
p1553
I19375
sS'AGAGCA'
p1554
I18207
sS'GCGTAG'
p1555
I2437
sS'GGTGCT'
p1556
I13627
sS'GCGTAC'
p1557
I1497
sS'TAATTT'
p1558
I15419
sS'GCGTAA'
p1559
I1694
sS'GCGACG'
p1560
I3923
sS'AGAGCT'
p1561
I17879
sS'GCGACA'
p1562
I4059
sS'TATCGG'
p1563
I1147
sS'GCGACC'
p1564
I5262
sS'AGGTCG'
p1565
I4114
sS'GCAGGA'
p1566
I24808
sS'GCAGGC'
p1567
I23012
sS'GCAGGG'
p1568
I31334
sS'CAATTT'
p1569
I10934
sS'GCACTA'
p1570
I5292
sS'CCGTGC'
p1571
I6656
sS'GCTCGG'
p1572
I10088
sS'TATTCT'
p1573
I10199
sS'CCGTGG'
p1574
I8414
sS'CTTTAG'
p1575
I9030
sS'GCAGGT'
p1576
I15112
sS'TGAAGC'
p1577
I12416
sS'TATTCC'
p1578
I8013
sS'CAATTG'
p1579
I5545
sS'TATTCA'
p1580
I9929
sS'CAATTA'
p1581
I6618
sS'TATTCG'
p1582
I1398
sS'GGCGAC'
p1583
I6501
sS'TGTAGA'
p1584
I8214
sS'GGCTCA'
p1585
I19326
sS'AGCATT'
p1586
I11923
sS'TTTACA'
p1587
I14069
sS'TTTACG'
p1588
I2303
sS'TGTAGG'
p1589
I7954
sS'GGCTCG'
p1590
I8380
sS'TTCGGA'
p1591
I3173
sS'TTCGGC'
p1592
I3934
sS'CTTTAC'
p1593
I8272
sS'TTCAAG'
p1594
I13480
sS'TTCGGG'
p1595
I5023
sS'TGAAGG'
p1596
I15505
sS'CACGAG'
p1597
I4800
sS'GGCTCT'
p1598
I19244
sS'TTTCAG'
p1599
I18737
sS'TTTACT'
p1600
I12984
sS'AGCATA'
p1601
I6349
sS'AGACCT'
p1602
I11815
sS'TTCGGT'
p1603
I2773
sS'GTTTAT'
p1604
I9846
sS'GGGGAG'
p1605
I36280
sS'GCCTTT'
p1606
I16018
sS'GTTTAA'
p1607
I9568
sS'GAGGTG'
p1608
I20311
sS'CACGAA'
p1609
I3258
sS'CGAATT'
p1610
I2143
sS'GTTTAG'
p1611
I7105
sS'TGCACT'
p1612
I12375
sS'CGCTAG'
p1613
I3126
sS'CTGGCT'
p1614
I26078
sS'AGGCGG'
p1615
I17938
sS'AGGCGA'
p1616
I6109
sS'AGGCGC'
p1617
I11834
sS'AGGAGT'
p1618
I15529
sS'ACAGCC'
p1619
I18123
sS'ACAGCA'
p1620
I18102
sS'TCCAGC'
p1621
I24102
sS'ACAGCG'
p1622
I6689
sS'AGGAGC'
p1623
I21549
sS'GTCGGA'
p1624
I3120
sS'AGGAGA'
p1625
I25354
sS'CTGGCG'
p1626
I11085
sS'AGGAGG'
p1627
I37641
sS'CTGGCA'
p1628
I20360
sS'CTGGCC'
p1629
I27990
sS'GCGCCC'
p1630
I19915
sS'GCATCG'
p1631
I2841
sS'ACAGCT'
p1632
I16077
sS'GCTCTC'
p1633
I16314
sS'AACGCT'
p1634
I3575
sS'AATTTT'
p1635
I19436
sS'AAACAG'
p1636
I20095
sS'TGTCAC'
p1637
I11997
sS'AAACAC'
p1638
I15802
sS'GCTCTA'
p1639
I7362
sS'ATTTAT'
p1640
I16172
sS'AACGCG'
p1641
I2706
sS'AATTTA'
p1642
I12581
sS'AATTTC'
p1643
I13118
sS'AACGCC'
p1644
I4404
sS'AACGCA'
p1645
I3591
sS'AATTTG'
p1646
I11607
sS'CCCTCA'
p1647
I18505
sS'AAACAT'
p1648
I15491
sS'ATTTAG'
p1649
I9127
sS'CCCTCG'
p1650
I10469
sS'GAGGTT'
p1651
I12229
sS'CAATAT'
p1652
I6588
sS'TGACCA'
p1653
I11148
sS'CATTCT'
p1654
I15553
sS'GCCTTG'
p1655
I15757
sS'AAATGC'
p1656
I15170
sS'GCGCCA'
p1657
I9729
sS'ACCACG'
p1658
I5649
sS'CATTCG'
p1659
I2764
sS'CATTCC'
p1660
I16059
sS'CATTCA'
p1661
I14280
sS'GAATGG'
p1662
I12556
sS'CGCTAT'
p1663
I1674
sS'ACAAAT'
p1664
I14060
sS'GATTAA'
p1665
I7361
sS'GTAGGC'
p1666
I5927
sS'GATTAC'
p1667
I7072
sS'CTGACA'
p1668
I13357
sS'GTAGGG'
p1669
I8541
sS'GATTAG'
p1670
I5253
sS'GCGGGT'
p1671
I8235
sS'ACAAAC'
p1672
I13466
sS'ACAAAA'
p1673
I21967
sS'ACAAAG'
p1674
I16380
sS'GCGGGC'
p1675
I19281
sS'GTCGGT'
p1676
I2652
sS'GCGGGA'
p1677
I14376
sS'GCGGGG'
p1678
I31364
sS'GATTAT'
p1679
I6170
sS'GTAGGT'
p1680
I6319
sS'GGCGTC'
p1681
I7276
sS'TAATGA'
p1682
I9351
sS'GATGTT'
p1683
I9077
sS'TAATGC'
p1684
I6045
sS'GGAGAT'
p1685
I12375
sS'GCCCTT'
p1686
I15563
sS'GGCGTA'
p1687
I2052
sS'GCCCTC'
p1688
I23796
sS'GATGTG'
p1689
I10968
sS'GCCCTA'
p1690
I7581
sS'GATGTA'
p1691
I5236
sS'GCCCTG'
p1692
I29146
sS'GATGTC'
p1693
I7837
sS'CAATAG'
p1694
I5629
sS'TGAAAT'
p1695
I17166
sS'TTCTAG'
p1696
I10564
sS'TTCTAA'
p1697
I11968
sS'ATCCGT'
p1698
I2223
sS'TTCTAC'
p1699
I7869
sS'TGAAAA'
p1700
I20772
sS'TGAAAC'
p1701
I12615
sS'TGAAAG'
p1702
I16130
sS'TTCTAT'
p1703
I9288
sS'ATCCGC'
p1704
I3742
sS'ATCCGA'
p1705
I2110
sS'ATCCGG'
p1706
I3722
sS'TGGCTC'
p1707
I20734
sS'TGGCTA'
p1708
I8852
sS'TGGCTG'
p1709
I26149
sS'GACCGG'
p1710
I5471
sS'AGGCGT'
p1711
I6523
sS'AGTTGT'
p1712
I8845
sS'AGCTAT'
p1713
I6902
sS'CTTACG'
p1714
I2052
sS'ATTAGT'
p1715
I6011
sS'GTCGGC'
p1716
I4988
sS'CGTCGA'
p1717
I1115
sS'NNNNCA'
p1718
I1
sS'TGGCTT'
p1719
I17563
sS'AGTTGG'
p1720
I10645
sS'AGCTAA'
p1721
I8570
sS'AGCTAC'
p1722
I8253
sS'AGTTGC'
p1723
I8512
sS'AGTTGA'
p1724
I8422
sS'AGCTAG'
p1725
I7939
sS'CGTTGA'
p1726
I2269
sS'GCACCT'
p1727
I12613
sS'CAGTGT'
p1728
I14939
sS'AGTCAG'
p1729
I15922
sS'TCAGGT'
p1730
I11600
sS'TCAAGG'
p1731
I12357
sS'GTCGGG'
p1732
I6746
sS'TCAAGC'
p1733
I9641
sS'TCAAGA'
p1734
I11346
sS'GCACCA'
p1735
I12175
sS'CAGTGC'
p1736
I15665
sS'CTAATC'
p1737
I5054
sS'CAGTGA'
p1738
I19436
sS'CAGTGG'
p1739
I20648
sS'CTAATG'
p1740
I6787
sS'TCAAGT'
p1741
I10342
sS'GCACAT'
p1742
I9356
sS'GAGCCC'
p1743
I21664
sS'TCAGGC'
p1744
I16419
sS'CGAGCT'
p1745
I5487
sS'CGTTGG'
p1746
I3743
sS'CTGTTG'
p1747
I13467
sS'GATCAG'
p1748
I7832
sS'AGTCAA'
p1749
I9450
sS'TTCCCT'
p1750
I24827
sS'CGAGCG'
p1751
I6183
sS'CGAGCA'
p1752
I4508
sS'CGCAGC'
p1753
I13655
sS'CGAGCC'
p1754
I8221
sS'TTCCCA'
p1755
I23616
sS'TTCCCC'
p1756
I22796
sS'GTTCAC'
p1757
I7597
sS'TTCCCG'
p1758
I9371
sS'GATCAC'
p1759
I7899
sS'GGACCT'
p1760
I11363
sS'TCCACC'
p1761
I17269
sS'AAGTAC'
p1762
I6336
sS'CACACT'
p1763
I14262
sS'TACATC'
p1764
I5462
sS'AAGTAG'
p1765
I8760
sS'TACATA'
p1766
I7457
sS'CATGGT'
p1767
I10443
sS'GGACCG'
p1768
I6302
sS'ATTGGT'
p1769
I6830
sS'GGACCA'
p1770
I10427
sS'CTTTCT'
p1771
I26131
sS'GGACCC'
p1772
I14444
sS'CACACG'
p1773
I6819
sS'TACATT'
p1774
I9568
sS'CACACC'
p1775
I16504
sS'CTGCAT'
p1776
I13375
sS'CACACA'
p1777
I37101
sS'TCTGCC'
p1778
I22533
sS'TCTGCA'
p1779
I18927
sS'AGGTAG'
p1780
I8779
sS'TCTGCG'
p1781
I7188
sS'TAGATT'
p1782
I6711
sS'CCCGTC'
p1783
I7669
sS'TTAAGG'
p1784
I8852
sS'CCCGTA'
p1785
I2325
sS'TTAAGA'
p1786
I10936
sS'CCCGTG'
p1787
I7194
sS'TTAAGC'
p1788
I7074
sS'TTACGT'
p1789
I2331
sS'TAGATC'
p1790
I4098
sS'TGTCAA'
p1791
I8762
sS'TAGATA'
p1792
I5607
sS'TCCTAT'
p1793
I7323
sS'TAGATG'
p1794
I7523
sS'TGGTTA'
p1795
I7821
sS'TCTGCT'
p1796
I20268
sS'CGTGCT'
p1797
I5204
sS'TTAAGT'
p1798
I9302
sS'TTACGA'
p1799
I1588
sS'TTACGG'
p1800
I1981
sS'CCCGTT'
p1801
I4145
sS'AGTGAC'
p1802
I13087
sS'AGTGAA'
p1803
I14037
sS'AGTGAG'
p1804
I18693
sS'ACATTT'
p1805
I18527
sS'CGGGCG'
p1806
I16162
sS'CCCTCT'
p1807
I26661
sS'TAAGAG'
p1808
I9559
sS'CCTGAT'
p1809
I10048
sS'GAAAGT'
p1810
I12954
sS'CGGGCA'
p1811
I9286
sS'TAAGAC'
p1812
I6395
sS'AAACAA'
p1813
I24739
sS'AGTGAT'
p1814
I10651
sS'NCACAC'
p1815
I1
sS'TAAGAT'
p1816
I7313
sS'CCTGAA'
p1817
I15960
sS'CCTGAC'
p1818
I15742
sS'CCTGAG'
p1819
I24449
sS'GTTAGG'
p1820
I6549
sS'GCCAAC'
p1821
I9316
sS'TATACT'
p1822
I4775
sS'GTTAGC'
p1823
I4947
sS'GTTAGA'
p1824
I6081
sS'TGTAGC'
p1825
I6898
sS'GNNNNN'
p1826
I2
sS'GCCAAA'
p1827
I12175
sS'TATACG'
p1828
I1020
sS'GTTAGT'
p1829
I4869
sS'TATACC'
p1830
I3376
sS'TATACA'
p1831
I6516
sS'ATTGGC'
p1832
I8579
sS'TCTTGT'
p1833
I11889
sS'ACTAGT'
p1834
I4227
sS'TTTATT'
p1835
I24489
sS'GTAATA'
p1836
I5787
sS'ATTGGA'
p1837
I7761
sS'GTAATC'
p1838
I7128
sS'TCTAAC'
p1839
I6130
sS'CGTTCT'
p1840
I4128
sS'CCACCG'
p1841
I10023
sS'GGTAGG'
p1842
I9422
sS'CCACCA'
p1843
I20441
sS'CCACCC'
p1844
I29209
sS'GTTCGT'
p1845
I1984
sS'TTTATG'
p1846
I11161
sS'ACTAGG'
p1847
I7196
sS'TTTATC'
p1848
I9565
sS'ACTAGC'
p1849
I4936
sS'TTTATA'
p1850
I11910
sS'ATTTAC'
p1851
I10081
sS'CCACCT'
p1852
I23566
sS'CGTTCG'
p1853
I1676
sS'TCGTTG'
p1854
I2403
sS'CGTTCA'
p1855
I3037
sS'CGTTCC'
p1856
I5035
sS'TCTAAT'
p1857
I7362
sS'CTTTGT'
p1858
I16719
sS'CCCTCC'
p1859
I41736
sS'ACTGGA'
p1860
I13907
sS'ACTGGC'
p1861
I12546
sS'TAGTCC'
p1862
I5958
sS'GTGACC'
p1863
I11317
sS'TAGTCA'
p1864
I7456
sS'GTGACA'
p1865
I12214
sS'TAGTCG'
p1866
I1304
sS'GTGACG'
p1867
I4924
sS'TGTCAT'
p1868
I11385
sS'ACTGGT'
p1869
I8231
sS'CTTTGG'
p1870
I18236
sS'CTTTGC'
p1871
I15550
sS'CTTTGA'
p1872
I14031
sS'GTGACT'
p1873
I14778
sS'TAGTCT'
p1874
I6363
sS'GTGCAC'
p1875
I8988
sS'CGACGG'
p1876
I3237
sS'ACCTAG'
p1877
I7443
sS'CGACGA'
p1878
I1583
sS'ACCTAA'
p1879
I6762
sS'CGACGC'
p1880
I3543
sS'ACCTAC'
p1881
I6174
sS'CCGCAG'
p1882
I13857
sS'GACTGC'
p1883
I10958
sS'ATTGTG'
p1884
I9455
sS'CCGCAC'
p1885
I7517
sS'GGGACT'
p1886
I15225
sS'ACCTAT'
p1887
I4707
sS'CGACGT'
p1888
I1627
sS'CGAAGA'
p1889
I3794
sS'CCCCGT'
p1890
I7725
sS'CGAAGG'
p1891
I5588
sS'GCGCTC'
p1892
I11097
sS'GTGCAT'
p1893
I8252
sS'GCGCTA'
p1894
I2733
sS'CCGCAT'
p1895
I3359
sS'GTTCGC'
p1896
I2644
sS'GAAGAT'
p1897
I10278
sS'GGATCT'
p1898
I8824
sS'TCGGAA'
p1899
I3617
sS'TCGGAC'
p1900
I2860
sS'GAATCT'
p1901
I9760
sS'TCGGAG'
p1902
I6103
sS'GGATCG'
p1903
I3049
sS'GAAGAG'
p1904
I21043
sS'GAAGAA'
p1905
I19807
sS'GTTCGG'
p1906
I3066
sS'GAAGAC'
p1907
I11379
sS'GGATCA'
p1908
I8373
sS'GAATCA'
p1909
I11288
sS'GAATCC'
p1910
I9159
sS'TCGGAT'
p1911
I2204
sS'GAATCG'
p1912
I2875
sS'ATGGTC'
p1913
I6084
sS'CAGATG'
p1914
I16403
sS'ACGCCG'
p1915
I4722
sS'TGACCC'
p1916
I11868
sS'CTATCA'
p1917
I5323
sS'CAGATC'
p1918
I10112
sS'ACGCCC'
p1919
I8593
sS'TGCGTG'
p1920
I6594
sS'TGTCAG'
p1921
I13330
sS'CTATCT'
p1922
I6963
sS'CAGATT'
p1923
I11880
sS'TGATTA'
p1924
I7688
sS'CTCGAC'
p1925
I2807
sS'ATGGTT'
p1926
I7833
sS'TCGCAA'
p1927
I1994
sS'TGACCG'
p1928
I3513
sS'TTGCGC'
p1929
I3612
sS'GCTATT'
p1930
I7111
sS'TGCGTC'
p1931
I4551
sS'CCGGTA'
p1932
I2353
sS'GCGTGG'
p1933
I10502
sS'AATGGT'
p1934
I7999
sS'GTTACG'
p1935
I1568
sS'GGGACG'
p1936
I9108
sS'AATGGC'
p1937
I10408
sS'AATGGA'
p1938
I13709
sS'AATGGG'
p1939
I12591
sS'GATCAA'
p1940
I5554
sS'CCCCGA'
p1941
I9198
sS'AATAGA'
p1942
I8906
sS'TGCACA'
p1943
I14436
sS'AATAGC'
p1944
I6918
sS'GAGATC'
p1945
I8885
sS'GTGAAT'
p1946
I9576
sS'AGCCAG'
p1947
I26389
sS'TTGACA'
p1948
I8523
sS'AAAAGT'
p1949
I16097
sS'GGAGGA'
p1950
I34987
sS'GGAGGC'
p1951
I34295
sS'TGGTAG'
p1952
I7502
sS'TGACCT'
p1953
I15093
sS'TCGCTC'
p1954
I6362
sS'TGGTAC'
p1955
I4839
sS'GAGGTA'
p1956
I7633
sS'TGGTAA'
p1957
I8220
sS'AAAAGG'
p1958
I19618
sS'GGAGGT'
p1959
I18661
sS'AGCCAT'
p1960
I11621
sS'AAAAGC'
p1961
I16390
sS'AGCCAA'
p1962
I15652
sS'AAAAGA'
p1963
I24367
sS'TTGACT'
p1964
I9292
sS'GAGTGG'
p1965
I16020
sS'CGCCAG'
p1966
I10856
sS'TGGTAT'
p1967
I6527
sS'CGCCAA'
p1968
I4634
sS'GAGTGC'
p1969
I11426
sS'CGCCAC'
p1970
I9934
sS'GAGTGA'
p1971
I13912
sS'GCCAGG'
p1972
I32926
sS'GCCAGA'
p1973
I17756
sS'CTCGTG'
p1974
I4798
sS'GCCAGC'
p1975
I22629
sS'GCCCGT'
p1976
I5478
sS'TACCGA'
p1977
I1580
sS'TACCGC'
p1978
I2436
sS'CTTCAT'
p1979
I12544
sS'GCCCGC'
p1980
I19272
sS'GCCAGT'
p1981
I12704
sS'GCCCGA'
p1982
I7089
sS'GCCCGG'
p1983
I21680
sS'TGCGAT'
p1984
I2258
sS'ATTTAA'
p1985
I15585
sS'CTTCAA'
p1986
I11677
sS'TACCGT'
p1987
I1730
sS'TCCGAG'
p1988
I6303
sS'TCCGAA'
p1989
I3181
sS'TCCGAC'
p1990
I3080
sS'AATTCA'
p1991
I12578
sS'GAGGTC'
p1992
I12982
sS'AATTCC'
p1993
I12765
sS'AATTCG'
p1994
I2097
sS'TCCGAT'
p1995
I1953
sS'NNNGAT'
p1996
I1
sS'TAGCGG'
p1997
I3058
sS'AATTCT'
p1998
I14033
sS'TAGCGC'
p1999
I2686
sS'GTCATC'
p2000
I9282
sS'GTCATA'
p2001
I5817
sS'GTAGGA'
p2002
I7911
sS'GTCATG'
p2003
I9199
sS'AGCAGG'
p2004
I25245
sS'CCAGGT'
p2005
I18456
sS'TTGGAA'
p2006
I15698
sS'TTGGAG'
p2007
I15703
sS'AGCAGA'
p2008
I20433
sS'GGGGTG'
p2009
I23945
sS'CCAGGG'
p2010
I32625
sS'AGCAGT'
p2011
I13916
sS'CCAGGA'
p2012
I30285
sS'CCAGGC'
p2013
I36930
sS'TTGGAT'
p2014
I8435
sS'ACGGTA'
p2015
I1735
sS'CATCTG'
p2016
I16640
sS'ACGGTC'
p2017
I2752
sS'CATCTA'
p2018
I7773
sS'ATAGAC'
p2019
I4433
sS'CATCTC'
p2020
I15505
sS'ATAGAA'
p2021
I8965
sS'GGATGG'
p2022
I15282
sS'CAAGCC'
p2023
I13962
sS'CATCTT'
p2024
I13785
sS'CAAGCA'
p2025
I13356
sS'ACGGTT'
p2026
I2531
sS'CCTGGC'
p2027
I32582
sS'GTTCTT'
p2028
I11686
sS'ACATGA'
p2029
I10165
sS'CGTAAT'
p2030
I1632
sS'ACATGC'
p2031
I9427
sS'TCTTGA'
p2032
I11399
sS'ACATGG'
p2033
I11683
sS'CCCGCT'
p2034
I11276
sS'GTACAT'
p2035
I5293
sS'TGGCGG'
p2036
I11767
sS'CGTAAG'
p2037
I2109
sS'GTTCTG'
p2038
I13521
sS'ACATGT'
p2039
I9400
sS'GTTCTA'
p2040
I6293
sS'CGTAAA'
p2041
I2295
sS'AGGGAG'
p2042
I34204
sS'CCCGCC'
p2043
I35042
sS'AGACGC'
p2044
I5808
sS'CCCGCA'
p2045
I9965
sS'CCCTTT'
p2046
I18766
sS'AGCGCA'
p2047
I5656
sS'TCTTGG'
p2048
I15873
sS'GTTGTT'
p2049
I9838
sS'ATCCTT'
p2050
I10860
sS'TTGTCG'
p2051
I2116
sS'TTGTCC'
p2052
I10362
sS'TTGTCA'
p2053
I10524
sS'ATCCTC'
p2054
I12175
sS'GTTGTA'
p2055
I5321
sS'ATCCTA'
p2056
I6710
sS'GTTGTC'
p2057
I6543
sS'ATCCTG'
p2058
I14117
sS'GTTGTG'
p2059
I9047
sS'TTGTCT'
p2060
I13013
sS'CTATGC'
p2061
I5170
sS'TGACTA'
p2062
I7571
sS'TGGGCC'
p2063
I19295
sS'TGACTC'
p2064
I18471
sS'TGGGCA'
p2065
I20419
sS'TGGGCG'
p2066
I12548
sS'TGACTG'
p2067
I13385
sS'AAGCCG'
p2068
I6555
sS'AAGCCC'
p2069
I16055
sS'AAGCCA'
p2070
I17691
sS'CAAAAT'
p2071
I15585
sS'ACGCGG'
p2072
I5182
sS'TGGGCT'
p2073
I20753
sS'CAAAAC'
p2074
I14413
sS'CAAAAA'
p2075
I21870
sS'AAGCCT'
p2076
I15024
sS'CAAAAG'
p2077
I15327
sS'TCAATG'
p2078
I7542
sS'CCCTTA'
p2079
I8045
sS'TCAATC'
p2080
I5673
sS'TCAATA'
p2081
I6646
sS'CAGTTC'
p2082
I12940
sS'GACCCG'
p2083
I7387
sS'CAGTTG'
p2084
I10412
sS'GACCCC'
p2085
I14062
sS'CTCTGT'
p2086
I22792
sS'TCAATT'
p2087
I7677
sS'GGCCAG'
p2088
I28343
sS'CTCTGC'
p2089
I27879
sS'GACCCT'
p2090
I12124
sS'CTCTGA'
p2091
I20185
sS'CTCTGG'
p2092
I26813
sS'CAGTTT'
p2093
I16768
sS'GCGAAG'
p2094
I5345
sS'ACGTTC'
p2095
I2925
sS'TGCTGG'
p2096
I26228
sS'TGCTGA'
p2097
I17544
sS'GAGTCT'
p2098
I11991
sS'TGCTGC'
p2099
I21736
sS'TAGGGA'
p2100
I9980
sS'GCTGGT'
p2101
I15909
sS'GTGATT'
p2102
I10322
sS'CGCCGT'
p2103
I4501
sS'CTACTA'
p2104
I5341
sS'TGCTGT'
p2105
I18152
sS'TAGGGC'
p2106
I7808
sS'TAATGG'
p2107
I6854
sS'ATGCGG'
p2108
I3425
sS'GTGATG'
p2109
I11170
sS'CTACTG'
p2110
I9351
sS'GTGATC'
p2111
I8002
sS'GCTGGC'
p2112
I22719
sS'GTGATA'
p2113
I5505
sS'GCTGGA'
p2114
I23861
sS'TGATAA'
p2115
I8123
sS'TGTAGT'
p2116
I8131
sS'TGATAC'
p2117
I4595
sS'TGATAG'
p2118
I5359
sS'CTTGTT'
p2119
I12778
sS'GACGGT'
p2120
I3250
sS'GCTAGG'
p2121
I8909
sS'GCTAGA'
p2122
I7342
sS'ATGAAT'
p2123
I13091
sS'GCTAGC'
p2124
I5348
sS'AAGGGT'
p2125
I10540
sS'TGATAT'
p2126
I6331
sS'GTAGTG'
p2127
I5766
sS'GCTAGT'
p2128
I4748
sS'ATGAAC'
p2129
I7683
sS'ATTGGG'
p2130
I7289
sS'ATGAAA'
p2131
I16724
sS'GACGGA'
p2132
I4969
sS'CTTGTA'
p2133
I7269
sS'GACGGC'
p2134
I5970
sS'CTTGTC'
p2135
I10432
sS'CAAAGA'
p2136
I16553
sS'AGTACG'
p2137
I1568
sS'CCATAG'
p2138
I6117
sS'GGTGAA'
p2139
I11689
sS'GGTGAC'
p2140
I12822
sS'GCGTCT'
p2141
I5805
sS'GACTGT'
p2142
I9869
sS'GGTGAG'
p2143
I18695
sS'GGAATG'
p2144
I16111
sS'CGTCCT'
p2145
I6541
sS'GGAATC'
p2146
I9972
sS'GGAATA'
p2147
I8031
sS'GCGTCA'
p2148
I4234
sS'GTTATG'
p2149
I5245
sS'GCGTCC'
p2150
I8403
sS'GGTGAT'
p2151
I9237
sS'GCGTCG'
p2152
I3650
sS'CGTCCG'
p2153
I4170
sS'GGAATT'
p2154
I12820
sS'CGTCCC'
p2155
I9150
sS'CGTCCA'
p2156
I4554
sS'TTTCGA'
p2157
I2246
sS'CCGTAT'
p2158
I1538
sS'GAAGTC'
p2159
I10831
sS'ACGTTT'
p2160
I4272
sS'GAAGTG'
p2161
I15184
sS'GCCGTA'
p2162
I1997
sS'CCGTAC'
p2163
I1701
sS'CCGTAA'
p2164
I2033
sS'CCGTAG'
p2165
I2675
sS'CAAAGT'
p2166
I14807
sS'GCCGTT'
p2167
I3557
sS'TTGGTG'
p2168
I11570
sS'GAAGTT'
p2169
I11262
sS'GGCGCG'
p2170
I17184
sS'ATGCCC'
p2171
I10460
sS'TTAGTT'
p2172
I7826
sS'TATTAG'
p2173
I5694
sS'GGCGCC'
p2174
I18836
sS'TATTAA'
p2175
I9985
sS'GGCGCA'
p2176
I9004
sS'TATTAC'
p2177
I5671
sS'ACTATG'
p2178
I6101
sS'CAACGG'
p2179
I3116
sS'TTTAAG'
p2180
I12757
sS'ACTATC'
p2181
I3864
sS'TTTAAA'
p2182
I27805
sS'ACTATA'
p2183
I4431
sS'TTTAAC'
p2184
I9558
sS'TATTAT'
p2185
I9658
sS'TTAGTG'
p2186
I6993
sS'GGCGCT'
p2187
I11628
sS'TTAGTC'
p2188
I6470
sS'ATGCCT'
p2189
I12439
sS'TTAGTA'
p2190
I6370
sS'TTTAAT'
p2191
I14689
sS'ACTATT'
p2192
I6902
sS'TTTCGC'
p2193
I3317
sS'GGGCAT'
p2194
I10420
sS'TTTCCG'
p2195
I5579
sS'TTTCCA'
p2196
I22223
sS'TTTCCC'
p2197
I24237
sS'GTACGT'
p2198
I1689
sS'GTTTGT'
p2199
I13383
sS'TCAGNN'
p2200
I1
sS'TTTCCT'
p2201
I30932
sS'GGGCAG'
p2202
I32906
sS'GTCTGT'
p2203
I12843
sS'GGGCAA'
p2204
I13504
sS'GGGCAC'
p2205
I15189
sS'GTTTGC'
p2206
I10773
sS'GTTTGA'
p2207
I10017
sS'GTACGC'
p2208
I1408
sS'GTACGA'
p2209
I1110
sS'CCGCTC'
p2210
I11537
sS'GCATGT'
p2211
I9379
sS'CCGCTA'
p2212
I2979
sS'CCGCTG'
p2213
I12331
sS'CGTGGG'
p2214
I9888
sS'GCGCGG'
p2215
I18506
sS'GCGCGC'
p2216
I18572
sS'TGTTTT'
p2217
I26260
sS'GCGCGA'
p2218
I5251
sS'GCATGG'
p2219
I11012
sS'TGGATC'
p2220
I7722
sS'GCATGC'
p2221
I9467
sS'CCGCTT'
p2222
I6452
sS'GCATGA'
p2223
I9878
sS'GTCGAC'
p2224
I1357
sS'GCGCGT'
p2225
I5327
sS'GTCGAG'
p2226
I2773
sS'CGTGGC'
p2227
I8934
sS'GAGCTA'
p2228
I7678
sS'TGCGCT'
p2229
I5803
sS'GAGCTC'
p2230
I16105
sS'ATTGAT'
p2231
I5830
sS'TGTCCT'
p2232
I16483
sS'AGTACA'
p2233
I7214
sS'AAACGC'
p2234
I4655
sS'GTAACA'
p2235
I6904
sS'CACGCG'
p2236
I4996
sS'AAACGG'
p2237
I4674
sS'TGTCCC'
p2238
I16133
sS'TGCGCG'
p2239
I7249
sS'TGTCCA'
p2240
I12863
sS'GAGGGA'
p2241
I28215
sS'GAGCTT'
p2242
I12137
sS'TGCGCC'
p2243
I8991
sS'ATTGAG'
p2244
I7938
sS'CGCTGA'
p2245
I6390
sS'ACCGAC'
p2246
I2749
sS'AAACGT'
p2247
I4305
sS'ATTTCG'
p2248
I2507
sS'ATTTCA'
p2249
I16984
sS'ATTTCC'
p2250
I17351
sS'ATCAGT'
p2251
I8035
sS'ATCGGG'
p2252
I2710
sS'CATAGT'
p2253
I6051
sS'ATCGGC'
p2254
I2336
sS'CCGTGT'
p2255
I5235
sS'ATCGGA'
p2256
I2116
sS'ATTTCT'
p2257
I19904
sS'CGATCA'
p2258
I1720
sS'TGGGTC'
p2259
I12118
sS'TGGGTA'
p2260
I8295
sS'CATAGG'
p2261
I6184
sS'ATCGGT'
p2262
I1561
sS'ATCAGG'
p2263
I10032
sS'CATAGC'
p2264
I6561
sS'CATAGA'
p2265
I6634
sS'ACGGGT'
p2266
I2971
sS'CCTGGT'
p2267
I17471
sS'ATTCGG'
p2268
I2485
sS'GATTCT'
p2269
I10987
sS'CTTTTG'
p2270
I15671
sS'TACTAG'
p2271
I4004
sS'CTTTTC'
p2272
I21244
sS'CTTTTA'
p2273
I14378
sS'GATTCC'
p2274
I10023
sS'ACGGGG'
p2275
I7539
sS'ACGGGA'
p2276
I5276
sS'ACGGGC'
p2277
I5409
sS'GTCCGG'
p2278
I6300
sS'TACTAT'
p2279
I4901
sS'CTTTTT'
p2280
I25005
sS'TCACGA'
p2281
I2858
sS'TCACGC'
p2282
I5679
sS'AGAGTG'
p2283
I14487
sS'CGATTG'
p2284
I2061
sS'TCACGG'
p2285
I4926
sS'GCAGCC'
p2286
I28586
sS'TCACGT'
p2287
I4914
sS'TTCCAC'
p2288
I14390
sS'TTCCAA'
p2289
I15462
sS'TTCCAG'
p2290
I23509
sS'CGAGGC'
p2291
I11669
sS'GTTTCA'
p2292
I12553
sS'ACCCTT'
p2293
I10491
sS'TGAAGT'
p2294
I11936
sS'ATGCTT'
p2295
I10513
sS'TTCCAT'
p2296
I14505
sS'ACCCTA'
p2297
I6647
sS'ACCCTC'
p2298
I14544
sS'CCTACA'
p2299
I7971
sS'ACCCTG'
p2300
I18085
sS'CTGACT'
p2301
I15873
sS'TAGTGT'
p2302
I6069
sS'CCCCTT'
p2303
I18621
sS'AGTTAT'
p2304
I7099
sS'CTGACG'
p2305
I4969
sS'CTGACC'
p2306
I15493
sS'TCCTCT'
p2307
I24578
sS'AGTTAA'
p2308
I9434
sS'CCCCTG'
p2309
I24752
sS'AGTTAC'
p2310
I6947
sS'CCCCTC'
p2311
I31240
sS'AGTTAG'
p2312
I6886
sS'CCCCTA'
p2313
I9424
sS'ACACAG'
p2314
I21158
sS'ACACAA'
p2315
I13598
sS'ACACAC'
p2316
I31301
sS'AATGTT'
p2317
I13504
sS'CTGCAG'
p2318
I32899
sS'CATGGG'
p2319
I12322
sS'CTGCAC'
p2320
I17003
sS'CATGGC'
p2321
I13055
sS'AATGTC'
p2322
I9793
sS'ACACAT'
p2323
I12916
sS'AATGTA'
p2324
I9679
sS'AATGTG'
p2325
I13621
sS'GCACAC'
p2326
I12895
sS'GCACAA'
p2327
I9409
sS'GCACAG'
p2328
I18546
sS'ATGCTG'
p2329
I14289
sS'ATGTTC'
p2330
I8395
sS'CGAGAT'
p2331
I3574
sS'ATTACT'
p2332
I7911
sS'ACATTG'
p2333
I8289
sS'ACATTA'
p2334
I7817
sS'ACATTC'
p2335
I11626
sS'ATTACA'
p2336
I11766
sS'ATGCTC'
p2337
I8755
sS'ATTACC'
p2338
I5422
sS'CGAGAC'
p2339
I5391
sS'CGAGAA'
p2340
I4755
sS'AAGTCT'
p2341
I11431
sS'ATGCTA'
p2342
I6405
sS'GGACAT'
p2343
I8556
sS'CAGCGT'
p2344
I6450
sS'GCTATA'
p2345
I3924
sS'GCTATC'
p2346
I3800
sS'AAGTCG'
p2347
I3059
sS'AACCTA'
p2348
I6296
sS'AAGTCA'
p2349
I13551
sS'GCTATG'
p2350
I6487
sS'AAGTCC'
p2351
I11494
sS'GGACAG'
p2352
I18601
sS'GGACAC'
p2353
I12142
sS'GGACAA'
p2354
I10227
sS'CTAATT'
p2355
I8555
sS'AGGGTT'
p2356
I11455
sS'GAGGCG'
p2357
I17252
sS'TGTTGG'
p2358
I12417
sS'GAGGCA'
p2359
I21164
sS'AGCGCT'
p2360
I7151
sS'GAGGCC'
p2361
I25689
sS'TGTTGC'
p2362
I11044
sS'ACTCGA'
p2363
I2546
sS'TAAAAT'
p2364
I19944
sS'ACTCGC'
p2365
I4174
sS'ACTCGG'
p2366
I5628
sS'TGTTGT'
p2367
I11423
sS'GAGGCT'
p2368
I23933
sS'AGCGCC'
p2369
I11988
sS'AGGGTG'
p2370
I18806
sS'AGGGTA'
p2371
I7368
sS'AGCGCG'
p2372
I8374
sS'AGGGTC'
p2373
I12041
sS'TAAAAG'
p2374
I14355
sS'ACTCGT'
p2375
I2261
sS'TAAAAC'
p2376
I12121
sS'TAAAAA'
p2377
I25338
sS'CTACTC'
p2378
I8012
sS'AGCTGC'
p2379
I21914
sS'ACGTTA'
p2380
I2038
sS'AGCTGA'
p2381
I17342
sS'ACGTTG'
p2382
I3037
sS'AGCTGG'
p2383
I26685
sS'TAGGGG'
p2384
I9498
sS'TAAATG'
p2385
I13610
sS'AGTGCG'
p2386
I4603
sS'AGTGCA'
p2387
I12573
sS'AGAGTT'
p2388
I12129
sS'AGTGCC'
p2389
I13026
sS'AAAACC'
p2390
I14101
sS'TTCGTG'
p2391
I3368
sS'TAGGGT'
p2392
I6417
sS'GCATAG'
p2393
I5255
sS'AGCTGT'
p2394
I16036
sS'CTACTT'
p2395
I8859
sS'AGTGCT'
p2396
I14843
sS'CGTTAC'
p2397
I1767
sS'AGAGTA'
p2398
I7710
sS'AAAACA'
p2399
I25920
sS'TTCGTA'
p2400
I1685
sS'GTTAAA'
p2401
I9446
sS'CTAATA'
p2402
I5860
sS'GTTAAC'
p2403
I5091
sS'CCTGGA'
p2404
I26267
sS'CCTGGG'
p2405
I41605
sS'GTTAAG'
p2406
I6852
sS'CCGGTG'
p2407
I6718
sS'TTCGTC'
p2408
I2573
sS'GCACCC'
p2409
I14109
sS'GTCTGG'
p2410
I15563
sS'GTCTGC'
p2411
I11917
sS'GTTAAT'
p2412
I6976
sS'GTCTGA'
p2413
I10980
sS'GCGGNC'
p2414
I1
sS'GGAAGG'
p2415
I31138
sS'CCACAT'
p2416
I12538
sS'GGAAGC'
p2417
I21077
sS'GCACCG'
p2418
I7118
sS'GGAAGA'
p2419
I23494
sS'TGTATT'
p2420
I11856
sS'CAATGA'
p2421
I10320
sS'GCGTTC'
p2422
I4218
sS'CAATGC'
p2423
I7727
sS'GCGTTG'
p2424
I3583
sS'CAATGG'
p2425
I9177
sS'CCACAG'
p2426
I23278
sS'GGAAGT'
p2427
I16596
sS'CCACAC'
p2428
I17378
sS'CCACAA'
p2429
I12692
sS'ATTTGT'
p2430
I13933
sS'TCCTCG'
p2431
I7688
sS'TGTATG'
p2432
I8288
sS'TCCTCA'
p2433
I18921
sS'GCGTTT'
p2434
I4371
sS'TCCTCC'
p2435
I34881
sS'TGTATC'
p2436
I6004
sS'TCCAAC'
p2437
I8965
sS'TAACCG'
p2438
I1815
sS'TCATAG'
p2439
I7034
sS'TCAGGG'
p2440
I19159
sS'TCATAA'
p2441
I8499
sS'TAACCC'
p2442
I6639
sS'TCATAC'
p2443
I5224
sS'TAACCA'
p2444
I7878
sS'ACCGCT'
p2445
I4145
sS'TCGCGA'
p2446
I2171
sS'TGCATG'
p2447
I11497
sS'TCAGGA'
p2448
I19112
sS'TTCGTT'
p2449
I3173
sS'TCATAT'
p2450
I7476
sS'TAACCT'
p2451
I7609
sS'CGTTAT'
p2452
I1636
sS'GTGAAA'
p2453
I14354
sS'GTGAAC'
p2454
I7709
sS'AACCCG'
p2455
I5298
sS'ACCGCG'
p2456
I5680
sS'ACCGCA'
p2457
I4519
sS'AACGAG'
p2458
I3290
sS'ACCGCC'
p2459
I8340
sS'CCGCCT'
p2460
I17713
sS'AGGCTT'
p2461
I14914
sS'CCTTCT'
p2462
I22364
sS'GTTGCA'
p2463
I8664
sS'TGTCGC'
p2464
I4091
sS'GTTGCC'
p2465
I9915
sS'GTGCCG'
p2466
I5773
sS'GTGCCA'
p2467
I13017
sS'GTTGCG'
p2468
I2868
sS'GTGCCC'
p2469
I15351
sS'CCTTCA'
p2470
I15277
sS'AGGCTA'
p2471
I8021
sS'CCTTCC'
p2472
I31285
sS'AGGCTC'
p2473
I17705
sS'CCGCCC'
p2474
I33890
sS'TGTCGA'
p2475
I1641
sS'CCTTCG'
p2476
I5491
sS'AGGCTG'
p2477
I33786
sS'GTGCCT'
p2478
I14867
sS'CAGCGA'
p2479
I6714
sS'GTTGCT'
p2480
I10432
sS'GGATAT'
p2481
I5479
sS'TCGGGT'
p2482
I4064
sS'AAACCT'
p2483
I12817
sS'GCAGTT'
p2484
I12037
sS'GAAGCT'
p2485
I14796
sS'GGATAA'
p2486
I6622
sS'ATGCCA'
p2487
I12041
sS'GGATAC'
p2488
I4388
sS'NNNNNG'
p2489
I3
sS'TCGGGG'
p2490
I9213
sS'GGATAG'
p2491
I5294
sS'GAAGCG'
p2492
I7311
sS'GCAGTG'
p2493
I21523
sS'GAAGCC'
p2494
I17929
sS'GCAGTA'
p2495
I7836
sS'GAAGCA'
p2496
I15859
sS'GCAGTC'
p2497
I11016
sS'CGCCCG'
p2498
I16244
sS'GAGAGA'
p2499
I26295
sS'GTTCAT'
p2500
I7884
sS'CGCCCC'
p2501
I28586
sS'CGCCCA'
p2502
I12817
sS'AGTTTG'
p2503
I12614
sS'CTATAG'
p2504
I4084
sS'NNNNNN'
p2505
I844
sS'ACGCAC'
p2506
I4444
sS'GCATTA'
p2507
I6085
sS'CTCGCA'
p2508
I4777
sS'CTACAC'
p2509
I6246
sS'AACGAT'
p2510
I1929
sS'GTCTCG'
p2511
I5504
sS'CTATAT'
p2512
I4730
sS'AGTTTC'
p2513
I14268
sS'GCCGGG'
p2514
I23487
sS'AGCATC'
p2515
I10348
sS'GCCGGC'
p2516
I16438
sS'CATGTT'
p2517
I11309
sS'GCCGGA'
p2518
I8833
sS'AGATCT'
p2519
I9338
sS'ACGTAG'
p2520
I2319
sS'GCCACT'
p2521
I15966
sS'CATGTA'
p2522
I7235
sS'CATGTC'
p2523
I8606
sS'GCCGGT'
p2524
I5680
sS'GAGATT'
p2525
I10373
sS'CATGTG'
p2526
I13453
sS'AGTTCG'
p2527
I3084
sS'ATTAAC'
p2528
I6804
sS'GATTGG'
p2529
I8584
sS'TCACTT'
p2530
I15622
sS'GGTTGC'
p2531
I8806
sS'GGCCTA'
p2532
I6982
sS'AATCGG'
p2533
I2468
sS'AATCGC'
p2534
I2824
sS'AATCGA'
p2535
I1783
sS'GTTCAG'
p2536
I10956
sS'TCACTG'
p2537
I19221
sS'TCACTA'
p2538
I7405
sS'TCACTC'
p2539
I13649
sS'AATCGT'
p2540
I1919
sS'AGCCGA'
p2541
I6306
sS'CCGCCG'
p2542
I20217
sS'AGCCGC'
p2543
I12255
sS'TAATTG'
p2544
I6592
sS'AAAAAT'
p2545
I29402
sS'AGCCGG'
p2546
I12254
sS'TAATTC'
p2547
I8340
sS'TGGTGA'
p2548
I14943
sS'TCTCAT'
p2549
I12545
sS'TGGTGC'
p2550
I12386
sS'GATGGC'
p2551
I11207
sS'GGGCTG'
p2552
I33255
sS'TGGTGG'
p2553
I20490
sS'GATGGG'
p2554
I14904
sS'AAAAAA'
p2555
I79668
sS'CAGCTG'
p2556
I28358
sS'AAAAAC'
p2557
I18700
sS'GGGCTC'
p2558
I21643
sS'GAGCGA'
p2559
I6547
sS'AGCCGT'
p2560
I4393
sS'AAAAAG'
p2561
I25353
sS'TGACAG'
p2562
I14189
sS'CCAAGG'
p2563
I19527
sS'ACGTAT'
p2564
I1802
sS'TCTCAG'
p2565
I20796
sS'TCTCAA'
p2566
I14415
sS'TGGTGT'
p2567
I12080
sS'CCAAGA'
p2568
I15781
sS'ATTCGT'
p2569
I2097
sS'AGAACT'
p2570
I12963
sS'CCGCCA'
p2571
I11685
sS'TACCAT'
p2572
I6055
sS'CCTATT'
p2573
I7216
sS'CACTGT'
p2574
I15764
sS'ACCCGA'
p2575
I3952
sS'ATGTCT'
p2576
I10447
sS'ACCCGC'
p2577
I8325
sS'ACCAGT'
p2578
I8512
sS'TACCAC'
p2579
I6460
sS'AGAACG'
p2580
I4326
sS'TACCAA'
p2581
I6586
sS'AGAACA'
p2582
I15143
sS'TACCAG'
p2583
I7902
sS'AGAACC'
p2584
I11119
sS'ACCAGC'
p2585
I15945
sS'CACTGG'
p2586
I17792
sS'CCTATG'
p2587
I6089
sS'ATCACG'
p2588
I3290
sS'ACCAGG'
p2589
I17374
sS'CACTGC'
p2590
I21270
sS'CCTATC'
p2591
I5383
sS'CACTGA'
p2592
I15491
sS'GAGTCA'
p2593
I18697
sS'TAGGTT'
p2594
I6329
sS'GTTTAC'
p2595
I7764
sS'AATTAT'
p2596
I10676
sS'AGCCAC'
p2597
I19969
sS'TGCTAT'
p2598
I7482
sS'CTGTTC'
p2599
I13136
sS'CGGGTT'
p2600
I5294
sS'CTGTTA'
p2601
I8973
sS'AATTAC'
p2602
I7807
sS'TACATG'
p2603
I7230
sS'TAGGTG'
p2604
I8464
sS'TAGGTA'
p2605
I5091
sS'TAGGTC'
p2606
I5233
sS'CGGGTC'
p2607
I7334
sS'CTGTTT'
p2608
I19956
sS'CGGGTA'
p2609
I2732
sS'CGGGTG'
p2610
I9233
sS'ATTGTT'
p2611
I10422
sS'AAGTAA'
p2612
I11391
sS'TGGATG'
p2613
I12325
sS'AGCAAA'
p2614
I18456
sS'ATATAT'
p2615
I10855
sS'AGCAAC'
p2616
I10387
sS'TTAGGC'
p2617
I6227
sS'AAAGCT'
p2618
I14588
sS'AGCAAG'
p2619
I16070
sS'AAAGCA'
p2620
I20191
sS'AAAGCC'
p2621
I16026
sS'TTAGGT'
p2622
I6676
sS'ATATAA'
p2623
I8775
sS'AGCAAT'
p2624
I10100
sS'ATATAC'
p2625
I5013
sS'ATAGCA'
p2626
I7474
sS'ATAGCC'
p2627
I5188
sS'TACTTG'
p2628
I7764
sS'ATAGCG'
p2629
I1677
sS'CAGCGC'
p2630
I13569
sS'ACGGCT'
p2631
I4461
sS'ATAGCT'
p2632
I6946
sS'TACTTT'
p2633
I11714
sS'GGCATG'
p2634
I12472
sS'GTTTTC'
p2635
I15980
sS'CGAGTT'
p2636
I3170
sS'TCCAAT'
p2637
I7707
sS'CGTACT'
p2638
I1632
sS'CAGCGG'
p2639
I12518
sS'TATGCT'
p2640
I6182
sS'CTTAAG'
p2641
I8787
sS'ACATAA'
p2642
I8961
sS'CTTAAA'
p2643
I12811
sS'ACATAG'
p2644
I7025
sS'CTTAAC'
p2645
I6838
sS'CGTACA'
p2646
I1723
sS'TGCGAA'
p2647
I2705
sS'CGAGTG'
p2648
I4712
sS'TTGTTA'
p2649
I9380
sS'CGAGTA'
p2650
I2104
sS'TCCAAA'
p2651
I15307
sS'AGGGGA'
p2652
I23657
sS'CTTAAT'
p2653
I7730
sS'AGGGGC'
p2654
I24278
sS'TATGCA'
p2655
I7212
sS'ACATAT'
p2656
I7787
sS'CGTTTG'
p2657
I3856
sS'CGACTT'
p2658
I3006
sS'TGAATT'
p2659
I12470
sS'TTGTAA'
p2660
I10272
sS'TTGTAC'
p2661
I5517
sS'GTACCT'
p2662
I5539
sS'TTGTAG'
p2663
I7998
sS'TGAATC'
p2664
I9972
sS'CGACTA'
p2665
I1391
sS'TGAATA'
p2666
I9604
sS'CGACTC'
p2667
I4333
sS'TGAATG'
p2668
I14361
sS'AAGTAT'
p2669
I7616
sS'CGGCTG'
p2670
I13016
sS'TTGTAT'
p2671
I8939
sS'ATCGTG'
p2672
I2618
sS'GCTTCG'
p2673
I4775
sS'GCTTCA'
p2674
I12460
sS'GCTTCC'
p2675
I21278
sS'TGGGAG'
p2676
I30429
sS'TGTGGT'
p2677
I14086
sS'TGGGAA'
p2678
I24141
sS'TGGGAC'
p2679
I13848
sS'GCTTCT'
p2680
I17507
sS'TGGCAC'
p2681
I12892
sS'GATTGA'
p2682
I5676
sS'TGGGAT'
p2683
I15123
sS'GGGCTA'
p2684
I7218
sS'CTAGCC'
p2685
I7832
sS'CTAGCA'
p2686
I7652
sS'CTAGCG'
p2687
I3077
sS'CGGTAG'
p2688
I2897
sS'ACTTAG'
p2689
I7417
sS'ACTTAA'
p2690
I9410
sS'CGGTAC'
p2691
I1765
sS'ACTTAC'
p2692
I6577
sS'CGGTAA'
p2693
I2158
sS'GACCAG'
p2694
I13862
sS'GACCAC'
p2695
I9253
sS'CTAGCT'
p2696
I7944
sS'ACTTAT'
p2697
I6075
sS'CGGTAT'
p2698
I1344
sS'TACACA'
p2699
I11301
sS'TACACG'
p2700
I2359
sS'CGTTTA'
p2701
I2560
sS'GCGAGA'
p2702
I6457
sS'GAGAGC'
p2703
I16574
sS'GCGAGC'
p2704
I8246
sS'GCTGAG'
p2705
I25997
sS'GCGAGG'
p2706
I11961
sS'CAGCCG'
p2707
I12796
sS'CAGCCA'
p2708
I26165
sS'GGTATT'
p2709
I6242
sS'CAGCCC'
p2710
I33045
sS'GCGAGT'
p2711
I4139
sS'GAACTG'
p2712
I12595
sS'GAACTC'
p2713
I10739
sS'GAACTA'
p2714
I6033
sS'GGACTT'
p2715
I11533
sS'CACCTA'
p2716
I8313
sS'AACTAT'
p2717
I6314
sS'CACCTC'
p2718
I20343
sS'CACCTG'
p2719
I20744
sS'TGATCC'
p2720
I8442
sS'AACACT'
p2721
I11618
sS'TGATCA'
p2722
I7525
sS'TGATCG'
p2723
I1763
sS'AACTAG'
p2724
I6392
sS'GGACTG'
p2725
I14264
sS'CACCTT'
p2726
I13524
sS'AACTAC'
p2727
I6114
sS'AACTAA'
p2728
I7859
sS'AACACG'
p2729
I4056
sS'AACACA'
p2730
I16512
sS'AACACC'
p2731
I9660
sS'TGATCT'
p2732
I9954
sS'CGTCAA'
p2733
I2140
sS'CTATAC'
p2734
I3155
sS'CAACAG'
p2735
I13510
sS'GACAGT'
p2736
I10145
sS'CAACAA'
p2737
I11511
sS'AAAGAA'
p2738
I28791
sS'CAACAC'
p2739
I10108
sS'GCTGAT'
p2740
I9649
sS'ACGCAA'
p2741
I2683
sS'GACAGG'
p2742
I17038
sS'CAACAT'
p2743
I10119
sS'GACAGC'
p2744
I13897
sS'GACAGA'
p2745
I17568
sS'GTATTA'
p2746
I5342
sS'GTATTC'
p2747
I5316
sS'GTAAGT'
p2748
I6597
sS'CCAGCG'
p2749
I12186
sS'AGAGGT'
p2750
I14608
sS'GGTGGC'
p2751
I21960
sS'TCCCCT'
p2752
I23830
sS'GGTGGA'
p2753
I17323
sS'TATCTT'
p2754
I8941
sS'GGTGGG'
p2755
I30232
sS'NNNGAA'
p2756
I3
sS'AGAGGC'
p2757
I22714
sS'GTAAGA'
p2758
I7517
sS'AGAGGA'
p2759
I24585
sS'GTAAGC'
p2760
I5430
sS'GTATTT'
p2761
I13349
sS'GTAAGG'
p2762
I6764
sS'TCCCCG'
p2763
I15113
sS'TATCTC'
p2764
I7772
sS'TCCCCC'
p2765
I21711
sS'GGTGGT'
p2766
I13278
sS'TCCCCA'
p2767
I26702
sS'GTCGCG'
p2768
I3578
sS'GTCGCA'
p2769
I2632
sS'GTCGCC'
p2770
I6623
sS'TCGGTC'
p2771
I3298
sS'TCGGTA'
p2772
I1590
sS'CTCGCG'
p2773
I6796
sS'TCGGTG'
p2774
I4548
sS'GTCGCT'
p2775
I4078
sS'ACCCGT'
p2776
I2944
sS'CCGTCG'
p2777
I3190
sS'CCGTCA'
p2778
I3885
sS'CCGTCC'
p2779
I7908
sS'GGCTGT'
p2780
I18140
sS'CGCGTG'
p2781
I5224
sS'GCATTT'
p2782
I15162
sS'CGCGTC'
p2783
I5447
sS'CGCGTA'
p2784
I1272
sS'CCACTG'
p2785
I20467
sS'CCACTA'
p2786
I8080
sS'CCACTC'
p2787
I15659
sS'CGCGTT'
p2788
I2697
sS'GGCTGG'
p2789
I38190
sS'GGCTGA'
p2790
I20964
sS'GGCTGC'
p2791
I28923
sS'ATGCAT'
p2792
I9156
sS'TTTAGA'
p2793
I11241
sS'ATGACG'
p2794
I3074
sS'GGAGTT'
p2795
I13986
sS'ATGACA'
p2796
I11250
sS'TTTGTG'
p2797
I16411
sS'ATGACC'
p2798
I7610
sS'CGGGCC'
p2799
I16469
sS'GGGCCT'
p2800
I22214
sS'TAAGAA'
p2801
I12649
sS'ATGACT'
p2802
I13149
sS'GGAGTA'
p2803
I6832
sS'GGAGTC'
p2804
I13415
sS'GGAGTG'
p2805
I18054
sS'GGGCCG'
p2806
I18879
sS'GGGCCC'
p2807
I23736
sS'GGGCCA'
p2808
I19586
sS'GGCAAG'
p2809
I14123
sS'ACGAGT'
p2810
I2284
sS'TTCNNN'
p2811
I2
sS'AGGCCA'
p2812
I20757
sS'AGGCCC'
p2813
I21685
sS'GCGCAG'
p2814
I13359
sS'ACGAGG'
p2815
I5487
sS'ACGAGC'
p2816
I3179
sS'ACGAGA'
p2817
I3138
sS'CTGATG'
p2818
I12409
sS'AGGCCT'
p2819
I19979
sS'AGACGG'
p2820
I6651
sS'GGGTTG'
p2821
I11500
sS'TTTGGG'
p2822
I18290
sS'GGGTTA'
p2823
I6307
sS'CTCGGG'
p2824
I12183
sS'GGGTTC'
p2825
I10916
sS'TTTGAT'
p2826
I10538
sS'TGAACT'
p2827
I11631
sS'ATTGCT'
p2828
I10274
sS'GGGTTT'
p2829
I13668
sS'TGCGAC'
p2830
I2709
sS'AGATCC'
p2831
I8689
sS'TGCGAG'
p2832
I4851
sS'ATTGCC'
p2833
I7490
sS'TTTGAG'
p2834
I16622
sS'ATTGCA'
p2835
I9783
sS'GACTAG'
p2836
I5468
sS'ATTGCG'
p2837
I2128
sS'TTTGAC'
p2838
I8227
sS'TTTGAA'
p2839
I17526
sS'AAGCAG'
p2840
I20077
sS'CGGGCT'
p2841
I11503
sS'TGACGT'
p2842
I4496
sS'CTCGTC'
p2843
I4322
sS'CCCTGG'
p2844
I32312
sS'CCCTGA'
p2845
I19148
sS'AAGCTT'
p2846
I11109
sS'CCCTGC'
p2847
I30947
sS'GTGGGC'
p2848
I16554
sS'GTGTAA'
p2849
I7081
sS'CCCTGT'
p2850
I17825
sS'AAGCTC'
p2851
I11980
sS'GATATA'
p2852
I4162
sS'AAGCTA'
p2853
I7522
sS'GATATG'
p2854
I4976
sS'AAGCTG'
p2855
I17812
sS'TGACGC'
p2856
I4263
sS'CTCGGA'
p2857
I6374
sS'TACTCT'
p2858
I7770
sS'CATCGT'
p2859
I2645
sS'GATGGT'
p2860
I8188
sS'GTAGTC'
p2861
I4940
sS'CAGGGT'
p2862
I18222
sS'CCAGTC'
p2863
I13833
sS'TACGAT'
p2864
I1204
sS'CCAGTG'
p2865
I17833
sS'TACTCG'
p2866
I2116
sS'CATCGA'
p2867
I1997
sS'CATCGC'
p2868
I3805
sS'TACTCC'
p2869
I6854
sS'NGAATT'
p2870
I3
sS'TACTCA'
p2871
I8972
sS'CATCGG'
p2872
I2738
sS'CAGGGG'
p2873
I24643
sS'CAGGGA'
p2874
I28469
sS'CAGGGC'
p2875
I29730
sS'AATCTG'
p2876
I11796
sS'CGGACT'
p2877
I4225
sS'AATCTC'
p2878
I10458
sS'AGTCGA'
p2879
I1934
sS'AATCTA'
p2880
I6725
sS'ATCCAA'
p2881
I8383
sS'TCACAC'
p2882
I13112
sS'TCACAA'
p2883
I11584
sS'TCACAG'
p2884
I18880
sS'GCCATA'
p2885
I5197
sS'CGGACG'
p2886
I4116
sS'GCCATC'
p2887
I11132
sS'CGGACA'
p2888
I4275
sS'CGGACC'
p2889
I5520
sS'GCCATG'
p2890
I12854
sS'TTTTAA'
p2891
I26368
sS'CGCNNN'
p2892
I1
sS'ATTGTC'
p2893
I6597
sS'TCACAT'
p2894
I12196
sS'CACGGA'
p2895
I5590
sS'ATTAAA'
p2896
I14844
sS'ATTAAG'
p2897
I7791
sS'TTTTAC'
p2898
I11763
sS'GGCCTG'
p2899
I27252
sS'TCCACG'
p2900
I6163
sS'CAGNNN'
p2901
I1
sS'GTGCAG'
p2902
I17190
sS'ATTAAT'
p2903
I9342
sS'AAGCAC'
p2904
I11675
sS'TACCTG'
p2905
I8714
sS'GGCCTC'
p2906
I26017
sS'GGTATG'
p2907
I5046
sS'GGTATA'
p2908
I3340
sS'GGTATC'
p2909
I3888
sS'GAACCG'
p2910
I4203
sS'CTGAAA'
p2911
I19134
sS'CTGAAC'
p2912
I10789
sS'CTGAAG'
p2913
I18127
sS'NNNNGA'
p2914
I3
sS'GGCGAG'
p2915
I10994
sS'CATTGC'
p2916
I9449
sS'TATGAG'
p2917
I7322
sS'CATTGA'
p2918
I7545
sS'CTAGTT'
p2919
I6370
sS'CATTGG'
p2920
I8595
sS'TCAACT'
p2921
I8457
sS'ATGTTA'
p2922
I7849
sS'ACACCG'
p2923
I4307
sS'CTGCCA'
p2924
I22637
sS'CTGCCC'
p2925
I32867
sS'ACACCC'
p2926
I13663
sS'ACACCA'
p2927
I12269
sS'CTGCCG'
p2928
I11827
sS'CTAGTG'
p2929
I8017
sS'TCAACC'
p2930
I7245
sS'TCAACA'
p2931
I10746
sS'CTAGTC'
p2932
I5368
sS'TCAACG'
p2933
I2204
sS'CTAGTA'
p2934
I4105
sS'CATTGT'
p2935
I10159
sS'CCCGGG'
p2936
I23889
sS'GTAATG'
p2937
I6216
sS'ACACCT'
p2938
I11319
sS'CTGCCT'
p2939
I31208
sS'CCTCGT'
p2940
I5470
sS'TTGTGT'
p2941
I13593
sS'AGACTG'
p2942
I14289
sS'CGAGGT'
p2943
I5706
sS'AGACTA'
p2944
I6257
sS'CCTCGG'
p2945
I13733
sS'CCTCGC'
p2946
I11772
sS'CCTCGA'
p2947
I4574
sS'CGAGGA'
p2948
I7644
sS'AGACTT'
p2949
I11398
sS'CGAGGG'
p2950
I10370
sS'CACCGT'
p2951
I5006
sS'ACTTTA'
p2952
I9672
sS'ACTTTG'
p2953
I14930
sS'GACCTG'
p2954
I13539
sS'GACCTA'
p2955
I5380
sS'GACCTC'
p2956
I13206
sS'CACCGG'
p2957
I6730
sS'ACGCTG'
p2958
I6543
sS'CACCGA'
p2959
I4486
sS'CACCGC'
p2960
I10785
sS'GACCTT'
p2961
I10225
sS'GGACGC'
p2962
I8234
sS'GGACGG'
p2963
I7989
sS'CTATTA'
p2964
I5926
sS'CACAGC'
p2965
I22764
sS'CTTATC'
p2966
I6428
sS'CACAGA'
p2967
I21597
sS'CTTATA'
p2968
I5204
sS'CACAGG'
p2969
I21728
sS'TTAACT'
p2970
I9394
sS'ACTCAT'
p2971
I11312
sS'GAGGAG'
p2972
I34220
sS'GACGTA'
p2973
I1681
sS'CTTGAC'
p2974
I8094
sS'GCATAC'
p2975
I3798
sS'TAAACT'
p2976
I9775
sS'CGTATG'
p2977
I1503
sS'GACGTG'
p2978
I4900
sS'TTAACA'
p2979
I9816
sS'ACTCAC'
p2980
I13691
sS'TTAACC'
p2981
I7140
sS'ACTCAA'
p2982
I9946
sS'ACTCAG'
p2983
I17896
sS'CTTATT'
p2984
I10047
sS'CACAGT'
p2985
I15767
sS'AGCGAC'
p2986
I4125
sS'TAAACA'
p2987
I14761
sS'AGCGAA'
p2988
I3888
sS'TAAACC'
p2989
I7185
sS'GACGTT'
p2990
I2908
sS'CGTATT'
p2991
I1986
sS'TAAACG'
p2992
I2686
sS'AGTTCC'
p2993
I12201
sS'GTATGT'
p2994
I6953
sS'AGTTCA'
p2995
I11848
sS'CTGTGC'
p2996
I18957
sS'CTGTGA'
p2997
I18852
sS'CGGGGT'
p2998
I9652
sS'TCTAAG'
p2999
I8831
sS'GCAAAG'
p3000
I15582
sS'TAGGAA'
p3001
I12201
sS'GCAAAA'
p3002
I14051
sS'TAGGAG'
p3003
I10859
sS'GCAAAC'
p3004
I11057
sS'CGGGGC'
p3005
I25846
sS'GTATGG'
p3006
I4671
sS'CTGTGT'
p3007
I20833
sS'GTATGA'
p3008
I5323
sS'GTATGC'
p3009
I3876
sS'AGTTCT'
p3010
I12894
sS'GCAAAT'
p3011
I11440
sS'TAGGAT'
p3012
I6605
sS'TAATTA'
p3013
I8763
sS'TTCAAT'
p3014
I8523
sS'TGCTTT'
p3015
I20036
sS'ACAGGA'
p3016
I18028
sS'GTAATT'
p3017
I7743
sS'GTTACC'
p3018
I5261
sS'GTTACA'
p3019
I6895
sS'GTTTTT'
p3020
I18898
sS'TATCGA'
p3021
I874
sS'TATCGC'
p3022
I1275
sS'TATAGT'
p3023
I4443
sS'GTCTAA'
p3024
I5215
sS'TGCTTA'
p3025
I9352
sS'GTCTAC'
p3026
I4361
sS'TGCTTC'
p3027
I15964
sS'TTCAAA'
p3028
I17307
sS'TTCAAC'
p3029
I8410
sS'TGCTTG'
p3030
I13215
sS'TATAGC'
p3031
I3904
sS'TATCGT'
p3032
I1176
sS'TATAGA'
p3033
I5349
sS'AGTGGG'
p3034
I17726
sS'TATAGG'
p3035
I4377
sS'GTGGCG'
p3036
I9807
sS'GTTACT'
p3037
I7189
sS'GGAAAA'
p3038
I24982
sS'AACCTT'
p3039
I9874
sS'CCAAGT'
p3040
I13077
sS'GCTCTG'
p3041
I25448
sS'CCACGT'
p3042
I6999
sS'GGCGTT'
p3043
I4279
sS'AGGACC'
p3044
I12316
sS'ACTAGA'
p3045
I7611
sS'GGCTTT'
p3046
I15778
sS'ACTACT'
p3047
I6065
sS'GAATGC'
p3048
I9778
sS'CCACGA'
p3049
I4653
sS'CAATAC'
p3050
I4656
sS'CCACGC'
p3051
I10306
sS'CAATAA'
p3052
I9182
sS'GTTCCG'
p3053
I4105
sS'AACCTC'
p3054
I12143
sS'CCACGG'
p3055
I8434
sS'CAAGCT'
p3056
I11964
sS'GGCTTA'
p3057
I7346
sS'ACTACC'
p3058
I4846
sS'GGCTTC'
p3059
I17723
sS'ACTACA'
p3060
I8186
sS'ACTACG'
p3061
I1962
sS'GGCTTG'
p3062
I13985
sS'TCCTAG'
p3063
I10707
sS'TAACAA'
p3064
I9160
sS'CGTTGC'
p3065
I3527
sS'TAACAC'
p3066
I6612
sS'TCCTAC'
p3067
I7908
sS'AGTCAC'
p3068
I14837
sS'TCCTAA'
p3069
I9954
sS'TAACAG'
p3070
I9064
sS'TCATCG'
p3071
I2771
sS'GAATTG'
p3072
I8500
sS'AAGCGT'
p3073
I3144
sS'TCATCC'
p3074
I12052
sS'GTTTTA'
p3075
I12056
sS'TCATCA'
p3076
I12135
sS'AGTCAT'
p3077
I13078
sS'TTATAA'
p3078
I9711
sS'TAACAT'
p3079
I8138
sS'CGTTGT'
p3080
I2602
sS'TAAATA'
p3081
I16456
sS'CTTTCC'
p3082
I24193
sS'CTTTCA'
p3083
I16022
sS'CTTTCG'
p3084
I3817
sS'TCGACT'
p3085
I1918
sS'GAGCGC'
p3086
I11129
sS'GTTGAT'
p3087
I5548
sS'CGACCA'
p3088
I2961
sS'CGACCC'
p3089
I6047
sS'CGACCG'
p3090
I2747
sS'CCTTAT'
p3091
I7292
sS'GTTGAC'
p3092
I5703
sS'GTTGAA'
p3093
I8366
sS'ACTGGG'
p3094
I17812
sS'GTTGAG'
p3095
I9067
sS'TTAGGG'
p3096
I8698
sS'CCTTAC'
p3097
I7038
sS'CCTTAA'
p3098
I8837
sS'CCTTAG'
p3099
I8906
sS'CGACCT'
p3100
I4076
sS'CAACTC'
p3101
I10312
sS'CAACTA'
p3102
I5587
sS'CAACTG'
p3103
I10218
sS'AATAGG'
p3104
I7190
sS'CCAAGC'
p3105
I14916
sS'GGGGTT'
p3106
I12465
sS'GTCCCT'
p3107
I15571
sS'ATTCNN'
p3108
I2
sS'GGATGT'
p3109
I9707
sS'AATAGT'
p3110
I6977
sS'TCTCAC'
p3111
I13537
sS'CAACTT'
p3112
I9755
sS'ACTGTA'
p3113
I8763
sS'GGATGC'
p3114
I10143
sS'GGATGA'
p3115
I12070
sS'GGGGTC'
p3116
I14058
sS'GGGGTA'
p3117
I6554
sS'TCTCCG'
p3118
I8058
sS'GAGTCC'
p3119
I12212
sS'AAACTG'
p3120
I16736
sS'TCTCCC'
p3121
I26434
sS'AAACTA'
p3122
I9596
sS'TCTCCA'
p3123
I21769
sS'AAACTC'
p3124
I13034
sS'CTATGA'
p3125
I7041
sS'GTGAAG'
p3126
I12748
sS'ACGCGC'
p3127
I5128
sS'GCTAAG'
p3128
I7941
sS'AGTACC'
p3129
I5009
sS'CTATGG'
p3130
I6134
sS'TGCCGC'
p3131
I8744
sS'AAACTT'
p3132
I13638
sS'CCCTTC'
p3133
I23114
sS'TCTCCT'
p3134
I25084
sS'CCCTTG'
p3135
I14718
sS'AGTACT'
p3136
I6259
sS'CTATGT'
p3137
I7021
sS'GCCGAA'
p3138
I3917
sS'GTGGAG'
p3139
I19948
sS'GCCGAC'
p3140
I4947
sS'GTGGAC'
p3141
I8908
sS'GCCGAG'
p3142
I12970
sS'GTGGAA'
p3143
I14377
sS'GTGGAT'
p3144
I8970
sS'GCCGAT'
p3145
I2380
sS'AGATAG'
p3146
I6954
sS'ACCCGG'
p3147
I9389
sS'ACCGAG'
p3148
I5253
sS'AAATCG'
p3149
I2742
sS'GTAGTA'
p3150
I3993
sS'CACGCA'
p3151
I6309
sS'AAATCC'
p3152
I12710
sS'CACGCC'
p3153
I11190
sS'AAATCA'
p3154
I14907
sS'AGAGGG'
p3155
I26794
sS'AGATAC'
p3156
I6267
sS'TCCCGA'
p3157
I6058
sS'CACGCT'
p3158
I5655
sS'AAATCT'
p3159
I13749
sS'ACCGAT'
p3160
I1526
sS'CTTGAA'
p3161
I13479
sS'GTAGTT'
p3162
I6146
sS'AGATAA'
p3163
I10944
sS'TGCCGT'
p3164
I3915
sS'GATGAT'
p3165
I8275
sS'GGAGCA'
p3166
I17598
sS'GGAGCC'
p3167
I26222
sS'AAAGTG'
p3168
I16518
sS'CCAAAT'
p3169
I12514
sS'GGAGCG'
p3170
I13260
sS'AAAACT'
p3171
I16043
sS'GATGAC'
p3172
I9271
sS'GATGAA'
p3173
I11446
sS'GCTCTT'
p3174
I14342
sS'GATGAG'
p3175
I12823
sS'CCAAAA'
p3176
I14830
sS'CCAAAC'
p3177
I12229
sS'AAAACG'
p3178
I5221
sS'GGAGCT'
p3179
I20974
sS'CCAAAG'
p3180
I18132
sS'TCGCGG'
p3181
I5545
sS'CGGTCC'
p3182
I6223
sS'TCGCGC'
p3183
I5381
sS'GGGAGT'
p3184
I15067
sS'TACCCT'
p3185
I7235
sS'AGATCA'
p3186
I9855
sS'GCCACC'
p3187
I22321
sS'AGAAAT'
p3188
I19758
sS'GCGCTT'
p3189
I5640
sS'GCCACG'
p3190
I8807
sS'AGATCG'
p3191
I3046
sS'ATGTCA'
p3192
I10815
sS'TCGCGT'
p3193
I2056
sS'GTGCAA'
p3194
I8821
sS'GTCTAT'
p3195
I4471
sS'AGAAAG'
p3196
I25622
sS'TACCCG'
p3197
I2864
sS'AGAAAC'
p3198
I17742
sS'TACCCA'
p3199
I8513
sS'AGAAAA'
p3200
I32629
sS'TACCCC'
p3201
I6718
sS'ATGTAC'
p3202
I5344
sS'GACCGA'
p3203
I3284
sS'ATGTAA'
p3204
I9804
sS'ATGTAG'
p3205
I6485
sS'CCTATA'
p3206
I4352
sS'ACTGTG'
p3207
I15739
sS'CCGGCA'
p3208
I8239
sS'GACGAC'
p3209
I2719
sS'ATGTCG'
p3210
I1913
sS'ATGTAT'
p3211
I8064
sS'GTTCCA'
p3212
I10370
sS'ATTAGC'
p3213
I6574
sS'AGCACT'
p3214
I14892
sS'TTAGAA'
p3215
I12210
sS'GACGAG'
p3216
I4268
sS'TTAGAC'
p3217
I5123
sS'CGGCTC'
p3218
I12828
sS'TTAGAG'
p3219
I9495
sS'CGGCTA'
p3220
I3028
sS'AGCACC'
p3221
I13904
sS'AGCACA'
p3222
I15228
sS'AGCACG'
p3223
I5124
sS'GGTCGG'
p3224
I6177
sS'CGGCTT'
p3225
I6461
sS'CGCCCT'
p3226
I13562
sS'TTAGAT'
p3227
I6645
sS'CCAGCA'
p3228
I26459
sS'CGAAGC'
p3229
I4858
sS'CCAGCC'
p3230
I37776
sS'ATATCC'
p3231
I5459
sS'ATATCA'
p3232
I6218
sS'GCGCTG'
p3233
I13501
sS'TTATTT'
p3234
I25236
sS'TGTGAG'
p3235
I16903
sS'TGTGAA'
p3236
I14872
sS'ACGTCT'
p3237
I3741
sS'TGTGAC'
p3238
I12653
sS'ATATCT'
p3239
I7236
sS'CCAGCT'
p3240
I26630
sS'CACGGT'
p3241
I4738
sS'AAAGAT'
p3242
I13262
sS'TGTGAT'
p3243
I11806
sS'TTATTG'
p3244
I9216
sS'TTATTA'
p3245
I11608
sS'GAAAGC'
p3246
I14846
sS'TTATTC'
p3247
I10220
sS'ACATCT'
p3248
I10937
sS'TTTTAT'
p3249
I19755
sS'CTTACT'
p3250
I8659
sS'TCCACT'
p3251
I13541
sS'TACAAA'
p3252
I13107
sS'AGACGA'
p3253
I3327
sS'TACAAC'
p3254
I5268
sS'CCTCTG'
p3255
I29835
sS'AGGTGG'
p3256
I23049
sS'CCTCTC'
p3257
I27719
sS'AGGTGC'
p3258
I12787
sS'CCTCTA'
p3259
I10697
sS'AGGTGA'
p3260
I15894
sS'TACAAT'
p3261
I6660
sS'TCCACA'
p3262
I14920
sS'TTTTAG'
p3263
I13232
sS'ACATCG'
p3264
I2223
sS'CTTACC'
p3265
I7182
sS'ACATCA'
p3266
I10362
sS'CTTACA'
p3267
I8453
sS'ACATCC'
p3268
I9515
sS'AGGTGT'
p3269
I11318
sS'CCTCTT'
p3270
I20590
sS'GCGTGA'
p3271
I5850
sS'CCCGGC'
p3272
I23730
sS'CCCGGA'
p3273
I11658
sS'TATGAC'
p3274
I5724
sS'TATGAA'
p3275
I8821
sS'TGGAAT'
p3276
I15706
sS'AATTAA'
p3277
I12460
sS'AGGGGG'
p3278
I22082
sS'TTGTGC'
p3279
I9459
sS'TATGAT'
p3280
I6211
sS'TTGTGG'
p3281
I12778
sS'CCCGGT'
p3282
I6464
sS'GGCGTG'
p3283
I11486
sS'TGGAAG'
p3284
I19836
sS'GGTTTT'
p3285
I14214
sS'TGGAAC'
p3286
I10399
sS'TGGAAA'
p3287
I22564
sS'TGAGGA'
p3288
I19115
sS'AAGAGG'
p3289
I20246
sS'TGAGGC'
p3290
I19381
sS'AAGAGA'
p3291
I20192
sS'AAGAGC'
p3292
I14266
sS'TGAGGG'
p3293
I18511
sS'GCTTAG'
p3294
I7353
sS'GCTTAC'
p3295
I5239
sS'GCTTAA'
p3296
I7007
sS'TGATTC'
p3297
I11272
sS'AAGCGC'
p3298
I5790
sS'AAGAGT'
p3299
I11214
sS'AAGCGA'
p3300
I4487
sS'TGAGGT'
p3301
I14198
sS'GCTTAT'
p3302
I6160
sS'CTGCTA'
p3303
I9116
sS'GCGTGT'
p3304
I5719
sS'CTGCTC'
p3305
I22557
sS'ACTTCT'
p3306
I13762
sS'CCGCAA'
p3307
I4016
sS'GACCGT'
p3308
I2766
sS'CTGCTG'
p3309
I32169
sS'CGGTCA'
p3310
I3544
sS'GGTCGT'
p3311
I2562
sS'CTAGAG'
p3312
I10979
sS'CTAGAA'
p3313
I10611
sS'CTAGAC'
p3314
I6080
sS'ACTTCG'
p3315
I3157
sS'GACCGC'
p3316
I5381
sS'ACTTCC'
p3317
I16675
sS'CTGCTT'
p3318
I19909
sS'ACTTCA'
p3319
I11958
sS'CTAGAT'
p3320
I6403
sS'AAGTGT'
p3321
I10862
sS'AGCGGT'
p3322
I4128
sS'CGGTCT'
p3323
I4231
sS'GGTCGC'
p3324
I5197
sS'GGTCGA'
p3325
I2222
sS'CGTCGC'
p3326
I3941
sS'CAGCAT'
p3327
I14532
sS'CGTCGG'
p3328
I3365
sS'GCGTGC'
p3329
I6900
sS'TGCTCA'
p3330
I15191
sS'TTCATC'
p3331
I11415
sS'TGCTCC'
p3332
I17796
sS'TTCATA'
p3333
I9075
sS'TTCATG'
p3334
I11603
sS'TGCTCG'
p3335
I4441
sS'CAGAAT'
p3336
I14270
sS'CAGCAG'
p3337
I32386
sS'TACACT'
p3338
I6664
sS'GCGGCT'
p3339
I12173
sS'CAGCAC'
p3340
I20001
sS'CAGCAA'
p3341
I17212
sS'GTACAC'
p3342
I4944
sS'TCTGAC'
p3343
I12080
sS'TTCATT'
p3344
I18300
sS'GCTTTA'
p3345
I8848
sS'GCTGCC'
p3346
I26889
sS'GCTGCA'
p3347
I20581
sS'AACTCT'
p3348
I11967
sS'TGGCCC'
p3349
I19238
sS'TGGCCA'
p3350
I21541
sS'GTAGCA'
p3351
I6429
sS'TCATCT'
p3352
I14884
sS'TGCTCT'
p3353
I17989
sS'AACTCA'
p3354
I11879
sS'TGGCCT'
p3355
I20886
sS'AACTCC'
p3356
I14101
sS'GCTGCT'
p3357
I24840
sS'AACTCG'
p3358
I3180
sS'CAGTCG'
p3359
I3841
sS'GGATCC'
p3360
I9523
sS'TGAAGA'
p3361
I15320
sS'AATATT'
p3362
I15646
sS'GTTCGA'
p3363
I2422
sS'CAACCT'
p3364
I11058
sS'CAGTTA'
p3365
I8781
sS'TGGCCG'
p3366
I10047
sS'GGCACG'
p3367
I6475
sS'GGCACA'
p3368
I14736
sS'GACAAT'
p3369
I6518
sS'GGCACC'
p3370
I14070
sS'CAACCG'
p3371
I3195
sS'CAGAAA'
p3372
I24806
sS'AATATG'
p3373
I8936
sS'CGGTCG'
p3374
I2812
sS'AATATA'
p3375
I9528
sS'TTAGGA'
p3376
I9908
sS'AATATC'
p3377
I7081
sS'GACAAA'
p3378
I12289
sS'GGCACT'
p3379
I12892
sS'GACAAC'
p3380
I6462
sS'CAGAAC'
p3381
I13654
sS'GACAAG'
p3382
I10542
sS'GCTGCG'
p3383
I13918
sS'GCGGCG'
p3384
I23516
sS'GCAATA'
p3385
I5887
sS'GAATTT'
p3386
I13796
sS'CAAGTG'
p3387
I12777
sS'CGATGG'
p3388
I3410
sS'GACACT'
p3389
I10072
sS'TCCCAT'
p3390
I13124
sS'CGATGC'
p3391
I2811
sS'GTAAAT'
p3392
I10015
sS'CGATGA'
p3393
I2904
sS'GAATTA'
p3394
I8439
sS'GAATTC'
p3395
I10649
sS'GCAATT'
p3396
I7767
sS'TCCCAA'
p3397
I16771
sS'CGATGT'
p3398
I2084
sS'GTAAAA'
p3399
I11846
sS'GTAAAG'
p3400
I8358
sS'TCCCAG'
p3401
I33707
sS'GGATTT'
p3402
I12615
sS'GTGCGT'
p3403
I4659
sS'ATGGTA'
p3404
I6057
sS'GGATTC'
p3405
I9444
sS'AATTAG'
p3406
I8580
sS'GGATTA'
p3407
I9040
sS'AGGTCC'
p3408
I11191
sS'AGCGGC'
p3409
I11646
sS'GATAAG'
p3410
I6432
sS'ACGCCA'
p3411
I4849
sS'ATATAG'
p3412
I4737
sS'TCTGTG'
p3413
I21586
sS'CTATCC'
p3414
I5256
sS'GTCCCG'
p3415
I8988
sS'TCTGTA'
p3416
I11271
sS'AACCGG'
p3417
I3784
sS'CTCCTT'
p3418
I22691
sS'GGCGGA'
p3419
I13597
sS'CAGATA'
p3420
I8932
sS'AACCGC'
p3421
I4081
sS'AACCGA'
p3422
I2883
sS'GTGGGA'
p3423
I19264
sS'TCTGTT'
p3424
I16480
sS'AAAGCG'
p3425
I5176
sS'CTCCTG'
p3426
I32435
sS'AACCGT'
p3427
I2383
sS'CTCCTA'
p3428
I10854
sS'CTCCTC'
p3429
I34034
sS'GGCGGT'
p3430
I8322
sS'AACAAG'
p3431
I12564
sS'GACGCC'
p3432
I7119
sS'CCCACA'
p3433
I19792
sS'CCCACC'
p3434
I30239
sS'TACTTC'
p3435
I7978
sS'AGCCTT'
p3436
I15347
sS'CCGATT'
p3437
I2409
sS'CCCACT'
p3438
I17915
sS'ACTTTT'
p3439
I16006
sS'TACTTA'
p3440
I7047
sS'GACGCT'
p3441
I5027
sS'GTGCGA'
p3442
I3018
sS'CCGATA'
p3443
I1162
sS'CCGATC'
p3444
I2260
sS'AGCCTA'
p3445
I7867
sS'AGCCTC'
p3446
I23736
sS'GTACCC'
p3447
I4886
sS'CTCCCG'
p3448
I17473
sS'ACGAAT'
p3449
I2045
sS'CGCCTT'
p3450
I7557
sS'GCGCCT'
p3451
I11885
sS'TCNNNN'
p3452
I2
sS'CAGAGT'
p3453
I16702
sS'GCATCT'
p3454
I10891
sS'ACCTCG'
p3455
I5724
sS'AGGCAC'
p3456
I14624
sS'CGCCTC'
p3457
I17034
sS'AGGCAA'
p3458
I14654
sS'CGCCTA'
p3459
I3256
sS'AGGCAG'
p3460
I31391
sS'CGCCTG'
p3461
I14293
sS'ACGAAG'
p3462
I3569
sS'CAGAGG'
p3463
I29800
sS'GCATCC'
p3464
I9888
sS'GCATCA'
p3465
I8523
sS'CAGAGC'
p3466
I25420
sS'AAAATT'
p3467
I19752
sS'CAGAGA'
p3468
I25894
sS'GCCTCT'
p3469
I22926
sS'CCTAGA'
p3470
I10022
sS'CCTAGC'
p3471
I8984
sS'TTTGCT'
p3472
I18261
sS'CGGGAG'
p3473
I17502
sS'TGCGGT'
p3474
I4581
sS'CCTAGG'
p3475
I11541
sS'TAAGCA'
p3476
I9492
sS'GTCTAG'
p3477
I5842
sS'TTTGCA'
p3478
I16099
sS'TTTGCC'
p3479
I13785
sS'CCTAGT'
p3480
I7428
sS'TGCGGG'
p3481
I10210
sS'TAAGCG'
p3482
I2236
sS'TGAGTT'
p3483
I11750
sS'CGGGAC'
p3484
I9166
sS'ATCGCT'
p3485
I3355
sS'ATCGCC'
p3486
I3276
sS'TGAGTG'
p3487
I14646
sS'ATCGCA'
p3488
I2278
sS'TGAGTA'
p3489
I9221
sS'ATCGCG'
p3490
I2244
sS'TGAGTC'
p3491
I17608
sS'AAGGTG'
p3492
I13586
sS'AAGGTC'
p3493
I10098
sS'CATCAT'
p3494
I10208
sS'AAGGTA'
p3495
I7705
sS'AAGCGG'
p3496
I6389
sS'ACGGCA'
p3497
I3993
sS'CATCAC'
p3498
I11052
sS'ACGGCC'
p3499
I6160
sS'CATCAA'
p3500
I8515
sS'CATCAG'
p3501
I12229
sS'ACGGCG'
p3502
I4597
sS'TCACCT'
p3503
I15437
sS'CGGAAT'
p3504
I3097
sS'ATCGAT'
p3505
I1183
sS'TCACCG'
p3506
I5561
sS'TCACCA'
p3507
I15350
sS'TCACCC'
p3508
I15306
sS'CGGAAG'
p3509
I8694
sS'CAACCC'
p3510
I11413
sS'AAAATA'
p3511
I25758
sS'CGGAAC'
p3512
I4408
sS'AGCTCG'
p3513
I5538
sS'CGGAAA'
p3514
I5800
sS'GCCTCA'
p3515
I19372
sS'ATCCAG'
p3516
I12586
sS'ATGGCG'
p3517
I5674
sS'TGTGTA'
p3518
I11538
sS'CAACCA'
p3519
I10245
sS'ATGGCA'
p3520
I12378
sS'TCGTCC'
p3521
I3982
sS'ATGGCT'
p3522
I11680
sS'TGTGTT'
p3523
I16259
sS'AGAATT'
p3524
I13950
sS'AGATTC'
p3525
I9896
sS'GAAACA'
p3526
I16847
sS'GAAACC'
p3527
I13326
sS'CTGAGT'
p3528
I17626
sS'GAAACT'
p3529
I14544
sS'AGAATG'
p3530
I15643
sS'AGATTT'
p3531
I13713
sS'ACATAC'
p3532
I6958
sS'CTGAGC'
p3533
I21660
sS'CTGAGA'
p3534
I20701
sS'CTGAGG'
p3535
I26880
sS'CATACC'
p3536
I5152
sS'CATACA'
p3537
I8064
sS'CATACG'
p3538
I1466
sS'GCAATC'
p3539
I6288
sS'TCAAAT'
p3540
I12150
sS'GTCCAT'
p3541
I6876
sS'AGGGGT'
p3542
I13957
sS'CAGGAC'
p3543
I16933
sS'CATACT'
p3544
I5678
sS'GTCCAG'
p3545
I14672
sS'TCAAAG'
p3546
I13948
sS'TCAAAA'
p3547
I16303
sS'GCAATG'
p3548
I9330
sS'CGGCGG'
p3549
I20806
sS'TTGATG'
p3550
I8221
sS'ATCGAG'
p3551
I2211
sS'CGGCGC'
p3552
I15418
sS'TTGATC'
p3553
I5643
sS'CGGCGA'
p3554
I5488
sS'TCCAAG'
p3555
I15125
sS'CGTTAG'
p3556
I2052
sS'AAGTGA'
p3557
I15767
sS'AACTGC'
p3558
I11843
sS'CGGCGT'
p3559
I4777
sS'ATGGCC'
p3560
I10291
sS'ATCGAC'
p3561
I1145
sS'TATAAG'
p3562
I5220
sS'TGACTT'
p3563
I13662
sS'TCGTCT'
p3564
I3293
sS'AAAGAC'
p3565
I12545
sS'GGTTTA'
p3566
I7028
sS'CGGTTC'
p3567
I4152
sS'GCTGTT'
p3568
I13978
sS'CGGTTG'
p3569
I3354
sS'GGTTTG'
p3570
I11393
sS'CCATTG'
p3571
I9298
sS'CGTACG'
p3572
I835
sS'GCTGTG'
p3573
I22951
sS'GCTGTC'
p3574
I13805
sS'CGGTTT'
p3575
I4114
sS'GCTGTA'
p3576
I8386
sS'GGGAGG'
p3577
I51647
sS'TATGCG'
p3578
I1362
sS'AGGTTG'
p3579
I11102
sS'AGGTTC'
p3580
I9481
sS'AGGTTA'
p3581
I7559
sS'TCCATA'
p3582
I6274
sS'TTTTTC'
p3583
I26117
sS'TCCATC'
p3584
I12279
sS'TTTTTA'
p3585
I25237
sS'TTTTTG'
p3586
I21579
sS'GAGGGG'
p3587
I31157
sS'TTAAAT'
p3588
I15537
sS'AGGTTT'
p3589
I12949
sS'TATGCC'
p3590
I5253
sS'TTAAAC'
p3591
I9834
sS'TTAAAA'
p3592
I26288
sS'ACTCCG'
p3593
I5738
sS'TTAAAG'
p3594
I13273
sS'ACTCCA'
p3595
I16071
sS'TTTTTT'
p3596
I79214
sS'ACTCCC'
p3597
I14900
sS'TAGGCT'
p3598
I7791
sS'GTCACG'
p3599
I4702
sS'CTGTAC'
p3600
I7167
sS'GCAACT'
p3601
I8202
sS'GTCACC'
p3602
I12521
sS'CTGTAG'
p3603
I10331
sS'GTCACA'
p3604
I12717
sS'CGGTTA'
p3605
I1797
sS'AGGGAT'
p3606
I12004
sS'GGTCTT'
p3607
I10105
sS'GTCACT'
p3608
I13018
sS'TAGGCG'
p3609
I3371
sS'GCAACC'
p3610
I8876
sS'CTGTAT'
p3611
I8608
sS'GCAACA'
p3612
I10855
sS'TAGGCC'
p3613
I6874
sS'ATTCAT'
p3614
I13112
sS'TCCCAC'
p3615
I19067
sS'GCGATT'
p3616
I2835
sS'TCGTGT'
p3617
I2940
sS'TTCACT'
p3618
I13824
sS'GTCTCT'
p3619
I16139
sS'TCCGTG'
p3620
I5567
sS'ATTCAG'
p3621
I13137
sS'ATTCAA'
p3622
I10941
sS'ATTCAC'
p3623
I9730
sS'GTCTCC'
p3624
I16549
sS'GTCTCA'
p3625
I13296
sS'GCGATG'
p3626
I3724
sS'TTCACC'
p3627
I11790
sS'GCGATA'
p3628
I1350
sS'TTCACA'
p3629
I14740
sS'GCGATC'
p3630
I3163
sS'GAAGGC'
p3631
I17176
sS'GAAGGA'
p3632
I22409
sS'CGATTC'
p3633
I2869
sS'CGATTA'
p3634
I1277
sS'CAATCT'
p3635
I8167
sS'GGAACA'
p3636
I12780
sS'GGAACG'
p3637
I5296
sS'TGACGA'
p3638
I2493
sS'TACTGC'
p3639
I7629
sS'CGATTT'
p3640
I2811
sS'GAAGGT'
p3641
I11785
sS'CTCGCT'
p3642
I8090
sS'CAATCG'
p3643
I2061
sS'CAATCA'
p3644
I8796
sS'GGAACT'
p3645
I11949
sS'TCCTGA'
p3646
I19181
sS'AGTCCA'
p3647
I11469
sS'TCCTGC'
p3648
I24729
sS'AGTCCC'
p3649
I14827
sS'ACTAAA'
p3650
I9713
sS'TCCTGG'
p3651
I30602
sS'ACTAAC'
p3652
I5026
sS'TAACGC'
p3653
I1826
sS'TAACGA'
p3654
I1626
sS'CAGCTA'
p3655
I11141
sS'CAGCTC'
p3656
I25184
sS'ACTAAT'
p3657
I5947
sS'AGTCCT'
p3658
I13531
sS'TCCTGT'
p3659
I18031
sS'TAATGT'
p3660
I7975
sS'CAGCTT'
p3661
I17836
sS'GGTTAG'
p3662
I5996
sS'TAACGT'
p3663
I2067
sS'TTGACC'
p3664
I7205
sS'GTACTT'
p3665
I6530
sS'CGACAT'
p3666
I1970
sS'TTGTTC'
p3667
I11117
sS'CCGAGG'
p3668
I13324
sS'CGACTG'
p3669
I3956
sS'CCGAGA'
p3670
I7383
sS'ACGGAA'
p3671
I4259
sS'CCGAGC'
p3672
I9944
sS'CCGCGT'
p3673
I5433
sS'CGACAC'
p3674
I3024
sS'CGACAA'
p3675
I2115
sS'GTACTC'
p3676
I4480
sS'GTACTA'
p3677
I3036
sS'CCGCGC'
p3678
I18354
sS'TTGACG'
p3679
I2139
sS'CCGCGA'
p3680
I5534
sS'CCGCGG'
p3681
I16792
sS'TTGTTT'
p3682
I24723
sS'GCATAT'
p3683
I5498
sS'TCCGTT'
p3684
I3458
sS'CAGGCG'
p3685
I14264
sS'AATAAC'
p3686
I8664
sS'AATAAA'
p3687
I24884
sS'AATAAG'
p3688
I9927
sS'AAGGCT'
p3689
I15534
sS'ATCGTT'
p3690
I1853
sS'CGCCAT'
p3691
I5596
sS'GGATTG'
p3692
I7811
sS'TACTAA'
p3693
I6441
sS'GAGTGT'
p3694
I10541
sS'AATAAT'
p3695
I13589
sS'ACGGTG'
p3696
I4998
sS'CCAACC'
p3697
I11969
sS'CTCAGT'
p3698
I16473
sS'CCAACG'
p3699
I3586
sS'GGGATT'
p3700
I13172
sS'CGCCGC'
p3701
I23172
sS'AGTAAA'
p3702
I12906
sS'CGCCGA'
p3703
I5224
sS'GAGTAG'
p3704
I8094
sS'TCGAGT'
p3705
I2424
sS'GAGTAA'
p3706
I8487
sS'AGTAAG'
p3707
I8702
sS'CTCAGG'
p3708
I24528
sS'CTCAGC'
p3709
I26162
sS'CCAACT'
p3710
I10557
sS'TATTGC'
p3711
I6001
sS'ATCGTC'
p3712
I1738
sS'GTGTAG'
p3713
I6356
sS'TCGAGC'
p3714
I3035
sS'AGTAAT'
p3715
I8055
sS'GTGTAC'
p3716
I5027
sS'TCGAGG'
p3717
I4611
sS'GTGGCA'
p3718
I15575
sS'CATATT'
p3719
I9024
sS'ATCGTA'
p3720
I1231
sS'CTCGGC'
p3721
I12978
sS'GCCGCC'
p3722
I26809
sS'GCCGCA'
p3723
I8896
sS'GCCGCG'
p3724
I17240
sS'ACACTT'
p3725
I10999
sS'CTCGGT'
p3726
I5403
sS'AGATAT'
p3727
I7125
sS'GTGGCT'
p3728
I19800
sS'CATATA'
p3729
I6044
sS'GTCAGC'
p3730
I12294
sS'ACACTC'
p3731
I10339
sS'ACACTA'
p3732
I6199
sS'ACACTG'
p3733
I15068
sS'GCCGCT'
p3734
I11560
sS'ACCGGA'
p3735
I4024
sS'AAATAA'
p3736
I25818
sS'ACCGGC'
p3737
I5620
sS'AAATAC'
p3738
I13142
sS'CTTTAA'
p3739
I13278
sS'AATCCT'
p3740
I11848
sS'AAATAG'
p3741
I12118
sS'AACTTA'
p3742
I7301
sS'CAGGTA'
p3743
I8674
sS'AACTTC'
p3744
I11427
sS'CAGGTC'
p3745
I13796
sS'CACGAC'
p3746
I3073
sS'AACTTG'
p3747
I10736
sS'CAGGTG'
p3748
I20679
sS'CTTTAT'
p3749
I11423
sS'AATCCC'
p3750
I13218
sS'GCTCGT'
p3751
I3173
sS'AATCCA'
p3752
I10954
sS'AAATAT'
p3753
I18746
sS'AATCCG'
p3754
I2750
sS'CACGAT'
p3755
I2610
sS'CAGGTT'
p3756
I12771
sS'AACTTT'
p3757
I13475
sS'TCTGTC'
p3758
I17443
sS'GGGATA'
p3759
I6099
sS'GGGATC'
p3760
I8945
sS'GGGTGT'
p3761
I13680
sS'GGGATG'
p3762
I15292
sS'GATGCT'
p3763
I10304
sS'CGCAGT'
p3764
I5796
sS'GAGTCG'
p3765
I4164
sS'GAGCCT'
p3766
I17790
sS'GGAGAC'
p3767
I16772
sS'GGGTGA'
p3768
I15901
sS'GGAGAA'
p3769
I23243
sS'GGGTGC'
p3770
I14091
sS'GGAGAG'
p3771
I29774
sS'GGGTGG'
p3772
I29430
sS'GAGCCA'
p3773
I20884
sS'CGCAGG'
p3774
I12546
sS'GATGCG'
p3775
I3485
sS'CGCAGA'
p3776
I7355
sS'GATGCA'
p3777
I9064
sS'GAGCCG'
p3778
I12875
sS'GATGCC'
p3779
I9729
sS'CGGATT'
p3780
I2845
sS'GGTAGT'
p3781
I4842
sS'ACCCCT'
p3782
I14083
sS'GCCAAT'
p3783
I8552
sS'GGCGGG'
p3784
I35457
sS'AGAGTC'
p3785
I11520
sS'AGAAGT'
p3786
I13522
sS'ACCCCA'
p3787
I17510
sS'GGTAGA'
p3788
I7354
sS'ACCCCC'
p3789
I15668
sS'CGGATG'
p3790
I3920
sS'GCCAAG'
p3791
I17814
sS'CGGATA'
p3792
I1515
sS'ACCCCG'
p3793
I9874
sS'CGGATC'
p3794
I3751
sS'AGAAGA'
p3795
I19878
sS'AGAAGC'
p3796
I17551
sS'GCAAGA'
p3797
I12450
sS'AGAAGG'
p3798
I22223
sS'CACTCC'
p3799
I17575
sS'CACTCA'
p3800
I14329
sS'CACTCG'
p3801
I4646
sS'TGCGTT'
p3802
I3471
sS'TCAGCT'
p3803
I17823
sS'AGCTTT'
p3804
I14685
sS'CCCCGG'
p3805
I19468
sS'TGCGTA'
p3806
I2009
sS'CCCCGC'
p3807
I30527
sS'CACTCT'
p3808
I14451
sS'AGCTTC'
p3809
I15067
sS'AGCTTA'
p3810
I6927
sS'AGCTTG'
p3811
I11937
sS'ATACGA'
p3812
I1289
sS'TTAGCT'
p3813
I8645
sS'AGGAAG'
p3814
I32796
sS'TTAGCC'
p3815
I7698
sS'TTAGCA'
p3816
I8801
sS'GACCAT'
p3817
I6205
sS'TTAGCG'
p3818
I2136
sS'CGATCC'
p3819
I3019
sS'ATAGGT'
p3820
I4777
sS'ATAAGG'
p3821
I7290
sS'AAACGA'
p3822
I3747
sS'TGTGCT'
p3823
I15274
sS'AAGGGC'
p3824
I15548
sS'ATAAGC'
p3825
I6033
sS'AAGGGA'
p3826
I20256
sS'ATAAGA'
p3827
I8362
sS'CCAGAC'
p3828
I15733
sS'CCAGAA'
p3829
I19990
sS'CCAGAG'
p3830
I26947
sS'TGTGCG'
p3831
I5935
sS'TCTAAA'
p3832
I11202
sS'ATAGGG'
p3833
I5914
sS'TGTGCC'
p3834
I14834
sS'ATAGGA'
p3835
I7233
sS'TGTGCA'
p3836
I14635
sS'ATAGGC'
p3837
I5253
sS'GCTCGC'
p3838
I8234
sS'TTTGCG'
p3839
I3430
sS'CCAGAT'
p3840
I12378
sS'AGACAA'
p3841
I13006
sS'GACGCA'
p3842
I4413
sS'AGACAC'
p3843
I13707
sS'AGACAG'
p3844
I21001
sS'TTTTCT'
p3845
I32783
sS'CGCTGT'
p3846
I6800
sS'CCCACG'
p3847
I9764
sS'CTTCAC'
p3848
I12540
sS'AGACAT'
p3849
I10715
sS'CGTGGA'
p3850
I6022
sS'TTTTCG'
p3851
I3177
sS'AACAAC'
p3852
I9620
sS'CGTCTT'
p3853
I4265
sS'TTTTCC'
p3854
I24916
sS'TTTTCA'
p3855
I20430
sS'CGCTGG'
p3856
I12093
sS'TATGGA'
p3857
I6532
sS'TATGGC'
p3858
I5351
sS'CGTAGG'
p3859
I2729
sS'CGTAGA'
p3860
I2078
sS'TATGGG'
p3861
I6229
sS'CGTAGC'
p3862
I2501
sS'CTTCAG'
p3863
I18420
sS'TGGACT'
p3864
I11646
sS'CGTAGT'
p3865
I1903
sS'NNCACA'
p3866
I1
sS'GCTCGA'
p3867
I2943
sS'TATGGT'
p3868
I5227
sS'TGGACA'
p3869
I12857
sS'TGGACC'
p3870
I8999
sS'TGGACG'
p3871
I4649
sS'GGCGGN'
p3872
I1
sS'CCGGTT'
p3873
I3892
sS'GACCAA'
p3874
I8270
sS'GCTTGA'
p3875
I9695
sS'TGAGAC'
p3876
I13395
sS'GCTTGC'
p3877
I10144
sS'TGAGAA'
p3878
I19062
sS'TGAGAG'
p3879
I16831
sS'GCTTGG'
p3880
I14785
sS'CCTGTT'
p3881
I14267
sS'TATCAC'
p3882
I5489
sS'CCGGTC'
p3883
I5354
sS'TACACC'
p3884
I5074
sS'CCTGTC'
p3885
I17049
sS'CCTGTA'
p3886
I11948
sS'CTCGCC'
p3887
I10774
sS'GCTTGT'
p3888
I9742
sS'TGAGAT'
p3889
I12732
sS'GGTTGT'
p3890
I7887
sS'TATCAG'
p3891
I6725
sS'AATTCN'
p3892
I2
sS'TAGCGT'
p3893
I1796
sS'GGTTGG'
p3894
I12255
sS'AACAAT'
p3895
I10291
sS'GGTTGA'
p3896
I7238
sS'CTGTGG'
p3897
I23210
sS'GGAAAC'
p3898
I16827
sS'TCCCGC'
p3899
I14185
sS'GTAACG'
p3900
I1761
sS'TCCCGG'
p3901
I15190
sS'GTAACC'
p3902
I5183
sS'CGTTTT'
p3903
I5171
sS'ATTCTC'
p3904
I12722
sS'AGGGAA'
p3905
I24802
sS'ATTCTA'
p3906
I8829
sS'ATTCTG'
p3907
I14471
sS'TCATTT'
p3908
I20337
sS'GTAACT'
p3909
I7099
sS'TGCTAA'
p3910
I8681
sS'TGCTAG'
p3911
I7565
sS'TCCCGT'
p3912
I5208
sS'AGGATC'
p3913
I9346
sS'TCATTC'
p3914
I14695
sS'TCATTA'
p3915
I9142
sS'TCATTG'
p3916
I10423
sS'ATTCTT'
p3917
I14726
sS'CGTTTC'
p3918
I5260
sS'ACCGGG'
p3919
I6427
sS'TGGCAA'
p3920
I13093
sS'AGCCTG'
p3921
I27392
sS'TGGCAG'
p3922
I22910
sS'GGCCGT'
p3923
I6327
sS'GCTGAA'
p3924
I14217
sS'GCTGAC'
p3925
I12390
sS'TGGCAT'
p3926
I12126
sS'GGCCGG'
p3927
I21070
sS'GTTCAA'
p3928
I9051
sS'NNGATC'
p3929
I1
sS'CCGATG'
p3930
I2768
sS'GGCCGC'
p3931
I20333
sS'GAACTT'
p3932
I10338
sS'GGCCGA'
p3933
I9044
sS'GGCAAT'
p3934
I7526
sS'CGCTCG'
p3935
I6092
sS'CTATAA'
p3936
I6075
sS'CTGATT'
p3937
I12172
sS'CCATCG'
p3938
I3349
sS'CTAAAT'
p3939
I9155
sS'CCATCC'
p3940
I15242
sS'CCATCA'
p3941
I10979
sS'CTGATC'
p3942
I7860
sS'CTGATA'
p3943
I6767
sS'GTACCA'
p3944
I4831
sS'GGCAAC'
p3945
I9686
sS'GGCAAA'
p3946
I13803
sS'CTAAAG'
p3947
I9006
sS'CCATCT'
p3948
I16995
sS'CTAAAC'
p3949
I6989
sS'CTAAAA'
p3950
I13248
sS'GACACC'
p3951
I10341
sS'GACACA'
p3952
I14036
sS'GACACG'
p3953
I4462
sS'AGGCAT'
p3954
I12381
sS'CGTATA'
p3955
I1054
sS'TACGAG'
p3956
I1742
sS'TACGAC'
p3957
I1202
sS'GGAAAG'
p3958
I24101
sS'TACGAA'
p3959
I1679
sS'CCGTGA'
p3960
I4969
sS'CGTGAG'
p3961
I6751
sS'CTATTG'
p3962
I5975
sS'GCATAA'
p3963
I5679
sS'CTATTC'
p3964
I6277
sS'TCGATG'
p3965
I1938
sS'TCGATA'
p3966
I951
sS'TCGATC'
p3967
I1517
sS'CTATTT'
p3968
I12185
sS'CGCGAA'
p3969
I2418
sS'GCATTG'
p3970
I7751
sS'CAGCCT'
p3971
I33418
sS'TGCCTA'
p3972
I8530
sS'TCGGCA'
p3973
I3584
sS'ACGAAA'
p3974
I3062
sS'TTTTGA'
p3975
I16548
sS'AACCAA'
p3976
I11475
sS'TGCCGG'
p3977
I8188
sS'AACCAC'
p3978
I11212
sS'CGTATC'
p3979
I1381
sS'ACGAAC'
p3980
I1950
sS'AACCAG'
p3981
I13408
sS'TGCCGA'
p3982
I3636
sS'TTGGAC'
p3983
I7584
sS'TCTGGA'
p3984
I18687
sS'GCGCCG'
p3985
I15443
sS'GGCGGC'
p3986
I27108
sS'AACCAT'
p3987
I7871
sS'AACAGA'
p3988
I16653
sS'CTACCG'
p3989
I2717
sS'AACAGC'
p3990
I13914
sS'CTACCC'
p3991
I8604
sS'AACAGG'
p3992
I14170
sS'CTACCA'
p3993
I7626
sS'CCCAAG'
p3994
I18779
sS'AGCAGC'
p3995
I24947
sS'GACGAA'
p3996
I2587
sS'CCCAAC'
p3997
I12522
sS'CCCAAA'
p3998
I18309
sS'CTACCT'
p3999
I8685
sS'GGGAGA'
p4000
I26687
sS'AACAGT'
p4001
I10948
sS'GGGAGC'
p4002
I25014
sS'CCCAAT'
p4003
I7277
sS'GACGAT'
p4004
I1870
sS'GGGCGC'
p4005
I19827
sS'GGGCGA'
p4006
I8951
sS'GGGCGG'
p4007
I33975
sS'TCTCTT'
p4008
I20287
sS'GTACAG'
p4009
I7087
sS'CGTTAA'
p4010
I1967
sS'GTACAA'
p4011
I5447
sS'ACGACT'
p4012
I2414
sS'TCTCTC'
p4013
I25829
sS'TCTCTA'
p4014
I11876
sS'TCTCTG'
p4015
I25824
sS'GGGCGT'
p4016
I8811
sS'ACGACC'
p4017
I2495
sS'ACGACA'
p4018
I2577
sS'ACGACG'
p4019
I1632
sS'CAGAAG'
p4020
I21707
sS'TAAGTG'
p4021
I8997
sS'GTCCAA'
p4022
I7439
sS'CACTTT'
p4023
I16564
sS'CCTAAT'
p4024
I6446
sS'GCATTC'
p4025
I9851
sS'GTCATT'
p4026
I10964
sS'CACTTG'
p4027
I12614
sS'CCTAAC'
p4028
I6705
sS'CCTAAA'
p4029
I9764
sS'CACTTC'
p4030
I15116
sS'CCTAAG'
p4031
I8979
sS'CACTTA'
p4032
I9028
sS'GCGGAT'
p4033
I3994
sS'TCGTGC'
p4034
I3245
sS'CTGCGG'
p4035
I14046
sS'AAGATT'
p4036
I10530
sS'CTCATG'
p4037
I12072
sS'GACTCG'
p4038
I4670
sS'CTCATC'
p4039
I12937
sS'GACTCC'
p4040
I13740
sS'CTCATA'
p4041
I7163
sS'GACTCA'
p4042
I17656
sS'AAGATA'
p4043
I8880
sS'AGTCGG'
p4044
I4382
sS'AAGATG'
p4045
I13773
sS'GACTCT'
p4046
I11460
sS'CTCATT'
p4047
I15004
sS'ATCGAA'
p4048
I1664
sS'GGACTA'
p4049
I6003
sS'ATATTT'
p4050
I18519
sS'ATAGAG'
p4051
I7315
sS'GGACTC'
p4052
I12498
sS'ATAGTT'
p4053
I6220
sS'TACTGT'
p4054
I8628
sS'ATATTC'
p4055
I7713
sS'ATATTA'
p4056
I8123
sS'ATATTG'
p4057
I6918
sS'ATAGTA'
p4058
I5042
sS'TACTGA'
p4059
I8424
sS'TACTGG'
p4060
I7997
sS'ATAGTG'
p4061
I5804
sS'GATCGA'
p4062
I1547
sS'CAGGCA'
p4063
I25792
sS'CAGGCC'
p4064
I27268
sS'CATCCG'
p4065
I3834
sS'AGGAAA'
p4066
I30504
sS'CATCCA'
p4067
I12128
sS'AGGAAC'
p4068
I13598
sS'CATCCC'
p4069
I15154
sS'TTATGA'
p4070
I8421
sS'TTATGC'
p4071
I5575
sS'CGGAGT'
p4072
I5765
sS'TTATGG'
p4073
I6753
sS'CATCCT'
p4074
I15569
sS'AGGAAT'
p4075
I15812
sS'CAGGCT'
p4076
I27147
sS'ACGGAT'
p4077
I2147
sS'CGGAGA'
p4078
I8300
sS'CGGAGC'
p4079
I13322
sS'TTATGT'
p4080
I8785
sS'CGGAGG'
p4081
I14627
sS'ATGGAA'
p4082
I14682
sS'ATGGAC'
p4083
I6854
sS'ATGGAG'
p4084
I14550
sS'CGCTTG'
p4085
I5218
sS'CGCTTA'
p4086
I2135
sS'CGCTTC'
p4087
I7276
sS'ATGGAT'
p4088
I7807
sS'TGCGGC'
p4089
I8922
sS'CGCTTT'
p4090
I5130
sS'GGGTCG'
p4091
I6224
sS'ACTTGG'
p4092
I13159
sS'TGCGGA'
p4093
I5492
sS'TTGTGA'
p4094
I11850
sS'GAAAAG'
p4095
I21374
sS'GAAAAC'
p4096
I16089
sS'ATAGAT'
p4097
I5757
sS'GAAAAA'
p4098
I26083
sS'GTTCCT'
p4099
I13676
sS'TAAGTA'
p4100
I7057
sS'CAAGCG'
p4101
I5085
sS'GAAAAT'
p4102
I18132
sS'ACAAGG'
p4103
I12672
sS'ACAAGA'
p4104
I11793
sS'ACAAGC'
p4105
I9744
sS'ACACGT'
p4106
I4188
sS'CTGCGT'
p4107
I6546
sS'GACGTC'
p4108
I4409
sS'GCGGAG'
p4109
I16479
sS'CATAAG'
p4110
I6203
sS'GCGGAA'
p4111
I6356
sS'CATAAA'
p4112
I11228
sS'GCGGAC'
p4113
I6015
sS'CATAAC'
p4114
I5297
sS'ACACGC'
p4115
I5449
sS'ACAAGT'
p4116
I8895
sS'ACACGA'
p4117
I3016
sS'ACACGG'
p4118
I5041
sS'CATAAT'
p4119
I6986
sS'GTCCCA'
p4120
I13840
sS'GTCCCC'
p4121
I17227
sS'CTGCGA'
p4122
I5489
sS'CTGCGC'
p4123
I13421
sS'CGGCAA'
p4124
I3866
sS'CGGCAC'
p4125
I5492
sS'CATGCC'
p4126
I12479
sS'CGGCAG'
p4127
I11999
sS'GACGCG'
p4128
I5289
sS'CCTCCT'
p4129
I37818
sS'TGTTGA'
p4130
I10760
sS'CGGCAT'
p4131
I3158
sS'CCTCCC'
p4132
I50962
sS'CCTCCA'
p4133
I25929
sS'CCTCCG'
p4134
I14446
s.