(dp0
S'AAAAAC'
p1
I2525
sS'GAACGT'
p2
I153
sS'CTTCTT'
p3
I1369
sS'CACCCT'
p4
I2016
sS'ATTGAA'
p5
I1000
sS'GAACGG'
p6
I488
sS'GAACGC'
p7
I560
sS'GAACGA'
p8
I328
sS'CAACAT'
p9
I310
sS'CACCCA'
p10
I6174
sS'CTTCTA'
p11
I4707
sS'CACCCC'
p12
I5422
sS'CTTCTC'
p13
I3988
sS'CACCCG'
p14
I1421
sS'CTTCTG'
p15
I9197
sS'CATTAG'
p16
I3210
sS'CGTGTG'
p17
I2228
sS'TAAGGT'
p18
I497
sS'CGTGTC'
p19
I519
sS'CGTGTA'
p20
I819
sS'AGGCAA'
p21
I1441
sS'GGAAAT'
p22
I551
sS'TAAGGG'
p23
I1304
sS'CGTGTT'
p24
I206
sS'TAAGGC'
p25
I1182
sS'TAAGGA'
p26
I1511
sS'TCACTG'
p27
I1854
sS'GTCAAA'
p28
I4639
sS'GTCAAC'
p29
I3120
sS'GTCAAG'
p30
I4549
sS'CTGTCC'
p31
I4837
sS'TCAGAG'
p32
I992
sS'CTGTCA'
p33
I6031
sS'CTGTCG'
p34
I874
sS'TCAGAC'
p35
I659
sS'TCAGAA'
p36
I994
sS'GTCAAT'
p37
I933
sS'GTATCA'
p38
I1439
sS'GTATCC'
p39
I807
sS'GTATCG'
p40
I204
sS'CTGTCT'
p41
I3168
sS'GGTGTC'
p42
I988
sS'GGTGTA'
p43
I1673
sS'GGTGTG'
p44
I4398
sS'TATCCT'
p45
I957
sS'CCGGGG'
p46
I812
sS'TTCTGT'
p47
I6333
sS'AGAGGT'
p48
I788
sS'CCGGGC'
p49
I801
sS'CCGGGA'
p50
I569
sS'TATCCA'
p51
I2307
sS'CACGGA'
p52
I1191
sS'TGGTTG'
p53
I4982
sS'TATCCG'
p54
I384
sS'GGTGTT'
p55
I442
sS'ATTCCG'
p56
I245
sS'TTCTGG'
p57
I10130
sS'CCGGGT'
p58
I236
sS'ATTCCC'
p59
I884
sS'TTCTGC'
p60
I12333
sS'ATTCCA'
p61
I1438
sS'TTCTGA'
p62
I11140
sS'CTTGGA'
p63
I1401
sS'CGTCAT'
p64
I196
sS'TAGGAA'
p65
I1893
sS'GTTCTC'
p66
I2238
sS'AGGGAG'
p67
I2955
sS'CGCGGG'
p68
I2194
sS'CGCGGC'
p69
I2401
sS'CGCGGA'
p70
I909
sS'ACCTGT'
p71
I1595
sS'TCATGT'
p72
I859
sS'CTCCGA'
p73
I1277
sS'TTACAG'
p74
I852
sS'CTCCGC'
p75
I4046
sS'TTACAA'
p76
I658
sS'CCGGCA'
p77
I554
sS'TTACAC'
p78
I493
sS'CTCCGG'
p79
I2631
sS'TCATGC'
p80
I1039
sS'ACCTGG'
p81
I3963
sS'CCGTGT'
p82
I287
sS'GTAAGC'
p83
I1017
sS'TCATGG'
p84
I906
sS'ACCTGC'
p85
I4693
sS'ACCTGA'
p86
I3422
sS'TCACTC'
p87
I554
sS'TTACAT'
p88
I450
sS'CTCGAT'
p89
I120
sS'CTCCGT'
p90
I659
sS'GAATTT'
p91
I407
sS'GCCTGA'
p92
I5512
sS'GCCTGC'
p93
I8881
sS'GCCTGG'
p94
I9861
sS'TAAAGG'
p95
I3228
sS'CAAATT'
p96
I458
sS'TAAAGA'
p97
I3216
sS'TAAAGC'
p98
I2658
sS'GCCTGT'
p99
I2842
sS'TCCCCG'
p100
I1623
sS'TAAAGT'
p101
I1158
sS'CAAATA'
p102
I2856
sS'CAAATC'
p103
I807
sS'TGCAAT'
p104
I1263
sS'CAAATG'
p105
I3414
sS'AATACT'
p106
I1610
sS'TATCTC'
p107
I3507
sS'CGTCAA'
p108
I401
sS'GGCATG'
p109
I5642
sS'GGCATA'
p110
I2726
sS'GGCATC'
p111
I1693
sS'AATACG'
p112
I585
sS'AATACA'
p113
I4634
sS'AATACC'
p114
I2718
sS'GGCATT'
p115
I780
sS'TATCTG'
p116
I7985
sS'TGCACA'
p117
I6406
sS'GAGCAC'
p118
I3094
sS'GAGCAA'
p119
I3087
sS'GAGCAG'
p120
I5356
sS'AGTAGT'
p121
I969
sS'TCTCGC'
p122
I845
sS'TCTCGA'
p123
I408
sS'TCTCGG'
p124
I916
sS'ACTGAG'
p125
I1852
sS'AGTAGA'
p126
I2818
sS'AGTAGG'
p127
I2674
sS'ACTGAA'
p128
I1769
sS'AGCCCG'
p129
I1644
sS'TCTCGT'
p130
I241
sS'GTGTCG'
p131
I771
sS'TCGAAC'
p132
I154
sS'TCGAAA'
p133
I170
sS'GTGTCC'
p134
I4211
sS'TCGAAG'
p135
I225
sS'GTGTCA'
p136
I5297
sS'CTTGCT'
p137
I1107
sS'TCGGTC'
p138
I163
sS'GTGTCT'
p139
I2684
sS'AGCCCC'
p140
I4995
sS'TCGAAT'
p141
I94
sS'CTTGCG'
p142
I502
sS'CTTGCA'
p143
I2052
sS'TCGGTA'
p144
I275
sS'CTTGCC'
p145
I2076
sS'CGAAAG'
p146
I321
sS'CGAAAA'
p147
I174
sS'CGAAAC'
p148
I307
sS'AAGGTT'
p149
I740
sS'AATCAT'
p150
I1237
sS'AAATGC'
p151
I2089
sS'CACGGC'
p152
I1812
sS'AAATGA'
p153
I2607
sS'AAATGG'
p154
I1827
sS'CACGGG'
p155
I1639
sS'ACAGTA'
p156
I1115
sS'CGAAAT'
p157
I72
sS'ACAGTT'
p158
I376
sS'AATCAG'
p159
I4494
sS'CACGGT'
p160
I435
sS'AAATGT'
p161
I1233
sS'AATCAC'
p162
I3817
sS'GGGTCT'
p163
I852
sS'TCTAGT'
p164
I666
sS'TTGCCG'
p165
I441
sS'TTGCCA'
p166
I2375
sS'TTGCCC'
p167
I1926
sS'TTGCCT'
p168
I1145
sS'TCTAGG'
p169
I1839
sS'GGGTAA'
p170
I813
sS'TCTAGA'
p171
I1732
sS'GGGTAG'
p172
I905
sS'TCTAGC'
p173
I1441
sS'ATACGG'
p174
I145
sS'TGACTA'
p175
I963
sS'ATACAT'
p176
I347
sS'AGATGT'
p177
I775
sS'TCGCCC'
p178
I494
sS'TCGCCA'
p179
I359
sS'ATAGTC'
p180
I306
sS'TCGCCG'
p181
I209
sS'GGTAAT'
p182
I418
sS'ACCCAT'
p183
I486
sS'CGTCAG'
p184
I850
sS'ACCCAC'
p185
I2115
sS'GGTAAC'
p186
I1589
sS'ACCCAA'
p187
I1605
sS'AGATGG'
p188
I1311
sS'ACCCAG'
p189
I2539
sS'AGATGA'
p190
I1400
sS'TCGCCT'
p191
I209
sS'AGATGC'
p192
I1161
sS'CCCCAT'
p193
I657
sS'TTGGGT'
p194
I674
sS'CACTAG'
p195
I3731
sS'CACTAA'
p196
I5109
sS'CACTAC'
p197
I3769
sS'CCCCAA'
p198
I2007
sS'CCCCAC'
p199
I2831
sS'CCCCAG'
p200
I3077
sS'CACTAT'
p201
I1308
sS'TTGGGG'
p202
I2300
sS'TCGGTT'
p203
I106
sS'TTGGGA'
p204
I1493
sS'TTGGGC'
p205
I1569
sS'ATAAAA'
p206
I1533
sS'TGCCTG'
p207
I11877
sS'TAGTGG'
p208
I3220
sS'TTTCTG'
p209
I10872
sS'TGCAGC'
p210
I8597
sS'TTTCTA'
p211
I6890
sS'TGCCTA'
p212
I5612
sS'TGCAGG'
p213
I8426
sS'ACGCCT'
p214
I218
sS'GTATCT'
p215
I808
sS'CCCACA'
p216
I5394
sS'TTTCTT'
p217
I1962
sS'TGCCTT'
p218
I1915
sS'TGCAGT'
p219
I3287
sS'ACGATG'
p220
I454
sS'NNNTGA'
p221
I1
sS'ACAATT'
p222
I281
sS'AAGGAA'
p223
I4720
sS'AAGGAC'
p224
I2832
sS'AAGGAG'
p225
I4591
sS'ATATGC'
p226
I1041
sS'ATATGA'
p227
I1172
sS'ATATGG'
p228
I866
sS'GATGGA'
p229
I3023
sS'AAGGAT'
p230
I604
sS'CTATCA'
p231
I1427
sS'ACATTT'
p232
I613
sS'ATATGT'
p233
I799
sS'ACTATT'
p234
I345
sS'GGTCCC'
p235
I1532
sS'GCCCAG'
p236
I4330
sS'GGTCCA'
p237
I999
sS'GCCCAA'
p238
I1783
sS'GGTCCG'
p239
I454
sS'GCCCAC'
p240
I2646
sS'TGTGTC'
p241
I1916
sS'AGACCC'
p242
I632
sS'CTTCGG'
p243
I930
sS'CTTCGA'
p244
I526
sS'CTTCGC'
p245
I1001
sS'ATGCAA'
p246
I1244
sS'TCCGGG'
p247
I2660
sS'AGGTCA'
p248
I3468
sS'AAAGTT'
p249
I471
sS'TCCGGC'
p250
I2054
sS'GGTCCT'
p251
I593
sS'TCCGGA'
p252
I1118
sS'CTTAGC'
p253
I2157
sS'TCTTGA'
p254
I2642
sS'CTTAGA'
p255
I2317
sS'CCACTC'
p256
I506
sS'CTTAGG'
p257
I2181
sS'TCAGAT'
p258
I360
sS'AGACCT'
p259
I359
sS'CGCTAC'
p260
I984
sS'ATTTTG'
p261
I4872
sS'GAGGTG'
p262
I10351
sS'ATTTTA'
p263
I6084
sS'TAAATT'
p264
I611
sS'ATTTTC'
p265
I1984
sS'TCCAGC'
p266
I6076
sS'TAGCAG'
p267
I2261
sS'GATACT'
p268
I1576
sS'TAGCAC'
p269
I1716
sS'TAGCAA'
p270
I1787
sS'TAAATA'
p271
I4825
sS'ATTTTT'
p272
I1126
sS'GCCTTG'
p273
I9506
sS'TAGTGT'
p274
I1536
sS'GCCTTA'
p275
I5679
sS'TTGACA'
p276
I2004
sS'GCCTTC'
p277
I5879
sS'GATACG'
p278
I617
sS'TAGCAT'
p279
I621
sS'GATACC'
p280
I2330
sS'GTGGGA'
p281
I2650
sS'TGAGCT'
p282
I571
sS'ACGGAC'
p283
I189
sS'GATCAT'
p284
I865
sS'AAGACA'
p285
I6084
sS'AAGACC'
p286
I3528
sS'GATTTA'
p287
I6219
sS'AAGACG'
p288
I1163
sS'GATCAG'
p289
I3580
sS'TGAGCG'
p290
I268
sS'ACGCTG'
p291
I849
sS'TGAGCA'
p292
I1363
sS'TGAGCC'
p293
I1214
sS'AAGACT'
p294
I1762
sS'ACCACG'
p295
I1082
sS'GCGGTA'
p296
I374
sS'GCGGTG'
p297
I1243
sS'CTATCG'
p298
I186
sS'CGGTGT'
p299
I353
sS'TCGTTA'
p300
I464
sS'TCGTTC'
p301
I260
sS'CGCTAG'
p302
I996
sS'ACTTGT'
p303
I1024
sS'GCGGTT'
p304
I112
sS'ACTTGC'
p305
I2223
sS'ACCACC'
p306
I3494
sS'ACTTGA'
p307
I2101
sS'CGGTGG'
p308
I1021
sS'ACTTGG'
p309
I1971
sS'CGGTGA'
p310
I623
sS'CGGTGC'
p311
I1030
sS'TTCCTA'
p312
I7733
sS'TAGACT'
p313
I1115
sS'TTCCTC'
p314
I9332
sS'ACTGAC'
p315
I1275
sS'ACCACA'
p316
I5741
sS'TTCCTG'
p317
I17545
sS'TCCTTT'
p318
I4378
sS'CAGTTG'
p319
I5282
sS'ACGCTA'
p320
I322
sS'TAGACG'
p321
I574
sS'TTCCTT'
p322
I3444
sS'TAGACC'
p323
I2004
sS'TAGACA'
p324
I3229
sS'TCCTTG'
p325
I10069
sS'TCCTTA'
p326
I7915
sS'TCCTTC'
p327
I8084
sS'ATCTCT'
p328
I2569
sS'CCGATA'
p329
I153
sS'ACCGTT'
p330
I151
sS'TGGCGC'
p331
I836
sS'TGGCGA'
p332
I415
sS'TGGCGG'
p333
I1045
sS'ATCTCG'
p334
I956
sS'ATCTCA'
p335
I6770
sS'ATCTCC'
p336
I4086
sS'GGCCAA'
p337
I2182
sS'GGCCAC'
p338
I2503
sS'ACCGTG'
p339
I1525
sS'ACCGTA'
p340
I681
sS'GGCCAG'
p341
I2997
sS'ACCGTC'
p342
I467
sS'ACCGAC'
p343
I455
sS'AGAATT'
p344
I484
sS'GGCAGT'
p345
I1979
sS'CCATAA'
p346
I381
sS'CAAAGG'
p347
I2759
sS'CCATAC'
p348
I331
sS'CAAAGA'
p349
I2421
sS'AGATTC'
p350
I481
sS'CAAAGC'
p351
I2558
sS'CCATAG'
p352
I345
sS'GGCAGA'
p353
I6015
sS'GGCAGC'
p354
I8040
sS'AACGTA'
p355
I1456
sS'GGCAGG'
p356
I9837
sS'CAACGC'
p357
I244
sS'CTAACA'
p358
I1535
sS'CAACGA'
p359
I194
sS'CTAACC'
p360
I1198
sS'CCATAT'
p361
I276
sS'CTAACG'
p362
I267
sS'GGGGGT'
p363
I470
sS'TACGCT'
p364
I402
sS'AGATTG'
p365
I1238
sS'CGATCT'
p366
I54
sS'CTCTAG'
p367
I5313
sS'CTCTAA'
p368
I5961
sS'CTCTAC'
p369
I4941
sS'GGGGGG'
p370
I1072
sS'TACGCA'
p371
I1096
sS'TACGCC'
p372
I945
sS'GGGGGC'
p373
I1492
sS'CGATCG'
p374
I25
sS'GGGGGA'
p375
I1366
sS'TACGCG'
p376
I470
sS'CTCTAT'
p377
I1501
sS'ACCGAA'
p378
I430
sS'CAGACC'
p379
I2862
sS'CAGACA'
p380
I3987
sS'CAGACG'
p381
I914
sS'CGCTAA'
p382
I886
sS'TAGTTG'
p383
I4364
sS'ACTAGT'
p384
I421
sS'TAGTTC'
p385
I2492
sS'TAGTTA'
p386
I4755
sS'CAGACT'
p387
I1254
sS'GCGAAC'
p388
I212
sS'TAGTTT'
p389
I1466
sS'GCTAAC'
p390
I962
sS'GCTAAA'
p391
I1239
sS'TGCATT'
p392
I1476
sS'GCGAAA'
p393
I172
sS'CGAGAG'
p394
I272
sS'AACCCT'
p395
I2061
sS'AACCCC'
p396
I4647
sS'TGCATG'
p397
I8780
sS'TGCATA'
p398
I6168
sS'TGCATC'
p399
I2619
sS'AGATTT'
p400
I422
sS'AGTTTG'
p401
I6964
sS'CTACAC'
p402
I513
sS'AGTTTC'
p403
I4847
sS'AACTGC'
p404
I8357
sS'CCCAGA'
p405
I4891
sS'CCCAGC'
p406
I7829
sS'CCCAGG'
p407
I7876
sS'AACTGT'
p408
I3654
sS'AGTTTT'
p409
I1489
sS'CTACAT'
p410
I311
sS'CGAGTC'
p411
I188
sS'CCCAGT'
p412
I1595
sS'CTCCAA'
p413
I3242
sS'TTGACG'
p414
I340
sS'CGCATA'
p415
I720
sS'ATACTG'
p416
I1224
sS'CGCATC'
p417
I693
sS'ATACTA'
p418
I892
sS'ATACTC'
p419
I362
sS'CGCATG'
p420
I1862
sS'GCGCAA'
p421
I150
sS'ATACTT'
p422
I359
sS'CTATCT'
p423
I707
sS'GCGCAC'
p424
I316
sS'GCTCCG'
p425
I760
sS'TATTGT'
p426
I2638
sS'GCTCCC'
p427
I1736
sS'GCTCCA'
p428
I1568
sS'CCTACT'
p429
I649
sS'TGTACT'
p430
I999
sS'TTTAGT'
p431
I1054
sS'TATTGG'
p432
I3810
sS'GCTCCT'
p433
I735
sS'TATTGC'
p434
I4267
sS'TATTGA'
p435
I4540
sS'TTTAGG'
p436
I2351
sS'TGTACG'
p437
I385
sS'CCTACG'
p438
I356
sS'TGTACA'
p439
I2552
sS'CCTACA'
p440
I1291
sS'ACAGTG'
p441
I1798
sS'TTTAGA'
p442
I3212
sS'TTCGCG'
p443
I533
sS'TTCGCA'
p444
I847
sS'TTCGCC'
p445
I1179
sS'CGTACA'
p446
I413
sS'GACTAA'
p447
I6301
sS'AGTATA'
p448
I2488
sS'GACTAC'
p449
I4848
sS'AGTATG'
p450
I2932
sS'TTTGGA'
p451
I1525
sS'TTTGGC'
p452
I1521
sS'TTCGCT'
p453
I481
sS'CTTTTA'
p454
I8295
sS'GACTAT'
p455
I1580
sS'AGTATT'
p456
I567
sS'TTACTC'
p457
I601
sS'TTACTA'
p458
I1396
sS'TTACTG'
p459
I1881
sS'ACCTTG'
p460
I6151
sS'ACCTTC'
p461
I3266
sS'ACCTTA'
p462
I4200
sS'CTAATA'
p463
I1772
sS'GTAAAC'
p464
I1036
sS'ACGCTT'
p465
I141
sS'ACCTTT'
p466
I1489
sS'ACAGGG'
p467
I1164
sS'CTGGGA'
p468
I2893
sS'CTGGGC'
p469
I3430
sS'ACAGGC'
p470
I1337
sS'ACAGGA'
p471
I1524
sS'CTGGGG'
p472
I3703
sS'AGGACG'
p473
I1020
sS'GCAGCT'
p474
I775
sS'CAGGAA'
p475
I2927
sS'TCGCTT'
p476
I150
sS'CAGGAG'
p477
I2948
sS'AGGACA'
p478
I3380
sS'GCGCAT'
p479
I96
sS'TTATAC'
p480
I569
sS'ACAGGT'
p481
I746
sS'CTGGGT'
p482
I1120
sS'TTATAG'
p483
I653
sS'TCGCTG'
p484
I808
sS'GAGTTG'
p485
I7152
sS'GCAGCG'
p486
I498
sS'AGGACT'
p487
I1282
sS'TCGCTC'
p488
I371
sS'TCGCTA'
p489
I348
sS'CAGGAT'
p490
I476
sS'CCTCAG'
p491
I2431
sS'CCTCAA'
p492
I1422
sS'CCTCAC'
p493
I1758
sS'TATGTT'
p494
I1019
sS'ATGGGC'
p495
I1162
sS'TCTTTG'
p496
I8831
sS'ATGGGA'
p497
I1432
sS'TCTTTA'
p498
I6870
sS'ATGGGG'
p499
I1707
sS'TCTTTC'
p500
I4204
sS'CCTCAT'
p501
I552
sS'TCTTTT'
p502
I1789
sS'TATGTG'
p503
I7218
sS'TATGTA'
p504
I5863
sS'ATGGGT'
p505
I474
sS'TATGTC'
p506
I1652
sS'GAAAGA'
p507
I5562
sS'ATCAAG'
p508
I2945
sS'GAAAGC'
p509
I4478
sS'ATCAAC'
p510
I2389
sS'GAAAGG'
p511
I5873
sS'GTCCAC'
p512
I2061
sS'GGAACT'
p513
I575
sS'ACGTGG'
p514
I759
sS'CTATTC'
p515
I877
sS'CATGAG'
p516
I2853
sS'ATCAAT'
p517
I655
sS'TCAAAC'
p518
I871
sS'CATGAC'
p519
I2291
sS'CATGAA'
p520
I2373
sS'GTAGCG'
p521
I208
sS'CAAGTT'
p522
I434
sS'GCTTTG'
p523
I7171
sS'GTAGCC'
p524
I904
sS'GCTTTC'
p525
I2970
sS'AGCGGT'
p526
I348
sS'GAGGAT'
p527
I869
sS'GCTTTT'
p528
I1067
sS'CAAGTG'
p529
I2224
sS'GTAGCT'
p530
I576
sS'GCGGCC'
p531
I1335
sS'CAAGTC'
p532
I776
sS'GCGGCA'
p533
I599
sS'CAAGTA'
p534
I1481
sS'AACGGT'
p535
I348
sS'GGGGAA'
p536
I1503
sS'TAATCG'
p537
I158
sS'GGTCTT'
p538
I613
sS'TAATCA'
p539
I1616
sS'TAATCC'
p540
I874
sS'TGCGAA'
p541
I510
sS'CGGCCC'
p542
I1411
sS'CGACTA'
p543
I143
sS'CGGCCA'
p544
I928
sS'CGCTAT'
p545
I233
sS'CGGCCG'
p546
I645
sS'TCGTGA'
p547
I267
sS'ATGAAG'
p548
I1968
sS'GGTCTG'
p549
I4831
sS'TAATCT'
p550
I547
sS'GGTCTC'
p551
I2143
sS'GGTCTA'
p552
I2051
sS'AAAATG'
p553
I4733
sS'AAAATC'
p554
I791
sS'AAAATA'
p555
I4563
sS'TTCAGC'
p556
I7834
sS'TTCAGA'
p557
I8766
sS'TTCAGG'
p558
I8199
sS'GAACAT'
p559
I317
sS'TCGTCG'
p560
I105
sS'TTTAGC'
p561
I2229
sS'TGCCAA'
p562
I2317
sS'GAACAA'
p563
I949
sS'ATCCCG'
p564
I533
sS'GAACAC'
p565
I895
sS'ATCCCC'
p566
I2199
sS'GAACAG'
p567
I1234
sS'TTCAGT'
p568
I3942
sS'ATTGCA'
p569
I1152
sS'CACCAC'
p570
I4740
sS'CACCAA'
p571
I3719
sS'CACCAG'
p572
I4128
sS'TCCGTG'
p573
I2089
sS'ATTGCG'
p574
I171
sS'TCCGTC'
p575
I1039
sS'TCCGTA'
p576
I933
sS'ACGCGA'
p577
I138
sS'CACCAT'
p578
I1005
sS'AACATG'
p579
I9234
sS'AACATA'
p580
I7129
sS'AACATC'
p581
I3223
sS'TCAGCA'
p582
I1360
sS'GCACGG'
p583
I274
sS'TCAGCC'
p584
I1220
sS'GCACGA'
p585
I159
sS'CAGTCC'
p586
I3448
sS'GCACGC'
p587
I368
sS'CAGTCA'
p588
I5075
sS'GCAAGC'
p589
I1025
sS'GCACGT'
p590
I187
sS'GCAAGA'
p591
I1142
sS'GCAAGG'
p592
I1330
sS'GTCAGT'
p593
I2113
sS'GTATAC'
p594
I535
sS'TTCCGT'
p595
I629
sS'GTATAA'
p596
I606
sS'GTATAG'
p597
I429
sS'CCGGAA'
p598
I390
sS'CCGGAC'
p599
I222
sS'CCGGAG'
p600
I400
sS'TATCAT'
p601
I1085
sS'TGACGT'
p602
I157
sS'TTCCGG'
p603
I2752
sS'TTCCGA'
p604
I958
sS'TTCCGC'
p605
I2295
sS'GTATAT'
p606
I442
sS'CGTCTC'
p607
I1437
sS'TATCAA'
p608
I2830
sS'CGTCTG'
p609
I2341
sS'CCGGAT'
p610
I70
sS'CTCTTC'
p611
I11453
sS'TGTTAT'
p612
I1172
sS'CTCTTA'
p613
I11335
sS'CTCTTG'
p614
I14666
sS'CCCGAT'
p615
I97
sS'TACGTA'
p616
I1544
sS'TACGTC'
p617
I777
sS'TCTGGT'
p618
I689
sS'AACAAA'
p619
I12528
sS'CGCGAT'
p620
I96
sS'TACGTG'
p621
I2512
sS'GCCGTT'
p622
I216
sS'TGTTAG'
p623
I2849
sS'GCTGTT'
p624
I605
sS'TGTTAC'
p625
I2741
sS'CTCTTT'
p626
I5731
sS'TGTTAA'
p627
I3703
sS'TCTGGG'
p628
I2270
sS'CGCGAC'
p629
I700
sS'GATATT'
p630
I784
sS'TCTGGC'
p631
I1641
sS'TACGTT'
p632
I343
sS'CGCGAG'
p633
I1063
sS'AGTCGT'
p634
I294
sS'TTACCT'
p635
I388
sS'CTCCAT'
p636
I1053
sS'TTACCG'
p637
I138
sS'CTCCAC'
p638
I4209
sS'AGTCGG'
p639
I1055
sS'TTACCC'
p640
I585
sS'CTCCAG'
p641
I5272
sS'TTACCA'
p642
I959
sS'AGTCGC'
p643
I1082
sS'CCGACT'
p644
I122
sS'GCCTAC'
p645
I2633
sS'GCCTAA'
p646
I2478
sS'GCCTAG'
p647
I3243
sS'CCGACA'
p648
I271
sS'GATATC'
p649
I1070
sS'CCGACC'
p650
I418
sS'CCGACG'
p651
I181
sS'GCCTAT'
p652
I775
sS'TGACGG'
p653
I220
sS'CCCGAG'
p654
I1101
sS'CTCGTT'
p655
I337
sS'TCAGCG'
p656
I297
sS'CTAAGT'
p657
I743
sS'CCCGAA'
p658
I437
sS'CGCACA'
p659
I1715
sS'ATACAC'
p660
I582
sS'CGCACC'
p661
I2032
sS'GGGTCG'
p662
I501
sS'ACTGCT'
p663
I769
sS'GGGTCA'
p664
I1916
sS'CGCACG'
p665
I1050
sS'GGGTCC'
p666
I1686
sS'CTCACT'
p667
I3262
sS'TTTGTA'
p668
I4058
sS'ACTGCA'
p669
I2168
sS'TTTGTC'
p670
I1375
sS'ACTGCC'
p671
I1471
sS'CGCACT'
p672
I612
sS'TTTGTG'
p673
I5446
sS'TAGAGC'
p674
I3177
sS'CTCACC'
p675
I6823
sS'CTCACA'
p676
I7294
sS'CTCACG'
p677
I1655
sS'GTGGGT'
p678
I1041
sS'GTGAGG'
p679
I3929
sS'GATTTT'
p680
I1656
sS'TAGTGC'
p681
I2595
sS'GTGAGC'
p682
I2922
sS'TAGTGA'
p683
I3160
sS'GTGAGA'
p684
I3250
sS'TCGACG'
p685
I95
sS'TCGACA'
p686
I134
sS'TCGACC'
p687
I204
sS'GATTTG'
p688
I7850
sS'GTGAGT'
p689
I1180
sS'GTGGGG'
p690
I4341
sS'GATTTC'
p691
I3998
sS'GTGGGC'
p692
I2467
sS'TCGACT'
p693
I71
sS'CTGGTT'
p694
I858
sS'TTGAGT'
p695
I998
sS'CGAACG'
p696
I107
sS'CGAACC'
p697
I291
sS'CGAACA'
p698
I236
sS'CTGGTG'
p699
I4495
sS'CTGGTA'
p700
I2498
sS'CTGGTC'
p701
I1413
sS'CTGCAA'
p702
I1396
sS'CGAACT'
p703
I102
sS'TTGCAT'
p704
I650
sS'NNGAAT'
p705
I2
sS'GCGGAA'
p706
I325
sS'CGTCTT'
p707
I318
sS'TTGCAG'
p708
I1642
sS'ACTCCT'
p709
I581
sS'TTGCAC'
p710
I1030
sS'TTGCAA'
p711
I1115
sS'GAGGGC'
p712
I6679
sS'TCGCAT'
p713
I62
sS'GTCGTG'
p714
I1457
sS'GTCGTA'
p715
I635
sS'GTCGTC'
p716
I623
sS'CCGTTT'
p717
I176
sS'ACTGAT'
p718
I488
sS'ATATCG'
p719
I124
sS'GTCGTT'
p720
I206
sS'TCGCAG'
p721
I244
sS'GAGGGG'
p722
I9068
sS'TCGCAC'
p723
I133
sS'CCGTTG'
p724
I653
sS'CCGTTA'
p725
I512
sS'CCGTTC'
p726
I324
sS'AATGCT'
p727
I1433
sS'GGTACG'
p728
I228
sS'GGTACA'
p729
I1189
sS'GGTACC'
p730
I912
sS'TATTTG'
p731
I10640
sS'CCAGTT'
p732
I368
sS'TATTTC'
p733
I5551
sS'TATTTA'
p734
I12436
sS'CCCCCT'
p735
I1042
sS'GGTACT'
p736
I431
sS'AATGCG'
p737
I638
sS'AATGCC'
p738
I2712
sS'AATGCA'
p739
I4633
sS'CCCCCC'
p740
I1574
sS'CCCCCA'
p741
I3147
sS'TATTTT'
p742
I3928
sS'CCCCCG'
p743
I1035
sS'GAGCGA'
p744
I1676
sS'CTTGAG'
p745
I2002
sS'ATGATG'
p746
I3036
sS'CTTGAC'
p747
I1346
sS'CTTGAA'
p748
I1728
sS'CGGACT'
p749
I238
sS'TGCAAC'
p750
I3816
sS'TGCAAA'
p751
I6836
sS'TGCAAG'
p752
I4977
sS'GAAGTG'
p753
I5452
sS'ATGATT'
p754
I441
sS'CTTGAT'
p755
I390
sS'CGAATC'
p756
I98
sS'TTGAGG'
p757
I2971
sS'AATCTC'
p758
I2947
sS'CAATGT'
p759
I520
sS'TTGAGC'
p760
I1939
sS'TTGAGA'
p761
I2641
sS'GAGAAT'
p762
I1393
sS'TGTCTT'
p763
I1599
sS'CGAATA'
p764
I251
sS'AGTAGC'
p765
I2521
sS'AAGGCC'
p766
I4781
sS'ATAACC'
p767
I849
sS'AAGGCA'
p768
I5798
sS'ATAACA'
p769
I1404
sS'AAGGCG'
p770
I1567
sS'ATAACG'
p771
I205
sS'ACTCCA'
p772
I1413
sS'TGTCTG'
p773
I10139
sS'GAGAAG'
p774
I9687
sS'GAGAAA'
p775
I8399
sS'TGTCTC'
p776
I4822
sS'GAGAAC'
p777
I5549
sS'TGTCTA'
p778
I5028
sS'TGTGGC'
p779
I2778
sS'TGTGGA'
p780
I1870
sS'TGTGGG'
p781
I3222
sS'ATAACT'
p782
I502
sS'AAGGCT'
p783
I1982
sS'TAGGCT'
p784
I1175
sS'CAATTT'
p785
I313
sS'GCCCCG'
p786
I2271
sS'ACCAAG'
p787
I3028
sS'GGTCAG'
p788
I2150
sS'ACCAAA'
p789
I2977
sS'ATCATC'
p790
I1831
sS'ACCAAC'
p791
I2414
sS'GGTCAC'
p792
I1793
sS'GGTCAT'
p793
I390
sS'ACCAAT'
p794
I818
sS'CGTGCA'
p795
I817
sS'GAACTG'
p796
I3469
sS'AGGTAA'
p797
I1254
sS'CAAACT'
p798
I667
sS'TTTTGC'
p799
I4194
sS'TCTTAC'
p800
I1817
sS'AATTGG'
p801
I2791
sS'TCTTAA'
p802
I2304
sS'TTTTGG'
p803
I3624
sS'AAGCAC'
p804
I3136
sS'AATTGC'
p805
I3477
sS'TAGCCA'
p806
I3088
sS'TGGGGT'
p807
I763
sS'TAGCCC'
p808
I1982
sS'GATAAT'
p809
I1055
sS'CGCTCA'
p810
I2424
sS'CGCTCC'
p811
I4032
sS'AATTGT'
p812
I1725
sS'CGATCC'
p813
I122
sS'AATCTT'
p814
I1175
sS'TCTTAT'
p815
I684
sS'TTTTGT'
p816
I2438
sS'CGCTCT'
p817
I1278
sS'TGGGGG'
p818
I2263
sS'GATAAC'
p819
I2631
sS'TAGCCT'
p820
I971
sS'TGGGGC'
p821
I2394
sS'GATAAG'
p822
I3735
sS'CATTTA'
p823
I10899
sS'GATCCT'
p824
I1098
sS'AAGAAT'
p825
I1156
sS'GTTATC'
p826
I572
sS'AAGAAC'
p827
I4274
sS'GATCCA'
p828
I2272
sS'AAGAAA'
p829
I8022
sS'GATCCC'
p830
I2406
sS'AAGAAG'
p831
I6784
sS'GATCCG'
p832
I811
sS'GCCCCA'
p833
I4297
sS'ATGCCG'
p834
I298
sS'AAGCAT'
p835
I871
sS'CAAGGG'
p836
I1376
sS'CAAGGC'
p837
I1389
sS'GGTTCT'
p838
I1159
sS'CAAGGA'
p839
I1386
sS'GGTTCA'
p840
I2965
sS'GCAACC'
p841
I726
sS'GGTTCC'
p842
I2507
sS'CAAGGT'
p843
I605
sS'GGTTCG'
p844
I682
sS'CTGTAT'
p845
I871
sS'ATTATA'
p846
I1933
sS'ATTATC'
p847
I552
sS'TAGAAT'
p848
I863
sS'CAAACG'
p849
I387
sS'ATTATG'
p850
I2104
sS'AGTCTT'
p851
I1061
sS'TAGAAA'
p852
I4178
sS'TAGAAC'
p853
I2572
sS'ATTATT'
p854
I502
sS'TAGAAG'
p855
I3809
sS'AGTCTA'
p856
I3886
sS'AGTCTC'
p857
I3495
sS'AGTCTG'
p858
I7013
sS'TAACTC'
p859
I646
sS'TAACTA'
p860
I1573
sS'TAACTG'
p861
I2234
sS'ATCTAT'
p862
I876
sS'AGGTAT'
p863
I522
sS'GGCGCT'
p864
I686
sS'TAACTT'
p865
I461
sS'ATCTAG'
p866
I2331
sS'ATCTAC'
p867
I2231
sS'ATCTAA'
p868
I3161
sS'CCATGT'
p869
I743
sS'GCCCCC'
p870
I3289
sS'TGGAGG'
p871
I4291
sS'TGGAGA'
p872
I2832
sS'GGTCAA'
p873
I1221
sS'CCATGC'
p874
I928
sS'CCATGA'
p875
I763
sS'CCATGG'
p876
I920
sS'TGGAGT'
p877
I1000
sS'ATTACG'
p878
I212
sS'TCAGTA'
p879
I1095
sS'TCAGTC'
p880
I545
sS'CTCTCT'
p881
I6711
sS'GGGGAT'
p882
I317
sS'TCAGTG'
p883
I1824
sS'CGATAT'
p884
I24
sS'CTCTCG'
p885
I2602
sS'GGGGAC'
p886
I1114
sS'CTCTCC'
p887
I12045
sS'TCAGTT'
p888
I487
sS'CTCTCA'
p889
I11738
sS'ATGCAG'
p890
I1280
sS'CGATAG'
p891
I56
sS'CGATAA'
p892
I48
sS'CGATAC'
p893
I73
sS'CTAAGG'
p894
I1613
sS'GTGTTT'
p895
I1999
sS'GCTACT'
p896
I586
sS'GTGGTT'
p897
I1098
sS'CTAAGA'
p898
I1530
sS'GTGTTC'
p899
I2943
sS'GTGTTA'
p900
I5286
sS'GTGTTG'
p901
I6577
sS'CGTGCC'
p902
I823
sS'GTGGTA'
p903
I3172
sS'GCTACA'
p904
I1195
sS'GTGGTC'
p905
I1543
sS'GCTACC'
p906
I967
sS'GTGGTG'
p907
I6152
sS'GCTACG'
p908
I315
sS'GCCCCT'
p909
I1502
sS'TTTCGT'
p910
I301
sS'TGCCCT'
p911
I1753
sS'AGCGTT'
p912
I381
sS'CGTGCG'
p913
I521
sS'TGCCCC'
p914
I3645
sS'TGCCCA'
p915
I4093
sS'TGCCCG'
p916
I1105
sS'TTTCGG'
p917
I813
sS'AGCGTA'
p918
I969
sS'AGCGTC'
p919
I1303
sS'AGCGTG'
p920
I2993
sS'GGCCCC'
p921
I3400
sS'AACGTT'
p922
I408
sS'GGCCCA'
p923
I2717
sS'CACGTG'
p924
I5229
sS'GGCCCG'
p925
I1388
sS'CACGTA'
p926
I2115
sS'TGTACC'
p927
I1607
sS'CACGTC'
p928
I1483
sS'CTACGC'
p929
I253
sS'ACGTGA'
p930
I548
sS'GGGACT'
p931
I1038
sS'ACAGTC'
p932
I439
sS'CACGTT'
p933
I474
sS'TTCACG'
p934
I1303
sS'GNCCCA'
p935
I1
sS'GGCCCT'
p936
I1198
sS'GGGACA'
p937
I2118
sS'AATTGA'
p938
I3785
sS'GGGACC'
p939
I2075
sS'TCGTGG'
p940
I471
sS'GGGACG'
p941
I966
sS'TCTTAG'
p942
I1933
sS'GCTTCC'
p943
I3377
sS'AGAGAG'
p944
I2016
sS'AGAGAA'
p945
I2040
sS'AGAGAC'
p946
I1314
sS'GTCTCG'
p947
I2031
sS'GTCTTT'
p948
I3569
sS'TCTATC'
p949
I622
sS'TCTATG'
p950
I2334
sS'AGAGAT'
p951
I582
sS'TTCACA'
p952
I8181
sS'ATGCTC'
p953
I1195
sS'GTCTTG'
p954
I10333
sS'TCTATT'
p955
I537
sS'GTCTTC'
p956
I6706
sS'GTCTTA'
p957
I7672
sS'GCAGAG'
p958
I1193
sS'GCTCAA'
p959
I1317
sS'GCTCAC'
p960
I1487
sS'GCAGAC'
p961
I598
sS'GCAGAA'
p962
I986
sS'GCTCAG'
p963
I2400
sS'AGACGT'
p964
I181
sS'ATGCGT'
p965
I148
sS'TTGCTG'
p966
I6424
sS'TTGCTA'
p967
I3641
sS'TTGCTC'
p968
I2028
sS'GCAGAT'
p969
I384
sS'GCTCAT'
p970
I448
sS'GTACGG'
p971
I171
sS'TTGCTT'
p972
I1231
sS'GAAGGG'
p973
I3338
sS'TAGCCG'
p974
I540
sS'ATGCGC'
p975
I405
sS'ATGCGA'
p976
I249
sS'TGTAAG'
p977
I3330
sS'GGCTAG'
p978
I2518
sS'TGTAAC'
p979
I2947
sS'GGCTAC'
p980
I2347
sS'GACTGT'
p981
I4564
sS'GGCTAA'
p982
I2948
sS'TTCGAG'
p983
I740
sS'TTGGTA'
p984
I2225
sS'ACTGTC'
p985
I845
sS'TTGGTC'
p986
I1077
sS'TTCGAC'
p987
I442
sS'ACTGTG'
p988
I4079
sS'GTTTGG'
p989
I3100
sS'GACTGC'
p990
I9873
sS'GGCTAT'
p991
I699
sS'TGTAAT'
p992
I1092
sS'GACTGG'
p993
I9637
sS'TGTGGT'
p994
I1405
sS'TTGGTT'
p995
I756
sS'ACTGTT'
p996
I489
sS'GTTTCT'
p997
I2165
sS'ATAATT'
p998
I442
sS'CCTTTT'
p999
I1343
sS'GTTTCG'
p1000
I778
sS'GTTTCC'
p1001
I3885
sS'GTTTCA'
p1002
I5750
sS'ATAATG'
p1003
I1872
sS'CCTTTA'
p1004
I5400
sS'CCTTTC'
p1005
I3385
sS'CGTTTA'
p1006
I1510
sS'ATAATA'
p1007
I1855
sS'CCTTTG'
p1008
I7366
sS'ACAGAA'
p1009
I1565
sS'ACAGAC'
p1010
I1010
sS'ACAGAG'
p1011
I1477
sS'TTATCT'
p1012
I852
sS'CTGGAC'
p1013
I1102
sS'CTGGAA'
p1014
I1396
sS'CTGGAG'
p1015
I2117
sS'ATATAA'
p1016
I769
sS'ACAGAT'
p1017
I625
sS'TGGGGA'
p1018
I2285
sS'TTATCA'
p1019
I1469
sS'CTGGAT'
p1020
I324
sS'TTATCC'
p1021
I836
sS'CCAATG'
p1022
I1469
sS'GGCGAG'
p1023
I1623
sS'AAACCA'
p1024
I2090
sS'CCAATC'
p1025
I602
sS'AAACCC'
p1026
I1182
sS'CCAATA'
p1027
I954
sS'TGTCGG'
p1028
I858
sS'GAGATC'
p1029
I2034
sS'CCCTAT'
p1030
I662
sS'GAGATA'
p1031
I5254
sS'AACGAA'
p1032
I1164
sS'GAGATG'
p1033
I9388
sS'AACGAC'
p1034
I830
sS'ATTTGA'
p1035
I2805
sS'CCAATT'
p1036
I266
sS'ATTTGC'
p1037
I3013
sS'GGGTAT'
p1038
I311
sS'ATTTGG'
p1039
I2071
sS'CCCTAG'
p1040
I2339
sS'TGTCGT'
p1041
I296
sS'CCCTAC'
p1042
I2247
sS'GAGATT'
p1043
I849
sS'CCCTAA'
p1044
I2597
sS'CATTAT'
p1045
I1186
sS'TGGATT'
p1046
I405
sS'ATCACA'
p1047
I4177
sS'ATCACC'
p1048
I3071
sS'CATGCT'
p1049
I1252
sS'TGACAC'
p1050
I590
sS'ATCACG'
p1051
I806
sS'TGGATA'
p1052
I1797
sS'TGGATC'
p1053
I630
sS'CATTAA'
p1054
I3982
sS'TGGATG'
p1055
I3239
sS'CATGCA'
p1056
I3966
sS'TGACAT'
p1057
I328
sS'CATGCC'
p1058
I2635
sS'ATCACT'
p1059
I1488
sS'CATGCG'
p1060
I746
sS'GTAGAA'
p1061
I798
sS'GTAGAC'
p1062
I490
sS'CCGCTT'
p1063
I186
sS'GTAGAG'
p1064
I795
sS'GATTGG'
p1065
I5864
sS'ACAACC'
p1066
I839
sS'GCATGA'
p1067
I843
sS'GATTGC'
p1068
I3849
sS'GATTGA'
p1069
I3783
sS'ACTAAG'
p1070
I1478
sS'GTAGAT'
p1071
I209
sS'GGGTAC'
p1072
I612
sS'ATGAGT'
p1073
I883
sS'GATTGT'
p1074
I1819
sS'ACAACT'
p1075
I469
sS'GCGCGT'
p1076
I142
sS'TAATAG'
p1077
I758
sS'AGTCCG'
p1078
I618
sS'TAATAC'
p1079
I814
sS'GTCCGA'
p1080
I685
sS'TAATAA'
p1081
I1138
sS'GTCCGC'
p1082
I1683
sS'TGTTTA'
p1083
I9493
sS'TCAACA'
p1084
I1128
sS'ACTCTT'
p1085
I596
sS'GTCCGT'
p1086
I366
sS'TAATAT'
p1087
I516
sS'ATTCGC'
p1088
I279
sS'TTCTCC'
p1089
I10655
sS'TGAACT'
p1090
I681
sS'TTCTCA'
p1091
I15770
sS'ATTCGG'
p1092
I335
sS'TTCTCG'
p1093
I2268
sS'TCGTAC'
p1094
I108
sS'TACCTT'
p1095
I1978
sS'TCGTAA'
p1096
I118
sS'TCGTAG'
p1097
I158
sS'GAACCT'
p1098
I472
sS'ATCCAA'
p1099
I1345
sS'ATCCAC'
p1100
I1429
sS'TGAACC'
p1101
I1002
sS'TTCTCT'
p1102
I7654
sS'TGAACA'
p1103
I1520
sS'GAACCC'
p1104
I874
sS'TTATAT'
p1105
I489
sS'GAACCA'
p1106
I1315
sS'GAACCG'
p1107
I302
sS'TACCTC'
p1108
I4354
sS'TCGTAT'
p1109
I78
sS'ATGTTA'
p1110
I4013
sS'ACCATA'
p1111
I2858
sS'ACCATG'
p1112
I4683
sS'ATGTTG'
p1113
I4229
sS'AGCTCT'
p1114
I3926
sS'TGTCCT'
p1115
I1100
sS'AGTGGT'
p1116
I831
sS'CGTGGT'
p1117
I339
sS'TGATGT'
p1118
I677
sS'CTGTGG'
p1119
I6654
sS'ACCATT'
p1120
I651
sS'AGTGGA'
p1121
I1804
sS'AGTGGC'
p1122
I2283
sS'AGCTCC'
p1123
I7482
sS'AGTGGG'
p1124
I2553
sS'ATAGCC'
p1125
I576
sS'CAGTAA'
p1126
I1879
sS'CAGTAC'
p1127
I1481
sS'CAGTAG'
p1128
I1650
sS'CGCGGT'
p1129
I262
sS'TTAATA'
p1130
I2427
sS'CAGTAT'
p1131
I620
sS'GTTCCT'
p1132
I857
sS'AAAGTC'
p1133
I1049
sS'AAAGTG'
p1134
I3644
sS'GATCTA'
p1135
I3908
sS'GATCTC'
p1136
I3507
sS'ATTGAC'
p1137
I819
sS'GATCTG'
p1138
I7725
sS'TCCCTT'
p1139
I2059
sS'CCGGCC'
p1140
I1292
sS'ATTAGG'
p1141
I1323
sS'CCGGCG'
p1142
I414
sS'CACATT'
p1143
I1716
sS'GTTCCC'
p1144
I1671
sS'TCCCTC'
p1145
I5403
sS'TGTCCG'
p1146
I562
sS'TCCCTA'
p1147
I4876
sS'TGCCAC'
p1148
I3158
sS'TCCCTG'
p1149
I10060
sS'GATCTT'
p1150
I1358
sS'ATAGAA'
p1151
I950
sS'CACAAT'
p1152
I1460
sS'AAGTGC'
p1153
I4494
sS'TGTTCT'
p1154
I2569
sS'AAGTGG'
p1155
I5030
sS'TGATTG'
p1156
I1671
sS'TCTGAT'
p1157
I511
sS'TGTATT'
p1158
I814
sS'CGAGGT'
p1159
I159
sS'TGTTCA'
p1160
I5915
sS'CACAAG'
p1161
I6032
sS'TGTTCC'
p1162
I3494
sS'CACAAA'
p1163
I7203
sS'CACAAC'
p1164
I4883
sS'TGTTCG'
p1165
I781
sS'TCTGAA'
p1166
I1652
sS'TCTGAC'
p1167
I1533
sS'GAAGTC'
p1168
I1342
sS'TCTGAG'
p1169
I2198
sS'CGCGCC'
p1170
I2994
sS'CGCGCA'
p1171
I1495
sS'GGTAAA'
p1172
I1886
sS'CGCGCG'
p1173
I1626
sS'CTCCCT'
p1174
I3070
sS'AGCGGG'
p1175
I2095
sS'AGCGGA'
p1176
I1192
sS'AGCGGC'
p1177
I2148
sS'GGTAAG'
p1178
I2058
sS'GAAATA'
p1179
I3802
sS'CGCGCT'
p1180
I607
sS'ACCTCC'
p1181
I4484
sS'CTCCCG'
p1182
I2421
sS'CCGAGG'
p1183
I811
sS'CTCCCC'
p1184
I7653
sS'GCCTCT'
p1185
I3490
sS'TAAGCC'
p1186
I1341
sS'TAGCTC'
p1187
I2241
sS'CCCATG'
p1188
I5142
sS'CGGGAA'
p1189
I418
sS'CCCATA'
p1190
I2910
sS'TAGCTG'
p1191
I6373
sS'CCCATC'
p1192
I2004
sS'CCGAGA'
p1193
I387
sS'CCTGCT'
p1194
I999
sS'CCGAAT'
p1195
I51
sS'CCCATT'
p1196
I895
sS'CGGGAT'
p1197
I101
sS'GCCTCG'
p1198
I2693
sS'GCCTCA'
p1199
I7610
sS'TAAGCT'
p1200
I551
sS'GCCTCC'
p1201
I9919
sS'CCGAAC'
p1202
I167
sS'CCTGCG'
p1203
I891
sS'CCGAAA'
p1204
I187
sS'CCGAAG'
p1205
I359
sS'CCTGCC'
p1206
I2852
sS'CCTGCA'
p1207
I2337
sS'GTACTG'
p1208
I1325
sS'CCATTC'
p1209
I577
sS'TATAAG'
p1210
I3162
sS'TATAAA'
p1211
I5192
sS'TATAAC'
p1212
I2638
sS'TAACGA'
p1213
I212
sS'CATTTC'
p1214
I6370
sS'TATAAT'
p1215
I1284
sS'GTTCTA'
p1216
I3108
sS'CCATTT'
p1217
I484
sS'TCTACA'
p1218
I1458
sS'TCTACC'
p1219
I1296
sS'CTAACT'
p1220
I563
sS'TCTACG'
p1221
I297
sS'CACCGT'
p1222
I534
sS'CGCAAC'
p1223
I907
sS'CGCAAA'
p1224
I889
sS'ATACCG'
p1225
I107
sS'CGCAAG'
p1226
I1265
sS'ATACCA'
p1227
I692
sS'ATACCC'
p1228
I403
sS'TCTACT'
p1229
I743
sS'CCGAGT'
p1230
I179
sS'ATACCT'
p1231
I326
sS'CGCAAT'
p1232
I224
sS'TAGTAA'
p1233
I2064
sS'TGGGTG'
p1234
I4344
sS'TAGTAC'
p1235
I1351
sS'CTCAAG'
p1236
I5736
sS'CTCAAA'
p1237
I6862
sS'TAGTAG'
p1238
I1551
sS'CTCAAC'
p1239
I4213
sS'GTGTGC'
p1240
I4755
sS'GTGTGA'
p1241
I4130
sS'GTGTGG'
p1242
I5691
sS'TAACGG'
p1243
I253
sS'TTGCGT'
p1244
I214
sS'CTCAAT'
p1245
I1051
sS'TAGTAT'
p1246
I737
sS'GTGTGT'
p1247
I4004
sS'ATCTTT'
p1248
I2236
sS'GTTGGG'
p1249
I1557
sS'GTTGGA'
p1250
I990
sS'GTTGGC'
p1251
I1163
sS'CCTTGG'
p1252
I2727
sS'CCTTGA'
p1253
I2216
sS'GCGTAT'
p1254
I59
sS'CCTTGC'
p1255
I2721
sS'GGACGT'
p1256
I104
sS'GTTGGT'
p1257
I521
sS'ATCTTG'
p1258
I7418
sS'ATCTTA'
p1259
I6196
sS'ATCTTC'
p1260
I3956
sS'AGGATC'
p1261
I992
sS'AGGATA'
p1262
I2633
sS'AGGATG'
p1263
I5590
sS'GACATG'
p1264
I8956
sS'GACATC'
p1265
I3565
sS'GACATA'
p1266
I5882
sS'TCGGCG'
p1267
I237
sS'GAATAT'
p1268
I377
sS'GGTGCA'
p1269
I1527
sS'TCGGCC'
p1270
I702
sS'ATCAGA'
p1271
I3925
sS'TTGCGA'
p1272
I256
sS'GACATT'
p1273
I1812
sS'TTGCGG'
p1274
I502
sS'GAATAG'
p1275
I732
sS'TCGGCT'
p1276
I180
sS'ATCAGC'
p1277
I3785
sS'GAATAC'
p1278
I690
sS'GCATCG'
p1279
I150
sS'CGTCGT'
p1280
I144
sS'TGCAGA'
p1281
I7372
sS'CGACAG'
p1282
I124
sS'ATACAA'
p1283
I575
sS'GGACGA'
p1284
I154
sS'TGCCTC'
p1285
I5423
sS'ACGTCG'
p1286
I143
sS'TTATAA'
p1287
I876
sS'GAAATG'
p1288
I6278
sS'AATGAT'
p1289
I813
sS'TTTCTC'
p1290
I4374
sS'GAAATC'
p1291
I1099
sS'ACCGGT'
p1292
I152
sS'GAAATT'
p1293
I514
sS'AATGAA'
p1294
I4640
sS'ATGTCC'
p1295
I2007
sS'AATGAC'
p1296
I3337
sS'AATGAG'
p1297
I4685
sS'TGCACT'
p1298
I2296
sS'CTTGGC'
p1299
I1755
sS'GTCCTT'
p1300
I1612
sS'CTTGGG'
p1301
I2036
sS'ATACAG'
p1302
I561
sS'AGCCCT'
p1303
I2128
sS'GCGTAA'
p1304
I138
sS'TTGAAT'
p1305
I601
sS'GTCCTA'
p1306
I4100
sS'GTCCTC'
p1307
I4359
sS'TGCACG'
p1308
I1396
sS'CTTGGT'
p1309
I719
sS'GTCCTG'
p1310
I9070
sS'TGCACC'
p1311
I4309
sS'TTGAAA'
p1312
I2281
sS'CTTTTC'
p1313
I4385
sS'TTGAAC'
p1314
I1607
sS'AGCCCA'
p1315
I4900
sS'TTGAAG'
p1316
I2109
sS'TTAACT'
p1317
I771
sS'ATAAAT'
p1318
I595
sS'TGGTCG'
p1319
I401
sS'TGGTCA'
p1320
I2784
sS'TGGTCC'
p1321
I1855
sS'ACGATT'
p1322
I58
sS'GAGACT'
p1323
I2622
sS'ACGGGG'
p1324
I539
sS'TGGTCT'
p1325
I1282
sS'ATAAAG'
p1326
I1248
sS'AGGAAC'
p1327
I3084
sS'CTAAGC'
p1328
I1333
sS'ATAAAC'
p1329
I1130
sS'GAGACG'
p1330
I1942
sS'ACGGGA'
p1331
I320
sS'CTACAG'
p1332
I769
sS'GAGACC'
p1333
I5244
sS'ACGATC'
p1334
I78
sS'GAGACA'
p1335
I7298
sS'ACGATA'
p1336
I215
sS'GGTTAC'
p1337
I1486
sS'ATGTGT'
p1338
I1769
sS'GGTTAA'
p1339
I2064
sS'ACCACT'
p1340
I1457
sS'GGTTAG'
p1341
I1640
sS'CTTCCT'
p1342
I2113
sS'GAATGT'
p1343
I775
sS'TAAACT'
p1344
I971
sS'CGTGAA'
p1345
I455
sS'CTCAGT'
p1346
I3098
sS'TCCGCT'
p1347
I859
sS'CTTCCA'
p1348
I2454
sS'CTTCCC'
p1349
I3610
sS'ATGTGA'
p1350
I2758
sS'GAGGAA'
p1351
I6928
sS'ATGTGC'
p1352
I2538
sS'GGTTAT'
p1353
I513
sS'TCCGCC'
p1354
I3569
sS'TCCGCA'
p1355
I1299
sS'TCCGCG'
p1356
I1033
sS'AACGTC'
p1357
I1055
sS'CGTGAG'
p1358
I903
sS'AACGTG'
p1359
I2804
sS'CGTGAC'
p1360
I807
sS'GGTAGC'
p1361
I1489
sS'AGTGTG'
p1362
I6075
sS'TCTTCG'
p1363
I774
sS'AGTGTA'
p1364
I3079
sS'TCTTCA'
p1365
I4252
sS'AGTGTC'
p1366
I1408
sS'TCTTCC'
p1367
I3803
sS'TAAGTG'
p1368
I2830
sS'TAAGTC'
p1369
I826
sS'TAAGTA'
p1370
I2301
sS'AGTAAA'
p1371
I3586
sS'TCTTCT'
p1372
I1963
sS'AGTGTT'
p1373
I736
sS'GTGCGC'
p1374
I990
sS'TTGGCA'
p1375
I2154
sS'AAAGGT'
p1376
I723
sS'TTGGCC'
p1377
I2427
sS'CCGTGC'
p1378
I591
sS'TTAACG'
p1379
I232
sS'TTGGCG'
p1380
I446
sS'GACTTC'
p1381
I8306
sS'TCGAGT'
p1382
I118
sS'GACTTA'
p1383
I7787
sS'GACTTG'
p1384
I11504
sS'ACGTAG'
p1385
I208
sS'AAAGGG'
p1386
I2537
sS'AAAGGA'
p1387
I2895
sS'TTGGCT'
p1388
I1157
sS'AAAGGC'
p1389
I2135
sS'AGTAAG'
p1390
I3194
sS'GTCGAT'
p1391
I81
sS'GACTTT'
p1392
I4103
sS'TTCTTT'
p1393
I7335
sS'CAAGAA'
p1394
I1286
sS'GACGTT'
p1395
I516
sS'CAAGAC'
p1396
I1011
sS'CAAGAG'
p1397
I1335
sS'CGTATT'
p1398
I128
sS'TTCTTG'
p1399
I14685
sS'TTCTTC'
p1400
I10562
sS'TTCTTA'
p1401
I14193
sS'CAAGAT'
p1402
I356
sS'AGGGCT'
p1403
I1413
sS'TACGGG'
p1404
I917
sS'TACGGA'
p1405
I724
sS'TACGGC'
p1406
I912
sS'CCAACT'
p1407
I379
sS'TAGAGT'
p1408
I1198
sS'TACGGT'
p1409
I316
sS'AGGGCG'
p1410
I1200
sS'AGGGCA'
p1411
I3257
sS'AGGGCC'
p1412
I3391
sS'TCGAGA'
p1413
I274
sS'AGTTCG'
p1414
I739
sS'TAGAGA'
p1415
I4673
sS'TAGAGG'
p1416
I4352
sS'GGCGAA'
p1417
I628
sS'GTGCTG'
p1418
I8156
sS'GTGCTA'
p1419
I3380
sS'ATCTGT'
p1420
I2464
sS'GTGCTC'
p1421
I2236
sS'GTGCGG'
p1422
I1022
sS'ATCTGA'
p1423
I4912
sS'GTGCTT'
p1424
I1081
sS'ATCTGC'
p1425
I5226
sS'CGCCGT'
p1426
I383
sS'CGAATG'
p1427
I462
sS'ATCTGG'
p1428
I4346
sS'ATCATA'
p1429
I3616
sS'GATAGC'
p1430
I2212
sS'AAGCAG'
p1431
I4582
sS'GATAGA'
p1432
I3166
sS'AAGCAA'
p1433
I3406
sS'GATAGG'
p1434
I2952
sS'ATCATG'
p1435
I5092
sS'TTTACC'
p1436
I1731
sS'GTTATG'
p1437
I2446
sS'CTAGGT'
p1438
I493
sS'TTTCAT'
p1439
I1152
sS'CATTTG'
p1440
I11200
sS'GTTATA'
p1441
I1768
sS'CAAACA'
p1442
I2447
sS'TTTCAG'
p1443
I4374
sS'CAAACC'
p1444
I1666
sS'CTCGGG'
p1445
I2154
sS'ATCATT'
p1446
I859
sS'GATAGT'
p1447
I1075
sS'ACGCAG'
p1448
I308
sS'CTAGGG'
p1449
I1014
sS'GTTATT'
p1450
I486
sS'TGGAGC'
p1451
I2747
sS'CTAGGC'
p1452
I891
sS'CATTTT'
p1453
I2612
sS'CTAGGA'
p1454
I986
sS'AAGTTT'
p1455
I1297
sS'TACAGT'
p1456
I3609
sS'CTCGAA'
p1457
I572
sS'CTCGGC'
p1458
I2287
sS'GTATGG'
p1459
I907
sS'GGGGCT'
p1460
I953
sS'TACAGG'
p1461
I8775
sS'AAGTTG'
p1462
I5639
sS'GGATGC'
p1463
I573
sS'AAGTTA'
p1464
I5847
sS'TACAGC'
p1465
I6988
sS'AAGTTC'
p1466
I2734
sS'TACAGA'
p1467
I9119
sS'GGGGCC'
p1468
I2646
sS'GTATGA'
p1469
I1167
sS'GGGGCA'
p1470
I1950
sS'GGGGCG'
p1471
I1406
sS'TATATC'
p1472
I1339
sS'TATATA'
p1473
I6655
sS'TATATG'
p1474
I5412
sS'AGTTCT'
p1475
I1965
sS'TCCGGT'
p1476
I636
sS'GCCCAT'
p1477
I495
sS'TATATT'
p1478
I1239
sS'GGACTA'
p1479
I529
sS'CTGTAG'
p1480
I1734
sS'TGATGG'
p1481
I883
sS'CTCGGT'
p1482
I419
sS'TGATGC'
p1483
I853
sS'AGGTCT'
p1484
I1239
sS'TGATGA'
p1485
I920
sS'AGCATG'
p1486
I8574
sS'TGCCAT'
p1487
I755
sS'CACATC'
p1488
I3924
sS'TGTTTC'
p1489
I5869
sS'CACATA'
p1490
I8036
sS'TTAATT'
p1491
I579
sS'CACATG'
p1492
I10947
sS'TGTTTG'
p1493
I10894
sS'ATGAGA'
p1494
I2348
sS'ATGAGC'
p1495
I1623
sS'AGTAAC'
p1496
I2606
sS'ATGAGG'
p1497
I2581
sS'CATATC'
p1498
I1268
sS'ACTCTG'
p1499
I4662
sS'TTAATC'
p1500
I531
sS'ACTCTA'
p1501
I2262
sS'TGTTTT'
p1502
I2901
sS'ACTCTC'
p1503
I1295
sS'TTAATG'
p1504
I2466
sS'AAATTC'
p1505
I696
sS'AAATTA'
p1506
I2537
sS'AAATTG'
p1507
I1826
sS'CCAGTA'
p1508
I825
sS'TCTTGT'
p1509
I1475
sS'CGTACC'
p1510
I377
sS'AAATTT'
p1511
I491
sS'CTTAGT'
p1512
I799
sS'CGTCTA'
p1513
I927
sS'GGGAAC'
p1514
I1939
sS'GGTGCG'
p1515
I581
sS'GGGAAA'
p1516
I2235
sS'GGGAAG'
p1517
I4181
sS'GGTGCC'
p1518
I1462
sS'AGGTCC'
p1519
I2125
sS'AGAGCG'
p1520
I485
sS'GCGACT'
p1521
I128
sS'AGCGAT'
p1522
I227
sS'AGAGCC'
p1523
I1607
sS'AGAGCA'
p1524
I1851
sS'GCGTAG'
p1525
I189
sS'GGTGCT'
p1526
I659
sS'GCGTAC'
p1527
I143
sS'TAATTT'
p1528
I658
sS'GGGAAT'
p1529
I415
sS'GCGACG'
p1530
I248
sS'AGAGCT'
p1531
I758
sS'GCGACA'
p1532
I312
sS'TATCGG'
p1533
I494
sS'GCGACC'
p1534
I441
sS'AGGTCG'
p1535
I540
sS'GCAGGA'
p1536
I1313
sS'ACCGGA'
p1537
I678
sS'GCAGGC'
p1538
I1206
sS'GCAGGG'
p1539
I1433
sS'GGCGAT'
p1540
I139
sS'GCTCGA'
p1541
I438
sS'GCTCGG'
p1542
I1086
sS'TATTCT'
p1543
I3088
sS'CCGTGG'
p1544
I621
sS'ACTTAC'
p1545
I1275
sS'AAATAC'
p1546
I1303
sS'GCAGGT'
p1547
I692
sS'ATTGTG'
p1548
I2282
sS'ACGTCT'
p1549
I223
sS'TATTCC'
p1550
I2994
sS'CAATTG'
p1551
I1152
sS'TATTCA'
p1552
I7472
sS'CAATTA'
p1553
I1399
sS'TATTCG'
p1554
I738
sS'GGCGAC'
p1555
I1065
sS'TGTAGA'
p1556
I2794
sS'GGCTCA'
p1557
I6532
sS'TGTAGC'
p1558
I2451
sS'GGCTCC'
p1559
I6842
sS'TTTACG'
p1560
I377
sS'TGTAGG'
p1561
I2870
sS'GGCTCG'
p1562
I1891
sS'TTCGGA'
p1563
I606
sS'TTCGGC'
p1564
I1018
sS'AAATAG'
p1565
I1112
sS'GTCTAC'
p1566
I2754
sS'TTCGGG'
p1567
I1152
sS'ATTGTC'
p1568
I502
sS'AACTTA'
p1569
I7635
sS'GGCTCT'
p1570
I2616
sS'AGCATC'
p1571
I2973
sS'TTTACT'
p1572
I1166
sS'AGCATA'
p1573
I5136
sS'TCTTGG'
p1574
I2967
sS'TTCGGT'
p1575
I316
sS'GAGCAT'
p1576
I759
sS'GTTTAT'
p1577
I721
sS'GGGGAG'
p1578
I2054
sS'GCACTC'
p1579
I383
sS'GCCTTT'
p1580
I2569
sS'GTTTAA'
p1581
I2520
sS'TCCAGG'
p1582
I6041
sS'CACGAA'
p1583
I800
sS'CGAATT'
p1584
I53
sS'GTTTAG'
p1585
I1835
sS'CAGGTG'
p1586
I6071
sS'TCCAGA'
p1587
I4199
sS'CTGGCT'
p1588
I1620
sS'AGGCGG'
p1589
I2294
sS'AGGCGA'
p1590
I787
sS'AGGCGC'
p1591
I1469
sS'AGGAGT'
p1592
I1252
sS'ACAGCC'
p1593
I1295
sS'GATAAA'
p1594
I4586
sS'ACAGCA'
p1595
I1654
sS'GAGGTC'
p1596
I2710
sS'ACAGCG'
p1597
I343
sS'AGGAGC'
p1598
I3924
sS'GTCGGA'
p1599
I579
sS'AGGAGA'
p1600
I4053
sS'GTCGGC'
p1601
I1163
sS'AGGAGG'
p1602
I8077
sS'CTGGCA'
p1603
I3577
sS'CTGGCC'
p1604
I4111
sS'GCGCCC'
p1605
I920
sS'ACAGCT'
p1606
I780
sS'GCTCTC'
p1607
I1926
sS'ATTGGT'
p1608
I544
sS'AATTTT'
p1609
I1418
sS'AAACAG'
p1610
I1764
sS'TGTCAC'
p1611
I3637
sS'CCCTCT'
p1612
I2612
sS'GCTCTA'
p1613
I2569
sS'TGTCAG'
p1614
I3819
sS'AACGCG'
p1615
I785
sS'AATTTA'
p1616
I6337
sS'AATTTC'
p1617
I2578
sS'AACGCC'
p1618
I1804
sS'TTTCAC'
p1619
I3234
sS'AACGCA'
p1620
I1487
sS'AATTTG'
p1621
I6020
sS'CCCTCA'
p1622
I6083
sS'ATTTAA'
p1623
I2583
sS'TGTCAT'
p1624
I1118
sS'CCCTCG'
p1625
I1748
sS'TCCAGT'
p1626
I1643
sS'GGCGTT'
p1627
I252
sS'TGACCA'
p1628
I679
sS'TGACCC'
p1629
I501
sS'TAAATC'
p1630
I959
sS'TGACCG'
p1631
I135
sS'TAGCGT'
p1632
I256
sS'NGATCC'
p1633
I1
sS'CATTCG'
p1634
I1032
sS'CATTCC'
p1635
I3633
sS'CATTCA'
p1636
I7762
sS'TCCATA'
p1637
I3073
sS'TAAATG'
p1638
I4753
sS'ACAAAT'
p1639
I513
sS'GATTAA'
p1640
I3959
sS'GTAGGC'
p1641
I785
sS'GATTAC'
p1642
I3591
sS'GTAGGA'
p1643
I911
sS'GTAGGG'
p1644
I1001
sS'GATTAG'
p1645
I3004
sS'GGCTTT'
p1646
I2438
sS'ACAAAC'
p1647
I1061
sS'TTTCAA'
p1648
I3227
sS'ACAAAA'
p1649
I1428
sS'ACAAAG'
p1650
I1280
sS'GCGGGC'
p1651
I1026
sS'GTCGGT'
p1652
I242
sS'GCGGGA'
p1653
I747
sS'GCGGGG'
p1654
I1718
sS'GATTAT'
p1655
I1153
sS'GTAGGT'
p1656
I468
sS'GGCGTC'
p1657
I1249
sS'TAATGA'
p1658
I1619
sS'GATGTT'
p1659
I937
sS'TAATGC'
p1660
I1235
sS'GGAGAT'
p1661
I263
sS'GCCCTT'
p1662
I1410
sS'GCGCCG'
p1663
I487
sS'CAATAA'
p1664
I632
sS'GCCCTC'
p1665
I4182
sS'GATGTG'
p1666
I8268
sS'GCCCTA'
p1667
I3755
sS'GATGTA'
p1668
I4186
sS'GCCCTG'
p1669
I10654
sS'GATGTC'
p1670
I2116
sS'AACCTC'
p1671
I5128
sS'TGAAAT'
p1672
I661
sS'TTCTAG'
p1673
I6223
sS'TTCTAA'
p1674
I8384
sS'ATCCGT'
p1675
I212
sS'TTCTAC'
p1676
I5187
sS'TGAAAA'
p1677
I1511
sS'TTGGAT'
p1678
I228
sS'TGAAAC'
p1679
I1991
sS'TGAAAG'
p1680
I2140
sS'TTCTAT'
p1681
I2216
sS'ATCCGC'
p1682
I752
sS'AGTAAT'
p1683
I843
sS'ATCCGA'
p1684
I383
sS'ATCCGG'
p1685
I804
sS'CGGATT'
p1686
I86
sS'TGGCTC'
p1687
I1973
sS'TAACAA'
p1688
I873
sS'TGGCTA'
p1689
I2807
sS'TGGCTG'
p1690
I6919
sS'AGGCGT'
p1691
I447
sS'AGTTGT'
p1692
I1528
sS'AGCTAT'
p1693
I1295
sS'ATTAGT'
p1694
I579
sS'CTGGCG'
p1695
I929
sS'CGTCGA'
p1696
I235
sS'TGGCTT'
p1697
I880
sS'AGTTGG'
p1698
I2877
sS'AGCTAA'
p1699
I4852
sS'AGCTAC'
p1700
I4054
sS'AGTTGC'
p1701
I3265
sS'AGTTGA'
p1702
I3256
sS'AGCTAG'
p1703
I3746
sS'CGTTGA'
p1704
I724
sS'GCACCT'
p1705
I378
sS'CAGTGT'
p1706
I2006
sS'AGTCAG'
p1707
I3791
sS'TCAGGT'
p1708
I536
sS'TCAAGG'
p1709
I1270
sS'GTCGGG'
p1710
I1476
sS'TCAAGC'
p1711
I976
sS'CTGCAC'
p1712
I1738
sS'GCACCA'
p1713
I678
sS'CAGTGC'
p1714
I4434
sS'GCACCC'
p1715
I561
sS'CAGTGA'
p1716
I4174
sS'CAGTGG'
p1717
I4565
sS'CTAATG'
p1718
I2041
sS'TCAAGT'
p1719
I641
sS'TCAGGG'
p1720
I989
sS'TCAGGA'
p1721
I1017
sS'TCAGGC'
p1722
I904
sS'CGAGCT'
p1723
I147
sS'CGTTGG'
p1724
I975
sS'CAACCA'
p1725
I1027
sS'AGTCAA'
p1726
I2556
sS'TTCCCT'
p1727
I2856
sS'CGAGCG'
p1728
I200
sS'CGAGCA'
p1729
I308
sS'GAGCCG'
p1730
I2196
sS'CGAGCC'
p1731
I474
sS'TTCCCA'
p1732
I5580
sS'TTCCCC'
p1733
I6798
sS'GTTCAC'
p1734
I1529
sS'TTCCCG'
p1735
I1527
sS'GATCAC'
p1736
I3429
sS'GGACCT'
p1737
I226
sS'CTTACT'
p1738
I990
sS'TCCACC'
p1739
I4826
sS'AAGTAC'
p1740
I2202
sS'CACACT'
p1741
I3204
sS'TACATC'
p1742
I2890
sS'AAGTAG'
p1743
I2353
sS'TACATA'
p1744
I8570
sS'CATGGT'
p1745
I836
sS'ATTTAT'
p1746
I770
sS'AACGCT'
p1747
I665
sS'GGACCA'
p1748
I393
sS'TCATCA'
p1749
I1185
sS'GGACCC'
p1750
I393
sS'CACACG'
p1751
I2308
sS'TACATT'
p1752
I2112
sS'CACACC'
p1753
I7056
sS'GCACAA'
p1754
I358
sS'CACACA'
p1755
I16069
sS'TCTGCC'
p1756
I2308
sS'TCTGCA'
p1757
I2573
sS'AACCTT'
p1758
I1898
sS'TAGATT'
p1759
I577
sS'ATTGCC'
p1760
I851
sS'CCCGTC'
p1761
I1007
sS'TTAAGG'
p1762
I1646
sS'CCCGTA'
p1763
I829
sS'TTAAGA'
p1764
I1979
sS'CCCGTG'
p1765
I2031
sS'TTAAGC'
p1766
I1336
sS'ACGCAC'
p1767
I249
sS'TAGATC'
p1768
I995
sS'TGTCAA'
p1769
I2355
sS'TAGATA'
p1770
I3661
sS'TTTCGC'
p1771
I704
sS'TAGATG'
p1772
I4806
sS'TCTGCT'
p1773
I1050
sS'TTACGC'
p1774
I154
sS'TTAAGT'
p1775
I945
sS'TTACGA'
p1776
I140
sS'TTACGG'
p1777
I184
sS'CCCGTT'
p1778
I265
sS'AGTGAC'
p1779
I2510
sS'AGTGAA'
p1780
I2746
sS'AGTGAG'
p1781
I3626
sS'GCGGTC'
p1782
I289
sS'CGGGCG'
p1783
I761
sS'AAACAC'
p1784
I1528
sS'TAAGAG'
p1785
I1331
sS'CGGGCC'
p1786
I1577
sS'TAAGAA'
p1787
I1505
sS'CGGGCA'
p1788
I792
sS'TAAGAC'
p1789
I955
sS'AAACAA'
p1790
I1942
sS'AGTGAT'
p1791
I737
sS'TAAGAT'
p1792
I349
sS'CCTGAA'
p1793
I1189
sS'CGGGCT'
p1794
I445
sS'CCTGAG'
p1795
I1830
sS'GTTAGG'
p1796
I1797
sS'GCCAAC'
p1797
I2410
sS'TATACT'
p1798
I1423
sS'GTTAGC'
p1799
I1421
sS'GTTAGA'
p1800
I1886
sS'ACCCCC'
p1801
I1925
sS'TGAATT'
p1802
I418
sS'TATACG'
p1803
I512
sS'GTTAGT'
p1804
I621
sS'TATACC'
p1805
I2079
sS'TATACA'
p1806
I3980
sS'ATTGGC'
p1807
I1462
sS'CGTATA'
p1808
I436
sS'TCCACG'
p1809
I1200
sS'GTAATG'
p1810
I1993
sS'TTTATT'
p1811
I1041
sS'GTAATA'
p1812
I1651
sS'ATTGGA'
p1813
I837
sS'GTAATC'
p1814
I498
sS'GTACAG'
p1815
I595
sS'TCTAAC'
p1816
I1435
sS'CGTTCT'
p1817
I470
sS'CCACCG'
p1818
I309
sS'CGGATC'
p1819
I236
sS'CCACCA'
p1820
I1044
sS'CCACCC'
p1821
I1060
sS'GTTCGT'
p1822
I179
sS'TTTATG'
p1823
I4140
sS'ACTAGG'
p1824
I1213
sS'GTAACG'
p1825
I294
sS'TTTATC'
p1826
I1029
sS'ACTAGC'
p1827
I985
sS'TTTATA'
p1828
I3992
sS'ACTAGA'
p1829
I1333
sS'CCACCT'
p1830
I562
sS'CGTTCG'
p1831
I416
sS'TCGTTG'
p1832
I604
sS'CGTTCA'
p1833
I1075
sS'CGTTCC'
p1834
I1117
sS'TCTAAT'
p1835
I499
sS'TCGTCT'
p1836
I168
sS'CTTTGT'
p1837
I2147
sS'CCCTCC'
p1838
I9378
sS'ACTGGA'
p1839
I1079
sS'ACTGGC'
p1840
I1216
sS'TAGTCC'
p1841
I2662
sS'GTGACC'
p1842
I2607
sS'TAGTCA'
p1843
I4646
sS'GTGACA'
p1844
I3349
sS'TAGTCG'
p1845
I422
sS'GTGACG'
p1846
I937
sS'ATTTAG'
p1847
I1538
sS'ACTGGT'
p1848
I515
sS'CTTTGG'
p1849
I4167
sS'CCTATG'
p1850
I1594
sS'GTATTT'
p1851
I787
sS'CTTTGC'
p1852
I5165
sS'ACGTGC'
p1853
I699
sS'GTGACT'
p1854
I1398
sS'TAGTCT'
p1855
I1617
sS'GTGCAC'
p1856
I1268
sS'GCGCTT'
p1857
I170
sS'ACCTAG'
p1858
I1763
sS'GCAATT'
p1859
I242
sS'TGAGGT'
p1860
I631
sS'CGACGC'
p1861
I150
sS'ACCTAC'
p1862
I1887
sS'CCGCAG'
p1863
I424
sS'CCGCAA'
p1864
I148
sS'CCGCAC'
p1865
I249
sS'CTACGG'
p1866
I244
sS'CGAAGC'
p1867
I458
sS'GCGCTG'
p1868
I1446
sS'CGAAGA'
p1869
I346
sS'CCCCGT'
p1870
I405
sS'CGAAGG'
p1871
I612
sS'GCGCTC'
p1872
I618
sS'GTGCAT'
p1873
I461
sS'GCGCTA'
p1874
I443
sS'CCGCAT'
p1875
I68
sS'GTTCGC'
p1876
I517
sS'GAAGAT'
p1877
I483
sS'GGATCT'
p1878
I228
sS'CTTCCG'
p1879
I1080
sS'TCATGA'
p1880
I852
sS'TCGTTT'
p1881
I189
sS'TCGGAC'
p1882
I131
sS'GAATCT'
p1883
I594
sS'TCGGAG'
p1884
I274
sS'GGATCG'
p1885
I90
sS'GAAGAG'
p1886
I2796
sS'GAAGAA'
p1887
I2280
sS'GGATCC'
p1888
I404
sS'GAAGAC'
p1889
I1784
sS'GGATCA'
p1890
I427
sS'GAATCA'
p1891
I1950
sS'GAATCC'
p1892
I1069
sS'TCGGAT'
p1893
I52
sS'GAATCG'
p1894
I291
sS'ATGGTC'
p1895
I653
sS'CAGATG'
p1896
I6527
sS'ATGGTA'
p1897
I1822
sS'CATTCT'
p1898
I2704
sS'ATGGTG'
p1899
I2853
sS'CAGATC'
p1900
I1246
sS'ACGCCC'
p1901
I586
sS'CAGATA'
p1902
I3537
sS'CTCGAG'
p1903
I927
sS'CAGATT'
p1904
I575
sS'TGATTA'
p1905
I1269
sS'CTCGAC'
p1906
I645
sS'ATGGTT'
p1907
I451
sS'TCGCAA'
p1908
I99
sS'TTGCGC'
p1909
I493
sS'CGTTTG'
p1910
I2010
sS'GCTATT'
p1911
I429
sS'TGCGTC'
p1912
I1103
sS'AATGGT'
p1913
I778
sS'ATGATA'
p1914
I1851
sS'GTTACG'
p1915
I335
sS'ACGTGT'
p1916
I345
sS'CCCCGC'
p1917
I3605
sS'AATGGA'
p1918
I2938
sS'AATGGG'
p1919
I2832
sS'CAATAC'
p1920
I485
sS'GATCAA'
p1921
I2706
sS'CACTCT'
p1922
I3910
sS'CAACTC'
p1923
I600
sS'CAACTA'
p1924
I917
sS'ACGCAA'
p1925
I149
sS'ATTTAC'
p1926
I1625
sS'GTGAAT'
p1927
I545
sS'AGCCAG'
p1928
I4686
sS'GGAGGG'
p1929
I1761
sS'AAAAGT'
p1930
I1239
sS'AGCCAC'
p1931
I4938
sS'GGAGGC'
p1932
I1393
sS'TGGTAG'
p1933
I1140
sS'CGCCAT'
p1934
I313
sS'GAGTGT'
p1935
I2269
sS'TGGTAC'
p1936
I862
sS'GAGGTA'
p1937
I4894
sS'TGGTAA'
p1938
I1208
sS'AAAAGG'
p1939
I4093
sS'GGAGGT'
p1940
I556
sS'AGCCAT'
p1941
I980
sS'AAAAGC'
p1942
I3162
sS'AAAAGA'
p1943
I4579
sS'TTGACT'
p1944
I875
sS'GAGTGG'
p1945
I6051
sS'CGCCAG'
p1946
I1299
sS'TGGTAT'
p1947
I570
sS'CGCCAA'
p1948
I736
sS'GAGTGC'
p1949
I5145
sS'CGCCAC'
p1950
I1417
sS'GAGTGA'
p1951
I5434
sS'GCCAGG'
p1952
I7578
sS'GCCAGA'
p1953
I4225
sS'GCCAGC'
p1954
I5693
sS'GCCCGT'
p1955
I449
sS'TACCGA'
p1956
I820
sS'TACCGC'
p1957
I1274
sS'TACCGG'
p1958
I998
sS'GCCCGC'
p1959
I3409
sS'GCCAGT'
p1960
I1446
sS'GCCCGA'
p1961
I1117
sS'GCCCGG'
p1962
I3179
sS'TGCGAT'
p1963
I170
sS'CTTCAC'
p1964
I2402
sS'CTTCAA'
p1965
I2117
sS'CTTCAG'
p1966
I3217
sS'TCCGAG'
p1967
I862
sS'TCCGAA'
p1968
I362
sS'TCCGAC'
p1969
I515
sS'AATTCA'
p1970
I5751
sS'TATTAG'
p1971
I3754
sS'AATTCC'
p1972
I2833
sS'AATTCG'
p1973
I648
sS'TCCGAT'
p1974
I90
sS'ACATAC'
p1975
I791
sS'NNNGAT'
p1976
I1
sS'TAGCGG'
p1977
I757
sS'AATTCT'
p1978
I2057
sS'TAGCGC'
p1979
I665
sS'GTCATC'
p1980
I2974
sS'GTCATA'
p1981
I5237
sS'GTCATG'
p1982
I7394
sS'AGCAGG'
p1983
I10357
sS'CCAGGT'
p1984
I670
sS'TTGGAA'
p1985
I947
sS'AGCAGC'
p1986
I11173
sS'AGCAGA'
p1987
I8747
sS'GTCATT'
p1988
I1497
sS'CCAGGG'
p1989
I1219
sS'AGCAGT'
p1990
I3086
sS'CCAGGA'
p1991
I1302
sS'CCAGGC'
p1992
I1481
sS'AGCGCT'
p1993
I778
sS'ATAGAG'
p1994
I596
sS'CATCTG'
p1995
I10854
sS'GATCGG'
p1996
I856
sS'CATCTA'
p1997
I5447
sS'GATCGA'
p1998
I593
sS'CATCTC'
p1999
I4561
sS'GATCGC'
p2000
I1142
sS'ATTAGA'
p2001
I1505
sS'GGATGG'
p2002
I712
sS'CAAGCC'
p2003
I1464
sS'CATCTT'
p2004
I1732
sS'CAAGCA'
p2005
I1794
sS'CAAGCG'
p2006
I385
sS'GTTCTT'
p2007
I823
sS'ACATGA'
p2008
I1068
sS'CGTAAT'
p2009
I123
sS'ACATGC'
p2010
I1146
sS'ACATGG'
p2011
I1005
sS'CCCGCT'
p2012
I618
sS'GTACAT'
p2013
I252
sS'GGCCAT'
p2014
I474
sS'CGTAAG'
p2015
I558
sS'GTTCTG'
p2016
I5781
sS'ACATGT'
p2017
I871
sS'CGTAAC'
p2018
I482
sS'CGTAAA'
p2019
I503
sS'CCCGCG'
p2020
I1322
sS'ACGGAA'
p2021
I263
sS'GGATAC'
p2022
I255
sS'CCCGCC'
p2023
I6225
sS'AGACGC'
p2024
I404
sS'CCCGCA'
p2025
I1414
sS'AAACTA'
p2026
I2195
sS'AGCGCA'
p2027
I1545
sS'GTTGTT'
p2028
I483
sS'ATTAGC'
p2029
I1356
sS'ATCCTT'
p2030
I916
sS'TTGTCG'
p2031
I404
sS'TTGTCC'
p2032
I2705
sS'TTGTCA'
p2033
I4238
sS'ATCCTC'
p2034
I2446
sS'GTTGTA'
p2035
I1900
sS'ATCCTA'
p2036
I2859
sS'GTTGTC'
p2037
I795
sS'ATCCTG'
p2038
I5628
sS'GTTGTG'
p2039
I3199
sS'TTGTCT'
p2040
I2141
sS'ACCTCA'
p2041
I5274
sS'TCTTGC'
p2042
I3166
sS'TGGGCC'
p2043
I2304
sS'TGACTC'
p2044
I651
sS'TGGGCA'
p2045
I2406
sS'TGGGCG'
p2046
I805
sS'TGACTG'
p2047
I1599
sS'AAGCCG'
p2048
I1148
sS'AAGCCC'
p2049
I3988
sS'AAGCCA'
p2050
I5535
sS'CAAAAT'
p2051
I580
sS'CTATGG'
p2052
I1157
sS'TGGGCT'
p2053
I1046
sS'CAAAAC'
p2054
I2082
sS'CAAAAA'
p2055
I1720
sS'AAGCCT'
p2056
I1620
sS'CAAAAG'
p2057
I1975
sS'TGATTT'
p2058
I441
sS'TCAATG'
p2059
I1282
sS'AAACTT'
p2060
I519
sS'TCAATC'
p2061
I265
sS'TCAATA'
p2062
I1061
sS'CAGTTC'
p2063
I3187
sS'GACCCG'
p2064
I1980
sS'GACCCA'
p2065
I5615
sS'GACCCC'
p2066
I4264
sS'CTCTGT'
p2067
I5481
sS'TCAATT'
p2068
I288
sS'TGGCGT'
p2069
I256
sS'CTCTGC'
p2070
I15274
sS'GACCCT'
p2071
I1928
sS'CTCTGA'
p2072
I10633
sS'ACAATC'
p2073
I295
sS'CTCTGG'
p2074
I11528
sS'CAGTTT'
p2075
I1396
sS'GCGAAG'
p2076
I354
sS'CTACTC'
p2077
I609
sS'TGCTGG'
p2078
I9232
sS'TGCTGA'
p2079
I8274
sS'GAGTCT'
p2080
I2639
sS'TGCTGC'
p2081
I11165
sS'TAGGGA'
p2082
I2256
sS'GCTGGT'
p2083
I697
sS'GTGATT'
p2084
I615
sS'ACGTTA'
p2085
I566
sS'TGCTGT'
p2086
I4688
sS'GCGAAT'
p2087
I70
sS'TAATGG'
p2088
I1210
sS'ATGCGG'
p2089
I341
sS'GTGATG'
p2090
I4421
sS'GCTGGG'
p2091
I3095
sS'GTGATC'
p2092
I895
sS'GCTGGC'
p2093
I1740
sS'GTGATA'
p2094
I2436
sS'GCTGGA'
p2095
I1467
sS'TGATAA'
p2096
I490
sS'TGTAGT'
p2097
I1411
sS'TGATAC'
p2098
I372
sS'TGATAG'
p2099
I384
sS'CTTGTT'
p2100
I758
sS'GACGGT'
p2101
I586
sS'GCTAGG'
p2102
I1589
sS'GCTAGA'
p2103
I1216
sS'ATGAAT'
p2104
I547
sS'GCTAGC'
p2105
I1000
sS'ATAGGG'
p2106
I570
sS'TGATAT'
p2107
I261
sS'GTAGTG'
p2108
I1437
sS'GCTAGT'
p2109
I414
sS'ATGAAC'
p2110
I1344
sS'GACGGG'
p2111
I2979
sS'CTTGTG'
p2112
I4317
sS'GACGGA'
p2113
I1841
sS'CTTGTA'
p2114
I2648
sS'GACGGC'
p2115
I2397
sS'CTTGTC'
p2116
I1201
sS'GCACTT'
p2117
I343
sS'ATAGGC'
p2118
I590
sS'CTACTT'
p2119
I482
sS'CAACGT'
p2120
I117
sS'GGTGAA'
p2121
I1350
sS'GGTGAC'
p2122
I1746
sS'GCGTCT'
p2123
I278
sS'TGTAAA'
p2124
I4120
sS'GGTGAG'
p2125
I2220
sS'GGAATG'
p2126
I1493
sS'CGTCCT'
p2127
I354
sS'GGAATC'
p2128
I402
sS'GGAATA'
p2129
I833
sS'GCGTCA'
p2130
I560
sS'GCGTCC'
p2131
I850
sS'GGTGAT'
p2132
I415
sS'GCGTCG'
p2133
I228
sS'CGTCCG'
p2134
I430
sS'GGAATT'
p2135
I261
sS'CGTCCC'
p2136
I1140
sS'CGTCCA'
p2137
I665
sS'TTTCGA'
p2138
I550
sS'AGCTGT'
p2139
I3996
sS'ATGTTT'
p2140
I1176
sS'GCCGTG'
p2141
I2485
sS'GAAGTA'
p2142
I2776
sS'GCCGTC'
p2143
I950
sS'GCCGTA'
p2144
I881
sS'CCGTAC'
p2145
I145
sS'CCGTAA'
p2146
I134
sS'TTCGAA'
p2147
I570
sS'GCACTA'
p2148
I535
sS'CTAAAA'
p2149
I1256
sS'TTGGTG'
p2150
I3724
sS'GAAGTT'
p2151
I563
sS'GGCGCG'
p2152
I1663
sS'ATGCCC'
p2153
I1295
sS'TTAGTT'
p2154
I389
sS'ATGCCA'
p2155
I1798
sS'GGCGCC'
p2156
I2758
sS'TATTAA'
p2157
I5609
sS'GGCGCA'
p2158
I1473
sS'TATTAC'
p2159
I3623
sS'ACTATG'
p2160
I1765
sS'CAACGG'
p2161
I230
sS'TTTAAG'
p2162
I3830
sS'ACTATC'
p2163
I402
sS'TTTAAA'
p2164
I6442
sS'ACTATA'
p2165
I1349
sS'TTTAAC'
p2166
I2918
sS'TATTAT'
p2167
I2083
sS'TTAGTG'
p2168
I1677
sS'GACTGA'
p2169
I10076
sS'TTAGTC'
p2170
I492
sS'ATGCCT'
p2171
I760
sS'TTAGTA'
p2172
I1361
sS'TTTAAT'
p2173
I1060
sS'GCACTG'
p2174
I1279
sS'GGGCAT'
p2175
I319
sS'TTTCCG'
p2176
I635
sS'TTTCCA'
p2177
I2744
sS'TTTCCC'
p2178
I2769
sS'GTACGT'
p2179
I116
sS'GTTTGT'
p2180
I1583
sS'TTTCCT'
p2181
I1588
sS'GGGCAG'
p2182
I1727
sS'CCTGGA'
p2183
I1341
sS'GGGCAA'
p2184
I761
sS'GGGCAC'
p2185
I992
sS'GTTTGC'
p2186
I3327
sS'CTATTT'
p2187
I805
sS'GTTTGA'
p2188
I3114
sS'GTACGC'
p2189
I156
sS'GTACGA'
p2190
I118
sS'CCGCTC'
p2191
I499
sS'GCATGT'
p2192
I744
sS'CCGCTA'
p2193
I399
sS'CCGCTG'
p2194
I1156
sS'AGCATT'
p2195
I1422
sS'GCGCGG'
p2196
I663
sS'GCGCGC'
p2197
I841
sS'GCGCGA'
p2198
I241
sS'GCATGG'
p2199
I878
sS'GCATGC'
p2200
I968
sS'CAATAT'
p2201
I256
sS'TGACCT'
p2202
I369
sS'GTCGAC'
p2203
I439
sS'GTCGAA'
p2204
I360
sS'GTCGAG'
p2205
I651
sS'AGACAT'
p2206
I388
sS'GAGCTA'
p2207
I5720
sS'TGCGCT'
p2208
I511
sS'GAGCTC'
p2209
I4720
sS'ATTGAT'
p2210
I289
sS'GAGCTG'
p2211
I14051
sS'AAACGA'
p2212
I396
sS'AAACGC'
p2213
I547
sS'GTAACA'
p2214
I1539
sS'CACGCG'
p2215
I1024
sS'AAACGG'
p2216
I488
sS'TGTCCC'
p2217
I2321
sS'TGCGCG'
p2218
I997
sS'TGTCCA'
p2219
I2242
sS'GAGCTT'
p2220
I1466
sS'TGCGCC'
p2221
I1732
sS'ATTGAG'
p2222
I990
sS'TGCGCA'
p2223
I1419
sS'GCGCAG'
p2224
I487
sS'AAACGT'
p2225
I260
sS'TGGGTT'
p2226
I496
sS'ATTTCA'
p2227
I3688
sS'ATTTCC'
p2228
I2734
sS'ATCAGT'
p2229
I1420
sS'ATCGGG'
p2230
I424
sS'CATAGT'
p2231
I1063
sS'AAATCA'
p2232
I2046
sS'ATCGGC'
p2233
I407
sS'ATCGGA'
p2234
I266
sS'ATTTCT'
p2235
I1349
sS'CGATCA'
p2236
I125
sS'TGGGTC'
p2237
I1061
sS'TGGGTA'
p2238
I2350
sS'CATAGG'
p2239
I2432
sS'ATCGGT'
p2240
I113
sS'ATCAGG'
p2241
I3522
sS'CATAGC'
p2242
I2522
sS'CATAGA'
p2243
I2760
sS'ACGGGT'
p2244
I111
sS'CCTGGT'
p2245
I680
sS'GATTCT'
p2246
I2559
sS'CTTTTG'
p2247
I9011
sS'TACTAG'
p2248
I3657
sS'TACTAA'
p2249
I6136
sS'TACTAC'
p2250
I3856
sS'GATTCC'
p2251
I3762
sS'GATTCA'
p2252
I6341
sS'GATTCG'
p2253
I983
sS'ACGGGC'
p2254
I364
sS'TACTAT'
p2255
I1875
sS'CTTTTT'
p2256
I1892
sS'CGTAGA'
p2257
I519
sS'TCACGA'
p2258
I167
sS'TCACGC'
p2259
I284
sS'CGATTG'
p2260
I296
sS'TCACGG'
p2261
I267
sS'TCACGT'
p2262
I223
sS'TTCCAC'
p2263
I3665
sS'TTCCAA'
p2264
I3207
sS'TTCCAG'
p2265
I4250
sS'ACCCTT'
p2266
I810
sS'TGAAGT'
p2267
I938
sS'ATGCTT'
p2268
I661
sS'TTCCAT'
p2269
I1232
sS'TGAAGC'
p2270
I1850
sS'ACCCTC'
p2271
I2217
sS'TGAAGG'
p2272
I2092
sS'ACCCTG'
p2273
I5630
sS'CTGACT'
p2274
I1197
sS'ATAATC'
p2275
I404
sS'CCCCTT'
p2276
I1364
sS'AGTTAT'
p2277
I824
sS'ACATAT'
p2278
I500
sS'CTGACG'
p2279
I658
sS'CTGACC'
p2280
I2453
sS'CTGACA'
p2281
I2651
sS'AGTTAA'
p2282
I2941
sS'CCCCTG'
p2283
I7047
sS'AGTTAC'
p2284
I2327
sS'CCCCTC'
p2285
I4263
sS'AGTTAG'
p2286
I2136
sS'CCCCTA'
p2287
I3797
sS'ACACAG'
p2288
I969
sS'ACACAA'
p2289
I627
sS'ACACAC'
p2290
I1543
sS'AATGTT'
p2291
I952
sS'CTGCAG'
p2292
I2627
sS'CATGGG'
p2293
I2308
sS'CATGGA'
p2294
I1697
sS'CATGGC'
p2295
I2290
sS'AATGTC'
p2296
I1821
sS'ACACAT'
p2297
I560
sS'AATGTA'
p2298
I5157
sS'AATGTG'
p2299
I6947
sS'GCACAC'
p2300
I546
sS'CTGCAT'
p2301
I624
sS'GCACAG'
p2302
I670
sS'CCACAG'
p2303
I936
sS'CGAGAT'
p2304
I63
sS'ATTACT'
p2305
I654
sS'ACATTG'
p2306
I1292
sS'ACATTA'
p2307
I1370
sS'ACATTC'
p2308
I586
sS'ATTACA'
p2309
I1777
sS'GATACA'
p2310
I3441
sS'ATTACC'
p2311
I923
sS'CGAGAC'
p2312
I218
sS'GTTCGG'
p2313
I562
sS'AAGTCT'
p2314
I1995
sS'ACCCTA'
p2315
I2817
sS'ATGCTA'
p2316
I2483
sS'GGACAT'
p2317
I147
sS'CAGCGT'
p2318
I399
sS'GCTATA'
p2319
I1149
sS'GCTATC'
p2320
I375
sS'TCTATA'
p2321
I1828
sS'AAGTCA'
p2322
I6224
sS'GCTATG'
p2323
I1886
sS'GCTAAG'
p2324
I1541
sS'GGACAG'
p2325
I408
sS'GGACAC'
p2326
I383
sS'GGACAA'
p2327
I326
sS'CTAATT'
p2328
I463
sS'AGGGTT'
p2329
I613
sS'GAGGCG'
p2330
I3574
sS'TGTTGG'
p2331
I3868
sS'GAGGCA'
p2332
I7557
sS'TGTTGA'
p2333
I4391
sS'GAGGCC'
p2334
I8876
sS'TGTTGC'
p2335
I4447
sS'ACTCGA'
p2336
I360
sS'TAAAAT'
p2337
I970
sS'ACTCGC'
p2338
I560
sS'ACTCGG'
p2339
I634
sS'TGTTGT'
p2340
I2234
sS'GAGGCT'
p2341
I3127
sS'AGCGCC'
p2342
I2737
sS'AGGGTG'
p2343
I4635
sS'AGGGTA'
p2344
I2308
sS'AGCGCG'
p2345
I1523
sS'AGGGTC'
p2346
I986
sS'TAAAAG'
p2347
I2740
sS'ACTCGT'
p2348
I180
sS'TAAAAC'
p2349
I2457
sS'TAAAAA'
p2350
I2883
sS'ACGTTC'
p2351
I311
sS'AGCTGC'
p2352
I11233
sS'CTACTA'
p2353
I1059
sS'AGCTGA'
p2354
I8108
sS'ACGTTG'
p2355
I675
sS'AGCTGG'
p2356
I9328
sS'TAGGGG'
p2357
I2673
sS'AGTGCG'
p2358
I597
sS'AGTGCA'
p2359
I2635
sS'AGAGTT'
p2360
I442
sS'AGTGCC'
p2361
I2024
sS'CCAAAA'
p2362
I715
sS'TAGGGT'
p2363
I725
sS'GCTTGG'
p2364
I2523
sS'GTAACT'
p2365
I698
sS'ACGTTT'
p2366
I181
sS'AGTGCT'
p2367
I1077
sS'CGTTAC'
p2368
I540
sS'TCAAGA'
p2369
I1115
sS'AGAGTG'
p2370
I2333
sS'TAACCC'
p2371
I632
sS'GTTAAA'
p2372
I2588
sS'CCTGGC'
p2373
I1917
sS'GTTAAC'
p2374
I1607
sS'GTCTGT'
p2375
I3463
sS'CCTGGG'
p2376
I2503
sS'GTTAAG'
p2377
I2385
sS'CCGGTG'
p2378
I668
sS'TTCGTC'
p2379
I647
sS'CTAATC'
p2380
I447
sS'GTCTGG'
p2381
I7214
sS'GTCTGC'
p2382
I7375
sS'GTTAAT'
p2383
I541
sS'GTCTGA'
p2384
I6486
sS'CCGGTC'
p2385
I232
sS'GGAAGG'
p2386
I2960
sS'CCACAT'
p2387
I442
sS'GGAAGC'
p2388
I2108
sS'GCACCG'
p2389
I210
sS'GGAAGA'
p2390
I1926
sS'GCGTTA'
p2391
I469
sS'CAATGA'
p2392
I1133
sS'GCGTTC'
p2393
I367
sS'CAATGC'
p2394
I932
sS'AAACCG'
p2395
I277
sS'GCGTTG'
p2396
I807
sS'CAATGG'
p2397
I1033
sS'ATGCTG'
p2398
I4325
sS'GGAAGT'
p2399
I1307
sS'CCACAC'
p2400
I728
sS'CCACAA'
p2401
I657
sS'ATTTGT'
p2402
I1244
sS'TCCTCG'
p2403
I2020
sS'TGTATG'
p2404
I4459
sS'TCCTCA'
p2405
I9794
sS'TGTATA'
p2406
I3452
sS'TCCTCC'
p2407
I11584
sS'TGTATC'
p2408
I1149
sS'CGTTAG'
p2409
I563
sS'TAACCG'
p2410
I145
sS'TCATAG'
p2411
I482
sS'TTCGTG'
p2412
I1714
sS'TCATAA'
p2413
I571
sS'TTCGTA'
p2414
I1005
sS'TCATAC'
p2415
I541
sS'TAACCA'
p2416
I1324
sS'ACCGCT'
p2417
I286
sS'TCGCGA'
p2418
I129
sS'AACCCA'
p2419
I5957
sS'TTCGTT'
p2420
I314
sS'TACCCT'
p2421
I1607
sS'TAACCT'
p2422
I383
sS'GTGAAG'
p2423
I2606
sS'GTGAAA'
p2424
I2626
sS'GTGAAC'
p2425
I1573
sS'CAATAG'
p2426
I506
sS'AACCCG'
p2427
I1289
sS'ACCGCG'
p2428
I660
sS'ACCGCA'
p2429
I946
sS'AACGAG'
p2430
I1192
sS'ACCGCC'
p2431
I1655
sS'CCGCCT'
p2432
I419
sS'AGGCTT'
p2433
I1016
sS'CCTTCT'
p2434
I1638
sS'GTTGCA'
p2435
I1469
sS'TGTCGC'
p2436
I1015
sS'GTTGCC'
p2437
I1375
sS'GTGCCG'
p2438
I718
sS'GTGCCA'
p2439
I2900
sS'GTTGCG'
p2440
I305
sS'GTGCCC'
p2441
I2545
sS'CCGCCG'
p2442
I545
sS'AGGCTA'
p2443
I2940
sS'CCTTCC'
p2444
I4110
sS'AGGCTC'
p2445
I2370
sS'CCGCCC'
p2446
I1759
sS'TGTCGA'
p2447
I446
sS'CCGCCA'
p2448
I726
sS'AGGCTG'
p2449
I9011
sS'GTGCCT'
p2450
I1272
sS'GTTGCT'
p2451
I734
sS'GGATAT'
p2452
I168
sS'ATAGGT'
p2453
I375
sS'TCGGGT'
p2454
I136
sS'AAACCT'
p2455
I557
sS'GCAGTT'
p2456
I394
sS'GAAGCT'
p2457
I1076
sS'TCGCGT'
p2458
I77
sS'TCGGGC'
p2459
I401
sS'TCGGGA'
p2460
I288
sS'NNNNNG'
p2461
I1
sS'TCGGGG'
p2462
I515
sS'GGATAG'
p2463
I184
sS'GAAGCG'
p2464
I821
sS'ATGTGG'
p2465
I3343
sS'GCAGTG'
p2466
I1782
sS'GAAGCC'
p2467
I3073
sS'GCAGTA'
p2468
I822
sS'GAAGCA'
p2469
I3222
sS'GCAGTC'
p2470
I427
sS'GAGAGC'
p2471
I7476
sS'GAGAGA'
p2472
I10838
sS'GTTCAT'
p2473
I578
sS'GAGAGG'
p2474
I12412
sS'CGCCCA'
p2475
I2161
sS'ACGTAA'
p2476
I211
sS'GCATTG'
p2477
I1267
sS'NNNNNN'
p2478
I4
sS'GCATTC'
p2479
I443
sS'GCATTA'
p2480
I1010
sS'CTCGCA'
p2481
I1303
sS'ACGTAC'
p2482
I192
sS'CTCGCG'
p2483
I1107
sS'AAACAT'
p2484
I615
sS'GCATTT'
p2485
I451
sS'AACTGA'
p2486
I10501
sS'GCCGGG'
p2487
I3110
sS'TACCCG'
p2488
I873
sS'GCCGGC'
p2489
I2216
sS'CATGTT'
p2490
I968
sS'GCCGGA'
p2491
I1229
sS'AGATCT'
p2492
I471
sS'AGTTTA'
p2493
I5964
sS'TACCCA'
p2494
I4795
sS'CATGTA'
p2495
I4612
sS'CATGTC'
p2496
I1760
sS'GCCGGT'
p2497
I311
sS'CATGTG'
p2498
I7601
sS'GGCCTG'
p2499
I8909
sS'GGCCTC'
p2500
I4476
sS'GGCCTA'
p2501
I3174
sS'TTTGTT'
p2502
I979
sS'AATCGG'
p2503
I890
sS'ATGGCG'
p2504
I475
sS'AATCGC'
p2505
I1015
sS'AATCGA'
p2506
I711
sS'GTTCAG'
p2507
I2121
sS'GGCCTT'
p2508
I1103
sS'TCACTA'
p2509
I968
sS'CAGCGA'
p2510
I858
sS'AATCGT'
p2511
I329
sS'AGCCGA'
p2512
I1482
sS'GAGCGT'
p2513
I610
sS'AGCCGC'
p2514
I3278
sS'TAATTG'
p2515
I2181
sS'TAATTA'
p2516
I2752
sS'AGCCGG'
p2517
I2614
sS'GTTTTT'
p2518
I1260
sS'TGGTGA'
p2519
I2420
sS'TCTCAT'
p2520
I775
sS'TGGTGC'
p2521
I2486
sS'GATGGC'
p2522
I2965
sS'GGGCTG'
p2523
I6040
sS'TGGTGG'
p2524
I3324
sS'GATGGG'
p2525
I3778
sS'GTTTTC'
p2526
I3199
sS'GAGCGG'
p2527
I3070
sS'GGGCTC'
p2528
I1753
sS'GTTTTG'
p2529
I8156
sS'AGCCGT'
p2530
I569
sS'GAGCGC'
p2531
I3074
sS'TGACAG'
p2532
I713
sS'CCAAGG'
p2533
I1262
sS'ACGTAT'
p2534
I107
sS'TCTCAG'
p2535
I2876
sS'CCAAGC'
p2536
I1061
sS'TGGTGT'
p2537
I1575
sS'GGGCTT'
p2538
I646
sS'ATTCGT'
p2539
I136
sS'AGAACT'
p2540
I861
sS'GCGTTT'
p2541
I163
sS'CCTTCG'
p2542
I821
sS'TACCAT'
p2543
I1120
sS'CCTATT'
p2544
I425
sS'CACTGT'
p2545
I4363
sS'ACCCGA'
p2546
I629
sS'ATGTCT'
p2547
I1453
sS'ACCCGC'
p2548
I1326
sS'ACCAGT'
p2549
I1065
sS'TACCAC'
p2550
I3809
sS'AGAACG'
p2551
I449
sS'TACCAA'
p2552
I3351
sS'AGAACA'
p2553
I2456
sS'TACCAG'
p2554
I3492
sS'AGAACC'
p2555
I1552
sS'ACCAGC'
p2556
I4192
sS'CACTGG'
p2557
I8314
sS'ACCAGA'
p2558
I3467
sS'TGACAA'
p2559
I499
sS'ACCAGG'
p2560
I4056
sS'CACTGC'
p2561
I12060
sS'CCTATC'
p2562
I461
sS'CACTGA'
p2563
I9332
sS'TAGGTT'
p2564
I623
sS'GTTTAC'
p2565
I1705
sS'AATTAT'
p2566
I1236
sS'CTGTTG'
p2567
I7137
sS'TGCTAT'
p2568
I1561
sS'CTGTTC'
p2569
I3252
sS'CGGGTT'
p2570
I154
sS'CTGTTA'
p2571
I5791
sS'AATTAC'
p2572
I3040
sS'TACATG'
p2573
I8377
sS'AATTAA'
p2574
I4359
sS'AATTAG'
p2575
I3133
sS'TAGGTC'
p2576
I1367
sS'CGGGTC'
p2577
I474
sS'CTGTTT'
p2578
I2164
sS'CGGGTA'
p2579
I503
sS'CGGGTG'
p2580
I1342
sS'TGCCAG'
p2581
I3198
sS'ATTGTT'
p2582
I364
sS'AAGTAA'
p2583
I2933
sS'CATTAC'
p2584
I2927
sS'TTAGGG'
p2585
I935
sS'ATATAT'
p2586
I590
sS'AGCAAC'
p2587
I5059
sS'TTAGGC'
p2588
I693
sS'AAAGCT'
p2589
I954
sS'AGCAAG'
p2590
I7201
sS'AAAGCA'
p2591
I3489
sS'AAAGCC'
p2592
I2407
sS'TTAGGT'
p2593
I450
sS'GAGTCG'
p2594
I1359
sS'AGCAAT'
p2595
I1460
sS'ATATAC'
p2596
I699
sS'TACTTC'
p2597
I6922
sS'TACTTA'
p2598
I9524
sS'TACTTG'
p2599
I9172
sS'ATAGCG'
p2600
I131
sS'TCTCAC'
p2601
I2115
sS'CAGCAT'
p2602
I704
sS'TGCTAA'
p2603
I5432
sS'ACGGCT'
p2604
I136
sS'ATAGCT'
p2605
I447
sS'TACTTT'
p2606
I4625
sS'CGAGTT'
p2607
I71
sS'TCCAAT'
p2608
I724
sS'CGTACT'
p2609
I185
sS'TCCCGT'
p2610
I462
sS'TATGCT'
p2611
I1185
sS'CTTAAG'
p2612
I2268
sS'ACATAA'
p2613
I683
sS'CTTAAA'
p2614
I2912
sS'ACATAG'
p2615
I484
sS'CTTAAC'
p2616
I2005
sS'TCCAAG'
p2617
I3296
sS'CGAGTG'
p2618
I410
sS'CGAGTA'
p2619
I203
sS'CGTACG'
p2620
I191
sS'AGGGGA'
p2621
I2916
sS'CTTAAT'
p2622
I571
sS'AGGGGC'
p2623
I2791
sS'TATGCA'
p2624
I3927
sS'AGGGGG'
p2625
I2549
sS'TCATTA'
p2626
I1918
sS'CGACTT'
p2627
I77
sS'TCCTGA'
p2628
I6198
sS'TTGTAA'
p2629
I1556
sS'TTGTAC'
p2630
I1283
sS'GTACCT'
p2631
I328
sS'TTGTAG'
p2632
I1451
sS'TGAATC'
p2633
I641
sS'ACAACA'
p2634
I1357
sS'TGAATA'
p2635
I1911
sS'CGACTC'
p2636
I152
sS'TGAATG'
p2637
I2819
sS'AAGTAT'
p2638
I873
sS'CGGCTG'
p2639
I2250
sS'TTGTAT'
p2640
I772
sS'ATCGTG'
p2641
I938
sS'GCTTCG'
p2642
I728
sS'GCTTCA'
p2643
I3106
sS'ATCGTA'
p2644
I508
sS'TGGGAG'
p2645
I1861
sS'TGGGAA'
p2646
I1188
sS'TGGGAC'
p2647
I1301
sS'GCTTCT'
p2648
I1392
sS'ATCGTT'
p2649
I122
sS'ACAACG'
p2650
I183
sS'TGGGAT'
p2651
I303
sS'TCTGCG'
p2652
I687
sS'CTAGCC'
p2653
I1011
sS'CTAGCA'
p2654
I1268
sS'CTAGCG'
p2655
I263
sS'CGCATT'
p2656
I230
sS'ACTTAG'
p2657
I1306
sS'ACTTAA'
p2658
I1854
sS'CGGTAC'
p2659
I223
sS'TACACT'
p2660
I2828
sS'CGGTAA'
p2661
I206
sS'GACCAG'
p2662
I5374
sS'GACCAC'
p2663
I4890
sS'GACCAA'
p2664
I4622
sS'TACACC'
p2665
I3842
sS'CGGTAT'
p2666
I86
sS'TACACA'
p2667
I9128
sS'TACACG'
p2668
I1321
sS'GCGAGA'
p2669
I489
sS'CGCCCG'
p2670
I1463
sS'GCGAGC'
p2671
I632
sS'GGCCGT'
p2672
I437
sS'GCGAGG'
p2673
I1027
sS'CAGCCG'
p2674
I1111
sS'CAGCCA'
p2675
I4821
sS'GGTATT'
p2676
I324
sS'CAGCCC'
p2677
I4317
sS'GCGAGT'
p2678
I177
sS'CGCCCC'
p2679
I4413
sS'TTACGT'
p2680
I145
sS'GAACTC'
p2681
I870
sS'GAACTA'
p2682
I1779
sS'GGACTT'
p2683
I250
sS'CACCTA'
p2684
I6047
sS'AACTAT'
p2685
I1489
sS'CACCTC'
p2686
I6418
sS'CACCTG'
p2687
I11979
sS'TGATCC'
p2688
I433
sS'AACACT'
p2689
I3353
sS'TGATCA'
p2690
I762
sS'TGATCG'
p2691
I95
sS'AACTAG'
p2692
I4204
sS'GGACTG'
p2693
I824
sS'CACCTT'
p2694
I1860
sS'AACTAC'
p2695
I4537
sS'AACTAA'
p2696
I6064
sS'AACGAT'
p2697
I187
sS'AACACG'
p2698
I1733
sS'AACACA'
p2699
I10556
sS'AACACC'
p2700
I5949
sS'TGATCT'
p2701
I381
sS'AAAGAC'
p2702
I1751
sS'CTATAC'
p2703
I506
sS'CAACAG'
p2704
I781
sS'GACAGT'
p2705
I3723
sS'CAACAA'
p2706
I666
sS'AAAGAA'
p2707
I3040
sS'CAACAC'
p2708
I707
sS'GCTGAT'
p2709
I387
sS'CTATAA'
p2710
I723
sS'GACAGG'
p2711
I12228
sS'AAAGAG'
p2712
I2521
sS'GACAGC'
p2713
I10952
sS'GACAGA'
p2714
I12473
sS'GTATTA'
p2715
I2270
sS'GTATTC'
p2716
I691
sS'GTAAGT'
p2717
I724
sS'CCAGCG'
p2718
I420
sS'GTATTG'
p2719
I2048
sS'GGTGGC'
p2720
I1955
sS'TCCCCT'
p2721
I2205
sS'GGTGGA'
p2722
I1584
sS'TATCTT'
p2723
I1696
sS'GGTGGG'
p2724
I2641
sS'ATCCCT'
p2725
I897
sS'AGAGGC'
p2726
I1846
sS'GTAAGA'
p2727
I1574
sS'AGAGGA'
p2728
I2107
sS'CTCGCC'
p2729
I2649
sS'AGAGGG'
p2730
I1795
sS'ACCGAG'
p2731
I737
sS'GTAAGG'
p2732
I1401
sS'TATCTA'
p2733
I5484
sS'CGTCAC'
p2734
I975
sS'TCCCCC'
p2735
I3258
sS'GGTGGT'
p2736
I639
sS'TCCCCA'
p2737
I5608
sS'GTCCGG'
p2738
I1605
sS'GTCGCA'
p2739
I803
sS'GTCGCC'
p2740
I1602
sS'CCGTCT'
p2741
I298
sS'CAAAGT'
p2742
I877
sS'GAGAGT'
p2743
I2172
sS'TCGGTG'
p2744
I577
sS'GTCGCT'
p2745
I476
sS'CCGTCG'
p2746
I199
sS'CCGTCA'
p2747
I452
sS'CCGTCC'
p2748
I732
sS'GGCTGT'
p2749
I2852
sS'CGCGTG'
p2750
I1911
sS'ACGCAT'
p2751
I77
sS'CGCGTC'
p2752
I1018
sS'CGCGTA'
p2753
I627
sS'CCACTG'
p2754
I1544
sS'CCACTA'
p2755
I732
sS'ATGCAC'
p2756
I908
sS'CGCGTT'
p2757
I179
sS'GGCTGG'
p2758
I9101
sS'GGCTGA'
p2759
I6365
sS'GGCTGC'
p2760
I9887
sS'CCACTT'
p2761
I442
sS'CCTACC'
p2762
I1394
sS'ATGACG'
p2763
I431
sS'GGAGTT'
p2764
I249
sS'ATGACA'
p2765
I2216
sS'ATGACC'
p2766
I1311
sS'GGACCG'
p2767
I158
sS'CCTGAT'
p2768
I346
sS'GGGCCT'
p2769
I808
sS'ATGACT'
p2770
I953
sS'GGAGTA'
p2771
I649
sS'GGAGTC'
p2772
I430
sS'GGAGTG'
p2773
I1288
sS'GGGCCG'
p2774
I848
sS'GGGCCC'
p2775
I1818
sS'GGGCCA'
p2776
I1579
sS'CTGATC'
p2777
I770
sS'ACGAGT'
p2778
I126
sS'AGGCCA'
p2779
I2920
sS'AGGCCC'
p2780
I2673
sS'AGGCCG'
p2781
I961
sS'ACGAGG'
p2782
I565
sS'AGTATC'
p2783
I934
sS'ACGAGC'
p2784
I342
sS'ACGAGA'
p2785
I330
sS'CTGATG'
p2786
I3956
sS'AGGCCT'
p2787
I1235
sS'ACATCT'
p2788
I600
sS'GGGTTG'
p2789
I3413
sS'TTTGGG'
p2790
I1976
sS'GGGTTA'
p2791
I2428
sS'GGGTTC'
p2792
I1313
sS'TTTGAT'
p2793
I527
sS'ATTCGA'
p2794
I367
sS'CTACGA'
p2795
I161
sS'ATTGCT'
p2796
I524
sS'GGGTTT'
p2797
I801
sS'TGCGAC'
p2798
I615
sS'AGAAAT'
p2799
I773
sS'TGCGAG'
p2800
I965
sS'AACGGC'
p2801
I1289
sS'TTTGAG'
p2802
I2483
sS'AACGGA'
p2803
I1150
sS'GACTAG'
p2804
I4542
sS'AACGGG'
p2805
I1231
sS'TTTGAC'
p2806
I1677
sS'TTTGAA'
p2807
I2485
sS'CCTGAC'
p2808
I1206
sS'CTCGTA'
p2809
I951
sS'CTCGTC'
p2810
I958
sS'CCCTGG'
p2811
I6253
sS'CCCTGA'
p2812
I4633
sS'CTCGTG'
p2813
I2100
sS'CCCTGC'
p2814
I8137
sS'GCAGCA'
p2815
I1564
sS'CCCTGT'
p2816
I2126
sS'AAGCTC'
p2817
I3165
sS'GATATA'
p2818
I3294
sS'AAGCTA'
p2819
I5085
sS'GATATG'
p2820
I4115
sS'AAGCTG'
p2821
I9826
sS'TGACGC'
p2822
I278
sS'TACTCT'
p2823
I3934
sS'CATCGT'
p2824
I322
sS'GATGGT'
p2825
I963
sS'CAGGGT'
p2826
I964
sS'GCTAAT'
p2827
I338
sS'CCAGTC'
p2828
I542
sS'TACGAT'
p2829
I173
sS'CCAGTG'
p2830
I1508
sS'TACTCG'
p2831
I1269
sS'CATCGA'
p2832
I653
sS'CATCGC'
p2833
I1085
sS'TACTCC'
p2834
I4993
sS'NGAATT'
p2835
I2
sS'TACTCA'
p2836
I9998
sS'CATCGG'
p2837
I686
sS'CAGGGG'
p2838
I3372
sS'CAGGGA'
p2839
I3237
sS'CAGGGC'
p2840
I4162
sS'AATCTG'
p2841
I6765
sS'TACAAT'
p2842
I1831
sS'AGGTAG'
p2843
I1306
sS'AGTCGA'
p2844
I539
sS'AATCTA'
p2845
I4555
sS'TGAACG'
p2846
I295
sS'TCACAC'
p2847
I739
sS'TCACAA'
p2848
I527
sS'TCACAG'
p2849
I886
sS'GCCATA'
p2850
I2790
sS'CGGACG'
p2851
I367
sS'GCCATC'
p2852
I1994
sS'CGGACA'
p2853
I502
sS'CGGACC'
p2854
I715
sS'GCCATG'
p2855
I5673
sS'CTTACC'
p2856
I1746
sS'TCACAT'
p2857
I448
sS'ACATCA'
p2858
I1124
sS'ATTAAC'
p2859
I1622
sS'ATTAAA'
p2860
I2538
sS'ATTAAG'
p2861
I1845
sS'TTTTAC'
p2862
I2578
sS'TCACTT'
p2863
I577
sS'ATCCAG'
p2864
I1570
sS'GTGCAG'
p2865
I2019
sS'ATTAAT'
p2866
I537
sS'TACCTG'
p2867
I7635
sS'GGTATG'
p2868
I1821
sS'GGTATA'
p2869
I1277
sS'GGTATC'
p2870
I519
sS'TACCTA'
p2871
I5814
sS'ACGAAT'
p2872
I64
sS'CTGAAA'
p2873
I2564
sS'CTGAAC'
p2874
I1705
sS'GGAACC'
p2875
I1053
sS'CTGAAG'
p2876
I2647
sS'ATTGTA'
p2877
I1698
sS'NNNNGA'
p2878
I3
sS'TAGGTA'
p2879
I3112
sS'CATTGC'
p2880
I4786
sS'CCCGGC'
p2881
I2504
sS'CATTGA'
p2882
I3862
sS'CTAGTT'
p2883
I359
sS'CATTGG'
p2884
I4416
sS'TCAACT'
p2885
I427
sS'ACCATC'
p2886
I1472
sS'ACACCG'
p2887
I167
sS'CTGCCA'
p2888
I4165
sS'CTGCCC'
p2889
I4268
sS'ACACCC'
p2890
I736
sS'ACACCA'
p2891
I841
sS'CTGCCG'
p2892
I1057
sS'CTAGTG'
p2893
I1572
sS'TCAACC'
p2894
I766
sS'ATGTTC'
p2895
I1698
sS'CTAGTC'
p2896
I550
sS'TCAACG'
p2897
I155
sS'CTAGTA'
p2898
I1111
sS'CATTGT'
p2899
I2239
sS'TATGAC'
p2900
I2336
sS'ACACCT'
p2901
I472
sS'CTGCCT'
p2902
I2020
sS'CCTCGT'
p2903
I250
sS'TATGAA'
p2904
I2959
sS'AGACTG'
p2905
I1728
sS'AGACTC'
p2906
I648
sS'AGACTA'
p2907
I949
sS'CCTCGG'
p2908
I1093
sS'CCTCGC'
p2909
I1227
sS'CCCGAC'
p2910
I804
sS'CCTCGA'
p2911
I497
sS'CGAGGA'
p2912
I344
sS'CGAGGC'
p2913
I517
sS'CGAGGG'
p2914
I445
sS'ACTTTC'
p2915
I2355
sS'ACTTTA'
p2916
I3987
sS'ACTTTG'
p2917
I4830
sS'GACCTG'
p2918
I10606
sS'GTCGCG'
p2919
I686
sS'GACCTA'
p2920
I5484
sS'GACCTC'
p2921
I5727
sS'CACCGG'
p2922
I1703
sS'GCATAG'
p2923
I328
sS'CACCGA'
p2924
I1214
sS'CACCGC'
p2925
I3190
sS'CTATAT'
p2926
I398
sS'GACCTT'
p2927
I2334
sS'GGACGC'
p2928
I326
sS'GGACGG'
p2929
I263
sS'CTATTA'
p2930
I2491
sS'CACAGC'
p2931
I11629
sS'CTTATC'
p2932
I873
sS'CACAGA'
p2933
I10813
sS'CTTATA'
p2934
I2151
sS'CACAGG'
p2935
I10711
sS'CTTATG'
p2936
I2640
sS'ACTCAT'
p2937
I671
sS'GAGGAG'
p2938
I8555
sS'GACGTA'
p2939
I1571
sS'CGTATC'
p2940
I204
sS'GACGTC'
p2941
I1806
sS'GAGGAC'
p2942
I4117
sS'CGTATG'
p2943
I619
sS'GACGTG'
p2944
I4069
sS'TTAACA'
p2945
I1846
sS'ACTCAC'
p2946
I1603
sS'TTAACC'
p2947
I1241
sS'ACTCAA'
p2948
I1481
sS'ACTCAG'
p2949
I2106
sS'CTTATT'
p2950
I712
sS'CACAGT'
p2951
I3611
sS'AGCGAC'
p2952
I984
sS'TAAACA'
p2953
I3247
sS'AGCGAA'
p2954
I868
sS'TAAACC'
p2955
I1683
sS'AGCGAG'
p2956
I1815
sS'TCTAAA'
p2957
I1924
sS'TAAACG'
p2958
I415
sS'AGTTCC'
p2959
I3758
sS'GTATGT'
p2960
I884
sS'AGTTCA'
p2961
I5037
sS'CTGTGC'
p2962
I5668
sS'CTGTGA'
p2963
I4329
sS'CGGGGT'
p2964
I315
sS'TAGGAC'
p2965
I1511
sS'GCAAAG'
p2966
I1020
sS'CCCGGT'
p2967
I310
sS'GCAAAA'
p2968
I750
sS'TAGGAG'
p2969
I2202
sS'GCAAAC'
p2970
I736
sS'CGGGGC'
p2971
I1762
sS'CGGGGA'
p2972
I887
sS'CTGTGT'
p2973
I3176
sS'CGGGGG'
p2974
I1079
sS'GTATGC'
p2975
I943
sS'AGCTCG'
p2976
I1797
sS'GCAAAT'
p2977
I465
sS'CGAGAA'
p2978
I200
sS'TAGGAT'
p2979
I404
sS'AAAAAT'
p2980
I897
sS'TTCAAT'
p2981
I1648
sS'TGCTTT'
p2982
I4770
sS'GTCTAT'
p2983
I1052
sS'CCGTAT'
p2984
I76
sS'GTAATT'
p2985
I408
sS'GTTACC'
p2986
I1350
sS'GTTACA'
p2987
I1742
sS'TAATTC'
p2988
I797
sS'TATCGA'
p2989
I492
sS'TATCGC'
p2990
I616
sS'TATAGT'
p2991
I1406
sS'GTCTAA'
p2992
I3654
sS'TGCTTA'
p2993
I10089
sS'TTCAAG'
p2994
I7054
sS'TGCTTC'
p2995
I8665
sS'TTCAAA'
p2996
I8794
sS'TTCAAC'
p2997
I4965
sS'TGCTTG'
p2998
I11994
sS'TATAGC'
p2999
I2570
sS'TATCGT'
p3000
I244
sS'TATAGA'
p3001
I3399
sS'AGCTCA'
p3002
I9219
sS'TATAGG'
p3003
I2571
sS'GTTACT'
p3004
I783
sS'GGAAAA'
p3005
I1033
sS'GGAAAC'
p3006
I1348
sS'GGGCTA'
p3007
I1788
sS'GCTCTG'
p3008
I6923
sS'CCACGT'
p3009
I221
sS'GGAAAG'
p3010
I1524
sS'AGGACC'
p3011
I2468
sS'GAATGG'
p3012
I1922
sS'GAATGA'
p3013
I1935
sS'ACTACT'
p3014
I461
sS'GAATGC'
p3015
I1529
sS'CCACGA'
p3016
I179
sS'AACCTG'
p3017
I8904
sS'CCACGC'
p3018
I351
sS'GGCGTA'
p3019
I850
sS'GGCGTG'
p3020
I3449
sS'CCACGG'
p3021
I297
sS'AACCTA'
p3022
I5972
sS'GGCTTA'
p3023
I5661
sS'ACTACC'
p3024
I891
sS'GGCTTC'
p3025
I6518
sS'ACTACA'
p3026
I1592
sS'ACTACG'
p3027
I303
sS'GGCTTG'
p3028
I8698
sS'TCCTAG'
p3029
I2891
sS'AAAAAA'
p3030
I5460
sS'CGTTGC'
p3031
I1138
sS'TAACAC'
p3032
I766
sS'TCCTAC'
p3033
I2765
sS'AGTCAC'
p3034
I3604
sS'TCCTAA'
p3035
I3317
sS'TAACAG'
p3036
I926
sS'TCATCG'
p3037
I175
sS'AAGCGT'
p3038
I401
sS'TCATCC'
p3039
I834
sS'GTTTTA'
p3040
I6818
sS'CTTTCT'
p3041
I2717
sS'AGTCAT'
p3042
I1238
sS'TCCTAT'
p3043
I1053
sS'TAACAT'
p3044
I346
sS'CGTTGT'
p3045
I375
sS'CTTTCC'
p3046
I4871
sS'CTTTCA'
p3047
I6347
sS'CTTTCG'
p3048
I913
sS'GCGGGT'
p3049
I203
sS'AAAAAG'
p3050
I3184
sS'GTTGAT'
p3051
I327
sS'CGACCA'
p3052
I156
sS'CGACCC'
p3053
I203
sS'GCATAC'
p3054
I326
sS'CGACCG'
p3055
I93
sS'CCTTAT'
p3056
I531
sS'GTTGAC'
p3057
I970
sS'GTTGAA'
p3058
I1313
sS'ACTGGG'
p3059
I1545
sS'GTTGAG'
p3060
I1541
sS'CCTTAC'
p3061
I1164
sS'TTCGAT'
p3062
I152
sS'CCTTAA'
p3063
I1447
sS'CCTTAG'
p3064
I1333
sS'CGACCT'
p3065
I87
sS'AATAGA'
p3066
I4375
sS'AATAGC'
p3067
I3154
sS'CAACTG'
p3068
I1425
sS'AATAGG'
p3069
I3260
sS'TCTCAA'
p3070
I2191
sS'GGGGTT'
p3071
I437
sS'GCCATT'
p3072
I834
sS'GGATGT'
p3073
I542
sS'AATAGT'
p3074
I1352
sS'GCAGCC'
p3075
I1542
sS'CAACTT'
p3076
I379
sS'ACTGTA'
p3077
I2457
sS'TATGAT'
p3078
I668
sS'GGGGTG'
p3079
I3592
sS'GGATGA'
p3080
I519
sS'GGGGTC'
p3081
I640
sS'GGGGTA'
p3082
I1273
sS'TCTCCG'
p3083
I621
sS'GAGTCC'
p3084
I4967
sS'GAGTCA'
p3085
I8814
sS'TCTCCC'
p3086
I1837
sS'CCCTTT'
p3087
I2587
sS'TCTCCA'
p3088
I2026
sS'AAACTC'
p3089
I911
sS'CTATGA'
p3090
I1173
sS'AGTACG'
p3091
I366
sS'ACGCGC'
p3092
I318
sS'AGTACC'
p3093
I1439
sS'ACGCGG'
p3094
I271
sS'AGTACA'
p3095
I2340
sS'CCCTTA'
p3096
I5784
sS'CCCTTC'
p3097
I6247
sS'TCTCCT'
p3098
I965
sS'CCCTTG'
p3099
I8337
sS'AGCAAA'
p3100
I6988
sS'AGTACT'
p3101
I889
sS'ACGCGT'
p3102
I80
sS'GCCGAA'
p3103
I531
sS'GTGGAG'
p3104
I2204
sS'GCCGAC'
p3105
I911
sS'GTGGAC'
p3106
I1090
sS'GCCGAG'
p3107
I1649
sS'GTGGAA'
p3108
I1482
sS'GGGTGA'
p3109
I1958
sS'GTGGAT'
p3110
I328
sS'GCCGAT'
p3111
I113
sS'AGATAG'
p3112
I461
sS'ACCCGG'
p3113
I1278
sS'GTAGTC'
p3114
I528
sS'AAATCG'
p3115
I218
sS'GTAGTA'
p3116
I1035
sS'TTATCG'
p3117
I149
sS'CACGCA'
p3118
I2317
sS'AAATCC'
p3119
I1049
sS'CACGCC'
p3120
I3135
sS'AAAGTA'
p3121
I2626
sS'CTACGT'
p3122
I144
sS'CTTTGA'
p3123
I4627
sS'AGATAC'
p3124
I675
sS'CACGCT'
p3125
I729
sS'AAATCT'
p3126
I655
sS'ACCGAT'
p3127
I88
sS'GTAGTT'
p3128
I377
sS'AGATAA'
p3129
I724
sS'CGTTAT'
p3130
I179
sS'GATGAT'
p3131
I831
sS'TATCCC'
p3132
I1638
sS'GGAGCA'
p3133
I922
sS'GGAGCC'
p3134
I1151
sS'CCGGCT'
p3135
I312
sS'CCAAAT'
p3136
I351
sS'GGAGCG'
p3137
I409
sS'AAAACT'
p3138
I1014
sS'GATGAC'
p3139
I3501
sS'GATGAA'
p3140
I3646
sS'GCTCTT'
p3141
I702
sS'GATGAG'
p3142
I4623
sS'AAAACC'
p3143
I2404
sS'AAAACA'
p3144
I4778
sS'AAAACG'
p3145
I491
sS'GGAGCT'
p3146
I472
sS'CCAAAG'
p3147
I839
sS'TCGCGG'
p3148
I281
sS'CTAGAG'
p3149
I874
sS'TCGCGC'
p3150
I306
sS'CTACCG'
p3151
I205
sS'GCCACA'
p3152
I5408
sS'AGATCA'
p3153
I1129
sS'GCCACC'
p3154
I5127
sS'AGATCC'
p3155
I597
sS'CGACGG'
p3156
I116
sS'GCCACG'
p3157
I1685
sS'AGATCG'
p3158
I169
sS'ATGTCA'
p3159
I3473
sS'TTTGGT'
p3160
I727
sS'GTGCAA'
p3161
I1019
sS'ACCCGT'
p3162
I237
sS'AGAAAG'
p3163
I3001
sS'CGACGA'
p3164
I50
sS'CGGTCG'
p3165
I249
sS'AGAAAC'
p3166
I2406
sS'GCCACT'
p3167
I1726
sS'AGAAAA'
p3168
I2443
sS'TACCCC'
p3169
I2791
sS'ATGTAC'
p3170
I1057
sS'ACTTCG'
p3171
I504
sS'ATGTAA'
p3172
I1425
sS'ATGTAG'
p3173
I996
sS'CCTATA'
p3174
I1098
sS'CGAAGT'
p3175
I159
sS'GTTCCG'
p3176
I458
sS'GACGAC'
p3177
I1354
sS'ATGTCG'
p3178
I319
sS'ATGTAT'
p3179
I666
sS'GTTCCA'
p3180
I1553
sS'ACTTCA'
p3181
I2986
sS'ATCCAT'
p3182
I444
sS'AGCACT'
p3183
I2864
sS'TTAGAA'
p3184
I1016
sS'CCCAAC'
p3185
I2553
sS'TTAGAC'
p3186
I482
sS'CGGCTC'
p3187
I1040
sS'TTAGAG'
p3188
I861
sS'CGGCTA'
p3189
I623
sS'AGCACC'
p3190
I5741
sS'AGCACA'
p3191
I7587
sS'AGCACG'
p3192
I1748
sS'CGGCTT'
p3193
I272
sS'CGCCCT'
p3194
I907
sS'TTAGAT'
p3195
I273
sS'CCAGCA'
p3196
I1673
sS'ACCTAT'
p3197
I558
sS'CCAGCC'
p3198
I1629
sS'ATATCC'
p3199
I704
sS'ATATCA'
p3200
I1118
sS'CGACGT'
p3201
I46
sS'TTATTT'
p3202
I1062
sS'TGTGAG'
p3203
I3487
sS'TGTGAA'
p3204
I2790
sS'GGGAGG'
p3205
I7113
sS'TGTGAC'
p3206
I2915
sS'CTATGC'
p3207
I1128
sS'ATATCT'
p3208
I606
sS'CCAGCT'
p3209
I769
sS'AAAGAT'
p3210
I576
sS'TGTGAT'
p3211
I730
sS'TTATTG'
p3212
I2746
sS'TTATTA'
p3213
I3311
sS'CATGAT'
p3214
I578
sS'TTATTC'
p3215
I981
sS'AGACGG'
p3216
I354
sS'TTTTAT'
p3217
I1264
sS'TACAAG'
p3218
I5580
sS'TCCACT'
p3219
I1793
sS'TACAAA'
p3220
I8159
sS'AGACGA'
p3221
I202
sS'TACAAC'
p3222
I4370
sS'CCTCTG'
p3223
I6742
sS'AGGTGG'
p3224
I3810
sS'CCTCTC'
p3225
I2557
sS'AGGTGC'
p3226
I2921
sS'CCTCTA'
p3227
I2836
sS'AGGTGA'
p3228
I2813
sS'CTTACG'
p3229
I405
sS'TCCACA'
p3230
I4409
sS'TTTTAG'
p3231
I2825
sS'ACATCG'
p3232
I128
sS'TTTTAA'
p3233
I5714
sS'CCAAAC'
p3234
I690
sS'CTTACA'
p3235
I2047
sS'ACATCC'
p3236
I866
sS'AGGTGT'
p3237
I1557
sS'CCTCTT'
p3238
I1079
sS'GCGTGA'
p3239
I458
sS'TATGAG'
p3240
I2844
sS'CCCGGA'
p3241
I1082
sS'CCCGGG'
p3242
I2277
sS'TTGTGT'
p3243
I2163
sS'TGGAAT'
p3244
I631
sS'TAGGTG'
p3245
I4065
sS'TTGTGC'
p3246
I2756
sS'TTGTGA'
p3247
I2779
sS'TTGTGG'
p3248
I4151
sS'TTTTGA'
p3249
I4671
sS'TGGAAG'
p3250
I2660
sS'GGTTTT'
p3251
I1084
sS'TGGAAC'
p3252
I1606
sS'TGGAAA'
p3253
I2131
sS'TGAGGA'
p3254
I1264
sS'AAGAGG'
p3255
I8682
sS'TGAGGC'
p3256
I1285
sS'AAGAGA'
p3257
I7511
sS'AAGAGC'
p3258
I5289
sS'TGAGGG'
p3259
I1201
sS'GCTTAG'
p3260
I1488
sS'GCTTAC'
p3261
I1065
sS'GCTTAA'
p3262
I1492
sS'TGATTC'
p3263
I608
sS'AAGCGC'
p3264
I1552
sS'AAGAGT'
p3265
I1722
sS'AAGCGA'
p3266
I1043
sS'AAGCGG'
p3267
I1612
sS'GCTTAT'
p3268
I466
sS'CTGCTA'
p3269
I3843
sS'GCGTGT'
p3270
I361
sS'CTGCTC'
p3271
I3109
sS'ACTTCT'
p3272
I1328
sS'GACCGT'
p3273
I653
sS'CTGCTG'
p3274
I9225
sS'CGGTCA'
p3275
I626
sS'GGTCGT'
p3276
I204
sS'CGGTCC'
p3277
I849
sS'CTAGAA'
p3278
I936
sS'CTAGAC'
p3279
I564
sS'GACCGA'
p3280
I1653
sS'GACCGC'
p3281
I2874
sS'ACTTCC'
p3282
I3426
sS'CTGCTT'
p3283
I1497
sS'GACCGG'
p3284
I2530
sS'TCGGAA'
p3285
I158
sS'CTAGAT'
p3286
I280
sS'GGTCGG'
p3287
I932
sS'CGGTCT'
p3288
I301
sS'GGTCGC'
p3289
I959
sS'GGTCGA'
p3290
I432
sS'CGTCGC'
p3291
I901
sS'GCGTGG'
p3292
I865
sS'CGTCGG'
p3293
I602
sS'GCGTGC'
p3294
I758
sS'TGCTCA'
p3295
I9358
sS'TTCATC'
p3296
I3671
sS'TGCTCC'
p3297
I6480
sS'TTCATA'
p3298
I8019
sS'TTCATG'
p3299
I9885
sS'TGCTCG'
p3300
I1592
sS'GTACAA'
p3301
I421
sS'CAGCAG'
p3302
I3563
sS'GCGGCT'
p3303
I316
sS'CAGCAC'
p3304
I2604
sS'CAGCAA'
p3305
I2032
sS'ACGACT'
p3306
I99
sS'TGCTCT'
p3307
I4152
sS'TTCATT'
p3308
I2576
sS'GCTTTA'
p3309
I4752
sS'GCTGCC'
p3310
I2363
sS'GCTGCA'
p3311
I2364
sS'AACTCT'
p3312
I3734
sS'TGGCCC'
p3313
I1844
sS'TGGCCA'
p3314
I2311
sS'GTAGCA'
p3315
I1063
sS'TCATCT'
p3316
I789
sS'AACTCA'
p3317
I9793
sS'TGGCCT'
p3318
I973
sS'AACTCC'
p3319
I6786
sS'GCTGCT'
p3320
I1000
sS'AACTCG'
p3321
I1467
sS'CAGTCG'
p3322
I663
sS'CTACAA'
p3323
I620
sS'TGAAGA'
p3324
I1928
sS'AATATT'
p3325
I997
sS'GTTCGA'
p3326
I416
sS'CAACCT'
p3327
I370
sS'CAGTTA'
p3328
I5130
sS'TGGCCG'
p3329
I561
sS'GGCACG'
p3330
I1304
sS'GGAGGA'
p3331
I1569
sS'GGCACA'
p3332
I4106
sS'GACAAT'
p3333
I1729
sS'GGCACC'
p3334
I3544
sS'CAACCG'
p3335
I209
sS'CAGAAA'
p3336
I3973
sS'AATATG'
p3337
I4947
sS'CAACCC'
p3338
I668
sS'TTAGGA'
p3339
I883
sS'AATATC'
p3340
I1370
sS'CTTCGT'
p3341
I295
sS'GACAAA'
p3342
I8730
sS'GGCACT'
p3343
I1554
sS'GACAAC'
p3344
I5486
sS'ACGACA'
p3345
I242
sS'GACAAG'
p3346
I7955
sS'GCTGCG'
p3347
I905
sS'GCGGCG'
p3348
I747
sS'GCAATA'
p3349
I804
sS'GCAATG'
p3350
I1303
sS'CGATGG'
p3351
I168
sS'GACACT'
p3352
I3682
sS'TCCCAT'
p3353
I731
sS'CGATGC'
p3354
I153
sS'GTAAAT'
p3355
I459
sS'CGATGA'
p3356
I165
sS'GAATTA'
p3357
I2091
sS'GAATTC'
p3358
I729
sS'GAATTG'
p3359
I2087
sS'TCCCAA'
p3360
I2020
sS'CGATGT'
p3361
I81
sS'TCCCAC'
p3362
I2795
sS'GTAAAG'
p3363
I1136
sS'TCCCAG'
p3364
I3447
sS'GGATTT'
p3365
I228
sS'GTGCGT'
p3366
I329
sS'ACGCCG'
p3367
I239
sS'GGATTC'
p3368
I280
sS'GGATTA'
p3369
I847
sS'GGATTG'
p3370
I720
sS'ACCTCT'
p3371
I1896
sS'ACGCCA'
p3372
I393
sS'ATATAG'
p3373
I516
sS'TCTGTG'
p3374
I6398
sS'TCTGTC'
p3375
I1526
sS'GTCCCG'
p3376
I1559
sS'TCTGTA'
p3377
I3521
sS'AACCGG'
p3378
I1557
sS'CTCCTT'
p3379
I2802
sS'GGCGGA'
p3380
I1608
sS'GGCGGG'
p3381
I4881
sS'AACCGA'
p3382
I1517
sS'CTATCC'
p3383
I856
sS'TCTGTT'
p3384
I810
sS'AAAGCG'
p3385
I540
sS'CTCCTG'
p3386
I14354
sS'AACCGT'
p3387
I509
sS'CTCCTA'
p3388
I6780
sS'CTCCTC'
p3389
I9590
sS'GGCGGT'
p3390
I513
sS'GACGCA'
p3391
I2499
sS'GACGCC'
p3392
I3566
sS'AACAAC'
p3393
I6325
sS'CCCACC'
p3394
I6554
sS'ATAGCA'
p3395
I1116
sS'AGCCTT'
p3396
I1861
sS'CCGATT'
p3397
I67
sS'CCCACT'
p3398
I1711
sS'ACTTTT'
p3399
I840
sS'AACAAT'
p3400
I1896
sS'GACGCT'
p3401
I1144
sS'GTGCGA'
p3402
I445
sS'AAGTCG'
p3403
I745
sS'AGCCTG'
p3404
I12610
sS'AGCCTA'
p3405
I5011
sS'AGCCTC'
p3406
I6426
sS'GTACCC'
p3407
I478
sS'GAGTTT'
p3408
I1811
sS'TGGTTA'
p3409
I4569
sS'CGCCTT'
p3410
I762
sS'TGGTTC'
p3411
I1899
sS'CAGAGT'
p3412
I1531
sS'GCATCT'
p3413
I471
sS'CTCCCA'
p3414
I6631
sS'AGGCAC'
p3415
I1689
sS'CGCCTC'
p3416
I4019
sS'GCGCCA'
p3417
I616
sS'CGCCTA'
p3418
I1760
sS'AGGCAG'
p3419
I3015
sS'CGCCTG'
p3420
I4952
sS'GAGTTA'
p3421
I5747
sS'CAGAGG'
p3422
I6642
sS'GCATCC'
p3423
I622
sS'GCATCA'
p3424
I816
sS'CAGAGC'
p3425
I5654
sS'AAAATT'
p3426
I549
sS'CAGAGA'
p3427
I5478
sS'TAGCTA'
p3428
I3870
sS'CCGATC'
p3429
I92
sS'CCTAGA'
p3430
I1337
sS'CCTAGC'
p3431
I1210
sS'TTTGCT'
p3432
I1076
sS'CGGGAG'
p3433
I856
sS'TGCGGT'
p3434
I413
sS'CCTAGG'
p3435
I1583
sS'TAAGCA'
p3436
I2077
sS'GTCTAG'
p3437
I3277
sS'TGCGGC'
p3438
I1614
sS'TGCGGA'
p3439
I842
sS'CCTAGT'
p3440
I501
sS'TGCGGG'
p3441
I1575
sS'TAAGCG'
p3442
I287
sS'TGAGTT'
p3443
I397
sS'CGGGAC'
p3444
I554
sS'ATCGCT'
p3445
I237
sS'ATCGCC'
p3446
I632
sS'TGAGTG'
p3447
I2013
sS'ATCGCA'
p3448
I469
sS'TGAGTA'
p3449
I1332
sS'ATCGCG'
p3450
I299
sS'TGAGTC'
p3451
I761
sS'GAGGTT'
p3452
I1102
sS'AAGGTG'
p3453
I6314
sS'AAGGTC'
p3454
I2055
sS'CATCAT'
p3455
I981
sS'AAGGTA'
p3456
I4165
sS'ATTTCG'
p3457
I334
sS'ACGGCA'
p3458
I312
sS'CATCAC'
p3459
I3490
sS'ACGGCC'
p3460
I511
sS'CATCAA'
p3461
I2749
sS'CATCAG'
p3462
I3741
sS'ACGGCG'
p3463
I235
sS'TCACCT'
p3464
I489
sS'TCTAAG'
p3465
I1889
sS'CGGAAT'
p3466
I111
sS'CAATTC'
p3467
I516
sS'ATCGAT'
p3468
I70
sS'TCACCG'
p3469
I224
sS'TCACCA'
p3470
I973
sS'TCACCC'
p3471
I695
sS'CGGAAG'
p3472
I1393
sS'AATATA'
p3473
I4839
sS'AACTGG'
p3474
I6730
sS'CGGCCT'
p3475
I435
sS'CGGAAC'
p3476
I602
sS'CGGAAA'
p3477
I521
sS'TAGCTT'
p3478
I954
sS'TCGTCA'
p3479
I328
sS'TGTGTA'
p3480
I5092
sS'CCGTAG'
p3481
I180
sS'TGTGTG'
p3482
I13358
sS'ATGGCA'
p3483
I1884
sS'TTACTT'
p3484
I486
sS'TCGTCC'
p3485
I475
sS'ATGGCT'
p3486
I748
sS'TGTGTT'
p3487
I1019
sS'AGATTA'
p3488
I1338
sS'GAAACG'
p3489
I889
sS'GAAACA'
p3490
I4324
sS'GAAACC'
p3491
I3649
sS'ATGCAT'
p3492
I422
sS'CTATGT'
p3493
I823
sS'CTGAGT'
p3494
I1214
sS'AGGTAC'
p3495
I1073
sS'GAAACT'
p3496
I1721
sS'AGAATG'
p3497
I3383
sS'AGAATA'
p3498
I2155
sS'AGAATC'
p3499
I676
sS'CTGAGC'
p3500
I3154
sS'CTGAGA'
p3501
I3317
sS'CTGAGG'
p3502
I4173
sS'CATACC'
p3503
I2025
sS'CATACA'
p3504
I3486
sS'CATACG'
p3505
I487
sS'GCAATC'
p3506
I248
sS'TCAAAT'
p3507
I442
sS'GTCCAT'
p3508
I569
sS'AGGGGT'
p3509
I732
sS'CAGGAC'
p3510
I2037
sS'CATACT'
p3511
I1156
sS'AATGGC'
p3512
I2358
sS'GTCCAG'
p3513
I2691
sS'TCAAAG'
p3514
I1059
sS'TCAAAA'
p3515
I1084
sS'GTCCAA'
p3516
I1887
sS'CGGCGG'
p3517
I1104
sS'TTGATG'
p3518
I3157
sS'ATCGAG'
p3519
I324
sS'CGGCGC'
p3520
I994
sS'TTGATC'
p3521
I611
sS'CGGCGA'
p3522
I343
sS'TTGATA'
p3523
I2018
sS'AAACTG'
p3524
I3555
sS'AAGTGA'
p3525
I6132
sS'TTGATT'
p3526
I510
sS'CGGCGT'
p3527
I199
sS'ATGGCC'
p3528
I1443
sS'CCATTA'
p3529
I1152
sS'TGACTT'
p3530
I425
sS'TCCAAC'
p3531
I2435
sS'CGGTTA'
p3532
I685
sS'GGTTTA'
p3533
I4120
sS'CGGTTC'
p3534
I548
sS'GGTTTC'
p3535
I3610
sS'TTTACA'
p3536
I2946
sS'CGGTTG'
p3537
I1030
sS'GGTTTG'
p3538
I5996
sS'CCATTG'
p3539
I1459
sS'TCCAAA'
p3540
I3147
sS'GCTGTG'
p3541
I5621
sS'ACCTAA'
p3542
I2188
sS'GCTGTC'
p3543
I1142
sS'CGGTTT'
p3544
I235
sS'GCTGTA'
p3545
I2472
sS'TATGCG'
p3546
I416
sS'AGGTTG'
p3547
I4357
sS'AGGTTC'
p3548
I1641
sS'AGGTTA'
p3549
I3769
sS'ATGAAA'
p3550
I2246
sS'GAGGGA'
p3551
I7182
sS'TTTTTC'
p3552
I3515
sS'TCCATC'
p3553
I2197
sS'TTTTTA'
p3554
I9718
sS'TCCTCT'
p3555
I6031
sS'TTTTTG'
p3556
I8020
sS'TCCATG'
p3557
I4963
sS'TTAAAT'
p3558
I731
sS'AGGTTT'
p3559
I1038
sS'TATGCC'
p3560
I1915
sS'TTAAAC'
p3561
I1249
sS'ATACGT'
p3562
I119
sS'TTAAAA'
p3563
I2496
sS'ACTCCG'
p3564
I430
sS'TTAAAG'
p3565
I1760
sS'GAGGGT'
p3566
I1479
sS'TTTTTT'
p3567
I2706
sS'ACTCCC'
p3568
I1221
sS'CTGTAA'
p3569
I1860
sS'GTCACG'
p3570
I1846
sS'CTGTAC'
p3571
I1649
sS'GCAACT'
p3572
I350
sS'GTCACC'
p3573
I5515
sS'CTTTAG'
p3574
I2396
sS'GTCACA'
p3575
I6849
sS'ACTTAT'
p3576
I534
sS'GCAACG'
p3577
I229
sS'GTCACT'
p3578
I2695
sS'TAGGCG'
p3579
I724
sS'ACGAAA'
p3580
I228
sS'TAGGCA'
p3581
I3227
sS'GCAACA'
p3582
I993
sS'TAGGCC'
p3583
I2536
sS'ATTCAT'
p3584
I646
sS'GTAAAA'
p3585
I1265
sS'GCGATT'
p3586
I80
sS'TCGTGT'
p3587
I210
sS'TTCACT'
p3588
I3527
sS'GTCTCT'
p3589
I4425
sS'AACATT'
p3590
I1752
sS'ATTCAG'
p3591
I1693
sS'ATATTA'
p3592
I2021
sS'ATTCAA'
p3593
I1662
sS'ATTCAC'
p3594
I1373
sS'GTCTCC'
p3595
I7792
sS'GTCTCA'
p3596
I10116
sS'GCGATG'
p3597
I514
sS'TTCACC'
p3598
I5110
sS'GCGATA'
p3599
I245
sS'TCGTGC'
p3600
I373
sS'GCGATC'
p3601
I122
sS'GAAGGC'
p3602
I2579
sS'GAAGGA'
p3603
I3243
sS'CGATTC'
p3604
I108
sS'CGATTA'
p3605
I168
sS'CAATCT'
p3606
I344
sS'AGACTT'
p3607
I396
sS'GGAACA'
p3608
I1147
sS'GGAACG'
p3609
I302
sS'TGACGA'
p3610
I140
sS'TACTGC'
p3611
I7133
sS'CGATTT'
p3612
I58
sS'GAAGGT'
p3613
I790
sS'CTCGCT'
p3614
I773
sS'CAATCG'
p3615
I237
sS'CAATCA'
p3616
I1297
sS'CAATCC'
p3617
I681
sS'CCAAGT'
p3618
I621
sS'AGTCCA'
p3619
I2155
sS'TCCTGC'
p3620
I9553
sS'AGTCCC'
p3621
I2667
sS'ACTAAA'
p3622
I1647
sS'TCCTGG'
p3623
I8296
sS'ACTAAC'
p3624
I1044
sS'TAACGC'
p3625
I259
sS'CAGCTG'
p3626
I10484
sS'CAGCTA'
p3627
I4412
sS'CAGCTC'
p3628
I3527
sS'ACTAAT'
p3629
I433
sS'AGTCCT'
p3630
I976
sS'TCCTGT'
p3631
I5010
sS'TAATGT'
p3632
I771
sS'CAGCTT'
p3633
I1101
sS'TAACGT'
p3634
I161
sS'TTGACC'
p3635
I1476
sS'GTACTT'
p3636
I346
sS'CGACAT'
p3637
I54
sS'TTGTTC'
p3638
I2599
sS'TTGTTA'
p3639
I5613
sS'CGACTG'
p3640
I298
sS'TTGTTG'
p3641
I6129
sS'CAGGCC'
p3642
I5001
sS'CCGAGC'
p3643
I598
sS'CCGCGT'
p3644
I134
sS'CGACAC'
p3645
I129
sS'CGACAA'
p3646
I70
sS'GTACTC'
p3647
I388
sS'GTACTA'
p3648
I908
sS'CCGCGC'
p3649
I631
sS'ACGGAG'
p3650
I271
sS'CCGCGA'
p3651
I226
sS'CCGCGG'
p3652
I526
sS'TTGTTT'
p3653
I2047
sS'TCCGTT'
p3654
I326
sS'AGCCAA'
p3655
I3834
sS'AATAAC'
p3656
I3671
sS'AATAAA'
p3657
I7109
sS'AATAAG'
p3658
I4467
sS'AATAAT'
p3659
I1419
sS'ACGGTG'
p3660
I616
sS'CCAACC'
p3661
I934
sS'CCAACA'
p3662
I916
sS'TTATGC'
p3663
I1027
sS'CCAACG'
p3664
I232
sS'GGGATT'
p3665
I396
sS'CGCCGC'
p3666
I3968
sS'GTGTAT'
p3667
I858
sS'CGCCGA'
p3668
I851
sS'GAGTAG'
p3669
I2740
sS'CGCCGG'
p3670
I2114
sS'GAGTAA'
p3671
I2919
sS'GAGTAC'
p3672
I1858
sS'CTCAGG'
p3673
I9244
sS'CTCAGC'
p3674
I10313
sS'CTCAGA'
p3675
I7988
sS'GAGTAT'
p3676
I686
sS'ATCGTC'
p3677
I291
sS'GTGTAG'
p3678
I1537
sS'TCGAGC'
p3679
I293
sS'GTGTAA'
p3680
I1438
sS'GTGTAC'
p3681
I1331
sS'TCGAGG'
p3682
I443
sS'GTGGCA'
p3683
I3930
sS'GTGGCC'
p3684
I3975
sS'CTCGGA'
p3685
I1041
sS'GTGGCG'
p3686
I1090
sS'GCCGCC'
p3687
I4075
sS'GCCGCA'
p3688
I1693
sS'GCCGCG'
p3689
I1822
sS'ACACTT'
p3690
I423
sS'CATATG'
p3691
I4599
sS'AAGTCC'
p3692
I3992
sS'AGATAT'
p3693
I347
sS'GTGGCT'
p3694
I1866
sS'CATATA'
p3695
I3904
sS'GTCAGC'
p3696
I6302
sS'ACACTC'
p3697
I435
sS'ACACTA'
p3698
I804
sS'ACACTG'
p3699
I1583
sS'GCCGCT'
p3700
I741
sS'ACCTCG'
p3701
I1074
sS'AAATAA'
p3702
I1713
sS'ACCGGC'
p3703
I793
sS'GTCAGA'
p3704
I5941
sS'CTTTAA'
p3705
I3498
sS'ACCGGG'
p3706
I808
sS'CTTTAC'
p3707
I2234
sS'CACGAG'
p3708
I1169
sS'CAGGTA'
p3709
I2839
sS'AACTTC'
p3710
I5709
sS'CAGGTC'
p3711
I1575
sS'CACGAC'
p3712
I821
sS'AACTTG'
p3713
I9137
sS'GTCAGG'
p3714
I6992
sS'CTTTAT'
p3715
I908
sS'AATCCC'
p3716
I2396
sS'AATCCA'
p3717
I2552
sS'AAATAT'
p3718
I712
sS'AATCCG'
p3719
I599
sS'CACGAT'
p3720
I192
sS'CAGGTT'
p3721
I644
sS'AACTTT'
p3722
I2644
sS'GGGATA'
p3723
I1375
sS'GGGATC'
p3724
I687
sS'GGGTGT'
p3725
I1164
sS'GGGATG'
p3726
I3230
sS'GATGCT'
p3727
I1552
sS'CGCAGT'
p3728
I717
sS'ATTGGG'
p3729
I869
sS'GAGCCT'
p3730
I2049
sS'GGAGAC'
p3731
I679
sS'GGCGGC'
p3732
I3000
sS'GGAGAA'
p3733
I854
sS'GGGTGC'
p3734
I2103
sS'GGAGAG'
p3735
I1016
sS'AATCAA'
p3736
I3683
sS'GGGTGG'
p3737
I3675
sS'GAGCCA'
p3738
I6279
sS'CGCAGG'
p3739
I3567
sS'GATGCG'
p3740
I899
sS'CGCAGA'
p3741
I1923
sS'GATGCA'
p3742
I3954
sS'CGCAGC'
p3743
I3947
sS'GATGCC'
p3744
I3111
sS'ACGAAC'
p3745
I172
sS'GGTAGT'
p3746
I562
sS'ACCCCT'
p3747
I900
sS'GCCAAT'
p3748
I1029
sS'AACCGC'
p3749
I1989
sS'AGAGTC'
p3750
I638
sS'AGAAGT'
p3751
I1225
sS'ACCCCA'
p3752
I2754
sS'GGTAGA'
p3753
I1888
sS'GCCAAA'
p3754
I2687
sS'CGGATG'
p3755
I956
sS'GCCAAG'
p3756
I3869
sS'CGGATA'
p3757
I415
sS'ACCCCG'
p3758
I819
sS'GGTAGG'
p3759
I2189
sS'AGAAGA'
p3760
I2882
sS'AGAAGC'
p3761
I2823
sS'CAGTCT'
p3762
I1740
sS'AGAAGG'
p3763
I3347
sS'CACTCC'
p3764
I7554
sS'CACTCA'
p3765
I10544
sS'CACTCG'
p3766
I1826
sS'TGCGTT'
p3767
I255
sS'TCAGCT'
p3768
I592
sS'AGCTTT'
p3769
I3202
sS'CCCCGG'
p3770
I1919
sS'TGCGTA'
p3771
I1044
sS'TGCGTG'
p3772
I3010
sS'CCCCGA'
p3773
I962
sS'AGCTTC'
p3774
I7262
sS'GAGCCC'
p3775
I5426
sS'AGCTTA'
p3776
I7148
sS'AGCTTG'
p3777
I9771
sS'ATACGA'
p3778
I133
sS'AGACCA'
p3779
I871
sS'AGAGTA'
p3780
I1344
sS'TTAGCT'
p3781
I569
sS'TTAGCC'
p3782
I827
sS'TTAGCA'
p3783
I1327
sS'GACCAT'
p3784
I943
sS'TTAGCG'
p3785
I207
sS'CTTCAT'
p3786
I838
sS'TCATAT'
p3787
I429
sS'AAGGGG'
p3788
I5356
sS'ATAAGG'
p3789
I1261
sS'TGTGCT'
p3790
I1173
sS'AAGGGC'
p3791
I4119
sS'ATAAGC'
p3792
I982
sS'AAGGGA'
p3793
I4985
sS'ATAAGA'
p3794
I1352
sS'CCAGAC'
p3795
I596
sS'CCAGAA'
p3796
I885
sS'CCAGAG'
p3797
I987
sS'GCAAGT'
p3798
I609
sS'TGTGCG'
p3799
I744
sS'ATAAGT'
p3800
I548
sS'AAGGGT'
p3801
I1092
sS'TGTGCC'
p3802
I2207
sS'ATAGGA'
p3803
I688
sS'TGTGCA'
p3804
I3187
sS'CGGTAG'
p3805
I268
sS'GCTCGC'
p3806
I1007
sS'TAAGTT'
p3807
I411
sS'ATACGC'
p3808
I152
sS'AGACCG'
p3809
I207
sS'CCAGAT'
p3810
I322
sS'AGACAA'
p3811
I674
sS'AACAAG'
p3812
I7493
sS'AGACAC'
p3813
I886
sS'TCCATT'
p3814
I1258
sS'AGACAG'
p3815
I1056
sS'TTTTCT'
p3816
I2841
sS'CGCTGT'
p3817
I1056
sS'CCCACG'
p3818
I1521
sS'CGTGGG'
p3819
I1118
sS'CTATAG'
p3820
I555
sS'CGTGGC'
p3821
I1049
sS'CGTGGA'
p3822
I563
sS'TTTTCG'
p3823
I644
sS'CGCTGA'
p3824
I2035
sS'CGCTGC'
p3825
I4648
sS'TTTTCC'
p3826
I3518
sS'TTTTCA'
p3827
I5873
sS'CGCTGG'
p3828
I3280
sS'TATGGA'
p3829
I1515
sS'TATGGC'
p3830
I1609
sS'CGTAGG'
p3831
I716
sS'GACGCG'
p3832
I1908
sS'TATGGG'
p3833
I1951
sS'CGTAGC'
p3834
I651
sS'TACCGT'
p3835
I437
sS'AAGTGT'
p3836
I2048
sS'TGGACT'
p3837
I789
sS'CGTAGT'
p3838
I280
sS'TATGGT'
p3839
I787
sS'ATTCCT'
p3840
I503
sS'TGGACA'
p3841
I1933
sS'TGGACC'
p3842
I1443
sS'TGGACG'
p3843
I466
sS'CCGGTT'
p3844
I115
sS'CTAGCT'
p3845
I580
sS'GCTTGA'
p3846
I2097
sS'TGAGAC'
p3847
I885
sS'GCTTGC'
p3848
I2335
sS'TGAGAA'
p3849
I1184
sS'TGAGAG'
p3850
I1102
sS'AGGGAC'
p3851
I1725
sS'CCTGTT'
p3852
I623
sS'TATCAC'
p3853
I2984
sS'AGGATT'
p3854
I512
sS'CCGGTA'
p3855
I300
sS'CCTGTC'
p3856
I1250
sS'CCTGTA'
p3857
I2275
sS'CCTGTG'
p3858
I4901
sS'GCTTGT'
p3859
I1056
sS'TGAGAT'
p3860
I400
sS'GGTTGT'
p3861
I1012
sS'ACTGCG'
p3862
I516
sS'AGGGAT'
p3863
I347
sS'TATCAG'
p3864
I3449
sS'ACAATA'
p3865
I1204
sS'GGTTGG'
p3866
I2804
sS'CTGAAT'
p3867
I575
sS'GGTTGA'
p3868
I2324
sS'GGTTGC'
p3869
I2690
sS'GAAAGT'
p3870
I1602
sS'TCCCGC'
p3871
I2736
sS'TCCCGA'
p3872
I926
sS'TCCCGG'
p3873
I2147
sS'GTAACC'
p3874
I1035
sS'CGTTTT'
p3875
I443
sS'ATTCTC'
p3876
I1499
sS'AGGGAA'
p3877
I2022
sS'ATTCTA'
p3878
I2751
sS'ATTCTG'
p3879
I4178
sS'TCATTT'
p3880
I806
sS'TGCTAC'
p3881
I3687
sS'CAGCGC'
p3882
I1728
sS'TGCTAG'
p3883
I3687
sS'CAGCGG'
p3884
I1446
sS'CCTTGT'
p3885
I1131
sS'TCATTC'
p3886
I781
sS'AAGCTT'
p3887
I1287
sS'TCATTG'
p3888
I2068
sS'ATTCTT'
p3889
I652
sS'CGTTTC'
p3890
I1370
sS'TGGCAA'
p3891
I929
sS'TGGCAC'
p3892
I1027
sS'TGGCAG'
p3893
I1753
sS'GCTGAG'
p3894
I2593
sS'GCTGAA'
p3895
I1382
sS'GCTGAC'
p3896
I1384
sS'TGGCAT'
p3897
I414
sS'GGCCGG'
p3898
I2812
sS'GTTCAA'
p3899
I1516
sS'NNGATC'
p3900
I1
sS'CCGATG'
p3901
I324
sS'GGCCGC'
p3902
I3436
sS'GAACTT'
p3903
I412
sS'GGCCGA'
p3904
I1244
sS'GGCAAT'
p3905
I698
sS'CGCTCG'
p3906
I1574
sS'CTGATT'
p3907
I683
sS'CCATCG'
p3908
I171
sS'CTAAAT'
p3909
I477
sS'CCATCC'
p3910
I874
sS'CCATCA'
p3911
I935
sS'GGCAAG'
p3912
I4294
sS'CTGATA'
p3913
I2239
sS'GTACCA'
p3914
I607
sS'GGCAAC'
p3915
I3032
sS'GGCAAA'
p3916
I3477
sS'CTAAAG'
p3917
I1085
sS'CCATCT'
p3918
I695
sS'CTAAAC'
p3919
I882
sS'GTACCG'
p3920
I133
sS'GACACC'
p3921
I6899
sS'GACACA'
p3922
I10760
sS'GAAAAT'
p3923
I771
sS'GACACG'
p3924
I2460
sS'CCAAGA'
p3925
I1042
sS'GCGCCT'
p3926
I304
sS'TAGCGA'
p3927
I452
sS'TACGAG'
p3928
I683
sS'TACGAC'
p3929
I491
sS'TACGAA'
p3930
I698
sS'CCGTGA'
p3931
I400
sS'CTATTG'
p3932
I2341
sS'GCATAA'
p3933
I387
sS'ACGCTC'
p3934
I314
sS'TCGATG'
p3935
I336
sS'TCGATA'
p3936
I175
sS'TCGATC'
p3937
I88
sS'GCATAT'
p3938
I296
sS'CGCGAA'
p3939
I391
sS'CAGCCT'
p3940
I1792
sS'TCGATT'
p3941
I64
sS'GGATAA'
p3942
I198
sS'TCGGCA'
p3943
I302
sS'TGGTTT'
p3944
I1369
sS'ACAATG'
p3945
I1732
sS'AACCAA'
p3946
I5700
sS'TGCCGG'
p3947
I1589
sS'AACCAC'
p3948
I6547
sS'TGCCGC'
p3949
I1994
sS'AACCAG'
p3950
I4999
sS'TGCCGA'
p3951
I749
sS'TTGGAC'
p3952
I770
sS'TCTGGA'
p3953
I1174
sS'ATGATC'
p3954
I554
sS'GAGTTC'
p3955
I3604
sS'TGCCGT'
p3956
I442
sS'AACCAT'
p3957
I1118
sS'AACAGA'
p3958
I11060
sS'GGGAGT'
p3959
I947
sS'AACAGC'
p3960
I9168
sS'ACGTCC'
p3961
I493
sS'AACAGG'
p3962
I9130
sS'ACGTCA'
p3963
I605
sS'CCCAAG'
p3964
I3370
sS'TTGGAG'
p3965
I1243
sS'GACGAA'
p3966
I1097
sS'GACGAG'
p3967
I1847
sS'CCCAAA'
p3968
I2788
sS'CTACCT'
p3969
I481
sS'GGGAGA'
p3970
I3101
sS'AACAGT'
p3971
I3212
sS'GGGAGC'
p3972
I3012
sS'ACGAAG'
p3973
I320
sS'CCCAAT'
p3974
I549
sS'GACGAT'
p3975
I233
sS'GGGCGC'
p3976
I1370
sS'GGGCGA'
p3977
I650
sS'NGCGCC'
p3978
I1
sS'GGGCGG'
p3979
I2594
sS'TCTCTT'
p3980
I1147
sS'AGGCAT'
p3981
I617
sS'CGTTAA'
p3982
I591
sS'CAGAAT'
p3983
I824
sS'GTACAC'
p3984
I387
sS'TCTCTC'
p3985
I3124
sS'TCTCTA'
p3986
I4483
sS'TCTCTG'
p3987
I8254
sS'GGGCGT'
p3988
I316
sS'ACGACC'
p3989
I237
sS'CAGAAC'
p3990
I3034
sS'GAATAA'
p3991
I924
sS'ACGACG'
p3992
I124
sS'CAGAAG'
p3993
I4794
sS'CCTTCA'
p3994
I3377
sS'CACTTT'
p3995
I3504
sS'CATATT'
p3996
I817
sS'CCTAAT'
p3997
I341
sS'CACTTG'
p3998
I10975
sS'CCTAAC'
p3999
I962
sS'CTACCC'
p4000
I779
sS'CCTAAA'
p4001
I1142
sS'CACTTC'
p4002
I10308
sS'CCTAAG'
p4003
I1251
sS'CACTTA'
p4004
I9975
sS'GCGGAT'
p4005
I52
sS'AATCCT'
p4006
I1090
sS'GTCCCC'
p4007
I4139
sS'AAGATT'
p4008
I661
sS'CTCATG'
p4009
I8436
sS'GACTCG'
p4010
I2744
sS'CTCATC'
p4011
I3489
sS'GACTCC'
p4012
I9087
sS'CTCATA'
p4013
I5826
sS'GACTCA'
p4014
I14369
sS'AAGATA'
p4015
I4783
sS'AAGATC'
p4016
I1415
sS'AAGATG'
p4017
I7462
sS'GACTCT'
p4018
I5074
sS'CTCATT'
p4019
I2064
sS'ATCGAA'
p4020
I310
sS'ATCGAC'
p4021
I209
sS'ATATTT'
p4022
I729
sS'ACGGTA'
p4023
I283
sS'GGACTC'
p4024
I331
sS'ATAGTT'
p4025
I277
sS'CTACCA'
p4026
I953
sS'TACTGT'
p4027
I4217
sS'ATATTC'
p4028
I659
sS'ACGGTC'
p4029
I161
sS'ATATTG'
p4030
I1622
sS'ATAGTA'
p4031
I1001
sS'TACTGA'
p4032
I8124
sS'TACTGG'
p4033
I6041
sS'ATAGTG'
p4034
I1148
sS'ATAGAC'
p4035
I507
sS'CAGGCA'
p4036
I4965
sS'AGGAAG'
p4037
I7332
sS'CATCCG'
p4038
I639
sS'AGGAAA'
p4039
I3896
sS'CATCCA'
p4040
I2524
sS'CAGGCG'
p4041
I1505
sS'CATCCC'
p4042
I2318
sS'CGTGCT'
p4043
I321
sS'TTATGA'
p4044
I1259
sS'CAAGCT'
p4045
I649
sS'CGGAGT'
p4046
I272
sS'TTATGG'
p4047
I1015
sS'CATCCT'
p4048
I1297
sS'AGGAAT'
p4049
I648
sS'CAGGCT'
p4050
I1691
sS'ACGGAT'
p4051
I75
sS'CGGAGA'
p4052
I768
sS'CGGAGC'
p4053
I1535
sS'TTATGT'
p4054
I959
sS'CGGAGG'
p4055
I1724
sS'ATGGAA'
p4056
I1194
sS'ATGGAC'
p4057
I664
sS'ATGGAG'
p4058
I1055
sS'CGCTTG'
p4059
I3325
sS'CGCTTA'
p4060
I1784
sS'CGCTTC'
p4061
I3326
sS'ATGGAT'
p4062
I215
sS'CCTCCT'
p4063
I1250
sS'TTTGCA'
p4064
I3051
sS'CGCTTT'
p4065
I889
sS'GATCGT'
p4066
I306
sS'TTTGCC'
p4067
I1828
sS'GAAAAG'
p4068
I3787
sS'GAAAAC'
p4069
I2844
sS'ATAGAT'
p4070
I310
sS'GAAAAA'
p4071
I2989
sS'TAGGGC'
p4072
I2275
sS'ACGGTT'
p4073
I56
sS'TTTGCG'
p4074
I377
sS'CTACTG'
p4075
I1788
sS'ACAAGG'
p4076
I1392
sS'ACAAGA'
p4077
I1360
sS'ACAAGC'
p4078
I1161
sS'ACACGT'
p4079
I211
sS'CTGCGT'
p4080
I364
sS'GCGGAG'
p4081
I609
sS'CATAAG'
p4082
I2705
sS'GTCCCT'
p4083
I1878
sS'CATAAA'
p4084
I3584
sS'GCGGAC'
p4085
I272
sS'CATAAC'
p4086
I2484
sS'ACACGC'
p4087
I355
sS'ACAAGT'
p4088
I743
sS'ACACGA'
p4089
I172
sS'ACACGG'
p4090
I247
sS'CATAAT'
p4091
I796
sS'GTCCCA'
p4092
I3705
sS'GCACAT'
p4093
I335
sS'CTGCGG'
p4094
I1416
sS'ATCCCA'
p4095
I1985
sS'CTGCGA'
p4096
I586
sS'CTGCGC'
p4097
I1300
sS'CGGCAA'
p4098
I200
sS'CGGCAC'
p4099
I319
sS'CGGCAG'
p4100
I627
sS'GCTCGT'
p4101
I163
sS'ATCAAA'
p4102
I3454
sS'NNNGAA'
p4103
I3
sS'CGGCAT'
p4104
I92
sS'CCTCCC'
p4105
I3190
sS'CCTCCA'
p4106
I2050
sS'CCTCCG'
p4107
I782
sS'CGTGAT'
p4108
I141
s.