(dp0
S'AAAAAC'
p1
I1194
sS'GAACGT'
p2
I72
sS'CGTCGT'
p3
I68
sS'CTTCTT'
p4
I658
sS'CACCCT'
p5
I998
sS'GAACGG'
p6
I238
sS'GAACGC'
p7
I264
sS'GAACGA'
p8
I171
sS'CAACAT'
p9
I149
sS'CACCCA'
p10
I3118
sS'CTTCTA'
p11
I2361
sS'CACCCC'
p12
I2664
sS'CTTCTC'
p13
I1987
sS'CACCCG'
p14
I720
sS'CTTCTG'
p15
I4540
sS'CATTAG'
p16
I1552
sS'CGTGTG'
p17
I1055
sS'TAAGGT'
p18
I264
sS'CGTGTC'
p19
I250
sS'CGTGTA'
p20
I385
sS'AGGCAA'
p21
I741
sS'GGAAAT'
p22
I276
sS'TAAGGG'
p23
I655
sS'CGTGTT'
p24
I103
sS'TAAGGC'
p25
I620
sS'TAAGGA'
p26
I757
sS'TCACTG'
p27
I922
sS'GTCAAA'
p28
I2298
sS'GTCAAC'
p29
I1510
sS'GTCAAG'
p30
I2265
sS'CTGTCC'
p31
I2353
sS'TCAGAG'
p32
I520
sS'CTGTCA'
p33
I2975
sS'CTGTCG'
p34
I446
sS'TCAGAC'
p35
I322
sS'TCAGAA'
p36
I522
sS'TCATAA'
p37
I294
sS'GTCAAT'
p38
I466
sS'GTATCA'
p39
I691
sS'TCAGAT'
p40
I185
sS'GTATCG'
p41
I94
sS'CTGTCT'
p42
I1576
sS'GGTGTC'
p43
I516
sS'GGTGTA'
p44
I843
sS'GGTGTG'
p45
I2222
sS'TATCCT'
p46
I462
sS'CCGGGG'
p47
I415
sS'TTCTGT'
p48
I3134
sS'AGAGGT'
p49
I417
sS'CCGGGC'
p50
I395
sS'CCGGGA'
p51
I292
sS'TATCCA'
p52
I1172
sS'TATCCC'
p53
I806
sS'TATCCG'
p54
I174
sS'GGTGTT'
p55
I206
sS'ATTCCG'
p56
I130
sS'TTCTGG'
p57
I5088
sS'CCGGGT'
p58
I133
sS'ATTCCC'
p59
I450
sS'TTCTGC'
p60
I6240
sS'ATTCCA'
p61
I749
sS'TTCTGA'
p62
I5535
sS'CTTGGA'
p63
I743
sS'CGTCAT'
p64
I101
sS'CGCGGT'
p65
I130
sS'AGGGAG'
p66
I1483
sS'CGCGGG'
p67
I1084
sS'CGCGGC'
p68
I1212
sS'CGCGGA'
p69
I464
sS'ACCTGT'
p70
I803
sS'ATACTA'
p71
I434
sS'TCATGT'
p72
I420
sS'AGGGAC'
p73
I862
sS'TTACAG'
p74
I420
sS'CTCCGC'
p75
I2084
sS'TTACAA'
p76
I338
sS'TTACAC'
p77
I241
sS'CTCCGG'
p78
I1317
sS'TCATGC'
p79
I506
sS'ACCTGG'
p80
I1976
sS'TCATGA'
p81
I415
sS'TCATGG'
p82
I452
sS'ACCTGC'
p83
I2305
sS'ACCTGA'
p84
I1700
sS'TTACAT'
p85
I236
sS'CTCGAT'
p86
I55
sS'CTCCGT'
p87
I322
sS'GCCTGA'
p88
I2761
sS'GCCTGC'
p89
I4436
sS'GCCTGG'
p90
I5040
sS'TAAAGG'
p91
I1618
sS'CAAATT'
p92
I229
sS'TAAAGA'
p93
I1590
sS'TAAAGC'
p94
I1331
sS'GCCTGT'
p95
I1498
sS'TCCCCG'
p96
I832
sS'TAAAGT'
p97
I575
sS'CAAATA'
p98
I1476
sS'ACGTCC'
p99
I246
sS'CAAATC'
p100
I414
sS'TGCAAT'
p101
I648
sS'CAAATG'
p102
I1661
sS'AATACT'
p103
I817
sS'CGTCAC'
p104
I507
sS'CGTCAA'
p105
I184
sS'GGCATG'
p106
I2880
sS'GGCATA'
p107
I1352
sS'GGCATC'
p108
I837
sS'AATACG'
p109
I301
sS'AATACA'
p110
I2337
sS'AATACC'
p111
I1379
sS'GGCATT'
p112
I416
sS'CGTCAG'
p113
I438
sS'TGCACA'
p114
I3183
sS'GAGCAC'
p115
I1567
sS'GAGCAA'
p116
I1536
sS'GAGCAG'
p117
I2669
sS'AGTAGT'
p118
I496
sS'TCTCGC'
p119
I450
sS'TCTCGA'
p120
I196
sS'TCTCGG'
p121
I472
sS'GTATCT'
p122
I374
sS'ACTGAG'
p123
I943
sS'AGTAGA'
p124
I1402
sS'ACTGAC'
p125
I632
sS'GAGCAT'
p126
I397
sS'TTGAAC'
p127
I806
sS'TCTCGT'
p128
I106
sS'GTGTCG'
p129
I400
sS'TCGAAC'
p130
I82
sS'TCGAAA'
p131
I70
sS'GTGTCC'
p132
I2109
sS'TCGAAG'
p133
I100
sS'GTGTCA'
p134
I2652
sS'CTTGCT'
p135
I527
sS'ATCCTA'
p136
I1408
sS'TCGGTC'
p137
I85
sS'GTGTCT'
p138
I1335
sS'AGCCCC'
p139
I2487
sS'TCGAAT'
p140
I38
sS'CTTGCG'
p141
I252
sS'CTTGCA'
p142
I1012
sS'CTTGCC'
p143
I982
sS'CGAAAG'
p144
I174
sS'CGAAAA'
p145
I79
sS'CGAAAC'
p146
I145
sS'AAGGTT'
p147
I368
sS'CACGGA'
p148
I606
sS'AAATGC'
p149
I1080
sS'CACGGC'
p150
I911
sS'AAATGA'
p151
I1316
sS'AAATGG'
p152
I936
sS'CACGGG'
p153
I815
sS'ACAGTA'
p154
I544
sS'CGAAAT'
p155
I35
sS'ACAGTT'
p156
I190
sS'AATCAG'
p157
I2255
sS'AATCAA'
p158
I1830
sS'AAATGT'
p159
I600
sS'AATCAC'
p160
I2004
sS'GGGTCT'
p161
I426
sS'TCTAGT'
p162
I344
sS'TTGCCG'
p163
I222
sS'TTGCCA'
p164
I1163
sS'TTGCCC'
p165
I945
sS'ACTGCC'
p166
I753
sS'TTGCCT'
p167
I538
sS'TCTAGG'
p168
I911
sS'GGGTAA'
p169
I415
sS'TCTAGA'
p170
I899
sS'GGGTAG'
p171
I466
sS'TCTAGC'
p172
I723
sS'ATACGG'
p173
I73
sS'TGACTA'
p174
I485
sS'ATACAT'
p175
I176
sS'AGATGT'
p176
I401
sS'TCGCCC'
p177
I243
sS'TCGCCA'
p178
I177
sS'ATAGTC'
p179
I157
sS'TCGCCG'
p180
I109
sS'GGTAAT'
p181
I204
sS'ACCCAT'
p182
I254
sS'ACCCAC'
p183
I1068
sS'GGTAAC'
p184
I795
sS'ACCCAA'
p185
I816
sS'GGTAAA'
p186
I934
sS'ACCCAG'
p187
I1287
sS'GGTAAG'
p188
I1036
sS'TCGCCT'
p189
I113
sS'AGATGC'
p190
I594
sS'CCCCAT'
p191
I315
sS'TTGGGT'
p192
I334
sS'CACTAG'
p193
I1843
sS'CACTAA'
p194
I2592
sS'CACTAC'
p195
I1892
sS'CCCCAA'
p196
I1037
sS'CCCCAC'
p197
I1427
sS'CCCCAG'
p198
I1545
sS'CACTAT'
p199
I647
sS'TTGGGG'
p200
I1137
sS'TCGGTT'
p201
I56
sS'TTGGGA'
p202
I721
sS'TTGGGC'
p203
I768
sS'TGCCTG'
p204
I5910
sS'GTGGGT'
p205
I511
sS'TTTCTG'
p206
I5428
sS'TGCAGC'
p207
I4285
sS'TTTCTA'
p208
I3524
sS'TTTCTC'
p209
I2229
sS'TGCAGG'
p210
I4239
sS'ACGCCT'
p211
I102
sS'AGGATT'
p212
I251
sS'TTTCTT'
p213
I974
sS'TGCCTT'
p214
I948
sS'TGCAGT'
p215
I1600
sS'ACGATG'
p216
I231
sS'NNNTGA'
p217
I1
sS'ACAATT'
p218
I163
sS'AAGGAA'
p219
I2348
sS'TACAGT'
p220
I1818
sS'AAGGAC'
p221
I1391
sS'AAGGAG'
p222
I2283
sS'ATATGC'
p223
I515
sS'ATATGA'
p224
I595
sS'TACGAA'
p225
I350
sS'ATATGG'
p226
I439
sS'AAGGAT'
p227
I307
sS'CTATCA'
p228
I714
sS'ACATTT'
p229
I314
sS'ATATGT'
p230
I389
sS'ACTATT'
p231
I179
sS'GGTCCC'
p232
I773
sS'GCCCAG'
p233
I2138
sS'GGTCCA'
p234
I508
sS'GCCCAA'
p235
I899
sS'GGTCCG'
p236
I238
sS'GCCCAC'
p237
I1327
sS'TGTGTC'
p238
I944
sS'AGACCC'
p239
I311
sS'CTTCGG'
p240
I451
sS'TCTTGT'
p241
I711
sS'CTTCGC'
p242
I509
sS'CTTAGT'
p243
I412
sS'TCCGGG'
p244
I1344
sS'AGGTCA'
p245
I1677
sS'AAAGTT'
p246
I226
sS'TCCGGC'
p247
I1054
sS'GGTCCT'
p248
I299
sS'TCCGGA'
p249
I546
sS'CTTAGC'
p250
I1082
sS'TCTTGA'
p251
I1366
sS'CTTAGA'
p252
I1168
sS'TCTTGC'
p253
I1583
sS'CTTAGG'
p254
I1049
sS'GTATCC'
p255
I391
sS'AGACCT'
p256
I172
sS'GCCTTT'
p257
I1271
sS'ATTTTG'
p258
I2360
sS'TCCAGG'
p259
I3020
sS'ATTTTA'
p260
I3016
sS'TAAATT'
p261
I288
sS'ATTTTC'
p262
I983
sS'GAGGTC'
p263
I1318
sS'TAGCAG'
p264
I1104
sS'GATACT'
p265
I777
sS'TAGCAC'
p266
I810
sS'TAGCAA'
p267
I889
sS'TAAATA'
p268
I2414
sS'ATTTTT'
p269
I566
sS'GCCTTG'
p270
I4722
sS'TAGTGT'
p271
I749
sS'GCCTTA'
p272
I2780
sS'TTGACA'
p273
I1026
sS'GCCTTC'
p274
I2952
sS'GATACG'
p275
I298
sS'TAGCAT'
p276
I313
sS'GATACC'
p277
I1203
sS'GATTTC'
p278
I1959
sS'TGAGCT'
p279
I283
sS'ACGGAC'
p280
I94
sS'GATCAT'
p281
I440
sS'AAGACA'
p282
I3067
sS'AAGACC'
p283
I1758
sS'GATTTA'
p284
I3187
sS'AAGACG'
p285
I605
sS'GATCAG'
p286
I1804
sS'TGAGCG'
p287
I137
sS'ACGCTG'
p288
I439
sS'TGAGCA'
p289
I677
sS'TGAGCC'
p290
I576
sS'GGACTA'
p291
I269
sS'AAGACT'
p292
I907
sS'ACCACG'
p293
I528
sS'GCGGTA'
p294
I194
sS'GCGGTG'
p295
I618
sS'CTATCG'
p296
I108
sS'CGGTGT'
p297
I182
sS'TCGTTA'
p298
I225
sS'TCGTTC'
p299
I131
sS'ATGTGG'
p300
I1633
sS'ACTTGT'
p301
I502
sS'TTGGAG'
p302
I606
sS'GAGTTT'
p303
I895
sS'GCGGTT'
p304
I60
sS'ACTTGC'
p305
I1100
sS'ATGTGA'
p306
I1347
sS'ACTTGA'
p307
I1052
sS'CGGTGG'
p308
I526
sS'ACTTGG'
p309
I968
sS'CGGTGA'
p310
I306
sS'CGGTGC'
p311
I510
sS'TTCCTA'
p312
I3850
sS'TAGACT'
p313
I571
sS'TTCCTC'
p314
I4714
sS'ATGTGC'
p315
I1255
sS'TGGGTT'
p316
I249
sS'TTCCTG'
p317
I8753
sS'TCCTTT'
p318
I2210
sS'CAGTTG'
p319
I2649
sS'ACGCTA'
p320
I149
sS'TAGACG'
p321
I287
sS'TTCCTT'
p322
I1718
sS'TAGACC'
p323
I976
sS'TAGACA'
p324
I1621
sS'TCCTTG'
p325
I5068
sS'TCCTTA'
p326
I4009
sS'TCCTTC'
p327
I4126
sS'ATCTCT'
p328
I1263
sS'CCGATA'
p329
I78
sS'ACCGTT'
p330
I73
sS'TGGCGC'
p331
I429
sS'TGGCGA'
p332
I204
sS'TGGCGG'
p333
I514
sS'ATCTCG'
p334
I471
sS'ATCTCA'
p335
I3430
sS'ATCTCC'
p336
I2053
sS'GGCCAA'
p337
I1088
sS'GTAAAT'
p338
I240
sS'GGCCAC'
p339
I1268
sS'ACCGTG'
p340
I744
sS'ACCGTA'
p341
I325
sS'GGCCAG'
p342
I1493
sS'ACCGTC'
p343
I223
sS'ACTGAA'
p344
I906
sS'AGATTA'
p345
I678
sS'TGAACC'
p346
I439
sS'GGCAGT'
p347
I1022
sS'TATGAT'
p348
I313
sS'CAAAGG'
p349
I1385
sS'CCATAC'
p350
I174
sS'CAAAGA'
p351
I1257
sS'AGATTC'
p352
I253
sS'CAAAGC'
p353
I1335
sS'CCATAG'
p354
I168
sS'GGCAGA'
p355
I3011
sS'GGCAGC'
p356
I3992
sS'AACGTA'
p357
I713
sS'GGCAGG'
p358
I4935
sS'CAACGC'
p359
I122
sS'CTAACA'
p360
I750
sS'CAACGA'
p361
I97
sS'CTAACC'
p362
I602
sS'CAACGG'
p363
I116
sS'GCACTG'
p364
I653
sS'GGGGGT'
p365
I246
sS'TACGCT'
p366
I191
sS'AGATTG'
p367
I612
sS'CGATCT'
p368
I25
sS'CTCTAG'
p369
I2657
sS'CTCTAA'
p370
I3032
sS'CTCTAC'
p371
I2520
sS'GGGGGG'
p372
I523
sS'TACGCA'
p373
I568
sS'TACGCC'
p374
I468
sS'GGGGGC'
p375
I760
sS'CGATCG'
p376
I8
sS'GGGGGA'
p377
I690
sS'TACGCG'
p378
I248
sS'CTCTAT'
p379
I785
sS'ACCGAA'
p380
I210
sS'TGAACA'
p381
I734
sS'CAGACA'
p382
I2042
sS'CAGACG'
p383
I450
sS'CGCTAA'
p384
I453
sS'TAGTTG'
p385
I2148
sS'ACTAGT'
p386
I215
sS'TAGTTC'
p387
I1247
sS'TAGTTA'
p388
I2411
sS'CAGACT'
p389
I647
sS'GCGAAC'
p390
I108
sS'TAGTTT'
p391
I720
sS'GCTAAC'
p392
I523
sS'GCTAAA'
p393
I612
sS'TGCATT'
p394
I733
sS'GCGAAA'
p395
I88
sS'AACCCT'
p396
I1041
sS'AACCCC'
p397
I2323
sS'AACCCA'
p398
I3048
sS'TGCATA'
p399
I3074
sS'TGCATC'
p400
I1242
sS'CGGTAG'
p401
I135
sS'AGATTT'
p402
I201
sS'AGTTTG'
p403
I3439
sS'AACTGG'
p404
I3348
sS'AGTTTC'
p405
I2425
sS'AACTGC'
p406
I4183
sS'CCCAGA'
p407
I2465
sS'CCCAGC'
p408
I3897
sS'CCCAGG'
p409
I3959
sS'AACTGT'
p410
I1821
sS'AGTTTT'
p411
I761
sS'CTACAT'
p412
I152
sS'CGAGTC'
p413
I99
sS'CCCAGT'
p414
I787
sS'TTGACG'
p415
I167
sS'CGCATA'
p416
I384
sS'ATACTG'
p417
I613
sS'CGCATC'
p418
I365
sS'CTTGAA'
p419
I848
sS'ATACTC'
p420
I190
sS'CGCATG'
p421
I916
sS'GCGCAA'
p422
I73
sS'GCGAAT'
p423
I35
sS'ATACTT'
p424
I192
sS'CTATCT'
p425
I342
sS'GCGCAC'
p426
I165
sS'GCTCCG'
p427
I379
sS'TATTGT'
p428
I1306
sS'GCTCCC'
p429
I874
sS'GCTCCA'
p430
I801
sS'CCTACT'
p431
I317
sS'TGTACT'
p432
I512
sS'TTTAGT'
p433
I538
sS'TATTGG'
p434
I1874
sS'GCTCCT'
p435
I348
sS'TATTGC'
p436
I2142
sS'TATTGA'
p437
I2309
sS'TTTAGG'
p438
I1147
sS'TGTACG'
p439
I205
sS'CCTACG'
p440
I180
sS'TGTACA'
p441
I1283
sS'CCTACA'
p442
I604
sS'ACAGTG'
p443
I920
sS'CCTACC'
p444
I707
sS'TTCGCG'
p445
I256
sS'TTCGCA'
p446
I464
sS'TTCGCC'
p447
I616
sS'AGTATC'
p448
I461
sS'GACTAA'
p449
I3216
sS'AGTATA'
p450
I1235
sS'GACTAC'
p451
I2469
sS'AGTATG'
p452
I1453
sS'TTTGGA'
p453
I742
sS'GACTAG'
p454
I2282
sS'TTCGCT'
p455
I235
sS'TTTGGT'
p456
I388
sS'GACTAT'
p457
I778
sS'AGTATT'
p458
I281
sS'TTACTC'
p459
I315
sS'TTACTA'
p460
I701
sS'TTACTG'
p461
I946
sS'ACCTTG'
p462
I3063
sS'ACCTTC'
p463
I1640
sS'ACCTTA'
p464
I2106
sS'CTAATA'
p465
I896
sS'GTAAAC'
p466
I507
sS'ACGCTT'
p467
I80
sS'ACCTTT'
p468
I762
sS'ACAGGG'
p469
I577
sS'CTGGGA'
p470
I1443
sS'CTGGGC'
p471
I1769
sS'ACAGGC'
p472
I631
sS'ACAGGA'
p473
I776
sS'CTGGGG'
p474
I1898
sS'AGGACG'
p475
I512
sS'GCAGCT'
p476
I402
sS'CAGGAA'
p477
I1462
sS'TCGCTT'
p478
I74
sS'CAGGAG'
p479
I1453
sS'AGGACA'
p480
I1678
sS'GCGCAT'
p481
I48
sS'TTATAC'
p482
I273
sS'ACAGGT'
p483
I376
sS'CTGGGT'
p484
I556
sS'TTATAG'
p485
I315
sS'GTCAGA'
p486
I2996
sS'CTCCGA'
p487
I643
sS'TCGCTG'
p488
I389
sS'GAGTTG'
p489
I3521
sS'GCAGCG'
p490
I249
sS'AGGACT'
p491
I615
sS'TCGCTC'
p492
I198
sS'GCAGCC'
p493
I772
sS'CAGGAT'
p494
I226
sS'CCTCAG'
p495
I1233
sS'CCTCAA'
p496
I732
sS'CCTCAC'
p497
I831
sS'TATGTT'
p498
I535
sS'ATGGGC'
p499
I593
sS'TCTTTG'
p500
I4427
sS'ATGGGA'
p501
I706
sS'TCTTTA'
p502
I3450
sS'ATGGGG'
p503
I849
sS'TCTTTC'
p504
I2072
sS'CCTCAT'
p505
I255
sS'TCTTTT'
p506
I872
sS'TATGTG'
p507
I3542
sS'TATGTA'
p508
I2986
sS'ATGGGT'
p509
I226
sS'TATGTC'
p510
I857
sS'GAAAGA'
p511
I2775
sS'ATCAAG'
p512
I1521
sS'GAAAGC'
p513
I2282
sS'ATCAAC'
p514
I1234
sS'GAAAGG'
p515
I3010
sS'ATCAAA'
p516
I1715
sS'GGAACT'
p517
I288
sS'ACGTGG'
p518
I387
sS'CATGAG'
p519
I1466
sS'ATCAAT'
p520
I334
sS'TCAAAC'
p521
I416
sS'CATGAC'
p522
I1165
sS'CATGAA'
p523
I1246
sS'GTAGCG'
p524
I102
sS'CAAGTT'
p525
I214
sS'GCTTTG'
p526
I3652
sS'GCTTTA'
p527
I2369
sS'GCTTTC'
p528
I1504
sS'AGCGGT'
p529
I172
sS'GAGGAT'
p530
I402
sS'AAAGTA'
p531
I1292
sS'GCTTTT'
p532
I524
sS'CAAGTG'
p533
I1120
sS'GTAGCT'
p534
I263
sS'GCGGCC'
p535
I695
sS'CAAGTC'
p536
I393
sS'GCGGCA'
p537
I292
sS'CAAGTA'
p538
I735
sS'AACGGT'
p539
I148
sS'GGGGAA'
p540
I761
sS'TAATCG'
p541
I76
sS'ATGAAA'
p542
I1147
sS'TAATCA'
p543
I811
sS'TAATCC'
p544
I441
sS'TGCGAA'
p545
I243
sS'CGGCCC'
p546
I729
sS'CGACTA'
p547
I61
sS'CGGCCA'
p548
I488
sS'CGCTAT'
p549
I128
sS'CGGCCG'
p550
I308
sS'ATGAAG'
p551
I999
sS'GGTCTG'
p552
I2432
sS'TAATCT'
p553
I280
sS'GGTCTC'
p554
I1108
sS'GGTCTA'
p555
I1035
sS'AAAATG'
p556
I2387
sS'AAAATC'
p557
I391
sS'AAAATA'
p558
I2314
sS'TTCAGC'
p559
I3883
sS'TTCAGA'
p560
I4329
sS'TTCAGG'
p561
I4136
sS'GAACAT'
p562
I154
sS'TCGTCG'
p563
I60
sS'TTTAGC'
p564
I1077
sS'TGTTTT'
p565
I1442
sS'TCGGGA'
p566
I159
sS'GAACAA'
p567
I481
sS'ATCCCG'
p568
I282
sS'GAACAC'
p569
I448
sS'ATCCCC'
p570
I1095
sS'GAACAG'
p571
I621
sS'TTCAGT'
p572
I1968
sS'AGGCCG'
p573
I471
sS'ATTGCA'
p574
I571
sS'CACCAC'
p575
I2373
sS'CACCAA'
p576
I1847
sS'CACCAG'
p577
I2143
sS'TCCGTG'
p578
I1044
sS'AACGGG'
p579
I604
sS'TCCGTC'
p580
I532
sS'TCCGTA'
p581
I456
sS'ACGCGA'
p582
I70
sS'CACCAT'
p583
I485
sS'TCCGTT'
p584
I172
sS'AACATA'
p585
I3627
sS'AACATC'
p586
I1648
sS'GTCAGC'
p587
I3145
sS'GCACGG'
p588
I139
sS'TCAGCC'
p589
I614
sS'GCACGA'
p590
I75
sS'CAGTCC'
p591
I1739
sS'GCACGC'
p592
I193
sS'CAGTCA'
p593
I2505
sS'AACAAC'
p594
I3144
sS'GCAAGC'
p595
I511
sS'GCACGT'
p596
I84
sS'CAGTCT'
p597
I871
sS'GCAAGG'
p598
I655
sS'GTCAGT'
p599
I1037
sS'GTATAC'
p600
I249
sS'TTCCGT'
p601
I315
sS'GTATAA'
p602
I310
sS'GTATAG'
p603
I215
sS'CCGGAA'
p604
I194
sS'CCGGAC'
p605
I112
sS'CCGGAG'
p606
I181
sS'TATCAT'
p607
I542
sS'CTCGTA'
p608
I481
sS'TTCCGG'
p609
I1394
sS'TTCCGA'
p610
I492
sS'TTCCGC'
p611
I1180
sS'GTATAT'
p612
I235
sS'CGTCTC'
p613
I730
sS'TATCAA'
p614
I1468
sS'CGTCTG'
p615
I1197
sS'CCGGAT'
p616
I34
sS'CTCTTC'
p617
I5717
sS'TGTTAT'
p618
I574
sS'CTCTTA'
p619
I5674
sS'CTCTTG'
p620
I7332
sS'CCCGAT'
p621
I47
sS'TACGTA'
p622
I773
sS'TACGTC'
p623
I385
sS'TCTGGT'
p624
I337
sS'AACAAA'
p625
I6260
sS'CGCGAT'
p626
I51
sS'TACGTG'
p627
I1279
sS'TGTTAG'
p628
I1472
sS'GCTGTT'
p629
I311
sS'TGTTAC'
p630
I1295
sS'CTCTTT'
p631
I2839
sS'TGTTAA'
p632
I1838
sS'TCTGGG'
p633
I1142
sS'CGCGAC'
p634
I336
sS'GATATT'
p635
I400
sS'TCTGGC'
p636
I816
sS'TACGTT'
p637
I184
sS'CGCGAG'
p638
I515
sS'AGTCGT'
p639
I150
sS'TTACCT'
p640
I192
sS'CTCCAT'
p641
I518
sS'TTACCG'
p642
I81
sS'CTCCAC'
p643
I2134
sS'AGTCGG'
p644
I541
sS'TTACCC'
p645
I288
sS'CTCCAG'
p646
I2632
sS'TTACCA'
p647
I497
sS'AGTCGC'
p648
I542
sS'GTACCG'
p649
I55
sS'CCGACT'
p650
I70
sS'GCCTAC'
p651
I1273
sS'AATGCA'
p652
I2360
sS'GCCTAG'
p653
I1609
sS'CCGACA'
p654
I112
sS'GATATC'
p655
I520
sS'CCGACC'
p656
I213
sS'CCGACG'
p657
I85
sS'GCCTAT'
p658
I382
sS'TGACGG'
p659
I108
sS'ACGCGG'
p660
I152
sS'CCCGAG'
p661
I559
sS'CTCGTT'
p662
I174
sS'TCAGCG'
p663
I143
sS'CTAAGT'
p664
I378
sS'CCCGAA'
p665
I223
sS'CGCACA'
p666
I859
sS'ATACAC'
p667
I308
sS'CGCACC'
p668
I1017
sS'GGGTCG'
p669
I241
sS'ACTGCT'
p670
I391
sS'GGGTCA'
p671
I973
sS'CGCACG'
p672
I537
sS'GGGTCC'
p673
I842
sS'CTCACT'
p674
I1650
sS'TTTGTA'
p675
I2024
sS'ACTGCA'
p676
I1095
sS'TTTGTC'
p677
I686
sS'TATCTG'
p678
I3933
sS'CGCACT'
p679
I312
sS'TTTGTG'
p680
I2680
sS'ACTGCG'
p681
I244
sS'CTCACC'
p682
I3390
sS'CTCACA'
p683
I3653
sS'CTCACG'
p684
I840
sS'TAGTGG'
p685
I1628
sS'GTGAGG'
p686
I1984
sS'GATTTT'
p687
I825
sS'TAGTGC'
p688
I1318
sS'GTGAGC'
p689
I1444
sS'TAGTGA'
p690
I1557
sS'GTGAGA'
p691
I1593
sS'TCGACG'
p692
I47
sS'TCGACA'
p693
I71
sS'TCGACC'
p694
I105
sS'GATTTG'
p695
I3953
sS'GTGAGT'
p696
I594
sS'GTGGGG'
p697
I2178
sS'GTGGGA'
p698
I1318
sS'GTGGGC'
p699
I1257
sS'TCGACT'
p700
I41
sS'CTGGTT'
p701
I467
sS'TTGAGT'
p702
I506
sS'TCAAAA'
p703
I497
sS'CGAACG'
p704
I55
sS'CGAACC'
p705
I143
sS'CGAACA'
p706
I119
sS'CTGGTG'
p707
I2232
sS'CTGGTA'
p708
I1287
sS'CTGGTC'
p709
I697
sS'CTGCAA'
p710
I691
sS'CGAACT'
p711
I46
sS'TTGCAT'
p712
I327
sS'GACGAG'
p713
I927
sS'NNGAAT'
p714
I1
sS'CGTCTT'
p715
I158
sS'TTGCAG'
p716
I843
sS'ACTCCT'
p717
I281
sS'TTGCAC'
p718
I532
sS'TTGCAA'
p719
I563
sS'AAGATC'
p720
I697
sS'ACGTAC'
p721
I90
sS'GAGGGC'
p722
I3317
sS'TCGCAT'
p723
I38
sS'GTCGTG'
p724
I723
sS'GTCGTA'
p725
I313
sS'GTCGTC'
p726
I340
sS'CCGTTT'
p727
I91
sS'ACTGAT'
p728
I237
sS'ATATCG'
p729
I59
sS'GTCGTT'
p730
I101
sS'TCGCAG'
p731
I133
sS'TCCATG'
p732
I2469
sS'TCGCAC'
p733
I67
sS'CCGTTG'
p734
I332
sS'CCGTTA'
p735
I245
sS'CCGTTC'
p736
I169
sS'AATGCT'
p737
I739
sS'GGTACG'
p738
I121
sS'GGTACA'
p739
I609
sS'GGTACC'
p740
I452
sS'TATTTG'
p741
I5336
sS'CCAGTT'
p742
I184
sS'TATTTC'
p743
I2745
sS'TATTTA'
p744
I6286
sS'CCCCCT'
p745
I534
sS'GGTACT'
p746
I214
sS'AATGCG'
p747
I346
sS'AATCTT'
p748
I598
sS'AATGCC'
p749
I1372
sS'GCCGTG'
p750
I1289
sS'CCCCCC'
p751
I802
sS'CCCCCA'
p752
I1576
sS'TATTTT'
p753
I1953
sS'CCCCCG'
p754
I500
sS'CTTGAG'
p755
I996
sS'ATGATG'
p756
I1499
sS'ATGATA'
p757
I911
sS'AGACGC'
p758
I214
sS'TGCAAC'
p759
I1955
sS'TGCAAA'
p760
I3436
sS'TGCAAG'
p761
I2444
sS'GAAGTG'
p762
I2732
sS'ATGATT'
p763
I239
sS'CTTGAT'
p764
I199
sS'CGAATC'
p765
I42
sS'TTGAGG'
p766
I1472
sS'GCCATT'
p767
I431
sS'CAATGT'
p768
I272
sS'TTGAGC'
p769
I944
sS'TTGAGA'
p770
I1331
sS'GAGAAT'
p771
I693
sS'TGTCTT'
p772
I753
sS'CGAATA'
p773
I125
sS'AGTAGC'
p774
I1263
sS'AAGGCC'
p775
I2413
sS'ATAACC'
p776
I410
sS'AAGGCA'
p777
I2925
sS'ATAACA'
p778
I730
sS'AAGGCG'
p779
I778
sS'TCCAGA'
p780
I2120
sS'GAGGGT'
p781
I711
sS'TGTCTG'
p782
I4997
sS'GAGAAG'
p783
I4857
sS'GAGAAA'
p784
I4158
sS'TGTCTC'
p785
I2422
sS'GAGAAC'
p786
I2843
sS'TGTCTA'
p787
I2474
sS'TGTGGC'
p788
I1346
sS'TGTGGA'
p789
I915
sS'TGTGGG'
p790
I1583
sS'ATAACT'
p791
I263
sS'AAGGCT'
p792
I998
sS'CTGTAA'
p793
I960
sS'CAATTT'
p794
I150
sS'GCCCCG'
p795
I1127
sS'ACCAAG'
p796
I1557
sS'GGTCAG'
p797
I1122
sS'GCCCCC'
p798
I1657
sS'ATCATC'
p799
I926
sS'GCCCCA'
p800
I2122
sS'GGTCAC'
p801
I896
sS'GGTCAT'
p802
I200
sS'ACCAAT'
p803
I425
sS'GCCCCT'
p804
I748
sS'GAACTG'
p805
I1756
sS'AGGTAA'
p806
I620
sS'AGGTAC'
p807
I534
sS'TTTTGC'
p808
I2127
sS'TCTTAC'
p809
I891
sS'TTTTGA'
p810
I2356
sS'TCTTAA'
p811
I1134
sS'TTTTGG'
p812
I1835
sS'TCTTAG'
p813
I969
sS'AATTGC'
p814
I1698
sS'TAGCCA'
p815
I1548
sS'TGGGGT'
p816
I374
sS'CGCTCG'
p817
I783
sS'GATAAT'
p818
I500
sS'CGCTCA'
p819
I1264
sS'CGCTCC'
p820
I2036
sS'AATTGT'
p821
I866
sS'CGAGAG'
p822
I133
sS'GCCATC'
p823
I1005
sS'TCTTAT'
p824
I347
sS'GTTATG'
p825
I1195
sS'CGCTCT'
p826
I621
sS'TGGGGG'
p827
I1140
sS'GATAAC'
p828
I1314
sS'TAGCCT'
p829
I491
sS'TGGGGC'
p830
I1209
sS'GATAAG'
p831
I1845
sS'CTCTCA'
p832
I5881
sS'GATCCT'
p833
I575
sS'AAGAAT'
p834
I557
sS'CGAAGT'
p835
I83
sS'GTTATC'
p836
I288
sS'AAGAAC'
p837
I2119
sS'GATCCA'
p838
I1123
sS'AAGAAA'
p839
I4057
sS'GATCCC'
p840
I1204
sS'AAGAAG'
p841
I3385
sS'GATCCG'
p842
I407
sS'ATGCCG'
p843
I165
sS'AAGCAT'
p844
I402
sS'CAAGGG'
p845
I674
sS'ATCGAG'
p846
I159
sS'CAAGGC'
p847
I702
sS'GGTTCT'
p848
I552
sS'CAAGGA'
p849
I683
sS'GGTTCA'
p850
I1502
sS'GCAACC'
p851
I358
sS'GGTTCC'
p852
I1236
sS'CAAGGT'
p853
I303
sS'GGTTCG'
p854
I313
sS'CTGTAT'
p855
I430
sS'ATTATA'
p856
I1012
sS'ATTATC'
p857
I277
sS'TAGAAT'
p858
I429
sS'CAAACG'
p859
I193
sS'ATTATG'
p860
I1054
sS'AGTCTT'
p861
I528
sS'TAGAAA'
p862
I2068
sS'TAGAAC'
p863
I1263
sS'ATTATT'
p864
I255
sS'TAGAAG'
p865
I1938
sS'AGTCTA'
p866
I1980
sS'AGTCTC'
p867
I1725
sS'AGTCTG'
p868
I3503
sS'TAACTC'
p869
I324
sS'TAACTA'
p870
I784
sS'TAACTG'
p871
I1096
sS'ATCTAT'
p872
I442
sS'AGGTAT'
p873
I264
sS'GGCGCT'
p874
I345
sS'TAACTT'
p875
I224
sS'ATCTAG'
p876
I1180
sS'ATCTAC'
p877
I1119
sS'ATCTAA'
p878
I1580
sS'CCATGT'
p879
I366
sS'ACCAAA'
p880
I1472
sS'TGGAGG'
p881
I2117
sS'TGGAGA'
p882
I1366
sS'TGGAGC'
p883
I1341
sS'CCATGC'
p884
I477
sS'CCATGA'
p885
I368
sS'CCATGG'
p886
I445
sS'TGGAGT'
p887
I482
sS'ATTACG'
p888
I103
sS'TCAGTA'
p889
I548
sS'TCAGTC'
p890
I279
sS'CTCTCT'
p891
I3441
sS'GGGGAT'
p892
I148
sS'TCAGTG'
p893
I926
sS'CGATAT'
p894
I16
sS'CTCTCG'
p895
I1267
sS'GGGGAC'
p896
I522
sS'CTCTCC'
p897
I6190
sS'TCAGTT'
p898
I261
sS'GGGGAG'
p899
I1026
sS'ATGCAG'
p900
I645
sS'CGATAG'
p901
I24
sS'CGATAA'
p902
I19
sS'CGATAC'
p903
I31
sS'CTAAGG'
p904
I798
sS'GTGTTT'
p905
I985
sS'GCTACT'
p906
I288
sS'GTGGTT'
p907
I555
sS'CTAAGA'
p908
I748
sS'GTGTTC'
p909
I1488
sS'GTGTTA'
p910
I2646
sS'GTGTTG'
p911
I3303
sS'CGTGCC'
p912
I423
sS'GTGGTA'
p913
I1594
sS'GCTACA'
p914
I595
sS'GTGGTC'
p915
I740
sS'GCTACC'
p916
I508
sS'GTGGTG'
p917
I3044
sS'GCTACG'
p918
I161
sS'CGTGCA'
p919
I416
sS'TTTCGT'
p920
I141
sS'GATCGT'
p921
I154
sS'TGCCCT'
p922
I886
sS'AGCGTT'
p923
I192
sS'CGTGCG'
p924
I250
sS'TGCCCC'
p925
I1854
sS'TGCCCA'
p926
I2074
sS'TGCCCG'
p927
I558
sS'TTTCGG'
p928
I380
sS'AGCGTA'
p929
I501
sS'AGCGTC'
p930
I669
sS'AGCGTG'
p931
I1532
sS'GGCCCC'
p932
I1723
sS'GGCCCA'
p933
I1372
sS'CACGTG'
p934
I2618
sS'GGCCCG'
p935
I701
sS'CACGTA'
p936
I1083
sS'CACGTC'
p937
I737
sS'ACGTGC'
p938
I374
sS'ACGTGA'
p939
I277
sS'GGGACT'
p940
I531
sS'ACAGTC'
p941
I226
sS'CACGTT'
p942
I223
sS'TTCACG'
p943
I666
sS'GGCCCT'
p944
I609
sS'GGGACA'
p945
I1045
sS'AATTGA'
p946
I1889
sS'GGGACC'
p947
I1058
sS'TCGTGG'
p948
I233
sS'GGGACG'
p949
I484
sS'CTATAT'
p950
I211
sS'GCTGTC'
p951
I578
sS'AGAGAG'
p952
I969
sS'AGAGAA'
p953
I1051
sS'AGAGAC'
p954
I638
sS'TCGTGA'
p955
I136
sS'GTCTTT'
p956
I1778
sS'TCTATC'
p957
I299
sS'CCACCA'
p958
I533
sS'TCTATG'
p959
I1145
sS'AGAGAT'
p960
I283
sS'TTCACA'
p961
I4092
sS'ATGCTC'
p962
I582
sS'GTCTTG'
p963
I5071
sS'TCTATT'
p964
I288
sS'GTCTTC'
p965
I3340
sS'GTCTTA'
p966
I3829
sS'GCAGAG'
p967
I619
sS'GCTCAA'
p968
I663
sS'GCTCAC'
p969
I741
sS'GCAGAC'
p970
I266
sS'GCAGAA'
p971
I478
sS'GCTCAG'
p972
I1181
sS'AGACGT'
p973
I96
sS'ATGCGT'
p974
I80
sS'TTGCTG'
p975
I3197
sS'CTTGAC'
p976
I670
sS'TTGCTA'
p977
I1856
sS'TTGCTC'
p978
I1042
sS'GCAGAT'
p979
I211
sS'GCTCAT'
p980
I204
sS'CGAATT'
p981
I27
sS'GTTTGC'
p982
I1695
sS'TTGCTT'
p983
I603
sS'ATGCGG'
p984
I159
sS'TAGCCG'
p985
I275
sS'ATGCGC'
p986
I190
sS'ATGCGA'
p987
I110
sS'TGTAAG'
p988
I1682
sS'GGCTAG'
p989
I1269
sS'TGTAAC'
p990
I1493
sS'GGCTAC'
p991
I1178
sS'TGTAAA'
p992
I2069
sS'GGCTAA'
p993
I1495
sS'TTCGAG'
p994
I388
sS'TTGGTA'
p995
I1097
sS'ACTGTC'
p996
I401
sS'TTGGTC'
p997
I568
sS'TTCGAC'
p998
I210
sS'ACTGTG'
p999
I2058
sS'GTTTGG'
p1000
I1577
sS'GACTGC'
p1001
I5012
sS'GGCTAT'
p1002
I320
sS'TGTAAT'
p1003
I550
sS'GACTGG'
p1004
I4820
sS'TGTGGT'
p1005
I715
sS'TTGGTT'
p1006
I409
sS'ACTGTT'
p1007
I245
sS'GTTTCT'
p1008
I1052
sS'TTTTGT'
p1009
I1249
sS'CCTTTT'
p1010
I697
sS'GTTTCG'
p1011
I398
sS'GTTTCC'
p1012
I1939
sS'GTTTCA'
p1013
I2905
sS'ATAATG'
p1014
I953
sS'CCTTTA'
p1015
I2687
sS'CCTTTC'
p1016
I1666
sS'ATAATC'
p1017
I209
sS'ATAATA'
p1018
I915
sS'CCTTTG'
p1019
I3694
sS'ACAGAA'
p1020
I748
sS'ACAGAC'
p1021
I514
sS'ACAGAG'
p1022
I745
sS'TTATCT'
p1023
I457
sS'CTGGAC'
p1024
I528
sS'CTGGAA'
p1025
I677
sS'CTGGAG'
p1026
I1048
sS'ATATAA'
p1027
I385
sS'ACAGAT'
p1028
I340
sS'ACGTCT'
p1029
I111
sS'TGGGGA'
p1030
I1152
sS'TTATCA'
p1031
I734
sS'CTGGAT'
p1032
I168
sS'TTATCC'
p1033
I441
sS'CCAATG'
p1034
I764
sS'GGCGAG'
p1035
I814
sS'AAACCA'
p1036
I1069
sS'CCAATC'
p1037
I307
sS'AAACCC'
p1038
I580
sS'CCAATA'
p1039
I488
sS'TGTCGG'
p1040
I456
sS'GAGATC'
p1041
I999
sS'AACGAG'
p1042
I572
sS'GAGATA'
p1043
I2614
sS'AACGAA'
p1044
I612
sS'GAGATG'
p1045
I4581
sS'AACGAC'
p1046
I427
sS'ATTTGA'
p1047
I1375
sS'CCAATT'
p1048
I132
sS'ATTTGC'
p1049
I1560
sS'GGGTAT'
p1050
I166
sS'ATTTGG'
p1051
I984
sS'CCCTAG'
p1052
I1141
sS'TGTCGT'
p1053
I156
sS'CCCTAC'
p1054
I1192
sS'GAGATT'
p1055
I438
sS'CCCTAA'
p1056
I1303
sS'CATTAT'
p1057
I591
sS'CTACAC'
p1058
I265
sS'TGGATT'
p1059
I198
sS'ATCACA'
p1060
I2133
sS'ATCACC'
p1061
I1601
sS'CATGCT'
p1062
I580
sS'TGACAC'
p1063
I286
sS'ATCACG'
p1064
I429
sS'TGGATA'
p1065
I879
sS'TGGATC'
p1066
I339
sS'CATTAA'
p1067
I2002
sS'TGGATG'
p1068
I1607
sS'CATGCA'
p1069
I1973
sS'TGACAT'
p1070
I162
sS'CATGCC'
p1071
I1285
sS'ATCACT'
p1072
I766
sS'CATGCG'
p1073
I351
sS'GTAGAA'
p1074
I390
sS'GTAGAC'
p1075
I237
sS'GTAGAG'
p1076
I401
sS'GATTGG'
p1077
I2953
sS'ACAACC'
p1078
I417
sS'GATTGC'
p1079
I1942
sS'GATTGA'
p1080
I1882
sS'ACTAAG'
p1081
I745
sS'GTAGAT'
p1082
I99
sS'GGGTAC'
p1083
I310
sS'TGATGC'
p1084
I428
sS'GATTGT'
p1085
I881
sS'ACAACT'
p1086
I228
sS'GTCGAA'
p1087
I182
sS'TAATAG'
p1088
I377
sS'AGTCCG'
p1089
I305
sS'TAATAC'
p1090
I442
sS'GTCCGA'
p1091
I342
sS'TAATAA'
p1092
I562
sS'GTCCGC'
p1093
I801
sS'TGTTTA'
p1094
I4731
sS'ACTCTT'
p1095
I296
sS'GTCCGT'
p1096
I187
sS'TAATAT'
p1097
I258
sS'ATTCGC'
p1098
I148
sS'TTCTCC'
p1099
I5369
sS'TGAACT'
p1100
I347
sS'TTCTCA'
p1101
I7874
sS'ATCCAT'
p1102
I238
sS'TTCTCG'
p1103
I1098
sS'ATAGCA'
p1104
I541
sS'TCGTAC'
p1105
I42
sS'TACCTT'
p1106
I975
sS'TCGTAA'
p1107
I60
sS'TCGTAG'
p1108
I82
sS'TCGTCA'
p1109
I152
sS'GAACCT'
p1110
I237
sS'ATCCAA'
p1111
I651
sS'ATCCAC'
p1112
I705
sS'TTTCAT'
p1113
I586
sS'TTCTCT'
p1114
I3908
sS'ATCCAG'
p1115
I788
sS'GAACCC'
p1116
I437
sS'TTATAT'
p1117
I244
sS'GAACCA'
p1118
I655
sS'GAACCG'
p1119
I165
sS'TACCTC'
p1120
I2192
sS'TCGTAT'
p1121
I38
sS'ATGTTA'
p1122
I1976
sS'ACCATA'
p1123
I1414
sS'ACCATG'
p1124
I2344
sS'ATGTTG'
p1125
I2122
sS'AGCTCT'
p1126
I1989
sS'TGTCCT'
p1127
I559
sS'AGTGGT'
p1128
I421
sS'CGTGGT'
p1129
I162
sS'TGATGT'
p1130
I330
sS'ATGTTT'
p1131
I544
sS'ACCATT'
p1132
I319
sS'CGTAAA'
p1133
I252
sS'AGCTCG'
p1134
I909
sS'AGTGGC'
p1135
I1131
sS'AGCTCC'
p1136
I3720
sS'AGTGGG'
p1137
I1314
sS'ATAGCC'
p1138
I266
sS'CAGTAA'
p1139
I957
sS'CAGTAC'
p1140
I732
sS'CAGTAG'
p1141
I853
sS'AACGTT'
p1142
I214
sS'TTTCAC'
p1143
I1660
sS'CAGTAT'
p1144
I324
sS'ATTGAA'
p1145
I523
sS'AAAGTC'
p1146
I531
sS'AAAGTG'
p1147
I1880
sS'GATCTA'
p1148
I1944
sS'GATCTC'
p1149
I1769
sS'ATTGAC'
p1150
I387
sS'GATCTG'
p1151
I3949
sS'TCCCTT'
p1152
I1008
sS'CCGGCC'
p1153
I680
sS'GTTCCG'
p1154
I230
sS'CCGGCG'
p1155
I209
sS'ACTCTC'
p1156
I660
sS'GTTCCC'
p1157
I812
sS'TCCCTC'
p1158
I2707
sS'TGTCCG'
p1159
I263
sS'TCCCTA'
p1160
I2419
sS'TGCCAC'
p1161
I1543
sS'TCCCTG'
p1162
I5007
sS'GATCTT'
p1163
I660
sS'CTAGAC'
p1164
I273
sS'ATAGAA'
p1165
I486
sS'CACAAT'
p1166
I743
sS'AAGTGC'
p1167
I2241
sS'TGTTCT'
p1168
I1307
sS'AAGTGG'
p1169
I2568
sS'TGATTG'
p1170
I849
sS'TCTGAT'
p1171
I271
sS'TGTATT'
p1172
I412
sS'TGATTA'
p1173
I620
sS'TGTTCA'
p1174
I2991
sS'CACAAG'
p1175
I2998
sS'TGTTCC'
p1176
I1726
sS'CACAAA'
p1177
I3661
sS'CACAAC'
p1178
I2475
sS'TGTTCG'
p1179
I387
sS'TCTGAA'
p1180
I810
sS'TCTGAC'
p1181
I748
sS'TCTGAG'
p1182
I1101
sS'CGCGCC'
p1183
I1503
sS'CGCGCA'
p1184
I748
sS'AGATGG'
p1185
I654
sS'CGCGCG'
p1186
I817
sS'CTCCCT'
p1187
I1530
sS'AGCGGG'
p1188
I1029
sS'AGCGGA'
p1189
I579
sS'AGCGGC'
p1190
I1103
sS'AGATGA'
p1191
I710
sS'GAAATA'
p1192
I1883
sS'CGCGCT'
p1193
I289
sS'GTGCGA'
p1194
I234
sS'ACCTCA'
p1195
I2612
sS'CCGAGG'
p1196
I371
sS'CTCCCC'
p1197
I3793
sS'GCCTCT'
p1198
I1732
sS'TAAGCC'
p1199
I680
sS'TAGCTC'
p1200
I1115
sS'CCCATG'
p1201
I2532
sS'CGGGAA'
p1202
I194
sS'CCCATA'
p1203
I1447
sS'TAGCTG'
p1204
I3170
sS'CCCATC'
p1205
I1023
sS'CCGAGA'
p1206
I185
sS'CCTGCT'
p1207
I509
sS'CCGAAT'
p1208
I26
sS'CCCATT'
p1209
I477
sS'CGGGAT'
p1210
I48
sS'GCCTCG'
p1211
I1320
sS'GCCTCA'
p1212
I3719
sS'TAAGCT'
p1213
I262
sS'GCCTCC'
p1214
I4946
sS'CCGAAC'
p1215
I89
sS'CCTGCG'
p1216
I423
sS'CCGAAA'
p1217
I95
sS'CCGAAG'
p1218
I185
sS'CCTGCC'
p1219
I1455
sS'CCTGCA'
p1220
I1189
sS'GTACTG'
p1221
I677
sS'CCATTC'
p1222
I309
sS'TATAAG'
p1223
I1582
sS'TATAAA'
p1224
I2591
sS'TATAAC'
p1225
I1351
sS'TATAAT'
p1226
I640
sS'GTTCTA'
p1227
I1561
sS'CCATTT'
p1228
I243
sS'TCTACA'
p1229
I751
sS'TCTACC'
p1230
I639
sS'CTAACT'
p1231
I280
sS'TCTACG'
p1232
I147
sS'ACTTTC'
p1233
I1158
sS'CGCAAC'
p1234
I446
sS'CGCAAA'
p1235
I437
sS'ATACCG'
p1236
I56
sS'CGCAAG'
p1237
I639
sS'ATACCA'
p1238
I363
sS'ATCGGC'
p1239
I192
sS'TCTACT'
p1240
I377
sS'CCGAGT'
p1241
I89
sS'ATACCT'
p1242
I161
sS'CGCAAT'
p1243
I109
sS'AAACTG'
p1244
I1777
sS'ATTTCT'
p1245
I659
sS'TAGTAC'
p1246
I632
sS'CTCAAG'
p1247
I2872
sS'CTCAAA'
p1248
I3419
sS'TAGTAG'
p1249
I787
sS'CTCAAC'
p1250
I2132
sS'GTGTGC'
p1251
I2381
sS'GTGTGA'
p1252
I2098
sS'GTGTGG'
p1253
I2775
sS'TAACGG'
p1254
I133
sS'TTGCGT'
p1255
I112
sS'CTCAAT'
p1256
I517
sS'TAGTAT'
p1257
I368
sS'CTCCCG'
p1258
I1181
sS'GTGTGT'
p1259
I2068
sS'ATCTTT'
p1260
I1138
sS'GTTGGG'
p1261
I778
sS'GTTGGA'
p1262
I501
sS'GTTGGC'
p1263
I566
sS'CCTTGG'
p1264
I1315
sS'CCTTGA'
p1265
I1112
sS'GCGTAT'
p1266
I33
sS'CCTTGC'
p1267
I1323
sS'GGACGT'
p1268
I48
sS'GTTGGT'
p1269
I264
sS'ATCTTG'
p1270
I3720
sS'ATCTTA'
p1271
I3129
sS'ATCTTC'
p1272
I1971
sS'AGGATC'
p1273
I499
sS'AGGATA'
p1274
I1336
sS'AAACTA'
p1275
I1095
sS'AGGATG'
p1276
I2756
sS'GACATG'
p1277
I4563
sS'GACATC'
p1278
I1752
sS'GACATA'
p1279
I2868
sS'TCGGCG'
p1280
I110
sS'GAATAT'
p1281
I188
sS'GGTGCA'
p1282
I767
sS'TCGGCC'
p1283
I334
sS'ATCAGA'
p1284
I1934
sS'TTGCGA'
p1285
I119
sS'GACATT'
p1286
I881
sS'TTGCGG'
p1287
I253
sS'GAATAG'
p1288
I370
sS'TCGGCT'
p1289
I92
sS'ATCAGC'
p1290
I1823
sS'GAATAC'
p1291
I347
sS'GAATAA'
p1292
I482
sS'ACTTTT'
p1293
I425
sS'TGCAGA'
p1294
I3717
sS'CGACAG'
p1295
I66
sS'ATACAA'
p1296
I286
sS'GGACGA'
p1297
I80
sS'TGCCTC'
p1298
I2700
sS'ACGTCG'
p1299
I74
sS'TTATAA'
p1300
I442
sS'GAAATG'
p1301
I3126
sS'AATGAT'
p1302
I421
sS'TGCCTA'
p1303
I2823
sS'GAAATC'
p1304
I573
sS'ACCGGT'
p1305
I80
sS'GAAATT'
p1306
I253
sS'AATGAA'
p1307
I2290
sS'ATGTCC'
p1308
I1012
sS'AATGAC'
p1309
I1721
sS'AATGAG'
p1310
I2310
sS'TGCACT'
p1311
I1119
sS'CTTGGC'
p1312
I858
sS'GTCCTT'
p1313
I843
sS'CTTGGG'
p1314
I1022
sS'ATACAG'
p1315
I291
sS'AGCCCT'
p1316
I1065
sS'GCGTAA'
p1317
I70
sS'TTGAAT'
p1318
I310
sS'GTCCTA'
p1319
I2059
sS'GTCCTC'
p1320
I2205
sS'TGCACG'
p1321
I697
sS'CTTGGT'
p1322
I368
sS'GTCCTG'
p1323
I4566
sS'TGCACC'
p1324
I2237
sS'TTGAAA'
p1325
I1126
sS'CTTTTC'
p1326
I2214
sS'AGCCCG'
p1327
I831
sS'AGCCCA'
p1328
I2461
sS'TTGAAG'
p1329
I1052
sS'TTAACT'
p1330
I396
sS'ATAAAT'
p1331
I294
sS'TGGTCG'
p1332
I183
sS'TGGTCA'
p1333
I1412
sS'TGGTCC'
p1334
I922
sS'ACGATT'
p1335
I19
sS'GAGACT'
p1336
I1305
sS'ACGGGG'
p1337
I295
sS'TGGTCT'
p1338
I663
sS'ATAAAG'
p1339
I583
sS'ATAAAA'
p1340
I776
sS'CTAAGC'
p1341
I658
sS'ATAAAC'
p1342
I571
sS'GAGACG'
p1343
I943
sS'ACGGGA'
p1344
I157
sS'CTACAG'
p1345
I366
sS'GAGACC'
p1346
I2584
sS'ACGATC'
p1347
I38
sS'GAGACA'
p1348
I3688
sS'ACGATA'
p1349
I115
sS'GGTTAC'
p1350
I754
sS'ATGTGT'
p1351
I869
sS'GGTTAA'
p1352
I1029
sS'ACCACT'
p1353
I718
sS'GGTTAG'
p1354
I799
sS'CTTCCT'
p1355
I1064
sS'GAATGT'
p1356
I395
sS'TAAACT'
p1357
I496
sS'CCAACA'
p1358
I454
sS'TCCGCT'
p1359
I431
sS'CTTCCA'
p1360
I1214
sS'CTTCCC'
p1361
I1850
sS'ACCACC'
p1362
I1740
sS'CGTATG'
p1363
I326
sS'CTTCCG'
p1364
I540
sS'GGTTAT'
p1365
I246
sS'TCCGCC'
p1366
I1756
sS'TCCGCA'
p1367
I646
sS'TCCGCG'
p1368
I518
sS'CGTACA'
p1369
I201
sS'AACGTC'
p1370
I545
sS'CGTGAG'
p1371
I430
sS'CGTGAA'
p1372
I215
sS'CGTGAC'
p1373
I398
sS'GGTAGC'
p1374
I737
sS'AGTGTG'
p1375
I2968
sS'TCTTCG'
p1376
I398
sS'AGTGTA'
p1377
I1571
sS'TCTTCA'
p1378
I2101
sS'AGTGTC'
p1379
I677
sS'TCTTCC'
p1380
I1893
sS'TAAGTG'
p1381
I1412
sS'TAAGTC'
p1382
I411
sS'TAAGTA'
p1383
I1146
sS'AGTAAA'
p1384
I1754
sS'TCTTCT'
p1385
I993
sS'AGTGTT'
p1386
I376
sS'GTGCGC'
p1387
I481
sS'TTGGCA'
p1388
I1057
sS'AAAGGT'
p1389
I369
sS'TTGGCC'
p1390
I1195
sS'AGTAAC'
p1391
I1320
sS'TTAACG'
p1392
I115
sS'TTGGCG'
p1393
I239
sS'GACTTC'
p1394
I4212
sS'TCGAGT'
p1395
I69
sS'GACTTA'
p1396
I3939
sS'GACTTG'
p1397
I5728
sS'ACGTAG'
p1398
I97
sS'AAAGGG'
p1399
I1313
sS'AAAGGA'
p1400
I1427
sS'TTGGCT'
p1401
I553
sS'AAAGGC'
p1402
I1082
sS'AGTAAG'
p1403
I1543
sS'GTCGAT'
p1404
I37
sS'GACTTT'
p1405
I2074
sS'TTCTTT'
p1406
I3628
sS'CAAGAA'
p1407
I621
sS'GACGTT'
p1408
I271
sS'CAAGAC'
p1409
I518
sS'CAAGAG'
p1410
I663
sS'CGTATT'
p1411
I55
sS'TTCTTG'
p1412
I7331
sS'TTCTTC'
p1413
I5247
sS'TTCTTA'
p1414
I7085
sS'CAAGAT'
p1415
I164
sS'AGGGCT'
p1416
I712
sS'TACGGG'
p1417
I471
sS'TACGGA'
p1418
I363
sS'TACGGC'
p1419
I436
sS'CCAACT'
p1420
I196
sS'TAGAGT'
p1421
I592
sS'TACGGT'
p1422
I154
sS'AGGGCG'
p1423
I575
sS'AGGGCA'
p1424
I1598
sS'AGGGCC'
p1425
I1654
sS'TCGAGA'
p1426
I138
sS'TAGAGC'
p1427
I1577
sS'TAGAGA'
p1428
I2301
sS'TAGAGG'
p1429
I2126
sS'AGTAAT'
p1430
I399
sS'GTGCTG'
p1431
I3998
sS'GTGCTA'
p1432
I1696
sS'ATCTGT'
p1433
I1198
sS'GTGCTC'
p1434
I1118
sS'GCTCGT'
p1435
I84
sS'ATCTGA'
p1436
I2438
sS'GTGCTT'
p1437
I537
sS'ATCTGC'
p1438
I2561
sS'TCGAGG'
p1439
I214
sS'CGAATG'
p1440
I229
sS'ATCTGG'
p1441
I2179
sS'ATCATA'
p1442
I1813
sS'GATAGC'
p1443
I1094
sS'AAGCAG'
p1444
I2356
sS'GATAGA'
p1445
I1596
sS'AAGCAA'
p1446
I1749
sS'GATAGG'
p1447
I1444
sS'ATCATG'
p1448
I2547
sS'TTTACC'
p1449
I851
sS'CATTTC'
p1450
I3184
sS'CTAGGT'
p1451
I247
sS'CATTTA'
p1452
I5443
sS'CATTTG'
p1453
I5673
sS'GTTATA'
p1454
I833
sS'CAAACA'
p1455
I1206
sS'TTTCAG'
p1456
I2190
sS'CAAACC'
p1457
I857
sS'CTCGGG'
p1458
I1082
sS'ATCATT'
p1459
I412
sS'GATAGT'
p1460
I530
sS'CTAGGG'
p1461
I504
sS'GTTATT'
p1462
I233
sS'CTAGGC'
p1463
I437
sS'CATTTT'
p1464
I1315
sS'CTAGGA'
p1465
I490
sS'AAGTTT'
p1466
I662
sS'AAGGTC'
p1467
I1027
sS'CTCGAA'
p1468
I304
sS'CTCGGC'
p1469
I1179
sS'GTATGG'
p1470
I447
sS'GGGGCT'
p1471
I472
sS'TACAGG'
p1472
I4393
sS'AAGTTG'
p1473
I2767
sS'GGATGC'
p1474
I278
sS'AAGTTA'
p1475
I2884
sS'TACAGC'
p1476
I3503
sS'AAGTTC'
p1477
I1336
sS'TACAGA'
p1478
I4641
sS'GGGGCC'
p1479
I1374
sS'GTATGA'
p1480
I590
sS'GGGGCA'
p1481
I995
sS'GGGGCG'
p1482
I708
sS'TATATC'
p1483
I700
sS'TATATA'
p1484
I3301
sS'TATATG'
p1485
I2687
sS'AGTTCT'
p1486
I1012
sS'TCCGGT'
p1487
I310
sS'CTATTC'
p1488
I439
sS'TATATT'
p1489
I624
sS'TAGTAA'
p1490
I1049
sS'TGATGG'
p1491
I435
sS'CTCGGT'
p1492
I220
sS'ATGAGT'
p1493
I430
sS'AGGTCT'
p1494
I629
sS'TGATGA'
p1495
I438
sS'TGCCAT'
p1496
I380
sS'CACATC'
p1497
I2001
sS'TGTTTC'
p1498
I2916
sS'CACATA'
p1499
I4017
sS'TTAATT'
p1500
I283
sS'CACATG'
p1501
I5502
sS'TGTTTG'
p1502
I5359
sS'ATGAGA'
p1503
I1185
sS'ATGAGC'
p1504
I817
sS'ATGAGG'
p1505
I1307
sS'TTAATA'
p1506
I1232
sS'ACTCTG'
p1507
I2309
sS'TGCCAG'
p1508
I1614
sS'ACTCTA'
p1509
I1122
sS'TGCCAA'
p1510
I1189
sS'CACATT'
p1511
I836
sS'TTAATG'
p1512
I1248
sS'AAATTC'
p1513
I334
sS'AAATTA'
p1514
I1263
sS'AAATTG'
p1515
I892
sS'CCAGTA'
p1516
I419
sS'TTCAAT'
p1517
I804
sS'GTATTT'
p1518
I378
sS'CGTACC'
p1519
I183
sS'TTAATC'
p1520
I276
sS'AAATTT'
p1521
I230
sS'CGTCTA'
p1522
I457
sS'GGGAAC'
p1523
I1009
sS'GGTGCG'
p1524
I295
sS'GGGAAA'
p1525
I1125
sS'GGGAAG'
p1526
I2097
sS'GGTGCC'
p1527
I723
sS'TCGTCC'
p1528
I252
sS'AGGTCC'
p1529
I1072
sS'AGAGCG'
p1530
I259
sS'GCGACT'
p1531
I63
sS'AGCGAT'
p1532
I118
sS'AGAGCC'
p1533
I800
sS'AGAGCA'
p1534
I916
sS'GCGTAG'
p1535
I97
sS'GGTGCT'
p1536
I295
sS'GCGTAC'
p1537
I67
sS'TAATTT'
p1538
I340
sS'GGGAAT'
p1539
I213
sS'GCGACG'
p1540
I134
sS'AGAGCT'
p1541
I382
sS'GCGACA'
p1542
I167
sS'TATCGG'
p1543
I243
sS'GCGACC'
p1544
I224
sS'AGGTCG'
p1545
I284
sS'GCAGGA'
p1546
I659
sS'GCAGGC'
p1547
I612
sS'GCAGGG'
p1548
I697
sS'GGCGAT'
p1549
I66
sS'GCACTA'
p1550
I247
sS'CCGTGC'
p1551
I299
sS'GCTCGG'
p1552
I547
sS'TATTCT'
p1553
I1556
sS'CCGTGG'
p1554
I317
sS'ACTTAC'
p1555
I657
sS'CTTTAG'
p1556
I1145
sS'GCAGGT'
p1557
I345
sS'ATTGTG'
p1558
I1112
sS'CTATAC'
p1559
I260
sS'TATTCC'
p1560
I1524
sS'CAATTG'
p1561
I581
sS'TATTCA'
p1562
I3682
sS'GGCGAA'
p1563
I287
sS'TATTCG'
p1564
I377
sS'GGCGAC'
p1565
I522
sS'TGTAGA'
p1566
I1386
sS'GGCTCA'
p1567
I3221
sS'TGTAGC'
p1568
I1186
sS'GGCTCC'
p1569
I3361
sS'TTTACG'
p1570
I172
sS'TGTAGG'
p1571
I1465
sS'GGCTCG'
p1572
I943
sS'TTCGGA'
p1573
I308
sS'TTCGGC'
p1574
I503
sS'AAATAG'
p1575
I569
sS'GTCTAC'
p1576
I1326
sS'TTCGGG'
p1577
I559
sS'ATTGTC'
p1578
I253
sS'AGCATG'
p1579
I4345
sS'GGCTCT'
p1580
I1310
sS'AGCATC'
p1581
I1528
sS'TTTACT'
p1582
I608
sS'AGCATA'
p1583
I2581
sS'AACCTT'
p1584
I928
sS'ATTGTA'
p1585
I847
sS'TTCGGT'
p1586
I158
sS'GTTTAT'
p1587
I351
sS'GTCTAG'
p1588
I1621
sS'GCACTC'
p1589
I201
sS'CGCTAC'
p1590
I504
sS'TGCTTG'
p1591
I5924
sS'GTTTAA'
p1592
I1303
sS'GAGGTG'
p1593
I5093
sS'CACGAA'
p1594
I401
sS'CAATCT'
p1595
I165
sS'GTTTAG'
p1596
I885
sS'CAGGTG'
p1597
I3067
sS'CGCTAG'
p1598
I478
sS'CTGGCT'
p1599
I848
sS'AGGCGG'
p1600
I1162
sS'AGGCGA'
p1601
I370
sS'AGGCGC'
p1602
I755
sS'AGGAGT'
p1603
I644
sS'ACAGCC'
p1604
I684
sS'GATAAA'
p1605
I2263
sS'ACAGCA'
p1606
I850
sS'TCCAGC'
p1607
I3010
sS'ACAGCG'
p1608
I170
sS'AGGAGC'
p1609
I1902
sS'GTCGGA'
p1610
I294
sS'AGGAGA'
p1611
I1972
sS'GTCGGC'
p1612
I597
sS'AGGAGG'
p1613
I4065
sS'CTGGCA'
p1614
I1788
sS'CTGGCC'
p1615
I2084
sS'GCGCCC'
p1616
I469
sS'GCATCG'
p1617
I70
sS'ACAGCT'
p1618
I405
sS'GCTCTC'
p1619
I985
sS'ATTGGT'
p1620
I286
sS'AATTTT'
p1621
I743
sS'TGTCAA'
p1622
I1145
sS'TGTCAC'
p1623
I1851
sS'AAACAC'
p1624
I768
sS'GGAAAC'
p1625
I694
sS'TGTCAG'
p1626
I1918
sS'AACGCG'
p1627
I430
sS'AATTTA'
p1628
I3192
sS'AATTTC'
p1629
I1302
sS'AACGCC'
p1630
I871
sS'AACGCA'
p1631
I774
sS'AATTTG'
p1632
I3015
sS'ATTTAC'
p1633
I821
sS'ATTTAA'
p1634
I1271
sS'TGTCAT'
p1635
I578
sS'CCCTCG'
p1636
I895
sS'TCCAGT'
p1637
I847
sS'CACGAT'
p1638
I99
sS'CAATAT'
p1639
I118
sS'TGACCA'
p1640
I352
sS'TGACCC'
p1641
I245
sS'TAAATC'
p1642
I473
sS'TGACCG'
p1643
I75
sS'TAGCGT'
p1644
I128
sS'GCGCCA'
p1645
I296
sS'CATTCG'
p1646
I512
sS'CATTCC'
p1647
I1750
sS'CATTCA'
p1648
I3856
sS'TCCATA'
p1649
I1526
sS'TAAATG'
p1650
I2387
sS'ACAAAT'
p1651
I263
sS'GATTAA'
p1652
I1985
sS'GTAGGC'
p1653
I407
sS'GATTAC'
p1654
I1837
sS'GTAGGA'
p1655
I457
sS'GTAGGG'
p1656
I476
sS'GATTAG'
p1657
I1505
sS'GGCTTT'
p1658
I1251
sS'ACAAAC'
p1659
I545
sS'TTTCAA'
p1660
I1633
sS'ACAAAA'
p1661
I753
sS'ACAAAG'
p1662
I660
sS'GCGGGC'
p1663
I509
sS'GTCGGT'
p1664
I126
sS'GCGGGA'
p1665
I382
sS'GCGGGG'
p1666
I845
sS'GATTAT'
p1667
I587
sS'GTAGGT'
p1668
I210
sS'AACCTG'
p1669
I4430
sS'TAATGA'
p1670
I815
sS'GATGTT'
p1671
I466
sS'TAATGC'
p1672
I607
sS'GGAGAT'
p1673
I127
sS'GCCCTT'
p1674
I733
sS'GCGCCG'
p1675
I250
sS'CAATAA'
p1676
I317
sS'GCCCTC'
p1677
I2070
sS'GATGTG'
p1678
I4148
sS'GCCCTA'
p1679
I1924
sS'GATGTA'
p1680
I2112
sS'GCCCTG'
p1681
I5343
sS'GATGTC'
p1682
I1043
sS'GGCGTG'
p1683
I1730
sS'TGAAAT'
p1684
I313
sS'TTCTAG'
p1685
I3155
sS'TTCTAA'
p1686
I4255
sS'ATCCGT'
p1687
I86
sS'TTCTAC'
p1688
I2543
sS'TGAAAA'
p1689
I755
sS'TTGGAT'
p1690
I114
sS'TGAAAC'
p1691
I977
sS'TGAAAG'
p1692
I1077
sS'TTCTAT'
p1693
I1104
sS'ATCCGC'
p1694
I378
sS'ATCCGA'
p1695
I191
sS'ATCCGG'
p1696
I398
sS'TGGCTC'
p1697
I955
sS'TGGCTA'
p1698
I1422
sS'TGGCTG'
p1699
I3479
sS'AGGCGT'
p1700
I203
sS'AGTTGT'
p1701
I789
sS'AGCTAT'
p1702
I644
sS'ATTAGT'
p1703
I304
sS'CTGGCG'
p1704
I445
sS'CGTCGA'
p1705
I118
sS'TGGCTT'
p1706
I446
sS'AGTTGG'
p1707
I1401
sS'AGCTAA'
p1708
I2437
sS'AGCTAC'
p1709
I2048
sS'AGTTGC'
p1710
I1655
sS'AGTTGA'
p1711
I1577
sS'AGCTAG'
p1712
I1890
sS'CGTTGA'
p1713
I360
sS'GCACCT'
p1714
I199
sS'CAGTGT'
p1715
I967
sS'TAACAA'
p1716
I424
sS'TCAGGT'
p1717
I279
sS'TCAAGG'
p1718
I651
sS'GTCGGG'
p1719
I729
sS'TCAAGC'
p1720
I483
sS'CATGGA'
p1721
I881
sS'GCACCA'
p1722
I329
sS'CAGTGC'
p1723
I2229
sS'GCACCC'
p1724
I290
sS'CAGTGA'
p1725
I2073
sS'CAGTGG'
p1726
I2266
sS'CTAATG'
p1727
I1033
sS'TCAAGT'
p1728
I323
sS'TCAGGG'
p1729
I487
sS'GAGCCC'
p1730
I2731
sS'TCAGGC'
p1731
I435
sS'CGAGCT'
p1732
I73
sS'CGTTGG'
p1733
I491
sS'CAACCA'
p1734
I518
sS'AGTCAA'
p1735
I1265
sS'TTCCCT'
p1736
I1441
sS'ACCACA'
p1737
I2909
sS'CGAGCA'
p1738
I141
sS'GAGCCG'
p1739
I1091
sS'CGAGCC'
p1740
I240
sS'GTTCAG'
p1741
I1023
sS'TTCCCC'
p1742
I3398
sS'GTTCAC'
p1743
I754
sS'TTCCCG'
p1744
I790
sS'GATCAC'
p1745
I1733
sS'GGACCT'
p1746
I102
sS'CTTACT'
p1747
I503
sS'TACATG'
p1748
I4157
sS'AAGTAC'
p1749
I1101
sS'CACACT'
p1750
I1581
sS'TACATC'
p1751
I1429
sS'AAGTAG'
p1752
I1129
sS'TACATA'
p1753
I4256
sS'GCACAC'
p1754
I287
sS'ATTTAT'
p1755
I414
sS'AACGCT'
p1756
I307
sS'GGACCA'
p1757
I195
sS'TCATCA'
p1758
I600
sS'GGACCC'
p1759
I205
sS'CACACG'
p1760
I1129
sS'TACATT'
p1761
I1091
sS'CACACC'
p1762
I3530
sS'CTGCAT'
p1763
I308
sS'CACACA'
p1764
I7959
sS'ACGGTC'
p1765
I76
sS'TCTGCC'
p1766
I1163
sS'TCTGCA'
p1767
I1258
sS'AGGTAG'
p1768
I655
sS'TCTGCG'
p1769
I344
sS'CTTACC'
p1770
I880
sS'TAGATT'
p1771
I285
sS'ATTGCC'
p1772
I420
sS'CCCGTC'
p1773
I482
sS'TTAAGG'
p1774
I840
sS'CCCGTA'
p1775
I407
sS'TTAAGA'
p1776
I980
sS'CCCGTG'
p1777
I1028
sS'TTAAGC'
p1778
I657
sS'TTACGT'
p1779
I69
sS'TAGATC'
p1780
I519
sS'AAACAG'
p1781
I879
sS'TAGATA'
p1782
I1823
sS'TTTCGC'
p1783
I352
sS'TAGATG'
p1784
I2431
sS'GCGCCT'
p1785
I148
sS'TCTGCT'
p1786
I527
sS'TTACGC'
p1787
I80
sS'TTAAGT'
p1788
I425
sS'TTACGA'
p1789
I68
sS'TTACGG'
p1790
I100
sS'CCCGTT'
p1791
I146
sS'AGTGAC'
p1792
I1261
sS'AGTGAA'
p1793
I1370
sS'AGTGAG'
p1794
I1780
sS'GCGGTC'
p1795
I155
sS'CGGGCG'
p1796
I357
sS'CCCTCT'
p1797
I1315
sS'TAAGAG'
p1798
I694
sS'CGGGCC'
p1799
I796
sS'TAAGAA'
p1800
I742
sS'CGGGCA'
p1801
I424
sS'TAAGAC'
p1802
I474
sS'AAACAA'
p1803
I979
sS'AGTGAT'
p1804
I373
sS'CTTTCC'
p1805
I2420
sS'TAAGAT'
p1806
I166
sS'CCTGAA'
p1807
I589
sS'CCTGAC'
p1808
I594
sS'CCTGAG'
p1809
I909
sS'GTTAGG'
p1810
I912
sS'GCCAAC'
p1811
I1184
sS'TATACT'
p1812
I717
sS'GTTAGC'
p1813
I687
sS'GTTAGA'
p1814
I962
sS'GCCAAA'
p1815
I1345
sS'TATACG'
p1816
I263
sS'GTTAGT'
p1817
I310
sS'TATACC'
p1818
I1032
sS'TATACA'
p1819
I1975
sS'ATTGGC'
p1820
I748
sS'CGTATA'
p1821
I215
sS'CAATTA'
p1822
I711
sS'GTAATG'
p1823
I1031
sS'TTTATT'
p1824
I531
sS'GTAATA'
p1825
I802
sS'ATTGGA'
p1826
I427
sS'GTAATC'
p1827
I252
sS'TCTAAC'
p1828
I700
sS'CGTTCT'
p1829
I236
sS'CCACCG'
p1830
I155
sS'CGGATC'
p1831
I124
sS'TCTAAG'
p1832
I953
sS'CCACCC'
p1833
I563
sS'GTTCGT'
p1834
I70
sS'TTTATG'
p1835
I2022
sS'ACTAGG'
p1836
I613
sS'GTAACG'
p1837
I141
sS'TTTATC'
p1838
I532
sS'ACTAGC'
p1839
I461
sS'TTTATA'
p1840
I1998
sS'ACTAGA'
p1841
I660
sS'CCACCT'
p1842
I287
sS'CGTTCG'
p1843
I218
sS'TCGTTG'
p1844
I303
sS'CGTTCA'
p1845
I535
sS'CGTTCC'
p1846
I584
sS'TCTAAT'
p1847
I232
sS'TCGTCT'
p1848
I84
sS'CTTTGT'
p1849
I1075
sS'CCCTCC'
p1850
I4636
sS'ACTGGA'
p1851
I498
sS'ACTGGC'
p1852
I647
sS'TAGTCC'
p1853
I1318
sS'GTGACC'
p1854
I1290
sS'TAGTCA'
p1855
I2352
sS'GTGACA'
p1856
I1662
sS'TAGTCG'
p1857
I219
sS'GTGACG'
p1858
I447
sS'ATTTAG'
p1859
I762
sS'ACTGGT'
p1860
I263
sS'CTTTGG'
p1861
I2077
sS'CCTATG'
p1862
I796
sS'AACGTG'
p1863
I1352
sS'CTTTGA'
p1864
I2338
sS'GTGACT'
p1865
I713
sS'TAGTCT'
p1866
I821
sS'GTGCAC'
p1867
I623
sS'GCGCTT'
p1868
I89
sS'ACCTAG'
p1869
I915
sS'GCAATT'
p1870
I121
sS'TGAGGT'
p1871
I320
sS'CGACGC'
p1872
I84
sS'ACCTAC'
p1873
I954
sS'CCGCAG'
p1874
I217
sS'CCGCAA'
p1875
I77
sS'CCGCAC'
p1876
I117
sS'CTACGG'
p1877
I127
sS'CGAAGC'
p1878
I231
sS'GCGCTG'
p1879
I712
sS'CGAAGA'
p1880
I193
sS'CCCCGT'
p1881
I201
sS'CGAAGG'
p1882
I307
sS'GCGCTC'
p1883
I292
sS'GTGCAT'
p1884
I206
sS'GCGCTA'
p1885
I231
sS'CCGCAT'
p1886
I33
sS'GTTCGC'
p1887
I255
sS'GAAGAT'
p1888
I251
sS'GGATCT'
p1889
I112
sS'TCGTTT'
p1890
I104
sS'TCGGAC'
p1891
I71
sS'GAATCT'
p1892
I287
sS'TCGGAG'
p1893
I140
sS'GGATCG'
p1894
I44
sS'GAAGAG'
p1895
I1410
sS'GAAGAA'
p1896
I1151
sS'GGATCC'
p1897
I196
sS'GAAGAC'
p1898
I931
sS'GGATCA'
p1899
I225
sS'GAATCA'
p1900
I971
sS'GAATCC'
p1901
I555
sS'TCGGAT'
p1902
I24
sS'GAATCG'
p1903
I130
sS'ATGGTC'
p1904
I338
sS'CAGATG'
p1905
I3291
sS'ACGCCG'
p1906
I106
sS'CATTCT'
p1907
I1361
sS'ATGGTG'
p1908
I1371
sS'CAGATC'
p1909
I614
sS'ACGCCC'
p1910
I279
sS'CAGATA'
p1911
I1779
sS'CTCGAG'
p1912
I475
sS'CAGATT'
p1913
I290
sS'ATGCAT'
p1914
I226
sS'ATGGTT'
p1915
I226
sS'TCGCAA'
p1916
I58
sS'TTGCGC'
p1917
I271
sS'GCTATT'
p1918
I226
sS'TGCGTC'
p1919
I567
sS'AATGGT'
p1920
I380
sS'GTTACG'
p1921
I162
sS'TGACCT'
p1922
I170
sS'CCCCGC'
p1923
I1793
sS'AATGGA'
p1924
I1509
sS'AATGGG'
p1925
I1382
sS'CAATAC'
p1926
I264
sS'GATCAA'
p1927
I1399
sS'CACTCT'
p1928
I1907
sS'CAACTC'
p1929
I269
sS'CAACTA'
p1930
I478
sS'ACGCAA'
p1931
I69
sS'GTGAAT'
p1932
I285
sS'TTGACC'
p1933
I785
sS'GGAGGG'
p1934
I919
sS'AAAAGT'
p1935
I625
sS'AGCCAC'
p1936
I2523
sS'GGAGGC'
p1937
I688
sS'TGGTAG'
p1938
I568
sS'CGCCAT'
p1939
I145
sS'GAGTGT'
p1940
I1160
sS'TGGTAC'
p1941
I426
sS'GAGGTA'
p1942
I2523
sS'TGGTAA'
p1943
I611
sS'AAAAGG'
p1944
I2012
sS'GGAGGT'
p1945
I289
sS'AGCCAT'
p1946
I495
sS'AAAAGC'
p1947
I1553
sS'AAAAGA'
p1948
I2352
sS'TTGACT'
p1949
I440
sS'GAGTGG'
p1950
I3015
sS'CGCCAG'
p1951
I630
sS'TGGTAT'
p1952
I278
sS'CGCCAA'
p1953
I351
sS'GAGTGC'
p1954
I2509
sS'CGCCAC'
p1955
I712
sS'GAGTGA'
p1956
I2674
sS'GCCAGG'
p1957
I3799
sS'GCCAGA'
p1958
I2133
sS'GCCAGC'
p1959
I2820
sS'GCCCGT'
p1960
I227
sS'TACCGA'
p1961
I419
sS'TACCGC'
p1962
I609
sS'TACCGG'
p1963
I507
sS'GCCCGC'
p1964
I1729
sS'GCCAGT'
p1965
I690
sS'GCCCGA'
p1966
I527
sS'GCCCGG'
p1967
I1595
sS'TGCGAT'
p1968
I87
sS'CTTCAC'
p1969
I1235
sS'CTTCAA'
p1970
I1027
sS'CTTCAG'
p1971
I1590
sS'TCCGAG'
p1972
I440
sS'TCCGAA'
p1973
I169
sS'TCCGAC'
p1974
I242
sS'AATTCA'
p1975
I2931
sS'TATTAG'
p1976
I1886
sS'AATTCC'
p1977
I1357
sS'ATTAGG'
p1978
I643
sS'AATTCG'
p1979
I339
sS'TCCGAT'
p1980
I52
sS'ACATAC'
p1981
I376
sS'TAGCGG'
p1982
I367
sS'TAGCGA'
p1983
I223
sS'TAGCGC'
p1984
I326
sS'GTCATC'
p1985
I1475
sS'GTCATA'
p1986
I2691
sS'GTCATG'
p1987
I3599
sS'AGCAGG'
p1988
I5138
sS'CCAGGT'
p1989
I319
sS'TTGGAA'
p1990
I493
sS'AGCAGC'
p1991
I5599
sS'AGCAGA'
p1992
I4372
sS'GTCATT'
p1993
I747
sS'ACGACC'
p1994
I115
sS'CCAGGG'
p1995
I630
sS'AGCAGT'
p1996
I1468
sS'CCAGGA'
p1997
I672
sS'CCAGGC'
p1998
I768
sS'AGCGCT'
p1999
I392
sS'ACGGTA'
p2000
I132
sS'CATCTG'
p2001
I5376
sS'GATCGG'
p2002
I399
sS'CATCTA'
p2003
I2647
sS'ATAGAC'
p2004
I258
sS'CATCTC'
p2005
I2351
sS'GATCGC'
p2006
I607
sS'ATTAGA'
p2007
I778
sS'GGATGG'
p2008
I363
sS'CCCTCA'
p2009
I2986
sS'CATCTT'
p2010
I854
sS'CAAGCA'
p2011
I965
sS'CAAGCG'
p2012
I190
sS'GTTCTT'
p2013
I418
sS'ACATGA'
p2014
I561
sS'CGTAAT'
p2015
I77
sS'ACATGC'
p2016
I588
sS'ACATGG'
p2017
I512
sS'CCCGCT'
p2018
I284
sS'GGCCAT'
p2019
I243
sS'CGTAAG'
p2020
I280
sS'GTTCTG'
p2021
I2892
sS'ACATGT'
p2022
I453
sS'CGTAAC'
p2023
I246
sS'GTTCTC'
p2024
I1102
sS'CCCGCG'
p2025
I647
sS'ACGGAA'
p2026
I140
sS'CCCGCC'
p2027
I3135
sS'CCCGCA'
p2028
I727
sS'GAGTCG'
p2029
I661
sS'AGCGCA'
p2030
I762
sS'TCTTGG'
p2031
I1485
sS'GTTGTT'
p2032
I245
sS'ATTAGC'
p2033
I668
sS'ATCCTT'
p2034
I447
sS'TTGTCG'
p2035
I204
sS'TTGTCC'
p2036
I1360
sS'TTGTCA'
p2037
I2119
sS'ATCCTC'
p2038
I1270
sS'GTTGTA'
p2039
I955
sS'TCAAGA'
p2040
I550
sS'GTTGTC'
p2041
I392
sS'ATCCTG'
p2042
I2793
sS'GTTGTG'
p2043
I1585
sS'TTGTCT'
p2044
I1093
sS'CTATGC'
p2045
I572
sS'CTGTGG'
p2046
I3282
sS'TGGGCC'
p2047
I1132
sS'TGACTC'
p2048
I313
sS'TGGGCA'
p2049
I1195
sS'TGGGCG'
p2050
I394
sS'TGACTG'
p2051
I833
sS'AAGCCG'
p2052
I578
sS'AAGCCC'
p2053
I1960
sS'AAGCCA'
p2054
I2702
sS'CAAAAT'
p2055
I303
sS'TGACTT'
p2056
I222
sS'TGGGCT'
p2057
I534
sS'CAAAAC'
p2058
I1026
sS'CAAAAA'
p2059
I838
sS'AAGCCT'
p2060
I769
sS'CAAAAG'
p2061
I998
sS'TGATTT'
p2062
I219
sS'TCAATG'
p2063
I643
sS'AAACTT'
p2064
I267
sS'TCAATC'
p2065
I130
sS'TCAATA'
p2066
I531
sS'CAGTTC'
p2067
I1535
sS'GACCCG'
p2068
I990
sS'GACCCA'
p2069
I2784
sS'GACCCC'
p2070
I2115
sS'CTCTGT'
p2071
I2775
sS'TCAATT'
p2072
I162
sS'TGGCGT'
p2073
I121
sS'CTCTGC'
p2074
I7585
sS'GACCCT'
p2075
I923
sS'CTCTGA'
p2076
I5236
sS'ACAATC'
p2077
I141
sS'CTCTGG'
p2078
I5740
sS'CAGTTT'
p2079
I708
sS'GCGAAG'
p2080
I166
sS'CTACTC'
p2081
I313
sS'TGCTGG'
p2082
I4604
sS'TGCTGA'
p2083
I4066
sS'GAGTCT'
p2084
I1311
sS'TGCTGC'
p2085
I5540
sS'AGCTGC'
p2086
I5515
sS'GCTGGT'
p2087
I330
sS'GTGATT'
p2088
I320
sS'ACGTTA'
p2089
I295
sS'TGCTGT'
p2090
I2373
sS'TAGGGC'
p2091
I1134
sS'TAATGG'
p2092
I597
sS'TCGCTA'
p2093
I186
sS'TGTACC'
p2094
I816
sS'GTGATG'
p2095
I2158
sS'GCTGGG'
p2096
I1536
sS'GTGATC'
p2097
I455
sS'GCTGGC'
p2098
I863
sS'GTGATA'
p2099
I1190
sS'GCTGGA'
p2100
I766
sS'TGATAA'
p2101
I270
sS'TGTAGT'
p2102
I700
sS'TGATAC'
p2103
I201
sS'TGATAG'
p2104
I203
sS'CTTGTT'
p2105
I364
sS'GACGGT'
p2106
I297
sS'GCTAGG'
p2107
I785
sS'GCTAGA'
p2108
I575
sS'ATGAAT'
p2109
I283
sS'GCTAGC'
p2110
I502
sS'ATAGGG'
p2111
I283
sS'TGATAT'
p2112
I142
sS'GTAGTG'
p2113
I731
sS'GCTAGT'
p2114
I235
sS'ATGAAC'
p2115
I667
sS'GACGGG'
p2116
I1479
sS'CTTGTG'
p2117
I2165
sS'GACGGA'
p2118
I896
sS'CTTGTA'
p2119
I1329
sS'GACGGC'
p2120
I1163
sS'CTTGTC'
p2121
I581
sS'GCACTT'
p2122
I186
sS'CTACTT'
p2123
I258
sS'CAACGT'
p2124
I56
sS'GGTGAA'
p2125
I664
sS'GGTGAC'
p2126
I869
sS'GCGTCT'
p2127
I144
sS'GACTGT'
p2128
I2340
sS'GGTGAG'
p2129
I1053
sS'GGAATG'
p2130
I743
sS'CGTCCT'
p2131
I186
sS'GGAATC'
p2132
I202
sS'GGAATA'
p2133
I432
sS'GCGTCA'
p2134
I274
sS'GCGTCC'
p2135
I416
sS'GGTGAT'
p2136
I189
sS'GCGTCG'
p2137
I111
sS'CAAACT'
p2138
I326
sS'CGTCCG'
p2139
I212
sS'GGAATT'
p2140
I130
sS'CGTCCC'
p2141
I579
sS'CGTCCA'
p2142
I332
sS'TTTCGA'
p2143
I267
sS'AGCTGT'
p2144
I1994
sS'CCGTAT'
p2145
I37
sS'GAAGTC'
p2146
I674
sS'GAAGTA'
p2147
I1332
sS'GCCGTC'
p2148
I491
sS'GCCGTA'
p2149
I456
sS'CCGTAC'
p2150
I70
sS'CCGTAA'
p2151
I71
sS'TTCGAA'
p2152
I281
sS'CAAAGT'
p2153
I460
sS'GCCGTT'
p2154
I121
sS'TTGGTG'
p2155
I1836
sS'GAAGTT'
p2156
I277
sS'GGCGCG'
p2157
I829
sS'ATGCCC'
p2158
I637
sS'TTAGTT'
p2159
I183
sS'ATGCCA'
p2160
I872
sS'GGCGCC'
p2161
I1370
sS'TATTAA'
p2162
I2795
sS'GGCGCA'
p2163
I704
sS'TATTAC'
p2164
I1798
sS'ACTATG'
p2165
I876
sS'CCATAT'
p2166
I131
sS'TTTAAG'
p2167
I1864
sS'ACTATC'
p2168
I208
sS'TTTAAA'
p2169
I3313
sS'ACTATA'
p2170
I678
sS'TTTAAC'
p2171
I1483
sS'TATTAT'
p2172
I1064
sS'TTAGTG'
p2173
I855
sS'GACTGA'
p2174
I5042
sS'TTAGTC'
p2175
I248
sS'ATGCCT'
p2176
I378
sS'TTAGTA'
p2177
I705
sS'TTTAAT'
p2178
I528
sS'CTAACG'
p2179
I128
sS'GGGCAT'
p2180
I153
sS'TTTCCG'
p2181
I323
sS'TTTCCA'
p2182
I1352
sS'TTTCCC'
p2183
I1390
sS'GTACGT'
p2184
I60
sS'GTTTGT'
p2185
I782
sS'TTTCCT'
p2186
I786
sS'GGGCAG'
p2187
I885
sS'GTCTGT'
p2188
I1758
sS'GGGCAA'
p2189
I400
sS'GGGCAC'
p2190
I519
sS'GTACGG'
p2191
I104
sS'GTTTGA'
p2192
I1538
sS'GTACGC'
p2193
I83
sS'GTACGA'
p2194
I51
sS'CCGCTC'
p2195
I258
sS'GCATGT'
p2196
I394
sS'CCGCTA'
p2197
I207
sS'CCGCTG'
p2198
I547
sS'AGCATT'
p2199
I696
sS'GCGCGG'
p2200
I333
sS'GCGCGC'
p2201
I420
sS'GCGCGA'
p2202
I112
sS'GCATGG'
p2203
I447
sS'GCATGC'
p2204
I486
sS'CCGCTT'
p2205
I91
sS'GCATGA'
p2206
I448
sS'GTCGAC'
p2207
I218
sS'GCGCGT'
p2208
I66
sS'GTCGAG'
p2209
I332
sS'AGACAT'
p2210
I182
sS'GAGCTA'
p2211
I2878
sS'TGCGCT'
p2212
I238
sS'GAGCTC'
p2213
I2340
sS'ATTGAT'
p2214
I145
sS'GAGCTG'
p2215
I7074
sS'AAACGA'
p2216
I194
sS'AAACGC'
p2217
I273
sS'GTAACA'
p2218
I794
sS'CACGCG'
p2219
I535
sS'AAACGG'
p2220
I252
sS'TGTCCC'
p2221
I1170
sS'TGCGCG'
p2222
I480
sS'TGTCCA'
p2223
I1098
sS'GAGCTT'
p2224
I716
sS'TGCGCC'
p2225
I885
sS'ATTGAG'
p2226
I511
sS'TGCGCA'
p2227
I714
sS'ACCGAC'
p2228
I231
sS'AAACGT'
p2229
I133
sS'ATTTCG'
p2230
I171
sS'ATTTCA'
p2231
I1826
sS'ATTTCC'
p2232
I1308
sS'ATCAGT'
p2233
I708
sS'ATCGGG'
p2234
I206
sS'CATAGT'
p2235
I533
sS'AAATCA'
p2236
I1045
sS'GCAGCA'
p2237
I777
sS'CCGTGT'
p2238
I127
sS'ATCGGA'
p2239
I127
sS'TGGGTG'
p2240
I2165
sS'CGATCA'
p2241
I64
sS'TGGGTC'
p2242
I516
sS'TGGGTA'
p2243
I1201
sS'CATAGG'
p2244
I1240
sS'ATCGGT'
p2245
I64
sS'ATCAGG'
p2246
I1744
sS'CATAGC'
p2247
I1274
sS'CATAGA'
p2248
I1401
sS'GGTCAA'
p2249
I623
sS'ACGGGT'
p2250
I61
sS'ATAATT'
p2251
I233
sS'GTCTGA'
p2252
I3216
sS'ATTCGG'
p2253
I161
sS'GATTCT'
p2254
I1245
sS'CTTTTG'
p2255
I4490
sS'TACTAG'
p2256
I1817
sS'TACTAA'
p2257
I3101
sS'CTTTTA'
p2258
I4199
sS'GATTCC'
p2259
I1887
sS'GATTCA'
p2260
I3152
sS'GATTCG'
p2261
I485
sS'ACGGGC'
p2262
I192
sS'TACTAT'
p2263
I944
sS'CTTTTT'
p2264
I983
sS'ACCAAC'
p2265
I1225
sS'CGTAGA'
p2266
I270
sS'TCACGA'
p2267
I82
sS'TCACGC'
p2268
I145
sS'CGATTG'
p2269
I159
sS'TCACGG'
p2270
I127
sS'TCTCAT'
p2271
I410
sS'TCACGT'
p2272
I115
sS'TTCCAC'
p2273
I1878
sS'CAGACC'
p2274
I1408
sS'TTCCAA'
p2275
I1610
sS'TTCCAG'
p2276
I2091
sS'CGAGGC'
p2277
I257
sS'ACCCTT'
p2278
I405
sS'TGAAGT'
p2279
I432
sS'ATGCTT'
p2280
I332
sS'TTCCAT'
p2281
I605
sS'TGAAGC'
p2282
I936
sS'ACCCTC'
p2283
I1050
sS'TGAAGG'
p2284
I1060
sS'ACCCTG'
p2285
I2786
sS'CTGACT'
p2286
I607
sS'CCCCTT'
p2287
I685
sS'AGTTAT'
p2288
I375
sS'ACATAT'
p2289
I249
sS'CTGACG'
p2290
I316
sS'CTGACC'
p2291
I1247
sS'CTGACA'
p2292
I1311
sS'AGTTAA'
p2293
I1476
sS'CCCCTG'
p2294
I3575
sS'AGTTAC'
p2295
I1187
sS'CCCCTC'
p2296
I2108
sS'AGTTAG'
p2297
I1036
sS'CCCCTA'
p2298
I1947
sS'ACACAG'
p2299
I493
sS'ACACAA'
p2300
I316
sS'ACACAC'
p2301
I813
sS'AATGTT'
p2302
I466
sS'CTGCAG'
p2303
I1263
sS'CATGGG'
p2304
I1107
sS'CTGCAC'
p2305
I882
sS'CATGGC'
p2306
I1153
sS'AATGTC'
p2307
I877
sS'ACACAT'
p2308
I296
sS'AATGTA'
p2309
I2570
sS'AATGTG'
p2310
I3500
sS'CATGGT'
p2311
I418
sS'GCACAA'
p2312
I183
sS'GCACAG'
p2313
I342
sS'CGATTC'
p2314
I55
sS'CCACAG'
p2315
I503
sS'ATGTTC'
p2316
I831
sS'CGAGAT'
p2317
I27
sS'ATTACT'
p2318
I308
sS'ACATTG'
p2319
I637
sS'ACATTA'
p2320
I724
sS'ACATTC'
p2321
I289
sS'ATTACA'
p2322
I884
sS'GATACA'
p2323
I1782
sS'ATTACC'
p2324
I456
sS'CGAGAC'
p2325
I102
sS'GTTCGG'
p2326
I257
sS'AAGTCT'
p2327
I974
sS'ACCCTA'
p2328
I1412
sS'CCACAA'
p2329
I353
sS'GGACAT'
p2330
I73
sS'CAGCGT'
p2331
I211
sS'GCTATA'
p2332
I566
sS'GCTATC'
p2333
I193
sS'TCTATA'
p2334
I945
sS'AAGTCA'
p2335
I3107
sS'GCTATG'
p2336
I931
sS'AAGTCC'
p2337
I2078
sS'GGACAG'
p2338
I212
sS'GGACAC'
p2339
I211
sS'GGACAA'
p2340
I170
sS'CTAATT'
p2341
I228
sS'AGGGTT'
p2342
I299
sS'GAGGCG'
p2343
I1729
sS'TGTTGG'
p2344
I2003
sS'GAGGCA'
p2345
I3852
sS'TGTTGA'
p2346
I2185
sS'GAGGCC'
p2347
I4520
sS'TGTTGC'
p2348
I2197
sS'ACTCGA'
p2349
I191
sS'TAAAAT'
p2350
I467
sS'ACTCGC'
p2351
I289
sS'AAGCTT'
p2352
I616
sS'ACTCGG'
p2353
I342
sS'TGTTGT'
p2354
I1111
sS'GAGGCT'
p2355
I1568
sS'AGCGCC'
p2356
I1320
sS'AGGGTG'
p2357
I2283
sS'AGGGTA'
p2358
I1135
sS'AGCGCG'
p2359
I794
sS'AGGGTC'
p2360
I483
sS'TAAAAG'
p2361
I1346
sS'ACTCGT'
p2362
I96
sS'TAAAAC'
p2363
I1243
sS'TAAAAA'
p2364
I1440
sS'ACGTTC'
p2365
I159
sS'TAGGGA'
p2366
I1119
sS'CTACTA'
p2367
I544
sS'AGCTGA'
p2368
I4075
sS'ACGTTG'
p2369
I344
sS'AGCTGG'
p2370
I4791
sS'TAGGGG'
p2371
I1308
sS'AGTGCG'
p2372
I297
sS'AGTGCA'
p2373
I1310
sS'AGAGTT'
p2374
I213
sS'AGTGCC'
p2375
I1018
sS'CCAAAA'
p2376
I327
sS'TAGGGT'
p2377
I367
sS'GTAACT'
p2378
I345
sS'ACGTTT'
p2379
I96
sS'AGTGCT'
p2380
I523
sS'AGAGTC'
p2381
I325
sS'AGAGTA'
p2382
I630
sS'AGAGTG'
p2383
I1161
sS'TAACCC'
p2384
I312
sS'GTTAAA'
p2385
I1250
sS'CCTGGC'
p2386
I978
sS'GTTAAC'
p2387
I813
sS'CCTGGA'
p2388
I656
sS'CCTGGG'
p2389
I1257
sS'GTTAAG'
p2390
I1178
sS'CCGGTG'
p2391
I327
sS'TTCGTC'
p2392
I323
sS'CTAATC'
p2393
I226
sS'GTCTGG'
p2394
I3575
sS'GTCTGC'
p2395
I3667
sS'GTTAAT'
p2396
I265
sS'CCTGGT'
p2397
I351
sS'GGAAGG'
p2398
I1472
sS'CCACAT'
p2399
I221
sS'GGAAGC'
p2400
I1072
sS'GCACCG'
p2401
I103
sS'GGAAGA'
p2402
I994
sS'GCGTTA'
p2403
I229
sS'TCCTCT'
p2404
I3039
sS'GCGTTC'
p2405
I165
sS'CAATGC'
p2406
I475
sS'AAACCG'
p2407
I141
sS'GCGTTG'
p2408
I371
sS'CAATGG'
p2409
I530
sS'ATGCTG'
p2410
I2088
sS'GGAAGT'
p2411
I651
sS'CCACAC'
p2412
I375
sS'ATGCTA'
p2413
I1212
sS'ATTTGT'
p2414
I619
sS'TCCTCG'
p2415
I994
sS'TGTATG'
p2416
I2160
sS'TCCTCA'
p2417
I4915
sS'TGTATA'
p2418
I1726
sS'TCCTCC'
p2419
I5831
sS'TGTATC'
p2420
I550
sS'CGTTAG'
p2421
I281
sS'TAACCG'
p2422
I75
sS'TCATAG'
p2423
I236
sS'TTCGTG'
p2424
I847
sS'CGTTAC'
p2425
I276
sS'TTCGTA'
p2426
I494
sS'TCATAC'
p2427
I292
sS'TAACCA'
p2428
I645
sS'ACCGCT'
p2429
I132
sS'TCGCGA'
p2430
I60
sS'TGCATG'
p2431
I4406
sS'TCAGGA'
p2432
I500
sS'TTCGTT'
p2433
I139
sS'TACCCT'
p2434
I790
sS'TAACCT'
p2435
I195
sS'GTGAAG'
p2436
I1277
sS'GTGAAA'
p2437
I1274
sS'GTGAAC'
p2438
I750
sS'CAATAG'
p2439
I255
sS'AACCCG'
p2440
I659
sS'ACCGCG'
p2441
I344
sS'ACCGCA'
p2442
I470
sS'CCCTAT'
p2443
I322
sS'ACCGCC'
p2444
I850
sS'CCGCCT'
p2445
I207
sS'AGGCTT'
p2446
I535
sS'CCTTCT'
p2447
I841
sS'GTTGCA'
p2448
I730
sS'TGTCGC'
p2449
I520
sS'GTTGCC'
p2450
I680
sS'GTGCCG'
p2451
I369
sS'GTGCCA'
p2452
I1470
sS'GTTGCG'
p2453
I153
sS'GTGCCC'
p2454
I1270
sS'CCGCCG'
p2455
I262
sS'AGGCTA'
p2456
I1536
sS'CCTTCC'
p2457
I2040
sS'AGGCTC'
p2458
I1200
sS'CCGCCC'
p2459
I912
sS'TGTCGA'
p2460
I236
sS'CCGCCA'
p2461
I353
sS'AGGCTG'
p2462
I4490
sS'GTGCCT'
p2463
I619
sS'GTTGCT'
p2464
I363
sS'GGATAT'
p2465
I85
sS'ATAGGT'
p2466
I200
sS'TCGGGT'
p2467
I60
sS'AAACCT'
p2468
I267
sS'GCAGTT'
p2469
I201
sS'GAAGCT'
p2470
I555
sS'TCGCGT'
p2471
I42
sS'TCGGGC'
p2472
I205
sS'GGATAC'
p2473
I114
sS'TCGGGG'
p2474
I237
sS'GGATAG'
p2475
I86
sS'GAAGCG'
p2476
I398
sS'GCAGTG'
p2477
I861
sS'GAAGCC'
p2478
I1569
sS'GCAGTA'
p2479
I376
sS'GAAGCA'
p2480
I1629
sS'GCAGTC'
p2481
I220
sS'CGCCCG'
p2482
I734
sS'GAGAGA'
p2483
I5343
sS'GTTCAT'
p2484
I283
sS'GAGAGG'
p2485
I6167
sS'CGCCCA'
p2486
I1062
sS'ACGTAA'
p2487
I91
sS'ACGCAG'
p2488
I148
sS'NNNNNN'
p2489
I4
sS'GCATTC'
p2490
I232
sS'GCATTA'
p2491
I497
sS'CTCGCA'
p2492
I691
sS'CTCGCC'
p2493
I1351
sS'CTCGCG'
p2494
I557
sS'AAACAT'
p2495
I292
sS'GCATTT'
p2496
I219
sS'AACTGA'
p2497
I5388
sS'GCCGGG'
p2498
I1511
sS'GCCGGC'
p2499
I1114
sS'CATGTT'
p2500
I479
sS'GCCGGA'
p2501
I652
sS'AGATCT'
p2502
I226
sS'AGTTTA'
p2503
I2980
sS'CGAGCG'
p2504
I99
sS'TACCCA'
p2505
I2408
sS'CATGTA'
p2506
I2277
sS'CATGTC'
p2507
I839
sS'GCCGGT'
p2508
I155
sS'CATGTG'
p2509
I3782
sS'AGTTCG'
p2510
I354
sS'GGCCTG'
p2511
I4437
sS'GGCCTC'
p2512
I2289
sS'GGCCTA'
p2513
I1557
sS'TTTGTT'
p2514
I520
sS'AATCGG'
p2515
I445
sS'AATCGC'
p2516
I511
sS'AATCGA'
p2517
I346
sS'TTCCCA'
p2518
I2850
sS'GGCCTT'
p2519
I546
sS'TCACTA'
p2520
I497
sS'TCACTC'
p2521
I285
sS'AATCGT'
p2522
I150
sS'AGCCGA'
p2523
I742
sS'GAGCGT'
p2524
I303
sS'AGCCGC'
p2525
I1634
sS'TAATTG'
p2526
I1079
sS'TAATTA'
p2527
I1377
sS'AGCCGG'
p2528
I1335
sS'GTTTTT'
p2529
I616
sS'TGGTGA'
p2530
I1183
sS'GATGGA'
p2531
I1502
sS'TGGTGC'
p2532
I1196
sS'GATGGC'
p2533
I1502
sS'GGGCTG'
p2534
I2996
sS'TGGTGG'
p2535
I1615
sS'GATGGG'
p2536
I1912
sS'GTTTTC'
p2537
I1593
sS'CAGCTG'
p2538
I5171
sS'GAGCGG'
p2539
I1579
sS'GTTTTG'
p2540
I3984
sS'AGCCGT'
p2541
I293
sS'GAGCGC'
p2542
I1580
sS'TGACAG'
p2543
I352
sS'CCAAGG'
p2544
I625
sS'ACGTAT'
p2545
I57
sS'TCTCAG'
p2546
I1421
sS'GATGGT'
p2547
I484
sS'TGGTGT'
p2548
I752
sS'CCAAGA'
p2549
I539
sS'ATTCGT'
p2550
I72
sS'AGAACT'
p2551
I419
sS'GCGTTT'
p2552
I89
sS'CCTTCG'
p2553
I408
sS'TACCAT'
p2554
I567
sS'CCTATT'
p2555
I206
sS'ACCCGG'
p2556
I636
sS'ACCCGA'
p2557
I338
sS'ATGTCT'
p2558
I676
sS'ACCCGC'
p2559
I682
sS'AGATAA'
p2560
I355
sS'TACCAC'
p2561
I1917
sS'AGAACG'
p2562
I218
sS'TACCAA'
p2563
I1665
sS'AGAACA'
p2564
I1261
sS'TACCAG'
p2565
I1720
sS'AGAACC'
p2566
I761
sS'ACCAGC'
p2567
I2174
sS'CACTGG'
p2568
I4248
sS'ACCAGA'
p2569
I1756
sS'TGACAA'
p2570
I245
sS'ACCAGG'
p2571
I2019
sS'CACTGC'
p2572
I6009
sS'ATGTCG'
p2573
I148
sS'CACTGA'
p2574
I4618
sS'TAGGTT'
p2575
I331
sS'GTTTAC'
p2576
I875
sS'AATTAT'
p2577
I626
sS'CTGTTG'
p2578
I3630
sS'GTAACC'
p2579
I512
sS'CTGTTC'
p2580
I1636
sS'CGGGTT'
p2581
I84
sS'CTGTTA'
p2582
I2888
sS'AATTAC'
p2583
I1523
sS'AATTAA'
p2584
I2232
sS'AATTAG'
p2585
I1551
sS'TAGGTC'
p2586
I713
sS'CGGGTC'
p2587
I241
sS'CTGTTT'
p2588
I1051
sS'CGGGTA'
p2589
I252
sS'CGGGTG'
p2590
I684
sS'ATTGTT'
p2591
I169
sS'AAGTAA'
p2592
I1411
sS'CATTAC'
p2593
I1392
sS'GCAATG'
p2594
I666
sS'AGCAAA'
p2595
I3510
sS'ATATAT'
p2596
I296
sS'AGCAAC'
p2597
I2584
sS'TTAGGC'
p2598
I350
sS'AAAGCT'
p2599
I487
sS'AGCAAG'
p2600
I3625
sS'ACCTCG'
p2601
I544
sS'AAAGCA'
p2602
I1800
sS'AAAGCC'
p2603
I1196
sS'TTAGGT'
p2604
I197
sS'TCATTG'
p2605
I1022
sS'AGCAAT'
p2606
I737
sS'ATATAC'
p2607
I333
sS'TGCTAC'
p2608
I1858
sS'TACTTA'
p2609
I4799
sS'TACTTG'
p2610
I4560
sS'ATAGCG'
p2611
I73
sS'TCTCAC'
p2612
I1107
sS'TGCTAA'
p2613
I2718
sS'ATAGCT'
p2614
I222
sS'TACTTT'
p2615
I2287
sS'CTTCGA'
p2616
I273
sS'CGAGTT'
p2617
I35
sS'TCCAAT'
p2618
I331
sS'CGTACT'
p2619
I94
sS'TCCCGT'
p2620
I239
sS'TATGCT'
p2621
I589
sS'CTTAAG'
p2622
I1130
sS'ACATAA'
p2623
I348
sS'CTTAAA'
p2624
I1454
sS'ACATAG'
p2625
I240
sS'CTTAAC'
p2626
I984
sS'TCCAAG'
p2627
I1627
sS'CGAGTG'
p2628
I204
sS'TCCAAC'
p2629
I1203
sS'CGTACG'
p2630
I96
sS'AGGGGA'
p2631
I1467
sS'CTTAAT'
p2632
I304
sS'AGGGGC'
p2633
I1341
sS'TATGCA'
p2634
I1982
sS'AGGGGG'
p2635
I1272
sS'CGTTTG'
p2636
I1023
sS'CGACTT'
p2637
I37
sS'TGAATT'
p2638
I209
sS'TTGTAA'
p2639
I768
sS'TTGTAC'
p2640
I654
sS'GTACCT'
p2641
I158
sS'TTGTAG'
p2642
I729
sS'TGAATC'
p2643
I323
sS'ACAACA'
p2644
I677
sS'TGAATA'
p2645
I985
sS'CGACTC'
p2646
I65
sS'TGAATG'
p2647
I1424
sS'AAGTAT'
p2648
I426
sS'CGACTG'
p2649
I151
sS'TTGTAT'
p2650
I377
sS'ATCGTG'
p2651
I485
sS'GCTTCG'
p2652
I374
sS'GCTTCA'
p2653
I1523
sS'GCTTCC'
p2654
I1675
sS'TGGGAG'
p2655
I924
sS'TGGGAA'
p2656
I597
sS'TGGGAC'
p2657
I682
sS'GCTTCT'
p2658
I704
sS'ATCGTT'
p2659
I67
sS'ACAACG'
p2660
I100
sS'TGGGAT'
p2661
I145
sS'GGGCTA'
p2662
I939
sS'CTAGCC'
p2663
I515
sS'CTAGCA'
p2664
I626
sS'CTAGCG'
p2665
I141
sS'CGCATT'
p2666
I107
sS'ACTTAG'
p2667
I664
sS'ACTTAA'
p2668
I945
sS'CGGTAC'
p2669
I109
sS'TACACT'
p2670
I1421
sS'CGGTAA'
p2671
I106
sS'GACCAG'
p2672
I2657
sS'GACCAC'
p2673
I2406
sS'GACCAA'
p2674
I2292
sS'TACACC'
p2675
I1930
sS'CGGTAT'
p2676
I44
sS'TACACA'
p2677
I4565
sS'TACACG'
p2678
I686
sS'GCGAGA'
p2679
I240
sS'GAGAGC'
p2680
I3739
sS'GCGAGC'
p2681
I319
sS'GGCCGT'
p2682
I227
sS'GCGAGG'
p2683
I494
sS'CAGCCG'
p2684
I571
sS'CAGCCA'
p2685
I2411
sS'CAGCCC'
p2686
I2174
sS'GCTGAA'
p2687
I701
sS'GCGAGT'
p2688
I93
sS'CGCCCC'
p2689
I2227
sS'GAACTC'
p2690
I433
sS'GAACTA'
p2691
I886
sS'GGACTT'
p2692
I131
sS'CACCTA'
p2693
I3070
sS'AACTAT'
p2694
I777
sS'CACCTC'
p2695
I3213
sS'CACCTG'
p2696
I5998
sS'TGATCC'
p2697
I221
sS'AACACT'
p2698
I1594
sS'TGATCA'
p2699
I380
sS'TGATCG'
p2700
I48
sS'AACTAG'
p2701
I2094
sS'GGACTG'
p2702
I419
sS'CACCTT'
p2703
I907
sS'AACTAC'
p2704
I2289
sS'AACTAA'
p2705
I3080
sS'AACGAT'
p2706
I96
sS'AACACG'
p2707
I867
sS'AACACA'
p2708
I5294
sS'AACACC'
p2709
I2978
sS'TGATCT'
p2710
I178
sS'AAAGAC'
p2711
I930
sS'ACGCAC'
p2712
I129
sS'CAACAG'
p2713
I375
sS'GACAGT'
p2714
I1859
sS'CAACAA'
p2715
I308
sS'CCAGCC'
p2716
I821
sS'CAACAC'
p2717
I385
sS'GCTGAT'
p2718
I193
sS'CTATAA'
p2719
I369
sS'GACAGG'
p2720
I6105
sS'AAAGAG'
p2721
I1292
sS'GACAGC'
p2722
I5485
sS'GACAGA'
p2723
I6258
sS'GTATTA'
p2724
I1088
sS'GTATTC'
p2725
I329
sS'GTAAGT'
p2726
I367
sS'CCAGCG'
p2727
I223
sS'GTATTG'
p2728
I1017
sS'GGTGGC'
p2729
I972
sS'TCCCCT'
p2730
I1095
sS'GGTGGA'
p2731
I806
sS'TATCTT'
p2732
I852
sS'GGTGGG'
p2733
I1312
sS'AGAGGC'
p2734
I919
sS'GTAAGA'
p2735
I778
sS'AGAGGA'
p2736
I1030
sS'GTAAGC'
p2737
I507
sS'AGAGGG'
p2738
I920
sS'ACCGAG'
p2739
I359
sS'GTAAGG'
p2740
I700
sS'TATCTA'
p2741
I2747
sS'TATCTC'
p2742
I1772
sS'TCCCCC'
p2743
I1620
sS'GGTGGT'
p2744
I304
sS'TCCCCA'
p2745
I2780
sS'GTCCGG'
p2746
I812
sS'GTCGCA'
p2747
I419
sS'GTCGCC'
p2748
I826
sS'CCGTCT'
p2749
I164
sS'TCGGTA'
p2750
I151
sS'GAGAGT'
p2751
I1104
sS'TCGGTG'
p2752
I300
sS'GTCGCT'
p2753
I228
sS'CCGTCG'
p2754
I105
sS'CCGTCA'
p2755
I210
sS'CCGTCC'
p2756
I377
sS'GGCTGT'
p2757
I1372
sS'CGCGTG'
p2758
I895
sS'ACGCAT'
p2759
I36
sS'CGCGTC'
p2760
I517
sS'CGCGTA'
p2761
I311
sS'CCACTG'
p2762
I787
sS'ATGCAA'
p2763
I618
sS'ATGCAC'
p2764
I506
sS'CGCGTT'
p2765
I92
sS'GGCTGG'
p2766
I4519
sS'GGCTGA'
p2767
I3144
sS'GGCTGC'
p2768
I5000
sS'CCACTT'
p2769
I237
sS'TTTAGA'
p2770
I1594
sS'ATGACG'
p2771
I226
sS'GGAGTT'
p2772
I133
sS'ATGACA'
p2773
I1110
sS'ATGACC'
p2774
I654
sS'CCTGAT'
p2775
I175
sS'GGGCCT'
p2776
I402
sS'ATGACT'
p2777
I480
sS'GGAGTA'
p2778
I312
sS'CTACGC'
p2779
I128
sS'GGAGTC'
p2780
I241
sS'GGAGTG'
p2781
I614
sS'GGGCCG'
p2782
I434
sS'GGGCCC'
p2783
I921
sS'GGGCCA'
p2784
I794
sS'CTGATC'
p2785
I369
sS'ACGAGT'
p2786
I55
sS'AGGCCA'
p2787
I1499
sS'AGGCCC'
p2788
I1362
sS'GCGCAG'
p2789
I252
sS'ACGAGG'
p2790
I290
sS'ACGAGC'
p2791
I158
sS'ACGAGA'
p2792
I151
sS'CTGATG'
p2793
I1939
sS'AGGCCT'
p2794
I647
sS'AGACGG'
p2795
I159
sS'GGGTTG'
p2796
I1688
sS'TTTGGG'
p2797
I1010
sS'GGGTTA'
p2798
I1227
sS'GGGTTC'
p2799
I653
sS'AATTGG'
p2800
I1376
sS'TTTGAT'
p2801
I285
sS'ATTCGA'
p2802
I209
sS'CTACGA'
p2803
I80
sS'ATTGCT'
p2804
I288
sS'GGGTTT'
p2805
I386
sS'TGCGAC'
p2806
I308
sS'AGAAAT'
p2807
I385
sS'TGCGAG'
p2808
I466
sS'AACGGC'
p2809
I654
sS'TTTGAG'
p2810
I1188
sS'AACGGA'
p2811
I598
sS'TTTGGC'
p2812
I768
sS'ATTGCG'
p2813
I90
sS'TTTGAC'
p2814
I877
sS'TTTGAA'
p2815
I1210
sS'CGGGCT'
p2816
I227
sS'TGACGT'
p2817
I75
sS'CTCGTC'
p2818
I467
sS'CCCTGG'
p2819
I3114
sS'CCCTGA'
p2820
I2283
sS'CTCGTG'
p2821
I1053
sS'CCCTGC'
p2822
I4181
sS'CCCTGT'
p2823
I1058
sS'AAGCTC'
p2824
I1583
sS'GATATA'
p2825
I1665
sS'AAGCTA'
p2826
I2535
sS'GATATG'
p2827
I2094
sS'AAGCTG'
p2828
I5007
sS'TGACGC'
p2829
I121
sS'TACTCT'
p2830
I1939
sS'CATCGT'
p2831
I152
sS'CAGGGT'
p2832
I469
sS'GCTAAT'
p2833
I169
sS'CCAGTC'
p2834
I262
sS'TACGAT'
p2835
I73
sS'CCAGTG'
p2836
I740
sS'TACTCG'
p2837
I628
sS'CATCGA'
p2838
I313
sS'CATCGC'
p2839
I531
sS'TACTCC'
p2840
I2487
sS'NGAATT'
p2841
I1
sS'TACTCA'
p2842
I5002
sS'CATCGG'
p2843
I332
sS'CAGGGG'
p2844
I1675
sS'CAGGGA'
p2845
I1682
sS'CAGGGC'
p2846
I2058
sS'AATCTG'
p2847
I3369
sS'CGGACT'
p2848
I121
sS'AATCTC'
p2849
I1472
sS'AATCTA'
p2850
I2293
sS'TGAACG'
p2851
I151
sS'TCACAC'
p2852
I370
sS'TCACAA'
p2853
I270
sS'TCACAG'
p2854
I428
sS'GCCATA'
p2855
I1415
sS'CGGACG'
p2856
I197
sS'TCCACC'
p2857
I2439
sS'CGGACA'
p2858
I238
sS'CGGACC'
p2859
I368
sS'GCCATG'
p2860
I2831
sS'GGTATT'
p2861
I148
sS'TCACAT'
p2862
I223
sS'ACATCA'
p2863
I556
sS'ATTAAC'
p2864
I845
sS'ATTAAA'
p2865
I1250
sS'ATTAAG'
p2866
I885
sS'TTTTAC'
p2867
I1290
sS'TCACTT'
p2868
I276
sS'TCCACG'
p2869
I582
sS'GTGCAG'
p2870
I1028
sS'ATTAAT'
p2871
I275
sS'AAGCAC'
p2872
I1610
sS'TACCTG'
p2873
I3769
sS'GGTATG'
p2874
I903
sS'GGTATA'
p2875
I647
sS'GGTATC'
p2876
I225
sS'TACCTA'
p2877
I2965
sS'CAATGA'
p2878
I536
sS'ACGAAT'
p2879
I32
sS'CTGAAA'
p2880
I1254
sS'CTGAAC'
p2881
I856
sS'CTGAAG'
p2882
I1334
sS'NNNNGA'
p2883
I1
sS'TAGGTA'
p2884
I1534
sS'CATTGC'
p2885
I2383
sS'CCCGGC'
p2886
I1246
sS'CATTGA'
p2887
I1907
sS'CTAGTT'
p2888
I180
sS'CATTGG'
p2889
I2167
sS'TCAACT'
p2890
I223
sS'ACCATC'
p2891
I742
sS'ACACCG'
p2892
I80
sS'CTGCCA'
p2893
I2075
sS'CTGCCC'
p2894
I2152
sS'ACACCC'
p2895
I367
sS'ACACCA'
p2896
I435
sS'CTGCCG'
p2897
I522
sS'CTAGTG'
p2898
I812
sS'TCAACC'
p2899
I413
sS'TCAACA'
p2900
I564
sS'CTAGTC'
p2901
I306
sS'TCAACG'
p2902
I72
sS'CTAGTA'
p2903
I541
sS'CATTGT'
p2904
I1098
sS'TATGAC'
p2905
I1131
sS'ACACCT'
p2906
I225
sS'CTGCCT'
p2907
I966
sS'CCTCGT'
p2908
I117
sS'TATGAA'
p2909
I1465
sS'AGACTG'
p2910
I840
sS'CGAGGT'
p2911
I78
sS'AGACTA'
p2912
I500
sS'CCTCGG'
p2913
I526
sS'CCTCGC'
p2914
I653
sS'CCCGAC'
p2915
I398
sS'CCTCGA'
p2916
I247
sS'CGAGGA'
p2917
I178
sS'AGACTT'
p2918
I206
sS'CGAGGG'
p2919
I210
sS'CACCGT'
p2920
I279
sS'ACTTTA'
p2921
I2022
sS'ACTTTG'
p2922
I2327
sS'GACCTG'
p2923
I5326
sS'GTCGCG'
p2924
I335
sS'GACCTA'
p2925
I2790
sS'GACCTC'
p2926
I2879
sS'CACCGG'
p2927
I853
sS'GCATAG'
p2928
I171
sS'CACCGA'
p2929
I594
sS'CACCGC'
p2930
I1618
sS'GACCTT'
p2931
I1183
sS'GGACGC'
p2932
I157
sS'GGACGG'
p2933
I122
sS'CTATTA'
p2934
I1194
sS'CACAGC'
p2935
I5905
sS'CTTATC'
p2936
I423
sS'CACAGA'
p2937
I5400
sS'CTTATA'
p2938
I1085
sS'CACAGG'
p2939
I5348
sS'CTTATG'
p2940
I1289
sS'ACTCAT'
p2941
I326
sS'GAGGAG'
p2942
I4258
sS'GACGTA'
p2943
I762
sS'CGTATC'
p2944
I114
sS'GACGTC'
p2945
I926
sS'GAGGAC'
p2946
I2036
sS'GAGGAA'
p2947
I3398
sS'GACGTG'
p2948
I2073
sS'TTAACA'
p2949
I948
sS'ACTCAC'
p2950
I752
sS'TTAACC'
p2951
I635
sS'ACTCAA'
p2952
I734
sS'ACTCAG'
p2953
I1052
sS'CTTATT'
p2954
I347
sS'CACAGT'
p2955
I1776
sS'AGCGAC'
p2956
I470
sS'TAAACA'
p2957
I1611
sS'AGCGAA'
p2958
I432
sS'TAAACC'
p2959
I833
sS'AGCGAG'
p2960
I912
sS'TCTAAA'
p2961
I945
sS'TAAACG'
p2962
I203
sS'AGTTCC'
p2963
I1853
sS'GTATGT'
p2964
I416
sS'AGTTCA'
p2965
I2542
sS'CTGTGC'
p2966
I2818
sS'TAGCCC'
p2967
I996
sS'CTGTGA'
p2968
I2157
sS'CGGGGT'
p2969
I168
sS'TAGGAC'
p2970
I750
sS'GCAAAG'
p2971
I507
sS'TAGGAA'
p2972
I976
sS'GCAAAA'
p2973
I389
sS'TAGGAG'
p2974
I1114
sS'GCAAAC'
p2975
I379
sS'CGGGGC'
p2976
I865
sS'CGGGGA'
p2977
I422
sS'CTGTGT'
p2978
I1579
sS'CGGGGG'
p2979
I524
sS'GTATGC'
p2980
I457
sS'AGTGGA'
p2981
I876
sS'GCAAAT'
p2982
I220
sS'CGAGAA'
p2983
I102
sS'TAGGAT'
p2984
I210
sS'AAAAAT'
p2985
I465
sS'CTATTT'
p2986
I412
sS'TGCTTT'
p2987
I2405
sS'GTCTAT'
p2988
I520
sS'GTAATT'
p2989
I203
sS'GTTACC'
p2990
I683
sS'GTTACA'
p2991
I879
sS'TAATTC'
p2992
I418
sS'TATCGA'
p2993
I248
sS'TATCGC'
p2994
I315
sS'TATAGT'
p2995
I716
sS'GTCTAA'
p2996
I1830
sS'TGCTTA'
p2997
I5069
sS'TTCAAG'
p2998
I3543
sS'TGCTTC'
p2999
I4332
sS'TTCAAA'
p3000
I4383
sS'TTCAAC'
p3001
I2504
sS'GGGCTC'
p3002
I893
sS'TATAGC'
p3003
I1315
sS'TATCGT'
p3004
I118
sS'TATAGA'
p3005
I1691
sS'AGCTCA'
p3006
I4638
sS'TATAGG'
p3007
I1312
sS'GTTACT'
p3008
I403
sS'GGAAAA'
p3009
I524
sS'GCTCTA'
p3010
I1322
sS'CCAAGT'
p3011
I302
sS'GCTCTG'
p3012
I3448
sS'CCACGT'
p3013
I92
sS'GGCGTT'
p3014
I130
sS'AGGACC'
p3015
I1244
sS'CGATCC'
p3016
I51
sS'GAATGG'
p3017
I990
sS'GAATGA'
p3018
I983
sS'ACTACT'
p3019
I232
sS'GAATGC'
p3020
I757
sS'CCACGA'
p3021
I91
sS'GGCGTC'
p3022
I609
sS'CCACGC'
p3023
I176
sS'GGCGTA'
p3024
I438
sS'AACCTC'
p3025
I2587
sS'CCACGG'
p3026
I156
sS'AACCTA'
p3027
I2990
sS'GGCTTA'
p3028
I2910
sS'ACTACC'
p3029
I444
sS'GGCTTC'
p3030
I3320
sS'ACTACA'
p3031
I827
sS'ACTACG'
p3032
I154
sS'GGCTTG'
p3033
I4358
sS'TCCTAG'
p3034
I1405
sS'AGTCAG'
p3035
I1939
sS'CGTTGC'
p3036
I577
sS'TAACAC'
p3037
I377
sS'TCCTAC'
p3038
I1370
sS'AGTCAC'
p3039
I1804
sS'TCCTAA'
p3040
I1655
sS'TAACAG'
p3041
I478
sS'TCATCG'
p3042
I77
sS'AAGCGT'
p3043
I203
sS'TCATCC'
p3044
I427
sS'GTTTTA'
p3045
I3351
sS'CTTTCT'
p3046
I1382
sS'AGTCAT'
p3047
I634
sS'TCCTAT'
p3048
I520
sS'TAACAT'
p3049
I184
sS'CGTTGT'
p3050
I180
sS'GAGCGA'
p3051
I852
sS'CTTTCA'
p3052
I3137
sS'CTTTCG'
p3053
I481
sS'GCGGGT'
p3054
I102
sS'AAAAAG'
p3055
I1594
sS'GTTGAT'
p3056
I142
sS'CGACCA'
p3057
I64
sS'CGACCC'
p3058
I104
sS'GCATAC'
p3059
I172
sS'CGACCG'
p3060
I49
sS'CCTTAT'
p3061
I266
sS'GTTGAC'
p3062
I486
sS'GTTGAA'
p3063
I648
sS'ACTGGG'
p3064
I793
sS'GTTGAG'
p3065
I759
sS'CCTTAC'
p3066
I569
sS'TTCGAT'
p3067
I84
sS'CCTTAA'
p3068
I715
sS'CCTTAG'
p3069
I652
sS'CGACCT'
p3070
I51
sS'AATAGA'
p3071
I2147
sS'AATAGC'
p3072
I1600
sS'CAACTG'
p3073
I737
sS'AATAGG'
p3074
I1647
sS'TCTCAA'
p3075
I1093
sS'GGGGTT'
p3076
I237
sS'GGATGT'
p3077
I296
sS'AATAGT'
p3078
I691
sS'GGGCTT'
p3079
I320
sS'CAACTT'
p3080
I199
sS'ACTGTA'
p3081
I1223
sS'GGGGTG'
p3082
I1814
sS'GGATGA'
p3083
I254
sS'GGGGTC'
p3084
I327
sS'GGGGTA'
p3085
I598
sS'TCTCCG'
p3086
I332
sS'GAGTCC'
p3087
I2508
sS'GAGTCA'
p3088
I4378
sS'TCTCCC'
p3089
I903
sS'CCCTTT'
p3090
I1290
sS'TCTCCA'
p3091
I1020
sS'AAACTC'
p3092
I462
sS'CTATGA'
p3093
I587
sS'AGTACG'
p3094
I200
sS'ACGCGC'
p3095
I166
sS'GCTAAG'
p3096
I765
sS'AGTACC'
p3097
I711
sS'CTATGG'
p3098
I584
sS'AGTACA'
p3099
I1165
sS'CCCTTA'
p3100
I2848
sS'CCCTTC'
p3101
I3108
sS'TCTCCT'
p3102
I482
sS'CCCTTG'
p3103
I4174
sS'AGTACT'
p3104
I437
sS'ACGCGT'
p3105
I42
sS'GCCGAA'
p3106
I258
sS'GTGGAG'
p3107
I1079
sS'GCCGAC'
p3108
I444
sS'GTGGAC'
p3109
I538
sS'GCCGAG'
p3110
I824
sS'GTGGAA'
p3111
I701
sS'GGGTGA'
p3112
I965
sS'GTGGAT'
p3113
I158
sS'GCCGAT'
p3114
I59
sS'AGATAG'
p3115
I236
sS'CACTGT'
p3116
I2209
sS'CTTTGC'
p3117
I2602
sS'GTAGTC'
p3118
I260
sS'AAATCG'
p3119
I132
sS'GTAGTA'
p3120
I484
sS'TTATCG'
p3121
I67
sS'CACGCA'
p3122
I1183
sS'AAATCC'
p3123
I557
sS'CACGCC'
p3124
I1547
sS'GTTCCT'
p3125
I455
sS'CTACGT'
p3126
I86
sS'AGATAC'
p3127
I356
sS'CACGCT'
p3128
I344
sS'AAATCT'
p3129
I329
sS'ACCGAT'
p3130
I46
sS'GTAGTT'
p3131
I205
sS'ACCAGT'
p3132
I527
sS'CGTTAT'
p3133
I80
sS'GATGAT'
p3134
I422
sS'GGAGCA'
p3135
I468
sS'GGAGCC'
p3136
I568
sS'CCGGCT'
p3137
I166
sS'CCAAAT'
p3138
I187
sS'GGAGCG'
p3139
I203
sS'AAAACT'
p3140
I528
sS'GATGAC'
p3141
I1797
sS'GATGAA'
p3142
I1790
sS'GCTCTT'
p3143
I327
sS'GATGAG'
p3144
I2315
sS'AAAACC'
p3145
I1179
sS'AAAACA'
p3146
I2388
sS'AAAACG'
p3147
I249
sS'GGAGCT'
p3148
I228
sS'CCAAAG'
p3149
I419
sS'TCGCGG'
p3150
I148
sS'CTAGAG'
p3151
I433
sS'TCGCGC'
p3152
I130
sS'CTACCG'
p3153
I118
sS'GCCACA'
p3154
I2700
sS'AGATCA'
p3155
I581
sS'GCCACC'
p3156
I2602
sS'AGATCC'
p3157
I296
sS'CGACGG'
p3158
I55
sS'GCCACG'
p3159
I881
sS'AGATCG'
p3160
I92
sS'ATGTCA'
p3161
I1736
sS'GGACCG'
p3162
I77
sS'GTGCAA'
p3163
I494
sS'ACCCGT'
p3164
I113
sS'AGAAAG'
p3165
I1457
sS'CGACGA'
p3166
I29
sS'TACCCG'
p3167
I393
sS'AGAAAC'
p3168
I1197
sS'GCCACT'
p3169
I855
sS'AGAAAA'
p3170
I1184
sS'TACCCC'
p3171
I1420
sS'ATGTAC'
p3172
I561
sS'ACTTCG'
p3173
I249
sS'ATGTAA'
p3174
I696
sS'ATGTAG'
p3175
I511
sS'CCTATA'
p3176
I525
sS'CTACCA'
p3177
I515
sS'CCGGCA'
p3178
I270
sS'CCCAAG'
p3179
I1686
sS'CCTATC'
p3180
I239
sS'ATGTAT'
p3181
I329
sS'GTTCCA'
p3182
I761
sS'ACTTCA'
p3183
I1529
sS'AGCACT'
p3184
I1427
sS'TTAGAA'
p3185
I507
sS'CGGCTG'
p3186
I1141
sS'TTAGAC'
p3187
I220
sS'CGGCTC'
p3188
I533
sS'TTAGAG'
p3189
I427
sS'CGGCTA'
p3190
I301
sS'AGCACC'
p3191
I2868
sS'AGCACA'
p3192
I3803
sS'AGCACG'
p3193
I885
sS'AGTAGG'
p3194
I1392
sS'CGGCTT'
p3195
I128
sS'CGCCCT'
p3196
I459
sS'TTAGAT'
p3197
I152
sS'CCAGCA'
p3198
I819
sS'ACCTAT'
p3199
I287
sS'AAAGAA'
p3200
I1513
sS'ATATCC'
p3201
I383
sS'ATATCA'
p3202
I573
sS'CGACGT'
p3203
I21
sS'TTATTT'
p3204
I539
sS'TGTGAG'
p3205
I1749
sS'TGTGAA'
p3206
I1363
sS'CTACCT'
p3207
I223
sS'TGTGAC'
p3208
I1441
sS'ATATCT'
p3209
I269
sS'CCAGCT'
p3210
I388
sS'CACGGT'
p3211
I223
sS'AAAGAT'
p3212
I291
sS'TGTGAT'
p3213
I368
sS'TTATTG'
p3214
I1376
sS'TTATTA'
p3215
I1711
sS'CATGAT'
p3216
I282
sS'TTATTC'
p3217
I493
sS'ACATCT'
p3218
I290
sS'TTTTAT'
p3219
I619
sS'TACAAG'
p3220
I2859
sS'TCCACT'
p3221
I947
sS'TACAAA'
p3222
I4101
sS'AGACGA'
p3223
I111
sS'TACAAC'
p3224
I2140
sS'CCTCTG'
p3225
I3382
sS'AGGTGG'
p3226
I1899
sS'CCTCTC'
p3227
I1306
sS'AGGTGC'
p3228
I1430
sS'CCTCTA'
p3229
I1401
sS'AGGTGA'
p3230
I1372
sS'CTTACG'
p3231
I209
sS'TCCACA'
p3232
I2222
sS'TTTTAG'
p3233
I1423
sS'ACATCG'
p3234
I64
sS'TTTTAA'
p3235
I2869
sS'CCAAAC'
p3236
I340
sS'CTTACA'
p3237
I1051
sS'ACATCC'
p3238
I458
sS'AGGTGT'
p3239
I791
sS'CCTCTT'
p3240
I548
sS'GCGTGA'
p3241
I215
sS'TATGAG'
p3242
I1411
sS'CCCGGA'
p3243
I555
sS'CCCGGG'
p3244
I1133
sS'TTGTGT'
p3245
I1124
sS'TGGAAT'
p3246
I349
sS'TAGGTG'
p3247
I1973
sS'TTGTGC'
p3248
I1396
sS'TTGTGA'
p3249
I1408
sS'TTGTGG'
p3250
I2081
sS'CCCGGT'
p3251
I150
sS'TGGAAG'
p3252
I1337
sS'TGGAAC'
p3253
I810
sS'TGGAAA'
p3254
I1046
sS'TGAGGA'
p3255
I602
sS'AAGAGG'
p3256
I4337
sS'TGAGGC'
p3257
I663
sS'AAGAGA'
p3258
I3766
sS'AAGAGC'
p3259
I2663
sS'TGAGGG'
p3260
I617
sS'GCTTAG'
p3261
I751
sS'GCTTAC'
p3262
I535
sS'GCTTAA'
p3263
I747
sS'TGATTC'
p3264
I308
sS'AAGCGC'
p3265
I782
sS'AAGAGT'
p3266
I871
sS'AAGCGA'
p3267
I509
sS'NGCGCC'
p3268
I1
sS'AAGCGG'
p3269
I820
sS'GCTTAT'
p3270
I227
sS'CTGCTA'
p3271
I1935
sS'GCGTGT'
p3272
I184
sS'CTGCTC'
p3273
I1541
sS'ACTTCT'
p3274
I651
sS'GACCGT'
p3275
I344
sS'CTGCTG'
p3276
I4640
sS'CGGTCA'
p3277
I308
sS'GGTCGT'
p3278
I99
sS'CGGTCC'
p3279
I451
sS'CTAGAA'
p3280
I472
sS'CGGTCG'
p3281
I130
sS'GACCGA'
p3282
I790
sS'GACCGC'
p3283
I1465
sS'ACTTCC'
p3284
I1708
sS'CTGCTT'
p3285
I753
sS'GACCGG'
p3286
I1264
sS'TCGGAA'
p3287
I79
sS'CTAGAT'
p3288
I123
sS'GGTCGG'
p3289
I442
sS'CGGTCT'
p3290
I140
sS'GGTCGC'
p3291
I479
sS'GGTCGA'
p3292
I203
sS'CGTCGC'
p3293
I419
sS'GCGTGG'
p3294
I428
sS'CGTCGG'
p3295
I308
sS'GCGTGC'
p3296
I368
sS'TGCTCA'
p3297
I4686
sS'TTCATC'
p3298
I1875
sS'TGCTCC'
p3299
I3215
sS'TTCATA'
p3300
I4087
sS'TTCATG'
p3301
I4937
sS'TGCTCG'
p3302
I764
sS'GTACAA'
p3303
I212
sS'CAGCAG'
p3304
I1817
sS'GCGGCT'
p3305
I160
sS'CAGCAC'
p3306
I1341
sS'CAGCAA'
p3307
I1048
sS'ACGACT'
p3308
I50
sS'TGCTCT'
p3309
I2155
sS'TTCATT'
p3310
I1254
sS'GTAGCC'
p3311
I461
sS'GCTGCC'
p3312
I1213
sS'GCTGCA'
p3313
I1222
sS'AACTCT'
p3314
I1905
sS'TGGCCC'
p3315
I922
sS'TGGCCA'
p3316
I1149
sS'GTAGCA'
p3317
I528
sS'TCATCT'
p3318
I382
sS'TTAGGG'
p3319
I498
sS'TGGCCT'
p3320
I461
sS'AACTCC'
p3321
I3381
sS'GCTGCT'
p3322
I497
sS'AACTCG'
p3323
I729
sS'CAGTCG'
p3324
I341
sS'CTACAA'
p3325
I331
sS'TGAAGA'
p3326
I968
sS'AATATT'
p3327
I504
sS'GTTCGA'
p3328
I192
sS'CAACCT'
p3329
I174
sS'CAGTTA'
p3330
I2597
sS'TGGCCG'
p3331
I276
sS'GGCACG'
p3332
I655
sS'GGAGGA'
p3333
I738
sS'GGCACA'
p3334
I2026
sS'GACAAT'
p3335
I870
sS'GGCACC'
p3336
I1799
sS'CAACCG'
p3337
I113
sS'GTACAT'
p3338
I123
sS'AATATG'
p3339
I2429
sS'CAACCC'
p3340
I343
sS'TTAGGA'
p3341
I425
sS'AATATC'
p3342
I677
sS'CTTCGT'
p3343
I149
sS'GACAAA'
p3344
I4381
sS'GGCACT'
p3345
I782
sS'GACAAC'
p3346
I2716
sS'ACGACA'
p3347
I122
sS'GACAAG'
p3348
I4005
sS'GCTGCG'
p3349
I441
sS'GCGGCG'
p3350
I375
sS'GCAATA'
p3351
I406
sS'GAATTT'
p3352
I192
sS'CGATGG'
p3353
I79
sS'TCCCAT'
p3354
I382
sS'CGATGC'
p3355
I73
sS'CAGCAT'
p3356
I352
sS'CGATGA'
p3357
I75
sS'GAATTA'
p3358
I1052
sS'GAATTC'
p3359
I356
sS'GAATTG'
p3360
I1071
sS'TCCCAA'
p3361
I1037
sS'CGATGT'
p3362
I43
sS'TCCCAC'
p3363
I1416
sS'GTAAAG'
p3364
I538
sS'TCCCAG'
p3365
I1747
sS'GGATTT'
p3366
I122
sS'GTGCGT'
p3367
I155
sS'ATGGTA'
p3368
I875
sS'GGATTC'
p3369
I127
sS'GGATTA'
p3370
I408
sS'GGATTG'
p3371
I373
sS'ACCTCT'
p3372
I970
sS'ACGCCA'
p3373
I204
sS'ATATAG'
p3374
I261
sS'TCTGTG'
p3375
I3180
sS'TCTGTC'
p3376
I791
sS'ATAACG'
p3377
I94
sS'AACTCA'
p3378
I4795
sS'GGCGGC'
p3379
I1458
sS'CTCCTT'
p3380
I1428
sS'GGCGGA'
p3381
I801
sS'GGCGGG'
p3382
I2468
sS'AACCGA'
p3383
I751
sS'CTATCC'
p3384
I419
sS'TCTGTT'
p3385
I398
sS'AAAGCG'
p3386
I289
sS'CTCCTG'
p3387
I7242
sS'AACCGT'
p3388
I236
sS'CTCCTA'
p3389
I3349
sS'CTCCTC'
p3390
I4870
sS'GGCGGT'
p3391
I274
sS'AACAAG'
p3392
I3785
sS'GACGCC'
p3393
I1786
sS'CCCACA'
p3394
I2705
sS'CCCACC'
p3395
I3266
sS'TACTTC'
p3396
I3554
sS'AGCCTT'
p3397
I900
sS'CCGATT'
p3398
I41
sS'CCCACT'
p3399
I867
sS'AACAAT'
p3400
I942
sS'GACGCT'
p3401
I567
sS'ACCTCC'
p3402
I2230
sS'AAGTCG'
p3403
I373
sS'AGCCTG'
p3404
I6291
sS'AGCCTA'
p3405
I2468
sS'CCGATG'
p3406
I165
sS'GTACCC'
p3407
I244
sS'TGGTTG'
p3408
I2447
sS'TGGTTA'
p3409
I2268
sS'CGCCTT'
p3410
I404
sS'TGGTTC'
p3411
I966
sS'CAGAGT'
p3412
I746
sS'GCATCT'
p3413
I241
sS'CTCCCA'
p3414
I3315
sS'AGGCAC'
p3415
I853
sS'CGCCTC'
p3416
I2021
sS'ACGAAC'
p3417
I94
sS'CGCCTA'
p3418
I877
sS'GAGTTC'
p3419
I1786
sS'CGCCTG'
p3420
I2442
sS'GAGTTA'
p3421
I2877
sS'CAGAGG'
p3422
I3285
sS'GCATCC'
p3423
I324
sS'GTGCGG'
p3424
I510
sS'CAGAGC'
p3425
I2852
sS'AAAATT'
p3426
I276
sS'CAGAGA'
p3427
I2710
sS'CTCGAC'
p3428
I334
sS'AATCAT'
p3429
I615
sS'TAGCTA'
p3430
I1929
sS'CCGATC'
p3431
I53
sS'AGACTC'
p3432
I346
sS'CCTAGA'
p3433
I648
sS'CCTAGC'
p3434
I655
sS'TTTGCT'
p3435
I560
sS'CGGGAG'
p3436
I418
sS'TGCGGT'
p3437
I210
sS'CCTAGG'
p3438
I789
sS'TAAGCA'
p3439
I1052
sS'TGCGGC'
p3440
I815
sS'TGCGGA'
p3441
I448
sS'CCTAGT'
p3442
I249
sS'TGCGGG'
p3443
I781
sS'TAAGCG'
p3444
I141
sS'TGAGTT'
p3445
I187
sS'CGGGAC'
p3446
I291
sS'ATCGCT'
p3447
I110
sS'ATCGCC'
p3448
I321
sS'TGAGTG'
p3449
I1036
sS'ATCGCA'
p3450
I242
sS'TGAGTA'
p3451
I649
sS'ATCGCG'
p3452
I153
sS'TGAGTC'
p3453
I379
sS'GAGGTT'
p3454
I541
sS'AAGGTG'
p3455
I3101
sS'ACGGCT'
p3456
I68
sS'CATCAT'
p3457
I488
sS'AAGGTA'
p3458
I2038
sS'ACGGCA'
p3459
I151
sS'CATCAC'
p3460
I1795
sS'ACGGCC'
p3461
I266
sS'CATCAA'
p3462
I1373
sS'CATCAG'
p3463
I1894
sS'ACGGCG'
p3464
I126
sS'TCACCT'
p3465
I267
sS'CGGAAT'
p3466
I53
sS'CAATTC'
p3467
I257
sS'GTGGCT'
p3468
I947
sS'ATCGAT'
p3469
I33
sS'TCACCG'
p3470
I121
sS'TCACCA'
p3471
I519
sS'TCACCC'
p3472
I338
sS'CGGAAG'
p3473
I725
sS'AATATA'
p3474
I2436
sS'CGGCCT'
p3475
I201
sS'CGGAAC'
p3476
I299
sS'CGGAAA'
p3477
I243
sS'TAGCTT'
p3478
I462
sS'ATGGCG'
p3479
I232
sS'TGTGTA'
p3480
I2565
sS'CCGTAG'
p3481
I85
sS'TGTGTG'
p3482
I6645
sS'ATGGCA'
p3483
I922
sS'TTACTT'
p3484
I233
sS'ATCCCT'
p3485
I468
sS'ATGGCT'
p3486
I365
sS'GCCCAT'
p3487
I241
sS'TGTGTT'
p3488
I511
sS'AGAATT'
p3489
I232
sS'GAAACG'
p3490
I437
sS'GAAACA'
p3491
I2170
sS'GAAACC'
p3492
I1841
sS'CTATGT'
p3493
I438
sS'CTGAGT'
p3494
I609
sS'GAAACT'
p3495
I893
sS'AGAATG'
p3496
I1730
sS'AGAATA'
p3497
I1057
sS'AGAATC'
p3498
I356
sS'CTGAGC'
p3499
I1576
sS'CTGAGA'
p3500
I1720
sS'CTGAGG'
p3501
I2035
sS'CATACC'
p3502
I987
sS'CATACA'
p3503
I1799
sS'CATACG'
p3504
I232
sS'GCAATC'
p3505
I119
sS'TCAAAT'
p3506
I239
sS'GTCCAT'
p3507
I291
sS'AGGGGT'
p3508
I368
sS'CAGGAC'
p3509
I1028
sS'CATACT'
p3510
I575
sS'AATGGC'
p3511
I1189
sS'GTCCAG'
p3512
I1363
sS'TCAAAG'
p3513
I535
sS'GTCCAC'
p3514
I1064
sS'GTCCAA'
p3515
I929
sS'CGGCGG'
p3516
I544
sS'TTGATG'
p3517
I1566
sS'CTCATT'
p3518
I1047
sS'CGGCGC'
p3519
I521
sS'TTGATC'
p3520
I317
sS'CGGCGA'
p3521
I180
sS'TTGATA'
p3522
I965
sS'AAGTGA'
p3523
I3044
sS'TTGATT'
p3524
I266
sS'CGGCGT'
p3525
I102
sS'ATGGCC'
p3526
I707
sS'ATCGAC'
p3527
I103
sS'CCATTA'
p3528
I589
sS'CGAGTA'
p3529
I96
sS'CGGTTA'
p3530
I332
sS'GGTTTA'
p3531
I2078
sS'CGGTTC'
p3532
I265
sS'GGTTTC'
p3533
I1803
sS'TTTACA'
p3534
I1478
sS'CGGTTG'
p3535
I521
sS'GGTTTG'
p3536
I2992
sS'CCATTG'
p3537
I739
sS'TCCAAA'
p3538
I1569
sS'GCTGTG'
p3539
I2755
sS'ACCTAA'
p3540
I1115
sS'GGTTTT'
p3541
I531
sS'CGGTTT'
p3542
I130
sS'GCTGTA'
p3543
I1266
sS'ACGTGT'
p3544
I163
sS'CCATAA'
p3545
I204
sS'TATGCG'
p3546
I204
sS'AGGTTG'
p3547
I2169
sS'AGGTTC'
p3548
I821
sS'AGGTTA'
p3549
I1857
sS'GAGGGA'
p3550
I3560
sS'TTTTTC'
p3551
I1785
sS'TCCATC'
p3552
I1109
sS'TTTTTA'
p3553
I4856
sS'TTTTTG'
p3554
I4086
sS'GAGGGG'
p3555
I4525
sS'TTAAAT'
p3556
I356
sS'AGGTTT'
p3557
I542
sS'TATGCC'
p3558
I998
sS'TTAAAC'
p3559
I627
sS'ATACGT'
p3560
I57
sS'TTAAAA'
p3561
I1259
sS'ACTCCG'
p3562
I215
sS'TTAAAG'
p3563
I895
sS'ACTCCA'
p3564
I711
sS'TTTTTT'
p3565
I1360
sS'ACTCCC'
p3566
I604
sS'TAGGCT'
p3567
I592
sS'GTCACG'
p3568
I896
sS'CTGTAC'
p3569
I811
sS'GCAACT'
p3570
I189
sS'GTCACC'
p3571
I2762
sS'CTGTAG'
p3572
I879
sS'GTCACA'
p3573
I3446
sS'ACTTAT'
p3574
I287
sS'GCAACG'
p3575
I112
sS'GGTCTT'
p3576
I295
sS'GTCACT'
p3577
I1311
sS'TAGGCG'
p3578
I379
sS'ACGAAA'
p3579
I117
sS'TAGGCA'
p3580
I1622
sS'GCAACA'
p3581
I510
sS'TAGGCC'
p3582
I1263
sS'ATTCAT'
p3583
I307
sS'GTAAAA'
p3584
I645
sS'GCGATT'
p3585
I35
sS'TCGTGT'
p3586
I103
sS'TTCACT'
p3587
I1786
sS'GTCTCT'
p3588
I2242
sS'AACATT'
p3589
I898
sS'ATTCAG'
p3590
I841
sS'ATTCAA'
p3591
I829
sS'ATTCAC'
p3592
I665
sS'GTCTCC'
p3593
I3953
sS'CCACTA'
p3594
I359
sS'GTCTCA'
p3595
I5095
sS'GCGATG'
p3596
I261
sS'GTCTCG'
p3597
I1013
sS'GCGATA'
p3598
I122
sS'TCGTGC'
p3599
I197
sS'GCGATC'
p3600
I64
sS'GAAGGC'
p3601
I1282
sS'GAAGGA'
p3602
I1647
sS'GAAGGG'
p3603
I1669
sS'CGATTA'
p3604
I88
sS'GGAACC'
p3605
I540
sS'GGAACA'
p3606
I540
sS'GGAACG'
p3607
I132
sS'TGACGA'
p3608
I67
sS'ATAGTA'
p3609
I507
sS'CGATTT'
p3610
I31
sS'GAAGGT'
p3611
I395
sS'CTCGCT'
p3612
I386
sS'CAATCG'
p3613
I111
sS'CAATCA'
p3614
I664
sS'CAATCC'
p3615
I321
sS'TCCTGA'
p3616
I3132
sS'AGTCCA'
p3617
I1087
sS'TCCTGC'
p3618
I4883
sS'AGTCCC'
p3619
I1343
sS'ACTAAA'
p3620
I836
sS'TCCTGG'
p3621
I4038
sS'ACTAAC'
p3622
I540
sS'TAACGC'
p3623
I126
sS'TAACGA'
p3624
I103
sS'CAGCTA'
p3625
I2204
sS'CAGCTC'
p3626
I1800
sS'ACTAAT'
p3627
I218
sS'AGTCCT'
p3628
I488
sS'TCCTGT'
p3629
I2440
sS'TAATGT'
p3630
I400
sS'CAGCTT'
p3631
I573
sS'TAACGT'
p3632
I83
sS'AGCCAG'
p3633
I2319
sS'GTACTT'
p3634
I178
sS'CGACAT'
p3635
I24
sS'TTGTTC'
p3636
I1278
sS'TTGTTA'
p3637
I2797
sS'TTGTTG'
p3638
I3086
sS'CAGGCC'
p3639
I2487
sS'CCGAGC'
p3640
I291
sS'CCGCGT'
p3641
I64
sS'CGACAC'
p3642
I58
sS'CGACAA'
p3643
I38
sS'GTACTC'
p3644
I194
sS'GTACTA'
p3645
I484
sS'CCGCGC'
p3646
I330
sS'AGGAAA'
p3647
I1937
sS'CCGCGA'
p3648
I116
sS'ATACCC'
p3649
I215
sS'CCGCGG'
p3650
I277
sS'TTGTTT'
p3651
I1061
sS'AACATG'
p3652
I4638
sS'AGCCAA'
p3653
I1946
sS'AATAAC'
p3654
I1839
sS'AATAAA'
p3655
I3555
sS'AATAAG'
p3656
I2206
sS'TACAAT'
p3657
I936
sS'AATAAT'
p3658
I730
sS'ACGGTG'
p3659
I301
sS'CCAACC'
p3660
I473
sS'CTCAGT'
p3661
I1525
sS'TTATGC'
p3662
I519
sS'CCAACG'
p3663
I121
sS'GGGATT'
p3664
I167
sS'CGCCGC'
p3665
I2008
sS'GTGTAT'
p3666
I417
sS'CGCCGA'
p3667
I427
sS'GAGTAG'
p3668
I1413
sS'CGCCGG'
p3669
I1071
sS'GAGTAA'
p3670
I1474
sS'GAGTAC'
p3671
I923
sS'CTCAGG'
p3672
I4597
sS'CTCAGC'
p3673
I5083
sS'CTCAGA'
p3674
I3981
sS'GAGTAT'
p3675
I358
sS'ATCGTC'
p3676
I160
sS'GTGTAG'
p3677
I725
sS'TCGAGC'
p3678
I154
sS'GTGTAA'
p3679
I704
sS'GTGTAC'
p3680
I671
sS'CGCCGT'
p3681
I208
sS'GTGGCA'
p3682
I1981
sS'GTGGCC'
p3683
I1990
sS'CTCGGA'
p3684
I515
sS'GTGGCG'
p3685
I552
sS'GCCGCC'
p3686
I2008
sS'GCCGCA'
p3687
I849
sS'GCCGCG'
p3688
I907
sS'ACACTT'
p3689
I222
sS'CATATG'
p3690
I2312
sS'AGATAT'
p3691
I189
sS'CATATC'
p3692
I607
sS'CATATA'
p3693
I1971
sS'TCAGCA'
p3694
I645
sS'TACTAC'
p3695
I1899
sS'ACACTC'
p3696
I217
sS'ACACTA'
p3697
I384
sS'ACACTG'
p3698
I825
sS'GCCGCT'
p3699
I390
sS'ACCGGA'
p3700
I343
sS'AAATAA'
p3701
I849
sS'ACCGGC'
p3702
I420
sS'AAATAC'
p3703
I675
sS'CTTTAA'
p3704
I1768
sS'ACCGGG'
p3705
I417
sS'CTTTAC'
p3706
I1153
sS'CACGAG'
p3707
I569
sS'CAGGTA'
p3708
I1431
sS'AACTTC'
p3709
I2861
sS'CAGGTC'
p3710
I747
sS'CACGAC'
p3711
I429
sS'AACTTG'
p3712
I4504
sS'GTCAGG'
p3713
I3516
sS'CTTTAT'
p3714
I434
sS'AATCCC'
p3715
I1226
sS'AATCCA'
p3716
I1238
sS'AAATAT'
p3717
I376
sS'AATCCG'
p3718
I300
sS'GCAAGT'
p3719
I276
sS'CAGGTT'
p3720
I313
sS'AACTTT'
p3721
I1325
sS'GGGATA'
p3722
I702
sS'GGGATC'
p3723
I354
sS'GGGTGT'
p3724
I594
sS'GGGATG'
p3725
I1571
sS'GATGCT'
p3726
I775
sS'CGCAGT'
p3727
I373
sS'TCTGTA'
p3728
I1733
sS'ATTGGG'
p3729
I426
sS'GAGCCT'
p3730
I1062
sS'GGAGAC'
p3731
I312
sS'AACCGG'
p3732
I786
sS'GGAGAA'
p3733
I441
sS'GGGTGC'
p3734
I1039
sS'GGAGAG'
p3735
I497
sS'GGGTGG'
p3736
I1851
sS'GAGCCA'
p3737
I3103
sS'CGCAGG'
p3738
I1788
sS'GATGCG'
p3739
I405
sS'CGCAGA'
p3740
I915
sS'GATGCA'
p3741
I2020
sS'CGCAGC'
p3742
I2028
sS'GATGCC'
p3743
I1539
sS'CGGATT'
p3744
I45
sS'GGTAGT'
p3745
I292
sS'ACCCCT'
p3746
I474
sS'GCCAAT'
p3747
I506
sS'AACCGC'
p3748
I1014
sS'AGAAGT'
p3749
I608
sS'ACCCCA'
p3750
I1363
sS'GGTAGA'
p3751
I982
sS'ACCCCC'
p3752
I970
sS'CGGATG'
p3753
I490
sS'GCCAAG'
p3754
I1969
sS'CGGATA'
p3755
I206
sS'ACCCCG'
p3756
I408
sS'GGTAGG'
p3757
I1104
sS'AGAAGA'
p3758
I1433
sS'AGAAGC'
p3759
I1419
sS'GCAAGA'
p3760
I592
sS'AGAAGG'
p3761
I1629
sS'CACTCC'
p3762
I3817
sS'CACTCA'
p3763
I5315
sS'CACTCG'
p3764
I932
sS'TGCGTT'
p3765
I125
sS'TCAGCT'
p3766
I289
sS'AGCTTT'
p3767
I1579
sS'CCCCGG'
p3768
I998
sS'TGCGTA'
p3769
I516
sS'TGCGTG'
p3770
I1470
sS'CCCCGA'
p3771
I492
sS'AGCTTC'
p3772
I3620
sS'AGCTTA'
p3773
I3620
sS'AGCTTG'
p3774
I4890
sS'ATACGA'
p3775
I63
sS'AGACCA'
p3776
I392
sS'TTAGCT'
p3777
I290
sS'TTAGCC'
p3778
I418
sS'TTAGCA'
p3779
I639
sS'GACCAT'
p3780
I474
sS'TTAGCG'
p3781
I95
sS'CTTCAT'
p3782
I419
sS'AACTTA'
p3783
I3813
sS'TCATAT'
p3784
I226
sS'AAGGGG'
p3785
I2689
sS'ATAAGG'
p3786
I624
sS'TGTGCT'
p3787
I550
sS'AAGGGC'
p3788
I2127
sS'ATAAGC'
p3789
I467
sS'AAGGGA'
p3790
I2494
sS'ATAAGA'
p3791
I677
sS'CCAGAC'
p3792
I338
sS'CCAGAA'
p3793
I439
sS'CCAGAG'
p3794
I481
sS'TGTGCG'
p3795
I366
sS'ATAAGT'
p3796
I254
sS'AAGGGT'
p3797
I533
sS'TGTGCC'
p3798
I1111
sS'ATAGGA'
p3799
I341
sS'TGTGCA'
p3800
I1601
sS'ATAGGC'
p3801
I304
sS'GCTCGC'
p3802
I523
sS'TAAGTT'
p3803
I187
sS'ATACGC'
p3804
I72
sS'TTTGCG'
p3805
I188
sS'AGACCG'
p3806
I101
sS'CCAGAT'
p3807
I172
sS'AGACAA'
p3808
I348
sS'GACGCA'
p3809
I1261
sS'AGACAC'
p3810
I445
sS'TCCATT'
p3811
I643
sS'AGACAG'
p3812
I540
sS'TTTTCT'
p3813
I1439
sS'CGCTGT'
p3814
I536
sS'CCCACG'
p3815
I739
sS'CGTGGG'
p3816
I534
sS'CTATAG'
p3817
I299
sS'CGTGGC'
p3818
I498
sS'CGTGGA'
p3819
I293
sS'TTTTCG'
p3820
I327
sS'CGCTGA'
p3821
I1009
sS'CGCTGC'
p3822
I2347
sS'TTTTCC'
p3823
I1761
sS'TTTTCA'
p3824
I2939
sS'CGCTGG'
p3825
I1608
sS'TATGGA'
p3826
I756
sS'TATGGC'
p3827
I820
sS'CGTAGG'
p3828
I354
sS'GACGCG'
p3829
I972
sS'TATGGG'
p3830
I1011
sS'CGTAGC'
p3831
I310
sS'TACCGT'
p3832
I219
sS'AAGTGT'
p3833
I1008
sS'TGGACT'
p3834
I402
sS'CGTAGT'
p3835
I144
sS'GCTCGA'
p3836
I209
sS'TATGGT'
p3837
I392
sS'ATTCCT'
p3838
I238
sS'TGGACA'
p3839
I979
sS'TGGACC'
p3840
I711
sS'TGGACG'
p3841
I239
sS'CCGGTT'
p3842
I49
sS'CTAGCT'
p3843
I309
sS'GCTTGA'
p3844
I1063
sS'TGAGAC'
p3845
I459
sS'GCTTGC'
p3846
I1161
sS'TGAGAA'
p3847
I609
sS'TGAGAG'
p3848
I514
sS'GCTTGG'
p3849
I1278
sS'CCTGTT'
p3850
I322
sS'TATCAC'
p3851
I1459
sS'CCGGTC'
p3852
I104
sS'CCGGTA'
p3853
I137
sS'CCTGTC'
p3854
I617
sS'CCTGTA'
p3855
I1091
sS'CCTGTG'
p3856
I2439
sS'GCTTGT'
p3857
I512
sS'TGAGAT'
p3858
I188
sS'ATCGTA'
p3859
I255
sS'GGTTGT'
p3860
I498
sS'AGGGAT'
p3861
I179
sS'TATCAG'
p3862
I1702
sS'ACAATA'
p3863
I639
sS'GGTTGG'
p3864
I1387
sS'CTGAAT'
p3865
I310
sS'GGTTGA'
p3866
I1146
sS'GGTTGC'
p3867
I1313
sS'GAAAGT'
p3868
I805
sS'TCCCGC'
p3869
I1348
sS'TCCCGA'
p3870
I444
sS'TCCCGG'
p3871
I1063
sS'TGCTAT'
p3872
I806
sS'CGTTTT'
p3873
I233
sS'ATTCTC'
p3874
I763
sS'AGGGAA'
p3875
I1023
sS'ATTCTA'
p3876
I1341
sS'ATTCTG'
p3877
I2136
sS'TCATTT'
p3878
I413
sS'CAGCGA'
p3879
I443
sS'CAGCGC'
p3880
I861
sS'TGCTAG'
p3881
I1834
sS'CAGCGG'
p3882
I747
sS'CCTTGT'
p3883
I567
sS'TCATTC'
p3884
I374
sS'TCATTA'
p3885
I996
sS'CGTTTA'
p3886
I750
sS'ATTCTT'
p3887
I330
sS'CGTTTC'
p3888
I663
sS'CCACTC'
p3889
I267
sS'TGGCAA'
p3890
I456
sS'TGGCAC'
p3891
I509
sS'TGGCAG'
p3892
I881
sS'GCTGAG'
p3893
I1303
sS'CCAAGC'
p3894
I542
sS'GCTGAC'
p3895
I690
sS'TGGCAT'
p3896
I181
sS'GGCCGG'
p3897
I1374
sS'GTTCAA'
p3898
I750
sS'AGCCTC'
p3899
I3194
sS'GGCCGC'
p3900
I1705
sS'GAACTT'
p3901
I187
sS'GGCCGA'
p3902
I635
sS'GGCAAT'
p3903
I353
sS'CTGATT'
p3904
I340
sS'CCATCG'
p3905
I77
sS'CTAAAT'
p3906
I240
sS'CCATCC'
p3907
I430
sS'CCATCA'
p3908
I472
sS'GGCAAG'
p3909
I2150
sS'CTGATA'
p3910
I1114
sS'GTACCA'
p3911
I295
sS'GGCAAC'
p3912
I1488
sS'GGCAAA'
p3913
I1766
sS'CTAAAG'
p3914
I535
sS'CCATCT'
p3915
I342
sS'CTAAAC'
p3916
I448
sS'CTAAAA'
p3917
I645
sS'GACACC'
p3918
I3451
sS'GACACA'
p3919
I5472
sS'GACACG'
p3920
I1249
sS'AGGCAT'
p3921
I306
sS'TTCACC'
p3922
I2570
sS'AATTCT'
p3923
I1034
sS'TACGAG'
p3924
I336
sS'TACGAC'
p3925
I229
sS'GGAAAG'
p3926
I789
sS'GACACT'
p3927
I1816
sS'CCGTGA'
p3928
I191
sS'CTATTG'
p3929
I1182
sS'GCATAA'
p3930
I194
sS'ACGCTC'
p3931
I141
sS'TCGATG'
p3932
I165
sS'TCGATA'
p3933
I84
sS'TCGATC'
p3934
I42
sS'GCATAT'
p3935
I159
sS'CGCGAA'
p3936
I199
sS'GCATTG'
p3937
I601
sS'CAGCCT'
p3938
I903
sS'TCGATT'
p3939
I25
sS'GGATAA'
p3940
I104
sS'TCGGCA'
p3941
I149
sS'TGGTTT'
p3942
I700
sS'ACAATG'
p3943
I826
sS'AACCAA'
p3944
I2821
sS'TGCCGG'
p3945
I798
sS'AACCAC'
p3946
I3301
sS'TGCCGC'
p3947
I1007
sS'AACCAG'
p3948
I2451
sS'TGCCGA'
p3949
I360
sS'TTGGAC'
p3950
I366
sS'TCTGGA'
p3951
I606
sS'ATGATC'
p3952
I278
sS'AGGCAG'
p3953
I1567
sS'TGCCGT'
p3954
I228
sS'AACCAT'
p3955
I542
sS'AACAGA'
p3956
I5567
sS'GGGAGT'
p3957
I484
sS'AACAGC'
p3958
I4666
sS'CTACCC'
p3959
I375
sS'AACAGG'
p3960
I4556
sS'ACGTCA'
p3961
I296
sS'GACGAC'
p3962
I668
sS'GTCCCT'
p3963
I925
sS'GACGAA'
p3964
I553
sS'CCCAAC'
p3965
I1259
sS'CCCAAA'
p3966
I1412
sS'GGGAGG'
p3967
I3641
sS'GGGAGA'
p3968
I1580
sS'AACAGT'
p3969
I1601
sS'GGGAGC'
p3970
I1475
sS'ACGAAG'
p3971
I171
sS'CCCAAT'
p3972
I268
sS'GACGAT'
p3973
I119
sS'GGGCGC'
p3974
I671
sS'GGGCGA'
p3975
I297
sS'GCATCA'
p3976
I426
sS'GGGCGG'
p3977
I1332
sS'TCTCTT'
p3978
I597
sS'GTACAG'
p3979
I310
sS'CGTTAA'
p3980
I304
sS'CAGAAT'
p3981
I423
sS'GTACAC'
p3982
I187
sS'TCTCTC'
p3983
I1599
sS'TCTCTA'
p3984
I2224
sS'TCTCTG'
p3985
I4068
sS'GGGCGT'
p3986
I161
sS'CAGAAA'
p3987
I1957
sS'CAGAAC'
p3988
I1541
sS'ACGACG'
p3989
I57
sS'CAGAAG'
p3990
I2437
sS'CCTTCA'
p3991
I1688
sS'CACTTT'
p3992
I1748
sS'CATATT'
p3993
I392
sS'CCTAAT'
p3994
I164
sS'CACTTG'
p3995
I5463
sS'CCTAAC'
p3996
I489
sS'CCTAAA'
p3997
I584
sS'CACTTC'
p3998
I5188
sS'CCTAAG'
p3999
I620
sS'CACTTA'
p4000
I4998
sS'GCGGAT'
p4001
I20
sS'AATCCT'
p4002
I548
sS'CTGCGG'
p4003
I703
sS'AAGATT'
p4004
I329
sS'CTCATG'
p4005
I4128
sS'GACTCG'
p4006
I1355
sS'CTCATC'
p4007
I1771
sS'GACTCC'
p4008
I4556
sS'CTCATA'
p4009
I2876
sS'GACTCA'
p4010
I7141
sS'AAGATA'
p4011
I2401
sS'CTCCAA'
p4012
I1604
sS'AAGATG'
p4013
I3736
sS'GACTCT'
p4014
I2518
sS'GTCCCG'
p4015
I770
sS'ATCGAA'
p4016
I149
sS'AGTCGA'
p4017
I288
sS'ATATTT'
p4018
I360
sS'ATAGAG'
p4019
I292
sS'GGACTC'
p4020
I163
sS'ATAGTT'
p4021
I148
sS'TACTGT'
p4022
I2113
sS'ATATTC'
p4023
I321
sS'ATATTA'
p4024
I1036
sS'ATATTG'
p4025
I805
sS'TACTGC'
p4026
I3542
sS'TACTGA'
p4027
I4098
sS'TACTGG'
p4028
I3034
sS'ATAGTG'
p4029
I606
sS'GATCGA'
p4030
I300
sS'CAGGCA'
p4031
I2435
sS'AGGAAG'
p4032
I3701
sS'CATCCG'
p4033
I292
sS'ACGGAG'
p4034
I143
sS'CATCCA'
p4035
I1229
sS'AGGAAC'
p4036
I1530
sS'CATCCC'
p4037
I1169
sS'CGTGCT'
p4038
I167
sS'TTATGA'
p4039
I618
sS'CAAGCT'
p4040
I305
sS'CGGAGT'
p4041
I143
sS'TTATGG'
p4042
I500
sS'CATCCT'
p4043
I646
sS'AGGAAT'
p4044
I329
sS'CAGGCT'
p4045
I834
sS'ACGGAT'
p4046
I36
sS'CGGAGA'
p4047
I374
sS'CGGAGC'
p4048
I726
sS'TTATGT'
p4049
I473
sS'CGGAGG'
p4050
I886
sS'ATGGAA'
p4051
I639
sS'ATGGAC'
p4052
I333
sS'ATGGAG'
p4053
I558
sS'CGCTTG'
p4054
I1643
sS'CGCTTA'
p4055
I885
sS'CGCTTC'
p4056
I1680
sS'ATGGAT'
p4057
I128
sS'TTTGCA'
p4058
I1608
sS'CGCTTT'
p4059
I458
sS'CAAGCC'
p4060
I722
sS'TTTGCC'
p4061
I901
sS'GAAAAG'
p4062
I1829
sS'GAAAAC'
p4063
I1406
sS'ATAGAT'
p4064
I158
sS'GAAAAA'
p4065
I1493
sS'ACGGTT'
p4066
I23
sS'GAAAAT'
p4067
I375
sS'CGGCAT'
p4068
I52
sS'CTACTG'
p4069
I897
sS'ACAAGG'
p4070
I700
sS'GCCTAA'
p4071
I1213
sS'ACAAGA'
p4072
I686
sS'AAAAAA'
p4073
I2728
sS'ACAAGC'
p4074
I595
sS'ACACGT'
p4075
I107
sS'CTGCGT'
p4076
I173
sS'GCGGAG'
p4077
I299
sS'CATAAG'
p4078
I1316
sS'GCGGAA'
p4079
I168
sS'CATAAA'
p4080
I1843
sS'GCGGAC'
p4081
I150
sS'CATAAC'
p4082
I1229
sS'ACACGC'
p4083
I170
sS'ACAAGT'
p4084
I403
sS'ACACGA'
p4085
I75
sS'ACACGG'
p4086
I127
sS'CATAAT'
p4087
I392
sS'GTCCCA'
p4088
I1873
sS'GCACAT'
p4089
I162
sS'GTCCCC'
p4090
I2052
sS'ATCCCA'
p4091
I998
sS'CTGCGA'
p4092
I292
sS'CTGCGC'
p4093
I603
sS'CGGCAA'
p4094
I95
sS'CGGCAC'
p4095
I176
sS'CGGCAG'
p4096
I301
sS'CCTCCT'
p4097
I649
sS'NNNGAA'
p4098
I1
sS'CAGGCG'
p4099
I765
sS'CCTCCC'
p4100
I1618
sS'CCTCCA'
p4101
I982
sS'CCTCCG'
p4102
I387
sS'CGTGAT'
p4103
I72
s.