(dp0
S'GAACGT'
p1
I81
sS'CTTCTT'
p2
I711
sS'CACCCT'
p3
I1018
sS'ATTGAA'
p4
I477
sS'GAACGG'
p5
I250
sS'GAACGC'
p6
I296
sS'GAACGA'
p7
I157
sS'CACCCA'
p8
I3056
sS'CTTCTA'
p9
I2346
sS'CACCCC'
p10
I2758
sS'CTTCTC'
p11
I2001
sS'CACCCG'
p12
I701
sS'CTTCTG'
p13
I4657
sS'CGTGTG'
p14
I1173
sS'TAAGGT'
p15
I233
sS'CGTGTC'
p16
I269
sS'CGTGTA'
p17
I434
sS'AGGCAA'
p18
I700
sS'GGAAAT'
p19
I275
sS'TAAGGG'
p20
I649
sS'CGTGTT'
p21
I103
sS'TAAGGC'
p22
I562
sS'TAAGGA'
p23
I754
sS'GTCAAA'
p24
I2341
sS'GTCAAC'
p25
I1610
sS'GTCAAG'
p26
I2284
sS'CTGTCC'
p27
I2484
sS'TCAGAG'
p28
I472
sS'CTGTCA'
p29
I3056
sS'CTGTCG'
p30
I428
sS'TCAGAC'
p31
I337
sS'TCAGAA'
p32
I472
sS'CTTGGT'
p33
I351
sS'GTCAAT'
p34
I467
sS'GTATCA'
p35
I748
sS'GTATCC'
p36
I416
sS'GTATCG'
p37
I110
sS'CTGTCT'
p38
I1592
sS'GGTGTC'
p39
I472
sS'GGTGTA'
p40
I830
sS'GGTGTG'
p41
I2176
sS'TATCCT'
p42
I495
sS'CCGGGG'
p43
I397
sS'TTCTGT'
p44
I3199
sS'AGAGGT'
p45
I371
sS'CCGGGC'
p46
I406
sS'CCGGGA'
p47
I277
sS'TATCCA'
p48
I1135
sS'TATCCC'
p49
I832
sS'TATCCG'
p50
I210
sS'GGTGTT'
p51
I236
sS'ATTCCG'
p52
I115
sS'TTCTGG'
p53
I5042
sS'CCGGGT'
p54
I103
sS'ATTCCC'
p55
I434
sS'TTCTGC'
p56
I6093
sS'ATTCCA'
p57
I689
sS'TTCTGA'
p58
I5605
sS'CTTGGA'
p59
I658
sS'CGTCAT'
p60
I95
sS'GTTCTC'
p61
I1136
sS'AGGGAG'
p62
I1472
sS'ACGAAC'
p63
I78
sS'CGCGGG'
p64
I1110
sS'CGCGGC'
p65
I1189
sS'CGCGGA'
p66
I445
sS'ACCTGT'
p67
I792
sS'TCATGT'
p68
I439
sS'CTCCGA'
p69
I634
sS'TTACAG'
p70
I432
sS'CTCCGC'
p71
I1962
sS'TTACAA'
p72
I320
sS'TTACAC'
p73
I252
sS'CTCCGG'
p74
I1314
sS'TCATGC'
p75
I533
sS'ACCTGG'
p76
I1987
sS'CCGTGT'
p77
I160
sS'GTAAGC'
p78
I510
sS'TCATGG'
p79
I454
sS'ACCTGC'
p80
I2388
sS'ACCTGA'
p81
I1722
sS'TCACTC'
p82
I269
sS'TTACAT'
p83
I214
sS'CTCGAT'
p84
I65
sS'CTCCGT'
p85
I337
sS'GAATTT'
p86
I215
sS'GCCTGA'
p87
I2751
sS'GCCTGC'
p88
I4445
sS'GCCTGG'
p89
I4821
sS'TAAAGG'
p90
I1610
sS'CAAATT'
p91
I229
sS'TAAAGA'
p92
I1626
sS'TAAAGC'
p93
I1327
sS'GCCTGT'
p94
I1344
sS'TATCTA'
p95
I2737
sS'TAAAGT'
p96
I583
sS'CAAATA'
p97
I1380
sS'CAAATC'
p98
I393
sS'CGTGCT'
p99
I154
sS'CAAATG'
p100
I1753
sS'AATACT'
p101
I793
sS'TATCTC'
p102
I1735
sS'GGCATG'
p103
I2762
sS'GGCATA'
p104
I1374
sS'GGCATC'
p105
I856
sS'AATACG'
p106
I284
sS'AATACA'
p107
I2297
sS'CCACAC'
p108
I353
sS'AATACC'
p109
I1339
sS'GGCATT'
p110
I364
sS'TCCCCA'
p111
I2828
sS'TGCTTA'
p112
I5020
sS'GAGCAC'
p113
I1527
sS'GAGCAA'
p114
I1551
sS'CATATC'
p115
I661
sS'GAGCAG'
p116
I2687
sS'AGTAGT'
p117
I473
sS'TCTCGC'
p118
I395
sS'TCTCGA'
p119
I212
sS'TCTCGG'
p120
I444
sS'AGTAGC'
p121
I1258
sS'AGTAGA'
p122
I1416
sS'AGTAGG'
p123
I1282
sS'ACTGAA'
p124
I863
sS'AGCCCG'
p125
I813
sS'GGGTCA'
p126
I943
sS'GTGTCG'
p127
I371
sS'TCGAAC'
p128
I72
sS'TCGAAA'
p129
I100
sS'GTGTCC'
p130
I2102
sS'TCGAAG'
p131
I125
sS'GTGTCA'
p132
I2645
sS'CTTGCT'
p133
I580
sS'TCGGTC'
p134
I78
sS'GTGTCT'
p135
I1349
sS'TTGAAG'
p136
I1057
sS'TCGAAT'
p137
I56
sS'CTTGCG'
p138
I250
sS'CTTGCA'
p139
I1040
sS'TCGGTA'
p140
I124
sS'CTTGCC'
p141
I1094
sS'CGAAAG'
p142
I147
sS'CGAAAA'
p143
I95
sS'CGAAAC'
p144
I162
sS'AAGGTT'
p145
I372
sS'AATCAT'
p146
I622
sS'ACAGTG'
p147
I878
sS'CACGGC'
p148
I901
sS'AAATGA'
p149
I1291
sS'AAATGG'
p150
I891
sS'CACGGG'
p151
I824
sS'ACAGTA'
p152
I571
sS'CGAAAT'
p153
I37
sS'ACAGTT'
p154
I186
sS'AATCAG'
p155
I2239
sS'CACGGT'
p156
I212
sS'AAATGT'
p157
I633
sS'AATCAC'
p158
I1813
sS'GGGTCT'
p159
I426
sS'TCTAGT'
p160
I322
sS'TTGCCG'
p161
I219
sS'TTGCCA'
p162
I1212
sS'TTGCCC'
p163
I981
sS'TTGCCT'
p164
I607
sS'TCTAGG'
p165
I928
sS'GGGTAA'
p166
I398
sS'TCTAGA'
p167
I833
sS'GGGTAG'
p168
I439
sS'TCTAGC'
p169
I718
sS'ATACGG'
p170
I72
sS'ATACAT'
p171
I171
sS'AGATGT'
p172
I374
sS'TCGCCC'
p173
I251
sS'TCGCCA'
p174
I182
sS'GGGTCG'
p175
I260
sS'TCGCCG'
p176
I100
sS'GGTAAT'
p177
I214
sS'ACCCAT'
p178
I232
sS'CGTCAG'
p179
I412
sS'GTGTAT'
p180
I441
sS'ACCCAC'
p181
I1047
sS'GGTAAC'
p182
I794
sS'ACCCAA'
p183
I789
sS'AGATGG'
p184
I657
sS'ACCCAG'
p185
I1252
sS'AGATGA'
p186
I690
sS'TCGCCT'
p187
I96
sS'AGATGC'
p188
I567
sS'CCCCAT'
p189
I342
sS'TTGGGT'
p190
I340
sS'CACTAG'
p191
I1888
sS'CACTAA'
p192
I2517
sS'CACTAC'
p193
I1877
sS'CCCCAA'
p194
I970
sS'CCCCAC'
p195
I1404
sS'CCCCAG'
p196
I1532
sS'CACTAT'
p197
I661
sS'TTGGGG'
p198
I1163
sS'TCGGTT'
p199
I50
sS'TTGGGA'
p200
I772
sS'TTGGGC'
p201
I801
sS'TGCCTG'
p202
I5967
sS'TGCAGA'
p203
I3655
sS'TTTCTG'
p204
I5444
sS'TGCAGC'
p205
I4312
sS'TGCCTC'
p206
I2723
sS'TGCCTA'
p207
I2789
sS'TGCAGG'
p208
I4187
sS'ACGCCT'
p209
I116
sS'GTATCT'
p210
I434
sS'TTTCTT'
p211
I988
sS'TGCCTT'
p212
I967
sS'TGCAGT'
p213
I1687
sS'ACAATT'
p214
I118
sS'AAGGAA'
p215
I2372
sS'AAGGAC'
p216
I1441
sS'AAGGAG'
p217
I2308
sS'ATATGC'
p218
I526
sS'ATATGA'
p219
I577
sS'ATATGG'
p220
I427
sS'AAGGAT'
p221
I297
sS'TGGTTT'
p222
I669
sS'TGACTT'
p223
I203
sS'ACTATT'
p224
I166
sS'GGTCCC'
p225
I759
sS'TCCGGT'
p226
I326
sS'GGTCCA'
p227
I491
sS'GCCCAA'
p228
I884
sS'GGTCCG'
p229
I216
sS'GCCCAC'
p230
I1319
sS'TGTGTC'
p231
I972
sS'AGACCC'
p232
I321
sS'CTTCGG'
p233
I479
sS'CTTCGA'
p234
I253
sS'CTTCGC'
p235
I492
sS'ATGCAA'
p236
I626
sS'TCCGGG'
p237
I1316
sS'AGGTCA'
p238
I1791
sS'TCCGGC'
p239
I1000
sS'GGTCCT'
p240
I294
sS'TCCGGA'
p241
I572
sS'CTTAGC'
p242
I1075
sS'ATTGTG'
p243
I1170
sS'CTTAGA'
p244
I1149
sS'TCTTGC'
p245
I1583
sS'CTTAGG'
p246
I1132
sS'ATTGTC'
p247
I249
sS'TCTTGG'
p248
I1482
sS'CGCTAC'
p249
I480
sS'ATTTTG'
p250
I2512
sS'GAGGTG'
p251
I5258
sS'ATTTTA'
p252
I3068
sS'TCCAGA'
p253
I2079
sS'ATTTTC'
p254
I1001
sS'TCCAGC'
p255
I3066
sS'TAGCAG'
p256
I1157
sS'GATACT'
p257
I799
sS'TAGCAC'
p258
I906
sS'TAGCAA'
p259
I898
sS'TAAATA'
p260
I2411
sS'ATTTTT'
p261
I560
sS'GCCTTG'
p262
I4784
sS'TAGTGT'
p263
I787
sS'GCCTTA'
p264
I2899
sS'TTGACA'
p265
I978
sS'GCCTTC'
p266
I2927
sS'GATACG'
p267
I319
sS'TAGCAT'
p268
I308
sS'GATACC'
p269
I1127
sS'GTGGGA'
p270
I1332
sS'TGAGCT'
p271
I288
sS'ACGGAC'
p272
I95
sS'GATCAT'
p273
I425
sS'ACCGAG'
p274
I378
sS'AAGACC'
p275
I1770
sS'GATTTA'
p276
I3032
sS'AAGACG'
p277
I558
sS'GATCAG'
p278
I1776
sS'TGAGCG'
p279
I131
sS'ACGCTG'
p280
I410
sS'GATCAC'
p281
I1696
sS'TGAGCC'
p282
I638
sS'CGGGGA'
p283
I465
sS'AAGACT'
p284
I855
sS'GCGGTC'
p285
I134
sS'GCGGTA'
p286
I180
sS'GCGGTG'
p287
I625
sS'CTATCG'
p288
I78
sS'CGGTGT'
p289
I171
sS'TCGTTA'
p290
I239
sS'TCGTTC'
p291
I129
sS'ATGTGG'
p292
I1710
sS'ACTTGT'
p293
I522
sS'GCGGTT'
p294
I52
sS'ACTTGC'
p295
I1123
sS'ACCACC'
p296
I1754
sS'ACTTGA'
p297
I1049
sS'CGGTGG'
p298
I495
sS'ACTTGG'
p299
I1003
sS'CGGTGA'
p300
I317
sS'TGAGGT'
p301
I311
sS'TTCCTA'
p302
I3883
sS'TAGACT'
p303
I544
sS'TTCCTC'
p304
I4618
sS'ACTGAC'
p305
I643
sS'CTTCCG'
p306
I540
sS'TTCCTG'
p307
I8792
sS'TCCTTT'
p308
I2168
sS'GACCCA'
p309
I2831
sS'ACGCTA'
p310
I173
sS'TAGACG'
p311
I287
sS'TTCCTT'
p312
I1726
sS'TAGACC'
p313
I1028
sS'TAGACA'
p314
I1608
sS'TCCTTG'
p315
I5001
sS'TCCTTA'
p316
I3906
sS'TCCTTC'
p317
I3958
sS'ATCTCT'
p318
I1306
sS'ACCGTT'
p319
I78
sS'TGGCGC'
p320
I407
sS'TTTACG'
p321
I205
sS'TGGCGA'
p322
I211
sS'TGGCGG'
p323
I531
sS'ATCTCG'
p324
I485
sS'ATCTCA'
p325
I3340
sS'ATCTCC'
p326
I2033
sS'GGCCAA'
p327
I1094
sS'ACGGAG'
p328
I128
sS'GGCCAC'
p329
I1235
sS'ACCGTG'
p330
I781
sS'ACCGTA'
p331
I356
sS'TGGCGT'
p332
I135
sS'ACCGTC'
p333
I244
sS'ACCGAC'
p334
I224
sS'AGAATT'
p335
I252
sS'NGATCC'
p336
I1
sS'GGCAGT'
p337
I957
sS'CCATAA'
p338
I177
sS'CAAAGG'
p339
I1374
sS'CCATAC'
p340
I157
sS'CAAAGA'
p341
I1164
sS'AGATTC'
p342
I228
sS'CAAAGC'
p343
I1223
sS'CAACGT'
p344
I61
sS'GGCAGA'
p345
I3004
sS'GGCAGC'
p346
I4048
sS'CGTGAG'
p347
I473
sS'GGCAGG'
p348
I4902
sS'CAACGC'
p349
I122
sS'CTAACA'
p350
I785
sS'CAACGA'
p351
I97
sS'CTAACC'
p352
I596
sS'CCATAT'
p353
I145
sS'CTAACG'
p354
I139
sS'GGGGGT'
p355
I224
sS'TACGCT'
p356
I211
sS'AGATTG'
p357
I626
sS'CGATCT'
p358
I29
sS'CTCTAG'
p359
I2656
sS'CTCTAA'
p360
I2929
sS'CTCTAC'
p361
I2421
sS'GGGGGG'
p362
I549
sS'TACGCA'
p363
I528
sS'TACGCC'
p364
I477
sS'GGGGGC'
p365
I732
sS'CGATCG'
p366
I17
sS'GGGGGA'
p367
I676
sS'TACGCG'
p368
I222
sS'CTCTAT'
p369
I716
sS'GCGCAG'
p370
I235
sS'ACCGAA'
p371
I220
sS'CAGACC'
p372
I1454
sS'CAGACA'
p373
I1945
sS'CAGACG'
p374
I464
sS'CGCTAA'
p375
I433
sS'TAGTTG'
p376
I2216
sS'GCTAAT'
p377
I169
sS'TAGTTC'
p378
I1245
sS'TAGTTA'
p379
I2344
sS'CAGACT'
p380
I607
sS'GCTAAG'
p381
I776
sS'TAGTTT'
p382
I746
sS'GCTAAC'
p383
I439
sS'GCTAAA'
p384
I627
sS'TGCATT'
p385
I743
sS'GCGAAA'
p386
I84
sS'CGAGAG'
p387
I139
sS'AACCCT'
p388
I1020
sS'AACCCC'
p389
I2324
sS'TGCATG'
p390
I4374
sS'TGCATA'
p391
I3094
sS'TGCATC'
p392
I1377
sS'AGATTT'
p393
I221
sS'AGTTTG'
p394
I3525
sS'AACTGG'
p395
I3382
sS'AACTGA'
p396
I5113
sS'AACTGC'
p397
I4174
sS'CCCAGA'
p398
I2426
sS'CCCAGC'
p399
I3932
sS'CCCAGG'
p400
I3917
sS'AACTGT'
p401
I1833
sS'AGCGGT'
p402
I176
sS'CTACAT'
p403
I159
sS'CAATTT'
p404
I163
sS'CCCAGT'
p405
I808
sS'CTCCAA'
p406
I1638
sS'TTGACG'
p407
I173
sS'CGCATA'
p408
I336
sS'ATACTG'
p409
I611
sS'CGCATC'
p410
I328
sS'ATACTA'
p411
I458
sS'ATACTC'
p412
I172
sS'CGCATG'
p413
I946
sS'AGGCCA'
p414
I1421
sS'ATACTT'
p415
I167
sS'CTATCT'
p416
I365
sS'GCGCAC'
p417
I151
sS'GCTCCG'
p418
I381
sS'TATTGT'
p419
I1332
sS'GCTCCC'
p420
I862
sS'GCTCCA'
p421
I767
sS'CCTACT'
p422
I332
sS'TGTACT'
p423
I487
sS'TTTAGT'
p424
I516
sS'TATTGG'
p425
I1936
sS'GCTCCT'
p426
I387
sS'TATTGC'
p427
I2125
sS'TATTGA'
p428
I2231
sS'TTTAGG'
p429
I1204
sS'TGTACG'
p430
I180
sS'CCTACG'
p431
I176
sS'TGTACA'
p432
I1269
sS'TTTAGC'
p433
I1152
sS'TGTACC'
p434
I791
sS'TTTAGA'
p435
I1618
sS'TTCGCG'
p436
I277
sS'TTCGCA'
p437
I383
sS'TTCGCC'
p438
I563
sS'AGTATC'
p439
I473
sS'GACTAA'
p440
I3085
sS'AGTATA'
p441
I1253
sS'GACTAC'
p442
I2379
sS'AGTATG'
p443
I1479
sS'TTTGGA'
p444
I783
sS'TTTGGC'
p445
I753
sS'TTCGCT'
p446
I246
sS'CTTTTA'
p447
I4096
sS'GACTAT'
p448
I802
sS'AGTATT'
p449
I286
sS'TTACTC'
p450
I286
sS'TTACTA'
p451
I695
sS'TTACTG'
p452
I935
sS'ACCTTG'
p453
I3088
sS'ACCTTC'
p454
I1626
sS'ACCTTA'
p455
I2094
sS'CTAATA'
p456
I876
sS'GTAAAC'
p457
I529
sS'ACGCTT'
p458
I61
sS'ACCTTT'
p459
I727
sS'ACAGGG'
p460
I587
sS'CTGGGA'
p461
I1450
sS'CTGGGC'
p462
I1661
sS'ACAGGC'
p463
I706
sS'ACAGGA'
p464
I748
sS'CTGGGG'
p465
I1805
sS'AGGACG'
p466
I508
sS'GCAGCT'
p467
I373
sS'CAGGAA'
p468
I1465
sS'TCGCTT'
p469
I76
sS'AGGACC'
p470
I1224
sS'AGGACA'
p471
I1702
sS'GCGCAT'
p472
I48
sS'TTATAC'
p473
I296
sS'ACAGGT'
p474
I370
sS'CTGGGT'
p475
I564
sS'TTATAG'
p476
I338
sS'TCGCTG'
p477
I419
sS'GCAGCG'
p478
I249
sS'AGGACT'
p479
I667
sS'GCAGCA'
p480
I787
sS'TCGCTA'
p481
I162
sS'CAGGAT'
p482
I250
sS'CCTCAG'
p483
I1198
sS'CCTCAA'
p484
I690
sS'CCTCAC'
p485
I927
sS'TATGTT'
p486
I484
sS'ATGGGC'
p487
I569
sS'TCTTTG'
p488
I4404
sS'ATGGGA'
p489
I726
sS'TCTTTA'
p490
I3420
sS'ATGGGG'
p491
I858
sS'TCTTTC'
p492
I2132
sS'CCTCAT'
p493
I297
sS'TCTTTT'
p494
I917
sS'TATGTG'
p495
I3676
sS'TATGTA'
p496
I2877
sS'ATGGGT'
p497
I248
sS'TATGTC'
p498
I795
sS'GAAAGA'
p499
I2787
sS'ATCAAG'
p500
I1424
sS'GAAAGC'
p501
I2196
sS'ATCAAC'
p502
I1155
sS'GAAAGG'
p503
I2863
sS'GTCCAC'
p504
I997
sS'GGAACT'
p505
I287
sS'CGCTAG'
p506
I518
sS'ACGTGG'
p507
I372
sS'CTATTC'
p508
I438
sS'CATGAG'
p509
I1387
sS'ATCAAT'
p510
I321
sS'TCAAAC'
p511
I455
sS'CATGAC'
p512
I1126
sS'CATGAA'
p513
I1127
sS'GTAGCG'
p514
I106
sS'CAAGTT'
p515
I220
sS'GCGGCT'
p516
I156
sS'GTAGCC'
p517
I443
sS'GCTTTC'
p518
I1466
sS'TTTCTC'
p519
I2145
sS'GCTTTT'
p520
I543
sS'CAAGTG'
p521
I1104
sS'GTAGCT'
p522
I313
sS'GCGGCC'
p523
I640
sS'CAAGTC'
p524
I383
sS'GCGGCA'
p525
I307
sS'CAAGTA'
p526
I746
sS'AACGGT'
p527
I200
sS'CGTACG'
p528
I95
sS'GGGGAA'
p529
I742
sS'TAATCG'
p530
I82
sS'GGTCTT'
p531
I318
sS'TAATCA'
p532
I805
sS'TAATCC'
p533
I433
sS'GGGTTT'
p534
I415
sS'CGGCCC'
p535
I682
sS'CGACTA'
p536
I82
sS'CGGCCA'
p537
I440
sS'TTGATA'
p538
I1053
sS'CGGCCG'
p539
I337
sS'TCGTGA'
p540
I131
sS'ATGAAG'
p541
I969
sS'GGTCTG'
p542
I2399
sS'TAATCT'
p543
I267
sS'TGCGAC'
p544
I307
sS'GGTCTC'
p545
I1035
sS'GGTCTA'
p546
I1016
sS'AAAATG'
p547
I2346
sS'AAAATC'
p548
I400
sS'TCAATA'
p549
I530
sS'AAAATA'
p550
I2249
sS'TCGTCA'
p551
I176
sS'TTCAGA'
p552
I4437
sS'TTCAGG'
p553
I4063
sS'GAACAT'
p554
I163
sS'TCGTCG'
p555
I45
sS'TGCCAA'
p556
I1128
sS'GAACAA'
p557
I468
sS'ATCCCG'
p558
I251
sS'GAACAC'
p559
I447
sS'ATCCCC'
p560
I1104
sS'GAACAG'
p561
I613
sS'TTCAGT'
p562
I1974
sS'ATTGCA'
p563
I581
sS'CACCAC'
p564
I2367
sS'CACCAA'
p565
I1872
sS'CACCAG'
p566
I1985
sS'TCCGTG'
p567
I1045
sS'ATTGCG'
p568
I81
sS'TCCGTC'
p569
I507
sS'TCCGTA'
p570
I477
sS'ACGCGA'
p571
I68
sS'CACCAT'
p572
I520
sS'AACATG'
p573
I4596
sS'AACATA'
p574
I3502
sS'AACATC'
p575
I1575
sS'GTCAGC'
p576
I3157
sS'GCACGG'
p577
I135
sS'GTCAGA'
p578
I2945
sS'GCACGA'
p579
I84
sS'CAGTCC'
p580
I1709
sS'GCACGC'
p581
I175
sS'CAGTCA'
p582
I2570
sS'GCAAGC'
p583
I514
sS'GCACGT'
p584
I103
sS'GCAAGA'
p585
I550
sS'TCAGCT'
p586
I303
sS'GTCAGT'
p587
I1076
sS'GTATAC'
p588
I286
sS'TTCCGT'
p589
I314
sS'GTATAA'
p590
I296
sS'GTATAG'
p591
I214
sS'CCGGAA'
p592
I196
sS'CCGGAC'
p593
I110
sS'CCGGAG'
p594
I219
sS'TATCAT'
p595
I543
sS'TGACGT'
p596
I82
sS'TTCCGG'
p597
I1358
sS'TTCCGA'
p598
I466
sS'TTCCGC'
p599
I1115
sS'GTATAT'
p600
I207
sS'CGTCTC'
p601
I707
sS'TATCAA'
p602
I1362
sS'CGTCTG'
p603
I1144
sS'CCGGAT'
p604
I36
sS'CTCTTC'
p605
I5736
sS'TGTTAT'
p606
I598
sS'CTCTTA'
p607
I5661
sS'CTCTTG'
p608
I7334
sS'CCCGAT'
p609
I50
sS'TACGTA'
p610
I771
sS'TACGTC'
p611
I392
sS'TCTGGT'
p612
I352
sS'CGCGAT'
p613
I45
sS'TACGTG'
p614
I1233
sS'GCCGTT'
p615
I95
sS'TGTTAG'
p616
I1377
sS'GCTGTT'
p617
I294
sS'AAGCTT'
p618
I671
sS'CTCTTT'
p619
I2892
sS'TGTTAA'
p620
I1865
sS'TCTGGG'
p621
I1128
sS'CGCGAC'
p622
I364
sS'GATATT'
p623
I384
sS'TCTGGC'
p624
I825
sS'TACGTT'
p625
I159
sS'CGCGAG'
p626
I548
sS'AGTCGT'
p627
I144
sS'TTACCT'
p628
I196
sS'CTCCAT'
p629
I535
sS'AATGCG'
p630
I292
sS'TTACCG'
p631
I57
sS'CTCCAC'
p632
I2075
sS'AGTCGG'
p633
I514
sS'TTACCC'
p634
I297
sS'CTCCAG'
p635
I2640
sS'TTACCA'
p636
I462
sS'AGTCGC'
p637
I540
sS'CCGACT'
p638
I52
sS'GCCTAC'
p639
I1360
sS'GCCTAA'
p640
I1265
sS'GCCTAG'
p641
I1634
sS'CCGACA'
p642
I159
sS'GATATC'
p643
I550
sS'CCGACC'
p644
I205
sS'CCGACG'
p645
I96
sS'GCCTAT'
p646
I393
sS'TGACGG'
p647
I112
sS'CCTACA'
p648
I687
sS'CCCGAG'
p649
I542
sS'TGACGA'
p650
I73
sS'TCAGCG'
p651
I154
sS'CTAAGT'
p652
I365
sS'CCCGAA'
p653
I214
sS'CGCACA'
p654
I856
sS'ATACAC'
p655
I274
sS'CGCACC'
p656
I1015
sS'ATACAA'
p657
I289
sS'ACTGCT'
p658
I378
sS'CCCGAC'
p659
I406
sS'CGCACG'
p660
I513
sS'GGGTCC'
p661
I844
sS'CTCACT'
p662
I1612
sS'TTTGTA'
p663
I2034
sS'ACTGCA'
p664
I1073
sS'TTTGTC'
p665
I689
sS'ACTGCC'
p666
I718
sS'CGCACT'
p667
I300
sS'TTTGTG'
p668
I2766
sS'TAGAGC'
p669
I1600
sS'CTCACC'
p670
I3433
sS'CTCACA'
p671
I3641
sS'CTCACG'
p672
I815
sS'CTGCAC'
p673
I856
sS'TAGTGG'
p674
I1592
sS'GTGAGG'
p675
I1945
sS'GATTTT'
p676
I831
sS'TAGTGC'
p677
I1277
sS'GTGAGC'
p678
I1478
sS'TAGTGA'
p679
I1603
sS'GTGAGA'
p680
I1657
sS'TCGACG'
p681
I48
sS'TCGACA'
p682
I63
sS'TCGACC'
p683
I99
sS'GATTTG'
p684
I3897
sS'GTGAGT'
p685
I586
sS'GTGGGG'
p686
I2163
sS'GATTTC'
p687
I2039
sS'GTGGGC'
p688
I1210
sS'TCGACT'
p689
I30
sS'AGTTTT'
p690
I728
sS'ACGTAA'
p691
I120
sS'CTGGTT'
p692
I391
sS'TGCAAA'
p693
I3400
sS'CGAACG'
p694
I52
sS'CGAACC'
p695
I148
sS'CGAACA'
p696
I117
sS'CTGGTG'
p697
I2263
sS'CTGGTA'
p698
I1211
sS'CTGGTC'
p699
I716
sS'CTGCAA'
p700
I705
sS'CGAACT'
p701
I56
sS'TTGCAT'
p702
I323
sS'NNGAAT'
p703
I1
sS'GCGGAA'
p704
I157
sS'CGTCTT'
p705
I160
sS'TTGCAG'
p706
I799
sS'GAGGGA'
p707
I3622
sS'TTGCAC'
p708
I498
sS'TTGCAA'
p709
I552
sS'ACGTAC'
p710
I102
sS'TCCATC'
p711
I1088
sS'TCGCAT'
p712
I24
sS'GTCGTG'
p713
I734
sS'GTCGTA'
p714
I322
sS'GTCGTC'
p715
I283
sS'CCGTTT'
p716
I85
sS'ACTGAT'
p717
I251
sS'ATATCG'
p718
I65
sS'GTCGTT'
p719
I105
sS'TCAGAT'
p720
I175
sS'TCGCAG'
p721
I111
sS'GAGGGG'
p722
I4543
sS'TCGCAC'
p723
I66
sS'CCGTTG'
p724
I321
sS'CCGTTA'
p725
I267
sS'CCGTTC'
p726
I155
sS'AATGCT'
p727
I694
sS'GGTACG'
p728
I107
sS'GGTACA'
p729
I580
sS'GGTACC'
p730
I460
sS'TATTTG'
p731
I5304
sS'CCAGTT'
p732
I184
sS'TATTTC'
p733
I2806
sS'TATTTA'
p734
I6150
sS'CCCCCT'
p735
I508
sS'GGTACT'
p736
I217
sS'TCCAGG'
p737
I3021
sS'AATGCC'
p738
I1340
sS'AATGCA'
p739
I2273
sS'CCCCCC'
p740
I772
sS'CCCCCA'
p741
I1571
sS'TATTTT'
p742
I1975
sS'CCCCCG'
p743
I535
sS'CTTGAG'
p744
I1006
sS'ATGATG'
p745
I1537
sS'CTTGAC'
p746
I676
sS'CTTGAA'
p747
I880
sS'CGGACT'
p748
I117
sS'TGCAAC'
p749
I1861
sS'TTGAGT'
p750
I492
sS'TGCAAG'
p751
I2533
sS'GAAGTG'
p752
I2720
sS'ATGATT'
p753
I202
sS'CTTGAT'
p754
I191
sS'CGAATC'
p755
I56
sS'TTGAGG'
p756
I1499
sS'AATCTC'
p757
I1475
sS'TTGAGC'
p758
I995
sS'TGCAAT'
p759
I615
sS'GAGAAT'
p760
I700
sS'TGTCTT'
p761
I846
sS'CGAATA'
p762
I126
sS'ACTGAG'
p763
I909
sS'AAGGCC'
p764
I2368
sS'ATAACC'
p765
I439
sS'AAGGCA'
p766
I2873
sS'ATAACA'
p767
I674
sS'AAGGCG'
p768
I789
sS'ATAACG'
p769
I111
sS'GAGGGT'
p770
I768
sS'TTGACT'
p771
I435
sS'TGTCTG'
p772
I5142
sS'GAGAAG'
p773
I4830
sS'GAGAAA'
p774
I4241
sS'TGTCTC'
p775
I2400
sS'GAGAAC'
p776
I2706
sS'TGTCTA'
p777
I2554
sS'TGTGGC'
p778
I1432
sS'TGTGGA'
p779
I955
sS'TGTGGG'
p780
I1639
sS'ATAACT'
p781
I239
sS'AAGGCT'
p782
I984
sS'TAGGCT'
p783
I583
sS'GCCCCG'
p784
I1144
sS'ACCAAG'
p785
I1471
sS'GGTCAG'
p786
I1028
sS'GCCCCC'
p787
I1632
sS'GGTCAA'
p788
I598
sS'ACCAAC'
p789
I1189
sS'GGTCAC'
p790
I897
sS'GGTCAT'
p791
I190
sS'ACCAAT'
p792
I393
sS'CGTGCA'
p793
I401
sS'GAACTG'
p794
I1713
sS'CGTGCG'
p795
I271
sS'CAAACT'
p796
I341
sS'TTTTGC'
p797
I2067
sS'TCTTAC'
p798
I926
sS'AATTGG'
p799
I1415
sS'TCTTAA'
p800
I1170
sS'AATTGA'
p801
I1896
sS'ATCATG'
p802
I2545
sS'AATTGC'
p803
I1779
sS'TAGCCA'
p804
I1540
sS'TGGGGT'
p805
I389
sS'TAGCCC'
p806
I986
sS'GATAAT'
p807
I555
sS'CGCTCA'
p808
I1160
sS'CGCTCC'
p809
I1996
sS'AATTGT'
p810
I859
sS'CGATCC'
p811
I71
sS'AATCTT'
p812
I577
sS'TCTTAT'
p813
I337
sS'GTTATG'
p814
I1251
sS'CGCTCT'
p815
I657
sS'TGGGGG'
p816
I1123
sS'GATAAC'
p817
I1317
sS'TAGCCT'
p818
I480
sS'TGGGGC'
p819
I1185
sS'TGGGGA'
p820
I1133
sS'GATCCT'
p821
I523
sS'AAGAAT'
p822
I599
sS'GTTATC'
p823
I284
sS'AAGAAC'
p824
I2155
sS'GATCCA'
p825
I1149
sS'AAGAAA'
p826
I3965
sS'GATCCC'
p827
I1202
sS'AAGAAG'
p828
I3399
sS'GATCCG'
p829
I404
sS'GCCCCA'
p830
I2175
sS'ATGCCG'
p831
I133
sS'GCAACG'
p832
I117
sS'AAGCAT'
p833
I469
sS'CAAGGG'
p834
I702
sS'CAAGGC'
p835
I687
sS'GGTTCT'
p836
I607
sS'CAAGGA'
p837
I703
sS'GGTTCA'
p838
I1463
sS'GGTTCC'
p839
I1271
sS'CAAGGT'
p840
I302
sS'GGTTCG'
p841
I369
sS'CTGTAT'
p842
I441
sS'ATTATA'
p843
I921
sS'ATTATC'
p844
I275
sS'TAGAAT'
p845
I434
sS'GATAGT'
p846
I545
sS'ATTATG'
p847
I1050
sS'AGTCTT'
p848
I533
sS'TAGAAA'
p849
I2110
sS'TAGAAC'
p850
I1309
sS'ATTATT'
p851
I247
sS'TAGAAG'
p852
I1871
sS'AGTCTA'
p853
I1906
sS'AGTCTC'
p854
I1770
sS'AGTCTG'
p855
I3510
sS'TAACTC'
p856
I322
sS'CGAGTC'
p857
I89
sS'TAACTA'
p858
I789
sS'TAACTG'
p859
I1138
sS'ATCTAT'
p860
I434
sS'ACGCGT'
p861
I38
sS'AGGTAT'
p862
I258
sS'GGCGCT'
p863
I341
sS'TAACTT'
p864
I237
sS'ATCTAG'
p865
I1151
sS'ATCTAC'
p866
I1112
sS'ATCTAA'
p867
I1581
sS'ATGCCT'
p868
I382
sS'CCATGT'
p869
I377
sS'ACCAAA'
p870
I1505
sS'TGGAGG'
p871
I2174
sS'TGGAGA'
p872
I1466
sS'TGGAGC'
p873
I1406
sS'CCATGC'
p874
I451
sS'CCATGA'
p875
I395
sS'CCATGG'
p876
I475
sS'TGGAGT'
p877
I518
sS'ATTACG'
p878
I109
sS'TCAGTA'
p879
I547
sS'TCAGTC'
p880
I266
sS'CTCTCT'
p881
I3270
sS'GGGGAT'
p882
I169
sS'TCAGTG'
p883
I898
sS'CGATAT'
p884
I8
sS'GTGCGC'
p885
I509
sS'CTCTCG'
p886
I1335
sS'GGGGAC'
p887
I592
sS'CTCTCC'
p888
I5855
sS'TCAGTT'
p889
I226
sS'CTCTCA'
p890
I5857
sS'ATGCAG'
p891
I635
sS'CGATAG'
p892
I32
sS'CGATAA'
p893
I29
sS'CGATAC'
p894
I42
sS'CTAAGG'
p895
I815
sS'GTGTTT'
p896
I1014
sS'GCTACT'
p897
I298
sS'GTGGTT'
p898
I543
sS'GTGTTC'
p899
I1455
sS'GTGTTA'
p900
I2640
sS'GTGTTG'
p901
I3274
sS'CGTGCC'
p902
I400
sS'GTGGTA'
p903
I1578
sS'GCTACA'
p904
I600
sS'GTGGTC'
p905
I803
sS'CTAAGC'
p906
I675
sS'GTGGTG'
p907
I3108
sS'GCTACG'
p908
I154
sS'GCCCCT'
p909
I754
sS'TTTCGT'
p910
I160
sS'TGCCCT'
p911
I867
sS'AGCGTT'
p912
I189
sS'AGGTAA'
p913
I634
sS'TGCCCC'
p914
I1791
sS'TGCCCA'
p915
I2019
sS'TGCCCG'
p916
I547
sS'TTTCGG'
p917
I433
sS'AGCGTA'
p918
I468
sS'AGCGTC'
p919
I634
sS'AGCGTG'
p920
I1461
sS'GGCCCC'
p921
I1677
sS'AACGTT'
p922
I194
sS'GGCCCA'
p923
I1345
sS'CACGTG'
p924
I2611
sS'GGCCCG'
p925
I687
sS'CACGTA'
p926
I1032
sS'CACGTC'
p927
I746
sS'ACGTGC'
p928
I325
sS'ACGTGA'
p929
I271
sS'CTACGG'
p930
I117
sS'ACAGTC'
p931
I213
sS'CACGTT'
p932
I251
sS'TTCACG'
p933
I637
sS'GNCCCA'
p934
I1
sS'GGCCCT'
p935
I589
sS'GGGACA'
p936
I1073
sS'TTTTGG'
p937
I1789
sS'GGGACC'
p938
I1017
sS'TCGTGG'
p939
I238
sS'GGGACG'
p940
I482
sS'TCTTAG'
p941
I964
sS'GCTTCC'
p942
I1702
sS'AGAGAG'
p943
I1047
sS'AGAGAA'
p944
I989
sS'AGAGAC'
p945
I676
sS'TTCACC'
p946
I2540
sS'GTCTTT'
p947
I1791
sS'TCTATC'
p948
I323
sS'TCTATG'
p949
I1189
sS'AGAGAT'
p950
I299
sS'ATGTGC'
p951
I1283
sS'GTCTTG'
p952
I5262
sS'TCTATT'
p953
I249
sS'GTCTTC'
p954
I3366
sS'GTCTTA'
p955
I3843
sS'GCAGAG'
p956
I574
sS'GCTCAA'
p957
I654
sS'GCTCAC'
p958
I746
sS'GCAGAC'
p959
I332
sS'GCAGAA'
p960
I508
sS'GCTCAG'
p961
I1219
sS'AGACGT'
p962
I85
sS'ATGCGT'
p963
I68
sS'TTGCTG'
p964
I3227
sS'TTGCTA'
p965
I1785
sS'TTGCTC'
p966
I986
sS'GCAGAT'
p967
I173
sS'GCTCAT'
p968
I244
sS'GTACGG'
p969
I67
sS'TTGCTT'
p970
I628
sS'CGATTC'
p971
I53
sS'TAGCCG'
p972
I265
sS'ATGCGC'
p973
I215
sS'ATGCGA'
p974
I139
sS'TGTAAG'
p975
I1648
sS'GGCTAG'
p976
I1249
sS'TGTAAC'
p977
I1454
sS'GGCTAC'
p978
I1169
sS'GACTGT'
p979
I2224
sS'GGCTAA'
p980
I1453
sS'ACTGTA'
p981
I1234
sS'TTGGTA'
p982
I1128
sS'ACTGTC'
p983
I444
sS'TTGGTC'
p984
I509
sS'TTCGAC'
p985
I232
sS'ACTGTG'
p986
I2021
sS'AATCAA'
p987
I1853
sS'GACTGC'
p988
I4861
sS'GGCTAT'
p989
I379
sS'GACTGA'
p990
I5034
sS'GACTGG'
p991
I4817
sS'TGTGGT'
p992
I690
sS'TTGGTT'
p993
I347
sS'ACTGTT'
p994
I244
sS'GTTTCT'
p995
I1113
sS'TTTTGT'
p996
I1189
sS'CCTTTT'
p997
I646
sS'GTTTCG'
p998
I380
sS'GTTTCC'
p999
I1946
sS'GTTTCA'
p1000
I2845
sS'ATAATG'
p1001
I919
sS'CCTTTA'
p1002
I2713
sS'CCTTTC'
p1003
I1719
sS'CGTTTA'
p1004
I760
sS'ATAATA'
p1005
I940
sS'CCTTTG'
p1006
I3672
sS'ACAGAA'
p1007
I817
sS'ACAGAC'
p1008
I496
sS'ACAGAG'
p1009
I732
sS'TTATCT'
p1010
I395
sS'CTGGAC'
p1011
I574
sS'CTGGAA'
p1012
I719
sS'CTGGAG'
p1013
I1069
sS'CGATTT'
p1014
I27
sS'ACAGAT'
p1015
I285
sS'GATAAG'
p1016
I1890
sS'TTATCA'
p1017
I735
sS'CTGGAT'
p1018
I156
sS'TTATCC'
p1019
I395
sS'CCAATG'
p1020
I705
sS'AAACCG'
p1021
I136
sS'AAACCA'
p1022
I1021
sS'CCAATC'
p1023
I295
sS'AAACCC'
p1024
I602
sS'CCAATA'
p1025
I466
sS'TGTCGG'
p1026
I402
sS'GAGATC'
p1027
I1035
sS'CCCTAT'
p1028
I340
sS'GAGATA'
p1029
I2640
sS'AACGAA'
p1030
I552
sS'GAGATG'
p1031
I4807
sS'TGTCGA'
p1032
I210
sS'ATTTGA'
p1033
I1430
sS'CCAATT'
p1034
I134
sS'ATTTGC'
p1035
I1453
sS'GGGTAT'
p1036
I145
sS'ATTTGG'
p1037
I1087
sS'CCCTAG'
p1038
I1198
sS'TGTCGT'
p1039
I140
sS'CCCTAC'
p1040
I1055
sS'GAGATT'
p1041
I411
sS'CCCTAA'
p1042
I1294
sS'CATTAT'
p1043
I595
sS'TGGATT'
p1044
I207
sS'TGACAG'
p1045
I361
sS'ATCACC'
p1046
I1470
sS'CATGCT'
p1047
I672
sS'TGACAC'
p1048
I304
sS'ATCACG'
p1049
I377
sS'TGGATA'
p1050
I918
sS'CATTAG'
p1051
I1658
sS'CATTAA'
p1052
I1980
sS'CATTAC'
p1053
I1535
sS'CATGCA'
p1054
I1993
sS'TGACAT'
p1055
I166
sS'CATGCC'
p1056
I1350
sS'ATCACT'
p1057
I722
sS'CATGCG'
p1058
I395
sS'GTAGAA'
p1059
I408
sS'GTAGAC'
p1060
I253
sS'CCGCTT'
p1061
I95
sS'GTAGAG'
p1062
I394
sS'GATTGG'
p1063
I2911
sS'ACAACC'
p1064
I422
sS'GATTGC'
p1065
I1907
sS'GATTGA'
p1066
I1901
sS'TAAATT'
p1067
I323
sS'ACTAAG'
p1068
I733
sS'GTAGAT'
p1069
I110
sS'GGGTAC'
p1070
I302
sS'TGATGC'
p1071
I425
sS'GATTGT'
p1072
I938
sS'ACAACT'
p1073
I241
sS'GTCGAA'
p1074
I178
sS'TAATAG'
p1075
I381
sS'AGTCCG'
p1076
I313
sS'TAATAC'
p1077
I372
sS'GTCCGA'
p1078
I343
sS'TAATAA'
p1079
I576
sS'GTCCGC'
p1080
I882
sS'TGCCAT'
p1081
I375
sS'TCAACA'
p1082
I564
sS'ACTCTT'
p1083
I300
sS'GTCCGT'
p1084
I179
sS'TAATAT'
p1085
I258
sS'ATTCGC'
p1086
I131
sS'TTCTCC'
p1087
I5286
sS'ATTCGA'
p1088
I158
sS'TTCTCA'
p1089
I7896
sS'ATTCGG'
p1090
I174
sS'TTCTCG'
p1091
I1170
sS'TCGTAC'
p1092
I66
sS'TACCTT'
p1093
I1003
sS'TCGTAA'
p1094
I58
sS'TCGTAG'
p1095
I76
sS'GAACCT'
p1096
I235
sS'ATCCAA'
p1097
I694
sS'ATCCAC'
p1098
I724
sS'TGAACC'
p1099
I563
sS'TTCTCT'
p1100
I3746
sS'TGAACA'
p1101
I786
sS'GAACCC'
p1102
I437
sS'TTATAT'
p1103
I245
sS'TACCTG'
p1104
I3866
sS'TACCTA'
p1105
I2849
sS'TACCTC'
p1106
I2162
sS'TCGTAT'
p1107
I40
sS'ACCATC'
p1108
I730
sS'ACCATA'
p1109
I1444
sS'ACCATG'
p1110
I2339
sS'ACTGCG'
p1111
I272
sS'ATGTTG'
p1112
I2107
sS'AGCTCT'
p1113
I1937
sS'TGTCCT'
p1114
I541
sS'AGTGGT'
p1115
I410
sS'CGTGGT'
p1116
I177
sS'TGATGT'
p1117
I347
sS'ATGTTT'
p1118
I632
sS'ACCATT'
p1119
I332
sS'AGTGGA'
p1120
I928
sS'AGTGGC'
p1121
I1152
sS'AGCTCC'
p1122
I3762
sS'AGTGGG'
p1123
I1239
sS'GGCCTT'
p1124
I557
sS'CAGTAA'
p1125
I922
sS'CAGTAC'
p1126
I749
sS'CAGTAG'
p1127
I797
sS'CGCGGT'
p1128
I132
sS'TTAATA'
p1129
I1195
sS'CAGTAT'
p1130
I296
sS'GTTCCT'
p1131
I402
sS'TGCCAG'
p1132
I1584
sS'CCGGCT'
p1133
I146
sS'GATCTA'
p1134
I1964
sS'GATCTC'
p1135
I1738
sS'ATTGAC'
p1136
I432
sS'GATCTG'
p1137
I3776
sS'TCCCTT'
p1138
I1051
sS'CCGGCC'
p1139
I612
sS'CCGGCA'
p1140
I284
sS'CCGGCG'
p1141
I205
sS'CACATT'
p1142
I880
sS'GTTCCC'
p1143
I859
sS'TCCCTC'
p1144
I2696
sS'GAGCTT'
p1145
I750
sS'TCCCTA'
p1146
I2457
sS'TTAATG'
p1147
I1218
sS'TCCCTG'
p1148
I5053
sS'GATCTT'
p1149
I698
sS'ATAGAA'
p1150
I464
sS'AAGTGA'
p1151
I3088
sS'AAGTGC'
p1152
I2253
sS'TGTTCT'
p1153
I1262
sS'AAGTGG'
p1154
I2462
sS'TGATTG'
p1155
I822
sS'TGCGCA'
p1156
I705
sS'TCTGAT'
p1157
I240
sS'TGATTA'
p1158
I649
sS'TGTTCA'
p1159
I2924
sS'CACAAG'
p1160
I3034
sS'TGTTCC'
p1161
I1768
sS'CACAAA'
p1162
I3542
sS'CACAAC'
p1163
I2408
sS'TGTTCG'
p1164
I394
sS'TCTGAA'
p1165
I842
sS'TCTGAC'
p1166
I785
sS'GAAGTC'
p1167
I668
sS'TCTGAG'
p1168
I1097
sS'CGCGCC'
p1169
I1491
sS'CGCGCA'
p1170
I747
sS'GGTAAA'
p1171
I952
sS'CGCGCG'
p1172
I809
sS'CTCCCT'
p1173
I1540
sS'AGCGGG'
p1174
I1066
sS'AGCGGA'
p1175
I613
sS'AGCGGC'
p1176
I1045
sS'GGTAAG'
p1177
I1022
sS'GACATT'
p1178
I931
sS'CGCGCT'
p1179
I318
sS'ACCTCC'
p1180
I2254
sS'ACCTCA'
p1181
I2662
sS'CTCCCA'
p1182
I3316
sS'GTGCGG'
p1183
I512
sS'GCCTCT'
p1184
I1758
sS'TAAGCC'
p1185
I661
sS'CGGGAG'
p1186
I438
sS'CCCATG'
p1187
I2610
sS'CGGGAA'
p1188
I224
sS'CCCATA'
p1189
I1463
sS'TAGCTG'
p1190
I3203
sS'CCCATC'
p1191
I981
sS'TTGTTG'
p1192
I3043
sS'CCTGCT'
p1193
I490
sS'CCGAAT'
p1194
I25
sS'CCCATT'
p1195
I418
sS'CGGGAT'
p1196
I53
sS'GCCTCG'
p1197
I1373
sS'GCCTCA'
p1198
I3891
sS'TAAGCT'
p1199
I289
sS'GCCTCC'
p1200
I4973
sS'CCGAAC'
p1201
I78
sS'CCTGCG'
p1202
I468
sS'CCGAAA'
p1203
I92
sS'CCGAAG'
p1204
I174
sS'CCTGCC'
p1205
I1397
sS'CCTGCA'
p1206
I1148
sS'GTACTG'
p1207
I648
sS'CCATTC'
p1208
I268
sS'TATAAG'
p1209
I1580
sS'TATAAA'
p1210
I2601
sS'TATAAC'
p1211
I1287
sS'TAACGA'
p1212
I109
sS'TATAAT'
p1213
I644
sS'GTTCTA'
p1214
I1547
sS'CCATTT'
p1215
I241
sS'TCTACA'
p1216
I707
sS'TCTACC'
p1217
I657
sS'CTAACT'
p1218
I283
sS'TCTACG'
p1219
I150
sS'CACCGT'
p1220
I255
sS'CGCAAC'
p1221
I461
sS'CGCAAA'
p1222
I452
sS'ATACCG'
p1223
I51
sS'CGCAAG'
p1224
I626
sS'ATACCA'
p1225
I329
sS'ATACCC'
p1226
I188
sS'TCTACT'
p1227
I366
sS'ATACCT'
p1228
I165
sS'CGCAAT'
p1229
I115
sS'TAGTAA'
p1230
I1015
sS'TGGGTG'
p1231
I2179
sS'TAGTAC'
p1232
I719
sS'CTCAAG'
p1233
I2864
sS'CTCAAA'
p1234
I3443
sS'TAGTAG'
p1235
I764
sS'CTCAAC'
p1236
I2081
sS'GTGTGC'
p1237
I2374
sS'GTGTGA'
p1238
I2032
sS'GTGTGG'
p1239
I2916
sS'TAACGG'
p1240
I120
sS'TTGCGT'
p1241
I102
sS'CTCAAT'
p1242
I534
sS'TAGTAT'
p1243
I369
sS'CTCCCG'
p1244
I1240
sS'GTGTGT'
p1245
I1936
sS'ATCTTT'
p1246
I1098
sS'GTTGGG'
p1247
I779
sS'GTTGGA'
p1248
I489
sS'GTTGGC'
p1249
I597
sS'CCTTGG'
p1250
I1412
sS'CCTTGA'
p1251
I1104
sS'GCGTAT'
p1252
I26
sS'CCTTGC'
p1253
I1398
sS'GGACGT'
p1254
I56
sS'GTTGGT'
p1255
I257
sS'ATCTTG'
p1256
I3698
sS'ATCTTA'
p1257
I3067
sS'ATCTTC'
p1258
I1985
sS'CCTTGT'
p1259
I564
sS'AGGATA'
p1260
I1297
sS'AGGATG'
p1261
I2834
sS'GACATG'
p1262
I4393
sS'GACATC'
p1263
I1813
sS'GACATA'
p1264
I3014
sS'TCGGCG'
p1265
I127
sS'GAATAT'
p1266
I189
sS'GGTGCA'
p1267
I760
sS'TCGGCC'
p1268
I368
sS'CATAGC'
p1269
I1248
sS'TTGCGA'
p1270
I137
sS'TTGCGC'
p1271
I222
sS'TTGCGG'
p1272
I249
sS'GAATAG'
p1273
I362
sS'TCGGCT'
p1274
I88
sS'CATAGA'
p1275
I1359
sS'GAATAC'
p1276
I343
sS'GAATAA'
p1277
I442
sS'ACTTTT'
p1278
I415
sS'GGACGA'
p1279
I74
sS'ACGACT'
p1280
I49
sS'TTTCTA'
p1281
I3366
sS'ACGTCG'
p1282
I69
sS'TTATAA'
p1283
I434
sS'GAAATG'
p1284
I3152
sS'AATGAT'
p1285
I392
sS'GAAATA'
p1286
I1919
sS'GAAATC'
p1287
I526
sS'CGCATT'
p1288
I123
sS'ACCGGT'
p1289
I72
sS'GAAATT'
p1290
I261
sS'AATGAA'
p1291
I2350
sS'ATGTCC'
p1292
I995
sS'AATGAC'
p1293
I1616
sS'CTCCCC'
p1294
I3860
sS'AATGAG'
p1295
I2375
sS'TGCACT'
p1296
I1177
sS'CTTGGC'
p1297
I897
sS'GTCCTT'
p1298
I769
sS'CTTGGG'
p1299
I1014
sS'ATACAG'
p1300
I270
sS'AGCCCT'
p1301
I1063
sS'GCGTAA'
p1302
I68
sS'TTGAAT'
p1303
I291
sS'GTCCTA'
p1304
I2041
sS'GTCCTC'
p1305
I2154
sS'TGCACG'
p1306
I699
sS'TGCACA'
p1307
I3223
sS'GTCCTG'
p1308
I4504
sS'TGCACC'
p1309
I2072
sS'TTGAAA'
p1310
I1155
sS'CTTTTC'
p1311
I2171
sS'TTGAAC'
p1312
I801
sS'AGCCCA'
p1313
I2439
sS'AGCCCC'
p1314
I2508
sS'TTAACT'
p1315
I375
sS'ATAAAT'
p1316
I301
sS'TGGTCG'
p1317
I218
sS'TGGTCA'
p1318
I1372
sS'TGGTCC'
p1319
I933
sS'ACGATT'
p1320
I39
sS'GAGACT'
p1321
I1317
sS'ACGGGG'
p1322
I244
sS'TGGTCT'
p1323
I619
sS'ATAAAG'
p1324
I665
sS'ATAAAA'
p1325
I757
sS'TCAGCC'
p1326
I606
sS'ATAAAC'
p1327
I559
sS'GAGACG'
p1328
I999
sS'ACGATG'
p1329
I223
sS'CTACAG'
p1330
I403
sS'GAGACC'
p1331
I2660
sS'ACGATC'
p1332
I40
sS'GAGACA'
p1333
I3610
sS'ACGATA'
p1334
I100
sS'GGTTAC'
p1335
I732
sS'GTTTTA'
p1336
I3467
sS'GGTTAA'
p1337
I1035
sS'ACCACT'
p1338
I739
sS'GGTTAG'
p1339
I841
sS'CTTCCT'
p1340
I1049
sS'TCCATT'
p1341
I615
sS'CGTGAA'
p1342
I240
sS'CCAACA'
p1343
I462
sS'TCCGCT'
p1344
I428
sS'CTTCCA'
p1345
I1240
sS'CTTCCC'
p1346
I1760
sS'ATGTGA'
p1347
I1411
sS'CGTATG'
p1348
I293
sS'ACCACA'
p1349
I2832
sS'GGTTAT'
p1350
I267
sS'TCCGCC'
p1351
I1813
sS'TCCGCA'
p1352
I653
sS'TCCGCG'
p1353
I515
sS'AACGTC'
p1354
I510
sS'AACGTA'
p1355
I743
sS'AACGTG'
p1356
I1452
sS'CGTGAC'
p1357
I409
sS'AGTGTG'
p1358
I3107
sS'TCTTCG'
p1359
I376
sS'AGTGTA'
p1360
I1508
sS'TCTTCA'
p1361
I2151
sS'AGTGTC'
p1362
I731
sS'TCTTCC'
p1363
I1910
sS'TAAGTG'
p1364
I1418
sS'TAAGTC'
p1365
I415
sS'TAAGTA'
p1366
I1155
sS'CCGTGA'
p1367
I209
sS'TCTTCT'
p1368
I970
sS'AGTGTT'
p1369
I360
sS'GTTTTG'
p1370
I4172
sS'TTGGCA'
p1371
I1097
sS'AAAGGT'
p1372
I354
sS'TTGGCC'
p1373
I1232
sS'CCGTGC'
p1374
I292
sS'TTAACG'
p1375
I117
sS'TTGGCG'
p1376
I207
sS'GACTTC'
p1377
I4094
sS'TCGAGT'
p1378
I49
sS'GACTTA'
p1379
I3848
sS'GACTTG'
p1380
I5776
sS'ACGTAG'
p1381
I111
sS'AAAGGG'
p1382
I1224
sS'AAAGGA'
p1383
I1468
sS'TTGGCT'
p1384
I604
sS'AAAGGC'
p1385
I1053
sS'AGTAAG'
p1386
I1651
sS'GTCGAT'
p1387
I44
sS'GACTTT'
p1388
I2029
sS'TTCTTT'
p1389
I3707
sS'TGAAAA'
p1390
I756
sS'CAAGAA'
p1391
I665
sS'GACGTT'
p1392
I245
sS'CAAGAC'
p1393
I493
sS'GATTCG'
p1394
I498
sS'CAAGAG'
p1395
I672
sS'CGTATT'
p1396
I73
sS'TTCTTG'
p1397
I7354
sS'TTCTTC'
p1398
I5315
sS'TTCTTA'
p1399
I7108
sS'CAAGAT'
p1400
I192
sS'AGGGCT'
p1401
I701
sS'TACGGG'
p1402
I446
sS'TACGGA'
p1403
I361
sS'TACGGC'
p1404
I476
sS'CCAACT'
p1405
I183
sS'TAGAGT'
p1406
I606
sS'TACGGT'
p1407
I162
sS'AGGGCG'
p1408
I625
sS'AGGGCA'
p1409
I1659
sS'AGGGCC'
p1410
I1737
sS'TCGAGA'
p1411
I136
sS'AGTTCG'
p1412
I385
sS'TAGAGA'
p1413
I2372
sS'TAGAGG'
p1414
I2226
sS'GGCGAA'
p1415
I341
sS'GTGCTG'
p1416
I4158
sS'GTGCTA'
p1417
I1684
sS'ATCTGT'
p1418
I1266
sS'GTGCTC'
p1419
I1118
sS'GCTCGT'
p1420
I79
sS'ATCTGA'
p1421
I2474
sS'GTGCTT'
p1422
I544
sS'ATCTGC'
p1423
I2665
sS'TCGAGG'
p1424
I229
sS'CGAATG'
p1425
I233
sS'ATCTGG'
p1426
I2167
sS'ATCATA'
p1427
I1803
sS'GATAGC'
p1428
I1118
sS'ATCATC'
p1429
I905
sS'GATAGA'
p1430
I1570
sS'AAGCAA'
p1431
I1657
sS'GATAGG'
p1432
I1508
sS'AAGCAC'
p1433
I1526
sS'TTTACC'
p1434
I880
sS'CATTTC'
p1435
I3186
sS'CTAGGT'
p1436
I246
sS'CATTTA'
p1437
I5456
sS'CATTTG'
p1438
I5527
sS'GTTATA'
p1439
I935
sS'CAAACA'
p1440
I1241
sS'GGAGGA'
p1441
I831
sS'CAAACC'
p1442
I809
sS'CTCGGG'
p1443
I1072
sS'ATCATT'
p1444
I447
sS'CAAACG'
p1445
I194
sS'CTAGGG'
p1446
I510
sS'GTTATT'
p1447
I253
sS'CTAGGC'
p1448
I454
sS'CATTTT'
p1449
I1297
sS'CTAGGA'
p1450
I496
sS'AAGTTT'
p1451
I635
sS'TACAGT'
p1452
I1791
sS'CTCGAA'
p1453
I268
sS'GTGGCG'
p1454
I538
sS'CTAAGA'
p1455
I782
sS'GGGGCT'
p1456
I481
sS'TACAGG'
p1457
I4382
sS'AAGTTG'
p1458
I2872
sS'GGATGC'
p1459
I295
sS'AAGTTA'
p1460
I2963
sS'TACAGC'
p1461
I3485
sS'AAGTTC'
p1462
I1398
sS'TACAGA'
p1463
I4478
sS'GGGGCC'
p1464
I1272
sS'GTATGA'
p1465
I577
sS'GGGGCA'
p1466
I955
sS'ATATGT'
p1467
I410
sS'GGGGCG'
p1468
I698
sS'TTCAAC'
p1469
I2461
sS'TATATC'
p1470
I639
sS'TATATA'
p1471
I3354
sS'TATATG'
p1472
I2725
sS'GCCCAG'
p1473
I2192
sS'GCCCAT'
p1474
I254
sS'TATATT'
p1475
I615
sS'GGACTA'
p1476
I260
sS'TGATGG'
p1477
I448
sS'CTCGGT'
p1478
I199
sS'ATGAGT'
p1479
I453
sS'AGGTCT'
p1480
I610
sS'TGATGA'
p1481
I482
sS'AGCATG'
p1482
I4229
sS'TGTTTA'
p1483
I4762
sS'CACATC'
p1484
I1923
sS'TGTTTC'
p1485
I2953
sS'CACATA'
p1486
I4019
sS'TTAATT'
p1487
I296
sS'CACATG'
p1488
I5445
sS'TGTTTG'
p1489
I5535
sS'ATGAGA'
p1490
I1163
sS'ATGAGC'
p1491
I806
sS'AGTAAC'
p1492
I1286
sS'ATGAGG'
p1493
I1274
sS'TTTCAC'
p1494
I1574
sS'ACTCTG'
p1495
I2353
sS'TTAATC'
p1496
I255
sS'ACTCTA'
p1497
I1140
sS'TGTTTT'
p1498
I1459
sS'ACTCTC'
p1499
I635
sS'TGCCAC'
p1500
I1615
sS'AAATTC'
p1501
I362
sS'AAATTA'
p1502
I1274
sS'AAATTG'
p1503
I934
sS'TCTTGT'
p1504
I764
sS'AAATTT'
p1505
I261
sS'CTTAGT'
p1506
I387
sS'CGTCTA'
p1507
I470
sS'GGGAAC'
p1508
I930
sS'GGTGCG'
p1509
I286
sS'GGGAAA'
p1510
I1110
sS'GGGAAG'
p1511
I2084
sS'GGTGCC'
p1512
I739
sS'AGGTCC'
p1513
I1053
sS'AGAGCG'
p1514
I226
sS'GCGACT'
p1515
I65
sS'AGCGAT'
p1516
I109
sS'AGAGCC'
p1517
I807
sS'AGAGCA'
p1518
I935
sS'GCGTAG'
p1519
I92
sS'GGTGCT'
p1520
I364
sS'GCGTAC'
p1521
I76
sS'TAATTT'
p1522
I318
sS'GGGAAT'
p1523
I202
sS'GCGACG'
p1524
I114
sS'AGAGCT'
p1525
I376
sS'GCGACA'
p1526
I145
sS'TATCGG'
p1527
I251
sS'GCGACC'
p1528
I217
sS'AGGTCG'
p1529
I256
sS'GCAGGA'
p1530
I654
sS'GCAGGC'
p1531
I594
sS'GCAGGG'
p1532
I736
sS'GCTCGC'
p1533
I484
sS'GCTCGA'
p1534
I229
sS'GCTCGG'
p1535
I539
sS'TATTCT'
p1536
I1532
sS'CCGTGG'
p1537
I304
sS'ACTTAC'
p1538
I618
sS'AAATAC'
p1539
I628
sS'GCAGGT'
p1540
I347
sS'TCTTGA'
p1541
I1276
sS'ACGTCT'
p1542
I112
sS'TATTCC'
p1543
I1470
sS'GGCGAG'
p1544
I809
sS'TATTCA'
p1545
I3790
sS'CAATTA'
p1546
I688
sS'TATTCG'
p1547
I361
sS'GGCGAC'
p1548
I543
sS'TGTAGA'
p1549
I1408
sS'GGCTCA'
p1550
I3311
sS'TGTAGC'
p1551
I1265
sS'GGCTCC'
p1552
I3481
sS'AATCCT'
p1553
I542
sS'TGTAGG'
p1554
I1405
sS'GGCTCG'
p1555
I948
sS'TTCGGA'
p1556
I298
sS'TTCGGC'
p1557
I515
sS'AAATAG'
p1558
I543
sS'GTCTAC'
p1559
I1428
sS'TTCGGG'
p1560
I593
sS'AACTTA'
p1561
I3822
sS'GGCTCT'
p1562
I1306
sS'TGTAGT'
p1563
I711
sS'TTTACT'
p1564
I558
sS'AGCATA'
p1565
I2555
sS'AGACCT'
p1566
I187
sS'TTCGGT'
p1567
I158
sS'GAGCAT'
p1568
I362
sS'GTTTAT'
p1569
I370
sS'GGGGAG'
p1570
I1028
sS'GCACTC'
p1571
I182
sS'GCCTTT'
p1572
I1298
sS'TGCTTG'
p1573
I6070
sS'GTTTAA'
p1574
I1217
sS'GTTTAC'
p1575
I830
sS'CACGAA'
p1576
I399
sS'CGAATT'
p1577
I26
sS'GTTTAG'
p1578
I950
sS'CAGGTG'
p1579
I3004
sS'GAGGTA'
p1580
I2371
sS'CTGGCT'
p1581
I772
sS'AGGCGG'
p1582
I1132
sS'AGGCGA'
p1583
I417
sS'AGGCGC'
p1584
I714
sS'AGGAGT'
p1585
I608
sS'ACAGCC'
p1586
I611
sS'GATAAA'
p1587
I2323
sS'ACAGCA'
p1588
I804
sS'GAGGTC'
p1589
I1392
sS'ACAGCG'
p1590
I173
sS'AGGAGC'
p1591
I2022
sS'AGGCGT'
p1592
I244
sS'AGGAGA'
p1593
I2081
sS'CTGGCG'
p1594
I484
sS'AGGAGG'
p1595
I4012
sS'CTGGCA'
p1596
I1789
sS'CTGGCC'
p1597
I2027
sS'ACAGCT'
p1598
I375
sS'GGAAAA'
p1599
I509
sS'ATTGGT'
p1600
I258
sS'AATTTT'
p1601
I675
sS'AAACAG'
p1602
I885
sS'TGTCAC'
p1603
I1786
sS'CCCTCT'
p1604
I1297
sS'AACCTT'
p1605
I970
sS'TGTCAG'
p1606
I1901
sS'AACGCG'
p1607
I355
sS'AATTTA'
p1608
I3145
sS'AATTTC'
p1609
I1276
sS'AACGCC'
p1610
I933
sS'AACGCA'
p1611
I713
sS'AATTTG'
p1612
I3005
sS'CCCTCA'
p1613
I3097
sS'CCCTCC'
p1614
I4742
sS'TGTCAT'
p1615
I540
sS'CCCTCG'
p1616
I853
sS'ACCGAT'
p1617
I42
sS'TCCAGT'
p1618
I796
sS'GGAAAG'
p1619
I735
sS'CTGACG'
p1620
I342
sS'TGACCA'
p1621
I327
sS'TGACCC'
p1622
I256
sS'TAAATC'
p1623
I486
sS'AAATGC'
p1624
I1009
sS'TAGCGT'
p1625
I128
sS'ACCACG'
p1626
I554
sS'CATTCG'
p1627
I520
sS'CATTCC'
p1628
I1883
sS'CATTCA'
p1629
I3906
sS'ACGAAA'
p1630
I111
sS'CGCTAT'
p1631
I105
sS'ACAAAT'
p1632
I250
sS'GATTAA'
p1633
I1974
sS'GTAGGC'
p1634
I378
sS'GATTAC'
p1635
I1754
sS'GTAGGA'
p1636
I454
sS'GTAGGG'
p1637
I525
sS'GATTAG'
p1638
I1499
sS'GGCTTT'
p1639
I1187
sS'ACAAAC'
p1640
I516
sS'TTTCAA'
p1641
I1594
sS'ACAAAA'
p1642
I675
sS'ACAAAG'
p1643
I620
sS'GCGGGC'
p1644
I517
sS'GTCGGT'
p1645
I116
sS'GCGGGA'
p1646
I365
sS'GCGGGG'
p1647
I873
sS'GATTAT'
p1648
I566
sS'GTAGGT'
p1649
I258
sS'AACCTG'
p1650
I4474
sS'TAATGA'
p1651
I804
sS'GATGTT'
p1652
I471
sS'TAATGC'
p1653
I628
sS'GGAGAT'
p1654
I136
sS'TAATGG'
p1655
I613
sS'GCGCCG'
p1656
I237
sS'CAATAA'
p1657
I315
sS'CAATTG'
p1658
I571
sS'GCCCTC'
p1659
I2112
sS'GATGTG'
p1660
I4120
sS'GCCCTA'
p1661
I1831
sS'GATGTA'
p1662
I2074
sS'GCCCTG'
p1663
I5311
sS'GATGTC'
p1664
I1073
sS'AACCTC'
p1665
I2541
sS'TGAAAT'
p1666
I348
sS'TTCTAG'
p1667
I3068
sS'TTTCAG'
p1668
I2184
sS'ATCCGT'
p1669
I126
sS'TTCTAC'
p1670
I2644
sS'GAATGT'
p1671
I380
sS'TTGGAT'
p1672
I114
sS'TGAAAC'
p1673
I1014
sS'TGAAAG'
p1674
I1063
sS'TTCTAT'
p1675
I1112
sS'ATCCGC'
p1676
I374
sS'AGTAAT'
p1677
I444
sS'ATCCGA'
p1678
I192
sS'ATCCGG'
p1679
I406
sS'TGGCTC'
p1680
I1018
sS'TGGCTA'
p1681
I1385
sS'GCTACC'
p1682
I459
sS'TGGCTG'
p1683
I3440
sS'GTCGGA'
p1684
I285
sS'AGTTGT'
p1685
I739
sS'AGCTAT'
p1686
I651
sS'ATTAGT'
p1687
I275
sS'AAGACA'
p1688
I3017
sS'GTCGGC'
p1689
I566
sS'CGTCGA'
p1690
I117
sS'TGGCTT'
p1691
I434
sS'AGTTGG'
p1692
I1476
sS'AGCTAA'
p1693
I2415
sS'AGCTAC'
p1694
I2006
sS'AGTTGC'
p1695
I1610
sS'AGTTGA'
p1696
I1679
sS'AGCTAG'
p1697
I1856
sS'TCCTAG'
p1698
I1486
sS'GCACCT'
p1699
I179
sS'CAGTGT'
p1700
I1039
sS'TAACAA'
p1701
I449
sS'TCAGGT'
p1702
I257
sS'TCAAGG'
p1703
I619
sS'GTCGGG'
p1704
I747
sS'TCAAGC'
p1705
I493
sS'TCAAGA'
p1706
I565
sS'GCACCA'
p1707
I349
sS'CAGTGC'
p1708
I2205
sS'GCACCC'
p1709
I271
sS'CAGTGA'
p1710
I2101
sS'CAGTGG'
p1711
I2299
sS'GCACCG'
p1712
I107
sS'TCAAGT'
p1713
I318
sS'TCAGGG'
p1714
I502
sS'GAGCCC'
p1715
I2695
sS'ACTAGT'
p1716
I206
sS'TCAGGC'
p1717
I469
sS'GTGGGT'
p1718
I530
sS'ACGGTA'
p1719
I151
sS'CGTTGG'
p1720
I484
sS'CAACCA'
p1721
I509
sS'TAACAG'
p1722
I448
sS'TTCCCT'
p1723
I1415
sS'CGAGCG'
p1724
I101
sS'GTTAGT'
p1725
I311
sS'CGAGCA'
p1726
I167
sS'CGCAGC'
p1727
I1919
sS'CGAGCC'
p1728
I234
sS'TTCCCA'
p1729
I2730
sS'TTCCCC'
p1730
I3400
sS'GTTCAC'
p1731
I775
sS'TTCCCG'
p1732
I737
sS'TGAGCA'
p1733
I686
sS'GGACCT'
p1734
I124
sS'TCCACC'
p1735
I2387
sS'AAGTAC'
p1736
I1101
sS'CACACT'
p1737
I1623
sS'TACATC'
p1738
I1461
sS'AAGTAG'
p1739
I1224
sS'TACATA'
p1740
I4314
sS'CATGGT'
p1741
I418
sS'GGACCG'
p1742
I81
sS'AACGCT'
p1743
I358
sS'GGACCA'
p1744
I198
sS'TCATCA'
p1745
I585
sS'GGACCC'
p1746
I188
sS'CACACG'
p1747
I1179
sS'TACATT'
p1748
I1021
sS'CACACC'
p1749
I3526
sS'GCACAA'
p1750
I175
sS'CACACA'
p1751
I8110
sS'TCTGCC'
p1752
I1145
sS'TCTGCA'
p1753
I1315
sS'TCTGCG'
p1754
I343
sS'TAGATT'
p1755
I292
sS'ATTGCC'
p1756
I431
sS'CCCGTC'
p1757
I525
sS'TTAAGG'
p1758
I806
sS'CCCGTA'
p1759
I422
sS'TTAAGA'
p1760
I999
sS'CCCGTG'
p1761
I1003
sS'TTAAGC'
p1762
I679
sS'ACGCAC'
p1763
I120
sS'TAGATC'
p1764
I476
sS'TGTCAA'
p1765
I1210
sS'TAGATA'
p1766
I1838
sS'TTTCGC'
p1767
I352
sS'TAGATG'
p1768
I2375
sS'TCTGCT'
p1769
I523
sS'TTACGC'
p1770
I74
sS'TTAAGT'
p1771
I520
sS'TTACGA'
p1772
I72
sS'TTACGG'
p1773
I84
sS'CCCGTT'
p1774
I119
sS'AGTGAC'
p1775
I1249
sS'AGTGAA'
p1776
I1376
sS'AGTGAG'
p1777
I1846
sS'ACATTT'
p1778
I299
sS'CGGGCG'
p1779
I404
sS'AAACAC'
p1780
I760
sS'TAAGAG'
p1781
I637
sS'CGGGCC'
p1782
I781
sS'TAAGAA'
p1783
I763
sS'CGGGCA'
p1784
I368
sS'TAAGAC'
p1785
I481
sS'AAACAA'
p1786
I963
sS'AGTGAT'
p1787
I364
sS'TAAGAT'
p1788
I183
sS'CCTGAA'
p1789
I600
sS'CGGGCT'
p1790
I218
sS'CCTGAG'
p1791
I921
sS'GTTAGG'
p1792
I885
sS'ACCCCA'
p1793
I1391
sS'TATACT'
p1794
I706
sS'GTTAGC'
p1795
I734
sS'GTTAGA'
p1796
I924
sS'GCCAAA'
p1797
I1342
sS'TATACG'
p1798
I249
sS'CGGATG'
p1799
I466
sS'TATACC'
p1800
I1047
sS'TATACA'
p1801
I2005
sS'ATTGGC'
p1802
I714
sS'CGTATA'
p1803
I221
sS'GTAATG'
p1804
I962
sS'TTTATT'
p1805
I510
sS'GTAATA'
p1806
I849
sS'ATTGGA'
p1807
I410
sS'GTAATC'
p1808
I246
sS'GTACAG'
p1809
I285
sS'TCTAAC'
p1810
I735
sS'CGTTCT'
p1811
I234
sS'TCTAAA'
p1812
I979
sS'CGGATC'
p1813
I112
sS'CCACCA'
p1814
I511
sS'CCACCC'
p1815
I497
sS'GTTCGT'
p1816
I109
sS'TTTATG'
p1817
I2118
sS'ACTAGG'
p1818
I600
sS'GTAACG'
p1819
I153
sS'CTACTG'
p1820
I891
sS'ACTAGC'
p1821
I524
sS'TTTATA'
p1822
I1994
sS'ACTAGA'
p1823
I673
sS'CCACCT'
p1824
I275
sS'CGTTCG'
p1825
I198
sS'TCGTTG'
p1826
I301
sS'CGTTCA'
p1827
I540
sS'CGTTCC'
p1828
I533
sS'TCTAAT'
p1829
I267
sS'TCGTCT'
p1830
I84
sS'CTTTGT'
p1831
I1072
sS'ACTGGG'
p1832
I752
sS'ACTGGA'
p1833
I581
sS'ACTGGC'
p1834
I569
sS'TAGTCC'
p1835
I1344
sS'GTGACC'
p1836
I1317
sS'TAGTCA'
p1837
I2294
sS'GTGACA'
p1838
I1687
sS'TAGTCG'
p1839
I203
sS'GTGACG'
p1840
I490
sS'ATTTAG'
p1841
I776
sS'ACTGGT'
p1842
I252
sS'CTTTGG'
p1843
I2090
sS'CCTATG'
p1844
I798
sS'GTATTT'
p1845
I409
sS'CTTTGC'
p1846
I2563
sS'CTACGC'
p1847
I125
sS'GTGACT'
p1848
I685
sS'TAGTCT'
p1849
I796
sS'GTGCAC'
p1850
I645
sS'GCGCTT'
p1851
I81
sS'ACCTAG'
p1852
I848
sS'GCAATT'
p1853
I121
sS'GTGCAG'
p1854
I991
sS'CGACGC'
p1855
I66
sS'ACCTAC'
p1856
I933
sS'CCGCAG'
p1857
I207
sS'CCGCAA'
p1858
I71
sS'CCGCAC'
p1859
I132
sS'GGGACT'
p1860
I507
sS'ACCTAT'
p1861
I271
sS'GCGCTG'
p1862
I734
sS'CGAAGA'
p1863
I153
sS'CCCCGT'
p1864
I204
sS'CGAAGG'
p1865
I305
sS'GCGCTC'
p1866
I326
sS'GTGCAT'
p1867
I255
sS'GCGCTA'
p1868
I212
sS'CCGCAT'
p1869
I35
sS'GTTCGC'
p1870
I262
sS'GAAGAT'
p1871
I232
sS'GGATCT'
p1872
I116
sS'TCATGA'
p1873
I437
sS'TCGGAA'
p1874
I79
sS'TCGGAC'
p1875
I60
sS'GAATCT'
p1876
I307
sS'TCGGAG'
p1877
I134
sS'GGATCG'
p1878
I46
sS'GAAGAG'
p1879
I1386
sS'GAAGAA'
p1880
I1129
sS'GGATCC'
p1881
I208
sS'GAAGAC'
p1882
I853
sS'GGATCA'
p1883
I202
sS'GAATCA'
p1884
I979
sS'GAATCC'
p1885
I514
sS'TCGGAT'
p1886
I28
sS'GAATCG'
p1887
I161
sS'ATGGTC'
p1888
I315
sS'CAGATG'
p1889
I3236
sS'ATGGTA'
p1890
I947
sS'CATTCT'
p1891
I1343
sS'ATGGTG'
p1892
I1482
sS'CAGATC'
p1893
I632
sS'ACGCCC'
p1894
I307
sS'CAGATA'
p1895
I1758
sS'CTCGAG'
p1896
I452
sS'CAGATT'
p1897
I285
sS'CTCGAC'
p1898
I311
sS'ATGGTT'
p1899
I225
sS'TCGCAA'
p1900
I41
sS'TGACCG'
p1901
I60
sS'GCTATT'
p1902
I203
sS'TGCGTC'
p1903
I536
sS'AATGGT'
p1904
I398
sS'CGACCT'
p1905
I36
sS'ATGATA'
p1906
I940
sS'GTTACG'
p1907
I173
sS'ACGTGT'
p1908
I182
sS'TGCGTG'
p1909
I1540
sS'AATGGA'
p1910
I1429
sS'AATGGG'
p1911
I1450
sS'CAATAC'
p1912
I221
sS'CACTCT'
p1913
I2003
sS'CAACTC'
p1914
I331
sS'CAACTA'
p1915
I439
sS'ATTTAC'
p1916
I804
sS'GTGAAT'
p1917
I260
sS'TTGACC'
p1918
I691
sS'GGAGGG'
p1919
I842
sS'AAAAGT'
p1920
I614
sS'AGCCAC'
p1921
I2415
sS'GGAGGC'
p1922
I705
sS'TGGTAG'
p1923
I572
sS'TGACCT'
p1924
I199
sS'GAGTGT'
p1925
I1109
sS'TGGTAC'
p1926
I436
sS'TGGTAA'
p1927
I597
sS'AAAAGG'
p1928
I2081
sS'GGAGGT'
p1929
I267
sS'AGCCAT'
p1930
I485
sS'AAAAGC'
p1931
I1609
sS'AGCCAA'
p1932
I1888
sS'AAAAGA'
p1933
I2227
sS'TCTATA'
p1934
I883
sS'GAGTGG'
p1935
I3036
sS'CGCCAG'
p1936
I669
sS'TGGTAT'
p1937
I292
sS'CGCCAA'
p1938
I385
sS'GAGTGC'
p1939
I2636
sS'CGCCAC'
p1940
I705
sS'GAGTGA'
p1941
I2760
sS'GCCAGG'
p1942
I3779
sS'GCCAGA'
p1943
I2092
sS'GCCAGC'
p1944
I2873
sS'GCCCGT'
p1945
I222
sS'TACCGA'
p1946
I401
sS'AAGTCC'
p1947
I1914
sS'TACCGG'
p1948
I491
sS'GCCCGC'
p1949
I1680
sS'GCCAGT'
p1950
I756
sS'GCCCGA'
p1951
I590
sS'GCCCGG'
p1952
I1584
sS'TGCGAT'
p1953
I83
sS'CTTCAC'
p1954
I1167
sS'CTTCAA'
p1955
I1090
sS'CTTCAG'
p1956
I1627
sS'TCCGAG'
p1957
I422
sS'TCCGAA'
p1958
I193
sS'TCCGAC'
p1959
I273
sS'AATTCA'
p1960
I2820
sS'AATTCC'
p1961
I1476
sS'AATTCG'
p1962
I309
sS'TCCGAT'
p1963
I38
sS'ACATAC'
p1964
I415
sS'NNNGAT'
p1965
I1
sS'TAGCGG'
p1966
I390
sS'AATTCT'
p1967
I1023
sS'TAGCGC'
p1968
I339
sS'GTCATC'
p1969
I1499
sS'GTCATA'
p1970
I2546
sS'GTCATG'
p1971
I3795
sS'AGCAGG'
p1972
I5219
sS'CCAGGT'
p1973
I351
sS'TTGGAA'
p1974
I454
sS'TTGGAG'
p1975
I637
sS'AGCAGA'
p1976
I4375
sS'GTCATT'
p1977
I750
sS'CCAGGG'
p1978
I589
sS'AGCAGT'
p1979
I1618
sS'CCAGGA'
p1980
I630
sS'CCAGGC'
p1981
I713
sS'AGCGCT'
p1982
I386
sS'ATAGAG'
p1983
I304
sS'CATCTG'
p1984
I5478
sS'ACGGTC'
p1985
I85
sS'CATCTA'
p1986
I2800
sS'GATCGA'
p1987
I293
sS'CATCTC'
p1988
I2210
sS'GATCGC'
p1989
I535
sS'ATTAGA'
p1990
I727
sS'GGATGG'
p1991
I349
sS'CAAGCC'
p1992
I742
sS'CATCTT'
p1993
I878
sS'CAAGCA'
p1994
I829
sS'CAAGCG'
p1995
I195
sS'ACTCGA'
p1996
I169
sS'GTTCTT'
p1997
I405
sS'ACATGA'
p1998
I507
sS'CGTAAT'
p1999
I46
sS'ACATGC'
p2000
I558
sS'ACATGG'
p2001
I493
sS'CCCGCT'
p2002
I334
sS'GTACAT'
p2003
I129
sS'GGCCAT'
p2004
I231
sS'CGTAAG'
p2005
I278
sS'GTTCTG'
p2006
I2889
sS'ACATGT'
p2007
I418
sS'CGTAAC'
p2008
I236
sS'CGTAAA'
p2009
I251
sS'CCCGCG'
p2010
I675
sS'ACGGAA'
p2011
I123
sS'GGATAC'
p2012
I141
sS'CCCGCC'
p2013
I3090
sS'AGACGC'
p2014
I190
sS'CCCGCA'
p2015
I687
sS'CCCTTT'
p2016
I1297
sS'TGTTGT'
p2017
I1123
sS'GTTGTT'
p2018
I238
sS'ATTAGC'
p2019
I688
sS'ATCCTT'
p2020
I469
sS'TTGTCG'
p2021
I200
sS'TTGTCC'
p2022
I1345
sS'TTGTCA'
p2023
I2119
sS'ATCCTC'
p2024
I1176
sS'GTTGTA'
p2025
I945
sS'ATCCTA'
p2026
I1451
sS'GTTGTC'
p2027
I403
sS'ATCCTG'
p2028
I2835
sS'GTTGTG'
p2029
I1614
sS'TTGTCT'
p2030
I1048
sS'CTATGC'
p2031
I556
sS'TGACTA'
p2032
I478
sS'TGGGCC'
p2033
I1172
sS'TGACTC'
p2034
I338
sS'TGGGCA'
p2035
I1211
sS'TGGGCG'
p2036
I411
sS'TGACTG'
p2037
I766
sS'AAGCCG'
p2038
I570
sS'AAGCCC'
p2039
I2028
sS'AAGCCA'
p2040
I2833
sS'CAAAAT'
p2041
I277
sS'CTATGG'
p2042
I573
sS'TGGGCT'
p2043
I512
sS'CAAAAC'
p2044
I1056
sS'CAAAAA'
p2045
I882
sS'AAGCCT'
p2046
I851
sS'CAAAAG'
p2047
I977
sS'TGATTT'
p2048
I222
sS'TCAATG'
p2049
I639
sS'AAACTT'
p2050
I252
sS'TCAATC'
p2051
I135
sS'CGTCGT'
p2052
I76
sS'CAGTTC'
p2053
I1652
sS'GACCCG'
p2054
I990
sS'CAGTTG'
p2055
I2633
sS'GACCCC'
p2056
I2149
sS'CTCTGT'
p2057
I2706
sS'TCAATT'
p2058
I126
sS'GGCCAG'
p2059
I1504
sS'CTCTGC'
p2060
I7689
sS'GACCCT'
p2061
I1005
sS'CTCTGA'
p2062
I5397
sS'ACAATC'
p2063
I154
sS'CTCTGG'
p2064
I5788
sS'CAGTTT'
p2065
I688
sS'GCGAAG'
p2066
I188
sS'CTACTC'
p2067
I296
sS'TGCTGG'
p2068
I4628
sS'CGAGGT'
p2069
I81
sS'TGCTGA'
p2070
I4208
sS'GAGTCT'
p2071
I1328
sS'TGCTGC'
p2072
I5625
sS'TAGGGA'
p2073
I1137
sS'GCTGGT'
p2074
I367
sS'GTGATT'
p2075
I295
sS'ACGTTA'
p2076
I271
sS'TGCTGT'
p2077
I2315
sS'GCGAAT'
p2078
I35
sS'GCCCTT'
p2079
I677
sS'ATGCGG'
p2080
I182
sS'GTGATG'
p2081
I2263
sS'GCTGGG'
p2082
I1559
sS'GTGATC'
p2083
I440
sS'GCTGGC'
p2084
I877
sS'GTGATA'
p2085
I1246
sS'GCTGGA'
p2086
I701
sS'TGATAA'
p2087
I220
sS'TGATAC'
p2088
I171
sS'TGATAG'
p2089
I181
sS'CTTGTT'
p2090
I394
sS'GACGGT'
p2091
I289
sS'GCTAGG'
p2092
I804
sS'GCTAGA'
p2093
I641
sS'ATGAAT'
p2094
I264
sS'GCTAGC'
p2095
I498
sS'ATAGGG'
p2096
I287
sS'TGATAT'
p2097
I119
sS'GAGGTT'
p2098
I561
sS'GCTAGT'
p2099
I179
sS'ATGAAC'
p2100
I677
sS'GACGGG'
p2101
I1500
sS'CTTGTG'
p2102
I2152
sS'GACGGA'
p2103
I945
sS'CTTGTA'
p2104
I1319
sS'GACGGC'
p2105
I1234
sS'CTTGTC'
p2106
I620
sS'GCACTT'
p2107
I157
sS'CTACTT'
p2108
I224
sS'CCATAG'
p2109
I177
sS'GGTGAA'
p2110
I686
sS'GGTGAC'
p2111
I877
sS'GCGTCT'
p2112
I134
sS'TGTAAA'
p2113
I2051
sS'GGTGAG'
p2114
I1167
sS'GGAATG'
p2115
I750
sS'CGTCCT'
p2116
I168
sS'GGAATC'
p2117
I200
sS'GGAATA'
p2118
I401
sS'GCGTCA'
p2119
I286
sS'GCGTCC'
p2120
I434
sS'GGTGAT'
p2121
I226
sS'GCGTCG'
p2122
I117
sS'CGTCCG'
p2123
I218
sS'GGAATT'
p2124
I131
sS'CGTCCC'
p2125
I561
sS'CGTCCA'
p2126
I333
sS'TTTCGA'
p2127
I283
sS'CCGTAT'
p2128
I39
sS'GCCGTG'
p2129
I1196
sS'GAAGTA'
p2130
I1444
sS'GCCGTC'
p2131
I459
sS'GCCGTA'
p2132
I425
sS'CCGTAC'
p2133
I75
sS'CCGTAA'
p2134
I63
sS'TTCGAA'
p2135
I289
sS'ATTTAA'
p2136
I1312
sS'GCACTA'
p2137
I288
sS'CTAAAA'
p2138
I611
sS'TTGGTG'
p2139
I1888
sS'GAAGTT'
p2140
I286
sS'GGCGCG'
p2141
I834
sS'ATGCCC'
p2142
I658
sS'TTAGTT'
p2143
I206
sS'TATTAG'
p2144
I1868
sS'GGCGCC'
p2145
I1388
sS'TATTAA'
p2146
I2814
sS'GGCGCA'
p2147
I769
sS'TATTAC'
p2148
I1825
sS'ACTATG'
p2149
I889
sS'CAACGG'
p2150
I114
sS'TTTAAG'
p2151
I1966
sS'ACTATC'
p2152
I194
sS'TTTAAA'
p2153
I3129
sS'ACTATA'
p2154
I671
sS'TTTAAC'
p2155
I1435
sS'TATTAT'
p2156
I1019
sS'TTAGTG'
p2157
I822
sS'TGTAAT'
p2158
I542
sS'TTAGTC'
p2159
I244
sS'TCCATA'
p2160
I1547
sS'TTAGTA'
p2161
I656
sS'TTTAAT'
p2162
I532
sS'GCACTG'
p2163
I626
sS'GGGCAT'
p2164
I166
sS'TTTCCG'
p2165
I312
sS'TTTCCA'
p2166
I1392
sS'TTTCCC'
p2167
I1379
sS'GTACGT'
p2168
I56
sS'GTTTGT'
p2169
I801
sS'TTCTAA'
p2170
I4129
sS'TTTCCT'
p2171
I802
sS'GGGCAG'
p2172
I842
sS'CCTGGA'
p2173
I685
sS'GGGCAA'
p2174
I361
sS'GGGCAC'
p2175
I473
sS'GTTTGC'
p2176
I1632
sS'CTATTT'
p2177
I393
sS'GTTTGA'
p2178
I1576
sS'GTTTGG'
p2179
I1523
sS'GTACGA'
p2180
I67
sS'CCGCTC'
p2181
I241
sS'GCATGT'
p2182
I350
sS'CCGCTA'
p2183
I192
sS'CCGCTG'
p2184
I609
sS'AGCATT'
p2185
I726
sS'GCGCGG'
p2186
I330
sS'GCGCGC'
p2187
I421
sS'GCGCGA'
p2188
I129
sS'GCATGG'
p2189
I431
sS'TGGATC'
p2190
I291
sS'GCATGC'
p2191
I482
sS'TTAGGG'
p2192
I437
sS'GCATGA'
p2193
I395
sS'GTCGAC'
p2194
I221
sS'GCGCGT'
p2195
I76
sS'ATGTGT'
p2196
I900
sS'GTCGAG'
p2197
I319
sS'AGACAT'
p2198
I206
sS'GAGCTA'
p2199
I2842
sS'TGCGCT'
p2200
I273
sS'GAGCTC'
p2201
I2380
sS'ATTGAT'
p2202
I144
sS'GAGCTG'
p2203
I6977
sS'AAACGA'
p2204
I202
sS'AAACGC'
p2205
I274
sS'GTAACA'
p2206
I745
sS'GTAGTA'
p2207
I551
sS'AAACGG'
p2208
I236
sS'TGTCCC'
p2209
I1151
sS'TGCGCG'
p2210
I517
sS'TGTCCA'
p2211
I1144
sS'TGTCCG'
p2212
I299
sS'TGCGCC'
p2213
I847
sS'ATTGAG'
p2214
I479
sS'CGCTGA'
p2215
I1026
sS'GTAGTG'
p2216
I706
sS'AAACGT'
p2217
I127
sS'TGGGTT'
p2218
I247
sS'ATTTCA'
p2219
I1862
sS'ATTTCC'
p2220
I1426
sS'ATCAGT'
p2221
I712
sS'ATCGGG'
p2222
I218
sS'CATAGT'
p2223
I530
sS'AAATCA'
p2224
I1001
sS'ATCGGC'
p2225
I215
sS'ATCGGA'
p2226
I139
sS'ATTTCT'
p2227
I690
sS'CGATCA'
p2228
I61
sS'TGGGTC'
p2229
I545
sS'TGGGTA'
p2230
I1149
sS'CATAGG'
p2231
I1192
sS'ATCGGT'
p2232
I49
sS'ATCAGG'
p2233
I1778
sS'ATCAGA'
p2234
I1991
sS'ATCAGC'
p2235
I1962
sS'ACGGGT'
p2236
I50
sS'ATAATT'
p2237
I209
sS'CCTGGT'
p2238
I329
sS'GATTCT'
p2239
I1314
sS'CTTTTG'
p2240
I4521
sS'TACTAG'
p2241
I1840
sS'TACTAA'
p2242
I3035
sS'TACTAC'
p2243
I1957
sS'GATTCC'
p2244
I1875
sS'GATTCA'
p2245
I3189
sS'ACGGGA'
p2246
I163
sS'ACGGGC'
p2247
I172
sS'TACTAT'
p2248
I931
sS'CTTTTT'
p2249
I909
sS'CGTAGA'
p2250
I249
sS'TCACGA'
p2251
I85
sS'TCACGC'
p2252
I139
sS'CGATTG'
p2253
I137
sS'TCACGG'
p2254
I140
sS'TCTCAT'
p2255
I365
sS'TCACGT'
p2256
I108
sS'CGGTGC'
p2257
I520
sS'TTCCAC'
p2258
I1787
sS'TTCCAA'
p2259
I1597
sS'TTCCAG'
p2260
I2159
sS'ACCCTT'
p2261
I405
sS'TGAAGT'
p2262
I506
sS'ATGCTT'
p2263
I329
sS'AGGCAC'
p2264
I836
sS'TTCCAT'
p2265
I627
sS'TGAAGC'
p2266
I914
sS'ACCCTC'
p2267
I1167
sS'TGAAGG'
p2268
I1032
sS'ACCCTG'
p2269
I2844
sS'CTGACT'
p2270
I590
sS'ATAATC'
p2271
I195
sS'CCCCTT'
p2272
I679
sS'AGTTAT'
p2273
I449
sS'ACATAT'
p2274
I251
sS'TGTATT'
p2275
I402
sS'CTGACC'
p2276
I1206
sS'CTGACA'
p2277
I1340
sS'AGTTAA'
p2278
I1465
sS'CCCCTG'
p2279
I3472
sS'AGTTAC'
p2280
I1140
sS'CCCCTC'
p2281
I2155
sS'AGTTAG'
p2282
I1100
sS'CCCCTA'
p2283
I1850
sS'ACACAG'
p2284
I476
sS'ACACAA'
p2285
I311
sS'ACACAC'
p2286
I730
sS'AATGTT'
p2287
I486
sS'CTGCAG'
p2288
I1364
sS'CATGGG'
p2289
I1201
sS'CATGGA'
p2290
I816
sS'CATGGC'
p2291
I1137
sS'AATGTC'
p2292
I944
sS'ACACAT'
p2293
I264
sS'AATGTA'
p2294
I2587
sS'AATGTG'
p2295
I3447
sS'GCACAC'
p2296
I259
sS'CTGCAT'
p2297
I316
sS'GCACAG'
p2298
I328
sS'CCACAG'
p2299
I433
sS'CGAGAT'
p2300
I36
sS'ATTACT'
p2301
I346
sS'CACAAT'
p2302
I717
sS'ACATTG'
p2303
I655
sS'GTACCA'
p2304
I312
sS'ACATTA'
p2305
I646
sS'ACATTC'
p2306
I297
sS'ATTACA'
p2307
I893
sS'GATACA'
p2308
I1659
sS'ATTACC'
p2309
I467
sS'CGAGAC'
p2310
I116
sS'GTTCGG'
p2311
I305
sS'AAGTCT'
p2312
I1021
sS'ACCCTA'
p2313
I1405
sS'ATGCTA'
p2314
I1271
sS'GGACAT'
p2315
I74
sS'CAGCGT'
p2316
I188
sS'GCTATA'
p2317
I583
sS'GCTATC'
p2318
I182
sS'AAGTCG'
p2319
I372
sS'AAGTCA'
p2320
I3117
sS'GCTATG'
p2321
I955
sS'CCACTC'
p2322
I239
sS'GGACAG'
p2323
I196
sS'GGACAC'
p2324
I172
sS'GGACAA'
p2325
I156
sS'CTAATT'
p2326
I235
sS'AGGGTT'
p2327
I314
sS'GAGGCG'
p2328
I1845
sS'TGTTGG'
p2329
I1865
sS'GAGGCA'
p2330
I3705
sS'TGTTGA'
p2331
I2206
sS'GAGGCC'
p2332
I4356
sS'TGTTGC'
p2333
I2250
sS'CAATGT'
p2334
I248
sS'TAAAAT'
p2335
I503
sS'ACTCGC'
p2336
I271
sS'ACTCGG'
p2337
I292
sS'AGCGCA'
p2338
I783
sS'GAGGCT'
p2339
I1559
sS'AGCGCC'
p2340
I1417
sS'AGGGTG'
p2341
I2352
sS'AGGGTA'
p2342
I1173
sS'AGCGCG'
p2343
I729
sS'AGGGTC'
p2344
I503
sS'TAAAAG'
p2345
I1394
sS'ACTCGT'
p2346
I84
sS'TAAAAC'
p2347
I1214
sS'TAAAAA'
p2348
I1443
sS'ACGTTC'
p2349
I152
sS'AGCTGC'
p2350
I5718
sS'CTACTA'
p2351
I515
sS'AGCTGA'
p2352
I4033
sS'ACGTTG'
p2353
I331
sS'AGCTGG'
p2354
I4537
sS'TAGGGG'
p2355
I1365
sS'TAAATG'
p2356
I2366
sS'AGTGCG'
p2357
I300
sS'AGTGCA'
p2358
I1325
sS'AGAGTT'
p2359
I229
sS'AGTGCC'
p2360
I1006
sS'CCAAAA'
p2361
I388
sS'ACAATG'
p2362
I906
sS'TAGGGT'
p2363
I358
sS'GCTTGG'
p2364
I1245
sS'AGCTGT'
p2365
I2002
sS'ACGTTT'
p2366
I85
sS'AGTGCT'
p2367
I554
sS'CGTTAC'
p2368
I264
sS'AGAGTA'
p2369
I714
sS'AGAGTG'
p2370
I1172
sS'TAACCC'
p2371
I320
sS'GTTAAA'
p2372
I1338
sS'CCTGGC'
p2373
I939
sS'GTTAAC'
p2374
I794
sS'GTCTGT'
p2375
I1705
sS'CCTGGG'
p2376
I1246
sS'GTTAAG'
p2377
I1207
sS'CCGGTG'
p2378
I341
sS'TTCGTC'
p2379
I324
sS'CTAATC'
p2380
I221
sS'GTCTGG'
p2381
I3639
sS'GTCTGC'
p2382
I3708
sS'GTTAAT'
p2383
I276
sS'GTCTGA'
p2384
I3270
sS'CCGGTC'
p2385
I128
sS'GGAAGG'
p2386
I1488
sS'CCACAT'
p2387
I221
sS'GGAAGC'
p2388
I1036
sS'CTAATG'
p2389
I1008
sS'GGAAGA'
p2390
I932
sS'GCGTTA'
p2391
I240
sS'CAATGA'
p2392
I597
sS'GCGTTC'
p2393
I202
sS'CAATGC'
p2394
I457
sS'GCGTTG'
p2395
I436
sS'CAATGG'
p2396
I503
sS'ATGCTG'
p2397
I2237
sS'GGAAGT'
p2398
I656
sS'ATGCTC'
p2399
I613
sS'CCACAA'
p2400
I304
sS'ATTTGT'
p2401
I625
sS'TCCTCG'
p2402
I1026
sS'TGTATG'
p2403
I2299
sS'TCCTCA'
p2404
I4879
sS'TGTATA'
p2405
I1726
sS'TCCTCC'
p2406
I5753
sS'TGTATC'
p2407
I599
sS'CGTTAG'
p2408
I282
sS'TAACCG'
p2409
I70
sS'TCATAG'
p2410
I246
sS'TTCGTG'
p2411
I867
sS'TCATAA'
p2412
I277
sS'TTCGTA'
p2413
I511
sS'CGTTAA'
p2414
I287
sS'TAACCA'
p2415
I679
sS'ACCGCT'
p2416
I154
sS'TCGCGA'
p2417
I69
sS'AACCCA'
p2418
I2909
sS'TCAGGA'
p2419
I517
sS'TTCGTT'
p2420
I175
sS'TACCCT'
p2421
I817
sS'TAACCT'
p2422
I188
sS'GTGAAG'
p2423
I1329
sS'GTGAAA'
p2424
I1352
sS'GTGAAC'
p2425
I823
sS'CAATAG'
p2426
I251
sS'AACCCG'
p2427
I630
sS'ACCGCG'
p2428
I316
sS'ACCGCA'
p2429
I476
sS'AACGAG'
p2430
I620
sS'ACCGCC'
p2431
I805
sS'AGTTCC'
p2432
I1905
sS'CCGCCT'
p2433
I212
sS'AGGCTT'
p2434
I481
sS'CCTTCT'
p2435
I797
sS'CGAGCT'
p2436
I74
sS'GTTGCA'
p2437
I739
sS'TGTCGC'
p2438
I495
sS'GATCAA'
p2439
I1307
sS'GTGCCG'
p2440
I349
sS'GTGCCA'
p2441
I1430
sS'GTTGCG'
p2442
I152
sS'GTGCCC'
p2443
I1275
sS'CCGCCG'
p2444
I283
sS'AGGCTA'
p2445
I1404
sS'CCTTCC'
p2446
I2070
sS'AGGCTC'
p2447
I1170
sS'CCGCCC'
p2448
I847
sS'AACGAC'
p2449
I403
sS'CCGCCA'
p2450
I373
sS'AGGCTG'
p2451
I4521
sS'GTGCCT'
p2452
I653
sS'GTTGCT'
p2453
I371
sS'GGATAT'
p2454
I83
sS'ATAGGT'
p2455
I175
sS'TCGGGT'
p2456
I76
sS'AAACCT'
p2457
I290
sS'GCAGTT'
p2458
I193
sS'GAAGCT'
p2459
I521
sS'TCGGGC'
p2460
I196
sS'ATGCCA'
p2461
I926
sS'TCGGGA'
p2462
I129
sS'NNNNNG'
p2463
I1
sS'TCGGGG'
p2464
I278
sS'GGATAG'
p2465
I98
sS'GAAGCG'
p2466
I423
sS'GCAGTG'
p2467
I921
sS'GAAGCC'
p2468
I1504
sS'GCAGTA'
p2469
I446
sS'GAAGCA'
p2470
I1593
sS'GCAGTC'
p2471
I207
sS'GAGAGC'
p2472
I3737
sS'GAGAGA'
p2473
I5495
sS'GTTCAT'
p2474
I295
sS'GAGAGG'
p2475
I6245
sS'CGCCCA'
p2476
I1099
sS'CTACAA'
p2477
I289
sS'GCATTG'
p2478
I666
sS'CTATAC'
p2479
I246
sS'ACGCAA'
p2480
I80
sS'CTCGCA'
p2481
I612
sS'CTACAC'
p2482
I248
sS'CTCGCG'
p2483
I550
sS'AAACAT'
p2484
I323
sS'GCATTT'
p2485
I232
sS'AGTTTC'
p2486
I2422
sS'GCCGGG'
p2487
I1599
sS'AGCATC'
p2488
I1445
sS'GCCGGC'
p2489
I1102
sS'CATGTT'
p2490
I489
sS'GCCGGA'
p2491
I577
sS'AGATCT'
p2492
I245
sS'AGTTTA'
p2493
I2984
sS'TACCCA'
p2494
I2387
sS'CATGTA'
p2495
I2335
sS'CATGTC'
p2496
I921
sS'GCCGGT'
p2497
I156
sS'CATGTG'
p2498
I3819
sS'ATTAAC'
p2499
I777
sS'GTTGCC'
p2500
I695
sS'GTACTC'
p2501
I194
sS'GGCCTG'
p2502
I4472
sS'GGCCTC'
p2503
I2187
sS'GGCCTA'
p2504
I1617
sS'TTTGTT'
p2505
I459
sS'AATCGG'
p2506
I445
sS'ATGGCG'
p2507
I243
sS'AATCGC'
p2508
I504
sS'AATCGA'
p2509
I365
sS'GTTCAG'
p2510
I1098
sS'TCACTG'
p2511
I932
sS'TCACTA'
p2512
I471
sS'CAGCGA'
p2513
I415
sS'AATCGT'
p2514
I179
sS'AGCCGA'
p2515
I740
sS'GAGCGT'
p2516
I307
sS'AGCCGC'
p2517
I1644
sS'TAATTG'
p2518
I1102
sS'TAATTA'
p2519
I1375
sS'AGCCGG'
p2520
I1279
sS'GTTTTT'
p2521
I644
sS'TGGTGA'
p2522
I1237
sS'GGGCTC'
p2523
I860
sS'TGGTGC'
p2524
I1290
sS'GGGCTA'
p2525
I849
sS'GGGCTG'
p2526
I3044
sS'TGGTGG'
p2527
I1709
sS'GATGGG'
p2528
I1866
sS'AAAAAA'
p2529
I2732
sS'AAAAAC'
p2530
I1331
sS'GAGCGA'
p2531
I824
sS'GTTCAA'
p2532
I766
sS'GAGCGC'
p2533
I1494
sS'ATCACA'
p2534
I2044
sS'CCAAGG'
p2535
I637
sS'ACGTAT'
p2536
I50
sS'TCTCAG'
p2537
I1455
sS'CCAAGC'
p2538
I519
sS'TGGTGT'
p2539
I823
sS'GGGCTT'
p2540
I326
sS'ATTCGT'
p2541
I64
sS'AGAACT'
p2542
I442
sS'GCGTTT'
p2543
I74
sS'CCTTCG'
p2544
I413
sS'TACCAT'
p2545
I553
sS'AGATAG'
p2546
I225
sS'CACTGT'
p2547
I2154
sS'ACCCGA'
p2548
I291
sS'ATGTCT'
p2549
I777
sS'ACCCGC'
p2550
I644
sS'ACCAGT'
p2551
I538
sS'TACCAC'
p2552
I1892
sS'AGAACG'
p2553
I231
sS'TACCAA'
p2554
I1686
sS'AGAACA'
p2555
I1195
sS'TACCAG'
p2556
I1772
sS'AGAACC'
p2557
I791
sS'ACCAGC'
p2558
I2018
sS'CACTGG'
p2559
I4066
sS'ACCAGA'
p2560
I1711
sS'TGACAA'
p2561
I254
sS'ACCAGG'
p2562
I2037
sS'CACTGC'
p2563
I6051
sS'CCTATC'
p2564
I222
sS'CACTGA'
p2565
I4714
sS'GAGTCA'
p2566
I4436
sS'TAGGTT'
p2567
I292
sS'AATTAT'
p2568
I610
sS'CTGTTG'
p2569
I3507
sS'TGCTAT'
p2570
I755
sS'CTGTTC'
p2571
I1616
sS'CGGGTT'
p2572
I70
sS'CTGTTA'
p2573
I2903
sS'AATTAC'
p2574
I1517
sS'TACATG'
p2575
I4220
sS'AATTAA'
p2576
I2127
sS'TAGGTA'
p2577
I1578
sS'TAGGTC'
p2578
I654
sS'CGGGTC'
p2579
I233
sS'CTGTTT'
p2580
I1113
sS'CGGGTA'
p2581
I251
sS'CGGGTG'
p2582
I658
sS'CCAAAC'
p2583
I350
sS'ATTGTT'
p2584
I195
sS'AAGTAA'
p2585
I1522
sS'TGGATG'
p2586
I1632
sS'AGCAAA'
p2587
I3478
sS'ATATAT'
p2588
I294
sS'AGCAAC'
p2589
I2475
sS'TTAGGC'
p2590
I343
sS'AAAGCT'
p2591
I467
sS'AGCAAG'
p2592
I3576
sS'AAAGCA'
p2593
I1689
sS'AAAGCC'
p2594
I1211
sS'TTAGGT'
p2595
I253
sS'ATATAA'
p2596
I384
sS'AGCAAT'
p2597
I723
sS'ATATAC'
p2598
I366
sS'TACTTC'
p2599
I3368
sS'ATAGCC'
p2600
I310
sS'TACTTG'
p2601
I4612
sS'ATAGCG'
p2602
I58
sS'TCTCAC'
p2603
I1008
sS'CAGCAT'
p2604
I352
sS'CAGCGC'
p2605
I867
sS'ACGGCT'
p2606
I68
sS'ATAGCT'
p2607
I225
sS'TACTTT'
p2608
I2338
sS'GTTTTC'
p2609
I1606
sS'CGAGTT'
p2610
I36
sS'TCCAAT'
p2611
I393
sS'CGTACT'
p2612
I91
sS'TCCCGT'
p2613
I223
sS'TATGCT'
p2614
I596
sS'CTTAAG'
p2615
I1138
sS'ACATAA'
p2616
I335
sS'CTTAAA'
p2617
I1458
sS'AGGGGT'
p2618
I364
sS'CTTAAC'
p2619
I1021
sS'TCCAAG'
p2620
I1669
sS'CGTACC'
p2621
I194
sS'TCCAAC'
p2622
I1232
sS'TCCAAA'
p2623
I1578
sS'AGGGGA'
p2624
I1449
sS'CTTAAT'
p2625
I267
sS'AGGGGC'
p2626
I1450
sS'TATGCA'
p2627
I1945
sS'AGGGGG'
p2628
I1277
sS'CGTTTG'
p2629
I987
sS'CGACTT'
p2630
I40
sS'TGAATT'
p2631
I209
sS'TTGTAA'
p2632
I788
sS'TTGTAC'
p2633
I629
sS'GTACCT'
p2634
I170
sS'TTGTAG'
p2635
I722
sS'TGAATC'
p2636
I318
sS'ACAACA'
p2637
I680
sS'TGAATA'
p2638
I926
sS'CGACTC'
p2639
I87
sS'TGAATG'
p2640
I1395
sS'AAGTAT'
p2641
I447
sS'CGACTG'
p2642
I147
sS'TTGTAT'
p2643
I395
sS'ATCGTG'
p2644
I453
sS'GCTTCG'
p2645
I354
sS'GCTTCA'
p2646
I1583
sS'ATCGTA'
p2647
I253
sS'TGGGAG'
p2648
I937
sS'TGGGAA'
p2649
I591
sS'TGGGAC'
p2650
I619
sS'GCTTCT'
p2651
I688
sS'ATCGTT'
p2652
I55
sS'ACAACG'
p2653
I83
sS'TGGGAT'
p2654
I158
sS'CTAGCC'
p2655
I496
sS'CTAGCA'
p2656
I642
sS'CTAGCG'
p2657
I122
sS'CGGTAG'
p2658
I133
sS'ACTTAG'
p2659
I642
sS'ACTTAA'
p2660
I909
sS'CGGTAC'
p2661
I114
sS'TACACT'
p2662
I1407
sS'CGGTAA'
p2663
I100
sS'GACCAG'
p2664
I2717
sS'GACCAC'
p2665
I2484
sS'GACCAA'
p2666
I2330
sS'TTCGAG'
p2667
I352
sS'TACACC'
p2668
I1912
sS'CGGTAT'
p2669
I42
sS'TACACA'
p2670
I4563
sS'TACACG'
p2671
I635
sS'GCGAGA'
p2672
I249
sS'CGCCCG'
p2673
I729
sS'GCGAGC'
p2674
I313
sS'GGCCGT'
p2675
I210
sS'GCGAGG'
p2676
I533
sS'CAGCCG'
p2677
I540
sS'CAGCCA'
p2678
I2410
sS'GGTATT'
p2679
I176
sS'CAGCCC'
p2680
I2143
sS'GCGAGT'
p2681
I84
sS'CGCCCC'
p2682
I2186
sS'TTACGT'
p2683
I76
sS'GAACTC'
p2684
I437
sS'GAACTA'
p2685
I893
sS'GGACTT'
p2686
I119
sS'CACCTA'
p2687
I2977
sS'AACTAT'
p2688
I712
sS'CACCTC'
p2689
I3205
sS'CACCTG'
p2690
I5981
sS'TGATCC'
p2691
I212
sS'AACACT'
p2692
I1759
sS'TGATCA'
p2693
I382
sS'TGATCG'
p2694
I47
sS'ACGCAG'
p2695
I160
sS'GGACTG'
p2696
I405
sS'CACCTT'
p2697
I953
sS'AACTAC'
p2698
I2248
sS'GGACTC'
p2699
I168
sS'AACGAT'
p2700
I91
sS'AACACG'
p2701
I866
sS'AACACA'
p2702
I5262
sS'AACACC'
p2703
I2971
sS'TGATCT'
p2704
I203
sS'AAAGAC'
p2705
I821
sS'GCATTC'
p2706
I211
sS'CAACAG'
p2707
I406
sS'GACAGT'
p2708
I1864
sS'CAACAA'
p2709
I358
sS'AAAGAA'
p2710
I1527
sS'CAACAC'
p2711
I322
sS'GCTGAT'
p2712
I194
sS'GCATTA'
p2713
I513
sS'GACAGG'
p2714
I6123
sS'CAACAT'
p2715
I161
sS'GACAGC'
p2716
I5467
sS'GACAGA'
p2717
I6215
sS'GTATTA'
p2718
I1182
sS'GTATTC'
p2719
I362
sS'GTAAGT'
p2720
I357
sS'ATATCA'
p2721
I545
sS'GTATTG'
p2722
I1031
sS'GGTGGC'
p2723
I983
sS'TCCCCT'
p2724
I1110
sS'GGTGGA'
p2725
I778
sS'TATCTT'
p2726
I844
sS'GGTGGG'
p2727
I1329
sS'ATCCCT'
p2728
I429
sS'AGAGGC'
p2729
I927
sS'GTAAGA'
p2730
I796
sS'AGAGGA'
p2731
I1077
sS'CTCGCC'
p2732
I1298
sS'AGAGGG'
p2733
I875
sS'GTAAGG'
p2734
I701
sS'TCCCCG'
p2735
I791
sS'CGTCAC'
p2736
I468
sS'TCCCCC'
p2737
I1638
sS'GGTGGT'
p2738
I335
sS'TATCTG'
p2739
I4052
sS'GTCCGG'
p2740
I793
sS'GTCGCA'
p2741
I384
sS'GTCGCC'
p2742
I776
sS'CCGTCT'
p2743
I134
sS'CAAAGT'
p2744
I417
sS'GAGAGT'
p2745
I1068
sS'TCGGTG'
p2746
I277
sS'ACGCTC'
p2747
I173
sS'GTCGCT'
p2748
I248
sS'GTAACT'
p2749
I353
sS'CCGTCG'
p2750
I94
sS'ATTTAT'
p2751
I356
sS'CCGTCA'
p2752
I242
sS'CCGTCC'
p2753
I355
sS'GGCTGT'
p2754
I1480
sS'CGCGTG'
p2755
I1016
sS'ACGCAT'
p2756
I41
sS'CGCGTC'
p2757
I501
sS'CGCGTA'
p2758
I316
sS'CCACTG'
p2759
I757
sS'CCACTA'
p2760
I373
sS'ATGCAC'
p2761
I402
sS'CGCGTT'
p2762
I87
sS'GGCTGG'
p2763
I4582
sS'GGCTGA'
p2764
I3221
sS'GGCTGC'
p2765
I4887
sS'ATGCAT'
p2766
I196
sS'CCTACC'
p2767
I687
sS'TTTCAT'
p2768
I566
sS'ATGACG'
p2769
I205
sS'GGAGTT'
p2770
I116
sS'ATGACA'
p2771
I1106
sS'ATGACC'
p2772
I657
sS'CCTGAT'
p2773
I171
sS'GGGCCT'
p2774
I406
sS'ATGACT'
p2775
I473
sS'GGAGTA'
p2776
I337
sS'GGAGTC'
p2777
I189
sS'GGAGTG'
p2778
I674
sS'GGGCCG'
p2779
I414
sS'GGGCCC'
p2780
I897
sS'GGGCCA'
p2781
I785
sS'CTGATC'
p2782
I401
sS'ACGAGT'
p2783
I71
sS'GCGCAA'
p2784
I77
sS'AGGCCC'
p2785
I1311
sS'AGGCCG'
p2786
I490
sS'ACGAGG'
p2787
I275
sS'ACGAGC'
p2788
I184
sS'ACGAGA'
p2789
I179
sS'GGCAAC'
p2790
I1544
sS'AGGCCT'
p2791
I588
sS'GCTCTA'
p2792
I1247
sS'ACATCT'
p2793
I310
sS'GGGTTG'
p2794
I1725
sS'TTTGGG'
p2795
I966
sS'GGGTTA'
p2796
I1201
sS'GGGTTC'
p2797
I660
sS'TTTGAT'
p2798
I242
sS'TGAACT'
p2799
I334
sS'CTACGA'
p2800
I81
sS'ATTGCT'
p2801
I236
sS'TGCGAA'
p2802
I267
sS'CTTACT'
p2803
I487
sS'AGAAAT'
p2804
I388
sS'TGCGAG'
p2805
I499
sS'AACGGC'
p2806
I635
sS'TTTGAG'
p2807
I1295
sS'AACGGA'
p2808
I552
sS'GACTAG'
p2809
I2260
sS'AACGGG'
p2810
I627
sS'TTTGAC'
p2811
I800
sS'TTTGAA'
p2812
I1275
sS'AAGCAG'
p2813
I2226
sS'CCTGAC'
p2814
I612
sS'CTCGTA'
p2815
I470
sS'CTCGTC'
p2816
I491
sS'CCCTGG'
p2817
I3139
sS'CCCTGA'
p2818
I2350
sS'CTCGTG'
p2819
I1047
sS'CCCTGC'
p2820
I3956
sS'CCCTGT'
p2821
I1068
sS'AAGCTC'
p2822
I1582
sS'GATATA'
p2823
I1629
sS'AAGCTA'
p2824
I2550
sS'GATATG'
p2825
I2021
sS'AAGCTG'
p2826
I4819
sS'TGACGC'
p2827
I157
sS'TACTCT'
p2828
I1995
sS'CATCGT'
p2829
I170
sS'GATGGT'
p2830
I479
sS'CCAGTA'
p2831
I406
sS'CCAGTC'
p2832
I280
sS'TACGAT'
p2833
I100
sS'CCAGTG'
p2834
I768
sS'TACTCG'
p2835
I641
sS'CATCGA'
p2836
I340
sS'CATCGC'
p2837
I554
sS'TACTCC'
p2838
I2506
sS'NGAATT'
p2839
I1
sS'TACTCA'
p2840
I4996
sS'CATCGG'
p2841
I354
sS'CAGGGG'
p2842
I1697
sS'CAGGGA'
p2843
I1555
sS'CAGGGC'
p2844
I2104
sS'AATCTG'
p2845
I3396
sS'TACAAT'
p2846
I895
sS'AGGTAG'
p2847
I651
sS'AGTCGA'
p2848
I251
sS'AATCTA'
p2849
I2262
sS'TGAACG'
p2850
I144
sS'TCACAC'
p2851
I369
sS'TCACAA'
p2852
I257
sS'TCACAG'
p2853
I458
sS'GCCATA'
p2854
I1375
sS'CGGACG'
p2855
I170
sS'GCCATC'
p2856
I989
sS'CGGACA'
p2857
I264
sS'CGGACC'
p2858
I347
sS'GCCATG'
p2859
I2842
sS'TTTTAA'
p2860
I2845
sS'TCACAT'
p2861
I225
sS'CACGGA'
p2862
I585
sS'ATTAAA'
p2863
I1288
sS'ATTAAG'
p2864
I960
sS'TTTTAC'
p2865
I1288
sS'TCACTT'
p2866
I301
sS'TCCACG'
p2867
I618
sS'ATTAAT'
p2868
I262
sS'GAACCA'
p2869
I660
sS'GGTATG'
p2870
I918
sS'GGTATA'
p2871
I630
sS'GGTATC'
p2872
I294
sS'GAACCG'
p2873
I137
sS'ACGAAT'
p2874
I32
sS'CTGAAA'
p2875
I1310
sS'TTTGGT'
p2876
I339
sS'GGAACC'
p2877
I513
sS'CTGAAG'
p2878
I1313
sS'ATTGTA'
p2879
I851
sS'NNNNGA'
p2880
I2
sS'CATTGC'
p2881
I2403
sS'TATGAG'
p2882
I1433
sS'CATTGA'
p2883
I1955
sS'CTAGTT'
p2884
I179
sS'CATTGG'
p2885
I2249
sS'TCAACT'
p2886
I204
sS'ATGTTA'
p2887
I2037
sS'ACACCG'
p2888
I87
sS'CTGCCA'
p2889
I2090
sS'CTGCCC'
p2890
I2116
sS'ACACCC'
p2891
I369
sS'ACACCA'
p2892
I406
sS'CTGCCG'
p2893
I535
sS'CTAGTG'
p2894
I760
sS'TCAACC'
p2895
I353
sS'ATGTTC'
p2896
I867
sS'CTAGTC'
p2897
I244
sS'TCAACG'
p2898
I83
sS'CTAGTA'
p2899
I570
sS'CATTGT'
p2900
I1141
sS'TATGAC'
p2901
I1205
sS'ACACCT'
p2902
I247
sS'CTGCCT'
p2903
I1054
sS'CCTCGT'
p2904
I133
sS'TTGTGT'
p2905
I1039
sS'AGACTG'
p2906
I888
sS'AGACTC'
p2907
I302
sS'AGACTA'
p2908
I449
sS'CCTCGG'
p2909
I567
sS'CCTCGC'
p2910
I574
sS'CCTCGA'
p2911
I250
sS'CGAGGA'
p2912
I166
sS'CGAGGC'
p2913
I260
sS'CGAGGG'
p2914
I235
sS'ACTTTC'
p2915
I1197
sS'ACTTTA'
p2916
I1965
sS'ACTTTG'
p2917
I2503
sS'GACCTG'
p2918
I5280
sS'GTCGCG'
p2919
I351
sS'GACCTA'
p2920
I2694
sS'GACCTC'
p2921
I2848
sS'CACCGG'
p2922
I850
sS'CTATTG'
p2923
I1159
sS'CACCGA'
p2924
I620
sS'CACCGC'
p2925
I1572
sS'GACCTT'
p2926
I1151
sS'GGACGC'
p2927
I169
sS'GGACGG'
p2928
I141
sS'CTATTA'
p2929
I1297
sS'CACAGC'
p2930
I5724
sS'CTTATC'
p2931
I450
sS'CACAGA'
p2932
I5413
sS'CTTATA'
p2933
I1066
sS'CACAGG'
p2934
I5363
sS'CTTATG'
p2935
I1351
sS'ACTCAT'
p2936
I345
sS'GAGGAG'
p2937
I4297
sS'GACGTA'
p2938
I809
sS'CGTATC'
p2939
I90
sS'GACGTC'
p2940
I880
sS'GAGGAC'
p2941
I2081
sS'GAGGAA'
p2942
I3530
sS'GACGTG'
p2943
I1996
sS'TTAACA'
p2944
I898
sS'ACTCAC'
p2945
I851
sS'TTAACC'
p2946
I606
sS'ACTCAA'
p2947
I747
sS'ACTCAG'
p2948
I1054
sS'CTTATT'
p2949
I365
sS'CACAGT'
p2950
I1835
sS'AGCGAC'
p2951
I514
sS'TAAACA'
p2952
I1636
sS'AGCGAA'
p2953
I436
sS'GAGGAT'
p2954
I467
sS'AGCGAG'
p2955
I903
sS'CCACCG'
p2956
I154
sS'TAAACG'
p2957
I212
sS'CTGTGG'
p2958
I3372
sS'GTATGT'
p2959
I468
sS'AGTTCA'
p2960
I2495
sS'TACTTA'
p2961
I4725
sS'CTGTGC'
p2962
I2850
sS'CTGTGA'
p2963
I2172
sS'CGGGGT'
p2964
I147
sS'TAGGAC'
p2965
I761
sS'GCAAAG'
p2966
I513
sS'TAGGAA'
p2967
I917
sS'GCAAAA'
p2968
I361
sS'TAGGAG'
p2969
I1088
sS'GCAAAC'
p2970
I357
sS'CGGGGC'
p2971
I897
sS'GTATGG'
p2972
I460
sS'CTGTGT'
p2973
I1597
sS'CGGGGG'
p2974
I555
sS'GTATGC'
p2975
I486
sS'AGTTCT'
p2976
I953
sS'GCAAAT'
p2977
I245
sS'CGAGAA'
p2978
I98
sS'TAGGAT'
p2979
I194
sS'AAAAAT'
p2980
I432
sS'TTCAAT'
p2981
I844
sS'TGCTTT'
p2982
I2365
sS'GTCTAT'
p2983
I532
sS'GTAATT'
p2984
I205
sS'GTTACC'
p2985
I667
sS'GTTACA'
p2986
I863
sS'TAATTC'
p2987
I379
sS'TATCGA'
p2988
I244
sS'TATCGC'
p2989
I301
sS'TATAGT'
p2990
I690
sS'GTCTAA'
p2991
I1824
sS'CAGGAC'
p2992
I1009
sS'TTCAAG'
p2993
I3511
sS'TGCTTC'
p2994
I4333
sS'TTCAAA'
p2995
I4411
sS'GTCTAG'
p2996
I1656
sS'GATGGA'
p2997
I1521
sS'TATAGC'
p2998
I1255
sS'TATCGT'
p2999
I126
sS'TATAGA'
p3000
I1708
sS'AGCTCA'
p3001
I4581
sS'TATAGG'
p3002
I1259
sS'GTTACT'
p3003
I380
sS'GCTCTC'
p3004
I941
sS'GGAAAC'
p3005
I654
sS'GATGGC'
p3006
I1463
sS'GCTCTG'
p3007
I3475
sS'CCACGT'
p3008
I129
sS'GGCGTT'
p3009
I122
sS'CAGGAG'
p3010
I1495
sS'GAATGG'
p3011
I932
sS'GAATGA'
p3012
I952
sS'ACTACT'
p3013
I229
sS'GAATGC'
p3014
I772
sS'CCACGA'
p3015
I88
sS'GGCGTC'
p3016
I640
sS'CCACGC'
p3017
I175
sS'GGCGTA'
p3018
I412
sS'GTTCCG'
p3019
I228
sS'GGCGTG'
p3020
I1719
sS'CCACGG'
p3021
I141
sS'AACCTA'
p3022
I2982
sS'GGCTTA'
p3023
I2751
sS'ACTACC'
p3024
I447
sS'GGCTTC'
p3025
I3198
sS'ACTACA'
p3026
I765
sS'ACTACG'
p3027
I149
sS'GGCTTG'
p3028
I4340
sS'CGTTGA'
p3029
I364
sS'AGTCAG'
p3030
I1852
sS'CGTTGC'
p3031
I561
sS'TAACAC'
p3032
I389
sS'TCCTAC'
p3033
I1395
sS'AGTCAC'
p3034
I1800
sS'TCCTAA'
p3035
I1662
sS'AGTCAA'
p3036
I1291
sS'TCATCG'
p3037
I98
sS'AAGCGT'
p3038
I198
sS'TCATCC'
p3039
I407
sS'GAGCGG'
p3040
I1491
sS'CTTTCT'
p3041
I1335
sS'AGTCAT'
p3042
I604
sS'TCCTAT'
p3043
I533
sS'TAACAT'
p3044
I162
sS'CGTTGT'
p3045
I195
sS'CTTTCC'
p3046
I2451
sS'CTTTCA'
p3047
I3210
sS'CTTTCG'
p3048
I432
sS'GCGGGT'
p3049
I101
sS'AGCCGT'
p3050
I276
sS'AAAAAG'
p3051
I1590
sS'GTTGAT'
p3052
I185
sS'CGACCA'
p3053
I92
sS'CGACCC'
p3054
I99
sS'CGACCG'
p3055
I44
sS'CCTTAT'
p3056
I265
sS'GTTGAC'
p3057
I484
sS'GTTGAA'
p3058
I665
sS'CGTCAA'
p3059
I217
sS'GTTGAG'
p3060
I782
sS'CCTTAC'
p3061
I595
sS'TTCGAT'
p3062
I68
sS'CCTTAA'
p3063
I732
sS'CCTTAG'
p3064
I681
sS'CCACTT'
p3065
I205
sS'AATAGA'
p3066
I2228
sS'AATAGC'
p3067
I1554
sS'CAACTG'
p3068
I688
sS'AATAGG'
p3069
I1613
sS'AAAGTT'
p3070
I245
sS'GGGGTT'
p3071
I200
sS'GCCATT'
p3072
I403
sS'GGATGT'
p3073
I246
sS'AATAGT'
p3074
I661
sS'GCAGCC'
p3075
I770
sS'CAACTT'
p3076
I180
sS'TATGAT'
p3077
I355
sS'GGGGTG'
p3078
I1778
sS'GGATGA'
p3079
I265
sS'GGGGTC'
p3080
I313
sS'GGGGTA'
p3081
I675
sS'TCTCCG'
p3082
I289
sS'GAGTCC'
p3083
I2459
sS'AAACTG'
p3084
I1778
sS'TCTCCC'
p3085
I934
sS'AAACTA'
p3086
I1100
sS'TCTCCA'
p3087
I1006
sS'AAACTC'
p3088
I449
sS'CTATGA'
p3089
I586
sS'AGTACG'
p3090
I166
sS'ACGCGC'
p3091
I152
sS'AGTACC'
p3092
I728
sS'ACGCGG'
p3093
I119
sS'AGTACA'
p3094
I1175
sS'CCCTTA'
p3095
I2936
sS'CCCTTC'
p3096
I3139
sS'TCTCCT'
p3097
I483
sS'CCCTTG'
p3098
I4163
sS'AGTACT'
p3099
I452
sS'CTATGT'
p3100
I385
sS'GCCGAA'
p3101
I273
sS'GTGGAG'
p3102
I1125
sS'GCCGAC'
p3103
I467
sS'GTGGAC'
p3104
I552
sS'GCCGAG'
p3105
I825
sS'GTGGAA'
p3106
I781
sS'GGGTGA'
p3107
I993
sS'GTGGAT'
p3108
I170
sS'GCCGAT'
p3109
I54
sS'CCTATT'
p3110
I219
sS'ACCCGG'
p3111
I642
sS'GTAGTC'
p3112
I268
sS'AAATCG'
p3113
I86
sS'CACGCG'
p3114
I489
sS'TTATCG'
p3115
I82
sS'CACGCA'
p3116
I1134
sS'AAATCC'
p3117
I492
sS'CACGCC'
p3118
I1588
sS'AAAGTA'
p3119
I1334
sS'CTACGT'
p3120
I58
sS'CTTTGA'
p3121
I2289
sS'CTCGTT'
p3122
I163
sS'CACGCT'
p3123
I385
sS'AAATCT'
p3124
I326
sS'AAAGTC'
p3125
I518
sS'GTAGTT'
p3126
I172
sS'AGATAA'
p3127
I369
sS'CGTTAT'
p3128
I99
sS'ATAGTC'
p3129
I149
sS'GATGAT'
p3130
I409
sS'GGAGCA'
p3131
I454
sS'GGAGCC'
p3132
I583
sS'AAAGTG'
p3133
I1764
sS'CCAAAT'
p3134
I164
sS'GGAGCG'
p3135
I206
sS'AAAACT'
p3136
I486
sS'GATGAC'
p3137
I1704
sS'GATGAA'
p3138
I1856
sS'GCTCTT'
p3139
I375
sS'GATGAG'
p3140
I2308
sS'AAAACC'
p3141
I1225
sS'AAAACA'
p3142
I2390
sS'AAAACG'
p3143
I242
sS'GGAGCT'
p3144
I244
sS'CCAAAG'
p3145
I420
sS'TCGCGG'
p3146
I133
sS'CTAGAG'
p3147
I441
sS'TCGCGC'
p3148
I176
sS'CTACCG'
p3149
I87
sS'GCCACA'
p3150
I2708
sS'AGATCA'
p3151
I548
sS'GCCACC'
p3152
I2525
sS'AGATCC'
p3153
I301
sS'CGACGG'
p3154
I61
sS'GCCACG'
p3155
I804
sS'AGATCG'
p3156
I77
sS'ATGTCA'
p3157
I1737
sS'TCGCGT'
p3158
I35
sS'GTGCAA'
p3159
I525
sS'ACCCGT'
p3160
I124
sS'AGAAAG'
p3161
I1544
sS'CGACGA'
p3162
I21
sS'TACCCG'
p3163
I480
sS'AGAAAC'
p3164
I1209
sS'GCCACT'
p3165
I871
sS'AGAAAA'
p3166
I1259
sS'TACCCC'
p3167
I1371
sS'ATGTAC'
p3168
I496
sS'GACCGA'
p3169
I863
sS'ATGTAA'
p3170
I729
sS'ATGTAG'
p3171
I485
sS'CCTATA'
p3172
I573
sS'CGAAGT'
p3173
I76
sS'ATTAGG'
p3174
I680
sS'CCCAAG'
p3175
I1684
sS'ATGTCG'
p3176
I171
sS'ATGTAT'
p3177
I337
sS'GTTCCA'
p3178
I792
sS'ACTTCA'
p3179
I1457
sS'ATCCAT'
p3180
I206
sS'AGCACT'
p3181
I1437
sS'TTAGAA'
p3182
I509
sS'CGGCTG'
p3183
I1109
sS'TTAGAC'
p3184
I262
sS'CGGCTC'
p3185
I507
sS'TTAGAG'
p3186
I434
sS'CGGCTA'
p3187
I322
sS'AGCACC'
p3188
I2873
sS'AGCACA'
p3189
I3784
sS'AGCACG'
p3190
I863
sS'CGGCTT'
p3191
I144
sS'CGCCCT'
p3192
I448
sS'TTAGAT'
p3193
I121
sS'CCAGCA'
p3194
I854
sS'CGAAGC'
p3195
I227
sS'CCAGCC'
p3196
I808
sS'AAAGAG'
p3197
I1229
sS'CCAGCG'
p3198
I197
sS'CGACGT'
p3199
I25
sS'TTATTT'
p3200
I523
sS'TGTGAG'
p3201
I1738
sS'TGTGAA'
p3202
I1427
sS'GGGAGG'
p3203
I3472
sS'TGTGAC'
p3204
I1474
sS'ATATCT'
p3205
I337
sS'CCAGCT'
p3206
I381
sS'AAAGAT'
p3207
I285
sS'TGTGAT'
p3208
I362
sS'TTATTG'
p3209
I1370
sS'TTATTA'
p3210
I1600
sS'CATGAT'
p3211
I296
sS'TTATTC'
p3212
I488
sS'AGACGG'
p3213
I195
sS'TTTTAT'
p3214
I645
sS'GCGAAC'
p3215
I104
sS'TACAAG'
p3216
I2721
sS'TCCACT'
p3217
I846
sS'TACAAA'
p3218
I4058
sS'AGACGA'
p3219
I91
sS'TACAAC'
p3220
I2230
sS'CCTCTG'
p3221
I3360
sS'AGGTGG'
p3222
I1911
sS'CCTCTC'
p3223
I1251
sS'AGGTGC'
p3224
I1491
sS'CCTCTA'
p3225
I1435
sS'AGGTGA'
p3226
I1441
sS'CTTACG'
p3227
I196
sS'TCCACA'
p3228
I2187
sS'TTTTAG'
p3229
I1402
sS'ACATCG'
p3230
I64
sS'CTTACC'
p3231
I866
sS'ACATCA'
p3232
I568
sS'CTTACA'
p3233
I996
sS'ACATCC'
p3234
I408
sS'AGGTGT'
p3235
I766
sS'CCTCTT'
p3236
I531
sS'GCGTGA'
p3237
I243
sS'CCCGGC'
p3238
I1258
sS'CCCGGA'
p3239
I527
sS'CCCGGG'
p3240
I1144
sS'TATGAA'
p3241
I1494
sS'TGGAAT'
p3242
I282
sS'TAGGTG'
p3243
I2092
sS'TTGTGC'
p3244
I1360
sS'TTGTGA'
p3245
I1371
sS'TTGTGG'
p3246
I2070
sS'CCCGGT'
p3247
I160
sS'AATTAG'
p3248
I1582
sS'GGTTTT'
p3249
I553
sS'TGGAAC'
p3250
I796
sS'TGGAAA'
p3251
I1085
sS'TGAGGA'
p3252
I662
sS'AAGAGG'
p3253
I4345
sS'TGAGGC'
p3254
I622
sS'AAGAGA'
p3255
I3745
sS'AAGAGC'
p3256
I2626
sS'TGAGGG'
p3257
I584
sS'GCTTAG'
p3258
I737
sS'GCTTAC'
p3259
I530
sS'GCTTAA'
p3260
I745
sS'TGATTC'
p3261
I300
sS'AAGCGC'
p3262
I770
sS'AAGAGT'
p3263
I851
sS'AAGCGA'
p3264
I534
sS'AAGCGG'
p3265
I792
sS'GCTTAT'
p3266
I239
sS'CTGCTA'
p3267
I1908
sS'GCGTGT'
p3268
I177
sS'CTGCTC'
p3269
I1568
sS'ACTTCT'
p3270
I677
sS'GACCGT'
p3271
I309
sS'CTGCTG'
p3272
I4585
sS'CGGTCA'
p3273
I318
sS'GGTCGT'
p3274
I105
sS'CGGTCC'
p3275
I398
sS'CTAGAA'
p3276
I464
sS'CTAGAC'
p3277
I291
sS'ACTTCG'
p3278
I255
sS'GACCGC'
p3279
I1409
sS'ACTTCC'
p3280
I1718
sS'CTGCTT'
p3281
I744
sS'GACCGG'
p3282
I1266
sS'CTAGAT'
p3283
I157
sS'GGTCGG'
p3284
I490
sS'CGGTCT'
p3285
I161
sS'GGTCGC'
p3286
I480
sS'GGTCGA'
p3287
I229
sS'CGTCGC'
p3288
I482
sS'GCGTGG'
p3289
I437
sS'CGTCGG'
p3290
I294
sS'GCGTGC'
p3291
I390
sS'TGCTCA'
p3292
I4672
sS'TTCATC'
p3293
I1796
sS'TGCTCC'
p3294
I3265
sS'TTCATA'
p3295
I3932
sS'TTCATG'
p3296
I4948
sS'TGCTCG'
p3297
I828
sS'GTACAA'
p3298
I209
sS'CAGCAG'
p3299
I1746
sS'GCTTTG'
p3300
I3519
sS'CAGCAC'
p3301
I1263
sS'CAGCAA'
p3302
I984
sS'ATATCC'
p3303
I321
sS'GTACAC'
p3304
I200
sS'TGCTCT'
p3305
I1997
sS'TTCATT'
p3306
I1322
sS'GCTTTA'
p3307
I2383
sS'GCTGCC'
p3308
I1150
sS'GCTGCA'
p3309
I1142
sS'AACTCT'
p3310
I1829
sS'GCTGCG'
p3311
I464
sS'TGGCCA'
p3312
I1162
sS'GTAGCA'
p3313
I535
sS'TCATCT'
p3314
I407
sS'AACTCA'
p3315
I4998
sS'TGGCCT'
p3316
I512
sS'AACTCC'
p3317
I3405
sS'GCTGCT'
p3318
I503
sS'AACTCG'
p3319
I738
sS'CAGTCG'
p3320
I322
sS'TGAAGA'
p3321
I960
sS'AATATT'
p3322
I493
sS'GTTCGA'
p3323
I224
sS'CAACCT'
p3324
I196
sS'CAGTTA'
p3325
I2533
sS'TGGCCG'
p3326
I285
sS'GGCACG'
p3327
I649
sS'GGCACA'
p3328
I2080
sS'GACAAT'
p3329
I859
sS'GGCACC'
p3330
I1745
sS'CAACCG'
p3331
I96
sS'CAGAAA'
p3332
I2016
sS'AATATG'
p3333
I2518
sS'CGGTCG'
p3334
I119
sS'AATATA'
p3335
I2403
sS'TTAGGA'
p3336
I458
sS'AATATC'
p3337
I693
sS'CTTCGT'
p3338
I146
sS'GACAAA'
p3339
I4349
sS'GGCACT'
p3340
I772
sS'GACAAC'
p3341
I2770
sS'ACGACA'
p3342
I120
sS'GACAAG'
p3343
I3950
sS'TGGCCC'
p3344
I922
sS'GCGGCG'
p3345
I372
sS'GCAATA'
p3346
I398
sS'GCAATG'
p3347
I637
sS'CGATGG'
p3348
I89
sS'GACACT'
p3349
I1866
sS'TCCCAT'
p3350
I349
sS'CGATGC'
p3351
I80
sS'GTAAAT'
p3352
I219
sS'CGATGA'
p3353
I90
sS'GAATTA'
p3354
I1039
sS'GAATTC'
p3355
I373
sS'GAATTG'
p3356
I1016
sS'TCCCAA'
p3357
I983
sS'CGATGT'
p3358
I38
sS'TCCCAC'
p3359
I1379
sS'GTAAAG'
p3360
I598
sS'TCCCAG'
p3361
I1700
sS'GGATTT'
p3362
I106
sS'GTGCGT'
p3363
I174
sS'ACGCCG'
p3364
I133
sS'GGATTC'
p3365
I153
sS'GGATTA'
p3366
I439
sS'GGATTG'
p3367
I347
sS'ACCTCT'
p3368
I926
sS'CTATCA'
p3369
I713
sS'ATATAG'
p3370
I255
sS'TCTGTG'
p3371
I3218
sS'TCTGTC'
p3372
I735
sS'GTCCCG'
p3373
I789
sS'TCTGTA'
p3374
I1788
sS'AACCGG'
p3375
I771
sS'CTCCTT'
p3376
I1374
sS'GGCGGA'
p3377
I807
sS'GGCGGG'
p3378
I2413
sS'AACCGA'
p3379
I766
sS'CTATCC'
p3380
I437
sS'TCTGTT'
p3381
I412
sS'AAAGCG'
p3382
I251
sS'CTCCTG'
p3383
I7112
sS'AACCGT'
p3384
I273
sS'CTCCTA'
p3385
I3431
sS'CTCCTC'
p3386
I4720
sS'GGCGGT'
p3387
I239
sS'GACGCA'
p3388
I1238
sS'GACGCC'
p3389
I1780
sS'AACAAC'
p3390
I3181
sS'CCCACC'
p3391
I3288
sS'ATAGCA'
p3392
I575
sS'AGCCTT'
p3393
I961
sS'CCGATT'
p3394
I26
sS'CCCACT'
p3395
I844
sS'AACAAT'
p3396
I954
sS'GACGCT'
p3397
I577
sS'GTGCGA'
p3398
I211
sS'CCGATA'
p3399
I75
sS'AGCCTG'
p3400
I6319
sS'AGCCTA'
p3401
I2543
sS'AGCCTC'
p3402
I3232
sS'GTACCC'
p3403
I234
sS'TGGTTG'
p3404
I2535
sS'GTACCG'
p3405
I78
sS'CGCCTT'
p3406
I358
sS'GCGCCT'
p3407
I156
sS'CAGAGT'
p3408
I785
sS'ACGCCA'
p3409
I189
sS'GCATCT'
p3410
I230
sS'ACCTCG'
p3411
I530
sS'GAGTTG'
p3412
I3631
sS'CGCCTC'
p3413
I1998
sS'GCGCCA'
p3414
I320
sS'CGCCTA'
p3415
I883
sS'AGGCAG'
p3416
I1448
sS'CGCCTG'
p3417
I2510
sS'GAGTTA'
p3418
I2870
sS'CAGAGG'
p3419
I3357
sS'GCATCC'
p3420
I298
sS'GCATCA'
p3421
I390
sS'CAGAGC'
p3422
I2802
sS'AAAATT'
p3423
I273
sS'CAGAGA'
p3424
I2768
sS'TAGCTA'
p3425
I1941
sS'CCGATC'
p3426
I39
sS'CCTAGA'
p3427
I689
sS'CCTAGC'
p3428
I555
sS'TTTGCT'
p3429
I516
sS'TAGCTC'
p3430
I1126
sS'TGCGGT'
p3431
I203
sS'CCTAGG'
p3432
I794
sS'TAAGCA'
p3433
I1025
sS'TGCGGC'
p3434
I799
sS'TGCGGA'
p3435
I394
sS'CCTAGT'
p3436
I252
sS'TGCGGG'
p3437
I794
sS'TTTGCG'
p3438
I189
sS'TGAGTT'
p3439
I210
sS'CGGGAC'
p3440
I263
sS'ATCGCT'
p3441
I127
sS'CAGGGT'
p3442
I495
sS'TCTCGT'
p3443
I135
sS'ATCGCC'
p3444
I311
sS'TGAGTG'
p3445
I977
sS'ATCGCA'
p3446
I227
sS'TGAGTA'
p3447
I683
sS'ATCGCG'
p3448
I146
sS'TGAGTC'
p3449
I382
sS'AAGGTG'
p3450
I3213
sS'AAGGTC'
p3451
I1028
sS'CATCAT'
p3452
I493
sS'AAGGTA'
p3453
I2127
sS'ATTTCG'
p3454
I163
sS'ACGGCA'
p3455
I161
sS'CATCAC'
p3456
I1695
sS'ACGGCC'
p3457
I245
sS'CATCAA'
p3458
I1376
sS'CATCAG'
p3459
I1847
sS'ACGGCG'
p3460
I109
sS'TCACCT'
p3461
I222
sS'TCTAAG'
p3462
I936
sS'TCGTTT'
p3463
I85
sS'CGGAAT'
p3464
I58
sS'CAATTC'
p3465
I259
sS'ATCGAT'
p3466
I37
sS'TCACCG'
p3467
I103
sS'TCACCA'
p3468
I454
sS'TCACCC'
p3469
I357
sS'CGGAAG'
p3470
I668
sS'CAACCC'
p3471
I325
sS'CGGCCT'
p3472
I234
sS'CGGAAC'
p3473
I303
sS'AGCTCG'
p3474
I888
sS'CGGAAA'
p3475
I278
sS'TAGCTT'
p3476
I492
sS'ATCCAG'
p3477
I782
sS'TTCAGC'
p3478
I3951
sS'TGTGTA'
p3479
I2527
sS'CCGTAG'
p3480
I95
sS'TGTGTG'
p3481
I6713
sS'ATGGCA'
p3482
I962
sS'TTACTT'
p3483
I253
sS'TCGTCC'
p3484
I223
sS'ATGGCT'
p3485
I383
sS'TGTGTT'
p3486
I508
sS'CCAAGT'
p3487
I319
sS'AGATTA'
p3488
I660
sS'GAAACG'
p3489
I452
sS'GAAACA'
p3490
I2154
sS'GAAACC'
p3491
I1808
sS'AGATAC'
p3492
I319
sS'CTGAGT'
p3493
I605
sS'AGGTAC'
p3494
I539
sS'GAAACT'
p3495
I828
sS'AGAATG'
p3496
I1653
sS'AGAATA'
p3497
I1098
sS'AGAATC'
p3498
I320
sS'CTGAGC'
p3499
I1578
sS'CTGAGA'
p3500
I1597
sS'CTGAGG'
p3501
I2138
sS'CATACC'
p3502
I1038
sS'CATACA'
p3503
I1687
sS'CATACG'
p3504
I255
sS'GCAATC'
p3505
I129
sS'TCAAAT'
p3506
I203
sS'GTCCAT'
p3507
I278
sS'ACATAG'
p3508
I244
sS'CATACT'
p3509
I581
sS'AATGGC'
p3510
I1169
sS'GTCCAG'
p3511
I1328
sS'CAAGCT'
p3512
I344
sS'TCAAAG'
p3513
I524
sS'TCAAAA'
p3514
I587
sS'GTCCAA'
p3515
I958
sS'CGGCGG'
p3516
I560
sS'TTGATG'
p3517
I1591
sS'ATCGAG'
p3518
I165
sS'CGGCGC'
p3519
I473
sS'TTGATC'
p3520
I294
sS'CGGCGA'
p3521
I163
sS'CGTACA'
p3522
I212
sS'CGAGTG'
p3523
I206
sS'TTGATT'
p3524
I244
sS'CGGCGT'
p3525
I97
sS'ATGGCC'
p3526
I736
sS'GTACGC'
p3527
I73
sS'CCATTA'
p3528
I563
sS'CGAGTA'
p3529
I107
sS'CGGTTA'
p3530
I353
sS'GGTTTA'
p3531
I2042
sS'CGGTTC'
p3532
I283
sS'GGTTTC'
p3533
I1807
sS'TTTACA'
p3534
I1468
sS'CGGTTG'
p3535
I509
sS'GGTTTG'
p3536
I3004
sS'CCATTG'
p3537
I720
sS'ATCCCA'
p3538
I987
sS'GCTGTG'
p3539
I2866
sS'ACCTAA'
p3540
I1073
sS'GCTGTC'
p3541
I564
sS'CGGTTT'
p3542
I105
sS'GCTGTA'
p3543
I1206
sS'TATGCG'
p3544
I212
sS'TCTCAA'
p3545
I1098
sS'AGGTTG'
p3546
I2188
sS'AGGTTC'
p3547
I820
sS'AGGTTA'
p3548
I1912
sS'ATGAAA'
p3549
I1099
sS'ACTCCT'
p3550
I300
sS'TTTTTC'
p3551
I1730
sS'GAGGGC'
p3552
I3362
sS'TTTTTA'
p3553
I4862
sS'TCCTCT'
p3554
I2992
sS'TTTTTG'
p3555
I3934
sS'TCCATG'
p3556
I2494
sS'TTAAAT'
p3557
I375
sS'AGGTTT'
p3558
I496
sS'TAAGCG'
p3559
I146
sS'TATGCC'
p3560
I917
sS'TTAAAC'
p3561
I622
sS'ATACGT'
p3562
I62
sS'TTAAAA'
p3563
I1237
sS'ACTCCG'
p3564
I215
sS'TTAAAG'
p3565
I865
sS'ACTCCA'
p3566
I702
sS'TTTTTT'
p3567
I1346
sS'ACTCCC'
p3568
I617
sS'CTGTAA'
p3569
I900
sS'GTCACG'
p3570
I950
sS'CTGTAC'
p3571
I838
sS'GCAACT'
p3572
I161
sS'GTCACC'
p3573
I2753
sS'CTGTAG'
p3574
I855
sS'GTCACA'
p3575
I3403
sS'ACTTAT'
p3576
I247
sS'AGGGAT'
p3577
I168
sS'GTCACT'
p3578
I1384
sS'TAGGCG'
p3579
I345
sS'GCAACC'
p3580
I368
sS'TAGGCA'
p3581
I1605
sS'GCAACA'
p3582
I483
sS'TAGGCC'
p3583
I1273
sS'ATTCAT'
p3584
I339
sS'GTAAAA'
p3585
I620
sS'GCGATT'
p3586
I45
sS'TCGTGT'
p3587
I107
sS'TTCACT'
p3588
I1741
sS'GTCTCT'
p3589
I2183
sS'AACATT'
p3590
I854
sS'ATTCAG'
p3591
I852
sS'ATATTA'
p3592
I985
sS'ATTCAA'
p3593
I833
sS'ATTCAC'
p3594
I708
sS'GTCTCC'
p3595
I3839
sS'GTCTCA'
p3596
I5021
sS'GCGATG'
p3597
I253
sS'GTCTCG'
p3598
I1018
sS'GCGATA'
p3599
I123
sS'TTCACA'
p3600
I4089
sS'GCGATC'
p3601
I58
sS'GAAGGC'
p3602
I1297
sS'GAAGGA'
p3603
I1596
sS'GAAGGG'
p3604
I1669
sS'CGATTA'
p3605
I80
sS'CAATCT'
p3606
I179
sS'AGACTT'
p3607
I190
sS'GGAACA'
p3608
I607
sS'GGAACG'
p3609
I170
sS'ATAGTA'
p3610
I494
sS'TCATAC'
p3611
I249
sS'GAAGGT'
p3612
I395
sS'CTCGCT'
p3613
I387
sS'CAATCG'
p3614
I126
sS'CAATCA'
p3615
I633
sS'CAATCC'
p3616
I360
sS'TCCTGA'
p3617
I3066
sS'AGTCCA'
p3618
I1068
sS'TCCTGC'
p3619
I4670
sS'AGTCCC'
p3620
I1324
sS'ACTAAA'
p3621
I811
sS'TCCTGG'
p3622
I4258
sS'ACTAAC'
p3623
I504
sS'TAACGC'
p3624
I133
sS'CAGCTG'
p3625
I5313
sS'CAGCTA'
p3626
I2208
sS'CAGCTC'
p3627
I1727
sS'ACTAAT'
p3628
I215
sS'AGTCCT'
p3629
I488
sS'TCCTGT'
p3630
I2570
sS'TAATGT'
p3631
I371
sS'CAGCTT'
p3632
I528
sS'TAACGT'
p3633
I78
sS'AGCCAG'
p3634
I2367
sS'GTACTT'
p3635
I168
sS'CGACAT'
p3636
I30
sS'TTGTTC'
p3637
I1321
sS'TTGTTA'
p3638
I2816
sS'CCGAGA'
p3639
I202
sS'AGGAAG'
p3640
I3631
sS'CCGAGC'
p3641
I307
sS'CCGCGT'
p3642
I70
sS'CGACAC'
p3643
I71
sS'CGACAA'
p3644
I32
sS'CGACAG'
p3645
I58
sS'GTACTA'
p3646
I424
sS'CCGCGC'
p3647
I301
sS'CCGAGT'
p3648
I90
sS'CCGCGA'
p3649
I110
sS'CCGCGG'
p3650
I249
sS'TTGTTT'
p3651
I986
sS'TCCGTT'
p3652
I154
sS'CAGGCG'
p3653
I740
sS'AATAAC'
p3654
I1832
sS'AATAAA'
p3655
I3554
sS'AATAAG'
p3656
I2261
sS'CGCCAT'
p3657
I168
sS'TGGAAG'
p3658
I1323
sS'AATAAT'
p3659
I689
sS'ACGGTG'
p3660
I315
sS'CCAACC'
p3661
I461
sS'CTCAGT'
p3662
I1573
sS'CCAACG'
p3663
I111
sS'GGGATT'
p3664
I229
sS'CGCCGC'
p3665
I1960
sS'AGTAAA'
p3666
I1832
sS'CGCCGA'
p3667
I424
sS'GAGTAG'
p3668
I1327
sS'CGCCGG'
p3669
I1043
sS'GAGTAA'
p3670
I1445
sS'GAGTAC'
p3671
I935
sS'CTCAGG'
p3672
I4647
sS'CTCAGC'
p3673
I5230
sS'CTCAGA'
p3674
I4007
sS'GAGTAT'
p3675
I328
sS'ATCGTC'
p3676
I131
sS'GTGTAG'
p3677
I812
sS'TCGAGC'
p3678
I139
sS'GTGTAA'
p3679
I734
sS'GTGTAC'
p3680
I660
sS'CGCCGT'
p3681
I175
sS'GTGGCA'
p3682
I1949
sS'GTGGCC'
p3683
I1985
sS'CTCGGA'
p3684
I526
sS'CTCGGC'
p3685
I1108
sS'GCCGCC'
p3686
I2067
sS'GCCGCA'
p3687
I844
sS'GCCGCG'
p3688
I915
sS'ACACTT'
p3689
I201
sS'CATATG'
p3690
I2287
sS'AGATAT'
p3691
I158
sS'TCGCTC'
p3692
I173
sS'GTGGCT'
p3693
I919
sS'CATATA'
p3694
I1933
sS'TCAGCA'
p3695
I715
sS'ACACTC'
p3696
I218
sS'ACACTA'
p3697
I420
sS'ACACTG'
p3698
I758
sS'GCCGCT'
p3699
I351
sS'ACCGGA'
p3700
I335
sS'AAATAA'
p3701
I864
sS'ACCGGC'
p3702
I373
sS'CTTTAG'
p3703
I1251
sS'CTTTAA'
p3704
I1730
sS'ACCGGG'
p3705
I391
sS'CTTTAC'
p3706
I1081
sS'CACGAG'
p3707
I600
sS'CAGGTA'
p3708
I1408
sS'AACTTC'
p3709
I2848
sS'CAGGTC'
p3710
I828
sS'CACGAC'
p3711
I392
sS'AACTTG'
p3712
I4633
sS'GTCAGG'
p3713
I3476
sS'CTTTAT'
p3714
I474
sS'AATCCC'
p3715
I1170
sS'TTTATC'
p3716
I497
sS'AATCCA'
p3717
I1314
sS'AAATAT'
p3718
I336
sS'AATCCG'
p3719
I299
sS'CACGAT'
p3720
I93
sS'CAGGTT'
p3721
I331
sS'AACTTT'
p3722
I1319
sS'GGGATA'
p3723
I673
sS'GGGATC'
p3724
I333
sS'GGGTGT'
p3725
I570
sS'GGGATG'
p3726
I1659
sS'GATGCT'
p3727
I777
sS'CGCAGT'
p3728
I344
sS'GAGTCG'
p3729
I698
sS'ATTGGG'
p3730
I443
sS'GAGCCT'
p3731
I987
sS'GGAGAC'
p3732
I367
sS'GGCGGC'
p3733
I1542
sS'GGAGAA'
p3734
I413
sS'GGGTGC'
p3735
I1064
sS'GGAGAG'
p3736
I519
sS'GGGTGG'
p3737
I1824
sS'GAGCCA'
p3738
I3176
sS'CGCAGG'
p3739
I1779
sS'GATGCG'
p3740
I494
sS'CGCAGA'
p3741
I1008
sS'GATGCA'
p3742
I1934
sS'GAGCCG'
p3743
I1105
sS'GATGCC'
p3744
I1572
sS'CGGATT'
p3745
I41
sS'GGTAGT'
p3746
I270
sS'ACCCCT'
p3747
I426
sS'GCCAAT'
p3748
I523
sS'AACCGC'
p3749
I975
sS'AGAGTC'
p3750
I313
sS'AGAAGT'
p3751
I617
sS'GCCAAC'
p3752
I1226
sS'GGTAGA'
p3753
I906
sS'ACCCCC'
p3754
I955
sS'GGTAGC'
p3755
I752
sS'GCCAAG'
p3756
I1900
sS'CGGATA'
p3757
I209
sS'ACCCCG'
p3758
I411
sS'GGTAGG'
p3759
I1085
sS'AGAAGA'
p3760
I1449
sS'AGAAGC'
p3761
I1404
sS'CAGTCT'
p3762
I869
sS'AGAAGG'
p3763
I1718
sS'CACTCC'
p3764
I3737
sS'CACTCA'
p3765
I5229
sS'CACTCG'
p3766
I894
sS'TGCGTT'
p3767
I130
sS'GCAAGG'
p3768
I675
sS'AGCTTT'
p3769
I1623
sS'CCCCGG'
p3770
I921
sS'TGCGTA'
p3771
I528
sS'CCCCGC'
p3772
I1812
sS'CCCCGA'
p3773
I470
sS'AGCTTC'
p3774
I3642
sS'AGCTTA'
p3775
I3528
sS'AGCTTG'
p3776
I4881
sS'ATACGA'
p3777
I70
sS'AGACCA'
p3778
I479
sS'TACCGC'
p3779
I665
sS'TTAGCT'
p3780
I279
sS'TTAGCC'
p3781
I409
sS'TTAGCA'
p3782
I688
sS'GACCAT'
p3783
I469
sS'TTAGCG'
p3784
I112
sS'CTTCAT'
p3785
I419
sS'TCATAT'
p3786
I203
sS'AAGGGG'
p3787
I2667
sS'ATAAGG'
p3788
I637
sS'TGTGCT'
p3789
I623
sS'AAGGGC'
p3790
I1992
sS'ATAAGC'
p3791
I515
sS'AAGGGA'
p3792
I2491
sS'ATAAGA'
p3793
I675
sS'CCAGAC'
p3794
I258
sS'CCAGAA'
p3795
I446
sS'CCAGAG'
p3796
I506
sS'GCAAGT'
p3797
I333
sS'TGTGCG'
p3798
I378
sS'ATAAGT'
p3799
I294
sS'AAGGGT'
p3800
I559
sS'TGTGCC'
p3801
I1096
sS'ATAGGA'
p3802
I347
sS'TGTGCA'
p3803
I1586
sS'ATAGGC'
p3804
I286
sS'TAAGTT'
p3805
I224
sS'ATACGC'
p3806
I80
sS'AGACCG'
p3807
I106
sS'CCAGAT'
p3808
I150
sS'AGACAA'
p3809
I326
sS'AACAAG'
p3810
I3708
sS'AGACAC'
p3811
I441
sS'AGACAG'
p3812
I516
sS'TTTTCT'
p3813
I1402
sS'CGCTGT'
p3814
I520
sS'CCCACG'
p3815
I782
sS'CGTGGG'
p3816
I584
sS'CTATAG'
p3817
I256
sS'CGTGGC'
p3818
I551
sS'CGTGGA'
p3819
I270
sS'TTTTCG'
p3820
I317
sS'CCCACA'
p3821
I2689
sS'CGCTGC'
p3822
I2301
sS'TTTTCC'
p3823
I1757
sS'TTTTCA'
p3824
I2934
sS'CGCTGG'
p3825
I1672
sS'TATGGA'
p3826
I759
sS'TATGGC'
p3827
I789
sS'CGTAGG'
p3828
I362
sS'AACAAA'
p3829
I6268
sS'TATGGG'
p3830
I940
sS'CGTAGC'
p3831
I341
sS'TACCGT'
p3832
I218
sS'AAGTGT'
p3833
I1040
sS'TGGACT'
p3834
I387
sS'CGTAGT'
p3835
I136
sS'TATGGT'
p3836
I395
sS'ATTCCT'
p3837
I265
sS'TGGACA'
p3838
I954
sS'TGGACC'
p3839
I732
sS'TGGACG'
p3840
I227
sS'CCGGTT'
p3841
I66
sS'CTAGCT'
p3842
I271
sS'GCTTGA'
p3843
I1034
sS'TGAGAC'
p3844
I426
sS'GCTTGC'
p3845
I1174
sS'TGAGAA'
p3846
I575
sS'TGAGAG'
p3847
I588
sS'AGGGAC'
p3848
I863
sS'CCTGTT'
p3849
I301
sS'TATCAC'
p3850
I1525
sS'AGGATT'
p3851
I261
sS'CCGGTA'
p3852
I163
sS'CCTGTC'
p3853
I633
sS'CCTGTA'
p3854
I1184
sS'CCTGTG'
p3855
I2462
sS'GCTTGT'
p3856
I544
sS'TGAGAT'
p3857
I212
sS'GGTTGT'
p3858
I514
sS'CCCAAC'
p3859
I1294
sS'TAAACT'
p3860
I475
sS'TATCAG'
p3861
I1747
sS'ACAATA'
p3862
I565
sS'GGTTGG'
p3863
I1417
sS'CTGAAT'
p3864
I265
sS'GGTTGA'
p3865
I1178
sS'GGTTGC'
p3866
I1377
sS'GAAAGT'
p3867
I797
sS'TCCCGC'
p3868
I1388
sS'TCCCGA'
p3869
I482
sS'TCCCGG'
p3870
I1084
sS'GTAACC'
p3871
I523
sS'CGTTTT'
p3872
I210
sS'ATTCTC'
p3873
I736
sS'AGGGAA'
p3874
I999
sS'ATTCTA'
p3875
I1410
sS'ATTCTG'
p3876
I2042
sS'TCATTT'
p3877
I393
sS'TGCTAC'
p3878
I1829
sS'TGCTAA'
p3879
I2714
sS'TGCTAG'
p3880
I1853
sS'CAGCGG'
p3881
I699
sS'AGGATC'
p3882
I493
sS'TCATTC'
p3883
I407
sS'TCATTA'
p3884
I922
sS'TCATTG'
p3885
I1046
sS'ATTCTT'
p3886
I322
sS'CGTTTC'
p3887
I707
sS'TGGCAA'
p3888
I473
sS'TGGCAC'
p3889
I518
sS'TGGCAG'
p3890
I872
sS'GCTGAG'
p3891
I1290
sS'GCTGAA'
p3892
I681
sS'GCTGAC'
p3893
I694
sS'TGGCAT'
p3894
I233
sS'GGCCGG'
p3895
I1438
sS'NNGATC'
p3896
I1
sS'CCGATG'
p3897
I159
sS'GGCCGC'
p3898
I1731
sS'GAACTT'
p3899
I225
sS'GGCCGA'
p3900
I609
sS'GGCAAT'
p3901
I345
sS'CGCTCG'
p3902
I791
sS'CTATAA'
p3903
I354
sS'CTGATT'
p3904
I343
sS'CCATCG'
p3905
I94
sS'CTAAAT'
p3906
I237
sS'CCATCC'
p3907
I444
sS'CCATCA'
p3908
I463
sS'GGCAAG'
p3909
I2144
sS'CTGATA'
p3910
I1125
sS'GAGTTT'
p3911
I916
sS'CTGATG'
p3912
I2017
sS'GGCAAA'
p3913
I1711
sS'CTAAAG'
p3914
I550
sS'CCATCT'
p3915
I353
sS'CTAAAC'
p3916
I434
sS'TGGTTA'
p3917
I2301
sS'GACACC'
p3918
I3448
sS'GACACA'
p3919
I5288
sS'GACACG'
p3920
I1211
sS'CCAAGA'
p3921
I503
sS'TGGTTC'
p3922
I933
sS'TAGCGA'
p3923
I229
sS'TACGAG'
p3924
I347
sS'TACGAC'
p3925
I262
sS'TACGAA'
p3926
I348
sS'GGCGAT'
p3927
I73
sS'TGTTAC'
p3928
I1446
sS'GCATAG'
p3929
I157
sS'GCATAA'
p3930
I193
sS'GCATAC'
p3931
I154
sS'TCGATG'
p3932
I171
sS'TCGATA'
p3933
I91
sS'TCGATC'
p3934
I46
sS'GCATAT'
p3935
I137
sS'CGCGAA'
p3936
I192
sS'CAGCCT'
p3937
I889
sS'TCGATT'
p3938
I39
sS'GGATAA'
p3939
I94
sS'TCGGCA'
p3940
I153
sS'GCGCCC'
p3941
I451
sS'TTTTGA'
p3942
I2315
sS'AACCAA'
p3943
I2879
sS'TGCCGG'
p3944
I791
sS'AACCAC'
p3945
I3246
sS'TGCCGC'
p3946
I987
sS'AACCAG'
p3947
I2548
sS'TGCCGA'
p3948
I389
sS'TTGGAC'
p3949
I404
sS'TCTGGA'
p3950
I568
sS'ATGATC'
p3951
I276
sS'GAGTTC'
p3952
I1818
sS'TGCCGT'
p3953
I214
sS'AACCAT'
p3954
I576
sS'AACAGA'
p3955
I5493
sS'GGGAGT'
p3956
I463
sS'AACAGC'
p3957
I4502
sS'ACGTCC'
p3958
I247
sS'AACAGG'
p3959
I4574
sS'ACGTCA'
p3960
I309
sS'GACGAC'
p3961
I686
sS'AGCAGC'
p3962
I5574
sS'GACGAA'
p3963
I544
sS'GACGAG'
p3964
I920
sS'CCCAAA'
p3965
I1376
sS'CAATAT'
p3966
I138
sS'CTACCT'
p3967
I258
sS'GGGAGA'
p3968
I1521
sS'AACAGT'
p3969
I1611
sS'GGGAGC'
p3970
I1537
sS'ACGAAG'
p3971
I149
sS'CCCAAT'
p3972
I281
sS'GACGAT'
p3973
I114
sS'GGGCGC'
p3974
I699
sS'GGGCGA'
p3975
I353
sS'GGGCGG'
p3976
I1262
sS'TCTCTT'
p3977
I550
sS'AGGCAT'
p3978
I311
sS'CAGAAT'
p3979
I401
sS'GCATCG'
p3980
I80
sS'TCTCTC'
p3981
I1525
sS'TCTCTA'
p3982
I2259
sS'TCTCTG'
p3983
I4186
sS'GGGCGT'
p3984
I155
sS'ACGACC'
p3985
I122
sS'CAGAAC'
p3986
I1493
sS'ACGACG'
p3987
I67
sS'CAGAAG'
p3988
I2357
sS'CCTTCA'
p3989
I1689
sS'CACTTT'
p3990
I1756
sS'CATATT'
p3991
I425
sS'CCTAAT'
p3992
I177
sS'CACTTG'
p3993
I5512
sS'CCTAAC'
p3994
I473
sS'CTACCC'
p3995
I404
sS'CCTAAA'
p3996
I558
sS'CACTTC'
p3997
I5120
sS'CCTAAG'
p3998
I631
sS'CACTTA'
p3999
I4977
sS'GCGGAT'
p4000
I32
sS'TCGTGC'
p4001
I176
sS'CTGCGG'
p4002
I713
sS'AAGATT'
p4003
I332
sS'AACTAG'
p4004
I2110
sS'CTCATG'
p4005
I4308
sS'GACTCG'
p4006
I1389
sS'CTCATC'
p4007
I1718
sS'GACTCC'
p4008
I4531
sS'CTCATA'
p4009
I2950
sS'GACTCA'
p4010
I7228
sS'AAGATA'
p4011
I2382
sS'AAGATC'
p4012
I718
sS'AAGATG'
p4013
I3726
sS'GACTCT'
p4014
I2556
sS'CTCATT'
p4015
I1017
sS'TTGAGA'
p4016
I1310
sS'ATCGAA'
p4017
I161
sS'ATCGAC'
p4018
I106
sS'ATATTT'
p4019
I369
sS'CCGAGG'
p4020
I440
sS'AACTAA'
p4021
I2984
sS'ATAGTT'
p4022
I129
sS'CTACCA'
p4023
I438
sS'TACTGT'
p4024
I2104
sS'ATATTC'
p4025
I338
sS'GATCGG'
p4026
I457
sS'ATATTG'
p4027
I817
sS'TACTGC'
p4028
I3591
sS'TACTGA'
p4029
I4026
sS'TACTGG'
p4030
I3007
sS'ATAGTG'
p4031
I542
sS'ATAGAC'
p4032
I249
sS'CAGGCA'
p4033
I2530
sS'CAGGCC'
p4034
I2514
sS'CATCCG'
p4035
I347
sS'AGGAAA'
p4036
I1959
sS'CATCCA'
p4037
I1295
sS'AGGAAC'
p4038
I1554
sS'CATCCC'
p4039
I1149
sS'TTATGA'
p4040
I641
sS'TTATGC'
p4041
I508
sS'CGGAGT'
p4042
I129
sS'TTATGG'
p4043
I515
sS'CATCCT'
p4044
I651
sS'AGGAAT'
p4045
I319
sS'CAGGCT'
p4046
I857
sS'ACGGAT'
p4047
I39
sS'CGGAGA'
p4048
I394
sS'CGGAGC'
p4049
I809
sS'TTATGT'
p4050
I486
sS'CGGAGG'
p4051
I838
sS'ATGGAA'
p4052
I555
sS'ATGGAC'
p4053
I331
sS'ATGGAG'
p4054
I497
sS'CGCTTG'
p4055
I1682
sS'CGCTTA'
p4056
I899
sS'CGCTTC'
p4057
I1646
sS'ATGGAT'
p4058
I87
sS'CTATAT'
p4059
I187
sS'TTTGCA'
p4060
I1443
sS'CGCTTT'
p4061
I431
sS'GATCGT'
p4062
I152
sS'TTTGCC'
p4063
I927
sS'GAAAAG'
p4064
I1958
sS'TAAACC'
p4065
I850
sS'GAAAAC'
p4066
I1438
sS'ATAGAT'
p4067
I152
sS'GAAAAA'
p4068
I1496
sS'TAGGGC'
p4069
I1141
sS'CTGAAC'
p4070
I849
sS'ACGGTT'
p4071
I33
sS'GAAAAT'
p4072
I396
sS'ACAAGG'
p4073
I692
sS'ACAAGA'
p4074
I674
sS'ACAAGC'
p4075
I566
sS'ACACGT'
p4076
I104
sS'CTGCGT'
p4077
I191
sS'GCGGAG'
p4078
I310
sS'CATAAG'
p4079
I1389
sS'GTCCCT'
p4080
I953
sS'CATAAA'
p4081
I1741
sS'GCGGAC'
p4082
I122
sS'CATAAC'
p4083
I1255
sS'ACACGC'
p4084
I185
sS'ACAAGT'
p4085
I340
sS'ACACGA'
p4086
I97
sS'ACACGG'
p4087
I120
sS'CATAAT'
p4088
I404
sS'GTCCCA'
p4089
I1832
sS'GCACAT'
p4090
I173
sS'GTCCCC'
p4091
I2087
sS'CTGCGA'
p4092
I294
sS'CTGCGC'
p4093
I697
sS'CGGCAA'
p4094
I105
sS'CGGCAC'
p4095
I143
sS'CGGCAG'
p4096
I326
sS'GACGCG'
p4097
I936
sS'CCTCCT'
p4098
I601
sS'ATCAAA'
p4099
I1739
sS'NNNGAA'
p4100
I2
sS'CGGCAT'
p4101
I40
sS'CCTCCC'
p4102
I1572
sS'CCTCCA'
p4103
I1068
sS'CCTCCG'
p4104
I395
sS'CGTGAT'
p4105
I69
s.