(dp0
S'GGGCTT'
p1
I32738
sS'GAACGT'
p2
I5269
sS'CTTCTT'
p3
I28727
sS'CACCCT'
p4
I34280
sS'ATTGAA'
p5
I9881
sS'GAACGG'
p6
I8562
sS'GAACGC'
p7
I9271
sS'GAACGA'
p8
I5246
sS'CACCCA'
p9
I34774
sS'CTTCTA'
p10
I13271
sS'CACCCC'
p11
I52240
sS'CTTCTC'
p12
I40960
sS'CACCCG'
p13
I20634
sS'CTTCTG'
p14
I35397
sS'GTCTCG'
p15
I10294
sS'CGTGTG'
p16
I12871
sS'TAAGGT'
p17
I8288
sS'CGTGTC'
p18
I8821
sS'CGTGTA'
p19
I3681
sS'GGAAAT'
p20
I24490
sS'TAAGGG'
p21
I13526
sS'CGTGTT'
p22
I6698
sS'TAAGGC'
p23
I11758
sS'TAAGGA'
p24
I14452
sS'GTCAAA'
p25
I10592
sS'AGGGAT'
p26
I20347
sS'GTCAAG'
p27
I12177
sS'CTGTCC'
p28
I34571
sS'TCAGAG'
p29
I32720
sS'CTGTCA'
p30
I21606
sS'CTGTCG'
p31
I9964
sS'TCAGAC'
p32
I17376
sS'TCAGAA'
p33
I23800
sS'GTCAAT'
p34
I6495
sS'GTATCA'
p35
I5088
sS'GTATCC'
p36
I6372
sS'GTATCG'
p37
I1697
sS'CTGTCT'
p38
I31687
sS'GGTGTC'
p39
I19101
sS'GGTGTA'
p40
I7635
sS'GGTGTG'
p41
I27268
sS'TATCCT'
p42
I9240
sS'CCGGGG'
p43
I50557
sS'TTCTGT'
p44
I24660
sS'ATTCCT'
p45
I24820
sS'CCGGGC'
p46
I54209
sS'CCGGGA'
p47
I37399
sS'TATCCA'
p48
I7794
sS'TATCCC'
p49
I9687
sS'GTTCTG'
p50
I21477
sS'GGCGAG'
p51
I27437
sS'GGTGTT'
p52
I15338
sS'ATTCCG'
p53
I6289
sS'TTCTGG'
p54
I32066
sS'CCGGGT'
p55
I21907
sS'ATTCCC'
p56
I21140
sS'TTCTGC'
p57
I30118
sS'ATTCCA'
p58
I22077
sS'TTCTGA'
p59
I23792
sS'TGCACT'
p60
I18772
sS'GGNCCC'
p61
I1
sS'GGNCCG'
p62
I1
sS'CGTCAT'
p63
I4708
sS'CGCGGT'
p64
I14021
sS'CCCGCG'
p65
I42614
sS'ACGAAC'
p66
I3527
sS'CGCGGG'
p67
I42605
sS'NCCGCC'
p68
I1
sS'CGCGGC'
p69
I44485
sS'CGCGGA'
p70
I18891
sS'GTCCTT'
p71
I19520
sS'ACCTGT'
p72
I18100
sS'TCATGT'
p73
I10616
sS'CTCCGA'
p74
I14588
sS'TTACAG'
p75
I17064
sS'CTCCGC'
p76
I41120
sS'TTACAA'
p77
I12053
sS'TTACAC'
p78
I8257
sS'CTCCGG'
p79
I32038
sS'TCATGC'
p80
I12687
sS'TGCGAT'
p81
I4358
sS'GGCGAA'
p82
I10302
sS'GTAAGC'
p83
I7821
sS'TCATGG'
p84
I14303
sS'ACCTGC'
p85
I32740
sS'GCGCNN'
p86
I1
sS'AGCCCT'
p87
I42078
sS'TCACTC'
p88
I21145
sS'GTATTT'
p89
I13676
sS'CTCGAT'
p90
I4036
sS'CTCCGT'
p91
I13620
sS'GCCTGA'
p92
I31292
sS'GCCTGC'
p93
I52966
sS'GCCTGG'
p94
I73829
sS'TCTTGC'
p95
I19695
sS'GGGTCA'
p96
I21553
sS'TAAAGG'
p97
I15925
sS'CAAATT'
p98
I14565
sS'TAAAGA'
p99
I14905
sS'TAAAGC'
p100
I12619
sS'GCCTGT'
p101
I30706
sS'TATCTA'
p102
I5224
sS'TAAAGT'
p103
I10499
sS'CAAATA'
p104
I13386
sS'ACGTCC'
p105
I8437
sS'CAAATC'
p106
I14604
sS'CGTGCT'
p107
I11102
sS'CAAATG'
p108
I19416
sS'AATACT'
p109
I8026
sS'CGTCAC'
p110
I9360
sS'GGCATG'
p111
I18158
sS'GGCATA'
p112
I6751
sS'GGCATC'
p113
I17108
sS'AATACG'
p114
I2749
sS'AATACA'
p115
I11770
sS'AATACC'
p116
I8006
sS'GGCATT'
p117
I16809
sS'TATCTG'
p118
I10804
sS'CTTGGT'
p119
I17920
sS'GAGCAC'
p120
I21485
sS'ACTGAT'
p121
I9746
sS'GAGCAG'
p122
I47581
sS'AGTAGT'
p123
I6939
sS'ATACAC'
p124
I7221
sS'TCTCGC'
p125
I14025
sS'TCTCGA'
p126
I6095
sS'TCTCGG'
p127
I16178
sS'ACTGAG'
p128
I24958
sS'AGTAGA'
p129
I10657
sS'AGTAGG'
p130
I13687
sS'ACTGAA'
p131
I17573
sS'ACGGCC'
p132
I14196
sS'TCTCGT'
p133
I5823
sS'GTGTCG'
p134
I6337
sS'TCGAAC'
p135
I4052
sS'TCTNCC'
p136
I1
sS'TCGAAA'
p137
I3811
sS'GTGTCC'
p138
I21397
sS'TCGAAG'
p139
I5834
sS'GTGTCA'
p140
I14140
sS'ATTTGC'
p141
I16964
sS'CTTGCT'
p142
I25960
sS'CCGTCT'
p143
I13116
sS'CCACAA'
p144
I19497
sS'GTGTCT'
p145
I20229
sS'TTGAAG'
p146
I16058
sS'TCGAAT'
p147
I3399
sS'CTTGCG'
p148
I9299
sS'CTTGCA'
p149
I20029
sS'CTTGCC'
p150
I25904
sS'CGAAAG'
p151
I7831
sS'CGAAAA'
p152
I5816
sS'CGAAAC'
p153
I5489
sS'AATCAT'
p154
I9297
sS'AAATGC'
p155
I22015
sS'CACGGC'
p156
I16586
sS'AAATGA'
p157
I21880
sS'AAATGG'
p158
I22065
sS'CACGGG'
p159
I15749
sS'ACAGTA'
p160
I9211
sS'CGAAAT'
p161
I4048
sS'ACAGTT'
p162
I13049
sS'AATCAG'
p163
I17110
sS'CACGGT'
p164
I8553
sS'AAATGT'
p165
I19264
sS'AATCAC'
p166
I13239
sS'TTTGTA'
p167
I14332
sS'TCTAGT'
p168
I9107
sS'TTGCCG'
p169
I8566
sS'TTGCCA'
p170
I18829
sS'TTGCCC'
p171
I23441
sS'TTGCCT'
p172
I23696
sS'TCTAGG'
p173
I15937
sS'GGGTAA'
p174
I11294
sS'TCTAGA'
p175
I11224
sS'GGGTAG'
p176
I16312
sS'TCTAGC'
p177
I11395
sS'ATACGG'
p178
I2411
sS'ATACAT'
p179
I7086
sS'TCGGGC'
p180
I17815
sS'TCGCCC'
p181
I21453
sS'TCGCCA'
p182
I10599
sS'TCGCCG'
p183
I14105
sS'GGTAAT'
p184
I7404
sS'ACCCAT'
p185
I11534
sS'CGTCAG'
p186
I10025
sS'GTGTAT'
p187
I7222
sS'ACCCAC'
p188
I24254
sS'GGTAAC'
p189
I8424
sS'ACCCAA'
p190
I16631
sS'AGATGG'
p191
I25647
sS'ACCCAG'
p192
I38697
sS'GGTAAG'
p193
I11867
sS'TCGCCT'
p194
I14369
sS'AGATGC'
p195
I18192
sS'CCCCAT'
p196
I27852
sS'TTGGGT'
p197
I16637
sS'CACTAG'
p198
I11447
sS'CACTAA'
p199
I8864
sS'CACTAC'
p200
I8235
sS'CCCCAA'
p201
I35741
sS'CCCCAC'
p202
I60822
sS'CCCCAG'
p203
I77991
sS'CACTAT'
p204
I6154
sS'TTGGGG'
p205
I35742
sS'TCGGTT'
p206
I5677
sS'TTGGGA'
p207
I26422
sS'TTGGGC'
p208
I21793
sS'TGCCTG'
p209
I46793
sS'GTGGGT'
p210
I24238
sS'TTTCTG'
p211
I34957
sS'TGCAGC'
p212
I44628
sS'TTTCTA'
p213
I17284
sS'TTTCTC'
p214
I37727
sS'TGCAGG'
p215
I47692
sS'ACGCCT'
p216
I12447
sS'TTTCTN'
p217
I1
sS'GTATCT'
p218
I7452
sS'TTTCTT'
p219
I39925
sS'ACGTGC'
p220
I9398
sS'TGCCTT'
p221
I29652
sS'TGCAGT'
p222
I25568
sS'TAGTGC'
p223
I7719
sS'GTGAGC'
p224
I26363
sS'AAGGAA'
p225
I39592
sS'TACAGT'
p226
I9183
sS'AAGGAC'
p227
I19514
sS'AAGGAG'
p228
I41272
sS'ATATGC'
p229
I6524
sS'GTTCCA'
p230
I16258
sS'ATATGA'
p231
I5968
sS'TACGAA'
p232
I2352
sS'ATATGG'
p233
I6347
sS'AAGGAT'
p234
I14948
sS'CTATCA'
p235
I6341
sS'TGGTTT'
p236
I21121
sS'ATATGT'
p237
I6610
sS'GGTCCC'
p238
I35980
sS'GCCCAG'
p239
I71266
sS'GGTCCA'
p240
I16326
sS'GCCCAA'
p241
I21814
sS'GGTCCG'
p242
I13715
sS'AGGTCT'
p243
I19887
sS'TGTGTC'
p244
I19413
sS'AGACCC'
p245
I27679
sS'ATTGTT'
p246
I12250
sS'AGACCG'
p247
I9465
sS'CTTCGC'
p248
I12910
sS'ATGCAA'
p249
I15683
sS'GCCCAT'
p250
I17400
sS'AGGTCA'
p251
I22119
sS'TCCGGC'
p252
I21534
sS'GGTCCT'
p253
I24719
sS'TCCGGA'
p254
I13991
sS'CTTAGC'
p255
I13052
sS'ATTGTG'
p256
I11554
sS'CTTAGA'
p257
I11949
sS'ATGCAC'
p258
I11742
sS'CTTAGG'
p259
I14818
sS'TCAGAT'
p260
I14516
sS'TGTGTG'
p261
I48900
sS'GCCTTT'
p262
I29160
sS'ATTTTG'
p263
I17005
sS'CGCTAA'
p264
I4391
sS'ATTTTA'
p265
I18167
sS'GAGGTA'
p266
I12236
sS'ATTTTC'
p267
I20662
sS'GAGGTC'
p268
I23158
sS'TAGCAG'
p269
I15095
sS'GATACT'
p270
I5734
sS'TAGCAC'
p271
I9050
sS'TAGCAA'
p272
I10894
sS'GAGGTT'
p273
I18948
sS'ATTTTT'
p274
I26381
sS'TAAATC'
p275
I9919
sS'TAGTGT'
p276
I6781
sS'GCCTTA'
p277
I11757
sS'TTGACA'
p278
I10873
sS'CGCTAT'
p279
I3083
sS'GATACG'
p280
I2232
sS'TAGCAT'
p281
I8207
sS'GATACC'
p282
I6001
sS'GATACA'
p283
I6639
sS'TGAGCT'
p284
I27276
sS'ACGGAC'
p285
I6184
sS'GATCAT'
p286
I6857
sS'ACCGAG'
p287
I11800
sS'AAGACC'
p288
I16767
sS'GTGGGC'
p289
I35170
sS'AAGACG'
p290
I8345
sS'GATCAG'
p291
I12744
sS'TGAGCG'
p292
I14311
sS'CTCGAG'
p293
I10713
sS'TGAGCA'
p294
I24402
sS'TGAGCC'
p295
I33504
sS'AAGACT'
p296
I15352
sS'GCGGTC'
p297
I13443
sS'GCGGTA'
p298
I5581
sS'CGTGCA'
p299
I10015
sS'GCGGTG'
p300
I25441
sS'CTATCG'
p301
I2194
sS'CGGTGT'
p302
I9034
sS'TCGTTA'
p303
I2541
sS'TCGTTC'
p304
I5248
sS'CGCTAG'
p305
I7027
sS'TCGTTG'
p306
I4296
sS'GCGGTT'
p307
I9164
sS'ACTTGC'
p308
I14683
sS'ATGTGA'
p309
I14469
sS'ACTTGA'
p310
I12971
sS'CGGTGG'
p311
I22500
sS'ACTTGG'
p312
I19533
sS'CGGTGA'
p313
I11760
sS'CGGTGC'
p314
I17680
sS'TTCCTA'
p315
I17411
sS'TAGACT'
p316
I7164
sS'TTCCTC'
p317
I45057
sS'CTTCCG'
p318
I19285
sS'TTCCTG'
p319
I48661
sS'TCCTTT'
p320
I34810
sS'CAGTTG'
p321
I15307
sS'ACGCTA'
p322
I3198
sS'TAGACG'
p323
I3356
sS'TTCCTT'
p324
I39567
sS'TAGACC'
p325
I7094
sS'TAGACA'
p326
I8555
sS'TCCTTG'
p327
I26811
sS'TCCTTA'
p328
I14429
sS'TCCTTC'
p329
I39203
sS'ATCTCT'
p330
I18700
sS'ACCGTT'
p331
I4082
sS'TGGCGC'
p332
I22964
sS'TGGCGA'
p333
I10604
sS'GGCCAT'
p334
I18155
sS'ATCTCG'
p335
I6137
sS'ATCTCA'
p336
I15859
sS'ATCTCC'
p337
I20677
sS'GGCCAA'
p338
I25264
sS'GGCCAC'
p339
I37334
sS'ACCGTG'
p340
I8548
sS'ACCGTA'
p341
I2550
sS'TGGCGT'
p342
I9774
sS'ACCGTC'
p343
I6628
sS'ACCGAC'
p344
I6014
sS'AGAATT'
p345
I16750
sS'NGATCC'
p346
I1
sS'TATCCG'
p347
I2829
sS'CCATAA'
p348
I7685
sS'CAAAGG'
p349
I30386
sS'CCATAC'
p350
I6200
sS'CTAACT'
p351
I9530
sS'AGATTC'
p352
I14282
sS'CAAAGC'
p353
I27012
sS'CAACGT'
p354
I4827
sS'GGCAGA'
p355
I41297
sS'GGCAGC'
p356
I61306
sS'AACGTA'
p357
I2547
sS'GGCAGG'
p358
I72951
sS'CAACGC'
p359
I7753
sS'CTAACA'
p360
I9848
sS'CAACGA'
p361
I4296
sS'CTAACC'
p362
I9949
sS'CCATAT'
p363
I6350
sS'GCACTG'
p364
I27254
sS'GGGGGT'
p365
I35662
sS'TACGCT'
p366
I2997
sS'AGATTG'
p367
I10476
sS'CGATCT'
p368
I5160
sS'CTCTAG'
p369
I17820
sS'CTCTAA'
p370
I13746
sS'CTCTAC'
p371
I13714
sS'GGGGGG'
p372
I38272
sS'CGATCC'
p373
I6470
sS'TACGCC'
p374
I4137
sS'GGGGGC'
p375
I70281
sS'CGATCG'
p376
I2478
sS'GGGGGA'
p377
I50244
sS'TACGCG'
p378
I2960
sS'CTCTAT'
p379
I9338
sS'CAGACC'
p380
I26589
sS'CAGACA'
p381
I27484
sS'CAGACG'
p382
I12601
sS'TAGTTG'
p383
I6645
sS'GCTAAT'
p384
I9620
sS'TAGTTC'
p385
I7757
sS'TAGTTA'
p386
I5702
sS'CAGACT'
p387
I21114
sS'GCTAAG'
p388
I13062
sS'TAGTTT'
p389
I10504
sS'GCTAAC'
p390
I7556
sS'GCTAAA'
p391
I10657
sS'TGCATT'
p392
I19897
sS'GCGAAA'
p393
I6715
sS'AACCCT'
p394
I19226
sS'ACGCAC'
p395
I9056
sS'AACCCC'
p396
I24488
sS'AACCCA'
p397
I20949
sS'AACCCG'
p398
I11648
sS'TGCATC'
p399
I14807
sS'AGATTT'
p400
I16044
sS'ACGTAA'
p401
I2992
sS'CTACAC'
p402
I9208
sS'AACTGA'
p403
I16995
sS'AGTTTA'
p404
I11162
sS'CCCAGA'
p405
I48642
sS'CCCAGC'
p406
I84382
sS'AGAATC'
p407
I15324
sS'CCCAGG'
p408
I85802
sS'AACTGT'
p409
I13056
sS'AGTTTT'
p410
I18293
sS'CTACAT'
p411
I8036
sS'CCCAGT'
p412
I31994
sS'TATAAT'
p413
I5966
sS'CGCATA'
p414
I2511
sS'ATACTG'
p415
I7515
sS'CGCATC'
p416
I7928
sS'ATACTA'
p417
I3779
sS'ATACTC'
p418
I5734
sS'CGCATG'
p419
I8008
sS'GCGCAA'
p420
I8071
sS'GCGAAT'
p421
I4208
sS'ATACTT'
p422
I7034
sS'CGCATT'
p423
I6029
sS'AGGCCC'
p424
I48345
sS'GCTCCG'
p425
I33762
sS'TATTGT'
p426
I8302
sS'GCTCCC'
p427
I58977
sS'GCTCCA'
p428
I37008
sS'CCTACT'
p429
I13688
sS'TGTACT'
p430
I7752
sS'TTTAGT'
p431
I10195
sS'TATTGG'
p432
I7501
sS'GCTCCT'
p433
I46274
sS'GCGCAG'
p434
I34802
sS'TATTGA'
p435
I6890
sS'TTTAGG'
p436
I13916
sS'TGTACG'
p437
I2747
sS'CCTACG'
p438
I5743
sS'TGTACA'
p439
I7513
sS'TTTAGC'
p440
I10655
sS'ACAGTG'
p441
I20602
sS'CCTACC'
p442
I17927
sS'TTCGCG'
p443
I6206
sS'TTCGCA'
p444
I5725
sS'TTCGCC'
p445
I10293
sS'CGTACA'
p446
I2741
sS'GACTAA'
p447
I7297
sS'AGTATA'
p448
I4197
sS'TTTGGG'
p449
I29380
sS'AGTATG'
p450
I6120
sS'TTTGGA'
p451
I20857
sS'TTTGGC'
p452
I18494
sS'TTCGCT'
p453
I7907
sS'GATCNN'
p454
I1
sS'TTTGGT'
p455
I15069
sS'GACTAT'
p456
I4736
sS'AGTATT'
p457
I8026
sS'TTACTC'
p458
I10111
sS'TTACTA'
p459
I6371
sS'TTACTG'
p460
I12301
sS'ACCTTG'
p461
I18138
sS'ACCTTC'
p462
I19936
sS'ACCTTA'
p463
I8287
sS'TTACTT'
p464
I12134
sS'ACCTTT'
p465
I16825
sS'ACAGGG'
p466
I31805
sS'CTGGGA'
p467
I62841
sS'CTGGGC'
p468
I71242
sS'ACAGGC'
p469
I30751
sS'TTATAT'
p470
I6576
sS'CTGGGG'
p471
I77979
sS'AGGACG'
p472
I14952
sS'GCAGCT'
p473
I47681
sS'CAGGAA'
p474
I48682
sS'TCGCTT'
p475
I8576
sS'CAGGAG'
p476
I61063
sS'AGGACA'
p477
I26730
sS'GCGCAT'
p478
I8484
sS'TTATAC'
p479
I4390
sS'ACAGGT'
p480
I18107
sS'CTGGGT'
p481
I38680
sS'TTATAG'
p482
I5767
sS'TCGCTG'
p483
I15463
sS'GAGTTG'
p484
I16618
sS'GCAGCG'
p485
I36304
sS'AGGACT'
p486
I22412
sS'GCAGCA'
p487
I45949
sS'TCGCTA'
p488
I3627
sS'CAGGAT'
p489
I22949
sS'CCTCAG'
p490
I49872
sS'CCTCAA'
p491
I20627
sS'CCTCAC'
p492
I34327
sS'TATGTT'
p493
I7490
sS'ATGGGC'
p494
I17396
sS'TCTTTG'
p495
I24764
sS'ATGGGA'
p496
I21121
sS'TCTTTA'
p497
I14878
sS'ATGGGG'
p498
I27858
sS'TCTTTC'
p499
I31586
sS'CCTCAT'
p500
I20216
sS'TCTTTT'
p501
I31612
sS'TATGTG'
p502
I9540
sS'TATGTA'
p503
I6561
sS'ATGGGT'
p504
I11535
sS'TATGTC'
p505
I5610
sS'ACCTGG'
p506
I37580
sS'GAAAGA'
p507
I31616
sS'ATCAAG'
p508
I10134
sS'GAAAGC'
p509
I26231
sS'ATCAAC'
p510
I6907
sS'GAAAGG'
p511
I38805
sS'GTCCAC'
p512
I14765
sS'ACGTGG'
p513
I13239
sS'CATGAG'
p514
I15308
sS'ATCAAT'
p515
I6930
sS'GTCCAA'
p516
I10366
sS'CATGAC'
p517
I11064
sS'CATGAA'
p518
I13311
sS'GTAGCG'
p519
I5615
sS'CAAGTT'
p520
I14387
sS'GCGGCT'
p521
I31938
sS'GTAGCC'
p522
I11917
sS'GCTTTC'
p523
I26209
sS'ACCTGA'
p524
I19822
sS'CAATCT'
p525
I10487
sS'GCTTTT'
p526
I25061
sS'CAAGTG'
p527
I18363
sS'GTAGCT'
p528
I11778
sS'GCGGCC'
p529
I52429
sS'CAAGTC'
p530
I16584
sS'GCGGCA'
p531
I22266
sS'TTACAT'
p532
I10530
sS'AACGGT'
p533
I4086
sS'CGTACG'
p534
I1803
sS'TAATCG'
p535
I2078
sS'CTTGTG'
p536
I18979
sS'TAATCA'
p537
I8199
sS'TAATCC'
p538
I10684
sS'TGCGAA'
p539
I5728
sS'CGGCCC'
p540
I48067
sS'CGACTA'
p541
I2565
sS'CGGCCA'
p542
I23603
sS'GATTTG'
p543
I14598
sS'CGGCCG'
p544
I38724
sS'TCGTGA'
p545
I4667
sS'CTTGTA'
p546
I9086
sS'GGTCTG'
p547
I26612
sS'TAATCT'
p548
I8142
sS'GGNAGA'
p549
I1
sS'GGTCTC'
p550
I26675
sS'GGTCTA'
p551
I7104
sS'AAAATG'
p552
I25550
sS'AAAATC'
p553
I16382
sS'AAAATA'
p554
I22829
sS'TTCAGC'
p555
I24685
sS'ATCCCT'
p556
I20336
sS'TTCAGG'
p557
I27268
sS'ATATCC'
p558
I6320
sS'TCGTCG'
p559
I3901
sS'TGCCAA'
p560
I17769
sS'GAACAA'
p561
I15631
sS'ATCCCG'
p562
I11141
sS'GAACAC'
p563
I13575
sS'ATCCCC'
p564
I23682
sS'GAACAG'
p565
I20953
sS'TTTGAG'
p566
I21344
sS'AACGGA'
p567
I6558
sS'CACCAC'
p568
I28422
sS'CACCAA'
p569
I17838
sS'CACCAG'
p570
I35342
sS'TCCGTG'
p571
I11189
sS'TCGTGC'
p572
I6571
sS'TCCGTC'
p573
I10265
sS'GAGTTA'
p574
I9443
sS'TCCGTA'
p575
I3566
sS'ACCAGA'
p576
I20103
sS'ACGCGA'
p577
I4734
sS'CACCAT'
p578
I16296
sS'AACATG'
p579
I12370
sS'AACATA'
p580
I7477
sS'AACATC'
p581
I10966
sS'GTCAGC'
p582
I22375
sS'GCACGG'
p583
I14926
sS'GTCAGA'
p584
I17897
sS'GCACGA'
p585
I6576
sS'CAGTCC'
p586
I26898
sS'GCACGC'
p587
I15653
sS'CAGTCA'
p588
I19850
sS'GCACCA'
p589
I22398
sS'GCAAGC'
p590
I19436
sS'GCACGT'
p591
I9399
sS'CAGTCT'
p592
I22059
sS'TCAGCT'
p593
I29385
sS'GTCAGT'
p594
I13949
sS'GTATAC'
p595
I2815
sS'TTCCGT'
p596
I7747
sS'GTATAA'
p597
I4393
sS'GTATAG'
p598
I3456
sS'CCGGAA'
p599
I16756
sS'CCGGAC'
p600
I15288
sS'CCGGAG'
p601
I32054
sS'TATCAT'
p602
I5371
sS'CTCGTA'
p603
I2974
sS'TTCCGG'
p604
I16749
sS'TTCCGA'
p605
I7588
sS'TTCCGC'
p606
I14779
sS'GTATAT'
p607
I4012
sS'CGTCTC'
p608
I14682
sS'TATCAA'
p609
I5864
sS'CGTCTG'
p610
I12598
sS'CCGGAT'
p611
I8350
sS'CTCTTC'
p612
I37041
sS'TGTTAT'
p613
I9076
sS'CTCTTA'
p614
I13444
sS'CTCTTG'
p615
I24394
sS'AGGGCT'
p616
I42086
sS'TACGTA'
p617
I1998
sS'CTGACA'
p618
I21122
sS'TACGTC'
p619
I2634
sS'TCTGGT'
p620
I20108
sS'AACAAA'
p621
I29722
sS'CGCGAT'
p622
I4846
sS'TACGTG'
p623
I4188
sS'TGTTAG'
p624
I9857
sS'ATTATA'
p625
I5957
sS'GCTGTT'
p626
I22964
sS'CTCGTG'
p627
I9191
sS'CTCTTT'
p628
I31719
sS'TGTTAA'
p629
I12072
sS'TCTGGG'
p630
I48627
sS'CGCGAC'
p631
I9240
sS'GATATT'
p632
I6562
sS'TCTGGC'
p633
I32918
sS'TACGTT'
p634
I2549
sS'TCTGGA'
p635
I29577
sS'AGTCGT'
p636
I4364
sS'TTACCT'
p637
I13502
sS'CTCCAT'
p638
I23394
sS'AATGCG'
p639
I6026
sS'TTACCG'
p640
I4104
sS'CTCCAC'
p641
I38019
sS'CTCCAA'
p642
I26445
sS'TTACCC'
p643
I11303
sS'CTCCAG'
p644
I61929
sS'TTACCA'
p645
I10347
sS'AGTCGC'
p646
I8861
sS'GTACCG'
p647
I3738
sS'CCGACT'
p648
I10054
sS'GCCTAC'
p649
I10731
sS'GCCTAA'
p650
I10624
sS'GCCTAG'
p651
I16911
sS'GTGCGG'
p652
I18963
sS'CCGACA'
p653
I8057
sS'CCCTGT'
p654
I31818
sS'CCGACC'
p655
I15070
sS'CCGACG'
p656
I8461
sS'AAGCTC'
p657
I20944
sS'GCCTAT'
p658
I7529
sS'AAGCTA'
p659
I10080
sS'ACGCTC'
p660
I9528
sS'ACGCGG'
p661
I13361
sS'CCCGAG'
p662
I29093
sS'AAGCTG'
p663
I30340
sS'GCTGTC'
p664
I26805
sS'CGCACA'
p665
I12993
sS'CTTGAG'
p666
I21328
sS'CGCACC'
p667
I17860
sS'GGGTCG'
p668
I15744
sS'ACTGCT'
p669
I21913
sS'ATACAG'
p670
I9552
sS'ATTGCC'
p671
I10819
sS'GGGTCC'
p672
I33754
sS'CTCACT'
p673
I27847
sS'GGGTCT'
p674
I27684
sS'ACTGCA'
p675
I25565
sS'TTTGTC'
p676
I17929
sS'ACTGCC'
p677
I26370
sS'CGCACT'
p678
I10669
sS'TTTGTG'
p679
I22190
sS'ACTGCG'
p680
I12768
sS'CTCACC'
p681
I36058
sS'CTCACA'
p682
I25630
sS'CTCACG'
p683
I12245
sS'TAGTGG'
p684
I11456
sS'GTGAGG'
p685
I34331
sS'GATTTT'
p686
I16397
sS'ACAATT'
p687
I9796
sS'CTTGAA'
p688
I17639
sS'TAGTGA'
p689
I8746
sS'GTGAGA'
p690
I21335
sS'TCGACG'
p691
I2787
sS'TCGACA'
p692
I2969
sS'TCGACC'
p693
I4884
sS'ACAATA'
p694
I8295
sS'GTGAGT'
p695
I19833
sS'GTGGGG'
p696
I60815
sS'GTGGGA'
p697
I35600
sS'GATTTA'
p698
I9906
sS'TCGACT'
p699
I3809
sS'GTGGGN'
p700
I1
sS'CTGGTT'
p701
I21562
sS'TTGAGT'
p702
I12477
sS'CGAACG'
p703
I3889
sS'CGAACC'
p704
I6769
sS'CGAACA'
p705
I4609
sS'CGGNCC'
p706
I1
sS'CTGGTG'
p707
I35333
sS'CTGGTA'
p708
I11986
sS'CTGGTC'
p709
I24386
sS'CTGCAA'
p710
I26573
sS'CGAACT'
p711
I5654
sS'CGCTGA'
p712
I14747
sS'TTGCAT'
p713
I15689
sS'GACGAG'
p714
I9492
sS'NNGAAT'
p715
I3
sS'CGTCTT'
p716
I8345
sS'TTGCAG'
p717
I26575
sS'GAGGGA'
p718
I58675
sS'TTGCAC'
p719
I12505
sS'TTGCAA'
p720
I16208
sS'AAGATC'
p721
I10543
sS'ACGTAC'
p722
I2462
sS'GAGGGC'
p723
I53003
sS'TCGCAT'
p724
I3753
sS'GAGCGG'
p725
I30010
sS'GTCGTG'
p726
I5920
sS'GTCGTA'
p727
I2070
sS'GTCGTC'
p728
I5935
sS'CCGTTT'
p729
I8689
sS'GAGCAA'
p730
I20211
sS'GCCTCG'
p731
I27428
sS'GTCGTT'
p732
I4042
sS'TCGCAG'
p733
I13582
sS'TCCATG'
p734
I16512
sS'TCGCAC'
p735
I6602
sS'CCGTTG'
p736
I6459
sS'CCGTTA'
p737
I3456
sS'CCGTTC'
p738
I8560
sS'GATCGG'
p739
I5208
sS'AATGCT'
p740
I16372
sS'GGTACG'
p741
I3494
sS'GGTACA'
p742
I7773
sS'TCCAGG'
p743
I51384
sS'GGTACC'
p744
I9128
sS'TATTTG'
p745
I13384
sS'CCAGTT'
p746
I19576
sS'TATTTC'
p747
I14203
sS'TATTTA'
p748
I14067
sS'CCCCCT'
p749
I52776
sS'GGTACT'
p750
I7687
sS'AAGGGG'
p751
I39845
sS'AATGCC'
p752
I16792
sS'AATGCA'
p753
I19889
sS'CCCCCC'
p754
I38262
sS'CCCCCA'
p755
I60055
sS'TATTTT'
p756
I22850
sS'CCCCCG'
p757
I43319
sS'GTGCGA'
p758
I6599
sS'ATGATG'
p759
I10786
sS'ATGATA'
p760
I5365
sS'GCGTTA'
p761
I3473
sS'ATGATC'
p762
I6862
sS'TGCAAC'
p763
I12682
sS'TGCAAA'
p764
I26379
sS'TGCAAG'
p765
I20057
sS'GCCGTC'
p766
I14497
sS'ATGATT'
p767
I9306
sS'CTTGAT'
p768
I10136
sS'CGAATC'
p769
I4499
sS'TTGAGG'
p770
I20614
sS'AATCTC'
p771
I14271
sS'CAATGT'
p772
I9548
sS'TTGAGC'
p773
I15506
sS'TGCAAT'
p774
I11912
sS'GAGAAT'
p775
I18077
sS'TGTCTT'
p776
I20993
sS'CGAATA'
p777
I2191
sS'AGTAGC'
p778
I11498
sS'AAGGCC'
p779
I29447
sS'ATAACC'
p780
I6484
sS'AAGGCA'
p781
I29648
sS'ATAACA'
p782
I9063
sS'AAGGCG'
p783
I17739
sS'ATAACG'
p784
I2393
sS'GAGGGT'
p785
I28786
sS'TGTCTG'
p786
I27497
sS'GAGAAG'
p787
I40976
sS'GAGAAA'
p788
I37754
sS'TGTCTC'
p789
I26211
sS'GAGAAC'
p790
I19742
sS'TGTCTA'
p791
I8562
sS'TGTGGC'
p792
I29693
sS'TGTGGA'
p793
I22832
sS'TGTGGG'
p794
I35748
sS'ATAACT'
p795
I6939
sS'ACTGAC'
p796
I13946
sS'CTGTAA'
p797
I17058
sS'AGGTAT'
p798
I7939
sS'ACCAAG'
p799
I17934
sS'GGTCAG'
p800
I26766
sS'ACCAAA'
p801
I15093
sS'AAGCAG'
p802
I34594
sS'ACCAAC'
p803
I11341
sS'GGTCAC'
p804
I19339
sS'GATCGC'
p805
I6391
sS'GGTCAT'
p806
I10454
sS'ACCAAT'
p807
I9267
sS'GCCCCT'
p808
I57250
sS'GAACTG'
p809
I20474
sS'AGGTAA'
p810
I13501
sS'GATAGG'
p811
I8401
sS'TTTTGC'
p812
I19353
sS'TCTTAC'
p813
I9536
sS'AATTGG'
p814
I10470
sS'TCTTAA'
p815
I12934
sS'AATTGA'
p816
I9234
sS'TCTTAG'
p817
I12239
sS'AATTGC'
p818
I10480
sS'TAGCCA'
p819
I12773
sS'TGGGGT'
p820
I34209
sS'TAGCCC'
p821
I13951
sS'GATAAT'
p822
I6763
sS'CGCTCA'
p823
I14314
sS'TAGCCG'
p824
I6286
sS'AATTGT'
p825
I9785
sS'CGAGAG'
p826
I15770
sS'GCCATC'
p827
I19349
sS'TCTTAT'
p828
I9001
sS'TTTTGT'
p829
I26799
sS'CGCTCT'
p830
I19407
sS'TGGGGG'
p831
I60085
sS'GATAAC'
p832
I5486
sS'TAGCCT'
p833
I12584
sS'TGGGGC'
p834
I54403
sS'TGGGGA'
p835
I53783
sS'GATCCT'
p836
I15246
sS'AAGAAT'
p837
I17691
sS'CGAAGT'
p838
I6089
sS'GTTATC'
p839
I5487
sS'AAGAAC'
p840
I16383
sS'GATCCA'
p841
I12366
sS'AAGAAA'
p842
I39964
sS'ATGCCA'
p843
I16033
sS'AAGAAG'
p844
I28750
sS'GATCCG'
p845
I8189
sS'GCCCCA'
p846
I54391
sS'ATGCCG'
p847
I6587
sS'AAGCAT'
p848
I13294
sS'CAAGGG'
p849
I27777
sS'CAAGGC'
p850
I29024
sS'GGTTCT'
p851
I18727
sS'CAAGGA'
p852
I26822
sS'GGCGCN'
p853
I1
sS'GGTTCA'
p854
I13345
sS'GGTTCC'
p855
I23171
sS'AAGGCT'
p856
I26832
sS'AACCTT'
p857
I13395
sS'TAGGCA'
p858
I12789
sS'ATTAAC'
p859
I8024
sS'ATTATC'
p860
I6756
sS'TAGAAT'
p861
I9795
sS'GATAGT'
p862
I4420
sS'ATTATG'
p863
I6590
sS'AGTCTT'
p864
I15347
sS'TAGAAA'
p865
I17314
sS'TAGAAC'
p866
I7936
sS'ATTATT'
p867
I11608
sS'TAGAAG'
p868
I13279
sS'AGTCTA'
p869
I7153
sS'CTGTGG'
p870
I41664
sS'AGTCTC'
p871
I21154
sS'TTTAAC'
p872
I11277
sS'AGTCTG'
p873
I21113
sS'TAACTC'
p874
I9449
sS'TAACTA'
p875
I5705
sS'TAACTG'
p876
I10904
sS'ATCTAT'
p877
I5681
sS'ACGCGT'
p878
I4030
sS'GCCCCG'
p879
I65589
sS'TAACTT'
p880
I10229
sS'ATCTAG'
p881
I7520
sS'ATCTAC'
p882
I6486
sS'ATCTAA'
p883
I7124
sS'CCATGT'
p884
I15249
sS'GCCCCC'
p885
I70295
sS'TGGAGG'
p886
I51372
sS'TGGAGA'
p887
I37353
sS'TGGAGC'
p888
I37016
sS'CCATGC'
p889
I17855
sS'CCATGA'
p890
I14310
sS'CCATGG'
p891
I23999
sS'TGGAGT'
p892
I24026
sS'ATTACG'
p893
I2138
sS'TCAGTA'
p894
I9808
sS'TCAGTC'
p895
I17369
sS'CTCTCT'
p896
I50614
sS'GGGGAT'
p897
I23687
sS'TCAGTG'
p898
I22020
sS'CGATAT'
p899
I1330
sS'GGGGAA'
p900
I46231
sS'GGGGAC'
p901
I39084
sS'CTCTCC'
p902
I61782
sS'TCAGTT'
p903
I16994
sS'GGGGAG'
p904
I84961
sS'ATGCAG'
p905
I22920
sS'CGATAG'
p906
I2193
sS'CGATAA'
p907
I1978
sS'ATGCTG'
p908
I22133
sS'CGATAC'
p909
I1698
sS'CTAAGG'
p910
I14693
sS'GTGTTT'
p911
I19882
sS'GCTACT'
p912
I11493
sS'GTGGTT'
p913
I16200
sS'TGGNAG'
p914
I1
sS'GNAGAA'
p915
I1
sS'GTGTTC'
p916
I13554
sS'GTGTTA'
p917
I8193
sS'GTGTTG'
p918
I14384
sS'CGTGCC'
p919
I13593
sS'GTGGTA'
p920
I8840
sS'GCTACA'
p921
I10447
sS'GTGGTC'
p922
I16419
sS'GCTACC'
p923
I11565
sS'GTGGTG'
p924
I28412
sS'GCTACG'
p925
I5232
sS'GAGAGC'
p926
I34979
sS'AGGTAG'
p927
I15132
sS'TTTCGT'
p928
I4782
sS'TGCCCT'
p929
I40292
sS'AGCGTT'
p930
I6919
sS'CGTGCG'
p931
I11845
sS'TGCCCC'
p932
I45504
sS'TGCCCA'
p933
I34810
sS'TGCCCG'
p934
I22471
sS'TTTCGG'
p935
I7868
sS'AGCGTA'
p936
I2994
sS'AGCGTC'
p937
I10923
sS'AGCGTG'
p938
I11680
sS'GGCCCC'
p939
I67441
sS'GGCCCA'
p940
I40906
sS'CACGTG'
p941
I16245
sS'GGCCCG'
p942
I41740
sS'CACGTA'
p943
I4187
sS'CACGTC'
p944
I9437
sS'CTACGC'
p945
I5289
sS'ACGTGA'
p946
I8121
sS'CTACGG'
p947
I5602
sS'ACAGTC'
p948
I13783
sS'CACGTT'
p949
I7447
sS'CTAAGT'
p950
I9294
sS'GNCCCA'
p951
I1
sS'GGCCCT'
p952
I44493
sS'GGGACA'
p953
I30837
sS'TTTTGG'
p954
I19897
sS'GGGACC'
p955
I35980
sS'AGGGAC'
p956
I31163
sS'TGACGA'
p957
I4261
sS'CTACGT'
p958
I3880
sS'AGAGAG'
p959
I50622
sS'AGAGAA'
p960
I38484
sS'AGAGAC'
p961
I27025
sS'TCTATA'
p962
I5124
sS'GTCTTT'
p963
I18926
sS'TCTATC'
p964
I6981
sS'TCTATG'
p965
I7551
sS'AGAGAT'
p966
I18708
sS'ATGTGC'
p967
I13179
sS'GTCTTG'
p968
I15833
sS'TCTATT'
p969
I10277
sS'GTCTTC'
p970
I18783
sS'GTCTTA'
p971
I7856
sS'GCAGAG'
p972
I56086
sS'GCTCAA'
p973
I15510
sS'GCTCAC'
p974
I26345
sS'GCAGAC'
p975
I23065
sS'GCAGAA'
p976
I30139
sS'GCTCAG'
p977
I42949
sS'AGACGT'
p978
I6331
sS'ATGCGT'
p979
I4232
sS'TTGCTG'
p980
I27538
sS'CTTGAC'
p981
I12174
sS'TTGCTA'
p982
I10895
sS'TTGCTC'
p983
I20197
sS'GCAGAT'
p984
I19287
sS'GCTCAT'
p985
I14669
sS'GTACGG'
p986
I3360
sS'TTGCTT'
p987
I21431
sS'ATGCGG'
p988
I7991
sS'CGCTCC'
p989
I34046
sS'ATGCGC'
p990
I8482
sS'ATGCGA'
p991
I3754
sS'TGTAAG'
p992
I10558
sS'GGCTAG'
p993
I14423
sS'TGTAAC'
p994
I8635
sS'GGCTAC'
p995
I11913
sS'GACTGT'
p996
I13787
sS'CTGAAA'
p997
I27210
sS'TTCGAG'
p998
I6784
sS'TTGGTA'
p999
I7783
sS'ACTGTC'
p1000
I13947
sS'TTGGTC'
p1001
I12634
sS'TTCGAC'
p1002
I3162
sS'ACTGTG'
p1003
I20918
sS'GTACGC'
p1004
I3007
sS'GACTGC'
p1005
I21030
sS'GGCTAT'
p1006
I7688
sS'TGTAAT'
p1007
I11962
sS'GACTGG'
p1008
I25297
sS'TTCGAT'
p1009
I2771
sS'TTGGTT'
p1010
I15308
sS'ACTGTT'
p1011
I12588
sS'AACTTG'
p1012
I14376
sS'GTTTCT'
p1013
I25417
sS'ATAATT'
p1014
I9154
sS'CCTTTT'
p1015
I30441
sS'GTTTCG'
p1016
I5491
sS'GTTTCC'
p1017
I28064
sS'GATAAA'
p1018
I10643
sS'ATAATG'
p1019
I8037
sS'CCTTTA'
p1020
I15905
sS'CCTTTC'
p1021
I38794
sS'ATAATC'
p1022
I5837
sS'NNNNGA'
p1023
I4
sS'ATAATA'
p1024
I7891
sS'CCTTTG'
p1025
I30378
sS'ACAGAA'
p1026
I24676
sS'CTCTCG'
p1027
I15762
sS'ACAGAC'
p1028
I19191
sS'ACAGAG'
p1029
I33903
sS'TTATCT'
p1030
I11831
sS'CTGGAC'
p1031
I25299
sS'CTGGAA'
p1032
I39596
sS'CTGGAG'
p1033
I61906
sS'ACAGAT'
p1034
I14836
sS'TTATCG'
p1035
I1976
sS'TTATCA'
p1036
I8275
sS'CTGGAT'
p1037
I19634
sS'TTATCC'
p1038
I8672
sS'CCAATG'
p1039
I13235
sS'AAACCG'
p1040
I7813
sS'AAACCA'
p1041
I21108
sS'CCAATC'
p1042
I14941
sS'AAACCC'
p1043
I23009
sS'CCAATA'
p1044
I7494
sS'TGTCGG'
p1045
I8060
sS'GAGATC'
p1046
I14014
sS'CCCTAT'
p1047
I9359
sS'GAGATA'
p1048
I9464
sS'TGTCGC'
p1049
I8662
sS'GAGATG'
p1050
I23671
sS'AACGAC'
p1051
I4043
sS'AAACCT'
p1052
I18707
sS'CCAATT'
p1053
I10474
sS'CTAGTT'
p1054
I8168
sS'GGGTAT'
p1055
I7264
sS'ATTTGG'
p1056
I16578
sS'CCCTAG'
p1057
I20553
sS'TGTCGT'
p1058
I4211
sS'CCCTAC'
p1059
I16941
sS'GAGATT'
p1060
I14265
sS'CCCTAA'
p1061
I15102
sS'CATTAT'
p1062
I8051
sS'TGTTTG'
p1063
I22478
sS'TGGATT'
p1064
I14672
sS'ATCACA'
p1065
I14323
sS'ATCACC'
p1066
I13692
sS'CATGCT'
p1067
I16697
sS'TGACAC'
p1068
I14155
sS'TGACAA'
p1069
I14270
sS'TGGATA'
p1070
I7797
sS'CATTAG'
p1071
I9290
sS'CATTAA'
p1072
I10135
sS'TGGATG'
p1073
I18224
sS'CATGCA'
p1074
I16896
sS'TGACAT'
p1075
I12303
sS'CATGCC'
p1076
I18156
sS'ATCACT'
p1077
I12411
sS'AATTAG'
p1078
I11071
sS'GTAGAA'
p1079
I10270
sS'GTAGAC'
p1080
I6128
sS'GTAGAG'
p1081
I13730
sS'ACAACA'
p1082
I14401
sS'ACAACC'
p1083
I11880
sS'GCATGA'
p1084
I12701
sS'GATTGC'
p1085
I9028
sS'GATTGA'
p1086
I7957
sS'TAAATT'
p1087
I12457
sS'ACTAAG'
p1088
I8674
sS'GTAGAT'
p1089
I6496
sS'TGCTAC'
p1090
I9448
sS'GGGTAC'
p1091
I8525
sS'ATGAGT'
p1092
I11471
sS'GATCAA'
p1093
I7458
sS'TTCAGT'
p1094
I17558
sS'ACAACT'
p1095
I11292
sS'GCGCGT'
p1096
I13032
sS'TAATAG'
p1097
I6115
sS'AGTCCG'
p1098
I9461
sS'TAATAC'
p1099
I4746
sS'GTCCGA'
p1100
I6347
sS'TAATAA'
p1101
I10299
sS'GTCCGC'
p1102
I14961
sS'TGCCAT'
p1103
I17213
sS'GATCCC'
p1104
I18259
sS'CACATC'
p1105
I15641
sS'GTCCGT'
p1106
I6191
sS'TAATAT'
p1107
I5797
sS'GGGNCC'
p1108
I1
sS'ATTCGC'
p1109
I4208
sS'TTCTCC'
p1110
I41017
sS'ATTCGA'
p1111
I3400
sS'TTCTCA'
p1112
I26993
sS'ATCCAT'
p1113
I9572
sS'TTCTCG'
p1114
I9924
sS'TCGTAC'
p1115
I1863
sS'TACCTT'
p1116
I10647
sS'TCGTAA'
p1117
I2204
sS'CCTGGG'
p1118
I85789
sS'TCGTCA'
p1119
I4261
sS'GAACCT'
p1120
I15727
sS'ATCCAA'
p1121
I10899
sS'ATCCAC'
p1122
I12941
sS'CTCTCA'
p1123
I28086
sS'TTCTCT'
p1124
I38458
sS'TGAACA'
p1125
I13559
sS'GAACCC'
p1126
I20802
sS'TACCTG'
p1127
I16527
sS'TACCTA'
p1128
I6288
sS'TACCTC'
p1129
I12248
sS'TCGTAT'
p1130
I1667
sS'ACCATC'
p1131
I11859
sS'ACCATA'
p1132
I5390
sS'ACCATG'
p1133
I13439
sS'ATGTTG'
p1134
I11344
sS'AGCTCT'
p1135
I31960
sS'GAGCTG'
p1136
I50961
sS'AGTGGT'
p1137
I15476
sS'CGTGGT'
p1138
I10301
sS'AGATGT'
p1139
I13584
sS'ATGAGC'
p1140
I14674
sS'ATGTTT'
p1141
I14974
sS'ACCATT'
p1142
I10292
sS'AGTGGA'
p1143
I21045
sS'AGTGGC'
p1144
I26535
sS'AGCTCC'
p1145
I44587
sS'AGCTCA'
p1146
I27256
sS'CAGTAA'
p1147
I12309
sS'CAGTAC'
p1148
I8467
sS'CAGTAG'
p1149
I13625
sS'AACGTT'
p1150
I4475
sS'TTTCAC'
p1151
I18969
sS'GACGCA'
p1152
I9606
sS'CAGTAT'
p1153
I7518
sS'ATGGNA'
p1154
I1
sS'GTTCCT'
p1155
I23127
sS'GATGGN'
p1156
I1
sS'TTAATC'
p1157
I8014
sS'CCGGCT'
p1158
I30727
sS'GATCTA'
p1159
I5360
sS'GATCTC'
p1160
I14001
sS'ATTGAC'
p1161
I6500
sS'GATCTG'
p1162
I16408
sS'TCCCTT'
p1163
I36125
sS'CCGGCC'
p1164
I52308
sS'ATTAGG'
p1165
I9110
sS'CCGGCG'
p1166
I34296
sS'CACATT'
p1167
I17183
sS'GTTCCC'
p1168
I26728
sS'TCCCTC'
p1169
I58666
sS'TGTCCG'
p1170
I9294
sS'TCCCTA'
p1171
I17164
sS'TGCCAC'
p1172
I24812
sS'TCCCTG'
p1173
I55432
sS'GATCTT'
p1174
I10533
sS'CACAAT'
p1175
I11560
sS'AAGTGC'
p1176
I19007
sS'TGTTCT'
p1177
I20846
sS'AAGTGG'
p1178
I22499
sS'TGATTG'
p1179
I12749
sS'TCTGAT'
p1180
I14854
sS'TGATTA'
p1181
I8205
sS'TGTTCA'
p1182
I13565
sS'CACAAG'
p1183
I19001
sS'TGTTCC'
p1184
I20702
sS'CACAAA'
p1185
I22202
sS'CACAAC'
p1186
I13085
sS'TGTTCG'
p1187
I4613
sS'TCTGAA'
p1188
I23044
sS'TGATTT'
p1189
I17240
sS'TCTGAG'
p1190
I32586
sS'CGCGCC'
p1191
I44032
sS'CGCGCA'
p1192
I18641
sS'GGTAAA'
p1193
I11574
sS'CGCGCG'
p1194
I37265
sS'CTCCCT'
p1195
I70788
sS'AGCGGG'
p1196
I29275
sS'AGCGGA'
p1197
I15443
sS'ACCTCT'
p1198
I23964
sS'AGATGA'
p1199
I18229
sS'GAAATA'
p1200
I14195
sS'GACGTG'
p1201
I9432
sS'CGCGCT'
p1202
I22557
sS'ACCTCC'
p1203
I35762
sS'ACCTCA'
p1204
I21763
sS'CTCCCA'
p1205
I56961
sS'CTCCCC'
p1206
I84957
sS'GCCTCT'
p1207
I45538
sS'TAAGCC'
p1208
I11471
sS'TAGCTC'
p1209
I12532
sS'CCCATG'
p1210
I20008
sS'CGGGAA'
p1211
I21966
sS'CCCATA'
p1212
I8774
sS'TAGCTG'
p1213
I15821
sS'CCCATC'
p1214
I27951
sS'CCGAGA'
p1215
I16185
sS'CCTGCT'
p1216
I53159
sS'CCGAAT'
p1217
I4913
sS'CCCATT'
p1218
I21140
sS'CGGGAT'
p1219
I11151
sS'ATTTCG'
p1220
I4050
sS'GCCTCA'
p1221
I35127
sS'TAAGCT'
p1222
I9414
sS'GCCTCC'
p1223
I71829
sS'CCGAAC'
p1224
I6996
sS'CCTGCG'
p1225
I32420
sS'CCGAAA'
p1226
I7872
sS'CCGAAG'
p1227
I13115
sS'CCTGCC'
p1228
I72961
sS'CCTGCA'
p1229
I47654
sS'GTACTG'
p1230
I8462
sS'CAAGGT'
p1231
I18150
sS'CCATTC'
p1232
I20304
sS'CCATTA'
p1233
I8947
sS'TATAAA'
p1234
I10171
sS'TATAAC'
p1235
I4026
sS'GCNNNN'
p1236
I1
sS'TAACGA'
p1237
I2538
sS'CATTTC'
p1238
I25323
sS'GGTTCG'
p1239
I6762
sS'GTACTC'
p1240
I6264
sS'GTTCTA'
p1241
I7938
sS'CCATTT'
p1242
I22058
sS'TCTACA'
p1243
I10480
sS'TCTACC'
p1244
I11724
sS'CTNCCA'
p1245
I1
sS'TCTACG'
p1246
I3704
sS'ACTTTC'
p1247
I18141
sS'CGCAAC'
p1248
I6177
sS'CGCAAA'
p1249
I7177
sS'ATACCG'
p1250
I2289
sS'CGCAAG'
p1251
I9314
sS'ATACCA'
p1252
I7259
sS'ATACCC'
p1253
I7262
sS'TCTACT'
p1254
I10647
sS'ATACCT'
p1255
I7930
sS'CGCAAT'
p1256
I3596
sS'TAGTAA'
p1257
I6379
sS'TGGGTG'
p1258
I34786
sS'TAGTAC'
p1259
I3322
sS'CTCAAG'
p1260
I21336
sS'CTCAAA'
p1261
I21359
sS'TAGTAG'
p1262
I5970
sS'CTCAAC'
p1263
I13673
sS'GTGTGC'
p1264
I21717
sS'GTGTGA'
p1265
I19017
sS'GTGTGG'
p1266
I28804
sS'TAACGG'
p1267
I3458
sS'CTCAAT'
p1268
I10421
sS'TAGTAT'
p1269
I3788
sS'GTTCTC'
p1270
I19729
sS'CTCCCG'
p1271
I42649
sS'GTGTGT'
p1272
I40313
sS'ATCTTT'
p1273
I14795
sS'GTTGGG'
p1274
I24319
sS'GTTGGA'
p1275
I14364
sS'GTTGGC'
p1276
I15354
sS'CCTTGG'
p1277
I35150
sS'CCTTGA'
p1278
I19210
sS'GCGTAT'
p1279
I2159
sS'AGGATT'
p1280
I16659
sS'GGACGT'
p1281
I8436
sS'CTAAGC'
p1282
I12295
sS'GTTGGT'
p1283
I11352
sS'ATCTTG'
p1284
I12821
sS'ATCTTA'
p1285
I7576
sS'ATCTTC'
p1286
I13810
sS'CCTTGT'
p1287
I19931
sS'AGGATA'
p1288
I9241
sS'AAACTA'
p1289
I10511
sS'AGGATG'
p1290
I25089
sS'GACATG'
p1291
I11399
sS'ATCAGG'
p1292
I15879
sS'GACATC'
p1293
I11004
sS'GACATA'
p1294
I5612
sS'GATTTC'
p1295
I15578
sS'GAATAT'
p1296
I7272
sS'GGTGCA'
p1297
I21500
sS'TCGGCC'
p1298
I20586
sS'ATCAGA'
p1299
I14850
sS'TTGCGA'
p1300
I4083
sS'GACATT'
p1301
I12091
sS'TTGCGG'
p1302
I9259
sS'GAATAG'
p1303
I8707
sS'TCGGCT'
p1304
I13897
sS'CATAGA'
p1305
I7554
sS'AGGAAG'
p1306
I57236
sS'GAATAA'
p1307
I11588
sS'CGTCGT'
p1308
I3819
sS'TGCAGA'
p1309
I34650
sS'GTACAT'
p1310
I5035
sS'ATACAA'
p1311
I8574
sS'GGACGA'
p1312
I9049
sS'TACAAG'
p1313
I9105
sS'TGCCTC'
p1314
I39162
sS'TTATAA'
p1315
I8507
sS'GAAATG'
p1316
I25333
sS'AATGAT'
p1317
I9716
sS'TGCCTA'
p1318
I12789
sS'GAAATC'
p1319
I15577
sS'ACCGGT'
p1320
I4795
sS'GAAATT'
p1321
I15621
sS'AATGAA'
p1322
I20750
sS'ATGTCC'
p1323
I11744
sS'AATGAC'
p1324
I13008
sS'AATGAG'
p1325
I20670
sS'AGGAAA'
p1326
I45656
sS'CTTGGA'
p1327
I23882
sS'CTTGGC'
p1328
I30477
sS'GTTTTC'
p1329
I22542
sS'CTTGGG'
p1330
I34733
sS'TACTAA'
p1331
I6156
sS'GGGAAT'
p1332
I21149
sS'TTGAAT'
p1333
I13002
sS'GTCCTA'
p1334
I9054
sS'GTCCTC'
p1335
I27636
sS'TGCACG'
p1336
I10016
sS'TACTAC'
p1337
I4385
sS'GTCCTG'
p1338
I32609
sS'TGCACC'
p1339
I21503
sS'TTGAAA'
p1340
I19913
sS'TTGAAC'
p1341
I10301
sS'AGCCCA'
p1342
I40501
sS'AGCCCC'
p1343
I59630
sS'TTAACT'
p1344
I10970
sS'ATAAAT'
p1345
I13724
sS'TGGTCG'
p1346
I6804
sS'TGGTCA'
p1347
I15665
sS'TGGTCC'
p1348
I19590
sS'ACGATT'
p1349
I2858
sS'GAGACT'
p1350
I21159
sS'GATTCA'
p1351
I11928
sS'TGGTCT'
p1352
I20076
sS'ATAAAG'
p1353
I12852
sS'ATAAAA'
p1354
I18398
sS'TCAGCC'
p1355
I38192
sS'ATAAAC'
p1356
I9957
sS'GAGACG'
p1357
I14687
sS'ACGATG'
p1358
I4409
sS'CTACAG'
p1359
I15850
sS'GAGACC'
p1360
I26662
sS'ACGATC'
p1361
I2802
sS'GAGACA'
p1362
I26187
sS'ACGATA'
p1363
I1417
sS'GGTTAC'
p1364
I7777
sS'ATGTGT'
p1365
I13730
sS'GGTTAA'
p1366
I9688
sS'ACCACT'
p1367
I15485
sS'GGTTAG'
p1368
I9960
sS'CTTCCT'
p1369
I57212
sS'GAATGT'
p1370
I16034
sS'TCCATT'
p1371
I18537
sS'CGTGAA'
p1372
I6585
sS'CTCAGT'
p1373
I24951
sS'TCCGCT'
p1374
I15438
sS'CTTCCA'
p1375
I33225
sS'CTTCCC'
p1376
I63340
sS'ACCACC'
p1377
I24224
sS'CGTATG'
p1378
I2017
sS'ACCACA'
p1379
I19877
sS'GGTTAT'
p1380
I6489
sS'TCCGCC'
p1381
I31460
sS'TCCGCA'
p1382
I13577
sS'TCCGCG'
p1383
I18893
sS'AACGTC'
p1384
I4918
sS'TAAGTT'
p1385
I7596
sS'AACGTG'
p1386
I7454
sS'CGTGAC'
p1387
I8582
sS'GGTAGC'
p1388
I11572
sS'AGTGTG'
p1389
I20814
sS'TCTTCG'
p1390
I8010
sS'AGTGTA'
p1391
I7562
sS'TCTTCA'
p1392
I21444
sS'AGTGTC'
p1393
I14802
sS'TCTTCC'
p1394
I40258
sS'TAAGTG'
p1395
I11154
sS'GGCAGT'
p1396
I26367
sS'ACTCAA'
p1397
I12484
sS'TAAGTC'
p1398
I7799
sS'TAAGTA'
p1399
I6872
sS'GGCGAT'
p1400
I7426
sS'TCTTCT'
p1401
I28863
sS'AGTGTT'
p1402
I13920
sS'GTGCGC'
p1403
I18728
sS'TTGGCA'
p1404
I17748
sS'AAAGGT'
p1405
I16821
sS'TTGGCC'
p1406
I25261
sS'AGTAAC'
p1407
I8852
sS'TTAACG'
p1408
I3092
sS'TTGGCG'
p1409
I10359
sS'GACTTC'
p1410
I17686
sS'TCGAGT'
p1411
I4626
sS'GACTTA'
p1412
I7780
sS'GACTTG'
p1413
I16590
sS'AAAGGG'
p1414
I34787
sS'AAAGGA'
p1415
I34807
sS'TTGGCT'
p1416
I25093
sS'AAAGGC'
p1417
I29173
sS'GAGTAC'
p1418
I6262
sS'GTATGG'
p1419
I6196
sS'GTCGAT'
p1420
I2181
sS'GACTTT'
p1421
I15610
sS'TTCTTT'
p1422
I37478
sS'CAAGAA'
p1423
I21299
sS'AGCGAG'
p1424
I18913
sS'CAAGAC'
p1425
I15856
sS'GATTCG'
p1426
I4498
sS'CAAGAG'
p1427
I24418
sS'TTCTTG'
p1428
I21281
sS'TTCTTC'
p1429
I28997
sS'TTCTTA'
p1430
I14831
sS'TAAACG'
p1431
I4076
sS'CAAGAT'
p1432
I12829
sS'CCCGAT'
p1433
I6021
sS'TACGGG'
p1434
I4555
sS'TACGGA'
p1435
I3572
sS'TACGGC'
p1436
I4166
sS'CCAACT'
p1437
I16563
sS'TAGAGT'
p1438
I8351
sS'TACGGT'
p1439
I2554
sS'GAGTAT'
p1440
I5736
sS'AGGGCG'
p1441
I34179
sS'AGGGCA'
p1442
I40299
sS'CCCGAC'
p1443
I16585
sS'TAGAGC'
p1444
I12447
sS'TAGAGA'
p1445
I16322
sS'TAGAGG'
p1446
I17547
sS'GTGTAA'
p1447
I8256
sS'GTGCTG'
p1448
I36031
sS'GTGCTA'
p1449
I9045
sS'ATCTGT'
p1450
I14836
sS'GTGCTC'
p1451
I21493
sS'GGCGAC'
p1452
I15402
sS'ATCTGA'
p1453
I14522
sS'GTGCTT'
p1454
I18220
sS'ATCTGC'
p1455
I19285
sS'CGCCGT'
p1456
I11345
sS'CGAATG'
p1457
I4994
sS'ATCTGG'
p1458
I19563
sS'ATCATA'
p1459
I4782
sS'GATAGC'
p1460
I5733
sS'ATCATC'
p1461
I9213
sS'GATAGA'
p1462
I6983
sS'AAGCAA'
p1463
I21438
sS'CAAACT'
p1464
I17212
sS'AAGCAC'
p1465
I18215
sS'TTTACC'
p1466
I11558
sS'GTTATG'
p1467
I6145
sS'CTAGGT'
p1468
I11091
sS'CATTTA'
p1469
I14925
sS'ACGCAT'
p1470
I4232
sS'CATTTG'
p1471
I19419
sS'GTTATA'
p1472
I4029
sS'CAAACA'
p1473
I22456
sS'TTTCAG'
p1474
I27189
sS'CAAACC'
p1475
I18750
sS'GTGGCC'
p1476
I37319
sS'ATCATT'
p1477
I9725
sS'CAAACG'
p1478
I7337
sS'ACGCAG'
p1479
I13993
sS'CTAGGG'
p1480
I20555
sS'GTTATT'
p1481
I9240
sS'CTAGGC'
p1482
I16908
sS'CATTTT'
p1483
I25557
sS'CTAGGA'
p1484
I17172
sS'AAGTTT'
p1485
I16174
sS'AAGGTC'
p1486
I15692
sS'CTCGAA'
p1487
I6794
sS'CTCGGC'
p1488
I30078
sS'CTAAGA'
p1489
I12239
sS'GGGGCT'
p1490
I59636
sS'TACAGG'
p1491
I16087
sS'AAGTTG'
p1492
I13376
sS'GGATGC'
p1493
I19762
sS'AAGTTA'
p1494
I10230
sS'TACAGC'
p1495
I12930
sS'AAGTTC'
p1496
I14150
sS'TACAGA'
p1497
I13578
sS'GGGGCC'
p1498
I67435
sS'GTATGA'
p1499
I5232
sS'GGGGCA'
p1500
I45494
sS'GGGGCG'
p1501
I74936
sS'TATATC'
p1502
I3489
sS'TATATA'
p1503
I6664
sS'TGTATA'
p1504
I5552
sS'TATATG'
p1505
I4999
sS'ACATCG'
p1506
I3902
sS'TCCGGT'
p1507
I8639
sS'TATATT'
p1508
I7061
sS'TGATGG'
p1509
I16471
sS'CATATG'
p1510
I6993
sS'TGATGC'
p1511
I12803
sS'GCCCAC'
p1512
I35185
sS'TGATGA'
p1513
I13716
sS'AGCATG'
p1514
I16698
sS'TGTTTA'
p1515
I15097
sS'ACTCTT'
p1516
I15134
sS'TGTTTC'
p1517
I22859
sS'CACATA'
p1518
I9535
sS'TTAATT'
p1519
I13471
sS'CACATG'
p1520
I17176
sS'TTTCAT'
p1521
I18112
sS'ATGAGA'
p1522
I16098
sS'TGATGT'
p1523
I12014
sS'ATGAGG'
p1524
I20215
sS'TTAATA'
p1525
I8494
sS'ACTCTG'
p1526
I24365
sS'TGCCAG'
p1527
I35610
sS'ACTCTA'
p1528
I8348
sS'TGTTTT'
p1529
I30787
sS'CTAACG'
p1530
I3698
sS'AGCATC'
p1531
I16901
sS'AAATTC'
p1532
I17748
sS'GACTGA'
p1533
I17368
sS'AAATTA'
p1534
I14428
sS'AAATTG'
p1535
I12213
sS'CCAGTA'
p1536
I11560
sS'TTCAAT'
p1537
I9879
sS'CTTCGA'
p1538
I5835
sS'GCTTGT'
p1539
I15145
sS'AAATTT'
p1540
I15716
sS'TTCGAA'
p1541
I4356
sS'CTTAGT'
p1542
I8670
sS'GTCTAT'
p1543
I5201
sS'GGGAAC'
p1544
I26740
sS'GGTGCG'
p1545
I17857
sS'GGGAAA'
p1546
I42236
sS'GGGAAG'
p1547
I63338
sS'GGTGCC'
p1548
I29359
sS'TCGTCC'
p1549
I9049
sS'TCCGGG'
p1550
I28245
sS'AGAGCG'
p1551
I19399
sS'GCGACT'
p1552
I8862
sS'AGAGCC'
p1553
I39264
sS'AGAGCA'
p1554
I31417
sS'GCGTAG'
p1555
I5283
sS'GGTGCT'
p1556
I27105
sS'GCGTAC'
p1557
I3010
sS'TAATTT'
p1558
I14448
sS'GCGTAA'
p1559
I2858
sS'GCGACG'
p1560
I9735
sS'AGAGCT'
p1561
I31964
sS'GCGACA'
p1562
I8659
sS'GTTACA'
p1563
I8631
sS'GCGACC'
p1564
I13305
sS'AGGTCG'
p1565
I9372
sS'GCAGGA'
p1566
I50197
sS'GCAGGC'
p1567
I52983
sS'GCAGGG'
p1568
I70309
sS'CAATTT'
p1569
I12217
sS'GCACTA'
p1570
I7728
sS'CCGTGC'
p1571
I14930
sS'GCTCGG'
p1572
I25605
sS'TATTCT'
p1573
I11039
sS'CCGTGG'
p1574
I18074
sS'CTTTAG'
p1575
I12806
sS'GCAGGT'
p1576
I32752
sS'ACCCTA'
p1577
I10455
sS'ACGTCT'
p1578
I6327
sS'TATTCC'
p1579
I10092
sS'CAATTG'
p1580
I7639
sS'TATTCA'
p1581
I10738
sS'CAATTA'
p1582
I8718
sS'TATTCG'
p1583
I2184
sS'CAATTC'
p1584
I11437
sS'TGTAGA'
p1585
I10496
sS'GGCTCA'
p1586
I33477
sS'TGTAGC'
p1587
I10459
sS'GGCTCC'
p1588
I60850
sS'TTTACG'
p1589
I3539
sS'TGTAGG'
p1590
I12804
sS'GGCTCG'
p1591
I20852
sS'TTCGGA'
p1592
I6785
sS'TTCGGC'
p1593
I8982
sS'CTTTAC'
p1594
I11523
sS'TTCAAG'
p1595
I17648
sS'TTCGGG'
p1596
I11697
sS'TGAAGG'
p1597
I25589
sS'CACGAG'
p1598
I9193
sS'GGCTCT'
p1599
I39250
sS'TGTAGT'
p1600
I9650
sS'TTTACT'
p1601
I13618
sS'AGCATA'
p1602
I7364
sS'ATTGTA'
p1603
I6740
sS'TTCGGT'
p1604
I5397
sS'GAGCAT'
p1605
I13699
sS'GTTTAT'
p1606
I9957
sS'GTCTAG'
p1607
I8484
sS'GCACTC'
p1608
I20024
sS'CGCTAC'
p1609
I5618
sS'TTAATG'
p1610
I10124
sS'TGCTTG'
p1611
I20314
sS'GTTTAA'
p1612
I11031
sS'GAGGTG'
p1613
I39307
sS'CACGAA'
p1614
I5839
sS'CGAATT'
p1615
I3928
sS'GTTTAG'
p1616
I9402
sS'CAGGTG'
p1617
I43666
sS'TCCAGA'
p1618
I29569
sS'CTGGCT'
p1619
I50354
sS'AGGCGG'
p1620
I42733
sS'AGGCGA'
p1621
I14373
sS'AGGCGC'
p1622
I29962
sS'AGGAGT'
p1623
I24758
sS'ACAGCC'
p1624
I33619
sS'ACAGCA'
p1625
I28729
sS'TCCAGC'
p1626
I45129
sS'ACAGCG'
p1627
I15078
sS'AGGAGC'
p1628
I46265
sS'AGGCGT'
p1629
I12461
sS'AGGAGA'
p1630
I45055
sS'CTGGCG'
p1631
I27695
sS'AGGAGG'
p1632
I78235
sS'CTGGCA'
p1633
I35580
sS'GTCGGG'
p1634
I16587
sS'GCGCCC'
p1635
I52828
sS'GCATCG'
p1636
I5986
sS'ACAGCT'
p1637
I26989
sS'GCTCTC'
p1638
I34965
sS'ATTGGT'
p1639
I9262
sS'AATTTT'
p1640
I17476
sS'AAACAG'
p1641
I27011
sS'TGTCAC'
p1642
I16976
sS'CCCTCT'
p1643
I54612
sS'GCTCTA'
p1644
I12444
sS'AAACAA'
p1645
I29299
sS'ATTGGG'
p1646
I12183
sS'AATTTA'
p1647
I12439
sS'AATTTC'
p1648
I15606
sS'AACGCC'
p1649
I9505
sS'ATTGGA'
p1650
I10515
sS'TAATGT'
p1651
I7706
sS'ATTTAC'
p1652
I11203
sS'CCCTCC'
p1653
I99398
sS'TGTCAT'
p1654
I13360
sS'CCCTCG'
p1655
I26115
sS'TAAATA'
p1656
I14074
sS'CACGAT'
p1657
I4131
sS'CAATAT'
p1658
I5854
sS'TGACCA'
p1659
I15675
sS'CATTCT'
p1660
I21304
sS'GCCTTG'
p1661
I29004
sS'TGACCG'
p1662
I7526
sS'ACCACG'
p1663
I10301
sS'CATTCG'
p1664
I4992
sS'CATTCC'
p1665
I27130
sS'CATTCA'
p1666
I18832
sS'TCCATA'
p1667
I7654
sS'GCCTTC'
p1668
I33702
sS'ACAAAT'
p1669
I14665
sS'GATTAA'
p1670
I8020
sS'GTAGGC'
p1671
I10730
sS'GATTAC'
p1672
I7776
sS'GTAGGA'
p1673
I12860
sS'GTAGGG'
p1674
I16932
sS'GATTAG'
p1675
I7538
sS'GAATGA'
p1676
I18733
sS'ACAAAC'
p1677
I16524
sS'TTTCAA'
p1678
I19906
sS'ACAAAA'
p1679
I26811
sS'ACAAAG'
p1680
I26232
sS'GCGGGC'
p1681
I49755
sS'GTCGGT'
p1682
I6009
sS'GCGGGA'
p1683
I36387
sS'GCGGGG'
p1684
I80242
sS'GATTAT'
p1685
I5831
sS'GTAGGT'
p1686
I9616
sS'CAATAC'
p1687
I5646
sS'TAATGA'
p1688
I10375
sS'GATGTT'
p1689
I10977
sS'TAATGC'
p1690
I7926
sS'GGAGAT'
p1691
I20689
sS'GCCCTT'
p1692
I30220
sS'CAATAA'
p1693
I9477
sS'GCCCTC'
p1694
I53002
sS'GATGTG'
p1695
I15640
sS'GCCCTA'
p1696
I14831
sS'GATGTA'
p1697
I6546
sS'GCCCTG'
p1698
I62986
sS'GATGTC'
p1699
I10996
sS'AACCTC'
p1700
I18931
sS'TGAAAT'
p1701
I19275
sS'TTCTAG'
p1702
I13839
sS'TTCTAA'
p1703
I14420
sS'ATCCGT'
p1704
I4020
sS'TTCTAC'
p1705
I10266
sS'TGAAAA'
p1706
I24917
sS'TGAAAC'
p1707
I16297
sS'TGAAAG'
p1708
I23832
sS'TTCTAT'
p1709
I9743
sS'ATCCGC'
p1710
I8530
sS'ATCCGA'
p1711
I4546
sS'ATCCGG'
p1712
I8343
sS'TGGCTC'
p1713
I37053
sS'TGGCTA'
p1714
I12768
sS'TGGCTG'
p1715
I48738
sS'GACCGG'
p1716
I12947
sS'CTTTCA'
p1717
I23820
sS'GTCGGA'
p1718
I7183
sS'AGCTAT'
p1719
I8401
sS'CTTACG'
p1720
I3319
sS'ATTAGT'
p1721
I6116
sS'AAGACA'
p1722
I20982
sS'GTCGGC'
p1723
I11864
sS'CGTCGA'
p1724
I2788
sS'TGGCTT'
p1725
I28656
sS'AGTTGG'
p1726
I16574
sS'AGCTAA'
p1727
I11710
sS'AGCTAC'
p1728
I11778
sS'AGTTGC'
p1729
I13265
sS'AGTTGA'
p1730
I10820
sS'AGCTAG'
p1731
I12744
sS'CGTTGA'
p1732
I3954
sS'TCCAGT'
p1733
I20384
sS'GCACCT'
p1734
I26074
sS'CAGTGT'
p1735
I20611
sS'TAACAA'
p1736
I11703
sS'TCAGGT'
p1737
I19837
sS'TCAAGG'
p1738
I19217
sS'CTGGCC'
p1739
I57604
sS'TCAAGC'
p1740
I14542
sS'TCAAGA'
p1741
I14558
sS'CTAATA'
p1742
I5611
sS'CAGTGC'
p1743
I27253
sS'CTAATC'
p1744
I7539
sS'CAGTGA'
p1745
I26482
sS'CAGTGG'
p1746
I33643
sS'GCACCG'
p1747
I17681
sS'TCAAGT'
p1748
I12976
sS'TCAGGG'
p1749
I35849
sS'GAGCCC'
p1750
I49679
sS'TCAGGC'
p1751
I31283
sS'CGAGCT'
p1752
I13271
sS'ACGGTA'
p1753
I2743
sS'CGTTGG'
p1754
I7644
sS'CGTACC'
p1755
I3493
sS'AGTCAA'
p1756
I11652
sS'TTCCCT'
p1757
I45110
sS'CGAGCG'
p1758
I15816
sS'CGAGCA'
p1759
I10619
sS'GAGCCG'
p1760
I31644
sS'CGAGCC'
p1761
I20852
sS'TTCCCA'
p1762
I40082
sS'TTCCCC'
p1763
I46214
sS'GTTCAC'
p1764
I11116
sS'TTCCCG'
p1765
I21954
sS'GATCAC'
p1766
I10819
sS'GGACCT'
p1767
I22135
sS'TACATG'
p1768
I7566
sS'AAGTAC'
p1769
I7641
sS'CACACT'
p1770
I20827
sS'TACATC'
p1771
I6564
sS'AAGTAG'
p1772
I11002
sS'TACATA'
p1773
I6568
sS'CATGGT'
p1774
I13424
sS'GGACCG'
p1775
I15264
sS'AACGCT'
p1776
I6921
sS'GGACCA'
p1777
I19585
sS'CTTTCT'
p1778
I40552
sS'GGACCC'
p1779
I33739
sS'CACACG'
p1780
I12868
sS'TACATT'
p1781
I10022
sS'CACACC'
p1782
I27268
sS'GCACAA'
p1783
I14305
sS'CACACA'
p1784
I48859
sS'TCTGCC'
p1785
I41293
sS'TCTGCA'
p1786
I34613
sS'TCTGCG'
p1787
I17571
sS'TAGATT'
p1788
I7252
sS'CCCGTC'
p1789
I17222
sS'TTAAGG'
p1790
I13020
sS'CCCGTA'
p1791
I4553
sS'TTAAGA'
p1792
I12933
sS'CCCGTG'
p1793
I15743
sS'TTAAGC'
p1794
I9940
sS'TTACGT'
p1795
I2993
sS'TAGATC'
p1796
I5354
sS'TGTCAA'
p1797
I10895
sS'TAGATA'
p1798
I5217
sS'TTTCGC'
p1799
I6710
sS'TAGATG'
p1800
I8994
sS'TCTGCT'
p1801
I35002
sS'TTACGC'
p1802
I2859
sS'TTAAGT'
p1803
I10566
sS'TTACGA'
p1804
I2202
sS'TTACGG'
p1805
I3456
sS'CCCGTT'
p1806
I8894
sS'AGTGAC'
p1807
I18039
sS'AGTGAA'
p1808
I18325
sS'AGTGAG'
p1809
I27856
sS'CGGGCG'
p1810
I40700
sS'AAACAC'
p1811
I19882
sS'TAAGAG'
p1812
I13457
sS'CGGGCC'
p1813
I41738
sS'TAAGAA'
p1814
I14855
sS'CGGGCA'
p1815
I22473
sS'TAAGAC'
p1816
I7866
sS'ATTTAT'
p1817
I13730
sS'AGTGAT'
p1818
I12411
sS'CTTTCC'
p1819
I42487
sS'TAAGAT'
p1820
I7580
sS'CCTGAA'
p1821
I27260
sS'CCTGAC'
p1822
I27491
sS'CCTGAG'
p1823
I46611
sS'GTTAGG'
p1824
I10872
sS'GCCAAC'
p1825
I15354
sS'TATACT'
p1826
I4190
sS'GTTAGC'
p1827
I7550
sS'GTTAGA'
p1828
I8339
sS'GCCAAA'
p1829
I18522
sS'TATACG'
p1830
I1278
sS'GTTAGT'
p1831
I6273
sS'TATACC'
p1832
I3643
sS'TATACA'
p1833
I5559
sS'ATTGGC'
p1834
I14175
sS'CGTATA'
p1835
I1276
sS'TCTTGT'
p1836
I15699
sS'ACTAGT'
p1837
I5010
sS'TTTATT'
p1838
I23260
sS'GTAATA'
p1839
I4930
sS'AACGCA'
p1840
I6725
sS'GTAATC'
p1841
I7754
sS'GTACAG'
p1842
I9265
sS'TCTAAC'
p1843
I8340
sS'CGTTCT'
p1844
I7868
sS'CCACCG'
p1845
I22500
sS'CGGATC'
p1846
I8174
sS'CCACCA'
p1847
I35899
sS'CCACCC'
p1848
I61422
sS'GTTCGT'
p1849
I3527
sS'TTTATG'
p1850
I10766
sS'ACTAGG'
p1851
I11027
sS'CTACTG'
p1852
I13620
sS'ACTAGC'
p1853
I7351
sS'TTTATA'
p1854
I10149
sS'ACTAGA'
p1855
I9100
sS'CCACCT'
p1856
I45347
sS'CGTTCG'
p1857
I3885
sS'ACTTGT'
p1858
I11122
sS'CGTTCA'
p1859
I5425
sS'CGTTCC'
p1860
I11169
sS'TCTAAT'
p1861
I8660
sS'CTTTGT'
p1862
I26230
sS'ACTGGG'
p1863
I31981
sS'ACTGGA'
p1864
I20387
sS'ACTGGC'
p1865
I22135
sS'TAGTCC'
p1866
I8814
sS'GTGACC'
p1867
I19333
sS'TAGTCA'
p1868
I7764
sS'GTGACA'
p1869
I16957
sS'TAGTCG'
p1870
I2564
sS'GTGACG'
p1871
I9358
sS'ATTTAG'
p1872
I10458
sS'ACTGGT'
p1873
I12251
sS'CTTTGG'
p1874
I27967
sS'CCTATG'
p1875
I8575
sS'CTTTGC'
p1876
I26515
sS'CTTTGA'
p1877
I19879
sS'GTGACT'
p1878
I19407
sS'TAGTCT'
p1879
I7883
sS'GTGCAC'
p1880
I15345
sS'GCGCTT'
p1881
I13960
sS'ACCTAG'
p1882
I11092
sS'GCAATT'
p1883
I10491
sS'ACCTAA'
p1884
I8724
sS'CGACGC'
p1885
I8983
sS'ACCTAC'
p1886
I9618
sS'CCGCAG'
p1887
I36930
sS'CCGCAA'
p1888
I9263
sS'CCGCAC'
p1889
I18969
sS'GGGACT'
p1890
I29411
sS'CGAAGC'
p1891
I11441
sS'CGACGT'
p1892
I3782
sS'CGAAGA'
p1893
I8017
sS'CCCCGT'
p1894
I17156
sS'CGAAGG'
p1895
I13083
sS'GCGCTC'
p1896
I29432
sS'GTGCAT'
p1897
I11747
sS'GCGCTA'
p1898
I6363
sS'CCGCAT'
p1899
I8000
sS'GTTCGC'
p1900
I6324
sS'GAAGAT'
p1901
I13819
sS'GGATCT'
p1902
I15130
sS'TCATGA'
p1903
I10636
sS'TCGGAA'
p1904
I7595
sS'TCGGAC'
p1905
I6343
sS'GAATCT'
p1906
I14282
sS'TCGGAG'
p1907
I14597
sS'GGATCG'
p1908
I6471
sS'GAAGAG'
p1909
I37070
sS'GAAGAA'
p1910
I29029
sS'GTTCGG'
p1911
I6991
sS'GAAGAC'
p1912
I18796
sS'GGATCA'
p1913
I12517
sS'GGATCN'
p1914
I1
sS'GAATCA'
p1915
I13251
sS'GAATCC'
p1916
I16411
sS'TCGGAT'
p1917
I4545
sS'GAATCG'
p1918
I5262
sS'ATGGTC'
p1919
I8684
sS'CAGATG'
p1920
I24873
sS'ACGCCG'
p1921
I11774
sS'TGACCC'
p1922
I21561
sS'ACGCCA'
p1923
I9777
sS'CAGATC'
p1924
I16402
sS'ACGCCC'
p1925
I19649
sS'TGCGTG'
p1926
I12542
sS'CTATCT'
p1927
I8783
sS'CAGATT'
p1928
I16115
sS'CTCGAC'
p1929
I6113
sS'ATGGTT'
p1930
I9337
sS'TCGCAA'
p1931
I4084
sS'TTGCGC'
p1932
I8066
sS'TGCGTC'
p1933
I9607
sS'CCGGTA'
p1934
I4940
sS'AATGGT'
p1935
I10284
sS'ACGTGT'
p1936
I6551
sS'AATGGC'
p1937
I16508
sS'AATGGA'
p1938
I18551
sS'AATGGG'
p1939
I21138
sS'CACTCT'
p1940
I22300
sS'AATAGA'
p1941
I10282
sS'AACGCG'
p1942
I6430
sS'TGCACA'
p1943
I20833
sS'CAACTA'
p1944
I6650
sS'TCGTAG'
p1945
I3230
sS'CGTTAG'
p1946
I3698
sS'TTGACC'
p1947
I10303
sS'GGAGGG'
p1948
I99404
sS'AAAAGT'
p1949
I17991
sS'GGAGGA'
p1950
I71663
sS'AGCCAA'
p1951
I25104
sS'TGGTAG'
p1952
I10936
sS'CGCCAT'
p1953
I11502
sS'GAGTGT'
p1954
I15800
sS'AATAGG'
p1955
I9941
sS'TGGTAC'
p1956
I6705
sS'TGGTAA'
p1957
I10356
sS'AAAAGG'
p1958
I30466
sS'GGAGGT'
p1959
I35778
sS'AGCCAT'
p1960
I17610
sS'AAAAGC'
p1961
I25060
sS'AAAAGA'
p1962
I31625
sS'TTGACT'
p1963
I11651
sS'GAGTGG'
p1964
I28856
sS'CGCCAG'
p1965
I27705
sS'TGGTAT'
p1966
I7260
sS'CGCCAA'
p1967
I10363
sS'GAGTGC'
p1968
I20008
sS'CGCCAC'
p1969
I22175
sS'GAGTGA'
p1970
I21147
sS'GCCAGG'
p1971
I67065
sS'GCCAGA'
p1972
I32907
sS'GCCAGC'
p1973
I49157
sS'GCCCGT'
p1974
I12456
sS'CAATCC'
p1975
I12767
sS'TACCGA'
p1976
I2995
sS'TACCGC'
p1977
I5580
sS'TACTGA'
p1978
I9818
sS'CTTCAT'
p1979
I16252
sS'GCCCGC'
p1980
I49765
sS'GCCAGT'
p1981
I22146
sS'GCCCGA'
p1982
I17825
sS'GCCCGG'
p1983
I54217
sS'CTTCAC'
p1984
I20677
sS'CTTCAA'
p1985
I16057
sS'CTTCAG'
p1986
I30621
sS'TCCGAG'
p1987
I15187
sS'TCCGAA'
p1988
I6791
sS'TCCGAC'
p1989
I7182
sS'AATTCA'
p1990
I15299
sS'AATTCC'
p1991
I19674
sS'AATTCG'
p1992
I3930
sS'TCCGAT'
p1993
I3912
sS'NNNGAT'
p1994
I1
sS'TAGCGG'
p1995
I6917
sS'AATTCT'
p1996
I16752
sS'TAGCGC'
p1997
I6362
sS'GTCATC'
p1998
I11986
sS'GTCATA'
p1999
I5395
sS'GTCATG'
p2000
I11061
sS'AGCAGG'
p2001
I53146
sS'CCAGGT'
p2002
I37589
sS'TTGGAA'
p2003
I21895
sS'AGCAGC'
p2004
I54253
sS'AGCAGA'
p2005
I35001
sS'GTCATT'
p2006
I13003
sS'CCAGGG'
p2007
I68557
sS'AGCAGT'
p2008
I21932
sS'CCAGGA'
p2009
I56470
sS'CCAGGC'
p2010
I73792
sS'TTGGAT'
p2011
I10909
sS'ATAGAG'
p2012
I9342
sS'CATCTG'
p2013
I24878
sS'ACGGTC'
p2014
I5470
sS'CATCTA'
p2015
I8992
sS'GATCGA'
p2016
I2916
sS'CATCTC'
p2017
I23668
sS'ATAGAA'
p2018
I9735
sS'ATTAGA'
p2019
I8663
sS'TCCAAC'
p2020
I14364
sS'GGATGG'
p2021
I28654
sS'CAAGCC'
p2022
I26432
sS'CATCTT'
p2023
I18134
sS'CAAGCA'
p2024
I20303
sS'CAAGCG'
p2025
I10668
sS'GTTCTT'
p2026
I16370
sS'ACATGA'
p2027
I10619
sS'CGTAAT'
p2028
I2138
sS'ACATGC'
p2029
I12685
sS'TCTTGA'
p2030
I14554
sS'ACATGG'
p2031
I15250
sS'CCCGCT'
p2032
I29269
sS'GTAAAC'
p2033
I9453
sS'TGGCGG'
p2034
I28377
sS'CGTAAG'
p2035
I3321
sS'GAGTCA'
p2036
I22637
sS'ACATGT'
p2037
I9954
sS'CGTAAC'
p2038
I2519
sS'CGTAAA'
p2039
I3543
sS'AGGGAG'
p2040
I70771
sS'ATCCTT'
p2041
I14944
sS'CCCGCC'
p2042
I88210
sS'AGACGC'
p2043
I13322
sS'CCCGCA'
p2044
I26582
sS'GAGTCG'
p2045
I9621
sS'AGCGCA'
p2046
I14589
sS'TCTTGG'
p2047
I24320
sS'GTTGTT'
p2048
I12783
sS'TTCTNC'
p2049
I1
sS'TGGATC'
p2050
I12368
sS'TTGTCG'
p2051
I4108
sS'TTGTCC'
p2052
I16618
sS'TTGTCA'
p2053
I14264
sS'ATCCTC'
p2054
I19606
sS'GTTGTA'
p2055
I6480
sS'ATCCTA'
p2056
I8738
sS'GTTGTC'
p2057
I9748
sS'ATCCTG'
p2058
I22933
sS'GTTGTG'
p2059
I13079
sS'TTGTCT'
p2060
I18718
sS'CTATGC'
p2061
I7506
sS'CCACTG'
p2062
I33649
sS'TGACTA'
p2063
I7764
sS'TGGGCC'
p2064
I40905
sS'TGACTC'
p2065
I22651
sS'TGGGCA'
p2066
I34815
sS'TGGGCG'
p2067
I29394
sS'TGACTG'
p2068
I19860
sS'AAGCCG'
p2069
I15373
sS'AAGCCC'
p2070
I32733
sS'AAGCCA'
p2071
I28651
sS'CAAAAT'
p2072
I17018
sS'TGACTT'
p2073
I17531
sS'TGGGCT'
p2074
I40497
sS'CAAAAC'
p2075
I19638
sS'CAAAAA'
p2076
I23936
sS'AAGCCT'
p2077
I26337
sS'CAAAAG'
p2078
I23428
sS'TCAATG'
p2079
I9639
sS'AAACTT'
p2080
I16174
sS'TCAATC'
p2081
I7954
sS'TCAATA'
p2082
I6895
sS'CAGTTC'
p2083
I20456
sS'GACCCG'
p2084
I18697
sS'GTCAAC'
p2085
I7329
sS'GACCCA'
p2086
I22831
sS'GACCCC'
p2087
I33097
sS'CTCTGT'
p2088
I33894
sS'TCAATT'
p2089
I9247
sS'GGCCAG'
p2090
I57596
sS'CTCTGC'
p2091
I56056
sS'GACCCT'
p2092
I24101
sS'CTCTGA'
p2093
I32707
sS'ACAATC'
p2094
I8022
sS'CTCTGG'
p2095
I51409
sS'CAGTTT'
p2096
I22138
sS'GCGAAG'
p2097
I12909
sS'ACGTTC'
p2098
I5269
sS'TGCTGG'
p2099
I49067
sS'CGAGGT'
p2100
I12134
sS'TGCTGA'
p2101
I29052
sS'GAGTCT'
p2102
I19189
sS'TGCTGC'
p2103
I45951
sS'AGCTGC'
p2104
I47679
sS'GCTGGT'
p2105
I28740
sS'GTGATT'
p2106
I13250
sS'ACGTTA'
p2107
I2866
sS'TGCTGT'
p2108
I28720
sS'TAGGGC'
p2109
I14835
sS'TAATGG'
p2110
I8944
sS'TGTACC'
p2111
I7777
sS'GTGATG'
p2112
I15351
sS'GCTGGG'
p2113
I84383
sS'GTGATC'
p2114
I10828
sS'GCTGGC'
p2115
I49158
sS'GTGATA'
p2116
I6038
sS'GCTGGA'
p2117
I45124
sS'TGATAA'
p2118
I8285
sS'TGATAC'
p2119
I5086
sS'TGATAG'
p2120
I6357
sS'CTTGTT'
p2121
I17086
sS'GACGGT'
p2122
I6625
sS'GCTAGG'
p2123
I16980
sS'GCTAGA'
p2124
I11394
sS'ATGAAT'
p2125
I13313
sS'GCTAGC'
p2126
I10404
sS'ATAGGG'
p2127
I9345
sS'TGATAT'
p2128
I5533
sS'GCTAGT'
p2129
I7352
sS'ATGAAC'
p2130
I8882
sS'GACGGG'
p2131
I17229
sS'ATGAAA'
p2132
I18123
sS'GACGGA'
p2133
I10265
sS'ATGAAG'
p2134
I16246
sS'GACGGC'
p2135
I14500
sS'CTTGTC'
p2136
I16696
sS'GCACTT'
p2137
I18989
sS'GNCCGC'
p2138
I1
sS'CCATAG'
p2139
I8773
sS'GGTGAA'
p2140
I18833
sS'GGTGAC'
p2141
I21009
sS'GCGTCT'
p2142
I13322
sS'TGTAAA'
p2143
I16793
sS'GGTGAG'
p2144
I36075
sS'GGAATG'
p2145
I27126
sS'CGTCCT'
p2146
I14950
sS'GGCTAA'
p2147
I11559
sS'GGAATC'
p2148
I17446
sS'GGAATA'
p2149
I10092
sS'GCGTCA'
p2150
I8404
sS'GCGTCC'
p2151
I20911
sS'GGTGAT'
p2152
I13699
sS'GCGTCG'
p2153
I8985
sS'CGTCCG'
p2154
I10311
sS'GGAATT'
p2155
I19669
sS'CGTCCC'
p2156
I22703
sS'CGTCCA'
p2157
I9707
sS'TTTCGA'
p2158
I3807
sS'CCGTAT'
p2159
I2412
sS'GAAGTC'
p2160
I17685
sS'GAAGTA'
p2161
I10085
sS'GAAGTG'
p2162
I24377
sS'GCCGTA'
p2163
I4160
sS'CCGTAC'
p2164
I3357
sS'CCGTAA'
p2165
I3462
sS'CCGTAG'
p2166
I5602
sS'CAAAGT'
p2167
I18491
sS'GCCGTT'
p2168
I7632
sS'TTGGTG'
p2169
I17831
sS'GAAGTT'
p2170
I15998
sS'GGCGCG'
p2171
I44027
sS'ATGCCC'
p2172
I17949
sS'TTAGTT'
p2173
I8935
sS'TATTAG'
p2174
I5618
sS'GGCGCC'
p2175
I48941
sS'TATTAA'
p2176
I8499
sS'GGCGCA'
p2177
I22627
sS'TATTAC'
p2178
I4934
sS'ACTATG'
p2179
I6028
sS'CAACGG'
p2180
I6463
sS'TTTAAG'
p2181
I15552
sS'ACTATC'
p2182
I4416
sS'TTTAAA'
p2183
I29044
sS'ACTATA'
p2184
I3716
sS'AGAGTG'
p2185
I22310
sS'TATTAT'
p2186
I7900
sS'TTAGTG'
p2187
I8859
sS'GGCGCT'
p2188
I30610
sS'TTAGTC'
p2189
I7292
sS'ATGCCT'
p2190
I18201
sS'TTAGTA'
p2191
I6151
sS'TTTAAT'
p2192
I14562
sS'ACTATT'
p2193
I6700
sS'TTTTGA'
p2194
I17866
sS'GGGCAT'
p2195
I17956
sS'TTTCCG'
p2196
I11863
sS'TTTCCA'
p2197
I31105
sS'TTTCCC'
p2198
I42215
sS'GTACGT'
p2199
I2462
sS'TATCGA'
p2200
I1354
sS'GTTTGT'
p2201
I16519
sS'TTTCCT'
p2202
I45624
sS'GGGCAG'
p2203
I71008
sS'GTCTGT'
p2204
I19160
sS'GGGCAA'
p2205
I23442
sS'GGGCAC'
p2206
I30706
sS'GTTTGC'
p2207
I16819
sS'GTTTGA'
p2208
I12956
sS'GTTTGG'
p2209
I19459
sS'GTACGA'
p2210
I1866
sS'CCGCTC'
p2211
I30006
sS'GCATGT'
p2212
I12692
sS'CCGCTA'
p2213
I6918
sS'CCGCTG'
p2214
I31974
sS'AGCATT'
p2215
I16367
sS'GCGCGG'
p2216
I48030
sS'GCGCGC'
p2217
I48326
sS'GCGCGA'
p2218
I13067
sS'GCATGG'
p2219
I17854
sS'GCATGC'
p2220
I16555
sS'CCGCTT'
p2221
I15221
sS'TGACCT'
p2222
I22132
sS'GTCGAC'
p2223
I2997
sS'GTCGAA'
p2224
I3162
sS'GTCGAG'
p2225
I6112
sS'CGTGGC'
p2226
I19164
sS'GAGCTA'
p2227
I12533
sS'TGCGCT'
p2228
I14598
sS'GAGCTC'
p2229
I32686
sS'ATTGAT'
p2230
I6920
sS'TGTCCT'
p2231
I26741
sS'AGTACA'
p2232
I7739
sS'AAACGC'
p2233
I9079
sS'GTAACA'
p2234
I8673
sS'CACGCG'
p2235
I12221
sS'AAACGG'
p2236
I8685
sS'TGTCCC'
p2237
I30871
sS'TGCGCG'
p2238
I18638
sS'TGTCCA'
p2239
I17490
sS'GAGCTT'
p2240
I20944
sS'TGCGCC'
p2241
I22643
sS'ATTGAG'
p2242
I10420
sS'TGCGCA'
p2243
I14210
sS'CACGCA'
p2244
I12537
sS'AAACGT'
p2245
I6429
sS'TGGGTT'
p2246
I20958
sS'ATTTCA'
p2247
I19255
sS'ATTTCC'
p2248
I24480
sS'ATCAGT'
p2249
I9751
sS'ATCGGG'
p2250
I6016
sS'CATAGT'
p2251
I6024
sS'ATCGGC'
p2252
I5111
sS'CCGTGT'
p2253
I9756
sS'ATCGGA'
p2254
I3912
sS'ATTTCT'
p2255
I22883
sS'CGATCA'
p2256
I3207
sS'TGGGTC'
p2257
I22821
sS'TGGGTA'
p2258
I12529
sS'CATAGG'
p2259
I8567
sS'ATCGGT'
p2260
I2759
sS'AAACGA'
p2261
I6060
sS'CATAGC'
p2262
I8482
sS'ATCAGC'
p2263
I15758
sS'GGTCAA'
p2264
I10307
sS'ACGGGT'
p2265
I5944
sS'CCTGGT'
p2266
I32184
sS'GATTCT'
p2267
I15328
sS'CTTTTG'
p2268
I23419
sS'TACTAG'
p2269
I4683
sS'CTTTTC'
p2270
I33290
sS'CTTTTA'
p2271
I17440
sS'GATTCC'
p2272
I17440
sS'ACGGGG'
p2273
I17165
sS'ACGGGA'
p2274
I10873
sS'ACGGGC'
p2275
I12459
sS'GTCCGG'
p2276
I15282
sS'TACTAT'
p2277
I4231
sS'CTTTTT'
p2278
I30873
sS'TCACGA'
p2279
I4664
sS'TCACGC'
p2280
I10303
sS'CGATTG'
p2281
I3944
sS'TCACGG'
p2282
I9305
sS'TCACGT'
p2283
I8122
sS'TTCCAC'
p2284
I22157
sS'TTCCAA'
p2285
I21908
sS'AGTTGT'
p2286
I11297
sS'TTCCAG'
p2287
I39592
sS'GTTTCA'
p2288
I16288
sS'ACCCTT'
p2289
I17467
sS'TGAAGT'
p2290
I15835
sS'CCACAT'
p2291
I18144
sS'TTCCAT'
p2292
I19017
sS'TGAAGC'
p2293
I20803
sS'ACCCTC'
p2294
I28788
sS'CCTACA'
p2295
I12789
sS'ACCCTG'
p2296
I32755
sS'AATTTG'
p2297
I14551
sS'CTGACT'
p2298
I23786
sS'CCAGCA'
p2299
I49024
sS'CCCCTT'
p2300
I39853
sS'AGTTAT'
p2301
I6933
sS'ACATAT'
p2302
I6607
sS'CTGACG'
p2303
I10018
sS'CTGACC'
p2304
I26767
sS'CAATGA'
p2305
I13131
sS'AGTTAA'
p2306
I10979
sS'CCCCTG'
p2307
I55347
sS'AGTTAC'
p2308
I8820
sS'CCCCTC'
p2309
I76131
sS'AGTTAG'
p2310
I9528
sS'CCCCTA'
p2311
I19475
sS'ACACAG'
p2312
I29098
sS'ACACAA'
p2313
I16736
sS'ACACAC'
p2314
I40321
sS'AATGTT'
p2315
I13244
sS'CTGCAG'
p2316
I71423
sS'CATGGG'
p2317
I20016
sS'CTGCAC'
p2318
I31511
sS'CATGGC'
p2319
I21446
sS'AATGTC'
p2320
I12088
sS'ACACAT'
p2321
I13738
sS'AATGTA'
p2322
I10017
sS'AATGTG'
p2323
I17170
sS'GCACAC'
p2324
I21712
sS'CTGCAT'
p2325
I22927
sS'GCACAG'
p2326
I33902
sS'CGATTC'
p2327
I5267
sS'ACATTT'
p2328
I19270
sS'ATGTTC'
p2329
I9614
sS'CGAGAT'
p2330
I6143
sS'ATTACT'
p2331
I7887
sS'ACATTG'
p2332
I9543
sS'GTACCA'
p2333
I6695
sS'ACATTA'
p2334
I7696
sS'ACATTC'
p2335
I16028
sS'ATTACA'
p2336
I11947
sS'ATGCTC'
p2337
I13698
sS'ATTACC'
p2338
I7409
sS'CGAGAC'
p2339
I10293
sS'CGAGAA'
p2340
I9930
sS'AAGTCT'
p2341
I15658
sS'GCTATT'
p2342
I9294
sS'GGACAT'
p2343
I11743
sS'CAGCGT'
p2344
I13650
sS'GCTATA'
p2345
I4381
sS'GCTATC'
p2346
I5723
sS'AAGTCG'
p2347
I6277
sS'AAGTCA'
p2348
I17518
sS'GCTATG'
p2349
I8478
sS'AAGTCC'
p2350
I18214
sS'GGACAG'
p2351
I34573
sS'GGACAC'
p2352
I21413
sS'GGACAA'
p2353
I16629
sS'CTAATT'
p2354
I11083
sS'AGGGTT'
p2355
I19231
sS'GAGGCG'
p2356
I41467
sS'TGTTGG'
p2357
I18175
sS'GAGGCA'
p2358
I39159
sS'TGTTGA'
p2359
I12823
sS'GAGGCC'
p2360
I54157
sS'TGTTGC'
p2361
I15785
sS'ACTCGA'
p2362
I4627
sS'TAAAAT'
p2363
I18198
sS'ACTCGC'
p2364
I9612
sS'ACTCGG'
p2365
I12141
sS'TGTTGT'
p2366
I14416
sS'GAGGCT'
p2367
I45129
sS'AGCGCC'
p2368
I30609
sS'AGGGTG'
p2369
I34284
sS'AGGGTA'
p2370
I11860
sS'AGCGCG'
p2371
I22554
sS'AGGGTC'
p2372
I24097
sS'TAAAAG'
p2373
I17463
sS'ACTCGT'
p2374
I4010
sS'TAAAAC'
p2375
I13664
sS'TAAAAA'
p2376
I24128
sS'CTACTC'
p2377
I12146
sS'TAGGGA'
p2378
I17168
sS'CTACTA'
p2379
I5963
sS'AGCTGA'
p2380
I29391
sS'ACGTTG'
p2381
I4827
sS'AGCTGG'
p2382
I50422
sS'TAGGGG'
p2383
I19492
sS'TAAATG'
p2384
I14921
sS'AGTGCG'
p2385
I10667
sS'AGTGCA'
p2386
I18751
sS'AGAGTT'
p2387
I16425
sS'AGTGCC'
p2388
I22477
sS'CCAAAA'
p2389
I19905
sS'TAGGGT'
p2390
I10455
sS'GCATAG'
p2391
I7503
sS'AGCTGT'
p2392
I26984
sS'CTACTT'
p2393
I10999
sS'AGTGCT'
p2394
I22068
sS'AGAGTC'
p2395
I18114
sS'AGAGTA'
p2396
I9646
sS'CCAAAC'
p2397
I19462
sS'TTCGTA'
p2398
I2349
sS'GTTAAA'
p2399
I11276
sS'CCTGGC'
p2400
I67061
sS'GTTAAC'
p2401
I6926
sS'CCTGGA'
p2402
I51374
sS'TGTCAG'
p2403
I21134
sS'GTTAAG'
p2404
I9603
sS'AGCCCG'
p2405
I29316
sS'TAACCA'
p2406
I9701
sS'GCACCC'
p2407
I29687
sS'GTCTGG'
p2408
I28183
sS'GTCTGC'
p2409
I23065
sS'GTTAAT'
p2410
I8036
sS'GTCTGA'
p2411
I17367
sS'GCGGNC'
p2412
I1
sS'TCTAAA'
p2413
I12695
sS'CCGGTC'
p2414
I12945
sS'GGAAGG'
p2415
I62672
sS'ATGCTT'
p2416
I13289
sS'GGAAGC'
p2417
I42975
sS'CTAATG'
p2418
I9281
sS'GGAAGA'
p2419
I40271
sS'TGTATT'
p2420
I11799
sS'TCCTCT'
p2421
I44410
sS'GCGTTC'
p2422
I9265
sS'CAATGC'
p2423
I11947
sS'GCGTTG'
p2424
I7754
sS'CAATGG'
p2425
I15171
sS'CCACAG'
p2426
I41666
sS'GGAAGT'
p2427
I27266
sS'CCACAC'
p2428
I28799
sS'ATGCTA'
p2429
I8217
sS'TATCGT'
p2430
I1422
sS'ATTTGT'
p2431
I14667
sS'TCCTCG'
p2432
I17979
sS'TGTATG'
p2433
I8466
sS'TCCTCA'
p2434
I31724
sS'GCGTTT'
p2435
I9074
sS'TCCTCC'
p2436
I71647
sS'TGTATC'
p2437
I6645
sS'GTGAAT'
p2438
I12664
sS'TAACCG'
p2439
I3417
sS'TCATAG'
p2440
I7169
sS'TTCGTG'
p2441
I5839
sS'TCATAA'
p2442
I7194
sS'TAACCC'
p2443
I10559
sS'TCATAC'
p2444
I5232
sS'TTCGTC'
p2445
I4877
sS'ACCGCT'
p2446
I9565
sS'TCGCGA'
p2447
I5149
sS'TGCATG'
p2448
I16918
sS'TCAGGA'
p2449
I30256
sS'TTCGTT'
p2450
I5087
sS'GCCACA'
p2451
I29683
sS'TAACCT'
p2452
I10216
sS'GTGAAG'
p2453
I20682
sS'GTGAAA'
p2454
I18977
sS'GTGAAC'
p2455
I11115
sS'TGCATA'
p2456
I9949
sS'ACCGCG'
p2457
I14041
sS'ACCGCA'
p2458
I10005
sS'AACGAG'
p2459
I6362
sS'ACCGCC'
p2460
I20065
sS'CCGCCT'
p2461
I42735
sS'AGGCTT'
p2462
I26328
sS'CCTTCT'
p2463
I39064
sS'GTTGCA'
p2464
I12686
sS'AACGAA'
p2465
I5095
sS'GTTGCC'
p2466
I16612
sS'GTGCCG'
p2467
I13367
sS'GTGCCA'
p2468
I19900
sS'GTTGCG'
p2469
I6170
sS'GTGCCC'
p2470
I30710
sS'CCGCCG'
p2471
I52579
sS'AGGCTA'
p2472
I12577
sS'CCTTCC'
p2473
I62632
sS'AGGCTC'
p2474
I36083
sS'CCGCCC'
p2475
I85279
sS'TGTCGA'
p2476
I2974
sS'CCTTCG'
p2477
I13082
sS'AGGCTG'
p2478
I59626
sS'GTGCCT'
p2479
I26247
sS'GTTGCT'
p2480
I16599
sS'NNNGCG'
p2481
I1
sS'GGATAT'
p2482
I6328
sS'TCGGGT'
p2483
I9044
sS'ATTTGA'
p2484
I13732
sS'GCAGTT'
p2485
I19221
sS'GAAGCT'
p2486
I26449
sS'GGATAA'
p2487
I8681
sS'GGATAC'
p2488
I6373
sS'NNNNNG'
p2489
I5
sS'TCGGGG'
p2490
I22822
sS'GGATAG'
p2491
I8175
sS'GAAGCG'
p2492
I17387
sS'ATGTGG'
p2493
I18140
sS'GCAGTG'
p2494
I35059
sS'GAAGCC'
p2495
I36143
sS'GCAGTA'
p2496
I11319
sS'GAAGCA'
p2497
I26829
sS'GCAGTC'
p2498
I21020
sS'CGCCCG'
p2499
I40711
sS'GAGAGA'
p2500
I45336
sS'GTTCAT'
p2501
I8877
sS'GAGAGG'
p2502
I57366
sS'CGCCCA'
p2503
I29384
sS'AGTTTG'
p2504
I17212
sS'CTATAG'
p2505
I4903
sS'NNNNNN'
p2506
I1351
sS'CTATAC'
p2507
I3454
sS'CTATAA'
p2508
I5771
sS'CTCGCA'
p2509
I11665
sS'CGCCCT'
p2510
I34185
sS'CTCGCG'
p2511
I16892
sS'AAACAT'
p2512
I14975
sS'CTATAT'
p2513
I4104
sS'AGTTTC'
p2514
I20362
sS'GCCGGG'
p2515
I59155
sS'TACCCG'
p2516
I6187
sS'GCCGGC'
p2517
I42980
sS'CATGTT'
p2518
I12373
sS'GCCGGA'
p2519
I21533
sS'AGATCT'
p2520
I13338
sS'ACGTAG'
p2521
I3886
sS'GCCACT'
p2522
I26545
sS'CATGTA'
p2523
I7563
sS'CATGTC'
p2524
I11402
sS'GCCGGT'
p2525
I13917
sS'CATGTG'
p2526
I17190
sS'AGTTCG'
p2527
I5641
sS'GGCCTG'
p2528
I58950
sS'GGCCTC'
p2529
I54174
sS'NNGCGC'
p2530
I1
sS'GGCCTA'
p2531
I13067
sS'TTTGTT'
p2532
I29685
sS'AATCGG'
p2533
I4834
sS'AATCGC'
p2534
I5341
sS'AATCGA'
p2535
I3070
sS'GTTCAG'
p2536
I16943
sS'TCACTG'
p2537
I26470
sS'TCACTA'
p2538
I8729
sS'CAGCGA'
p2539
I15458
sS'AATCGT'
p2540
I2858
sS'AGCCGA'
p2541
I13903
sS'GAGCGT'
p2542
I9532
sS'AGCCGC'
p2543
I31937
sS'TAATTG'
p2544
I8709
sS'AAAAAT'
p2545
I26398
sS'AGCCGG'
p2546
I30719
sS'TAATTC'
p2547
I9508
sS'TGGTGA'
p2548
I22073
sS'TCTCAT'
p2549
I16107
sS'TGGTGC'
p2550
I22381
sS'GATGGC'
p2551
I19351
sS'GGGCTG'
p2552
I75178
sS'TGGTGG'
p2553
I35900
sS'GATGGG'
p2554
I27967
sS'AAAAAA'
p2555
I78693
sS'AAAAAC'
p2556
I22360
sS'GGGCTC'
p2557
I49694
sS'GTTTTG'
p2558
I19624
sS'GTTCAA'
p2559
I10296
sS'AAAAAG'
p2560
I30910
sS'TGACAG'
p2561
I21633
sS'CCAAGG'
p2562
I35144
sS'ACGTAT'
p2563
I2033
sS'TCTCAG'
p2564
I34093
sS'GATGGT'
p2565
I11859
sS'TGGTGT'
p2566
I17503
sS'CCAAGA'
p2567
I24334
sS'ATTCGT'
p2568
I3078
sS'AGAACT'
p2569
I18113
sS'GCATTA'
p2570
I7928
sS'CAAAGA'
p2571
I24772
sS'CCGCCA'
p2572
I28379
sS'TACCAT'
p2573
I6630
sS'AGATAG'
p2574
I8787
sS'CACTGT'
p2575
I20593
sS'ACCCGA'
p2576
I9045
sS'AGATAC'
p2577
I7452
sS'ACCCGC'
p2578
I20273
sS'ACCAGT'
p2579
I12252
sS'TACCAC'
p2580
I8851
sS'AGAACG'
p2581
I7858
sS'TACCAA'
p2582
I7800
sS'AGAACA'
p2583
I20850
sS'TACCAG'
p2584
I11995
sS'AGAACC'
p2585
I18729
sS'ACCAGC'
p2586
I28722
sS'CACTGG'
p2587
I30327
sS'AGATAT'
p2588
I6440
sS'ATCACG'
p2589
I5001
sS'ACCAGG'
p2590
I32190
sS'CACTGC'
p2591
I35064
sS'CCTATC'
p2592
I8392
sS'CACTGA'
p2593
I22028
sS'TAGGTT'
p2594
I8119
sS'GTTTAC'
p2595
I9449
sS'AATTAT'
p2596
I9156
sS'CTGTTG'
p2597
I20264
sS'TGCTAT'
p2598
I8716
sS'CTGTTC'
p2599
I20950
sS'CGGGTT'
p2600
I11645
sS'CTGTTA'
p2601
I11618
sS'AATTAC'
p2602
I9179
sS'AATTAA'
p2603
I13479
sS'CATGGA'
p2604
I16511
sS'TAGGTA'
p2605
I6294
sS'TAGGTC'
p2606
I8030
sS'CGGGTC'
p2607
I18692
sS'CTGTTT'
p2608
I27016
sS'CGGGTA'
p2609
I6190
sS'CGGGTG'
p2610
I20631
sS'CTTCGG'
p2611
I13116
sS'AAGTAA'
p2612
I12147
sS'CATTAC'
p2613
I7501
sS'GCAATG'
p2614
I13093
sS'TTAGGG'
p2615
I15093
sS'ATATAT'
p2616
I7500
sS'AGCAAC'
p2617
I16609
sS'TTAGGC'
p2618
I10617
sS'AAAGCT'
p2619
I22056
sS'TTAGGA'
p2620
I14254
sS'AAAGCA'
p2621
I28496
sS'AAAGCC'
p2622
I29042
sS'TTAGGT'
p2623
I8722
sS'ATATAA'
p2624
I6576
sS'AGCAAT'
p2625
I12669
sS'ATATAC'
p2626
I4014
sS'ATAGCA'
p2627
I8699
sS'ATAGCC'
p2628
I7686
sS'TACTTG'
p2629
I8999
sS'ATAGCG'
p2630
I3081
sS'TCTCAC'
p2631
I21345
sS'CAGCAT'
p2632
I22138
sS'CAGCGC'
p2633
I35417
sS'ATAGCT'
p2634
I8402
sS'TACTTT'
p2635
I11849
sS'CATGCG'
p2636
I8005
sS'CGAGTT'
p2637
I6619
sS'TCCAAT'
p2638
I10519
sS'CGTACT'
p2639
I2648
sS'TCCCGT'
p2640
I10879
sS'TATGCT'
p2641
I7366
sS'CTTAAG'
p2642
I12108
sS'ACATAA'
p2643
I8333
sS'CTTAAA'
p2644
I15559
sS'ACATAG'
p2645
I7187
sS'CTTAAC'
p2646
I9606
sS'TCCAAG'
p2647
I23894
sS'CGAGTG'
p2648
I10099
sS'CGAGTA'
p2649
I3661
sS'TCCAAA'
p2650
I20870
sS'AGGGGA'
p2651
I51389
sS'CTTAAT'
p2652
I9212
sS'TATGCG'
p2653
I2512
sS'TATGCA'
p2654
I9945
sS'AGGGGG'
p2655
I52787
sS'TCATTA'
p2656
I10366
sS'CGACTT'
p2657
I6281
sS'TGAATT'
p2658
I15326
sS'TTGTAA'
p2659
I12039
sS'TTGTAC'
p2660
I5733
sS'TTGTAG'
p2661
I10269
sS'TGAATC'
p2662
I11937
sS'GATTGG'
p2663
I14942
sS'TGAATA'
p2664
I10742
sS'TCGGGA'
p2665
I13699
sS'TGAATG'
p2666
I18831
sS'AAGTAT'
p2667
I7033
sS'CGACTG'
p2668
I8640
sS'TTGTAT'
p2669
I8577
sS'ATCGTG'
p2670
I4131
sS'GCTTCG'
p2671
I11442
sS'GCTTCA'
p2672
I20773
sS'ATCGTA'
p2673
I1574
sS'TGGGAG'
p2674
I56974
sS'TGGGAA'
p2675
I40099
sS'TGGGAC'
p2676
I26112
sS'GCTTCT'
p2677
I31554
sS'TGGCAC'
p2678
I19903
sS'ACAACG'
p2679
I4521
sS'TGGGAT'
p2680
I22892
sS'CTAGCC'
p2681
I14418
sS'GACCAT'
p2682
I8698
sS'CTAGCG'
p2683
I7026
sS'CGCACG'
p2684
I11847
sS'CGGTAG'
p2685
I6130
sS'ACTTAG'
p2686
I9285
sS'ACTTAA'
p2687
I10577
sS'CGGTAC'
p2688
I3744
sS'ACTTAC'
p2689
I7989
sS'CGGTAA'
p2690
I4105
sS'GACCAG'
p2691
I24374
sS'GACCAC'
p2692
I16430
sS'GACCAA'
p2693
I12653
sS'TACACC'
p2694
I7641
sS'CGGTAT'
p2695
I2294
sS'TACACA'
p2696
I11543
sS'TACACG'
p2697
I3683
sS'CGTTTA'
p2698
I4074
sS'GCGAGA'
p2699
I14031
sS'AGGGCC'
p2700
I44494
sS'GCGAGC'
p2701
I21199
sS'GCTGAG'
p2702
I48607
sS'GCGAGG'
p2703
I30065
sS'CAGCCG'
p2704
I32577
sS'CAGCCA'
p2705
I48728
sS'CAGCCC'
p2706
I75183
sS'GCTGAA'
p2707
I24698
sS'GCGAGT'
p2708
I9604
sS'CGCCCC'
p2709
I74945
sS'CCCTCA'
p2710
I36400
sS'GAACTC'
p2711
I16889
sS'GAACTA'
p2712
I7761
sS'GGACTT'
p2713
I18223
sS'CACCTA'
p2714
I12679
sS'AACTAT'
p2715
I5739
sS'CACCTC'
p2716
I39305
sS'CACCTG'
p2717
I43665
sS'TGATCC'
p2718
I12518
sS'AACACT'
p2719
I13925
sS'TGATCA'
p2720
I9494
sS'ATTTAA'
p2721
I15937
sS'NAGAAA'
p2722
I1
sS'AACTAG'
p2723
I8170
sS'GGACTG'
p2724
I26905
sS'CACCTT'
p2725
I23447
sS'AACTAC'
p2726
I7790
sS'GGACTC'
p2727
I23872
sS'AACGAT'
p2728
I2650
sS'AACACG'
p2729
I6697
sS'AACACA'
p2730
I20059
sS'AACACC'
p2731
I15324
sS'TGATCT'
p2732
I12685
sS'CGTCAA'
p2733
I3726
sS'GCATTC'
p2734
I17206
sS'CAACAG'
p2735
I20293
sS'GACAGT'
p2736
I13940
sS'CAACAA'
p2737
I15171
sS'AAAGAA'
p2738
I37524
sS'CAACAC'
p2739
I14387
sS'GCTGAT'
p2740
I15772
sS'ACGCAA'
p2741
I4824
sS'GACAGG'
p2742
I31019
sS'CAACAT'
p2743
I11340
sS'GACAGC'
p2744
I26818
sS'GACAGA'
p2745
I26092
sS'GTATTA'
p2746
I4750
sS'GTATTC'
p2747
I6511
sS'GTAAGT'
p2748
I7999
sS'CCAGCG'
p2749
I30371
sS'GTATTG'
p2750
I5640
sS'GGTGGC'
p2751
I43111
sS'TCCCCT'
p2752
I51386
sS'GGTGGA'
p2753
I32055
sS'TATCTT'
p2754
I9041
sS'GGTGGG'
p2755
I65810
sS'NNNGAA'
p2756
I3
sS'AGAGGC'
p2757
I45536
sS'GTAAGA'
p2758
I9537
sS'AGAGGA'
p2759
I44426
sS'CTCGCC'
p2760
I27439
sS'AGAGGG'
p2761
I54629
sS'GTAAGG'
p2762
I10996
sS'TCCCCG'
p2763
I38514
sS'TATCTC'
p2764
I9472
sS'TCCCCC'
p2765
I50239
sS'GGTGGT'
p2766
I24224
sS'TCCCCA'
p2767
I53754
sS'GTCGCG'
p2768
I9237
sS'GTCGCA'
p2769
I6268
sS'GTCGCC'
p2770
I15390
sS'TCGGTC'
p2771
I7327
sS'TCGGTA'
p2772
I2997
sS'GAGAGT'
p2773
I18631
sS'TCGGTG'
p2774
I9959
sS'GTCGCT'
p2775
I9660
sS'CCGTCG'
p2776
I8135
sS'CCGTCA'
p2777
I8091
sS'CCGTCC'
p2778
I19278
sS'GGCTGT'
p2779
I33609
sS'CGCGTG'
p2780
I12223
sS'GCATTT'
p2781
I22010
sS'CGCGTC'
p2782
I13545
sS'CGCGTA'
p2783
I2960
sS'ACTCTC'
p2784
I18637
sS'CCACTA'
p2785
I11447
sS'AAAGTA'
p2786
I11843
sS'CGCGTT'
p2787
I6432
sS'GGCTGG'
p2788
I77519
sS'GGCTGA'
p2789
I38223
sS'GGCTGC'
p2790
I66807
sS'CCACTT'
p2791
I22494
sS'TTTAGA'
p2792
I12684
sS'ATGACG'
p2793
I4704
sS'GGAGTT'
p2794
I22190
sS'ATGACA'
p2795
I13344
sS'ATGACC'
p2796
I10454
sS'CCTGAT'
p2797
I15874
sS'GGGCCT'
p2798
I48348
sS'ATGACT'
p2799
I12925
sS'GGAGTA'
p2800
I10811
sS'GGAGTC'
p2801
I25588
sS'GGAGTG'
p2802
I31501
sS'GGGCCG'
p2803
I48066
sS'GGGCCC'
p2804
I57553
sS'GGGCCA'
p2805
I40603
sS'GGCAAG'
p2806
I25909
sS'ACGAGT'
p2807
I4010
sS'TTCNNN'
p2808
I3
sS'AGGCCA'
p2809
I37764
sS'GCGCAC'
p2810
I18739
sS'AAAGTC'
p2811
I15618
sS'AGGCCG'
p2812
I29123
sS'ACGAGG'
p2813
I11332
sS'AGTATC'
p2814
I5734
sS'ACGAGC'
p2815
I6859
sS'ACGAGA'
p2816
I5821
sS'CTGATG'
p2817
I18408
sS'AGGCCT'
p2818
I40390
sS'ACATCT'
p2819
I13594
sS'GGGTTG'
p2820
I21963
sS'GACTAC'
p2821
I6803
sS'GGGTTA'
p2822
I10566
sS'CTCGGG'
p2823
I29083
sS'GGGTTC'
p2824
I20793
sS'TTTGAT'
p2825
I11543
sS'TGAACT'
p2826
I14931
sS'CTACGA'
p2827
I3232
sS'ATTGCT'
p2828
I12672
sS'GGGTTT'
p2829
I23011
sS'TGCGAC'
p2830
I6272
sS'AGATCC'
p2831
I15131
sS'TGCGAG'
p2832
I11676
sS'AACGGC'
p2833
I7624
sS'ATTCGG'
p2834
I4905
sS'ATTGCA'
p2835
I11903
sS'GACTAG'
p2836
I8193
sS'ATTGCG'
p2837
I3597
sS'TTTGAC'
p2838
I10582
sS'TTTGAA'
p2839
I20943
sS'CGGGCT'
p2840
I29327
sS'TGACGT'
p2841
I7054
sS'CTCGTC'
p2842
I9487
sS'CCCTGG'
p2843
I68562
sS'CCCTGA'
p2844
I35852
sS'AAGCTT'
p2845
I16328
sS'CCCTGC'
p2846
I70307
sS'GTCTCA'
p2847
I18713
sS'GATATC'
p2848
I4120
sS'TTGACG'
p2849
I3725
sS'GATATA'
p2850
I3478
sS'TGACGG'
p2851
I8097
sS'GATATG'
p2852
I5441
sS'CTCGTT'
p2853
I6364
sS'TGACGC'
p2854
I8408
sS'CTCGGA'
p2855
I15189
sS'TACTCT'
p2856
I9663
sS'CATCGT'
p2857
I4412
sS'CAGGGT'
p2858
I32752
sS'CCAGTC'
p2859
I25294
sS'GACACA'
p2860
I19399
sS'CCAGTG'
p2861
I30318
sS'TACTCG'
p2862
I3654
sS'CATCGA'
p2863
I3653
sS'CATCGC'
p2864
I8337
sS'TACTCC'
p2865
I10816
sS'NGAATT'
p2866
I3
sS'TACTCA'
p2867
I10143
sS'CATCGG'
p2868
I5687
sS'CAGGGG'
p2869
I55358
sS'CAGGGA'
p2870
I55422
sS'CAGGGC'
p2871
I62990
sS'AATCTG'
p2872
I16127
sS'CGGACT'
p2873
I9465
sS'GCCATT'
p2874
I16514
sS'AGTCGA'
p2875
I3807
sS'AATCTA'
p2876
I7251
sS'TGAACG'
p2877
I5424
sS'TCACAC'
p2878
I19021
sS'TCACAA'
p2879
I15264
sS'TCACAG'
p2880
I28296
sS'GCCATA'
p2881
I7171
sS'CGGACG'
p2882
I10316
sS'AATCTT'
p2883
I11319
sS'CGGACA'
p2884
I9289
sS'CGGACC'
p2885
I13706
sS'GCCATG'
p2886
I21447
sS'TTTTAA'
p2887
I26750
sS'CGCNNN'
p2888
I1
sS'ATTGTC'
p2889
I9358
sS'TCACAT'
p2890
I14485
sS'TGAACC'
p2891
I13364
sS'CACGGA'
p2892
I11183
sS'ATTAAA'
p2893
I14551
sS'ATTAAG'
p2894
I9214
sS'CTTACA'
p2895
I10542
sS'TCACTT'
p2896
I20246
sS'ACATCC'
p2897
I14672
sS'GTGCAG'
p2898
I31510
sS'ATTAAT'
p2899
I8323
sS'ATCATG'
p2900
I8583
sS'GAACCA'
p2901
I16199
sS'GGTATG'
p2902
I7105
sS'GGTATA'
p2903
I3648
sS'GGTATC'
p2904
I5997
sS'GAACCG'
p2905
I9312
sS'ACGAAT'
p2906
I3084
sS'GGTATT'
p2907
I8009
sS'CTGAAC'
p2908
I16948
sS'CTGAAG'
p2909
I30621
sS'NNNNGC'
p2910
I1
sS'CCCGAA'
p2911
I11706
sS'CATTGC'
p2912
I13086
sS'CCCGGC'
p2913
I59163
sS'CATTGA'
p2914
I9644
sS'AGAGGT'
p2915
I23968
sS'CATTGG'
p2916
I13246
sS'TCAACT'
p2917
I10820
sS'ATGTTA'
p2918
I8138
sS'ACACCG'
p2919
I9042
sS'CTGCCA'
p2920
I40567
sS'CTGCCC'
p2921
I70981
sS'ACACCC'
p2922
I23207
sS'ACACCA'
p2923
I17484
sS'CTGCCG'
p2924
I30142
sS'CTAGTG'
p2925
I11438
sS'TCAACC'
p2926
I11099
sS'TCAACA'
p2927
I12805
sS'CTAGTC'
p2928
I8190
sS'TCAACG'
p2929
I3952
sS'CTAGTA'
p2930
I4671
sS'CATTGT'
p2931
I13816
sS'CCCGGG'
p2932
I61367
sS'GTAATG'
p2933
I7495
sS'ACACCT'
p2934
I19574
sS'CTGCCT'
p2935
I60212
sS'TATCAC'
p2936
I6041
sS'CCTCGT'
p2937
I11337
sS'TATGAA'
p2938
I7974
sS'GAGGAC'
p2939
I27640
sS'AGACTG'
p2940
I22061
sS'GGCCTT'
p2941
I29443
sS'AGACTA'
p2942
I7883
sS'CCTCGG'
p2943
I32245
sS'CCTCGC'
p2944
I30074
sS'CCTCGA'
p2945
I10014
sS'CGAGGA'
p2946
I17985
sS'CGAGGC'
p2947
I27433
sS'CGAGGG'
p2948
I26119
sS'CACCGT'
p2949
I9380
sS'ACTTTA'
p2950
I10492
sS'ACTTTG'
p2951
I18483
sS'GAATAC'
p2952
I6519
sS'GACCTG'
p2953
I26643
sS'GACCTA'
p2954
I8023
sS'GACCTC'
p2955
I23161
sS'CACCGG'
p2956
I16204
sS'ACGCTG'
p2957
I13643
sS'CACCGA'
p2958
I9961
sS'CACCGC'
p2959
I25459
sS'GACCTT'
p2960
I15692
sS'GGACGC'
p2961
I20924
sS'TCCTGT'
p2962
I28335
sS'GGACGG'
p2963
I19275
sS'CTATTA'
p2964
I6117
sS'CACAGC'
p2965
I41698
sS'CTTATC'
p2966
I7911
sS'CACAGA'
p2967
I31621
sS'CTTATA'
p2968
I5112
sS'CACAGG'
p2969
I38771
sS'CTTATG'
p2970
I7072
sS'ACTCAT'
p2971
I11481
sS'GAGGAG'
p2972
I73533
sS'GACGTA'
p2973
I2637
sS'CGTATC'
p2974
I2233
sS'GACGTC'
p2975
I8614
sS'TAAACT'
p2976
I11179
sS'GAGGAA'
p2977
I45074
sS'AGCGAT'
p2978
I5796
sS'TTAACA'
p2979
I12050
sS'ACTCAC'
p2980
I19834
sS'TTAACC'
p2981
I9688
sS'TTGTGA'
p2982
I15252
sS'ACTCAG'
p2983
I25848
sS'CTTATT'
p2984
I10959
sS'CACAGT'
p2985
I20925
sS'AGCGAC'
p2986
I9664
sS'TAAACA'
p2987
I15108
sS'AGCGAA'
p2988
I7913
sS'GAGGAT'
p2989
I19597
sS'GACGTT'
p2990
I4921
sS'CGTATT'
p2991
I2747
sS'GAGTTC'
p2992
I16881
sS'AGTTCC'
p2993
I20537
sS'GTATGT'
p2994
I7069
sS'AGTTCA'
p2995
I14911
sS'TACTTA'
p2996
I6873
sS'CTGTGC'
p2997
I33889
sS'CTGTGA'
p2998
I28288
sS'CGGGGT'
p2999
I23372
sS'TAGGAC'
p3000
I9051
sS'GCAAAG'
p3001
I26532
sS'TAGGAA'
p3002
I17435
sS'GCAAAA'
p3003
I19359
sS'TAGGAG'
p3004
I18438
sS'GCAAAC'
p3005
I16826
sS'CGGGGC'
p3006
I65572
sS'CGGGGA'
p3007
I38524
sS'CTGTGT'
p3008
I29095
sS'CGGGGG'
p3009
I43314
sS'GTATGC'
p3010
I5197
sS'AGTTCT'
p3011
I18109
sS'GCAAAT'
p3012
I16967
sS'TAGGAT'
p3013
I8751
sS'TAATTA'
p3014
I10238
sS'ACGCTT'
p3015
I6144
sS'TGCTTT'
p3016
I28519
sS'ACAGGA'
p3017
I28333
sS'TGGGNC'
p3018
I1
sS'GTAATT'
p3019
I9181
sS'GTTACC'
p3020
I8418
sS'TATCGG'
p3021
I2071
sS'GTTTTT'
p3022
I22331
sS'GTTACG'
p3023
I2520
sS'TATCGC'
p3024
I2357
sS'TATAGT'
p3025
I3716
sS'GTCTAA'
p3026
I6345
sS'TGCTTA'
p3027
I11912
sS'GTCTAC'
p3028
I6126
sS'TGCTTC'
p3029
I26828
sS'TTCAAA'
p3030
I20939
sS'TTCAAC'
p3031
I10789
sS'GATGGA'
p3032
I18880
sS'TATAGC'
p3033
I4375
sS'TTTATC'
p3034
I10639
sS'TATAGA'
p3035
I5144
sS'AGTGGG'
p3036
I33384
sS'TATAGG'
p3037
I5015
sS'GTTACT'
p3038
I8859
sS'GGAAAA'
p3039
I35864
sS'GGAAAC'
p3040
I28086
sS'GGGCTA'
p3041
I13943
sS'GCTCTG'
p3042
I49310
sS'CCACGT'
p3043
I13240
sS'GGCGTT'
p3044
I9500
sS'AGGACC'
p3045
I24721
sS'GAATGG'
p3046
I20303
sS'GGCTTT'
p3047
I29020
sS'ACTACT'
p3048
I6934
sS'GAATGC'
p3049
I17214
sS'CCACGA'
p3050
I9053
sS'AACCTG'
p3051
I21450
sS'CCACGC'
p3052
I21970
sS'GGCGTA'
p3053
I4138
sS'GTTCCG'
p3054
I9450
sS'CAATAG'
p3055
I8133
sS'CCACGG'
p3056
I18075
sS'AACCTA'
p3057
I8119
sS'GGCTTA'
p3058
I11472
sS'ACTACC'
p3059
I7294
sS'GGCTTC'
p3060
I36128
sS'ACTACA'
p3061
I9636
sS'ACTACG'
p3062
I3322
sS'GGCTTG'
p3063
I26425
sS'TCCTAG'
p3064
I17174
sS'AGTCAG'
p3065
I23792
sS'CGTTGC'
p3066
I7223
sS'TAACAC'
p3067
I8199
sS'TCCTAC'
p3068
I12865
sS'AGTCAC'
p3069
I19401
sS'TCCTAA'
p3070
I14266
sS'TAACAG'
p3071
I11635
sS'TCATCG'
p3072
I4922
sS'AAGCGT'
p3073
I6142
sS'TCATCC'
p3074
I17914
sS'GTTTTA'
p3075
I13651
sS'TCATCA'
p3076
I13703
sS'AGTCAT'
p3077
I12921
sS'TCCTAT'
p3078
I9355
sS'TAACAT'
p3079
I8143
sS'CGTTGT'
p3080
I4530
sS'GAGCGA'
p3081
I14607
sS'TCATCT'
p3082
I18230
sS'CTTTCG'
p3083
I7828
sS'GCGGGT'
p3084
I20271
sS'AGCCGT'
p3085
I9320
sS'GAGCGC'
p3086
I29432
sS'GTTGAT'
p3087
I6906
sS'CGACCA'
p3088
I6803
sS'CGACCC'
p3089
I15737
sS'GCATAC'
p3090
I5196
sS'CGACCG'
p3091
I6930
sS'CCTTAT'
p3092
I9288
sS'GTTGAC'
p3093
I7324
sS'GTTGAA'
p3094
I10791
sS'GTTGAG'
p3095
I13682
sS'CCTTAC'
p3096
I11000
sS'CCTTAA'
p3097
I13017
sS'CCTTAG'
p3098
I14699
sS'CGACCT'
p3099
I9369
sS'CAACTC'
p3100
I16610
sS'AATAGC'
p3101
I9298
sS'CAACTG'
p3102
I15308
sS'TGTGGT'
p3103
I19902
sS'AATATC'
p3104
I6575
sS'TCGCTC'
p3105
I14601
sS'GGGGTT'
p3106
I24498
sS'GTCCCT'
p3107
I31160
sS'ATTCNN'
p3108
I3
sS'GGATGT'
p3109
I14671
sS'AATAGT'
p3110
I6700
sS'GCAGCC'
p3111
I66783
sS'CAACTT'
p3112
I13385
sS'ACTGTA'
p3113
I9178
sS'GGGGTG'
p3114
I52255
sS'GGATGA'
p3115
I17925
sS'GGGGTC'
p3116
I33106
sS'GGGGTA'
p3117
I12827
sS'TCTCCG'
p3118
I19586
sS'GAGTCC'
p3119
I23881
sS'AAACTG'
p3120
I22154
sS'TCTCCC'
p3121
I54131
sS'CCCTTT'
p3122
I34787
sS'TCTCCA'
p3123
I37345
sS'AAACTC'
p3124
I18248
sS'CTATGA'
p3125
I7171
sS'AGTACG'
p3126
I2648
sS'ACGCGC'
p3127
I13033
sS'AGTACC'
p3128
I7695
sS'CTATGG'
p3129
I8766
sS'TGCCGC'
p3130
I22283
sS'CCCTTA'
p3131
I13525
sS'CCCTTC'
p3132
I47568
sS'TCTCCT'
p3133
I45046
sS'CCCTTG'
p3134
I27772
sS'AGTACT'
p3135
I7605
sS'CTATGT'
p3136
I7187
sS'GCCGAA'
p3137
I8983
sS'GTGGAG'
p3138
I38023
sS'GCCGAC'
p3139
I11871
sS'GTGGAC'
p3140
I14757
sS'GCCGAG'
p3141
I30089
sS'GTGGAA'
p3142
I22167
sS'GTGGAT'
p3143
I12937
sS'GCCGAT'
p3144
I5108
sS'CCTATT'
p3145
I9940
sS'ACCCGG'
p3146
I21922
sS'GTAGTC'
p3147
I6804
sS'AAATCG'
p3148
I4824
sS'GTAGTA'
p3149
I4384
sS'GTAGTG'
p3150
I8227
sS'AAATCC'
p3151
I18374
sS'ACCGAA'
p3152
I5400
sS'AAATCA'
p3153
I17225
sS'NCCATC'
p3154
I1
sS'ATGTCT'
p3155
I12574
sS'TCCCGA'
p3156
I13691
sS'CACGCT'
p3157
I11679
sS'AAATCT'
p3158
I16044
sS'ACCGAT'
p3159
I2759
sS'GTAGTT'
p3160
I7793
sS'AGATAA'
p3161
I11849
sS'TGCCGT'
p3162
I8013
sS'CGTTAT'
p3163
I2399
sS'GATGAT'
p3164
I9215
sS'GGAGCA'
p3165
I36519
sS'GGAGCC'
p3166
I60855
sS'AAAGTG'
p3167
I21739
sS'CCAAAT'
p3168
I16577
sS'GGAGCG'
p3169
I34041
sS'AAAACT'
p3170
I18307
sS'GATGAC'
p3171
I11980
sS'GATGAA'
p3172
I14519
sS'GCTCTT'
p3173
I25291
sS'GATGAG'
p3174
I19089
sS'AAAACC'
p3175
I20578
sS'AAAACA'
p3176
I30739
sS'AAAACG'
p3177
I8558
sS'GGAGCT'
p3178
I44592
sS'CCAAAG'
p3179
I27982
sS'TCGCGG'
p3180
I14229
sS'CGGTCC'
p3181
I15255
sS'TCGCGC'
p3182
I13076
sS'ACGTCG'
p3183
I3782
sS'TACCCT'
p3184
I11859
sS'AGATCA'
p3185
I12676
sS'GCCACC'
p3186
I43135
sS'AGAAAT'
p3187
I22897
sS'CGACGG'
p3188
I8136
sS'GCCACG'
p3189
I19149
sS'AGATCG'
p3190
I5155
sS'ATGTCA'
p3191
I12286
sS'TCGCGT'
p3192
I4735
sS'GTGCAA'
p3193
I12508
sS'ACCCGT'
p3194
I5940
sS'AGAAAG'
p3195
I40555
sS'CGACGA'
p3196
I3900
sS'CTAGAC'
p3197
I8487
sS'AGAAAC'
p3198
I25420
sS'TACCCA'
p3199
I12536
sS'AGAAAA'
p3200
I41188
sS'TACCCC'
p3201
I12832
sS'ATGTAC'
p3202
I5040
sS'ACTTCG'
p3203
I6095
sS'ATGTAA'
p3204
I10529
sS'ATGTAG'
p3205
I8036
sS'CCTATA'
p3206
I5008
sS'ACGTCA'
p3207
I7049
sS'CCGGCA'
p3208
I20283
sS'GACGAC'
p3209
I5940
sS'ATGTCG'
p3210
I3486
sS'ATGTAT'
p3211
I7079
sS'AAAGTT'
p3212
I15949
sS'GGCGTC'
p3213
I17562
sS'ATTAGC'
p3214
I9619
sS'AGCACT'
p3215
I22068
sS'TTAGAA'
p3216
I14421
sS'CGGCTG'
p3217
I32576
sS'TTAGAC'
p3218
I6351
sS'CGGCTC'
p3219
I31645
sS'TTAGAG'
p3220
I13745
sS'CGGCTA'
p3221
I6289
sS'AGCACC'
p3222
I27100
sS'AGCACA'
p3223
I24482
sS'AGCACG'
p3224
I11099
sS'GGTCGG'
p3225
I15078
sS'CGGCTT'
p3226
I15366
sS'TTAGAT'
p3227
I7126
sS'ATATCG'
p3228
I1334
sS'ACCTAT'
p3229
I5681
sS'CCAGCC'
p3230
I77524
sS'AAAGAG'
p3231
I31728
sS'ATATCA'
p3232
I5534
sS'GCGCTG'
p3233
I35419
sS'TTATTT'
p3234
I23685
sS'TGTGAG'
p3235
I25654
sS'TGTGAA'
p3236
I19685
sS'CTACCT'
p3237
I15126
sS'TGTGAC'
p3238
I17446
sS'ATATCT'
p3239
I6433
sS'CCAGCT'
p3240
I50402
sS'AAAGAT'
p3241
I14799
sS'TGTGAT'
p3242
I14338
sS'TTATTG'
p3243
I9460
sS'TTATTA'
p3244
I10269
sS'CATGAT'
p3245
I8586
sS'TTATTC'
p3246
I11592
sS'AGACGG'
p3247
I13104
sS'TTTTAT'
p3248
I18374
sS'GCGAAC'
p3249
I6326
sS'CTTACT'
p3250
I10590
sS'TCCACT'
p3251
I21036
sS'TACAAA'
p3252
I14351
sS'AGACGA'
p3253
I6224
sS'TACAAC'
p3254
I6492
sS'CCTCTG'
p3255
I57401
sS'AGGTGG'
p3256
I45350
sS'CCTCTC'
p3257
I57362
sS'AGGTGC'
p3258
I26062
sS'CCTCTA'
p3259
I17538
sS'AGGTGA'
p3260
I28098
sS'TACAAT'
p3261
I6759
sS'TCCACA'
p3262
I22810
sS'TTTTAG'
p3263
I14784
sS'TCCACC'
p3264
I32042
sS'CTTACC'
p3265
I11871
sS'ACATCA'
p3266
I12010
sS'TTTTAC'
p3267
I13372
sS'TCCACG'
p3268
I11950
sS'AGGTGT'
p3269
I19576
sS'CCTCTT'
p3270
I36207
sS'GCGTGA'
p3271
I10312
sS'TATGAG'
p3272
I7406
sS'CCCGGA'
p3273
I28244
sS'TATGAC'
p3274
I5391
sS'TTGTGT'
p3275
I16722
sS'TGGAAT'
p3276
I22084
sS'TAGGTG'
p3277
I12671
sS'TTGTGC'
p3278
I14301
sS'TATGAT'
p3279
I4792
sS'TTGTGG'
p3280
I19488
sS'CCCGGT'
p3281
I15342
sS'GGCGTG'
p3282
I22464
sS'TGGAAG'
p3283
I33251
sS'TGGAAC'
p3284
I16263
sS'TGGAAA'
p3285
I31124
sS'TGAGGA'
p3286
I31749
sS'AAGAGG'
p3287
I36207
sS'TGAGGC'
p3288
I35139
sS'AAGAGA'
p3289
I30067
sS'AAGAGC'
p3290
I25300
sS'TGAGGG'
p3291
I36435
sS'GCTTAG'
p3292
I12298
sS'TNCCAT'
p3293
I1
sS'GCTTAC'
p3294
I7821
sS'GCTTAA'
p3295
I9949
sS'TGATTC'
p3296
I13250
sS'AAGCGC'
p3297
I13964
sS'AAGAGT'
p3298
I15118
sS'AAGCGA'
p3299
I8575
sS'TGAGGT'
p3300
I21765
sS'GCTTAT'
p3301
I7243
sS'CTGCTA'
p3302
I15092
sS'GCGTGT'
p3303
I10977
sS'CTGCTC'
p3304
I47569
sS'ACTTCT'
p3305
I18929
sS'GACCGT'
p3306
I5471
sS'CTGCTG'
p3307
I67027
sS'CGGTCA'
p3308
I7520
sS'GGTCGT'
p3309
I5588
sS'CTAGAG'
p3310
I17814
sS'CTAGAA'
p3311
I13856
sS'GAAAGT'
p3312
I18146
sS'GACCGA'
p3313
I7329
sS'GACCGC'
p3314
I13444
sS'ACTTCC'
p3315
I27265
sS'CTGCTT'
p3316
I34596
sS'ACTTCA'
p3317
I15814
sS'CTAGAT'
p3318
I7519
sS'AAGTGT'
p3319
I13914
sS'CGGTCT'
p3320
I9465
sS'GGTCGC'
p3321
I13320
sS'GGTCGA'
p3322
I4883
sS'CGTCGC'
p3323
I9735
sS'GCGTGG'
p3324
I21960
sS'CGTCGG'
p3325
I8459
sS'GCGTGC'
p3326
I15646
sS'TGCTCA'
p3327
I24428
sS'TTCATC'
p3328
I14513
sS'TGCTCC'
p3329
I36528
sS'TTCATA'
p3330
I7976
sS'TTCATG'
p3331
I13315
sS'TGCTCG'
p3332
I10618
sS'GTACAA'
p3333
I5737
sS'CAGCAG'
p3334
I67042
sS'TACACT'
p3335
I7568
sS'GCTTTG'
p3336
I27013
sS'CAGCAC'
p3337
I36021
sS'CAGCAA'
p3338
I27534
sS'GTACAC'
p3339
I5729
sS'TCTGAC'
p3340
I17898
sS'TTCATT'
p3341
I20727
sS'GCTTTA'
p3342
I12609
sS'TGGCCG'
p3343
I23606
sS'GCTGCA'
p3344
I44596
sS'AACTCT'
p3345
I16406
sS'TGGCCC'
p3346
I40607
sS'TGGCCA'
p3347
I36348
sS'GTAGCA'
p3348
I9440
sS'TGCTCT'
p3349
I31430
sS'AGCAAA'
p3350
I24866
sS'TGGCCT'
p3351
I37760
sS'AACTCC'
p3352
I22200
sS'GCTGCT'
p3353
I54238
sS'AACTCG'
p3354
I6613
sS'CAGTCG'
p3355
I8629
sS'CTACAA'
p3356
I10274
sS'GGATCC'
p3357
I19915
sS'TGAAGA'
p3358
I21474
sS'AATATT'
p3359
I11115
sS'GTTCGA'
p3360
I4041
sS'CAACCT'
p3361
I17252
sS'CAGTTA'
p3362
I10894
sS'GCTGCC'
p3363
I61319
sS'GGCACG'
p3364
I13583
sS'GGCACA'
p3365
I24778
sS'GACAAT'
p3366
I9353
sS'GGCACC'
p3367
I29351
sS'CAACCG'
p3368
I7120
sS'ACGACC'
p3369
I5588
sS'AATATG'
p3370
I8028
sS'CGGTCG'
p3371
I6927
sS'AATATA'
p3372
I7055
sS'AGCAAG'
p3373
I25964
sS'CAACCA'
p3374
I15399
sS'CTTCGT'
p3375
I6775
sS'GACAAA'
p3376
I17940
sS'GGCACT'
p3377
I22478
sS'GACAAC'
p3378
I9757
sS'CAGAAC'
p3379
I21489
sS'GACAAG'
p3380
I16706
sS'GCTGCG'
p3381
I36548
sS'GCGGCG'
p3382
I59851
sS'GCAATA'
p3383
I6406
sS'GAATTT'
p3384
I17739
sS'CGATGG'
p3385
I7274
sS'GACACT'
p3386
I14786
sS'TCCCAT'
p3387
I21116
sS'CGATGC'
p3388
I5987
sS'GTAAAT'
p3389
I11205
sS'CGATGA'
p3390
I4932
sS'GAATTA'
p3391
I9505
sS'GAATTC'
p3392
I16983
sS'GAATTG'
p3393
I11447
sS'TCCCAA'
p3394
I26429
sS'CGATGT'
p3395
I3906
sS'GTAAAA'
p3396
I13386
sS'GTAAAG'
p3397
I11520
sS'TCCCAG'
p3398
I62826
sS'GGATTT'
p3399
I18374
sS'GTGCGT'
p3400
I9053
sS'CAAGTA'
p3401
I9005
sS'ATGGTA'
p3402
I6624
sS'GGATTC'
p3403
I16407
sS'GGATTA'
p3404
I10710
sS'AGGTCC'
p3405
I22129
sS'AGCGGC'
p3406
I29839
sS'GATAAG'
p3407
I7897
sS'ATGGTG'
p3408
I16286
sS'ATATAG'
p3409
I4103
sS'TCTGTG'
p3410
I31604
sS'CTATCC'
p3411
I8176
sS'GTCCCG'
p3412
I22614
sS'AACTCA'
p3413
I15955
sS'AACCGG'
p3414
I8601
sS'CTCCTT'
p3415
I41255
sS'GGCGGA'
p3416
I31474
sS'CAGATA'
p3417
I10794
sS'AACCGC'
p3418
I9167
sS'AACCGA'
p3419
I5681
sS'TCTGTT'
p3420
I21259
sS'AAAGCG'
p3421
I11342
sS'CTCCTG'
p3422
I61053
sS'AACCGT'
p3423
I4223
sS'CTCCTA'
p3424
I18433
sS'CTCCTC'
p3425
I73524
sS'GGCGGT'
p3426
I20062
sS'AAAGAC'
p3427
I18928
sS'GACGCC'
p3428
I17565
sS'CCCACA'
p3429
I35726
sS'CCCACC'
p3430
I65784
sS'TACTTC'
p3431
I10086
sS'AGCCTT'
p3432
I26823
sS'CCGATT'
p3433
I4835
sS'CCCACT'
p3434
I33388
sS'ACTTTT'
p3435
I17990
sS'AACAAT'
p3436
I12250
sS'GACGCT'
p3437
I10926
sS'AGCGGT'
p3438
I9561
sS'CCGATA'
p3439
I2068
sS'AGCCTG'
p3440
I50049
sS'AGCCTA'
p3441
I12628
sS'AGCCTC'
p3442
I45115
sS'GTACCC'
p3443
I8527
sS'GAGTTT'
p3444
I18238
sS'TGGTTA'
p3445
I9704
sS'CGCCTT'
p3446
I17742
sS'TGGTTC'
p3447
I16196
sS'TCNNNN'
p3448
I4
sS'CAGAGT'
p3449
I24377
sS'GCATCT'
p3450
I18185
sS'ACCTCG'
p3451
I12129
sS'ACGAAA'
p3452
I4784
sS'CGCCTC'
p3453
I41480
sS'GCGCCA'
p3454
I22952
sS'CGCCTA'
p3455
I7292
sS'GCGCCG'
p3456
I40478
sS'CGCCTG'
p3457
I33017
sS'GTACCT'
p3458
I9114
sS'CAGAGG'
p3459
I57404
sS'GCATCC'
p3460
I19763
sS'GCATCA'
p3461
I12795
sS'CAGAGC'
p3462
I49321
sS'AAAATT'
p3463
I17477
sS'CAGAGA'
p3464
I43064
sS'TAGCTA'
p3465
I6193
sS'AGACTC'
p3466
I19201
sS'CCTAGA'
p3467
I15945
sS'CCTAGC'
p3468
I16973
sS'TTTGCT'
p3469
I24846
sS'CGGGAG'
p3470
I42661
sS'TGCGGT'
p3471
I10006
sS'CCTAGG'
p3472
I21786
sS'TAAGCA'
p3473
I11908
sS'TGCGGC'
p3474
I22987
sS'TTTGCC'
p3475
I21213
sS'CCTAGT'
p3476
I11024
sS'TGCGGG'
p3477
I26608
sS'TTTGCG'
p3478
I7176
sS'TGAGTT'
p3479
I15962
sS'GGGACG'
p3480
I22696
sS'CGGGAC'
p3481
I22613
sS'ATCGCT'
p3482
I5791
sS'ATCGCC'
p3483
I7426
sS'TGAGTG'
p3484
I21919
sS'ATCGCA'
p3485
I4352
sS'TGAGTA'
p3486
I10137
sS'ATCGCG'
p3487
I4849
sS'TGAGTC'
p3488
I21624
sS'AAGGTG'
p3489
I23445
sS'ACGGCT'
p3490
I9318
sS'CATCAT'
p3491
I10784
sS'AAGGTA'
p3492
I10629
sS'AAGCGG'
p3493
I15220
sS'ACGGCA'
p3494
I8018
sS'CATCAC'
p3495
I15358
sS'AAGGTT'
p3496
I13389
sS'CATCAA'
p3497
I10429
sS'CATCAG'
p3498
I18397
sS'ACGGCG'
p3499
I11347
sS'TCACCT'
p3500
I28094
sS'TCTAAG'
p3501
I11954
sS'TCGTTT'
p3502
I6061
sS'CGGAAT'
p3503
I6294
sS'GTGGCT'
p3504
I34173
sS'ATCGAT'
p3505
I2005
sS'TCACCG'
p3506
I11758
sS'TCACCA'
p3507
I22081
sS'TCACCC'
p3508
I27640
sS'CGGAAG'
p3509
I19287
sS'CAACCC'
p3510
I21962
sS'AACTGG'
p3511
I19574
sS'CGGCCT'
p3512
I29132
sS'CGGAAC'
p3513
I9454
sS'AGCTCG'
p3514
I13274
sS'CGGAAA'
p3515
I11860
sS'TAGCTT'
p3516
I10080
sS'ATCCAG'
p3517
I19643
sS'ATGGCG'
p3518
I11495
sS'TGTGTA'
p3519
I11537
sS'ATGGCC'
p3520
I18134
sS'ATGGCA'
p3521
I17217
sS'TTCAGA'
p3522
I23043
sS'ATGGCT'
p3523
I17605
sS'TGTGTT'
p3524
I20087
sS'CCAAGT'
p3525
I19530
sS'GAACAT'
p3526
I9626
sS'AGATTA'
p3527
I8148
sS'GAAACG'
p3528
I10278
sS'GAAACA'
p3529
I22849
sS'GAAACC'
p3530
I21815
sS'ATGCAT'
p3531
I11153
sS'CTGAGT'
p3532
I25853
sS'AGGTAC'
p3533
I9119
sS'GAAACT'
p3534
I20356
sS'AGAATG'
p3535
I21314
sS'AGAATA'
p3536
I11038
sS'ACATAC'
p3537
I7080
sS'CTGAGC'
p3538
I42932
sS'CTGAGA'
p3539
I34089
sS'CTGAGG'
p3540
I49854
sS'CATACC'
p3541
I7107
sS'CATACA'
p3542
I8453
sS'CATACG'
p3543
I2012
sS'GCAATC'
p3544
I9023
sS'TCAAAT'
p3545
I13743
sS'GTCCAT'
p3546
I9627
sS'AGGGGT'
p3547
I29414
sS'CAGGAC'
p3548
I32625
sS'CATACT'
p3549
I6125
sS'GTCCAG'
p3550
I25298
sS'CAAGCT'
p3551
I19791
sS'TCAAAG'
p3552
I19892
sS'TCAAAA'
p3553
I17883
sS'TCAAAC'
p3554
I12966
sS'CGGCGG'
p3555
I52585
sS'TTGATG'
p3556
I10424
sS'ATCGAG'
p3557
I4032
sS'CGGCGC'
p3558
I40481
sS'TTGATC'
p3559
I7459
sS'CGGCGA'
p3560
I14110
sS'TTGATA'
p3561
I5856
sS'AAGTGA'
p3562
I20240
sS'AACTGC'
p3563
I19222
sS'CGGCGT'
p3564
I11777
sS'ATCGAC'
p3565
I2180
sS'TATAAG'
p3566
I5129
sS'TCGTCT'
p3567
I6224
sS'CGGTTA'
p3568
I3412
sS'GGTTTA'
p3569
I9507
sS'CGGTTC'
p3570
I9317
sS'GGTTTC'
p3571
I21803
sS'TTTACA'
p3572
I16762
sS'CGGTTG'
p3573
I7123
sS'GGTTTG'
p3574
I18742
sS'CCATTG'
p3575
I15172
sS'CGAGTC'
p3576
I10020
sS'GCTGTG'
p3577
I41687
sS'GGTTTT'
p3578
I20575
sS'CGGTTT'
p3579
I7813
sS'GCTGTA'
p3580
I12916
sS'AGGGGC'
p3581
I57264
sS'TCTCAA'
p3582
I18153
sS'AGGTTG'
p3583
I17261
sS'AGGTTC'
p3584
I15721
sS'AGGTTA'
p3585
I10210
sS'CNNNNN'
p3586
I5
sS'ACTCCT'
p3587
I24756
sS'TTTTTC'
p3588
I31291
sS'TCCATC'
p3589
I18886
sS'TTTTTA'
p3590
I24064
sS'TTTTTG'
p3591
I23910
sS'GAGGGG'
p3592
I76128
sS'TTAAAT'
p3593
I15948
sS'AGGTTT'
p3594
I18703
sS'TAAGCG'
p3595
I4504
sS'TATGCC'
p3596
I6752
sS'TTAAAC'
p3597
I11025
sS'ATACGT'
p3598
I2034
sS'TTAAAA'
p3599
I26748
sS'ACTCCG'
p3600
I12308
sS'TTAAAG'
p3601
I16692
sS'ACTCCA'
p3602
I24032
sS'TTTTTT'
p3603
I78510
sS'ACTCCC'
p3604
I29002
sS'TAGGCT'
p3605
I12626
sS'GTCACG'
p3606
I8583
sS'CTGTAC'
p3607
I9261
sS'GCAACT'
p3608
I13271
sS'GTCACC'
p3609
I21012
sS'CTGTAG'
p3610
I15844
sS'GTCACA'
p3611
I17437
sS'GCAACG'
p3612
I7222
sS'GGTCTT'
p3613
I16761
sS'GTCACT'
p3614
I18043
sS'TAGGCG'
p3615
I7293
sS'GCAACC'
p3616
I15792
sS'CTGTAT'
p3617
I9543
sS'GCAACA'
p3618
I15785
sS'TAGGCC'
p3619
I13077
sS'ATTCAT'
p3620
I13313
sS'TCCCAC'
p3621
I35601
sS'GCGATT'
p3622
I5341
sS'TCGTGT'
p3623
I4787
sS'TTCACT'
p3624
I18314
sS'GTCTCT'
p3625
I27017
sS'AACATT'
p3626
I13256
sS'ATTCAG'
p3627
I17822
sS'ATTCAA'
p3628
I12995
sS'ATTCAC'
p3629
I12666
sS'GTCTCC'
p3630
I32669
sS'TCGTGG'
p3631
I9047
sS'GCGATG'
p3632
I8334
sS'TTCACC'
p3633
I18817
sS'GCGATA'
p3634
I2356
sS'TTCACA'
p3635
I19636
sS'GCGATC'
p3636
I6389
sS'GAAGGC'
p3637
I33705
sS'GAAGGA'
p3638
I39205
sS'GAAGGG'
p3639
I47575
sS'CGATTA'
p3640
I2081
sS'GGAACC'
p3641
I23165
sS'AGACTT'
p3642
I15651
sS'GGAACA'
p3643
I20713
sS'GGAACG'
p3644
I11171
sS'AGCCAC'
p3645
I34182
sS'TACTGC'
p3646
I11326
sS'CGATTT'
p3647
I4824
sS'GAAGGT'
p3648
I19922
sS'CTCGCT'
p3649
I18913
sS'CAATCG'
p3650
I3943
sS'CAATCA'
p3651
I12735
sS'GGAACT'
p3652
I20546
sS'TCCTGA'
p3653
I30254
sS'AGTCCA'
p3654
I16518
sS'TCCTGC'
p3655
I50200
sS'AGTCCC'
p3656
I29418
sS'ACTAAA'
p3657
I10172
sS'TCCTGG'
p3658
I56470
sS'ACTAAC'
p3659
I6270
sS'TAACGC'
p3660
I3471
sS'CAGCTG'
p3661
I57335
sS'CAGCTA'
p3662
I15814
sS'CAGCTC'
p3663
I50941
sS'ACTAAT'
p3664
I6119
sS'GATTGT'
p3665
I8019
sS'CGACTC'
p3666
I9622
sS'AGTCCT'
p3667
I22420
sS'CCACTC'
p3668
I28867
sS'CAGCTT'
p3669
I30358
sS'TAACGT'
p3670
I2867
sS'AGCCAG'
p3671
I50361
sS'GTACTT'
p3672
I7638
sS'CGACAT'
p3673
I3487
sS'TTGTTC'
p3674
I15613
sS'TTGTTA'
p3675
I11685
sS'TTGTTG'
p3676
I15159
sS'ACGGAA'
p3677
I7750
sS'CCGAGC'
p3678
I25601
sS'CCGCGT'
p3679
I13360
sS'CGACAC'
p3680
I6347
sS'CGACAA'
p3681
I4109
sS'CGACAG'
p3682
I9971
sS'GTACTA'
p3683
I3325
sS'CCGCGC'
p3684
I48049
sS'CCGAGT'
p3685
I12133
sS'CCGCGA'
p3686
I14234
sS'TACGCA'
p3687
I3227
sS'CCGCGG'
p3688
I44418
sS'TTGTTT'
p3689
I29280
sS'GCATAT'
p3690
I6533
sS'TCCGTT'
p3691
I6560
sS'GGAGGC'
p3692
I71823
sS'AATAAC'
p3693
I9232
sS'AATAAA'
p3694
I23300
sS'AATAAG'
p3695
I10963
sS'ATCGTT'
p3696
I2647
sS'GGATTG'
p3697
I12771
sS'AATAAT'
p3698
I11615
sS'ACGGTG'
p3699
I9376
sS'CCAACC'
p3700
I22978
sS'CCAACA'
p3701
I18160
sS'CCAACG'
p3702
I7641
sS'GGGATT'
p3703
I20895
sS'CGCCGC'
p3704
I59881
sS'AGTAAA'
p3705
I13637
sS'CGCCGA'
p3706
I13446
sS'GAGTAG'
p3707
I12165
sS'CGCCGG'
p3708
I34297
sS'GAGTAA'
p3709
I10119
sS'AGTAAG'
p3710
I10600
sS'CTCAGG'
p3711
I46605
sS'CTAAAA'
p3712
I14790
sS'CTCAGC'
p3713
I48595
sS'CTCAGA'
p3714
I32598
sS'TATTGC'
p3715
I6409
sS'TCGAGA'
p3716
I6080
sS'GTGTAG'
p3717
I9203
sS'TCGAGC'
p3718
I6900
sS'AGTAAT'
p3719
I7886
sS'GTGTAC'
p3720
I5732
sS'TCGAGG'
p3721
I10011
sS'GTGGCA'
p3722
I24784
sS'CATATT'
p3723
I8031
sS'GCTTCC'
p3724
I42957
sS'GTGGCG'
p3725
I22158
sS'GCCGCC'
p3726
I69242
sS'GCCGCA'
p3727
I22977
sS'GCCGCG'
p3728
I44490
sS'ACACTT'
p3729
I13904
sS'CTCGGT'
p3730
I11801
sS'CATATC'
p3731
I5447
sS'CATATA'
p3732
I4995
sS'TCAGCA'
p3733
I29027
sS'ACACTC'
p3734
I15793
sS'ACACTA'
p3735
I6771
sS'ACACTG'
p3736
I20626
sS'GCCGCT'
p3737
I29854
sS'ACCGGA'
p3738
I8644
sS'AAATAA'
p3739
I23703
sS'ACCGGC'
p3740
I13916
sS'AAATAC'
p3741
I13670
sS'CTTTAA'
p3742
I16712
sS'AATCCT'
p3743
I16667
sS'AAATAG'
p3744
I13256
sS'AACTTA'
p3745
I7592
sS'CAGGTA'
p3746
I16513
sS'AACTTC'
p3747
I15984
sS'CAGGTC'
p3748
I26641
sS'CACGAC'
p3749
I5926
sS'ACGTTT'
p3750
I6425
sS'GTCAGG'
p3751
I27468
sS'CTTTAT'
p3752
I12836
sS'AATCCC'
p3753
I20871
sS'GCTCGT'
p3754
I6863
sS'AATCCA'
p3755
I14677
sS'AAATAT'
p3756
I13846
sS'AATCCG'
p3757
I6013
sS'TCAGCG'
p3758
I14746
sS'CAGGTT'
p3759
I21446
sS'AACTTT'
p3760
I15934
sS'TCTGTC'
p3761
I26082
sS'GGGATA'
p3762
I9679
sS'GGGATC'
p3763
I18253
sS'GGGTGT'
p3764
I23212
sS'GGGATG'
p3765
I29277
sS'GATGCT'
p3766
I16903
sS'CGCAGT'
p3767
I12775
sS'TCTGTA'
p3768
I13568
sS'GAGCCT'
p3769
I36075
sS'GGAGAC'
p3770
I32685
sS'GGGTGA'
p3771
I27648
sS'GGAGAA'
p3772
I41041
sS'GGGTGC'
p3773
I29691
sS'GGAGAG'
p3774
I61798
sS'AATCAA'
p3775
I11754
sS'GGGTGG'
p3776
I61435
sS'GAGCCA'
p3777
I37073
sS'CGCAGG'
p3778
I32424
sS'GATGCG'
p3779
I7926
sS'CGCAGA'
p3780
I17576
sS'GATGCA'
p3781
I14786
sS'CGCAGC'
p3782
I36559
sS'GATGCC'
p3783
I17103
sS'CGGATT'
p3784
I6010
sS'GGTAGT'
p3785
I7301
sS'ACCCCT'
p3786
I29411
sS'GCCAAT'
p3787
I14184
sS'GGCGGG'
p3788
I88189
sS'AGAAGT'
p3789
I18932
sS'ACCCCA'
p3790
I34194
sS'GGTAGA'
p3791
I11736
sS'ACCCCC'
p3792
I35662
sS'CGGATG'
p3793
I8408
sS'GCCAAG'
p3794
I30486
sS'CGGATA'
p3795
I2823
sS'ACCCCG'
p3796
I23364
sS'GGTAGG'
p3797
I17918
sS'AGAAGA'
p3798
I28869
sS'AGAAGC'
p3799
I31560
sS'GCAAGA'
p3800
I19722
sS'AGAAGG'
p3801
I39065
sS'CACTCC'
p3802
I31509
sS'CACTCA'
p3803
I21922
sS'CACTCG'
p3804
I10090
sS'TGCGTT'
p3805
I6723
sS'GCAAGG'
p3806
I27427
sS'AGCTTT'
p3807
I22051
sS'CCCCGG'
p3808
I50566
sS'TGCGTA'
p3809
I3222
sS'CCCCGC'
p3810
I80247
sS'CCCCGA'
p3811
I22822
sS'AGCTTC'
p3812
I26429
sS'AGCTTA'
p3813
I9404
sS'AGCTTG'
p3814
I19779
sS'ATACGA'
p3815
I1667
sS'AGACCA'
p3816
I20060
sS'TTAGCT'
p3817
I11693
sS'TTAGCC'
p3818
I11556
sS'TTAGCA'
p3819
I13197
sS'CTAGCA'
p3820
I11913
sS'TTAGCG'
p3821
I4384
sS'TACCGG'
p3822
I4941
sS'TCATAT'
p3823
I5971
sS'ATAGGT'
p3824
I5680
sS'ATAAGG'
p3825
I9289
sS'TGTGCT'
p3826
I24496
sS'AAGGGC'
p3827
I30220
sS'ATAAGC'
p3828
I7236
sS'AAGGGA'
p3829
I36129
sS'ATAAGA'
p3830
I8998
sS'CCAGAC'
p3831
I28188
sS'CCAGAA'
p3832
I32072
sS'CCAGAG'
p3833
I51427
sS'GCAAGT'
p3834
I14685
sS'TGTGCG'
p3835
I12997
sS'ATAAGT'
p3836
I5537
sS'AAGGGT'
p3837
I17473
sS'TGTGCC'
p3838
I24814
sS'ATAGGA'
p3839
I9350
sS'TGTGCA'
p3840
I20837
sS'ATAGGC'
p3841
I7521
sS'GCTCGC'
p3842
I21208
sS'ATACGC'
p3843
I2159
sS'CCAGAT'
p3844
I19578
sS'AGACAA'
p3845
I18723
sS'AACAAG'
p3846
I17085
sS'AGACAC'
p3847
I20222
sS'AGACAG'
p3848
I31670
sS'TTTTCT'
p3849
I41157
sS'CGCTGT'
p3850
I15088
sS'CCCACG'
p3851
I20920
sS'CGTGGG'
p3852
I20921
sS'AGACAT'
p3853
I12563
sS'CGTGGA'
p3854
I11950
sS'TTTTCG'
p3855
I5813
sS'AACAAC'
p3856
I12784
sS'CGCTGC'
p3857
I36309
sS'TTTTCC'
p3858
I35845
sS'TTTTCA'
p3859
I24860
sS'CGCTGG'
p3860
I30382
sS'TATGGA'
p3861
I7668
sS'TATGGC'
p3862
I7175
sS'CGTAGG'
p3863
I5746
sS'ATCGTC'
p3864
I3135
sS'CGTAGA'
p3865
I3703
sS'TATGGG'
p3866
I8781
sS'CGTAGC'
p3867
I5228
sS'TTGATT'
p3868
I11750
sS'TACCGT'
p3869
I2744
sS'TGGACT'
p3870
I16519
sS'CGTAGT'
p3871
I3323
sS'GCTCGA'
p3872
I6905
sS'TATGGT'
p3873
I5396
sS'TGGACA'
p3874
I17474
sS'TGGACC'
p3875
I16321
sS'TGGACG'
p3876
I9711
sS'CGTTAC'
p3877
I3157
sS'GGCGGN'
p3878
I1
sS'CCGGTT'
p3879
I8598
sS'CTAGCT'
p3880
I12747
sS'GCTTGA'
p3881
I14560
sS'TGAGAC'
p3882
I18719
sS'GCTTGC'
p3883
I19437
sS'TGAGAA'
p3884
I27033
sS'TGAGAG'
p3885
I28124
sS'GCTTGG'
p3886
I28055
sS'CCTGTT'
p3887
I23081
sS'CCGGTG'
p3888
I16205
sS'CCTTGC'
p3889
I27429
sS'ACTTAT'
p3890
I5536
sS'CCTGTC'
p3891
I31013
sS'CCTGTA'
p3892
I16069
sS'CCTGTG'
p3893
I38753
sS'CGTCTA'
p3894
I3351
sS'TGAGAT'
p3895
I15872
sS'GGTTGT'
p3896
I11875
sS'TATCAG'
p3897
I7995
sS'AATTCN'
p3898
I3
sS'TAGCGT'
p3899
I3199
sS'GGTTGG'
p3900
I22988
sS'CTGAAT'
p3901
I17818
sS'GGTTGA'
p3902
I11101
sS'TTCACG'
p3903
I6579
sS'GGTTGC'
p3904
I15805
sS'TCCCGC'
p3905
I36392
sS'GTAACG'
p3906
I3153
sS'TCCCGG'
p3907
I37408
sS'GTAACC'
p3908
I7771
sS'CGTTTT'
p3909
I8551
sS'ATTCTC'
p3910
I18072
sS'AGGGAA'
p3911
I45127
sS'ATTCTA'
p3912
I9789
sS'ATTCTG'
p3913
I18856
sS'TCATTT'
p3914
I21882
sS'GTAACT'
p3915
I8830
sS'TGCTAA'
p3916
I13216
sS'TGCTAG'
p3917
I11929
sS'CAGCGG'
p3918
I31979
sS'AGGATC'
p3919
I15240
sS'TCATTC'
p3920
I18727
sS'CGTTTG'
p3921
I7346
sS'TCATTG'
p3922
I13122
sS'ATTCTT'
p3923
I17685
sS'CGTTTC'
p3924
I10268
sS'ACCGGG'
p3925
I15346
sS'TGGCAA'
p3926
I18850
sS'CCGATC'
p3927
I5205
sS'TGGCAG'
p3928
I40570
sS'GGCCGT'
p3929
I14198
sS'CCAAGC'
p3930
I28062
sS'GCTGAC'
p3931
I22382
sS'TGGCAT'
p3932
I16046
sS'GGCCGG'
p3933
I52295
sS'NNGATC'
p3934
I1
sS'CCGATG'
p3935
I5685
sS'GGCCGC'
p3936
I52431
sS'GAACTT'
p3937
I14142
sS'GGCCGA'
p3938
I20588
sS'GGCAAT'
p3939
I10826
sS'CGCTCG'
p3940
I15815
sS'ATCNNN'
p3941
I1
sS'CTGATT'
p3942
I17104
sS'NCCCAC'
p3943
I1
sS'CCATCG'
p3944
I7274
sS'CTAAAT'
p3945
I10460
sS'CCATCC'
p3946
I28649
sS'CCATCA'
p3947
I16461
sS'CTGATC'
p3948
I12745
sS'CTGATA'
p3949
I7979
sS'TGGTTG'
p3950
I15402
sS'GGCAAC'
p3951
I16610
sS'GGCAAA'
p3952
I21229
sS'AACGGG'
p3953
I8898
sS'CTAAAG'
p3954
I12820
sS'CCATCT'
p3955
I25656
sS'CTAAAC'
p3956
I9405
sS'TTGCGT'
p3957
I4820
sS'GACACC'
p3958
I19092
sS'TACGAT'
p3959
I1581
sS'GACACG'
p3960
I8823
sS'GCGCCT'
p3961
I29966
sS'TAGCGA'
p3962
I3631
sS'TACGAG'
p3963
I2986
sS'TACGAC'
p3964
I2073
sS'GGAAAG'
p3965
I42512
sS'TCGGCG'
p3966
I13442
sS'CCGTGA'
p3967
I9308
sS'CGTGAG'
p3968
I12266
sS'TGTTAC'
p3969
I8676
sS'CTATTG'
p3970
I8143
sS'GCATAA'
p3971
I7361
sS'CTATTC'
p3972
I8704
sS'TCGATG'
p3973
I3656
sS'TCGATA'
p3974
I1360
sS'TCGATC'
p3975
I2920
sS'CTATTT'
p3976
I13260
sS'CGCGAA'
p3977
I6209
sS'GCATTG'
p3978
I11942
sS'CAGCCT'
p3979
I59630
sS'TCGATT'
p3980
I3073
sS'CTACCG'
p3981
I6130
sS'TCGGCA'
p3982
I8095
sS'AGGCAC'
p3983
I26259
sS'ACAATG'
p3984
I13812
sS'AACCAA'
p3985
I15312
sS'TGCCGG'
p3986
I20282
sS'AACCAC'
p3987
I16200
sS'AGGCAA'
p3988
I23689
sS'AACCAG'
p3989
I21572
sS'TGCCGA'
p3990
I8098
sS'TTGGAC'
p3991
I10365
sS'CGCGAG'
p3992
I16893
sS'AGGCAG'
p3993
I60217
sS'GGCGGC'
p3994
I69221
sS'AACCAT'
p3995
I9339
sS'AACAGA'
p3996
I21259
sS'GGGAGT'
p3997
I29004
sS'AACAGC'
p3998
I22955
sS'CTACCC'
p3999
I16314
sS'AACAGG'
p4000
I23082
sS'CTACCA'
p4001
I10932
sS'CCCAAG'
p4002
I34744
sS'TTGGAG'
p4003
I26445
sS'GACGAA'
p4004
I4876
sS'CCCAAC'
p4005
I24322
sS'CCCAAA'
p4006
I29416
sS'GGGAGG'
p4007
I113265
sS'GGGAGA'
p4008
I54151
sS'AACAGT'
p4009
I12597
sS'GGGAGC'
p4010
I58977
sS'ACGAAG'
p4011
I6771
sS'CCCAAT'
p4012
I12189
sS'GACGAT'
p4013
I3136
sS'GGGCGC'
p4014
I52819
sS'GGGCGA'
p4015
I21461
sS'NGCGCC'
p4016
I1
sS'GGGCGG'
p4017
I85283
sS'TCTCTT'
p4018
I30041
sS'AGGCAT'
p4019
I18211
sS'CGTTAA'
p4020
I3094
sS'CAGAAT'
p4021
I18860
sS'ACGACT'
p4022
I4366
sS'TCTCTC'
p4023
I45350
sS'TCTCTA'
p4024
I16301
sS'TCTCTG'
p4025
I43060
sS'GGGCGT'
p4026
I19647
sS'CAGAAA'
p4027
I34976
sS'ACGACA'
p4028
I4210
sS'ACGACG'
p4029
I3820
sS'CAGAAG'
p4030
I35405
sS'CCTTCA'
p4031
I25576
sS'CACTTT'
p4032
I21734
sS'CCTAAT'
p4033
I9118
sS'TGATCG'
p4034
I3212
sS'CACTTG'
p4035
I18349
sS'CCTAAC'
p4036
I10877
sS'CCTAAA'
p4037
I13926
sS'CACTTC'
p4038
I24366
sS'CCTAAG'
p4039
I14831
sS'CACTTA'
p4040
I11151
sS'GCGGAT'
p4041
I8527
sS'CTGCGG'
p4042
I36928
sS'AAGATT'
p4043
I11323
sS'CTCATG'
p4044
I15307
sS'GACTCG'
p4045
I10016
sS'CTCATC'
p4046
I19090
sS'GACTCC'
p4047
I25571
sS'CTCATA'
p4048
I7406
sS'GACTCA'
p4049
I21614
sS'AAGATA'
p4050
I9024
sS'AGTCGG'
p4051
I10055
sS'AAGATG'
p4052
I18127
sS'GACTCT'
p4053
I18108
sS'CTCATT'
p4054
I20664
sS'TTGAGA'
p4055
I18129
sS'ATCGAA'
p4056
I2771
sS'GGACTA'
p4057
I8820
sS'ATATTT'
p4058
I13863
sS'CCGAGG'
p4059
I32243
sS'AACTAA'
p4060
I8937
sS'ATAGTT'
p4061
I5731
sS'TACTGT'
p4062
I9209
sS'ATATTC'
p4063
I7256
sS'ATATTA'
p4064
I5790
sS'ATATTG'
p4065
I5847
sS'ATAGTA'
p4066
I4232
sS'ATAGTC'
p4067
I4746
sS'TACTGG'
p4068
I11578
sS'ATAGTG'
p4069
I6151
sS'ATAGAC'
p4070
I5204
sS'CAGGCA'
p4071
I46760
sS'CAGGCC'
p4072
I58949
sS'CATCCG'
p4073
I8408
sS'ACGGAG'
p4074
I13626
sS'CATCCA'
p4075
I18211
sS'AGGAAC'
p4076
I23122
sS'CATCCC'
p4077
I29260
sS'TTATGA'
p4078
I7188
sS'TTATGC'
p4079
I7348
sS'CGGAGT'
p4080
I12308
sS'TTATGG'
p4081
I7680
sS'CATCCT'
p4082
I25092
sS'AGGAAT'
p4083
I24809
sS'CAGGCT'
p4084
I50039
sS'ACGGAT'
p4085
I4017
sS'CGGAGA'
p4086
I19586
sS'CGGAGC'
p4087
I33753
sS'TTATGT'
p4088
I8326
sS'CGGAGG'
p4089
I35764
sS'ATGGAA'
p4090
I19007
sS'ATGGAC'
p4091
I9620
sS'ATGGAG'
p4092
I23383
sS'CGCTTG'
p4093
I10669
sS'CGCTTA'
p4094
I4504
sS'CGCTTC'
p4095
I17394
sS'ATGGAT'
p4096
I9568
sS'TTTGCA'
p4097
I26354
sS'CGCTTT'
p4098
I11332
sS'GCCGTG'
p4099
I16581
sS'GATCGT'
p4100
I2806
sS'TGCGGA'
p4101
I13582
sS'GAAAAG'
p4102
I33303
sS'TAAACC'
p4103
I9505
sS'GAAAAC'
p4104
I22544
sS'ATAGAT'
p4105
I5686
sS'GAAAAA'
p4106
I31338
sS'AGACCT'
p4107
I19885
sS'ACGGTT'
p4108
I4223
sS'GAAAAT'
p4109
I20666
sS'CGGCAT'
p4110
I6590
sS'ACAAGG'
p4111
I19937
sS'ACAAGA'
p4112
I15715
sS'ACAAGC'
p4113
I15147
sS'ACACGT'
p4114
I6558
sS'CTGCGT'
p4115
I13990
sS'GCGGAG'
p4116
I41133
sS'CATAAG'
p4117
I7079
sS'GCGGAA'
p4118
I14786
sS'CATAAA'
p4119
I10783
sS'GCGGAC'
p4120
I14966
sS'CATAAC'
p4121
I6153
sS'ACACGC'
p4122
I10983
sS'ACAAGT'
p4123
I11123
sS'ACACGA'
p4124
I4788
sS'ACACGG'
p4125
I9755
sS'CATAAT'
p4126
I6594
sS'GTCCCA'
p4127
I26078
sS'GCACAT'
p4128
I13173
sS'GTCCCC'
p4129
I39087
sS'ATCCCA'
p4130
I22863
sS'CTGCGA'
p4131
I13574
sS'CTGCGC'
p4132
I34791
sS'CGGCAA'
p4133
I8567
sS'CGGCAC'
p4134
I13375
sS'CGGCAG'
p4135
I30148
sS'GACGCG'
p4136
I13546
sS'CCTCCT'
p4137
I78230
sS'ATCAAA'
p4138
I11543
sS'AGCGCT'
p4139
I17410
sS'CAGGCG'
p4140
I33018
sS'CCTCCC'
p4141
I113257
sS'CCTCCA'
p4142
I51372
sS'CACGCC'
p4143
I22452
sS'CCTCCG'
p4144
I35754
sS'CGTGAT'
p4145
I5009
s.