(dp0
S'AAAAAC'
p1
I767
sS'GAACGT'
p2
I121
sS'CGTCGT'
p3
I183
sS'CTTCTT'
p4
I627
sS'CACCCT'
p5
I1663
sS'ATTGAA'
p6
I556
sS'GAACGG'
p7
I613
sS'GAACGC'
p8
I522
sS'GAACGA'
p9
I313
sS'CAACAT'
p10
I80
sS'CACCCA'
p11
I3862
sS'CTTCTA'
p12
I2650
sS'CACCCC'
p13
I3899
sS'CTTCTC'
p14
I3259
sS'CACCCG'
p15
I1439
sS'CTTCTG'
p16
I6039
sS'CGTGTG'
p17
I1925
sS'TAAGGT'
p18
I196
sS'CGTGTC'
p19
I566
sS'CGTGTA'
p20
I608
sS'AGGCAA'
p21
I934
sS'GGAAAT'
p22
I204
sS'TAAGGG'
p23
I857
sS'CGTGTT'
p24
I154
sS'TAAGGC'
p25
I557
sS'TAAGGA'
p26
I688
sS'GTCAAA'
p27
I2245
sS'GTCAAC'
p28
I1780
sS'GTCAAG'
p29
I3012
sS'CTGTCC'
p30
I3920
sS'TCAGAG'
p31
I348
sS'CTGTCA'
p32
I3083
sS'CTGTCG'
p33
I843
sS'GTATCT'
p34
I528
sS'TCAGAA'
p35
I259
sS'TCATAA'
p36
I229
sS'GTCAAT'
p37
I726
sS'GTATCA'
p38
I795
sS'GTATCC'
p39
I802
sS'GTATCG'
p40
I192
sS'CTGTCT'
p41
I1860
sS'GGTGTC'
p42
I840
sS'GGTGTA'
p43
I1168
sS'GGTGTG'
p44
I3938
sS'TATCCT'
p45
I592
sS'CCGGGG'
p46
I863
sS'TTCTGT'
p47
I4187
sS'GTATTG'
p48
I1624
sS'CCGGGC'
p49
I552
sS'CCGGGA'
p50
I503
sS'TATCCA'
p51
I1199
sS'TATCCC'
p52
I1102
sS'TATCCG'
p53
I341
sS'GCGGTC'
p54
I263
sS'ATTCCG'
p55
I209
sS'TTCTGG'
p56
I8874
sS'CCGGGT'
p57
I124
sS'ATTCCC'
p58
I700
sS'TTCTGC'
p59
I7836
sS'ATTCCA'
p60
I870
sS'TTCTGA'
p61
I7249
sS'TGCACT'
p62
I1870
sS'CGTCAT'
p63
I168
sS'TAGGAA'
p64
I938
sS'CGCGGT'
p65
I448
sS'CCCGCG'
p66
I1778
sS'CGCGGG'
p67
I3491
sS'NCCGCC'
p68
I1
sS'CGCGGC'
p69
I2778
sS'CGCGGA'
p70
I1330
sS'ACCTGT'
p71
I1269
sS'TCATGT'
p72
I371
sS'CTCCGA'
p73
I1817
sS'TTACAG'
p74
I434
sS'CTCCGC'
p75
I6287
sS'TTACAA'
p76
I278
sS'TTACAC'
p77
I187
sS'CTCCGG'
p78
I4323
sS'TCATGC'
p79
I482
sS'ACCTGG'
p80
I4950
sS'CCGTGT'
p81
I217
sS'GTAAGC'
p82
I564
sS'TCATGG'
p83
I592
sS'ACCTGC'
p84
I4127
sS'ACCTGA'
p85
I2902
sS'TTACAT'
p86
I87
sS'CTCGAT'
p87
I123
sS'CTCCGT'
p88
I856
sS'GCCTGA'
p89
I5719
sS'GCCTGC'
p90
I8966
sS'GCCTGG'
p91
I13141
sS'TAAAGG'
p92
I1961
sS'CAAATT'
p93
I112
sS'TAAAGA'
p94
I1510
sS'GCATAA'
p95
I138
sS'TAAAGC'
p96
I1087
sS'GCCTGT'
p97
I3140
sS'CGTCAA'
p98
I432
sS'TAAAGT'
p99
I599
sS'CAAATA'
p100
I1094
sS'CAAATC'
p101
I420
sS'CGTGCT'
p102
I290
sS'CAAATG'
p103
I1429
sS'AATACT'
p104
I922
sS'TATCTC'
p105
I2036
sS'GGCATG'
p106
I4373
sS'GGCATA'
p107
I1640
sS'GGCATC'
p108
I1481
sS'AATACG'
p109
I434
sS'AATACA'
p110
I2241
sS'AATACC'
p111
I1476
sS'GGCATT'
p112
I533
sS'TATCTG'
p113
I4340
sS'TGCACA'
p114
I3612
sS'GAGCAC'
p115
I2038
sS'GAGCAA'
p116
I2037
sS'GAGCAG'
p117
I4314
sS'AGTAGT'
p118
I693
sS'TCTCGC'
p119
I832
sS'TCTCGA'
p120
I385
sS'TCTCGG'
p121
I995
sS'AGTAGC'
p122
I1387
sS'AGTAGA'
p123
I1453
sS'ACTGAC'
p124
I735
sS'GAGCAT'
p125
I457
sS'AAGGTT'
p126
I257
sS'TCTCGT'
p127
I155
sS'GTGTCG'
p128
I838
sS'TCGAAC'
p129
I89
sS'TCGAAA'
p130
I99
sS'GTGTCC'
p131
I3335
sS'TCGAAG'
p132
I152
sS'GTGTCA'
p133
I3065
sS'CTTGCT'
p134
I744
sS'TCGGTC'
p135
I139
sS'GTGTCT'
p136
I1879
sS'TTGAAG'
p137
I1245
sS'TCGAAT'
p138
I34
sS'CTTGCG'
p139
I625
sS'CTTGCA'
p140
I1394
sS'TCGGTA'
p141
I181
sS'CTTGCC'
p142
I1558
sS'TCACCT'
p143
I179
sS'CGAAAG'
p144
I213
sS'CGAAAA'
p145
I91
sS'CGAAAC'
p146
I132
sS'AATCAT'
p147
I845
sS'ACAGTG'
p148
I969
sS'CACGGC'
p149
I1576
sS'AAATGA'
p150
I1218
sS'AAATGG'
p151
I1081
sS'CACGGG'
p152
I1832
sS'ACAGTA'
p153
I459
sS'CGAAAT'
p154
I53
sS'ACAGTT'
p155
I65
sS'AATCAG'
p156
I3391
sS'CACGGT'
p157
I366
sS'AAATGT'
p158
I532
sS'AATCAC'
p159
I2473
sS'GGGTCT'
p160
I615
sS'TCTAGT'
p161
I435
sS'TTGCCG'
p162
I659
sS'TTGCCA'
p163
I2032
sS'TTGCCC'
p164
I2160
sS'GGGTAC'
p165
I288
sS'TCTAGG'
p166
I1438
sS'GGGTAA'
p167
I478
sS'TCTAGA'
p168
I851
sS'GGGTAG'
p169
I702
sS'TCTAGC'
p170
I866
sS'ATACGG'
p171
I100
sS'ATACAT'
p172
I69
sS'AGATGT'
p173
I302
sS'TCGCCC'
p174
I412
sS'TCGCCA'
p175
I224
sS'ATAGTC'
p176
I178
sS'TCGCCG'
p177
I156
sS'GGTAAT'
p178
I316
sS'ACCCAT'
p179
I217
sS'CGTCAG'
p180
I1056
sS'ACCCAC'
p181
I1456
sS'GGTAAC'
p182
I890
sS'ACCCAA'
p183
I1138
sS'AGATGG'
p184
I828
sS'ACCCAG'
p185
I2156
sS'GGTAAG'
p186
I1307
sS'TCGCCT'
p187
I91
sS'AGATGC'
p188
I470
sS'GCTCAC'
p189
I1094
sS'CCCCAT'
p190
I314
sS'TTGGGT'
p191
I294
sS'CACTAG'
p192
I3599
sS'CACTAA'
p193
I3213
sS'CACTAC'
p194
I2633
sS'CCCCAA'
p195
I1361
sS'CCCCAC'
p196
I2543
sS'CCCCAG'
p197
I2905
sS'CACTAT'
p198
I919
sS'TTGGGG'
p199
I1286
sS'TCGGTT'
p200
I28
sS'TTGGGA'
p201
I930
sS'TTGGGC'
p202
I749
sS'TGCCTG'
p203
I10592
sS'TGCAGA'
p204
I4616
sS'TTTCTG'
p205
I5693
sS'TGCAGC'
p206
I5790
sS'TTTCTA'
p207
I3288
sS'TTTCTC'
p208
I2768
sS'TGCAGG'
p209
I7218
sS'ACGCCT'
p210
I119
sS'GTGGCC'
p211
I2840
sS'TCAGAC'
p212
I187
sS'TTTCTT'
p213
I793
sS'TGCCTT'
p214
I1260
sS'TGCAGT'
p215
I2815
sS'ACAATT'
p216
I92
sS'AAGGAA'
p217
I2334
sS'AAGGAC'
p218
I1326
sS'GAAGGC'
p219
I1478
sS'ATATGC'
p220
I403
sS'GTTCCA'
p221
I947
sS'ATATGA'
p222
I541
sS'TACGAA'
p223
I410
sS'ATATGG'
p224
I525
sS'GATGGA'
p225
I2424
sS'AAGGAT'
p226
I312
sS'TGGTTT'
p227
I564
sS'TGACTT'
p228
I72
sS'ACTATT'
p229
I148
sS'GGTCCC'
p230
I1206
sS'GCCCAG'
p231
I5922
sS'GGTCCA'
p232
I718
sS'GCCCAA'
p233
I1970
sS'GGTCCG'
p234
I403
sS'GCCCAC'
p235
I2779
sS'TGTGTC'
p236
I1599
sS'AGACCC'
p237
I267
sS'CTTCGG'
p238
I1202
sS'TCTTGT'
p239
I834
sS'CTTCGC'
p240
I1041
sS'CTTAGT'
p241
I757
sS'TCCGGG'
p242
I3029
sS'AGGTCA'
p243
I1840
sS'AAAGTT'
p244
I113
sS'TCCGGC'
p245
I1742
sS'GGTCCT'
p246
I369
sS'TCCGGA'
p247
I1179
sS'CTTAGC'
p248
I1331
sS'TCTTGA'
p249
I1591
sS'CTTAGA'
p250
I1536
sS'TCTTGC'
p251
I1731
sS'CTTAGG'
p252
I1803
sS'ATTGTC'
p253
I459
sS'ATTGTA'
p254
I1110
sS'GCCTTT'
p255
I2767
sS'ATTTTG'
p256
I4082
sS'TCCAGG'
p257
I7283
sS'ATTTTA'
p258
I4393
sS'CGCTAG'
p259
I1518
sS'ATTTTC'
p260
I1793
sS'TCCAGC'
p261
I5293
sS'TAGCAG'
p262
I1263
sS'GATACT'
p263
I950
sS'TAGCAC'
p264
I784
sS'TAGCAA'
p265
I956
sS'GAGGTT'
p266
I419
sS'ATTTTT'
p267
I511
sS'GCCTTG'
p268
I11907
sS'GTGGGG'
p269
I3210
sS'GCCTTA'
p270
I5545
sS'TTGACA'
p271
I1014
sS'GCCTTC'
p272
I8137
sS'GATACG'
p273
I502
sS'TAGCAT'
p274
I245
sS'GATACC'
p275
I1318
sS'GATTTC'
p276
I3969
sS'TGAGCT'
p277
I221
sS'ACGGAC'
p278
I113
sS'GATCAT'
p279
I502
sS'AAGACA'
p280
I2400
sS'AAGACC'
p281
I1621
sS'GATTTA'
p282
I5580
sS'AAGACG'
p283
I808
sS'GATCAG'
p284
I2555
sS'TGAGCG'
p285
I213
sS'ACGCTG'
p286
I830
sS'GATCAC'
p287
I1983
sS'GATCAA'
p288
I1811
sS'AAGACT'
p289
I884
sS'CTTCCA'
p290
I1803
sS'GCGGTA'
p291
I342
sS'GCGGTG'
p292
I1362
sS'CGGTGT'
p293
I348
sS'TCGTTA'
p294
I335
sS'TCGTTC'
p295
I245
sS'CTTCCC'
p296
I2906
sS'TCGTTG'
p297
I508
sS'TTGGAG'
p298
I874
sS'GAGTTT'
p299
I811
sS'GCGGTT'
p300
I51
sS'ACTTGC'
p301
I1133
sS'ATGTGA'
p302
I1458
sS'ACTTGA'
p303
I1338
sS'CGGTGG'
p304
I1158
sS'ACTTGG'
p305
I1680
sS'CGGTGA'
p306
I630
sS'CGGTGC'
p307
I884
sS'TTCCTA'
p308
I5981
sS'TAGACT'
p309
I585
sS'TTCCTC'
p310
I8313
sS'ATGTGC'
p311
I1015
sS'TTCCTG'
p312
I15419
sS'TCCTTT'
p313
I3361
sS'CAGTTG'
p314
I3268
sS'TAGACG'
p315
I395
sS'TTCCTT'
p316
I2423
sS'TAGACC'
p317
I940
sS'TAGACA'
p318
I1319
sS'TCCTTG'
p319
I12119
sS'TCCTTA'
p320
I7844
sS'TCCTTC'
p321
I9610
sS'ATCTCT'
p322
I1938
sS'ACCGTT'
p323
I108
sS'TGGCGC'
p324
I807
sS'TGGCGA'
p325
I414
sS'TGGCGG'
p326
I1189
sS'ATCTCG'
p327
I1158
sS'ATCTCA'
p328
I4016
sS'ATCTCC'
p329
I3764
sS'GGCCAA'
p330
I2781
sS'ACGGAG'
p331
I272
sS'GGCCAC'
p332
I2953
sS'ACCGTG'
p333
I1561
sS'ACCGTA'
p334
I561
sS'GGCCAG'
p335
I4362
sS'ACCGTC'
p336
I541
sS'ACCGAC'
p337
I457
sS'AGAATT'
p338
I184
sS'GGCAGT'
p339
I1976
sS'CCATAA'
p340
I196
sS'CAAAGG'
p341
I1892
sS'GGTGTT'
p342
I195
sS'CAAAGA'
p343
I1276
sS'AGATTC'
p344
I377
sS'CAAAGC'
p345
I1232
sS'CCATAG'
p346
I196
sS'GGCAGA'
p347
I4620
sS'GGCAGC'
p348
I6334
sS'AACGTA'
p349
I952
sS'GGCAGG'
p350
I10008
sS'CAACGC'
p351
I198
sS'CTAACA'
p352
I875
sS'CAACGA'
p353
I126
sS'CTAACC'
p354
I861
sS'CCATAT'
p355
I104
sS'CTAACG'
p356
I259
sS'GGGGGT'
p357
I198
sS'TACGCT'
p358
I346
sS'AGATTG'
p359
I900
sS'CGATCT'
p360
I38
sS'CTCTAG'
p361
I5017
sS'CTCTAA'
p362
I4204
sS'CTCTAC'
p363
I3535
sS'GGGGGG'
p364
I848
sS'TACGCA'
p365
I891
sS'TACGCC'
p366
I886
sS'GGGGGC'
p367
I732
sS'CGATCG'
p368
I34
sS'GGGGGA'
p369
I811
sS'TACGCG'
p370
I546
sS'CTCTAT'
p371
I1201
sS'ACCGAA'
p372
I317
sS'CAGACC'
p373
I1733
sS'CAGACA'
p374
I2019
sS'CAGACG'
p375
I734
sS'TAGTTG'
p376
I2503
sS'ACTAGT'
p377
I225
sS'TAGTTC'
p378
I1572
sS'TAGTTA'
p379
I2214
sS'CAGACT'
p380
I710
sS'GCTAAG'
p381
I1231
sS'TAGTTT'
p382
I583
sS'GCTAAC'
p383
I574
sS'TCAGGG'
p384
I511
sS'GCTAAA'
p385
I818
sS'TGCATT'
p386
I938
sS'GCGAAA'
p387
I170
sS'AACCCT'
p388
I1266
sS'AACCCC'
p389
I2528
sS'AACCCA'
p390
I2791
sS'AACCCG'
p391
I1321
sS'TGCATC'
p392
I1797
sS'AGAATA'
p393
I865
sS'AGTTTG'
p394
I5503
sS'AACTGG'
p395
I5456
sS'AGTTTC'
p396
I3089
sS'AGTTTA'
p397
I4218
sS'CCCAGA'
p398
I4343
sS'CCCAGC'
p399
I7191
sS'CCCAGG'
p400
I8518
sS'AACTGT'
p401
I2349
sS'AGTTTT'
p402
I812
sS'TTGCAT'
p403
I309
sS'ACGTAT'
p404
I30
sS'AGTCAA'
p405
I1588
sS'CGAGTC'
p406
I139
sS'CCCAGT'
p407
I1831
sS'TTGACG'
p408
I325
sS'CGCATA'
p409
I567
sS'ATACTG'
p410
I618
sS'CGCATC'
p411
I747
sS'ATACTA'
p412
I350
sS'ATACTC'
p413
I200
sS'CGCATG'
p414
I2079
sS'GCGCAA'
p415
I147
sS'GCGAAT'
p416
I43
sS'ATACTT'
p417
I81
sS'CTTTTC'
p418
I4584
sS'GCGCAC'
p419
I290
sS'GCTCCG'
p420
I837
sS'TATTGT'
p421
I1844
sS'GCTCCC'
p422
I1547
sS'GCTCCA'
p423
I1286
sS'CCTACT'
p424
I514
sS'TGTACT'
p425
I701
sS'TTTAGT'
p426
I752
sS'TATTGG'
p427
I2991
sS'GCTCCT'
p428
I593
sS'GCGCAG'
p429
I574
sS'TATTGA'
p430
I2731
sS'TTTAGG'
p431
I1674
sS'TGTACG'
p432
I347
sS'CCTACG'
p433
I341
sS'TGTACA'
p434
I1422
sS'TTTAGC'
p435
I1179
sS'TGTACC'
p436
I1003
sS'CCTACC'
p437
I1250
sS'TTCGCG'
p438
I632
sS'TTCGCA'
p439
I737
sS'TTCGCC'
p440
I1190
sS'AGTATC'
p441
I576
sS'GACTAA'
p442
I5267
sS'AGTATA'
p443
I1077
sS'GACTAC'
p444
I3673
sS'AGTATG'
p445
I1563
sS'TTTGGA'
p446
I1118
sS'GACTAG'
p447
I3698
sS'TTCGCT'
p448
I475
sS'CTTTTA'
p449
I6364
sS'GACTAT'
p450
I1175
sS'AGTATT'
p451
I302
sS'TTACTC'
p452
I424
sS'TTACTA'
p453
I567
sS'TTACTG'
p454
I975
sS'ACCTTG'
p455
I7351
sS'ACCTTC'
p456
I4227
sS'ACCTTA'
p457
I3982
sS'CTAATA'
p458
I848
sS'GTAAAC'
p459
I518
sS'ACGCTT'
p460
I59
sS'ACCTTT'
p461
I1301
sS'ACAGGG'
p462
I503
sS'CTGGGA'
p463
I2173
sS'CTGGGC'
p464
I1874
sS'ACAGGC'
p465
I318
sS'ACAGGA'
p466
I387
sS'CTGGGG'
p467
I2538
sS'AGGACG'
p468
I927
sS'GCAGCT'
p469
I320
sS'CAGGAA'
p470
I1524
sS'TTTCAT'
p471
I499
sS'CAGGAG'
p472
I2164
sS'AGGACA'
p473
I2034
sS'GCGCAT'
p474
I55
sS'TTATAC'
p475
I249
sS'ACAGGT'
p476
I129
sS'CTGGGT'
p477
I539
sS'TTATAG'
p478
I376
sS'GTCAGA'
p479
I4137
sS'TCGCTG'
p480
I801
sS'GCAGCG'
p481
I339
sS'AGGACT'
p482
I926
sS'GCAGCA'
p483
I729
sS'GCAGCC'
p484
I918
sS'CAGGAT'
p485
I213
sS'CCTCAG'
p486
I2043
sS'CCTCAA'
p487
I990
sS'CCTCAC'
p488
I1185
sS'TATGTT'
p489
I459
sS'ATGGGC'
p490
I502
sS'TCTTTG'
p491
I7276
sS'ATGGGA'
p492
I745
sS'TCTTTA'
p493
I4965
sS'ATGGGG'
p494
I972
sS'TCTTTC'
p495
I3797
sS'CCTCAT'
p496
I273
sS'ACAGTC'
p497
I205
sS'TCTTTT'
p498
I1148
sS'TATGTG'
p499
I3814
sS'TATGTA'
p500
I2843
sS'ATGGGT'
p501
I169
sS'TATGTC'
p502
I1081
sS'GAAAGA'
p503
I2943
sS'ATCAAG'
p504
I2104
sS'GAAAGC'
p505
I2147
sS'TCATGA'
p506
I456
sS'GAAAGG'
p507
I4406
sS'ATCAAA'
p508
I2345
sS'GGAACT'
p509
I403
sS'GTCAGG'
p510
I6217
sS'ACGTGG'
p511
I741
sS'CATGAG'
p512
I2200
sS'ATCAAT'
p513
I526
sS'TCAAAC'
p514
I273
sS'CATGAC'
p515
I1766
sS'CATGAA'
p516
I1362
sS'TGACCT'
p517
I116
sS'GTAGCG'
p518
I227
sS'CAAGTT'
p519
I82
sS'GCTTTG'
p520
I7158
sS'GTAGCC'
p521
I532
sS'GCTTTC'
p522
I2990
sS'ACGTGT'
p523
I194
sS'GAGGAT'
p524
I460
sS'GCGGCG'
p525
I715
sS'CAAGTG'
p526
I1086
sS'GTAGCT'
p527
I275
sS'GCGGCC'
p528
I1232
sS'CAAGTC'
p529
I388
sS'GCGGCA'
p530
I540
sS'CAAGTA'
p531
I596
sS'ATTGCT'
p532
I273
sS'TAATCG'
p533
I145
sS'GGTCTT'
p534
I271
sS'TAATCA'
p535
I888
sS'TAATCC'
p536
I789
sS'CTAAGC'
p537
I777
sS'CGGCCC'
p538
I1550
sS'CGGCCA'
p539
I932
sS'CGCTAT'
p540
I298
sS'CGGCCG'
p541
I773
sS'TCGTGA'
p542
I225
sS'ATGAAG'
p543
I1002
sS'GGTCTG'
p544
I3273
sS'TAATCT'
p545
I335
sS'GGTCTC'
p546
I1705
sS'GGAGGC'
p547
I635
sS'GGTCTA'
p548
I1135
sS'AAAATG'
p549
I1753
sS'AAAATC'
p550
I349
sS'CGGCCT'
p551
I416
sS'TTCAGC'
p552
I4709
sS'TCGTCC'
p553
I417
sS'TTCAGG'
p554
I6019
sS'GAACAT'
p555
I104
sS'TCGTCG'
p556
I129
sS'TGTTTT'
p557
I1543
sS'GAACAA'
p558
I526
sS'ATCCCG'
p559
I785
sS'GAACAC'
p560
I472
sS'ATCCCC'
p561
I1594
sS'GAACAG'
p562
I737
sS'ATCCCA'
p563
I1956
sS'ATTGCA'
p564
I712
sS'CACCAC'
p565
I3324
sS'CACCAA'
p566
I2491
sS'CACCAG'
p567
I3727
sS'TCCGTG'
p568
I2123
sS'ATTGCG'
p569
I203
sS'TCCGTC'
p570
I1071
sS'TCCGTA'
p571
I827
sS'ACCAGA'
p572
I2285
sS'ACGCGA'
p573
I180
sS'CACCAT'
p574
I654
sS'AACATG'
p575
I5373
sS'AACATA'
p576
I3461
sS'AACATC'
p577
I2050
sS'GTCAGC'
p578
I4562
sS'GCACGG'
p579
I237
sS'TCAGCC'
p580
I578
sS'GCACGA'
p581
I131
sS'CAGTCC'
p582
I2721
sS'GCACGC'
p583
I207
sS'TCAGCG'
p584
I174
sS'AACAAC'
p585
I3134
sS'GCAAGC'
p586
I502
sS'GCACGT'
p587
I50
sS'CAGTCT'
p588
I1091
sS'GCAAGG'
p589
I972
sS'GTCAGT'
p590
I2004
sS'GTATAC'
p591
I240
sS'TTCCGT'
p592
I735
sS'ACGGCT'
p593
I77
sS'GTATAG'
p594
I265
sS'CCGGAA'
p595
I288
sS'CCGGAC'
p596
I170
sS'CCGGAG'
p597
I374
sS'CGTCTT'
p598
I215
sS'TGACGT'
p599
I64
sS'TTCCGG'
p600
I3951
sS'TTCCGA'
p601
I1220
sS'TTCCGC'
p602
I2838
sS'GTATAT'
p603
I169
sS'CGTCTC'
p604
I1375
sS'CGTCTA'
p605
I738
sS'CGTCTG'
p606
I2129
sS'CCGGAT'
p607
I43
sS'CTCTTC'
p608
I11809
sS'TGTTAT'
p609
I609
sS'CTCTTA'
p610
I8663
sS'CTCTTG'
p611
I13395
sS'CCCGAT'
p612
I88
sS'TACGTA'
p613
I997
sS'TACGTC'
p614
I761
sS'TCTGGT'
p615
I302
sS'AACAAA'
p616
I5959
sS'CGCGAT'
p617
I145
sS'TACGTG'
p618
I1845
sS'TGTTAG'
p619
I2045
sS'GCTGTT'
p620
I292
sS'TGTTAC'
p621
I1524
sS'CTCTTT'
p622
I4303
sS'TGTTAA'
p623
I2282
sS'CGCGAA'
p624
I615
sS'CGCGAC'
p625
I942
sS'GATATT'
p626
I448
sS'TCTGGC'
p627
I1066
sS'TACGTT'
p628
I208
sS'CGCGAG'
p629
I1811
sS'AGTCGT'
p630
I274
sS'TTACCT'
p631
I200
sS'CTCCAT'
p632
I837
sS'TTACCG'
p633
I80
sS'CTCCAC'
p634
I4237
sS'AGTCGG'
p635
I1171
sS'TTACCC'
p636
I269
sS'CTCCAG'
p637
I6149
sS'TTACCA'
p638
I336
sS'AGTCGC'
p639
I968
sS'GTACCG'
p640
I103
sS'CCGACT'
p641
I124
sS'GCCTAC'
p642
I2383
sS'GCCTAA'
p643
I2279
sS'GCCTAG'
p644
I3801
sS'CCGACA'
p645
I203
sS'GATATC'
p646
I763
sS'CCGACC'
p647
I412
sS'CCGACG'
p648
I163
sS'GCCTAT'
p649
I789
sS'TGACGG'
p650
I149
sS'CCTACA'
p651
I879
sS'CCCGAG'
p652
I1621
sS'CTCGTT'
p653
I265
sS'CTAAGT'
p654
I416
sS'GCTGTC'
p655
I1104
sS'CGCACA'
p656
I1797
sS'ATACAC'
p657
I153
sS'CGCACC'
p658
I2316
sS'GGGTCG'
p659
I509
sS'ACTGCT'
p660
I331
sS'GGGTCA'
p661
I1285
sS'CGCACG'
p662
I1505
sS'GGGTCC'
p663
I1458
sS'CTCACT'
p664
I3400
sS'TTTGTA'
p665
I2399
sS'ACTGCA'
p666
I1252
sS'TTTGTC'
p667
I1256
sS'ACTGCC'
p668
I952
sS'CGCACT'
p669
I919
sS'TTTGTG'
p670
I3641
sS'TAGAGC'
p671
I1537
sS'CTCACC'
p672
I6361
sS'CTCACA'
p673
I5453
sS'CTCACG'
p674
I2039
sS'TAGTGG'
p675
I2120
sS'GTGAGG'
p676
I3008
sS'GATTTT'
p677
I1163
sS'TAGTGC'
p678
I1295
sS'GTGAGC'
p679
I1925
sS'TAGTGA'
p680
I1618
sS'GTGAGA'
p681
I1760
sS'TCGACG'
p682
I82
sS'TCGACA'
p683
I110
sS'TCGACC'
p684
I166
sS'GATTTG'
p685
I7283
sS'GTGAGT'
p686
I1173
sS'TAGTGT'
p687
I927
sS'GTGGGA'
p688
I1718
sS'GTGGGC'
p689
I1263
sS'TCGACT'
p690
I50
sS'ACGTAA'
p691
I150
sS'CTGGTT'
p692
I254
sS'TTGAGT'
p693
I621
sS'TCAAAA'
p694
I481
sS'CGAACG'
p695
I95
sS'CGAACC'
p696
I226
sS'CGAACA'
p697
I200
sS'CTGGTG'
p698
I2869
sS'CTGGTA'
p699
I1173
sS'CTGGTC'
p700
I737
sS'CGAACT'
p701
I90
sS'CAATTG'
p702
I851
sS'NNGAAT'
p703
I1
sS'TTGCAG'
p704
I1271
sS'TCCATA'
p705
I2348
sS'CTTGAT'
p706
I216
sS'TTGCAC'
p707
I749
sS'TTGCAA'
p708
I779
sS'ACGTAC'
p709
I96
sS'GAGGGC'
p710
I3943
sS'TCGCAT'
p711
I24
sS'GTCGTG'
p712
I1526
sS'GTCGTA'
p713
I619
sS'GTCGTC'
p714
I789
sS'CCGTTT'
p715
I107
sS'ACTGAT'
p716
I169
sS'ATCTGT'
p717
I1667
sS'ATATCG'
p718
I114
sS'GTCGTT'
p719
I150
sS'TCAGAT'
p720
I68
sS'TCGCAG'
p721
I202
sS'TCCATG'
p722
I4449
sS'CCAAGC'
p723
I502
sS'TCGCAC'
p724
I93
sS'CCGTTG'
p725
I672
sS'CCGTTA'
p726
I394
sS'CCGTTC'
p727
I359
sS'AATGCT'
p728
I904
sS'GGTACG'
p729
I252
sS'GGTACA'
p730
I779
sS'GGTACC'
p731
I648
sS'TATTTG'
p732
I8426
sS'CCAGTT'
p733
I93
sS'TATTTC'
p734
I4848
sS'TATTTA'
p735
I9011
sS'CCCCCT'
p736
I821
sS'GGTACT'
p737
I337
sS'AATGCG'
p738
I684
sS'AATCTT'
p739
I561
sS'AATGCC'
p740
I1756
sS'AATGCA'
p741
I2462
sS'CCCCCC'
p742
I1181
sS'CCCCCA'
p743
I1919
sS'TATTTT'
p744
I2069
sS'CCCCCG'
p745
I1090
sS'CTTGAG'
p746
I1609
sS'ATGATG'
p747
I1686
sS'ATGATA'
p748
I743
sS'CTTGAA'
p749
I1059
sS'TGCAAC'
p750
I2176
sS'TGCAAA'
p751
I3089
sS'TGCAAG'
p752
I3304
sS'GAAGTG'
p753
I3098
sS'ATGATT'
p754
I217
sS'TATCAC'
p755
I1315
sS'CGAATC'
p756
I103
sS'TTGAGG'
p757
I1698
sS'AATCTC'
p758
I2049
sS'CAATGT'
p759
I287
sS'TTGAGC'
p760
I978
sS'TTGAGA'
p761
I1189
sS'GAGAAT'
p762
I788
sS'TGTCTT'
p763
I632
sS'CGAATA'
p764
I123
sS'TTCAGA'
p765
I4819
sS'ACTGAG'
p766
I1213
sS'AAGGCC'
p767
I2778
sS'TATCGA'
p768
I335
sS'AAGGCA'
p769
I3139
sS'ATAACA'
p770
I625
sS'AAGGCG'
p771
I1435
sS'ATAACG'
p772
I120
sS'ACTCCA'
p773
I883
sS'TTGACT'
p774
I563
sS'TGTCTG'
p775
I5644
sS'GAGAAG'
p776
I5561
sS'GAGAAA'
p777
I3758
sS'TGTCTC'
p778
I2953
sS'GAGAAC'
p779
I2536
sS'TGTCTA'
p780
I2242
sS'TGTGGC'
p781
I1892
sS'TGTGGA'
p782
I1318
sS'TGTGGG'
p783
I2474
sS'ATAACT'
p784
I276
sS'AGTAGG'
p785
I1877
sS'GGTATT'
p786
I191
sS'CAATTT'
p787
I122
sS'GCCCCG'
p788
I3026
sS'ACCAAG'
p789
I2075
sS'GGTCAG'
p790
I1709
sS'GCCCCC'
p791
I3524
sS'GGTCAA'
p792
I803
sS'ACCAAC'
p793
I1435
sS'GGTCAC'
p794
I1270
sS'GGTCAT'
p795
I218
sS'ACCAAT'
p796
I905
sS'GCCCCT'
p797
I1521
sS'GAACTG'
p798
I1853
sS'CGTGCG'
p799
I707
sS'AGGTAC'
p800
I487
sS'TTTTGC'
p801
I2334
sS'TCTTAC'
p802
I854
sS'AATTGG'
p803
I2321
sS'TCTTAA'
p804
I1505
sS'AATTGA'
p805
I2234
sS'TCTTAG'
p806
I1500
sS'AATTGC'
p807
I2089
sS'ATTACA'
p808
I1592
sS'TGGGGT'
p809
I310
sS'CGCTCG'
p810
I2439
sS'GATAAT'
p811
I692
sS'CGCTCA'
p812
I2969
sS'CGCTCC'
p813
I6011
sS'AATTGT'
p814
I1180
sS'GCCATC'
p815
I1963
sS'TCTTAT'
p816
I415
sS'GTTATG'
p817
I1513
sS'CGCTCT'
p818
I1884
sS'TGGGGG'
p819
I1364
sS'GATAAC'
p820
I1508
sS'TAGCCT'
p821
I529
sS'TGGGGC'
p822
I1153
sS'GATAAG'
p823
I2377
sS'GATCCT'
p824
I899
sS'AAGAAT'
p825
I566
sS'CGAAGT'
p826
I114
sS'CATTTG'
p827
I8534
sS'AAGAAC'
p828
I1587
sS'GATCCA'
p829
I1633
sS'AAGAAA'
p830
I2879
sS'TATTAG'
p831
I2251
sS'AAGAAG'
p832
I2978
sS'GATCCG'
p833
I862
sS'GCCCCA'
p834
I3618
sS'ATGCCG'
p835
I405
sS'CAAGGG'
p836
I855
sS'CAAGGC'
p837
I661
sS'GGTTCT'
p838
I903
sS'CAAGGA'
p839
I676
sS'GTGCGA'
p840
I489
sS'GGTTCA'
p841
I1752
sS'GGTTCC'
p842
I2344
sS'AAGGCT'
p843
I995
sS'GGTTCG'
p844
I765
sS'TAGGCA'
p845
I1590
sS'ATTATA'
p846
I1151
sS'ATTATC'
p847
I465
sS'TAGAAT'
p848
I427
sS'CAAACG'
p849
I260
sS'ATTATG'
p850
I1242
sS'AGTCTT'
p851
I506
sS'TAGAAA'
p852
I1434
sS'TAGAAC'
p853
I981
sS'ATTATT'
p854
I187
sS'TAGAAG'
p855
I1709
sS'AGTCTA'
p856
I1778
sS'AGTCTC'
p857
I2426
sS'AGTCTG'
p858
I4186
sS'TAACTC'
p859
I380
sS'TAACTA'
p860
I598
sS'TAACTG'
p861
I1076
sS'ATCTAT'
p862
I520
sS'ACGCGT'
p863
I43
sS'AGGTAT'
p864
I261
sS'TAACTT'
p865
I117
sS'ATCTAG'
p866
I2093
sS'ATCTAC'
p867
I1477
sS'ATCTAA'
p868
I2195
sS'CATAGC'
p869
I1362
sS'CCATGT'
p870
I412
sS'ACCAAA'
p871
I1538
sS'TGGAGG'
p872
I3271
sS'TGGAGA'
p873
I1930
sS'TGGAGC'
p874
I1755
sS'CCATGC'
p875
I442
sS'CCATGA'
p876
I393
sS'CCATGG'
p877
I680
sS'TGGAGT'
p878
I867
sS'ATTACG'
p879
I220
sS'TCAGTA'
p880
I494
sS'TCAGTC'
p881
I258
sS'CTCTCT'
p882
I5782
sS'GGGGAT'
p883
I104
sS'TCAGTG'
p884
I1036
sS'CGATAT'
p885
I19
sS'GGGGAA'
p886
I681
sS'GGGGAC'
p887
I628
sS'CTCTCC'
p888
I12697
sS'TCAGTT'
p889
I80
sS'CTCTCA'
p890
I7808
sS'CGATAG'
p891
I52
sS'CGATAA'
p892
I33
sS'TATCAA'
p893
I1580
sS'CTAAGG'
p894
I1259
sS'GTGTTT'
p895
I1080
sS'ATAACC'
p896
I430
sS'GCTACT'
p897
I458
sS'GTGGTT'
p898
I291
sS'GTGTTC'
p899
I2140
sS'GTGTTA'
p900
I2811
sS'GTGTTG'
p901
I4456
sS'CGTGCC'
p902
I765
sS'GTGGTA'
p903
I1226
sS'GCTACA'
p904
I796
sS'GTGGTC'
p905
I789
sS'GCTACC'
p906
I832
sS'GTGGTG'
p907
I3343
sS'GCTACG'
p908
I353
sS'CGTGCA'
p909
I718
sS'TTTCGT'
p910
I184
sS'TGCCCT'
p911
I1564
sS'AGCGTT'
p912
I330
sS'AGGTAA'
p913
I773
sS'TGCCCC'
p914
I3364
sS'TGCCCA'
p915
I3215
sS'TGCCCG'
p916
I1460
sS'TTTCGG'
p917
I689
sS'AGCGTA'
p918
I905
sS'AGCGTC'
p919
I1474
sS'ACAACA'
p920
I591
sS'AGCGTG'
p921
I2937
sS'GGCCCC'
p922
I3640
sS'GGCCCA'
p923
I2476
sS'CACGTG'
p924
I5291
sS'GGCCCG'
p925
I1888
sS'CACGTA'
p926
I1384
sS'CACGTC'
p927
I1445
sS'ACGTGC'
p928
I393
sS'ACGTGA'
p929
I484
sS'GGGACT'
p930
I768
sS'CTATAC'
p931
I250
sS'CACGTT'
p932
I333
sS'TTCACG'
p933
I1249
sS'GNCCCA'
p934
I1
sS'GGCCCT'
p935
I1236
sS'GGGACA'
p936
I1607
sS'TTTTGG'
p937
I2478
sS'GGGACC'
p938
I1681
sS'AGGGAC'
p939
I909
sS'TCGTGG'
p940
I409
sS'GGGACG'
p941
I997
sS'AGAGAG'
p942
I899
sS'AGAGAA'
p943
I551
sS'AGAGAC'
p944
I413
sS'TTCACC'
p945
I3764
sS'GTCTTT'
p946
I2798
sS'TCTATC'
p947
I516
sS'TCTATG'
p948
I1382
sS'AGAGAT'
p949
I105
sS'TCGTGC'
p950
I249
sS'TAGCCA'
p951
I1328
sS'GTCTTG'
p952
I9637
sS'TCTATT'
p953
I268
sS'GTCTTC'
p954
I6893
sS'GTCTTA'
p955
I6007
sS'GCAGAG'
p956
I514
sS'GCTCAA'
p957
I933
sS'TAGCCC'
p958
I1162
sS'GCAGAC'
p959
I215
sS'GCAGAA'
p960
I308
sS'GCTCAG'
p961
I2136
sS'AGACGT'
p962
I56
sS'ATGCGT'
p963
I106
sS'TTGCTG'
p964
I5389
sS'CTTGAC'
p965
I899
sS'TTGCTA'
p966
I2333
sS'TTGCTC'
p967
I2489
sS'GCAGAT'
p968
I63
sS'GCTCAT'
p969
I224
sS'CGAATT'
p970
I25
sS'GTACGG'
p971
I164
sS'TTGCTT'
p972
I844
sS'CGATTC'
p973
I105
sS'TAGCCG'
p974
I449
sS'ATGCGC'
p975
I364
sS'ATGCGA'
p976
I187
sS'TGTAAG'
p977
I1787
sS'GGCTAG'
p978
I2864
sS'TGTAAC'
p979
I1392
sS'GGCTAC'
p980
I2125
sS'TGTAAA'
p981
I2053
sS'GGCTAA'
p982
I2603
sS'TTCGAG'
p983
I681
sS'TTGGTA'
p984
I954
sS'ACTGTC'
p985
I662
sS'TTGGTC'
p986
I663
sS'TTCGAC'
p987
I379
sS'ACTGTG'
p988
I2926
sS'TTGGTG'
p989
I1929
sS'GACTGC'
p990
I7513
sS'GGCTAT'
p991
I548
sS'GACTGA'
p992
I7143
sS'GACTGG'
p993
I9493
sS'TGTAAT'
p994
I778
sS'TGTGGT'
p995
I726
sS'TTGGTT'
p996
I217
sS'ACTGTT'
p997
I205
sS'GTTTCT'
p998
I1451
sS'AGGTCC'
p999
I1593
sS'GAATGA'
p1000
I1604
sS'TTTTGT'
p1001
I1545
sS'CCTTTT'
p1002
I1033
sS'GTTTCG'
p1003
I730
sS'GTTTCC'
p1004
I3517
sS'GTTTCA'
p1005
I2680
sS'ATAATG'
p1006
I894
sS'CCTTTA'
p1007
I4734
sS'CCTTTC'
p1008
I4007
sS'CGTTTA'
p1009
I1252
sS'NNNNGA'
p1010
I3
sS'ATAATA'
p1011
I855
sS'CCTTTG'
p1012
I7561
sS'ACAGAA'
p1013
I278
sS'CTCTCG'
p1014
I3289
sS'ACAGAC'
p1015
I225
sS'ACAGAG'
p1016
I386
sS'TTATCT'
p1017
I575
sS'CTGGAC'
p1018
I697
sS'CTGGAA'
p1019
I823
sS'CTGGAG'
p1020
I1659
sS'GTAAAT'
p1021
I224
sS'GTCGAT'
p1022
I70
sS'TGGGGA'
p1023
I1135
sS'TTATCA'
p1024
I959
sS'CTGGAT'
p1025
I179
sS'TTATCC'
p1026
I733
sS'CCAATG'
p1027
I1364
sS'AAACCG'
p1028
I140
sS'AAACCA'
p1029
I517
sS'CCAATC'
p1030
I607
sS'AAACCC'
p1031
I474
sS'CCAATA'
p1032
I681
sS'TGTCGG'
p1033
I865
sS'GAGATC'
p1034
I1155
sS'CCCTAT'
p1035
I513
sS'GAGATA'
p1036
I2125
sS'TGTCGC'
p1037
I935
sS'GAGATG'
p1038
I4794
sS'TGTCGA'
p1039
I339
sS'ATTTGA'
p1040
I1783
sS'CCAATT'
p1041
I124
sS'ATTTGC'
p1042
I1495
sS'GGGTAT'
p1043
I124
sS'ATTTGG'
p1044
I1604
sS'CCCTAG'
p1045
I2769
sS'TGTCGT'
p1046
I280
sS'CCCTAC'
p1047
I2023
sS'GAGATT'
p1048
I367
sS'CCCTAA'
p1049
I2187
sS'CATTAT'
p1050
I760
sS'TGGATT'
p1051
I187
sS'TGACAG'
p1052
I339
sS'ATCACC'
p1053
I2295
sS'CATGCT'
p1054
I845
sS'TGACAC'
p1055
I169
sS'ATCACG'
p1056
I803
sS'TGGATA'
p1057
I936
sS'CATTAG'
p1058
I2470
sS'CATTAA'
p1059
I2683
sS'TGGATG'
p1060
I1856
sS'CATGCA'
p1061
I1920
sS'TGACAT'
p1062
I93
sS'CATGCC'
p1063
I1877
sS'ATCACT'
p1064
I1383
sS'CATGCG'
p1065
I880
sS'GTAGAA'
p1066
I303
sS'GTAGAC'
p1067
I197
sS'GTAGAG'
p1068
I416
sS'GATTGG'
p1069
I6398
sS'ACACCC'
p1070
I236
sS'ACAACC'
p1071
I406
sS'GATTGC'
p1072
I2740
sS'GATTGA'
p1073
I2808
sS'TAAATT'
p1074
I232
sS'ACTAAG'
p1075
I1064
sS'GTAGAT'
p1076
I77
sS'TTGCCT'
p1077
I1101
sS'TGATGC'
p1078
I341
sS'GATTGT'
p1079
I1544
sS'ACAACT'
p1080
I200
sS'GTCGAA'
p1081
I360
sS'TAATAG'
p1082
I435
sS'GTCCGG'
p1083
I2466
sS'TGAGGT'
p1084
I172
sS'GTCCGA'
p1085
I989
sS'TAATAA'
p1086
I587
sS'GTCCGC'
p1087
I2314
sS'TGCCAT'
p1088
I597
sS'GATCCC'
p1089
I2078
sS'ACTCTT'
p1090
I311
sS'GTCCGT'
p1091
I498
sS'TAATAT'
p1092
I198
sS'ATTCGC'
p1093
I263
sS'TTCTCC'
p1094
I9539
sS'TGAACT'
p1095
I344
sS'TTCTCA'
p1096
I8535
sS'ATTCGG'
p1097
I349
sS'TTCTCG'
p1098
I2451
sS'GAGCTA'
p1099
I3107
sS'TCGTAC'
p1100
I60
sS'TACCTT'
p1101
I1090
sS'TCGTAA'
p1102
I91
sS'TCGTAG'
p1103
I145
sS'TCGTCA'
p1104
I261
sS'GAACCT'
p1105
I255
sS'ATCCAA'
p1106
I1253
sS'ATCCAC'
p1107
I1206
sS'TGAACC'
p1108
I581
sS'TTCTCT'
p1109
I5337
sS'TGAACA'
p1110
I693
sS'GAACCC'
p1111
I660
sS'TACCTG'
p1112
I6242
sS'TACCTA'
p1113
I3149
sS'TACCTC'
p1114
I2916
sS'TCGTAT'
p1115
I34
sS'ACCATC'
p1116
I1209
sS'ACCATA'
p1117
I1677
sS'ACCATG'
p1118
I3443
sS'ATGTTG'
p1119
I2577
sS'AGCTCT'
p1120
I3481
sS'TGTCCT'
p1121
I699
sS'AGTGGT'
p1122
I461
sS'CGTGGT'
p1123
I402
sS'TGATGT'
p1124
I327
sS'ATGTTT'
p1125
I493
sS'ACCATT'
p1126
I407
sS'CGTAAA'
p1127
I421
sS'AGTGGA'
p1128
I1342
sS'AGTGGC'
p1129
I1556
sS'AGCTCC'
p1130
I8347
sS'AGTGGG'
p1131
I2206
sS'ATAGCC'
p1132
I243
sS'CAGTAA'
p1133
I996
sS'CAGTAC'
p1134
I757
sS'CAGTAG'
p1135
I1065
sS'TTTCAC'
p1136
I1265
sS'CAGTAT'
p1137
I260
sS'AAAGTA'
p1138
I996
sS'TGCCAG'
p1139
I3783
sS'AAAGTG'
p1140
I1562
sS'GATCTA'
p1141
I2296
sS'GATCTC'
p1142
I2745
sS'ATTGAC'
p1143
I477
sS'GATCTG'
p1144
I5601
sS'TGCCAA'
p1145
I2328
sS'CCGGCC'
p1146
I1031
sS'ATTAGG'
p1147
I928
sS'CCGGCG'
p1148
I388
sS'ACTCTC'
p1149
I1065
sS'GTTCCC'
p1150
I1368
sS'TCCCTC'
p1151
I5591
sS'GAGCTT'
p1152
I797
sS'TCCCTA'
p1153
I3788
sS'TTAATG'
p1154
I1347
sS'TCCCTG'
p1155
I9901
sS'GATCTT'
p1156
I690
sS'ATAGAA'
p1157
I242
sS'AAGTGA'
p1158
I2878
sS'AAGTGC'
p1159
I2005
sS'TGTTCT'
p1160
I1644
sS'AAGTGG'
p1161
I2930
sS'TGATTG'
p1162
I1559
sS'TGATTC'
p1163
I530
sS'TGTATT'
p1164
I399
sS'TGATTA'
p1165
I831
sS'TGTTCA'
p1166
I3028
sS'CACAAG'
p1167
I3951
sS'TGTTCC'
p1168
I2820
sS'AAGTGT'
p1169
I1157
sS'CACAAC'
p1170
I2682
sS'TGTTCG'
p1171
I703
sS'TCTGAA'
p1172
I864
sS'TCTGAC'
p1173
I939
sS'GAAGTC'
p1174
I889
sS'TCTGAG'
p1175
I1638
sS'CGCGCC'
p1176
I3655
sS'CGCGCA'
p1177
I2158
sS'GGTAAA'
p1178
I1181
sS'CGCGCG'
p1179
I2417
sS'CTCCCT'
p1180
I3258
sS'AGCGGG'
p1181
I2954
sS'AGCGGA'
p1182
I1452
sS'AGCGGC'
p1183
I2209
sS'AGATGA'
p1184
I635
sS'GAAATA'
p1185
I1651
sS'GACATT'
p1186
I1146
sS'CGCGCT'
p1187
I972
sS'ACCTCC'
p1188
I4629
sS'CTCCCG'
p1189
I3434
sS'CTCCCA'
p1190
I6198
sS'CTCCCC'
p1191
I7292
sS'GCCTCT'
p1192
I4334
sS'TAAGCC'
p1193
I709
sS'CGGGAG'
p1194
I970
sS'CCCATG'
p1195
I3968
sS'CGGGAA'
p1196
I350
sS'CCCATA'
p1197
I2023
sS'TAGCTG'
p1198
I3454
sS'CCCATC'
p1199
I1999
sS'CCGAGA'
p1200
I349
sS'CCTGCT'
p1201
I727
sS'CCGAAT'
p1202
I32
sS'CCCATT'
p1203
I749
sS'CGGGAT'
p1204
I62
sS'GCCTCG'
p1205
I4109
sS'GCCTCA'
p1206
I6817
sS'TAAGCT'
p1207
I238
sS'GCCTCC'
p1208
I12596
sS'CCGAAC'
p1209
I132
sS'CCTGCG'
p1210
I1006
sS'CCGAAA'
p1211
I119
sS'CCGAAG'
p1212
I262
sS'CCTGCC'
p1213
I2261
sS'CCTGCA'
p1214
I1814
sS'GTACTG'
p1215
I815
sS'CAAGGT'
p1216
I220
sS'CTTCAT'
p1217
I412
sS'CCATTC'
p1218
I585
sS'TATAAG'
p1219
I1532
sS'CCATTG'
p1220
I1566
sS'TATAAC'
p1221
I1128
sS'TAACGA'
p1222
I126
sS'TATAAT'
p1223
I741
sS'GTTCTA'
p1224
I1769
sS'CCATTT'
p1225
I231
sS'TCTACA'
p1226
I836
sS'TCTACC'
p1227
I962
sS'CTAACT'
p1228
I375
sS'TCTACG'
p1229
I258
sS'ACTTTC'
p1230
I1849
sS'CGCAAC'
p1231
I895
sS'CGCAAA'
p1232
I945
sS'ATACCG'
p1233
I62
sS'CGCAAG'
p1234
I1506
sS'ATACCA'
p1235
I206
sS'ATACCC'
p1236
I161
sS'TCTACT'
p1237
I465
sS'CCGAGT'
p1238
I161
sS'ATACCT'
p1239
I117
sS'CGCAAT'
p1240
I257
sS'AAACTG'
p1241
I1335
sS'ATTTCT'
p1242
I871
sS'TAGTAC'
p1243
I586
sS'CTCAAG'
p1244
I4170
sS'CTCAAA'
p1245
I3551
sS'TAGTAG'
p1246
I879
sS'CTCAAC'
p1247
I2577
sS'GTGTGC'
p1248
I2435
sS'GTGTGA'
p1249
I2640
sS'GTGTGG'
p1250
I4484
sS'TAACGG'
p1251
I191
sS'TTGCGT'
p1252
I155
sS'CTCAAT'
p1253
I837
sS'TAGTAT'
p1254
I299
sS'GTGTGT'
p1255
I2653
sS'ATCTTT'
p1256
I1775
sS'GTTGGG'
p1257
I1649
sS'GTTGGA'
p1258
I893
sS'GTTGGC'
p1259
I919
sS'CCTTGG'
p1260
I3050
sS'CCTTGA'
p1261
I1825
sS'GCGTAT'
p1262
I36
sS'CCTTGC'
p1263
I2099
sS'GGACGT'
p1264
I31
sS'GTTGGT'
p1265
I358
sS'ATCTTG'
p1266
I7651
sS'ATCTTA'
p1267
I5118
sS'ATCTTC'
p1268
I4399
sS'AGGATC'
p1269
I643
sS'AGGATA'
p1270
I1213
sS'AAACTA'
p1271
I841
sS'AGGATG'
p1272
I2909
sS'GACATG'
p1273
I5509
sS'GACATC'
p1274
I2801
sS'GACATA'
p1275
I3170
sS'TCGGCG'
p1276
I202
sS'GAATAT'
p1277
I155
sS'TCGGCC'
p1278
I532
sS'TCGGCA'
p1279
I233
sS'TTGCGA'
p1280
I250
sS'TTGCGC'
p1281
I479
sS'TTGCGG'
p1282
I520
sS'GAATAG'
p1283
I504
sS'TCGGCT'
p1284
I125
sS'CATAGA'
p1285
I1508
sS'GAATAC'
p1286
I381
sS'GAATAA'
p1287
I598
sS'ACTTTT'
p1288
I574
sS'CGACAG'
p1289
I82
sS'ATACAA'
p1290
I201
sS'GACCTT'
p1291
I1402
sS'TGCCTC'
p1292
I5475
sS'ACGTCG'
p1293
I148
sS'GGACGC'
p1294
I202
sS'TTATAA'
p1295
I431
sS'GAAATG'
p1296
I3029
sS'AATGAT'
p1297
I487
sS'TGCCTA'
p1298
I3647
sS'GAAATC'
p1299
I615
sS'CGCATT'
p1300
I244
sS'ACCGGT'
p1301
I133
sS'GAAATT'
p1302
I176
sS'AATGAA'
p1303
I2761
sS'ATGTCC'
p1304
I1298
sS'AATGAC'
p1305
I2173
sS'AATGAG'
p1306
I3541
sS'TCAGCA'
p1307
I547
sS'CTTGGA'
p1308
I1232
sS'CTTGGC'
p1309
I1426
sS'GTCCTT'
p1310
I1263
sS'CTTGGG'
p1311
I2034
sS'ATACAG'
p1312
I215
sS'AGCCCT'
p1313
I1982
sS'GCGTAA'
p1314
I140
sS'TTGAAT'
p1315
I341
sS'ACCCCA'
p1316
I1407
sS'GTCCTA'
p1317
I3198
sS'GTCCTC'
p1318
I4764
sS'TGCACG'
p1319
I1271
sS'CTTGGT'
p1320
I411
sS'GTCCTG'
p1321
I9385
sS'TGCACC'
p1322
I3007
sS'TTGAAA'
p1323
I1051
sS'AGCCCG'
p1324
I2287
sS'AGCCCA'
p1325
I4180
sS'AGCCCC'
p1326
I4589
sS'TTAACT'
p1327
I476
sS'ATAAAT'
p1328
I212
sS'TGGTCG'
p1329
I376
sS'TGGTCA'
p1330
I1558
sS'TGGTCC'
p1331
I1359
sS'ACGATT'
p1332
I30
sS'GAGACT'
p1333
I1686
sS'ACGGGG'
p1334
I448
sS'TGGTCT'
p1335
I742
sS'ATAAAG'
p1336
I670
sS'ATAAAA'
p1337
I672
sS'ATAAAC'
p1338
I425
sS'GAGACG'
p1339
I1734
sS'ACGATG'
p1340
I294
sS'CTACAG'
p1341
I347
sS'GAGACC'
p1342
I3110
sS'ACGATC'
p1343
I63
sS'GAGACA'
p1344
I3793
sS'ACGATA'
p1345
I130
sS'GGTTAC'
p1346
I1044
sS'ATGTGT'
p1347
I868
sS'GGTTAA'
p1348
I1528
sS'ACCACT'
p1349
I1094
sS'GGTTAG'
p1350
I1344
sS'CTTCCT'
p1351
I1346
sS'TCCATT'
p1352
I869
sS'CGTGAA'
p1353
I406
sS'CCAACA'
p1354
I552
sS'TCCGCT'
p1355
I732
sS'ACCACG'
p1356
I1178
sS'ATGTGG'
p1357
I1862
sS'ACCACC'
p1358
I2594
sS'GAGGAA'
p1359
I3640
sS'CTTCCG'
p1360
I1099
sS'GGTTAT'
p1361
I318
sS'TCCGCC'
p1362
I3481
sS'TCCGCA'
p1363
I1320
sS'TCCGCG'
p1364
I1222
sS'CGTACA'
p1365
I336
sS'AACGTC'
p1366
I1000
sS'CGTGAG'
p1367
I1161
sS'AACGTG'
p1368
I2498
sS'CGTGAC'
p1369
I951
sS'AGTGTG'
p1370
I4015
sS'TCTTCG'
p1371
I774
sS'AGTGTA'
p1372
I1643
sS'TCTTCA'
p1373
I2634
sS'AGTGTC'
p1374
I1142
sS'TCTTCC'
p1375
I3513
sS'TAAGTG'
p1376
I1329
sS'TAAGTC'
p1377
I391
sS'AACGTT'
p1378
I274
sS'AGTAAA'
p1379
I1770
sS'TCTTCT'
p1380
I1234
sS'AGTGTT'
p1381
I364
sS'GTGCGC'
p1382
I1026
sS'TTGGCA'
p1383
I1275
sS'AAAGGT'
p1384
I266
sS'TTGGCC'
p1385
I1837
sS'AGTAAC'
p1386
I1374
sS'CTTATT'
p1387
I391
sS'TTGGCG'
p1388
I418
sS'GACTTC'
p1389
I8294
sS'TCGAGT'
p1390
I89
sS'GACTTA'
p1391
I6487
sS'GACTTG'
p1392
I11561
sS'ACGTAG'
p1393
I167
sS'AAAGGG'
p1394
I1695
sS'AAAGGA'
p1395
I1350
sS'TTGGCT'
p1396
I726
sS'AAAGGC'
p1397
I958
sS'GAGTAC'
p1398
I988
sS'GTATGG'
p1399
I721
sS'GACTTT'
p1400
I2966
sS'TTCTTT'
p1401
I5353
sS'AAGGAG'
p1402
I3055
sS'CAAGAA'
p1403
I386
sS'GACGTT'
p1404
I462
sS'CAAGAC'
p1405
I344
sS'CAAGAG'
p1406
I580
sS'CGTATT'
p1407
I75
sS'TTCTTG'
p1408
I13561
sS'TTCTTC'
p1409
I10797
sS'TTCTTA'
p1410
I10993
sS'CAAGAT'
p1411
I76
sS'AGGGCT'
p1412
I754
sS'TACGGG'
p1413
I868
sS'TACGGA'
p1414
I645
sS'TACGGC'
p1415
I716
sS'CCAACT'
p1416
I200
sS'TAGAGT'
p1417
I717
sS'TACGGT'
p1418
I223
sS'GAGTAT'
p1419
I357
sS'AGGGCG'
p1420
I1275
sS'AGGGCA'
p1421
I2064
sS'AGGGCC'
p1422
I2134
sS'TCGAGA'
p1423
I219
sS'CTGTGC'
p1424
I3050
sS'TAGAGA'
p1425
I2179
sS'TAGAGG'
p1426
I2602
sS'CTACCG'
p1427
I161
sS'CAATTA'
p1428
I847
sS'GTGCTG'
p1429
I8407
sS'GTGCTA'
p1430
I2334
sS'ATTTCG'
p1431
I388
sS'GTGCTC'
p1432
I3076
sS'GCTCGT'
p1433
I187
sS'ATCTGA'
p1434
I3578
sS'GTGCTT'
p1435
I1022
sS'ATCTGC'
p1436
I3627
sS'TCGAGG'
p1437
I416
sS'CGAATG'
p1438
I272
sS'ATCTGG'
p1439
I4053
sS'ATCATA'
p1440
I2225
sS'GATAGC'
p1441
I1174
sS'AAGCAG'
p1442
I2563
sS'GATAGA'
p1443
I1833
sS'AAGCAA'
p1444
I1666
sS'GATAGG'
p1445
I2235
sS'AAGCAC'
p1446
I1354
sS'TTTACC'
p1447
I1282
sS'CATTTC'
p1448
I5589
sS'CTAGGT'
p1449
I190
sS'CATTTA'
p1450
I7187
sS'TGTAGC'
p1451
I1326
sS'GTTATA'
p1452
I986
sS'CAAACA'
p1453
I1168
sS'AAGCAT'
p1454
I348
sS'CAAACC'
p1455
I930
sS'TTTACA'
p1456
I1781
sS'ATCATT'
p1457
I551
sS'GATAGT'
p1458
I717
sS'CTAGGG'
p1459
I691
sS'GTTATT'
p1460
I279
sS'CTAGGC'
p1461
I451
sS'CATTTT'
p1462
I1408
sS'CTAGGA'
p1463
I578
sS'AAGTTT'
p1464
I538
sS'TACAGT'
p1465
I2418
sS'CTCGGC'
p1466
I2417
sS'CTAAGA'
p1467
I882
sS'GGGGCT'
p1468
I570
sS'TACAGG'
p1469
I6642
sS'AAGTTG'
p1470
I3211
sS'GGATGC'
p1471
I307
sS'AAGTTA'
p1472
I2702
sS'TACAGC'
p1473
I3875
sS'AAGTTC'
p1474
I1620
sS'TACAGA'
p1475
I4455
sS'GGGGCC'
p1476
I2046
sS'GTATGA'
p1477
I687
sS'GGGGCA'
p1478
I1425
sS'ATATGT'
p1479
I336
sS'GGGGCG'
p1480
I1754
sS'TATATC'
p1481
I806
sS'TATATA'
p1482
I2902
sS'TATATG'
p1483
I2261
sS'AGTTCT'
p1484
I1368
sS'TCCGGT'
p1485
I545
sS'GCCCAT'
p1486
I436
sS'TATATT'
p1487
I594
sS'TAGTAA'
p1488
I952
sS'TGATGG'
p1489
I565
sS'CATATG'
p1490
I1887
sS'ATGAGT'
p1491
I661
sS'AGGTCT'
p1492
I815
sS'TGATGA'
p1493
I503
sS'TGTTTA'
p1494
I6625
sS'CACATC'
p1495
I2766
sS'TGTTTC'
p1496
I4272
sS'CACATA'
p1497
I3918
sS'TTAATT'
p1498
I199
sS'CACATG'
p1499
I6264
sS'TGTTTG'
p1500
I8689
sS'ATGAGA'
p1501
I1142
sS'ATGAGC'
p1502
I811
sS'ATGAGG'
p1503
I1490
sS'TTAATA'
p1504
I1228
sS'ACTCTG'
p1505
I3195
sS'TTAATC'
p1506
I403
sS'ACTCTA'
p1507
I1339
sS'TTTCAG'
p1508
I2072
sS'CACATT'
p1509
I1042
sS'TGCCAC'
p1510
I2902
sS'AAATTC'
p1511
I500
sS'AAATTA'
p1512
I1235
sS'AAATTG'
p1513
I1171
sS'CCAGTA'
p1514
I407
sS'GTATTT'
p1515
I423
sS'CGTACC'
p1516
I401
sS'AAATTT'
p1517
I144
sS'GTCTAT'
p1518
I803
sS'GGGAAC'
p1519
I1070
sS'GGTGCG'
p1520
I681
sS'GGGAAA'
p1521
I1341
sS'GGGAAG'
p1522
I3044
sS'GGTGCC'
p1523
I1170
sS'GGTGCA'
p1524
I1076
sS'AGAGCG'
p1525
I376
sS'GCGACT'
p1526
I143
sS'AGCGAT'
p1527
I203
sS'AGAGCC'
p1528
I1001
sS'AGAGCA'
p1529
I836
sS'GCGTAG'
p1530
I240
sS'GGTGCT'
p1531
I449
sS'GCGTAC'
p1532
I127
sS'ACTGAA'
p1533
I723
sS'GGGAAT'
p1534
I309
sS'GCGACG'
p1535
I250
sS'AGAGCT'
p1536
I325
sS'GCGACA'
p1537
I292
sS'TATCGG'
p1538
I435
sS'GCGACC'
p1539
I453
sS'AGGTCG'
p1540
I515
sS'GCAGGA'
p1541
I608
sS'GCAGGC'
p1542
I431
sS'GCAGGG'
p1543
I995
sS'GCTCGC'
p1544
I1118
sS'CCGTGC'
p1545
I458
sS'GCTCGG'
p1546
I1583
sS'TATTCT'
p1547
I1653
sS'CCGTGG'
p1548
I687
sS'ACTTAC'
p1549
I650
sS'AAATAC'
p1550
I416
sS'GCAGGT'
p1551
I196
sS'TGAAGC'
p1552
I715
sS'TATTCC'
p1553
I2611
sS'GGCGAG'
p1554
I2498
sS'TATTCA'
p1555
I3764
sS'GGCGAA'
p1556
I879
sS'TATTCG'
p1557
I654
sS'GGCGAC'
p1558
I1189
sS'TGTAGA'
p1559
I1409
sS'GGCTCA'
p1560
I5727
sS'AGCATT'
p1561
I961
sS'GGCTCC'
p1562
I8829
sS'TTTACG'
p1563
I378
sS'TGTAGG'
p1564
I1813
sS'GGCTCG'
p1565
I2767
sS'TTCGGA'
p1566
I612
sS'TTCGGC'
p1567
I871
sS'AAATAG'
p1568
I533
sS'TTCAAG'
p1569
I4306
sS'TTCGGG'
p1570
I1329
sS'AGCATG'
p1571
I5659
sS'GGCTCT'
p1572
I3054
sS'AGCATC'
p1573
I2217
sS'TTTACT'
p1574
I892
sS'AGCATA'
p1575
I2681
sS'AACCTT'
p1576
I883
sS'TCTTGG'
p1577
I2413
sS'TTCGGT'
p1578
I225
sS'GTTTAT'
p1579
I495
sS'TTCAAC'
p1580
I2505
sS'GCACTC'
p1581
I267
sS'CGCTAC'
p1582
I1249
sS'GTTTAA'
p1583
I1848
sS'CGCTAA'
p1584
I1122
sS'CACGAA'
p1585
I675
sS'CAATCT'
p1586
I203
sS'GTTTAG'
p1587
I1479
sS'TCCAGA'
p1588
I3933
sS'CTGGCT'
p1589
I865
sS'AGGCGG'
p1590
I2815
sS'AGGCGA'
p1591
I824
sS'AGGCGC'
p1592
I1471
sS'AGGAGT'
p1593
I999
sS'ACAGCC'
p1594
I527
sS'GATAAA'
p1595
I2558
sS'ACAGCA'
p1596
I575
sS'GAGGTC'
p1597
I1641
sS'ACAGCG'
p1598
I178
sS'AGGAGC'
p1599
I2662
sS'GTCGGA'
p1600
I756
sS'AGGAGA'
p1601
I2796
sS'GTCGGC'
p1602
I1119
sS'AGGAGG'
p1603
I6833
sS'CTGGCA'
p1604
I2201
sS'GTCGGG'
p1605
I1912
sS'GCATCG'
p1606
I162
sS'CGATAC'
p1607
I29
sS'ACAGCT'
p1608
I201
sS'GGAAAA'
p1609
I516
sS'ATTGGT'
p1610
I343
sS'AATTTT'
p1611
I769
sS'TGTCAA'
p1612
I1335
sS'TGTCAC'
p1613
I2058
sS'AAACAC'
p1614
I511
sS'GCTCTA'
p1615
I1798
sS'TGTCAG'
p1616
I2416
sS'AACGCG'
p1617
I1020
sS'AATTTA'
p1618
I5313
sS'AATTTC'
p1619
I2785
sS'AACGCC'
p1620
I1808
sS'AACGCA'
p1621
I1270
sS'AATTTG'
p1622
I5556
sS'CCCTCA'
p1623
I5090
sS'CCCTCC'
p1624
I10918
sS'TGTCAT'
p1625
I576
sS'CCCTCG'
p1626
I2477
sS'ACCGAT'
p1627
I60
sS'TCCAGT'
p1628
I1845
sS'GGAAAG'
p1629
I951
sS'TGACCA'
p1630
I234
sS'CATTCT'
p1631
I2198
sS'TAAATC'
p1632
I537
sS'GGGTTA'
p1633
I1423
sS'AAATGC'
p1634
I876
sS'ATGGTT'
p1635
I98
sS'TAGCGT'
p1636
I198
sS'CATTCG'
p1637
I1069
sS'CATTCC'
p1638
I4898
sS'CATTCA'
p1639
I4875
sS'GCAATT'
p1640
I91
sS'ACGAAA'
p1641
I113
sS'TAAATG'
p1642
I2076
sS'ACAAAT'
p1643
I132
sS'GATTAA'
p1644
I2988
sS'GTAGGC'
p1645
I316
sS'GATTAC'
p1646
I3832
sS'GTAGGA'
p1647
I473
sS'GTAGGG'
p1648
I716
sS'GATTAG'
p1649
I2474
sS'GCGGGT'
p1650
I150
sS'ACAAAC'
p1651
I374
sS'TTTCAA'
p1652
I1782
sS'ACAAAA'
p1653
I450
sS'ACAAAG'
p1654
I667
sS'GCGGGC'
p1655
I763
sS'GTCGGT'
p1656
I275
sS'GCGGGA'
p1657
I796
sS'GCGGGG'
p1658
I2339
sS'GATTAT'
p1659
I843
sS'GTAGGT'
p1660
I180
sS'GGCGTC'
p1661
I1484
sS'TAATGA'
p1662
I942
sS'GATGTT'
p1663
I562
sS'TAATGC'
p1664
I644
sS'GGAGAT'
p1665
I76
sS'TAATGG'
p1666
I919
sS'GCGCCG'
p1667
I444
sS'CAATAA'
p1668
I327
sS'GCCCTC'
p1669
I5433
sS'GATGTG'
p1670
I5520
sS'GCCCTA'
p1671
I3160
sS'GATGTA'
p1672
I2391
sS'GCCCTG'
p1673
I11552
sS'GATGTC'
p1674
I1763
sS'AACCTC'
p1675
I3678
sS'TGAAAT'
p1676
I213
sS'TTCTAG'
p1677
I4437
sS'TTCTAA'
p1678
I5201
sS'ATCCGT'
p1679
I235
sS'TTCTAC'
p1680
I3086
sS'GAATGT'
p1681
I630
sS'TTGGAT'
p1682
I126
sS'TGAAAC'
p1683
I472
sS'TGAAAG'
p1684
I799
sS'TTCTAT'
p1685
I1345
sS'ATCCGC'
p1686
I973
sS'AGTAAT'
p1687
I524
sS'ATCCGA'
p1688
I504
sS'ATCCGG'
p1689
I1148
sS'TGGCTC'
p1690
I2361
sS'TAACAA'
p1691
I422
sS'TGGCTA'
p1692
I1709
sS'TGGCTG'
p1693
I5881
sS'AGGCGT'
p1694
I425
sS'AGTTGT'
p1695
I1174
sS'AGCTAT'
p1696
I967
sS'ATTAGT'
p1697
I416
sS'CTGGCG'
p1698
I826
sS'TGGCTT'
p1699
I573
sS'AGTTGG'
p1700
I2441
sS'AGCTAA'
p1701
I3510
sS'ACGCCG'
p1702
I180
sS'AGCTAC'
p1703
I2812
sS'AGTTGC'
p1704
I1963
sS'AGTTGA'
p1705
I2039
sS'AGCTAG'
p1706
I3272
sS'CGTTGA'
p1707
I719
sS'CTAATT'
p1708
I245
sS'CAGTGT'
p1709
I1284
sS'AGTCAG'
p1710
I3408
sS'TCAGGT'
p1711
I143
sS'TCAAGG'
p1712
I807
sS'CTGGCC'
p1713
I2952
sS'TCAAGC'
p1714
I382
sS'TCAAGA'
p1715
I492
sS'GCACCA'
p1716
I279
sS'CAGTGC'
p1717
I2442
sS'GCACCC'
p1718
I246
sS'CAGTGA'
p1719
I2634
sS'CAGTGG'
p1720
I3302
sS'CTAATG'
p1721
I1327
sS'TCAAGT'
p1722
I295
sS'CTGCAA'
p1723
I1173
sS'GAGCCC'
p1724
I4584
sS'TCAGGC'
p1725
I282
sS'GTGGGT'
p1726
I510
sS'CGTTGG'
p1727
I1159
sS'CAACCA'
p1728
I318
sS'GTTCAT'
p1729
I279
sS'TTCCCT'
p1730
I2540
sS'ACCACA'
p1731
I3391
sS'CGAGCA'
p1732
I205
sS'CGCAGC'
p1733
I4272
sS'CGAGCC'
p1734
I386
sS'TTCCCA'
p1735
I5037
sS'TTCCCC'
p1736
I4854
sS'GTTCAC'
p1737
I904
sS'TTCCCG'
p1738
I2261
sS'TGAGCA'
p1739
I554
sS'CGGATT'
p1740
I58
sS'CTTACT'
p1741
I795
sS'TACATG'
p1742
I4472
sS'AAGTAC'
p1743
I813
sS'CACACT'
p1744
I2596
sS'TACATC'
p1745
I1818
sS'AAGTAG'
p1746
I1225
sS'TACATA'
p1747
I3940
sS'CATGGT'
p1748
I586
sS'GGACCG'
p1749
I71
sS'AACGCT'
p1750
I627
sS'GGACCA'
p1751
I168
sS'TCATCA'
p1752
I751
sS'GGACCC'
p1753
I191
sS'CACACG'
p1754
I1986
sS'TACATT'
p1755
I1133
sS'CACACC'
p1756
I5697
sS'CTGCAT'
p1757
I407
sS'CACACA'
p1758
I8978
sS'ACGGTC'
p1759
I122
sS'TCTGCC'
p1760
I1468
sS'TCTGCA'
p1761
I1565
sS'AGGTAG'
p1762
I869
sS'TCTGCG'
p1763
I700
sS'TAGATT'
p1764
I226
sS'CTCCAA'
p1765
I2996
sS'TTAAGG'
p1766
I1096
sS'CCCGTA'
p1767
I854
sS'CGTCGA'
p1768
I292
sS'CCCGTG'
p1769
I2314
sS'TTAAGC'
p1770
I602
sS'TTACGT'
p1771
I59
sS'TAGATC'
p1772
I511
sS'AAACAG'
p1773
I853
sS'ACGCCC'
p1774
I501
sS'TTTCGC'
p1775
I607
sS'TAGATG'
p1776
I2149
sS'GCGCCT'
p1777
I291
sS'TCTGCT'
p1778
I563
sS'TTACGC'
p1779
I116
sS'TTAAGT'
p1780
I487
sS'TTACGA'
p1781
I80
sS'TTACGG'
p1782
I148
sS'CCCGTT'
p1783
I180
sS'AGTGAC'
p1784
I1931
sS'AGTGAA'
p1785
I1461
sS'GCTAGT'
p1786
I325
sS'AGTGAG'
p1787
I2655
sS'ACATTT'
p1788
I220
sS'CGGGCG'
p1789
I726
sS'CCCTCT'
p1790
I3115
sS'TAAGAG'
p1791
I645
sS'CGGGCC'
p1792
I1436
sS'TAAGAA'
p1793
I473
sS'CGGGCA'
p1794
I765
sS'TAAGAC'
p1795
I391
sS'ATTTAT'
p1796
I420
sS'AGTGAT'
p1797
I330
sS'CTTTCC'
p1798
I5034
sS'TAAGAT'
p1799
I109
sS'CCTGAA'
p1800
I710
sS'CCTGAC'
p1801
I1021
sS'CCTGAG'
p1802
I1652
sS'GTTAGG'
p1803
I1441
sS'ATTGGG'
p1804
I752
sS'TCATCT'
p1805
I460
sS'GTTAGC'
p1806
I850
sS'GTTAGA'
p1807
I1120
sS'GCCAAA'
p1808
I2117
sS'TATACG'
p1809
I332
sS'GTTAGT'
p1810
I457
sS'TATACC'
p1811
I950
sS'TATACA'
p1812
I1662
sS'ATTGGC'
p1813
I1382
sS'CGTATA'
p1814
I229
sS'GTAATG'
p1815
I1210
sS'TTTATT'
p1816
I588
sS'GTAATA'
p1817
I880
sS'ATTGGA'
p1818
I679
sS'GTAATC'
p1819
I405
sS'TCTAAC'
p1820
I624
sS'CGTTCT'
p1821
I527
sS'TCTAAA'
p1822
I856
sS'GGTAGG'
p1823
I1868
sS'CCACCA'
p1824
I326
sS'CCACCC'
p1825
I504
sS'ATTACT'
p1826
I448
sS'TTTATG'
p1827
I2706
sS'ACTAGG'
p1828
I985
sS'GTAACG'
p1829
I224
sS'CTACTG'
p1830
I1132
sS'ACTAGC'
p1831
I490
sS'TTTATA'
p1832
I2241
sS'ACTAGA'
p1833
I746
sS'CCACCT'
p1834
I238
sS'CGTTCG'
p1835
I543
sS'ACTTGT'
p1836
I574
sS'CGTTCA'
p1837
I921
sS'CGTTCC'
p1838
I1515
sS'TCTAAT'
p1839
I275
sS'TCGTCT'
p1840
I152
sS'CTTTGT'
p1841
I2085
sS'ACTGGG'
p1842
I1390
sS'ACTGGA'
p1843
I820
sS'ACTGGC'
p1844
I681
sS'TAGTCC'
p1845
I1825
sS'GTGACC'
p1846
I1886
sS'TAGTCA'
p1847
I2651
sS'GTGACA'
p1848
I1944
sS'TAGTCG'
p1849
I377
sS'GTGACG'
p1850
I993
sS'ATTTAG'
p1851
I1125
sS'ACTGGT'
p1852
I205
sS'CTTTGG'
p1853
I4265
sS'GGGTTT'
p1854
I359
sS'CTTTGC'
p1855
I3755
sS'CTTTGA'
p1856
I4001
sS'GTGACT'
p1857
I1412
sS'TAGTCT'
p1858
I923
sS'GTGCAC'
p1859
I1134
sS'GCGCTT'
p1860
I102
sS'ACCTAG'
p1861
I1746
sS'CGACGA'
p1862
I46
sS'GTGCAG'
p1863
I2054
sS'CGACGC'
p1864
I117
sS'ACCTAC'
p1865
I1438
sS'CCGCAG'
p1866
I387
sS'ACGGGA'
p1867
I261
sS'CCGCAC'
p1868
I190
sS'CTACGG'
p1869
I223
sS'CGAAGC'
p1870
I311
sS'GCGCTG'
p1871
I1858
sS'CGAAGA'
p1872
I283
sS'CCCCGT'
p1873
I446
sS'CGAAGG'
p1874
I564
sS'GCGCTC'
p1875
I711
sS'GTGCAT'
p1876
I323
sS'GCGCTA'
p1877
I462
sS'CCGCAT'
p1878
I44
sS'ATTACC'
p1879
I743
sS'GAAGAT'
p1880
I151
sS'GGATCT'
p1881
I155
sS'TCGGAA'
p1882
I132
sS'TCGGAC'
p1883
I78
sS'GAATCT'
p1884
I461
sS'CCTATA'
p1885
I714
sS'TCGGAG'
p1886
I227
sS'GGATCG'
p1887
I92
sS'GAAGAG'
p1888
I1936
sS'GAAGAA'
p1889
I1049
sS'GGATCC'
p1890
I393
sS'GAAGAC'
p1891
I850
sS'GGATCA'
p1892
I273
sS'GAATCA'
p1893
I1463
sS'GAATCC'
p1894
I1124
sS'TCGGAT'
p1895
I26
sS'GAATCG'
p1896
I286
sS'ATGGTC'
p1897
I295
sS'CAGATG'
p1898
I2681
sS'ATGGTA'
p1899
I666
sS'TGACCC'
p1900
I197
sS'ATGGTG'
p1901
I1432
sS'CAGATC'
p1902
I750
sS'CTATCC'
p1903
I914
sS'CAGATA'
p1904
I1257
sS'CTCGAG'
p1905
I1118
sS'CAGATT'
p1906
I203
sS'CTCGAC'
p1907
I616
sS'CTCGAA'
p1908
I496
sS'TCGCAA'
p1909
I80
sS'TGACCG'
p1910
I71
sS'CCCCGG'
p1911
I2787
sS'AATGGT'
p1912
I513
sS'GAGGTG'
p1913
I6854
sS'CTACGT'
p1914
I68
sS'TGCGTG'
p1915
I2892
sS'AATGGA'
p1916
I1954
sS'AATGGG'
p1917
I2555
sS'CAATAC'
p1918
I217
sS'CACTCT'
p1919
I3245
sS'CAACTC'
p1920
I323
sS'CAACTA'
p1921
I349
sS'ATTTAC'
p1922
I886
sS'GTGAAT'
p1923
I324
sS'TTGACC'
p1924
I857
sS'GGAGGG'
p1925
I1344
sS'AAAAGT'
p1926
I473
sS'AGCCAC'
p1927
I4572
sS'AGCCAA'
p1928
I4329
sS'TGGTAG'
p1929
I680
sS'CGCCAT'
p1930
I397
sS'GAGTGT'
p1931
I1468
sS'TGGTAC'
p1932
I383
sS'GAGGTA'
p1933
I2343
sS'TGGTAA'
p1934
I568
sS'AAAAGG'
p1935
I2314
sS'GGAGGT'
p1936
I190
sS'AGCCAT'
p1937
I800
sS'AAAAGC'
p1938
I1320
sS'AAAAGA'
p1939
I1877
sS'TCTATA'
p1940
I869
sS'GAGTGG'
p1941
I4978
sS'CGCCAG'
p1942
I2501
sS'TGGTAT'
p1943
I214
sS'CGCCAA'
p1944
I1186
sS'GAGTGC'
p1945
I2974
sS'CGCCAC'
p1946
I2131
sS'GAGTGA'
p1947
I3818
sS'GCCAGG'
p1948
I8707
sS'GCCAGA'
p1949
I3826
sS'GCCAGC'
p1950
I5235
sS'GCCCGT'
p1951
I610
sS'TACCGA'
p1952
I579
sS'TACCGC'
p1953
I1165
sS'TACCGG'
p1954
I1065
sS'GCCCGC'
p1955
I4887
sS'GCCAGT'
p1956
I1660
sS'GCCCGA'
p1957
I1666
sS'GCCCGG'
p1958
I5355
sS'TGCGAT'
p1959
I141
sS'CTTCAC'
p1960
I1448
sS'CTTCAA'
p1961
I1513
sS'CTTCAG'
p1962
I2393
sS'TCCGAG'
p1963
I1174
sS'TCCGAA'
p1964
I433
sS'TCCGAC'
p1965
I601
sS'AATTCA'
p1966
I3140
sS'AATTCC'
p1967
I2825
sS'AATTCG'
p1968
I669
sS'TCCGAT'
p1969
I99
sS'ACATAC'
p1970
I144
sS'TAGCGG'
p1971
I719
sS'AATTCT'
p1972
I1384
sS'TAGCGC'
p1973
I626
sS'GTCATC'
p1974
I2855
sS'GTCATA'
p1975
I3303
sS'GTCATG'
p1976
I5685
sS'AGCAGG'
p1977
I9204
sS'CCAGGT'
p1978
I190
sS'TTGGAA'
p1979
I578
sS'AGCAGC'
p1980
I7489
sS'AGCAGA'
p1981
I5331
sS'GTCATT'
p1982
I1116
sS'CCAGGG'
p1983
I715
sS'AGCAGT'
p1984
I2568
sS'CCAGGA'
p1985
I573
sS'CCAGGC'
p1986
I472
sS'AGCGCT'
p1987
I970
sS'ATAGAG'
p1988
I237
sS'CATCTG'
p1989
I6220
sS'GATCGG'
p1990
I948
sS'CATCTA'
p1991
I2915
sS'GATCGA'
p1992
I545
sS'CATCTC'
p1993
I3233
sS'GATCGC'
p1994
I1097
sS'GGATGG'
p1995
I505
sS'CAAGCC'
p1996
I860
sS'CATCTT'
p1997
I852
sS'CAAGCA'
p1998
I714
sS'ACGGTT'
p1999
I37
sS'GTTCTT'
p2000
I417
sS'ACATGA'
p2001
I459
sS'CGTAAT'
p2002
I111
sS'ACATGC'
p2003
I366
sS'ACATGG'
p2004
I490
sS'CCCGCT'
p2005
I762
sS'GTACAT'
p2006
I72
sS'GGCCAT'
p2007
I410
sS'CGTAAG'
p2008
I530
sS'GTTCTG'
p2009
I3867
sS'ACATGT'
p2010
I243
sS'CGTAAC'
p2011
I372
sS'GTTCTC'
p2012
I1837
sS'AGGGAG'
p2013
I2414
sS'ACGGAA'
p2014
I142
sS'TTATTT'
p2015
I481
sS'CCCGCC'
p2016
I7177
sS'AGACGC'
p2017
I238
sS'CCCGCA'
p2018
I1814
sS'CCCTTT'
p2019
I2267
sS'TGTTGT'
p2020
I1590
sS'GTTGTT'
p2021
I278
sS'ATTAGC'
p2022
I732
sS'ATCCTT'
p2023
I675
sS'TTGTCG'
p2024
I363
sS'TTGTCC'
p2025
I2089
sS'TTGTCA'
p2026
I2052
sS'ATCCTC'
p2027
I2575
sS'GTTGTA'
p2028
I1350
sS'ATCCTA'
p2029
I2374
sS'GTTGTC'
p2030
I772
sS'ATCCTG'
p2031
I5542
sS'GTTGTG'
p2032
I2390
sS'TTGTCT'
p2033
I1139
sS'ACCTCA'
p2034
I3810
sS'CCACTG'
p2035
I841
sS'TGACTA'
p2036
I516
sS'TGGGCC'
p2037
I1547
sS'TGACTC'
p2038
I544
sS'TGGGCA'
p2039
I1449
sS'TGGGCG'
p2040
I818
sS'TGACTG'
p2041
I798
sS'AAGCCG'
p2042
I944
sS'AAGCCC'
p2043
I2399
sS'AAGCCA'
p2044
I2431
sS'CAAAAT'
p2045
I159
sS'ACGCGG'
p2046
I364
sS'TGGGCT'
p2047
I524
sS'CAAAAC'
p2048
I632
sS'CAAAAA'
p2049
I714
sS'AAGCCT'
p2050
I1000
sS'CAAAAG'
p2051
I861
sS'TGATTT'
p2052
I142
sS'TCAATG'
p2053
I747
sS'AAACTT'
p2054
I122
sS'TCAATC'
p2055
I233
sS'TCAATA'
p2056
I571
sS'CAGTTC'
p2057
I1935
sS'GACCCG'
p2058
I2407
sS'GACCCA'
p2059
I3800
sS'GACCCC'
p2060
I3348
sS'CTCTGT'
p2061
I4984
sS'TCAATT'
p2062
I88
sS'TGGCGT'
p2063
I193
sS'CTCTGC'
p2064
I12731
sS'GACCCT'
p2065
I1555
sS'CTCTGA'
p2066
I8408
sS'ACAATC'
p2067
I202
sS'CTCTGG'
p2068
I12098
sS'CAGTTT'
p2069
I532
sS'GCGAAG'
p2070
I441
sS'CTACTC'
p2071
I430
sS'TGCTGG'
p2072
I10077
sS'CGAGGT'
p2073
I87
sS'TGCTGA'
p2074
I6447
sS'GAGTCT'
p2075
I1823
sS'TGCTGC'
p2076
I8781
sS'TAGGGA'
p2077
I1305
sS'GCTGGT'
p2078
I377
sS'GTGATT'
p2079
I327
sS'CTACTA'
p2080
I583
sS'TGCTGT'
p2081
I3650
sS'TAGGGC'
p2082
I1130
sS'GCCCTT'
p2083
I1061
sS'ATGCGG'
p2084
I336
sS'GTGATG'
p2085
I2682
sS'GCTGGG'
p2086
I3932
sS'GTGATC'
p2087
I611
sS'GCTGGC'
p2088
I1498
sS'GTGATA'
p2089
I1135
sS'GCTGGA'
p2090
I1555
sS'TGATAA'
p2091
I281
sS'TGTAGT'
p2092
I1181
sS'TGATAC'
p2093
I156
sS'TGATAG'
p2094
I263
sS'CTTGTT'
p2095
I371
sS'GACGGT'
p2096
I649
sS'GCTAGG'
p2097
I1637
sS'GCTAGA'
p2098
I979
sS'ATGAAT'
p2099
I317
sS'GCTAGC'
p2100
I665
sS'ATAGGG'
p2101
I306
sS'TGATAT'
p2102
I115
sS'TTTGGT'
p2103
I367
sS'ATGAAC'
p2104
I530
sS'GACGGG'
p2105
I3697
sS'CTTGTG'
p2106
I3297
sS'GACGGA'
p2107
I2004
sS'CTTGTA'
p2108
I1679
sS'GACGGC'
p2109
I2380
sS'CTTGTC'
p2110
I1119
sS'CCATAC'
p2111
I137
sS'GCACTT'
p2112
I97
sS'CTACTT'
p2113
I147
sS'CAACGT'
p2114
I54
sS'GGTGAA'
p2115
I987
sS'GGTGAC'
p2116
I1524
sS'GCGTCT'
p2117
I318
sS'GACTGT'
p2118
I3657
sS'GGTGAG'
p2119
I2315
sS'GGAATG'
p2120
I1277
sS'CGTCCT'
p2121
I339
sS'GGAATC'
p2122
I281
sS'GGAATA'
p2123
I510
sS'GCGTCA'
p2124
I697
sS'GCGTCC'
p2125
I1063
sS'GGTGAT'
p2126
I251
sS'GCGTCG'
p2127
I371
sS'CAAACT'
p2128
I362
sS'CGTCCG'
p2129
I401
sS'GGAATT'
p2130
I114
sS'CGTCCC'
p2131
I1175
sS'CGTCCA'
p2132
I625
sS'TTTCGA'
p2133
I356
sS'CCGTAT'
p2134
I42
sS'GCCGTG'
p2135
I3161
sS'GAAGTA'
p2136
I1288
sS'GCCGTC'
p2137
I1245
sS'GCCGTA'
p2138
I1036
sS'CCGTAC'
p2139
I101
sS'CCGTAA'
p2140
I95
sS'TTCGAA'
p2141
I452
sS'GCACTA'
p2142
I330
sS'GCCGTT'
p2143
I211
sS'GAAGTT'
p2144
I180
sS'GGCGCG'
p2145
I2440
sS'ATGCCC'
p2146
I1286
sS'TTAGTT'
p2147
I109
sS'ATGCCA'
p2148
I1285
sS'GGCGCC'
p2149
I3263
sS'TATTAA'
p2150
I3218
sS'GGCGCA'
p2151
I2031
sS'TATTAC'
p2152
I2018
sS'ACTATG'
p2153
I1096
sS'CAACGG'
p2154
I199
sS'TTTAAG'
p2155
I2389
sS'ACTATC'
p2156
I303
sS'TTTAAA'
p2157
I3456
sS'ACTATA'
p2158
I694
sS'TTTAAC'
p2159
I1344
sS'TATTAT'
p2160
I1172
sS'TTAGTG'
p2161
I819
sS'GGCGCT'
p2162
I986
sS'TCAACA'
p2163
I526
sS'TTAGTC'
p2164
I357
sS'ATGCCT'
p2165
I651
sS'TTAGTA'
p2166
I637
sS'TTTAAT'
p2167
I619
sS'GCACTG'
p2168
I937
sS'GGGCAT'
p2169
I172
sS'TTTCCG'
p2170
I572
sS'TTTCCA'
p2171
I1629
sS'TTTCCC'
p2172
I1892
sS'GTACGT'
p2173
I57
sS'GTTTGT'
p2174
I1290
sS'TTTCCT'
p2175
I886
sS'GGGCAG'
p2176
I1883
sS'GTCTGT'
p2177
I2980
sS'GGGCAA'
p2178
I588
sS'GGGCAC'
p2179
I776
sS'GTTTGC'
p2180
I2302
sS'GTTTGA'
p2181
I2360
sS'GTTTGG'
p2182
I2956
sS'GTACGA'
p2183
I83
sS'CCGCTC'
p2184
I499
sS'GCATGT'
p2185
I308
sS'CCGCTA'
p2186
I348
sS'CCGCTG'
p2187
I1229
sS'TGAAAA'
p2188
I488
sS'GCGCGG'
p2189
I1035
sS'GTTATC'
p2190
I539
sS'GCGCGC'
p2191
I788
sS'ATCAAC'
p2192
I1368
sS'GCGCGA'
p2193
I308
sS'GCATGG'
p2194
I619
sS'TGGATC'
p2195
I461
sS'GCATGC'
p2196
I510
sS'CCGCTT'
p2197
I95
sS'GCATGA'
p2198
I471
sS'GTCGAC'
p2199
I414
sS'GCGCGT'
p2200
I134
sS'GTCGAG'
p2201
I742
sS'CGTGGC'
p2202
I1148
sS'ACCGAG'
p2203
I810
sS'TGCGCT'
p2204
I608
sS'GAGCTC'
p2205
I3928
sS'ATTGAT'
p2206
I128
sS'GAGCTG'
p2207
I10300
sS'AAACGA'
p2208
I229
sS'AAACGC'
p2209
I310
sS'GTAACA'
p2210
I821
sS'GTAGTA'
p2211
I484
sS'AAACGG'
p2212
I328
sS'TGTCCC'
p2213
I1665
sS'TGCGCG'
p2214
I1479
sS'TGTCCA'
p2215
I1315
sS'TGTCCG'
p2216
I500
sS'TGCGCC'
p2217
I1987
sS'ATTGAG'
p2218
I681
sS'TGCGCA'
p2219
I1890
sS'CACGCA'
p2220
I1966
sS'AAACGT'
p2221
I81
sS'TGGGTT'
p2222
I177
sS'ATTTCA'
p2223
I2022
sS'ATTTCC'
p2224
I2104
sS'ATCAGT'
p2225
I1000
sS'ATCGGG'
p2226
I495
sS'CATAGT'
p2227
I772
sS'ATCGGC'
p2228
I316
sS'ATCGGA'
p2229
I339
sS'TGGGTG'
p2230
I2534
sS'CGATCA'
p2231
I98
sS'TGGGTC'
p2232
I536
sS'TTTTCA'
p2233
I3120
sS'TGGGTA'
p2234
I951
sS'CATAGG'
p2235
I1661
sS'ATCGGT'
p2236
I83
sS'ATCAGG'
p2237
I3084
sS'ATCAGA'
p2238
I2660
sS'ATCAGC'
p2239
I2533
sS'ACGGGT'
p2240
I58
sS'ATAATT'
p2241
I141
sS'CCTGGT'
p2242
I387
sS'GATTCT'
p2243
I2026
sS'CTTTTG'
p2244
I7433
sS'TACTAG'
p2245
I2286
sS'TACTAA'
p2246
I3537
sS'TACTAC'
p2247
I2171
sS'GATTCC'
p2248
I3870
sS'GATTCA'
p2249
I5034
sS'GATTCG'
p2250
I1133
sS'ACGGGC'
p2251
I224
sS'TACTAT'
p2252
I1080
sS'CTTTTT'
p2253
I1218
sS'CGTAGA'
p2254
I445
sS'TCACGA'
p2255
I80
sS'TCACGC'
p2256
I157
sS'TCACGG'
p2257
I176
sS'TCTCAT'
p2258
I297
sS'TCACGT'
p2259
I75
sS'TTCCAC'
p2260
I2974
sS'TTCCAA'
p2261
I2865
sS'TTCCAG'
p2262
I4896
sS'ACCCTT'
p2263
I477
sS'TGAAGT'
p2264
I448
sS'AAACAA'
p2265
I861
sS'CCACAT'
p2266
I67
sS'AGGCAC'
p2267
I1112
sS'TTCCAT'
p2268
I804
sS'ACCCTA'
p2269
I1948
sS'ACCCTC'
p2270
I2191
sS'TGAAGG'
p2271
I1248
sS'ACCCTG'
p2272
I5077
sS'CTGACT'
p2273
I1034
sS'ATAATC'
p2274
I251
sS'CCCCTT'
p2275
I846
sS'AGTTAT'
p2276
I499
sS'ACATAT'
p2277
I118
sS'CTGACG'
p2278
I661
sS'CTGACC'
p2279
I1822
sS'CTGACA'
p2280
I1650
sS'AGTTAA'
p2281
I1952
sS'CCCCTG'
p2282
I6491
sS'AGTTAC'
p2283
I1313
sS'CCCCTC'
p2284
I4520
sS'AGTTAG'
p2285
I1611
sS'CCCCTA'
p2286
I2796
sS'ACACAG'
p2287
I359
sS'ACACAA'
p2288
I220
sS'ACACAC'
p2289
I305
sS'AATGTT'
p2290
I527
sS'CTGCAG'
p2291
I2986
sS'CATGGG'
p2292
I1925
sS'CTGCAC'
p2293
I1577
sS'CATGGC'
p2294
I1618
sS'AATGTC'
p2295
I1466
sS'ACACAT'
p2296
I77
sS'AATGTA'
p2297
I2828
sS'AATGTG'
p2298
I4719
sS'GCACAC'
p2299
I193
sS'GCACAA'
p2300
I142
sS'GCACAG'
p2301
I287
sS'CCACAG'
p2302
I272
sS'CGAGAT'
p2303
I28
sS'GTTCGT'
p2304
I155
sS'CACAAT'
p2305
I969
sS'ACATTG'
p2306
I1033
sS'ACATTA'
p2307
I816
sS'ACATTC'
p2308
I559
sS'CGAGAG'
p2309
I180
sS'CCACAC'
p2310
I171
sS'GTTCGC'
p2311
I557
sS'CGAGAC'
p2312
I134
sS'GTTCGG'
p2313
I725
sS'AAGTCT'
p2314
I1068
sS'GCTATT'
p2315
I182
sS'GGACAT'
p2316
I35
sS'CAGCGT'
p2317
I312
sS'GCTATA'
p2318
I716
sS'GCTATC'
p2319
I347
sS'AAGTCG'
p2320
I596
sS'AAGTCA'
p2321
I2646
sS'GCTATG'
p2322
I1260
sS'AAGTCC'
p2323
I2384
sS'GGACAG'
p2324
I231
sS'GGACAC'
p2325
I135
sS'GGACAA'
p2326
I139
sS'GCACCT'
p2327
I148
sS'AGGGTT'
p2328
I205
sS'GAGGCG'
p2329
I4074
sS'TGTTGG'
p2330
I2988
sS'GAGGCA'
p2331
I4832
sS'TGTTGA'
p2332
I2783
sS'GAGGCC'
p2333
I6160
sS'TGTTGC'
p2334
I2713
sS'ACTCGA'
p2335
I303
sS'TAAAAT'
p2336
I418
sS'ACTCGC'
p2337
I509
sS'AAGCTT'
p2338
I485
sS'ACTCGG'
p2339
I716
sS'AGCGCA'
p2340
I1926
sS'GAGGCT'
p2341
I2105
sS'AGCGCC'
p2342
I3191
sS'AGGGTG'
p2343
I3049
sS'AGGGTA'
p2344
I936
sS'AGCGCG'
p2345
I2070
sS'AGGGTC'
p2346
I547
sS'TAAAAG'
p2347
I1208
sS'ACTCGT'
p2348
I104
sS'TAAAAC'
p2349
I760
sS'TAAAAA'
p2350
I1051
sS'ACGTTC'
p2351
I305
sS'AGCTGC'
p2352
I8735
sS'ACGTTA'
p2353
I428
sS'AGCTGA'
p2354
I6376
sS'ACGTTG'
p2355
I662
sS'AGCTGG'
p2356
I9753
sS'TAGGGG'
p2357
I1620
sS'AGTGCG'
p2358
I758
sS'AGTGCA'
p2359
I1554
sS'AGAGTT'
p2360
I110
sS'AGTGCC'
p2361
I1393
sS'CCAAAA'
p2362
I255
sS'TAGGGT'
p2363
I334
sS'AGCTGT'
p2364
I3331
sS'ACGTTT'
p2365
I90
sS'AGTGCT'
p2366
I680
sS'AGAGTC'
p2367
I339
sS'AGAGTA'
p2368
I577
sS'AGAGTG'
p2369
I1266
sS'TAACCC'
p2370
I329
sS'GTTAAA'
p2371
I1399
sS'CCTGGC'
p2372
I1564
sS'GTTAAC'
p2373
I933
sS'CCTGGA'
p2374
I1326
sS'CCTGGG'
p2375
I2905
sS'GTTAAG'
p2376
I1518
sS'TTCGTC'
p2377
I696
sS'CTAATC'
p2378
I370
sS'GTCTGG'
p2379
I7313
sS'GTCTGC'
p2380
I5684
sS'GTTAAT'
p2381
I374
sS'GTCTGA'
p2382
I5133
sS'CCGGTC'
p2383
I206
sS'GGAAGG'
p2384
I2369
sS'ATGCTT'
p2385
I437
sS'GGAAGC'
p2386
I1109
sS'GCACCG'
p2387
I126
sS'GGAAGA'
p2388
I1214
sS'GCGTTA'
p2389
I501
sS'CAATGA'
p2390
I791
sS'GCGTTC'
p2391
I511
sS'CAATGC'
p2392
I495
sS'GCGTTG'
p2393
I981
sS'CAATGG'
p2394
I1009
sS'ATGCTG'
p2395
I3610
sS'GGAAGT'
p2396
I545
sS'ATGCTC'
p2397
I1334
sS'CCACAA'
p2398
I172
sS'ATTTGT'
p2399
I712
sS'TCCTCG'
p2400
I2525
sS'TGTATG'
p2401
I2075
sS'TCCTCA'
p2402
I6355
sS'TGTATA'
p2403
I1506
sS'TCCTCC'
p2404
I11459
sS'TGTATC'
p2405
I751
sS'CGTTAG'
p2406
I629
sS'TAACCG'
p2407
I98
sS'TCATAG'
p2408
I266
sS'TTCGTG'
p2409
I1449
sS'CGTTAC'
p2410
I507
sS'TTCGTA'
p2411
I659
sS'CGTTAA'
p2412
I497
sS'TAACCA'
p2413
I414
sS'ACCGCT'
p2414
I328
sS'TGCATG'
p2415
I4730
sS'TCAGGA'
p2416
I392
sS'TTCGTT'
p2417
I204
sS'TACCCT'
p2418
I888
sS'TAACCT'
p2419
I160
sS'GTGAAG'
p2420
I1551
sS'GTGAAA'
p2421
I969
sS'GTGAAC'
p2422
I760
sS'CAATAG'
p2423
I381
sS'TGCATA'
p2424
I2758
sS'ACCGCG'
p2425
I817
sS'ACCGCA'
p2426
I917
sS'AACGAG'
p2427
I1111
sS'ACCGCC'
p2428
I1760
sS'AGTTCC'
p2429
I2799
sS'CCGCCT'
p2430
I332
sS'AGGCTT'
p2431
I610
sS'CCTTCT'
p2432
I1515
sS'CGAGCT'
p2433
I97
sS'GTTGCA'
p2434
I1017
sS'AACGAA'
p2435
I714
sS'GTTGCC'
p2436
I1130
sS'GTGCCG'
p2437
I1204
sS'GTGCCA'
p2438
I2633
sS'GTTGCG'
p2439
I403
sS'GTGCCC'
p2440
I3384
sS'CCGCCG'
p2441
I412
sS'AGGCTA'
p2442
I1685
sS'CCTTCC'
p2443
I4718
sS'AGGCTC'
p2444
I2512
sS'CCGCCC'
p2445
I1549
sS'AACGAC'
p2446
I632
sS'CCGCCA'
p2447
I514
sS'AGGCTG'
p2448
I7277
sS'GTGCCT'
p2449
I1613
sS'TCCAAA'
p2450
I2415
sS'GTTGCT'
p2451
I526
sS'GGATAT'
p2452
I69
sS'ATAGGT'
p2453
I90
sS'TCGGGT'
p2454
I74
sS'AAACCT'
p2455
I158
sS'GCAGTT'
p2456
I108
sS'GAAGCT'
p2457
I656
sS'TCGGGC'
p2458
I272
sS'TCGGGA'
p2459
I256
sS'NNNNNG'
p2460
I1
sS'TCGGGG'
p2461
I505
sS'GGATAG'
p2462
I133
sS'GAAGCG'
p2463
I834
sS'GCAGTG'
p2464
I1278
sS'GAAGCC'
p2465
I2034
sS'GCAGTA'
p2466
I460
sS'GAAGCA'
p2467
I1691
sS'GCAGTC'
p2468
I261
sS'CGCCCG'
p2469
I2216
sS'GAGAGA'
p2470
I6179
sS'GAGAGG'
p2471
I9380
sS'CGCCCA'
p2472
I2975
sS'CTACAA'
p2473
I337
sS'ACGCAG'
p2474
I282
sS'GCATTC'
p2475
I623
sS'ACGCAA'
p2476
I111
sS'CTCGCA'
p2477
I1399
sS'CTACAC'
p2478
I214
sS'GAGAGT'
p2479
I1471
sS'AAACAT'
p2480
I145
sS'ACGCAT'
p2481
I26
sS'AACTGA'
p2482
I5114
sS'GCCGGG'
p2483
I5349
sS'TACCCG'
p2484
I799
sS'GCCGGC'
p2485
I2686
sS'CATGTT'
p2486
I484
sS'GCCGGA'
p2487
I1906
sS'AGATCT'
p2488
I218
sS'AACTGC'
p2489
I5059
sS'CGAGCG'
p2490
I169
sS'TACCCA'
p2491
I2184
sS'CATGTA'
p2492
I2287
sS'CATGTC'
p2493
I1240
sS'GCCGGT'
p2494
I381
sS'CATGTG'
p2495
I4580
sS'ATTAAC'
p2496
I820
sS'GGCCTG'
p2497
I9404
sS'GGCCTC'
p2498
I5009
sS'GGCCTA'
p2499
I2541
sS'TTTGTT'
p2500
I554
sS'AATCGG'
p2501
I960
sS'AATCGC'
p2502
I860
sS'AATCGA'
p2503
I545
sS'GTTCAG'
p2504
I1509
sS'GGCCTT'
p2505
I791
sS'TCACTA'
p2506
I431
sS'TCACTC'
p2507
I371
sS'AATCGT'
p2508
I285
sS'AGCCGA'
p2509
I2081
sS'GAGCGT'
p2510
I575
sS'AGCCGC'
p2511
I4450
sS'TAATTG'
p2512
I1567
sS'TAATTA'
p2513
I1573
sS'AGCCGG'
p2514
I4404
sS'GTTTTT'
p2515
I807
sS'TGGTGA'
p2516
I1573
sS'GGGCTC'
p2517
I2007
sS'TGGTGC'
p2518
I1319
sS'GATGGC'
p2519
I2121
sS'GGGCTG'
p2520
I5732
sS'TGGTGG'
p2521
I2198
sS'GATGGG'
p2522
I3641
sS'AAAAAA'
p2523
I2477
sS'GAGCGG'
p2524
I3714
sS'GTTTTG'
p2525
I6235
sS'AGCCGT'
p2526
I679
sS'AAAAAG'
p2527
I1292
sS'ATCACA'
p2528
I2923
sS'CCAAGG'
p2529
I965
sS'CTACAT'
p2530
I69
sS'TCTCAG'
p2531
I1907
sS'GATGGT'
p2532
I674
sS'TGGTGT'
p2533
I894
sS'GGGCTT'
p2534
I410
sS'ATTCGT'
p2535
I82
sS'AGAACT'
p2536
I403
sS'GCGTTT'
p2537
I133
sS'CCTTCG'
p2538
I1089
sS'TACCAT'
p2539
I548
sS'GGACCT'
p2540
I107
sS'CCTATT'
p2541
I255
sS'ACCCGG'
p2542
I1796
sS'ACCCGA'
p2543
I712
sS'ATGTCT'
p2544
I738
sS'ACCCGC'
p2545
I1542
sS'AGATAA'
p2546
I393
sS'TACCAC'
p2547
I1792
sS'AGAACG'
p2548
I314
sS'TACCAA'
p2549
I1760
sS'ATTGCC'
p2550
I562
sS'TACCAG'
p2551
I2260
sS'AGAACC'
p2552
I832
sS'ACCAGC'
p2553
I2857
sS'CACTGG'
p2554
I7868
sS'CCTATG'
p2555
I1192
sS'TGACAA'
p2556
I229
sS'ACCAGG'
p2557
I3962
sS'CACTGC'
p2558
I9184
sS'ATGTCG'
p2559
I285
sS'CACTGA'
p2560
I6671
sS'CGATTT'
p2561
I31
sS'TAGGTT'
p2562
I169
sS'GTTTAC'
p2563
I1329
sS'AATTAT'
p2564
I723
sS'CTGTTG'
p2565
I4622
sS'GTAACC'
p2566
I753
sS'CTGTTC'
p2567
I2287
sS'CGGGTT'
p2568
I78
sS'CTGTTA'
p2569
I2971
sS'AATTAC'
p2570
I1815
sS'TAGGTG'
p2571
I2106
sS'CATGGA'
p2572
I1315
sS'AATTAG'
p2573
I2125
sS'TAGGTC'
p2574
I669
sS'CGGGTC'
p2575
I352
sS'CTGTTT'
p2576
I1018
sS'CGGGTA'
p2577
I399
sS'CGGGTG'
p2578
I1033
sS'CCAAAC'
p2579
I273
sS'ATTGTT'
p2580
I194
sS'AAGTAA'
p2581
I1224
sS'CATTAC'
p2582
I2004
sS'GCAATG'
p2583
I921
sS'TTAGGG'
p2584
I528
sS'ATATAT'
p2585
I211
sS'AGCAAC'
p2586
I3110
sS'TTAGGC'
p2587
I254
sS'AAAGCT'
p2588
I406
sS'AGCAAG'
p2589
I5005
sS'ATGCTA'
p2590
I1365
sS'AAAGCA'
p2591
I1386
sS'AAAGCC'
p2592
I1201
sS'TTAGGT'
p2593
I141
sS'ATATAA'
p2594
I349
sS'AGCAAT'
p2595
I1159
sS'ATATAC'
p2596
I207
sS'TACTTC'
p2597
I5645
sS'TACTTA'
p2598
I6883
sS'TACTTG'
p2599
I7673
sS'ATAGCG'
p2600
I84
sS'TGCTAA'
p2601
I3686
sS'ATAGCT'
p2602
I160
sS'TACTTT'
p2603
I2620
sS'CTTCGA'
p2604
I504
sS'CGAGTT'
p2605
I26
sS'TCCAAT'
p2606
I841
sS'CGTACT'
p2607
I197
sS'TCCCGT'
p2608
I481
sS'TATGCT'
p2609
I576
sS'CTTAAG'
p2610
I1472
sS'ACATAA'
p2611
I244
sS'CTTAAA'
p2612
I1669
sS'ACATAG'
p2613
I190
sS'CTTAAC'
p2614
I1121
sS'TCCAAG'
p2615
I3217
sS'CGAGTG'
p2616
I379
sS'TTGTTA'
p2617
I2758
sS'TCCAAC'
p2618
I1938
sS'CGTACG'
p2619
I212
sS'AGGGGA'
p2620
I1492
sS'CTTAAT'
p2621
I410
sS'AGGGGC'
p2622
I1372
sS'TATGCA'
p2623
I1631
sS'AGGGGG'
p2624
I1838
sS'TCATTA'
p2625
I1242
sS'CGACTT'
p2626
I25
sS'TGAATT'
p2627
I127
sS'TTGTAA'
p2628
I837
sS'CACAAA'
p2629
I3763
sS'TTGTAC'
p2630
I524
sS'GTACCT'
p2631
I185
sS'TTGTAG'
p2632
I929
sS'TGAATC'
p2633
I427
sS'CGACTA'
p2634
I105
sS'TGAATA'
p2635
I809
sS'GGATAC'
p2636
I97
sS'TGAATG'
p2637
I1493
sS'AAGTAT'
p2638
I333
sS'CGGCTG'
p2639
I2578
sS'TTGTAT'
p2640
I362
sS'ATCGTG'
p2641
I880
sS'GCTTCG'
p2642
I977
sS'ATCGTC'
p2643
I306
sS'GCTTCC'
p2644
I3756
sS'TGGGAG'
p2645
I1453
sS'TGGGAA'
p2646
I784
sS'TGGGAC'
p2647
I648
sS'GCTTCT'
p2648
I1209
sS'ATCGTT'
p2649
I74
sS'ACAACG'
p2650
I131
sS'TGGGAT'
p2651
I178
sS'ACGCGC'
p2652
I288
sS'CTAGCC'
p2653
I682
sS'GACCAT'
p2654
I618
sS'CTAGCG'
p2655
I253
sS'CGGTAG'
p2656
I276
sS'ACTTAG'
p2657
I1122
sS'ACTTAA'
p2658
I1265
sS'CGGTAC'
p2659
I175
sS'TACACT'
p2660
I1803
sS'CGGTAA'
p2661
I162
sS'GACCAG'
p2662
I4663
sS'GACCAC'
p2663
I3064
sS'GACCAA'
p2664
I3367
sS'CCCGTC'
p2665
I1152
sS'TACACC'
p2666
I2421
sS'CGGTAT'
p2667
I54
sS'TACACA'
p2668
I4317
sS'TACACG'
p2669
I1073
sS'GCGAGA'
p2670
I460
sS'GAGAGC'
p2671
I4182
sS'GCGAGC'
p2672
I577
sS'GGCCGT'
p2673
I634
sS'GCGAGG'
p2674
I1320
sS'TTAAGA'
p2675
I1033
sS'CAGCCG'
p2676
I898
sS'CAGCCA'
p2677
I2490
sS'CAGCCC'
p2678
I3069
sS'GCGAGT'
p2679
I178
sS'CTCGCT'
p2680
I940
sS'GAACTC'
p2681
I633
sS'GAACTA'
p2682
I937
sS'GGACTT'
p2683
I43
sS'CACCTA'
p2684
I4126
sS'AACTAT'
p2685
I931
sS'CACCTC'
p2686
I5599
sS'CACCTG'
p2687
I10211
sS'TGATCC'
p2688
I370
sS'AACACT'
p2689
I2240
sS'TGATCA'
p2690
I392
sS'ATTTAA'
p2691
I1747
sS'TAGATA'
p2692
I1236
sS'AACTAG'
p2693
I2680
sS'GGACTG'
p2694
I602
sS'CACCTT'
p2695
I1191
sS'GGACTA'
p2696
I294
sS'AACTAA'
p2697
I3344
sS'AACGAT'
p2698
I132
sS'AACACG'
p2699
I1402
sS'AACACA'
p2700
I5333
sS'AACACC'
p2701
I3488
sS'TGATCT'
p2702
I201
sS'AAAGAC'
p2703
I638
sS'ACGCAC'
p2704
I168
sS'TGAGCC'
p2705
I712
sS'GACAGT'
p2706
I2902
sS'CAACAA'
p2707
I288
sS'AAAGAA'
p2708
I937
sS'CAACAC'
p2709
I192
sS'GCTGAT'
p2710
I239
sS'GCATTA'
p2711
I844
sS'GACAGG'
p2712
I9599
sS'AAAGAG'
p2713
I1189
sS'GACAGC'
p2714
I6948
sS'GACAGA'
p2715
I7279
sS'GTATTA'
p2716
I1596
sS'ACGAAT'
p2717
I26
sS'GTATTC'
p2718
I690
sS'GTAAGT'
p2719
I387
sS'ATATCA'
p2720
I654
sS'AGAGGT'
p2721
I222
sS'GGTGGC'
p2722
I1542
sS'TCCCCT'
p2723
I1221
sS'GGTGGA'
p2724
I1532
sS'TATCTT'
p2725
I741
sS'GGTGGG'
p2726
I3231
sS'AGAGGC'
p2727
I650
sS'GTAAGA'
p2728
I866
sS'AGAGGA'
p2729
I789
sS'CTCGCC'
p2730
I2923
sS'AGAGGG'
p2731
I1140
sS'GTAAGG'
p2732
I1059
sS'TATCTA'
p2733
I2457
sS'CGTCAC'
p2734
I1079
sS'TCCCCC'
p2735
I2263
sS'GGTGGT'
p2736
I434
sS'TCCCCA'
p2737
I3029
sS'GTCGCG'
p2738
I963
sS'GTCGCA'
p2739
I899
sS'GTCGCC'
p2740
I1808
sS'CCGTCT'
p2741
I251
sS'TAATAC'
p2742
I366
sS'CAAAGT'
p2743
I454
sS'CTCGCG'
p2744
I1657
sS'TCGGTG'
p2745
I495
sS'ACGCTC'
p2746
I343
sS'GTCGCT'
p2747
I634
sS'GTAACT'
p2748
I444
sS'CCGTCG'
p2749
I215
sS'CCGTCA'
p2750
I414
sS'CCGTCC'
p2751
I807
sS'GGCTGT'
p2752
I2883
sS'CGCGTG'
p2753
I2470
sS'CTATAT'
p2754
I179
sS'CGCGTC'
p2755
I1301
sS'CGCGTA'
p2756
I740
sS'ATGCAG'
p2757
I930
sS'ATGCAA'
p2758
I656
sS'ATGCAC'
p2759
I551
sS'CGCGTT'
p2760
I187
sS'GGCTGG'
p2761
I11801
sS'GGCTGA'
p2762
I6260
sS'GGCTGC'
p2763
I9462
sS'CCACTT'
p2764
I93
sS'TTTAGA'
p2765
I1604
sS'ATGACG'
p2766
I368
sS'GGAGTT'
p2767
I60
sS'ATGACA'
p2768
I1118
sS'ATGACC'
p2769
I719
sS'CCTGAT'
p2770
I164
sS'GGGCCT'
p2771
I737
sS'ATGACT'
p2772
I802
sS'GGAGTA'
p2773
I335
sS'CTACGC'
p2774
I195
sS'GGAGTC'
p2775
I277
sS'GGAGTG'
p2776
I871
sS'GGGCCG'
p2777
I1030
sS'GGGCCC'
p2778
I1725
sS'GGGCCA'
p2779
I1388
sS'CTGATC'
p2780
I542
sS'ACGAGT'
p2781
I74
sS'AGGCCA'
p2782
I1841
sS'AGGCCC'
p2783
I2351
sS'AGGCCG'
p2784
I1090
sS'ACGAGG'
p2785
I495
sS'ACGAGC'
p2786
I216
sS'ACGAGA'
p2787
I212
sS'GGCAAC'
p2788
I2332
sS'AGGCCT'
p2789
I921
sS'ACATCT'
p2790
I248
sS'GGGTTG'
p2791
I2564
sS'TTTGGG'
p2792
I1606
sS'ATTGTG'
p2793
I1774
sS'GGGTTC'
p2794
I929
sS'TTTGAT'
p2795
I306
sS'TGCAAT'
p2796
I970
sS'ACTTAT'
p2797
I249
sS'CTACGA'
p2798
I144
sS'AACGGT'
p2799
I327
sS'TGCGAA'
p2800
I494
sS'TGCGAC'
p2801
I628
sS'AGAAAT'
p2802
I239
sS'TGCGAG'
p2803
I1211
sS'AACGGC'
p2804
I979
sS'TTTGAG'
p2805
I1541
sS'AACGGA'
p2806
I949
sS'TTTGGC'
p2807
I933
sS'AACGGG'
p2808
I1397
sS'TTTGAC'
p2809
I882
sS'TTTGAA'
p2810
I1447
sS'ATCATC'
p2811
I1597
sS'CGGGCT'
p2812
I333
sS'CTCGTA'
p2813
I787
sS'CTCGTC'
p2814
I1049
sS'CCCTGG'
p2815
I8155
sS'CCCTGA'
p2816
I4442
sS'CTCGTG'
p2817
I2037
sS'CCCTGC'
p2818
I8405
sS'CCCTGT'
p2819
I2143
sS'AAGCTC'
p2820
I2055
sS'GATATA'
p2821
I1581
sS'AAGCTA'
p2822
I2146
sS'GATATG'
p2823
I2166
sS'AAGCTG'
p2824
I5532
sS'TGACGC'
p2825
I153
sS'TACTCT'
p2826
I2401
sS'CATCGT'
p2827
I265
sS'CAGGGT'
p2828
I476
sS'GCTAAT'
p2829
I212
sS'CCAGTC'
p2830
I276
sS'TACGAT'
p2831
I107
sS'CCAGTG'
p2832
I966
sS'TACTCG'
p2833
I1232
sS'CATCGA'
p2834
I531
sS'CATCGC'
p2835
I991
sS'TACTCC'
p2836
I3756
sS'NGAATT'
p2837
I1
sS'TACTCA'
p2838
I5792
sS'CATCGG'
p2839
I714
sS'CAGGGG'
p2840
I2331
sS'CAGGGA'
p2841
I2149
sS'CAGGGC'
p2842
I2306
sS'AATCTG'
p2843
I4398
sS'CGGACT'
p2844
I242
sS'GCCATT'
p2845
I634
sS'AGTCGA'
p2846
I492
sS'AATCTA'
p2847
I2381
sS'TGAACG'
p2848
I160
sS'TCACAC'
p2849
I185
sS'TCACAA'
p2850
I180
sS'TCACAG'
p2851
I330
sS'GCCATA'
p2852
I2039
sS'CGGACG'
p2853
I387
sS'TCCACC'
p2854
I4808
sS'CGGACA'
p2855
I451
sS'CGGACC'
p2856
I722
sS'GCCATG'
p2857
I5056
sS'TTTTAA'
p2858
I3566
sS'TCACAT'
p2859
I78
sS'CACGGA'
p2860
I1066
sS'ATTAAA'
p2861
I1629
sS'ATTAAG'
p2862
I1158
sS'TTTTAC'
p2863
I1337
sS'TCACTT'
p2864
I113
sS'ACTCCT'
p2865
I362
sS'TCCACG'
p2866
I1400
sS'ATTAAT'
p2867
I311
sS'ATCATG'
p2868
I3400
sS'GAACCA'
p2869
I703
sS'GGTATG'
p2870
I1175
sS'GGTATA'
p2871
I622
sS'GGTATC'
p2872
I346
sS'GAACCG'
p2873
I237
sS'TCGCTT'
p2874
I73
sS'CTGAAA'
p2875
I949
sS'CTGAAC'
p2876
I775
sS'CTGAAG'
p2877
I1566
sS'CCCGAA'
p2878
I544
sS'TAGGTA'
p2879
I1204
sS'CATTGC'
p2880
I3262
sS'CCCGGC'
p2881
I2686
sS'CATTGA'
p2882
I2753
sS'CTAGTT'
p2883
I107
sS'CATTGG'
p2884
I4459
sS'TCAACT'
p2885
I217
sS'ATGTTA'
p2886
I1902
sS'ACACCG'
p2887
I87
sS'CTGCCA'
p2888
I3999
sS'CTGCCC'
p2889
I5872
sS'CTATTC'
p2890
I795
sS'ACACCA'
p2891
I265
sS'CTGCCG'
p2892
I1971
sS'CTAGTG'
p2893
I1075
sS'TCAACC'
p2894
I392
sS'ATGTTC'
p2895
I1008
sS'CTAGTC'
p2896
I288
sS'TCAACG'
p2897
I97
sS'CTAGTA'
p2898
I534
sS'CATTGT'
p2899
I1970
sS'TATGAC'
p2900
I1524
sS'ACACCT'
p2901
I130
sS'CTGCCT'
p2902
I2495
sS'CCTCGT'
p2903
I205
sS'TTGTGT'
p2904
I1265
sS'AGACTG'
p2905
I865
sS'TCACTG'
p2906
I1110
sS'AGACTA'
p2907
I450
sS'CCTCGG'
p2908
I1452
sS'CCTCGC'
p2909
I1285
sS'CCCGAC'
p2910
I944
sS'CCTCGA'
p2911
I525
sS'CGAGGA'
p2912
I244
sS'CGAGGC'
p2913
I294
sS'CGAGGG'
p2914
I439
sS'CACCGT'
p2915
I561
sS'ACTTTA'
p2916
I3036
sS'ACTTTG'
p2917
I4763
sS'GACCTG'
p2918
I9310
sS'GACCTA'
p2919
I3606
sS'GACCTC'
p2920
I4978
sS'CACCGG'
p2921
I2179
sS'GCATAG'
p2922
I179
sS'CACCGA'
p2923
I1183
sS'CACCGC'
p2924
I3562
sS'GGACGA'
p2925
I99
sS'CGCCCC'
p2926
I6257
sS'GGACGG'
p2927
I259
sS'ACGCTA'
p2928
I255
sS'CACAGC'
p2929
I7202
sS'CTTATC'
p2930
I787
sS'CACAGA'
p2931
I5974
sS'CTTATA'
p2932
I1202
sS'CACAGG'
p2933
I7929
sS'CTTATG'
p2934
I1778
sS'ACTCAT'
p2935
I412
sS'GAGGAG'
p2936
I7761
sS'GACGTA'
p2937
I1331
sS'CGTATC'
p2938
I200
sS'GACGTC'
p2939
I2271
sS'GAGGAC'
p2940
I2391
sS'CGTATG'
p2941
I396
sS'GACGTG'
p2942
I3910
sS'TTAACA'
p2943
I888
sS'ACTCAC'
p2944
I1412
sS'TTAACC'
p2945
I718
sS'ACTCAA'
p2946
I1027
sS'ACTCAG'
p2947
I2173
sS'TTAACG'
p2948
I183
sS'CACAGT'
p2949
I2725
sS'AGCGAC'
p2950
I1077
sS'TAAACA'
p2951
I1551
sS'AGCGAA'
p2952
I923
sS'TAAACC'
p2953
I865
sS'AGCGAG'
p2954
I2273
sS'CCACCG'
p2955
I149
sS'TAAACG'
p2956
I275
sS'CTGTGG'
p2957
I4430
sS'GTATGT'
p2958
I594
sS'AGTTCA'
p2959
I2783
sS'TAATTT'
p2960
I236
sS'AGTTCG'
p2961
I835
sS'CTGTGA'
p2962
I2806
sS'CGGGGT'
p2963
I239
sS'TAGGAC'
p2964
I760
sS'GCAAAG'
p2965
I565
sS'CCCGGT'
p2966
I321
sS'GCAAAA'
p2967
I318
sS'TAGGAG'
p2968
I1376
sS'GCAAAC'
p2969
I336
sS'CGGGGC'
p2970
I1309
sS'CGGGGA'
p2971
I809
sS'CTGTGT'
p2972
I2006
sS'CGGGGG'
p2973
I1077
sS'GTATGC'
p2974
I506
sS'AGCTCG'
p2975
I2352
sS'GCAAAT'
p2976
I117
sS'CGAGAA'
p2977
I106
sS'TAGGAT'
p2978
I194
sS'AAAAAT'
p2979
I251
sS'TTCAAT'
p2980
I1040
sS'TGCTTT'
p2981
I3121
sS'TTATAT'
p2982
I227
sS'GTAATT'
p2983
I196
sS'GTTACC'
p2984
I1113
sS'GTTACA'
p2985
I1188
sS'TAATTC'
p2986
I664
sS'GTTACG'
p2987
I353
sS'TATCGC'
p2988
I481
sS'TATAGT'
p2989
I728
sS'GTCTAA'
p2990
I2524
sS'TGCTTA'
p2991
I7545
sS'GTCTAC'
p2992
I1918
sS'TGCTTC'
p2993
I8212
sS'TTCAAA'
p2994
I4890
sS'GTCTAG'
p2995
I2708
sS'TGCTTG'
p2996
I10604
sS'TATAGC'
p2997
I1057
sS'TATCGT'
p2998
I167
sS'TATAGA'
p2999
I1494
sS'AGCTCA'
p3000
I6806
sS'TATAGG'
p3001
I1588
sS'GTTACT'
p3002
I617
sS'GCTCTC'
p3003
I1983
sS'GGAAAC'
p3004
I594
sS'GGGCTA'
p3005
I1312
sS'GCTCTG'
p3006
I5870
sS'CCACGT'
p3007
I70
sS'GGCGTT'
p3008
I248
sS'AGGACC'
p3009
I1702
sS'GAATGG'
p3010
I1567
sS'GGCTTT'
p3011
I1999
sS'ACTACT'
p3012
I365
sS'GAATGC'
p3013
I1180
sS'CCACGA'
p3014
I104
sS'AACCTG'
p3015
I6795
sS'CCACGC'
p3016
I202
sS'GGCGTA'
p3017
I941
sS'GTTCCG'
p3018
I530
sS'GGCGTG'
p3019
I4786
sS'CCACGG'
p3020
I183
sS'AACCTA'
p3021
I3160
sS'GGCTTA'
p3022
I5185
sS'ACTACC'
p3023
I589
sS'GGCTTC'
p3024
I7649
sS'ACTACA'
p3025
I1160
sS'ACTACG'
p3026
I271
sS'GGCTTG'
p3027
I10094
sS'TCCTAG'
p3028
I3147
sS'GTTTTC'
p3029
I3144
sS'CGTTGC'
p3030
I1181
sS'TAACAC'
p3031
I287
sS'TCCTAC'
p3032
I2221
sS'AGTCAC'
p3033
I3149
sS'TCCTAA'
p3034
I2785
sS'TAACAG'
p3035
I455
sS'TCATCG'
p3036
I153
sS'AAGCGT'
p3037
I331
sS'TCATCC'
p3038
I747
sS'GTTTTA'
p3039
I4907
sS'CTTTCT'
p3040
I2199
sS'AGTCAT'
p3041
I867
sS'TCCTAT'
p3042
I783
sS'TAACAT'
p3043
I111
sS'CGTTGT'
p3044
I414
sS'TAAATA'
p3045
I1811
sS'GAGCGA'
p3046
I1842
sS'CTTTCA'
p3047
I3907
sS'CTTTCG'
p3048
I1079
sS'GAGCGC'
p3049
I2954
sS'GTTGAT'
p3050
I181
sS'CGACCA'
p3051
I59
sS'CGACCC'
p3052
I105
sS'CGACCG'
p3053
I40
sS'CCTTAT'
p3054
I395
sS'GTTGAC'
p3055
I660
sS'GTTGAA'
p3056
I741
sS'GTTGAG'
p3057
I1136
sS'CCTTAC'
p3058
I862
sS'TTCGAT'
p3059
I114
sS'CCTTAA'
p3060
I1296
sS'CCTTAG'
p3061
I1590
sS'CGACCT'
p3062
I42
sS'AATAGA'
p3063
I2024
sS'AATAGC'
p3064
I1627
sS'CAACTG'
p3065
I740
sS'AATAGG'
p3066
I2056
sS'TCTCAA'
p3067
I1169
sS'GGGGTT'
p3068
I142
sS'GGATGT'
p3069
I225
sS'AATAGT'
p3070
I796
sS'TCTCAC'
p3071
I1050
sS'CAACTT'
p3072
I58
sS'ACTGTA'
p3073
I1432
sS'GGGGTG'
p3074
I2386
sS'GGATGA'
p3075
I361
sS'GGGGTC'
p3076
I385
sS'GGGGTA'
p3077
I587
sS'TCTCCG'
p3078
I530
sS'GAGTCC'
p3079
I4106
sS'GAGTCA'
p3080
I7964
sS'TCTCCC'
p3081
I1421
sS'GAGTCG'
p3082
I1448
sS'TCTCCA'
p3083
I1228
sS'AAACTC'
p3084
I471
sS'CTATGA'
p3085
I843
sS'AGTACG'
p3086
I340
sS'CTATGC'
p3087
I718
sS'AGTACC'
p3088
I928
sS'CTATGG'
p3089
I997
sS'AGTACA'
p3090
I1274
sS'CCCTTA'
p3091
I5331
sS'CCCTTC'
p3092
I7904
sS'TCTCCT'
p3093
I556
sS'CCCTTG'
p3094
I9371
sS'AGCAAA'
p3095
I4179
sS'AGTACT'
p3096
I625
sS'CTATGT'
p3097
I528
sS'GCCGAA'
p3098
I700
sS'GTGGAG'
p3099
I1803
sS'GCCGAC'
p3100
I1201
sS'GTGGAC'
p3101
I587
sS'GCCGAG'
p3102
I2848
sS'GTGGAA'
p3103
I826
sS'GGGTGA'
p3104
I1380
sS'TATCAT'
p3105
I499
sS'GTGGAT'
p3106
I146
sS'GCCGAT'
p3107
I116
sS'AGATAG'
p3108
I238
sS'CACTGT'
p3109
I3620
sS'GTAGTC'
p3110
I371
sS'AAATCG'
p3111
I161
sS'CACGCG'
p3112
I1231
sS'TTATCG'
p3113
I160
sS'GTAGTG'
p3114
I861
sS'AAATCC'
p3115
I715
sS'CACGCC'
p3116
I3230
sS'AAATCA'
p3117
I863
sS'AGATAC'
p3118
I164
sS'CACGCT'
p3119
I726
sS'AAATCT'
p3120
I335
sS'AAAGTC'
p3121
I482
sS'GTAGTT'
p3122
I143
sS'ACCAGT'
p3123
I864
sS'CGTTAT'
p3124
I156
sS'GATGAT'
p3125
I614
sS'GGAGCA'
p3126
I594
sS'GGAGCC'
p3127
I891
sS'CCGGCT'
p3128
I183
sS'CCAAAT'
p3129
I85
sS'GGAGCG'
p3130
I333
sS'AAAACT'
p3131
I420
sS'GATGAC'
p3132
I2987
sS'GATGAA'
p3133
I2439
sS'GCTCTT'
p3134
I378
sS'GATGAG'
p3135
I3803
sS'AAAACC'
p3136
I936
sS'AGAACA'
p3137
I1136
sS'AAAACA'
p3138
I1763
sS'AAAACG'
p3139
I273
sS'GGAGCT'
p3140
I306
sS'CCAAAG'
p3141
I444
sS'TCGCGG'
p3142
I338
sS'CGGTCC'
p3143
I903
sS'TCGCGC'
p3144
I247
sS'TCGCGA'
p3145
I156
sS'GCCACA'
p3146
I4556
sS'AGATCA'
p3147
I540
sS'GCCACC'
p3148
I5282
sS'AGATCC'
p3149
I450
sS'CGACGG'
p3150
I113
sS'GCCACG'
p3151
I2156
sS'AGATCG'
p3152
I135
sS'ATGTCA'
p3153
I1679
sS'TCGCGT'
p3154
I58
sS'GTGCAA'
p3155
I896
sS'ACCCGT'
p3156
I201
sS'AGAAAG'
p3157
I1325
sS'TCCCTT'
p3158
I1265
sS'AGAAAC'
p3159
I728
sS'GCCACT'
p3160
I2024
sS'AGAAAA'
p3161
I878
sS'TACCCC'
p3162
I1545
sS'ATGTAC'
p3163
I414
sS'ACTTCG'
p3164
I517
sS'ATGTAA'
p3165
I622
sS'ATGTAG'
p3166
I578
sS'GTTCGA'
p3167
I387
sS'CTACCA'
p3168
I452
sS'CCGGCA'
p3169
I461
sS'CCCAAG'
p3170
I3008
sS'CCTATC'
p3171
I506
sS'ATGTAT'
p3172
I230
sS'ATTAGA'
p3173
I954
sS'ACTTCA'
p3174
I1848
sS'ATCCAT'
p3175
I264
sS'AGCACT'
p3176
I2514
sS'TTAGAA'
p3177
I276
sS'CCCAAC'
p3178
I2050
sS'TTAGAC'
p3179
I175
sS'CGGCTC'
p3180
I1393
sS'TTAGAG'
p3181
I354
sS'CGGCTA'
p3182
I613
sS'AGCACC'
p3183
I4399
sS'AGCACA'
p3184
I4683
sS'AGCACG'
p3185
I1805
sS'CGGCTT'
p3186
I190
sS'CGCCCT'
p3187
I1347
sS'TTAGAT'
p3188
I77
sS'CCAGCA'
p3189
I735
sS'ACCTAT'
p3190
I393
sS'CCAGCC'
p3191
I971
sS'ATATCC'
p3192
I538
sS'CCAGCG'
p3193
I289
sS'CGACGT'
p3194
I24
sS'TCGCTA'
p3195
I287
sS'TGTGAG'
p3196
I2551
sS'TGTGAA'
p3197
I1414
sS'ACGTCT'
p3198
I155
sS'TGTGAC'
p3199
I1838
sS'ATATCT'
p3200
I313
sS'CCAGCT'
p3201
I305
sS'AAAGAT'
p3202
I155
sS'TGTGAT'
p3203
I405
sS'TTATTG'
p3204
I2178
sS'TTATTA'
p3205
I2125
sS'CATGAT'
p3206
I338
sS'TTATTC'
p3207
I825
sS'AGACGG'
p3208
I267
sS'TTTTAT'
p3209
I737
sS'GCGAAC'
p3210
I202
sS'TACAAG'
p3211
I3278
sS'TCCACT'
p3212
I1848
sS'TACAAA'
p3213
I4020
sS'AGACGA'
p3214
I156
sS'TACAAC'
p3215
I2254
sS'CCTCTG'
p3216
I5765
sS'AGGTGG'
p3217
I3188
sS'CCTCTC'
p3218
I2578
sS'AGGTGC'
p3219
I1494
sS'CCTCTA'
p3220
I2274
sS'AGGTGA'
p3221
I1860
sS'CTTACG'
p3222
I418
sS'TCCACA'
p3223
I3517
sS'TTTTAG'
p3224
I1829
sS'ACATCG'
p3225
I99
sS'CTTACC'
p3226
I1322
sS'ACATCA'
p3227
I561
sS'CTTACA'
p3228
I1293
sS'ACATCC'
p3229
I491
sS'AGGTGT'
p3230
I968
sS'CCTCTT'
p3231
I493
sS'CGTCGG'
p3232
I917
sS'TATGAG'
p3233
I1802
sS'CCCGGA'
p3234
I1534
sS'CCCGGG'
p3235
I3448
sS'TATGAA'
p3236
I1390
sS'TGGAAT'
p3237
I412
sS'AATTAA'
p3238
I2773
sS'TTGTGC'
p3239
I1360
sS'TATGAT'
p3240
I400
sS'TTGTGG'
p3241
I2503
sS'TTTTGA'
p3242
I2835
sS'TGGAAG'
p3243
I1879
sS'TGGAAC'
p3244
I808
sS'TGGAAA'
p3245
I1068
sS'TGAGGA'
p3246
I481
sS'AAGAGG'
p3247
I5015
sS'TGAGGC'
p3248
I441
sS'AAGAGA'
p3249
I3396
sS'AAGAGC'
p3250
I2506
sS'TGAGGG'
p3251
I644
sS'GCTTAG'
p3252
I1429
sS'GCTTAC'
p3253
I713
sS'GCTTAA'
p3254
I1066
sS'TCTGAT'
p3255
I219
sS'AAGCGC'
p3256
I1221
sS'AAGAGT'
p3257
I1008
sS'AAGCGA'
p3258
I841
sS'AAGCGG'
p3259
I1598
sS'GCTTAT'
p3260
I257
sS'CTGCTA'
p3261
I2700
sS'GCGTGT'
p3262
I302
sS'CTGCTC'
p3263
I4490
sS'ACTTCT'
p3264
I735
sS'CCGCAA'
p3265
I110
sS'GACCGT'
p3266
I656
sS'CTGCTG'
p3267
I10323
sS'CGGTCA'
p3268
I516
sS'GGTCGT'
p3269
I183
sS'CTAGAG'
p3270
I486
sS'CTAGAA'
p3271
I311
sS'CTAGAC'
p3272
I220
sS'GACCGA'
p3273
I1632
sS'GACCGC'
p3274
I2969
sS'ACTTCC'
p3275
I2675
sS'CTGCTT'
p3276
I1177
sS'GACCGG'
p3277
I3170
sS'CTAGAT'
p3278
I92
sS'GGTCGG'
p3279
I1113
sS'CGGTCT'
p3280
I285
sS'GGTCGC'
p3281
I947
sS'GGTCGA'
p3282
I465
sS'CGTCGC'
p3283
I1071
sS'GCGTGG'
p3284
I1129
sS'GCGTGA'
p3285
I528
sS'GCGTGC'
p3286
I652
sS'TGCTCA'
p3287
I5985
sS'TTCATC'
p3288
I2895
sS'TGCTCC'
p3289
I6629
sS'TTCATA'
p3290
I4239
sS'TTCATG'
p3291
I6154
sS'TGCTCG'
p3292
I1892
sS'GTACAA'
p3293
I171
sS'CAGCAG'
p3294
I2482
sS'GCGGCT'
p3295
I240
sS'CAGCAC'
p3296
I1361
sS'CAGCAA'
p3297
I1289
sS'GTACAC'
p3298
I171
sS'TGCTCT'
p3299
I3451
sS'TTCATT'
p3300
I1677
sS'GCTTTA'
p3301
I3845
sS'GCTGCC'
p3302
I1945
sS'GCTGCA'
p3303
I1930
sS'AACTCT'
p3304
I2428
sS'TGGCCC'
p3305
I1825
sS'TGGCCA'
p3306
I1733
sS'GTAGCA'
p3307
I533
sS'AACTCA'
p3308
I5282
sS'TGGCCT'
p3309
I728
sS'AACTCC'
p3310
I5491
sS'GCTGCT'
p3311
I734
sS'AACTCG'
p3312
I1505
sS'TGAAGA'
p3313
I896
sS'AATATT'
p3314
I462
sS'CAACCT'
p3315
I140
sS'CAGTTA'
p3316
I2531
sS'TGGCCG'
p3317
I772
sS'GGCACG'
p3318
I1457
sS'GGCACA'
p3319
I3229
sS'GACAAT'
p3320
I1238
sS'GGCACC'
p3321
I3472
sS'CAACCG'
p3322
I92
sS'ACGACC'
p3323
I185
sS'AATATG'
p3324
I2483
sS'CGGTCG'
p3325
I294
sS'AATATA'
p3326
I2048
sS'TTAGGA'
p3327
I430
sS'AATATC'
p3328
I886
sS'CTTCGT'
p3329
I226
sS'GACAAA'
p3330
I5055
sS'GGCACT'
p3331
I1699
sS'GACAAC'
p3332
I3158
sS'ACGACA'
p3333
I192
sS'GACAAG'
p3334
I5187
sS'GCTGCG'
p3335
I1177
sS'GCTTTT'
p3336
I761
sS'GCAATA'
p3337
I488
sS'GAATTT'
p3338
I225
sS'TTGAAC'
p3339
I697
sS'CGATGG'
p3340
I165
sS'TCCCAT'
p3341
I455
sS'CGATGC'
p3342
I123
sS'CAGCAT'
p3343
I297
sS'CGATGA'
p3344
I112
sS'GAATTA'
p3345
I1570
sS'GAATTC'
p3346
I889
sS'GAATTG'
p3347
I1611
sS'TCCCAA'
p3348
I1788
sS'CGATGT'
p3349
I69
sS'TCCCAC'
p3350
I2280
sS'GTAAAG'
p3351
I686
sS'TCCCAG'
p3352
I4142
sS'GGATTT'
p3353
I95
sS'GTGCGT'
p3354
I334
sS'CTATCG'
p3355
I206
sS'GGATTC'
p3356
I303
sS'GGATTA'
p3357
I911
sS'GGATTG'
p3358
I837
sS'ACCTCT'
p3359
I1690
sS'CTATCA'
p3360
I946
sS'ATATAG'
p3361
I244
sS'TCTGTG'
p3362
I4259
sS'TCTGTC'
p3363
I1253
sS'TCTGTA'
p3364
I1969
sS'AACCGG'
p3365
I1685
sS'CTCCTT'
p3366
I2289
sS'GGCGGA'
p3367
I2582
sS'GGCGGG'
p3368
I8651
sS'AACCGA'
p3369
I1028
sS'TCTGTT'
p3370
I303
sS'AAAGCG'
p3371
I415
sS'CTCCTG'
p3372
I14997
sS'AACCGT'
p3373
I390
sS'CTCCTA'
p3374
I5524
sS'CTCCTC'
p3375
I10825
sS'GGCGGT'
p3376
I640
sS'GACGCA'
p3377
I2662
sS'GACGCC'
p3378
I3743
sS'CCCACA'
p3379
I4104
sS'GACGCG'
p3380
I2550
sS'ATAGCA'
p3381
I364
sS'AGCCTT'
p3382
I1409
sS'CCGATT'
p3383
I43
sS'CCCACT'
p3384
I1891
sS'AACAAT'
p3385
I1278
sS'GACGCT'
p3386
I1368
sS'AGCGGT'
p3387
I395
sS'CCGATA'
p3388
I121
sS'AGCCTG'
p3389
I12216
sS'AGCCTA'
p3390
I3787
sS'CCGATG'
p3391
I280
sS'GTACCC'
p3392
I242
sS'GTACCA'
p3393
I241
sS'TAGGCT'
p3394
I498
sS'TGGTTA'
p3395
I2000
sS'CGCCTT'
p3396
I756
sS'TGGTTC'
p3397
I1241
sS'CAGAGT'
p3398
I946
sS'ACGCCA'
p3399
I273
sS'CAGTCA'
p3400
I2685
sS'ACCTCG'
p3401
I1471
sS'GAGTTG'
p3402
I5137
sS'CGCCTC'
p3403
I5842
sS'GCGCCA'
p3404
I481
sS'CGCCTA'
p3405
I1981
sS'GAGTTC'
p3406
I2734
sS'CGCCTG'
p3407
I6844
sS'GAGTTA'
p3408
I3272
sS'CAGAGG'
p3409
I4695
sS'GCATCC'
p3410
I591
sS'GTGCGG'
p3411
I1324
sS'CAGAGC'
p3412
I3064
sS'AAAATT'
p3413
I138
sS'CAGAGA'
p3414
I2993
sS'TAGCTA'
p3415
I1581
sS'CCGATC'
p3416
I91
sS'AGACTC'
p3417
I336
sS'CCTAGA'
p3418
I1010
sS'CCTAGC'
p3419
I938
sS'TTTGCT'
p3420
I616
sS'TAGCTC'
p3421
I1389
sS'TGCGGT'
p3422
I405
sS'CCTAGG'
p3423
I1518
sS'TAAGCA'
p3424
I804
sS'TGCGGC'
p3425
I1629
sS'TGCGGA'
p3426
I987
sS'CCTAGT'
p3427
I430
sS'TGCGGG'
p3428
I2189
sS'TTTGCG'
p3429
I424
sS'TGAGTT'
p3430
I97
sS'CGGGAC'
p3431
I554
sS'ATCGCT'
p3432
I210
sS'ATCGCC'
p3433
I638
sS'TGAGTG'
p3434
I1047
sS'ATCGCA'
p3435
I455
sS'TGAGTA'
p3436
I607
sS'ATCGCG'
p3437
I394
sS'TGAGTC'
p3438
I626
sS'AAGGTG'
p3439
I3442
sS'AAGGTC'
p3440
I955
sS'CATCAT'
p3441
I594
sS'AAGGTA'
p3442
I1677
sS'ACGGCA'
p3443
I281
sS'CATCAC'
p3444
I2109
sS'ACGGCC'
p3445
I403
sS'CATCAA'
p3446
I1807
sS'CATCAG'
p3447
I2648
sS'ACGGCG'
p3448
I201
sS'TCCCCG'
p3449
I1650
sS'TCTAAG'
p3450
I1179
sS'TCGTTT'
p3451
I80
sS'CGGAAT'
p3452
I99
sS'CAATTC'
p3453
I374
sS'GTGGCT'
p3454
I882
sS'ATCGAT'
p3455
I44
sS'TCACCG'
p3456
I103
sS'TCACCA'
p3457
I310
sS'TCACCC'
p3458
I287
sS'CGGAAG'
p3459
I1407
sS'CAACCC'
p3460
I304
sS'AAAATA'
p3461
I1445
sS'CGGAAC'
p3462
I495
sS'CGGAAA'
p3463
I495
sS'TAGCTT'
p3464
I345
sS'ATCCAG'
p3465
I1833
sS'ATGGCG'
p3466
I376
sS'TGTGTA'
p3467
I2644
sS'CCGTAG'
p3468
I174
sS'TGTGTG'
p3469
I8367
sS'ATGGCA'
p3470
I1063
sS'TTACTT'
p3471
I120
sS'ATCCCT'
p3472
I810
sS'ATGGCT'
p3473
I333
sS'TGTGTT'
p3474
I491
sS'CCAAGT'
p3475
I300
sS'AGATTA'
p3476
I794
sS'GAAACG'
p3477
I629
sS'GAAACA'
p3478
I1946
sS'GAAACC'
p3479
I1764
sS'ATGCAT'
p3480
I183
sS'CTGAGT'
p3481
I1087
sS'GAAACT'
p3482
I752
sS'AGAATG'
p3483
I1680
sS'AGATTT'
p3484
I140
sS'AGAATC'
p3485
I408
sS'CTGAGC'
p3486
I1990
sS'CTGAGA'
p3487
I1921
sS'CTGAGG'
p3488
I3313
sS'CATACC'
p3489
I1319
sS'CATACA'
p3490
I1577
sS'CATACG'
p3491
I381
sS'GCAATC'
p3492
I218
sS'TCAAAT'
p3493
I147
sS'GTCCAT'
p3494
I465
sS'AGGGGT'
p3495
I341
sS'CAGGAC'
p3496
I1262
sS'CATACT'
p3497
I779
sS'AATGGC'
p3498
I1526
sS'GTCCAG'
p3499
I3288
sS'CAAGCT'
p3500
I251
sS'TCAAAG'
p3501
I511
sS'GTCCAC'
p3502
I1798
sS'GTCCAA'
p3503
I1771
sS'CGGCGG'
p3504
I1517
sS'TTGATG'
p3505
I1695
sS'ATCGAG'
p3506
I359
sS'CGGCGC'
p3507
I1052
sS'TTGATC'
p3508
I440
sS'CGGCGA'
p3509
I457
sS'TTGATA'
p3510
I992
sS'CTATCT'
p3511
I533
sS'TTGATT'
p3512
I234
sS'CGGCGT'
p3513
I200
sS'ATGGCC'
p3514
I903
sS'GTACGC'
p3515
I109
sS'ATCGAC'
p3516
I211
sS'CCATTA'
p3517
I801
sS'CGAGTA'
p3518
I140
sS'CGGTTA'
p3519
I543
sS'GGTTTA'
p3520
I2878
sS'CGGTTC'
p3521
I536
sS'GGTTTC'
p3522
I2834
sS'CGGTTG'
p3523
I973
sS'GGTTTG'
p3524
I4914
sS'TATAAA'
p3525
I2570
sS'TTCAGT'
p3526
I2716
sS'GCTGTG'
p3527
I4888
sS'ACCTAA'
p3528
I1671
sS'GGGGAG'
p3529
I1676
sS'GGTTTT'
p3530
I603
sS'CGGTTT'
p3531
I126
sS'GCTGTA'
p3532
I1746
sS'TATGCG'
p3533
I406
sS'AGGTTG'
p3534
I2840
sS'GCATTT'
p3535
I175
sS'AGGTTC'
p3536
I1158
sS'AGGTTA'
p3537
I1906
sS'ATGAAA'
p3538
I884
sS'GAGGGA'
p3539
I5568
sS'TTTTTC'
p3540
I3473
sS'TCCATC'
p3541
I2039
sS'TTTTTA'
p3542
I6886
sS'TCCTCT'
p3543
I3698
sS'TTTTTG'
p3544
I6268
sS'GAGGGG'
p3545
I7620
sS'TTAAAT'
p3546
I325
sS'AGGTTT'
p3547
I438
sS'TAAGCG'
p3548
I201
sS'TATGCC'
p3549
I1065
sS'TTAAAC'
p3550
I538
sS'ATACGT'
p3551
I35
sS'TTAAAA'
p3552
I1130
sS'ACTCCG'
p3553
I345
sS'TTAAAG'
p3554
I974
sS'GAGGGT'
p3555
I922
sS'TTTTTT'
p3556
I1462
sS'ACTCCC'
p3557
I823
sS'CTGTAA'
p3558
I1109
sS'GTCACG'
p3559
I2179
sS'CTGTAC'
p3560
I806
sS'GCAACT'
p3561
I228
sS'GTCACC'
p3562
I5264
sS'CTGTAG'
p3563
I1199
sS'GTCACA'
p3564
I5023
sS'GCAACG'
p3565
I181
sS'GTCACT'
p3566
I2887
sS'TAGGCG'
p3567
I671
sS'GCAACC'
p3568
I512
sS'CTGTAT'
p3569
I431
sS'GCAACA'
p3570
I530
sS'TAGGCC'
p3571
I1360
sS'ATTCAT'
p3572
I337
sS'GTAAAA'
p3573
I557
sS'GCGATT'
p3574
I37
sS'TCGTGT'
p3575
I134
sS'TTCACT'
p3576
I2531
sS'ACAGAT'
p3577
I71
sS'GTCTCT'
p3578
I3840
sS'AACATT'
p3579
I996
sS'ATTCAG'
p3580
I1192
sS'ATTCAA'
p3581
I967
sS'ATTCAC'
p3582
I884
sS'GTCTCC'
p3583
I8076
sS'CCACTA'
p3584
I371
sS'GTCTCA'
p3585
I6383
sS'GCGATG'
p3586
I485
sS'GTCTCG'
p3587
I2608
sS'GCGATA'
p3588
I202
sS'TTCACA'
p3589
I4646
sS'GCGATC'
p3590
I137
sS'CGATTG'
p3591
I390
sS'GAAGGA'
p3592
I1966
sS'GAAGGG'
p3593
I2877
sS'CGATTA'
p3594
I138
sS'GGAACC'
p3595
I763
sS'AGACTT'
p3596
I80
sS'GGAACA'
p3597
I676
sS'GGAACG'
p3598
I266
sS'TGACGA'
p3599
I81
sS'ATAGTA'
p3600
I332
sS'TCATAC'
p3601
I171
sS'GAAGGT'
p3602
I377
sS'CAATCG'
p3603
I242
sS'CAATCA'
p3604
I1047
sS'CAATCC'
p3605
I687
sS'TCCTGA'
p3606
I5455
sS'AGTCCA'
p3607
I1300
sS'TCCTGC'
p3608
I8265
sS'AGTCCC'
p3609
I1871
sS'ACTAAA'
p3610
I772
sS'TCCTGG'
p3611
I10019
sS'ACTAAC'
p3612
I548
sS'TAACGC'
p3613
I199
sS'CAGCTG'
p3614
I5672
sS'CAGCTA'
p3615
I2161
sS'CAGCTC'
p3616
I2528
sS'ACTAAT'
p3617
I248
sS'CGACTC'
p3618
I106
sS'AGTCCT'
p3619
I674
sS'TCCTGT'
p3620
I3239
sS'TAATGT'
p3621
I438
sS'CAGCTT'
p3622
I456
sS'TAACGT'
p3623
I64
sS'AGCCAG'
p3624
I5915
sS'GTACTT'
p3625
I110
sS'CGACAT'
p3626
I13
sS'TTGTTC'
p3627
I1890
sS'CCGAGG'
p3628
I940
sS'CGACTG'
p3629
I205
sS'TTGTTG'
p3630
I3758
sS'AGGAAG'
p3631
I4046
sS'CCGAGC'
p3632
I493
sS'CCGCGT'
p3633
I76
sS'CGACAC'
p3634
I61
sS'CGACAA'
p3635
I26
sS'GTACTC'
p3636
I290
sS'GTACTA'
p3637
I452
sS'CCGCGC'
p3638
I544
sS'GGAGGA'
p3639
I859
sS'CCGCGA'
p3640
I257
sS'CCGCGG'
p3641
I621
sS'TTGTTT'
p3642
I1019
sS'GCATAT'
p3643
I94
sS'TCCGTT'
p3644
I198
sS'AGGAAC'
p3645
I1312
sS'AATAAC'
p3646
I1679
sS'AATAAA'
p3647
I3712
sS'AATAAG'
p3648
I2461
sS'CTGCGC'
p3649
I1456
sS'TACAAT'
p3650
I1134
sS'AATAAT'
p3651
I746
sS'ACGGTG'
p3652
I489
sS'CCAACC'
p3653
I702
sS'CTCAGT'
p3654
I2849
sS'CCAACG'
p3655
I180
sS'GGGATT'
p3656
I238
sS'CGCCGC'
p3657
I6753
sS'GTGTAT'
p3658
I459
sS'CGCCGA'
p3659
I1597
sS'GAGTAG'
p3660
I1893
sS'CGCCGG'
p3661
I4240
sS'GAGTAA'
p3662
I1837
sS'AGTAAG'
p3663
I1893
sS'CTCAGG'
p3664
I8798
sS'CTCAGC'
p3665
I7677
sS'CTCAGA'
p3666
I5767
sS'TATTGC'
p3667
I2450
sS'GCTTCA'
p3668
I2315
sS'GTGTAG'
p3669
I1088
sS'TCGAGC'
p3670
I198
sS'GTGTAA'
p3671
I883
sS'GTGTAC'
p3672
I735
sS'CGCCGT'
p3673
I641
sS'GTGGCA'
p3674
I2158
sS'CTCGGG'
p3675
I2905
sS'CTCGGA'
p3676
I1284
sS'GTGGCG'
p3677
I1053
sS'GCCGCC'
p3678
I4947
sS'GCCGCA'
p3679
I2293
sS'GCCGCG'
p3680
I2647
sS'ACACTT'
p3681
I81
sS'CTCGGT'
p3682
I423
sS'AGATAT'
p3683
I121
sS'TCGCTC'
p3684
I383
sS'CATATC'
p3685
I801
sS'CATATA'
p3686
I1645
sS'CAGTCG'
p3687
I673
sS'ACACTC'
p3688
I224
sS'ACACTA'
p3689
I350
sS'ACACTG'
p3690
I817
sS'GCCGCT'
p3691
I991
sS'ACCGGA'
p3692
I829
sS'AAATAA'
p3693
I748
sS'ACCGGC'
p3694
I754
sS'CTTTAG'
p3695
I2023
sS'CTTTAA'
p3696
I3042
sS'ACCGGG'
p3697
I1068
sS'CTTTAC'
p3698
I1550
sS'CACGAG'
p3699
I1196
sS'CAGGTA'
p3700
I1567
sS'AACTTC'
p3701
I5798
sS'CAGGTC'
p3702
I870
sS'CACGAC'
p3703
I784
sS'AACTTG'
p3704
I8620
sS'CAGGTG'
p3705
I3552
sS'CTTTAT'
p3706
I692
sS'AATCCC'
p3707
I1810
sS'TTTATC'
p3708
I941
sS'AATCCA'
p3709
I1491
sS'AAATAT'
p3710
I230
sS'AATCCG'
p3711
I555
sS'GATACA'
p3712
I1867
sS'CACGAT'
p3713
I151
sS'CAGGTT'
p3714
I232
sS'AACTTT'
p3715
I1693
sS'GGGATA'
p3716
I760
sS'GGGATC'
p3717
I492
sS'GGGTGT'
p3718
I854
sS'GGGATG'
p3719
I2184
sS'GATGCT'
p3720
I1036
sS'CGCAGT'
p3721
I1130
sS'GAGCCT'
p3722
I1820
sS'GGAGAC'
p3723
I309
sS'GGCGGC'
p3724
I3236
sS'GGAGAA'
p3725
I359
sS'GGGTGC'
p3726
I1122
sS'GGAGAG'
p3727
I584
sS'AATCAA'
p3728
I2187
sS'GGGTGG'
p3729
I3387
sS'GAGCCA'
p3730
I4306
sS'CGCAGG'
p3731
I4871
sS'GATGCG'
p3732
I992
sS'CGCAGA'
p3733
I2232
sS'GATGCA'
p3734
I2442
sS'GAGCCG'
p3735
I2406
sS'GATGCC'
p3736
I2231
sS'ACGAAC'
p3737
I101
sS'GGTAGT'
p3738
I472
sS'ACCCCT'
p3739
I505
sS'GCCAAT'
p3740
I1630
sS'GGCGAT'
p3741
I144
sS'AACCGC'
p3742
I1704
sS'AGAAGT'
p3743
I508
sS'GCCAAC'
p3744
I2076
sS'GGTAGA'
p3745
I1172
sS'ACCCCC'
p3746
I1177
sS'GGTAGC'
p3747
I910
sS'GCCAAG'
p3748
I4008
sS'CGGATA'
p3749
I270
sS'ACCCCG'
p3750
I882
sS'CGGATC'
p3751
I223
sS'AGAAGA'
p3752
I1289
sS'AGAAGC'
p3753
I1165
sS'GCAAGA'
p3754
I620
sS'AGAAGG'
p3755
I2151
sS'CACTCC'
p3756
I7200
sS'CACTCA'
p3757
I6767
sS'CACTCG'
p3758
I2115
sS'TGCGTT'
p3759
I237
sS'CGGATG'
p3760
I675
sS'TCAGCT'
p3761
I216
sS'AGCTTT'
p3762
I2398
sS'TGCGTC'
p3763
I1284
sS'TGCGTA'
p3764
I960
sS'CCCCGC'
p3765
I5845
sS'CCCCGA'
p3766
I1162
sS'AGCTTC'
p3767
I7522
sS'AGCTTA'
p3768
I5733
sS'AGCTTG'
p3769
I9543
sS'ATACGA'
p3770
I56
sS'AGACCA'
p3771
I272
sS'TTAGCT'
p3772
I242
sS'GTATAA'
p3773
I315
sS'TTAGCC'
p3774
I450
sS'TTAGCA'
p3775
I589
sS'CTAGCA'
p3776
I580
sS'TTAGCG'
p3777
I161
sS'CGATCC'
p3778
I164
sS'AACTTA'
p3779
I5653
sS'TCATAT'
p3780
I132
sS'AAGGGG'
p3781
I3252
sS'ATAAGG'
p3782
I747
sS'TGTGCT'
p3783
I606
sS'AAGGGC'
p3784
I2097
sS'ATAAGC'
p3785
I388
sS'AAGGGA'
p3786
I2723
sS'ATAAGA'
p3787
I688
sS'CCAGAC'
p3788
I190
sS'CCAGAA'
p3789
I270
sS'CCAGAG'
p3790
I398
sS'GCAAGT'
p3791
I272
sS'TGTGCG'
p3792
I811
sS'CTACCT'
p3793
I248
sS'ATAAGT'
p3794
I231
sS'AAGGGT'
p3795
I499
sS'TGTGCC'
p3796
I1359
sS'ATAGGA'
p3797
I293
sS'TGTGCA'
p3798
I1616
sS'ATAGGC'
p3799
I195
sS'TAAGTT'
p3800
I115
sS'ATACGC'
p3801
I79
sS'AGACCG'
p3802
I91
sS'CCAGAT'
p3803
I69
sS'AGACAA'
p3804
I249
sS'AACAAG'
p3805
I4283
sS'AGACAC'
p3806
I228
sS'AGACAG'
p3807
I485
sS'TTTTCT'
p3808
I1662
sS'CGCTGT'
p3809
I1606
sS'CCCACG'
p3810
I1766
sS'CGTGGG'
p3811
I1466
sS'CTATAG'
p3812
I329
sS'AGACAT'
p3813
I91
sS'CGTGGA'
p3814
I670
sS'TTTTCG'
p3815
I630
sS'CGCTGA'
p3816
I2933
sS'CGCTGC'
p3817
I6029
sS'TTTTCC'
p3818
I3395
sS'CAGCGA'
p3819
I857
sS'CGCTGG'
p3820
I5262
sS'TATGGA'
p3821
I1016
sS'TATGGC'
p3822
I954
sS'CGTAGG'
p3823
I734
sS'CCCACC'
p3824
I6277
sS'TATGGG'
p3825
I1393
sS'CGTAGC'
p3826
I623
sS'TACCGT'
p3827
I357
sS'TGGACT'
p3828
I572
sS'CGTAGT'
p3829
I330
sS'GCTCGA'
p3830
I470
sS'TATGGT'
p3831
I449
sS'ATTCCT'
p3832
I396
sS'TGGACA'
p3833
I1246
sS'TGGACC'
p3834
I964
sS'TGGACG'
p3835
I475
sS'CCGGTT'
p3836
I42
sS'CTAGCT'
p3837
I281
sS'GCTTGA'
p3838
I1551
sS'TGAGAC'
p3839
I246
sS'GCTTGC'
p3840
I1707
sS'TGAGAA'
p3841
I350
sS'TGAGAG'
p3842
I437
sS'GCTTGG'
p3843
I2694
sS'CCTGTT'
p3844
I267
sS'CCGGTG'
p3845
I623
sS'AGGATT'
p3846
I326
sS'CCGGTA'
p3847
I253
sS'CCTGTC'
p3848
I1170
sS'CCTGTA'
p3849
I1755
sS'CCTGTG'
p3850
I4155
sS'GCTTGT'
p3851
I740
sS'TGAGAT'
p3852
I83
sS'ATCGTA'
p3853
I366
sS'GGTTGT'
p3854
I775
sS'ACTGCG'
p3855
I512
sS'AGGGAT'
p3856
I176
sS'TAAACT'
p3857
I552
sS'TATCAG'
p3858
I1896
sS'ACAATA'
p3859
I570
sS'GGTTGG'
p3860
I2828
sS'CTGAAT'
p3861
I320
sS'GGTTGA'
p3862
I1535
sS'GGTTGC'
p3863
I1917
sS'GAAAGT'
p3864
I741
sS'TCCCGC'
p3865
I3729
sS'TCCCGA'
p3866
I1195
sS'TCCCGG'
p3867
I3332
sS'TGCTAT'
p3868
I1064
sS'CGTTTT'
p3869
I309
sS'ATTCTC'
p3870
I1042
sS'AGGGAA'
p3871
I1146
sS'ATTCTA'
p3872
I1429
sS'ATTCTG'
p3873
I2581
sS'TCATTT'
p3874
I302
sS'TGCTAC'
p3875
I2333
sS'CAGCGC'
p3876
I1516
sS'TATACT'
p3877
I769
sS'TGCTAG'
p3878
I3157
sS'CAGCGG'
p3879
I1650
sS'CCTTGT'
p3880
I999
sS'TCATTC'
p3881
I852
sS'CGTTTG'
p3882
I2121
sS'TCATTG'
p3883
I1891
sS'ATTCTT'
p3884
I276
sS'CGTTTC'
p3885
I1472
sS'CCACTC'
p3886
I295
sS'TGGCAA'
p3887
I716
sS'TGGCAC'
p3888
I818
sS'TGGCAG'
p3889
I1458
sS'GCTGAG'
p3890
I2542
sS'GCTGAA'
p3891
I961
sS'GCTGAC'
p3892
I1107
sS'TGGCAT'
p3893
I260
sS'GGCCGG'
p3894
I5102
sS'GTTCAA'
p3895
I1056
sS'AGCCTC'
p3896
I6792
sS'GGCCGC'
p3897
I4831
sS'GAACTT'
p3898
I131
sS'GGCCGA'
p3899
I1875
sS'GGCAAT'
p3900
I602
sS'CTATAA'
p3901
I427
sS'CTGATT'
p3902
I375
sS'CCATCG'
p3903
I148
sS'CTAAAT'
p3904
I209
sS'CCATCC'
p3905
I809
sS'CCATCA'
p3906
I582
sS'GGCAAG'
p3907
I3718
sS'CTGATA'
p3908
I1169
sS'TGGTTG'
p3909
I2791
sS'CTGATG'
p3910
I2333
sS'GGCAAA'
p3911
I2462
sS'CTAAAG'
p3912
I648
sS'CCATCT'
p3913
I451
sS'CTAAAC'
p3914
I430
sS'CTAAAA'
p3915
I530
sS'GACACC'
p3916
I5287
sS'GACACA'
p3917
I6608
sS'GACACG'
p3918
I2265
sS'CCAAGA'
p3919
I553
sS'AGGCAT'
p3920
I286
sS'TAGCGA'
p3921
I428
sS'TACGAG'
p3922
I595
sS'TACGAC'
p3923
I459
sS'GACACT'
p3924
I3146
sS'CCGTGA'
p3925
I347
sS'AGTCCG'
p3926
I564
sS'CTATTG'
p3927
I2238
sS'CTATTA'
p3928
I1691
sS'GCATAC'
p3929
I111
sS'TCGATG'
p3930
I214
sS'TCGATA'
p3931
I103
sS'TCGATC'
p3932
I63
sS'CTATTT'
p3933
I452
sS'TCTGGG'
p3934
I2158
sS'GCATTG'
p3935
I1300
sS'GCATCT'
p3936
I292
sS'CAGCCT'
p3937
I1142
sS'TCGATT'
p3938
I28
sS'GGATAA'
p3939
I115
sS'GCGCCC'
p3940
I902
sS'ACAATG'
p3941
I969
sS'AACCAA'
p3942
I2983
sS'TGCCGG'
p3943
I2633
sS'AACCAC'
p3944
I3038
sS'TGCCGC'
p3945
I2868
sS'AACCAG'
p3946
I3430
sS'TGCCGA'
p3947
I1017
sS'TTGGAC'
p3948
I444
sS'TCTGGA'
p3949
I977
sS'ATGATC'
p3950
I324
sS'AGGCAG'
p3951
I2396
sS'TGCCGT'
p3952
I556
sS'AACCAT'
p3953
I590
sS'AACAGA'
p3954
I5143
sS'GGGAGT'
p3955
I790
sS'AACAGC'
p3956
I4844
sS'ACGTCC'
p3957
I399
sS'AACAGG'
p3958
I5859
sS'ACGTCA'
p3959
I627
sS'GACGAC'
p3960
I1279
sS'GCGGAA'
p3961
I283
sS'GACGAA'
p3962
I1012
sS'GACGAG'
p3963
I1999
sS'ATTCGA'
p3964
I256
sS'CCCAAA'
p3965
I1874
sS'CAATAT'
p3966
I82
sS'GGGAGG'
p3967
I7103
sS'GGGAGA'
p3968
I2369
sS'AACAGT'
p3969
I2085
sS'GGGAGC'
p3970
I2124
sS'ACGAAG'
p3971
I252
sS'CCCAAT'
p3972
I578
sS'GACGAT'
p3973
I227
sS'GGGCGC'
p3974
I1254
sS'GGGCGA'
p3975
I838
sS'GCATCA'
p3976
I552
sS'GGGCGG'
p3977
I4013
sS'TCTCTT'
p3978
I504
sS'GTACAG'
p3979
I264
sS'CAGAAT'
p3980
I376
sS'ACGACT'
p3981
I83
sS'TCTCTC'
p3982
I2515
sS'TCTCTA'
p3983
I2424
sS'TCTCTG'
p3984
I5336
sS'GGGCGT'
p3985
I332
sS'CAGAAA'
p3986
I1530
sS'CAGAAC'
p3987
I1277
sS'ACGACG'
p3988
I111
sS'CAGAAG'
p3989
I2387
sS'CCTTCA'
p3990
I2634
sS'CACTTT'
p3991
I2467
sS'CATATT'
p3992
I422
sS'CCTAAT'
p3993
I202
sS'TGATCG'
p3994
I75
sS'CACTTG'
p3995
I10344
sS'CCTAAC'
p3996
I607
sS'CTACCC'
p3997
I501
sS'CCTAAA'
p3998
I639
sS'CACTTC'
p3999
I9134
sS'CCTAAG'
p4000
I992
sS'CACTTA'
p4001
I7594
sS'GCGGAT'
p4002
I41
sS'AATCCT'
p4003
I708
sS'CTGCGG'
p4004
I1572
sS'AAGATT'
p4005
I284
sS'CTCATG'
p4006
I6126
sS'GACTCG'
p4007
I3446
sS'CTCATC'
p4008
I3162
sS'GACTCC'
p4009
I8759
sS'CTCATA'
p4010
I3638
sS'GACTCA'
p4011
I16107
sS'AAGATA'
p4012
I1534
sS'AAGATC'
p4013
I728
sS'AAGATG'
p4014
I3221
sS'GACTCT'
p4015
I4193
sS'CTCATT'
p4016
I1564
sS'ATCGAA'
p4017
I248
sS'AACTAC'
p4018
I2776
sS'ATATTT'
p4019
I320
sS'ACGGTA'
p4020
I163
sS'GGACTC'
p4021
I219
sS'ATAGTT'
p4022
I73
sS'TACTGT'
p4023
I2874
sS'ATATTC'
p4024
I543
sS'ATATTA'
p4025
I1352
sS'ATATTG'
p4026
I1225
sS'TACTGC'
p4027
I4832
sS'TACTGA'
p4028
I4499
sS'TACTGG'
p4029
I4705
sS'ATAGTG'
p4030
I507
sS'ATAGAC'
p4031
I136
sS'CAGGCA'
p4032
I2905
sS'CAGGCC'
p4033
I3160
sS'CATCCG'
p4034
I577
sS'AGGAAA'
p4035
I2022
sS'CATCCA'
p4036
I1632
sS'CAGGCG'
p4037
I1453
sS'CATCCC'
p4038
I1988
sS'TTATGA'
p4039
I801
sS'TTATGC'
p4040
I532
sS'CGGAGT'
p4041
I368
sS'TTATGG'
p4042
I697
sS'CATCCT'
p4043
I914
sS'AGGAAT'
p4044
I493
sS'CAGGCT'
p4045
I913
sS'ACGGAT'
p4046
I20
sS'CGGAGA'
p4047
I898
sS'CGGAGC'
p4048
I1452
sS'TTATGT'
p4049
I543
sS'CGGAGG'
p4050
I2069
sS'ATGGAA'
p4051
I495
sS'ATGGAC'
p4052
I300
sS'ATGGAG'
p4053
I640
sS'CGCTTG'
p4054
I4192
sS'CGCTTA'
p4055
I1933
sS'CGCTTC'
p4056
I4377
sS'ATGGAT'
p4057
I87
sS'TTTGCA'
p4058
I1478
sS'CGCTTT'
p4059
I1077
sS'GATCGT'
p4060
I268
sS'TTTGCC'
p4061
I1157
sS'TTGTGA'
p4062
I1579
sS'GAAAAG'
p4063
I2239
sS'GAAAAC'
p4064
I1202
sS'ATAGAT'
p4065
I69
sS'GAAAAA'
p4066
I1220
sS'GTTCCT'
p4067
I594
sS'TAAGTA'
p4068
I802
sS'AGACCT'
p4069
I121
sS'CAAGCG'
p4070
I257
sS'GAAAAT'
p4071
I325
sS'CAACAG'
p4072
I298
sS'ACAAGG'
p4073
I771
sS'ACAAGA'
p4074
I542
sS'ACAAGC'
p4075
I435
sS'ACACGT'
p4076
I59
sS'CTGCGT'
p4077
I306
sS'GCGGAG'
p4078
I742
sS'CATAAG'
p4079
I1533
sS'GTCCCT'
p4080
I1854
sS'CATAAA'
p4081
I2044
sS'GCGGAC'
p4082
I237
sS'CATAAC'
p4083
I1128
sS'ACACGC'
p4084
I173
sS'ACAAGT'
p4085
I248
sS'ACACGA'
p4086
I85
sS'ACACGG'
p4087
I166
sS'CATAAT'
p4088
I484
sS'GTCCCA'
p4089
I3321
sS'GCACAT'
p4090
I60
sS'GTCCCC'
p4091
I4059
sS'CTGCGA'
p4092
I670
sS'GTCCCG'
p4093
I2311
sS'CGGCAA'
p4094
I241
sS'CGGCAC'
p4095
I372
sS'CGGCAG'
p4096
I771
sS'CCTCCT'
p4097
I833
sS'NNNGAA'
p4098
I2
sS'CGGCAT'
p4099
I61
sS'CCTCCC'
p4100
I2519
sS'CCTCCA'
p4101
I1390
sS'CCTCCG'
p4102
I739
sS'CGTGAT'
p4103
I161
s.