(dp0
S'AAAAAC'
p1
I369
sS'GAACGT'
p2
I67
sS'CGTCGT'
p3
I93
sS'CTTCTT'
p4
I299
sS'CACCCT'
p5
I888
sS'ATTGAA'
p6
I270
sS'GAACGG'
p7
I296
sS'GAACGC'
p8
I260
sS'GAACGA'
p9
I144
sS'CAACAT'
p10
I40
sS'CACCCA'
p11
I1929
sS'CTTCTA'
p12
I1347
sS'CACCCC'
p13
I1936
sS'CTTCTC'
p14
I1661
sS'CACCCG'
p15
I730
sS'CTTCTG'
p16
I3064
sS'CGTGTG'
p17
I913
sS'TAAGGT'
p18
I97
sS'CGTGTC'
p19
I287
sS'CGTGTA'
p20
I307
sS'AGGCAA'
p21
I462
sS'GGAAAT'
p22
I105
sS'TAAGGG'
p23
I450
sS'CGTGTT'
p24
I73
sS'TAAGGC'
p25
I274
sS'TAAGGA'
p26
I339
sS'TCACTG'
p27
I522
sS'GTCAAA'
p28
I1125
sS'GTCAAC'
p29
I892
sS'GTCAAG'
p30
I1506
sS'CTGTCC'
p31
I1972
sS'TCAGAG'
p32
I156
sS'CTGTCA'
p33
I1547
sS'CTGTCG'
p34
I405
sS'GTATCT'
p35
I257
sS'TCAGAA'
p36
I142
sS'TCATAA'
p37
I118
sS'GTCAAT'
p38
I388
sS'GTATCA'
p39
I374
sS'GTATCC'
p40
I410
sS'GTATCG'
p41
I89
sS'CTGTCT'
p42
I942
sS'GGTGTC'
p43
I404
sS'GGTGTA'
p44
I587
sS'GGTGTG'
p45
I2012
sS'TATCCT'
p46
I308
sS'CCGGGG'
p47
I412
sS'TTCTGT'
p48
I2089
sS'AGAGGT'
p49
I92
sS'CCGGGC'
p50
I283
sS'CCGGGA'
p51
I264
sS'TATCCA'
p52
I601
sS'TATCCC'
p53
I540
sS'TATCCG'
p54
I185
sS'GGTGTT'
p55
I104
sS'ATTCCG'
p56
I110
sS'TTCTGG'
p57
I4469
sS'CCGGGT'
p58
I63
sS'ATTCCC'
p59
I342
sS'TTCTGC'
p60
I3905
sS'ATTCCA'
p61
I447
sS'TTCTGA'
p62
I3629
sS'TGCACT'
p63
I950
sS'CGTCAT'
p64
I87
sS'CGCGGT'
p65
I228
sS'CCCGCG'
p66
I886
sS'CGCGGG'
p67
I1774
sS'NCCGCC'
p68
I1
sS'CGCGGC'
p69
I1450
sS'CGCGGA'
p70
I656
sS'ACCTGT'
p71
I625
sS'ATACTA'
p72
I174
sS'TCATGT'
p73
I177
sS'CTCCGA'
p74
I862
sS'TTACAG'
p75
I208
sS'CTCCGC'
p76
I3231
sS'TTACAA'
p77
I134
sS'TTACAC'
p78
I92
sS'CTCCGG'
p79
I2113
sS'TCATGC'
p80
I233
sS'ACCTGG'
p81
I2495
sS'GGCGAA'
p82
I422
sS'GTAAGC'
p83
I288
sS'TCATGG'
p84
I312
sS'ACCTGC'
p85
I2085
sS'ACCTGA'
p86
I1444
sS'TCACTC'
p87
I194
sS'TTACAT'
p88
I36
sS'CTCGAT'
p89
I62
sS'CTCCGT'
p90
I447
sS'GCCTGA'
p91
I2874
sS'GCCTGC'
p92
I4393
sS'GCCTGG'
p93
I6582
sS'TAAAGG'
p94
I1012
sS'CAAATT'
p95
I55
sS'TAAAGA'
p96
I748
sS'GCATAA'
p97
I64
sS'TAAAGC'
p98
I557
sS'GCCTGT'
p99
I1520
sS'TCCCCG'
p100
I848
sS'TAAAGT'
p101
I292
sS'CAAATA'
p102
I535
sS'CAAATC'
p103
I204
sS'CGTGCT'
p104
I149
sS'CGTCAA'
p105
I218
sS'AATACT'
p106
I458
sS'TATCTC'
p107
I1012
sS'GGCATG'
p108
I2212
sS'GGCATA'
p109
I817
sS'GGCATC'
p110
I723
sS'AATACG'
p111
I227
sS'AATACA'
p112
I1120
sS'AATACC'
p113
I726
sS'GGCATT'
p114
I273
sS'CGTCAG'
p115
I513
sS'CTTGGT'
p116
I195
sS'GAGCAC'
p117
I998
sS'GAGCAA'
p118
I995
sS'CATATC'
p119
I399
sS'GAGCAG'
p120
I2176
sS'AGTAGT'
p121
I348
sS'TCTCGC'
p122
I454
sS'TCTCGA'
p123
I206
sS'GCAATT'
p124
I45
sS'TCTCGG'
p125
I494
sS'AGTAGC'
p126
I698
sS'AGTAGA'
p127
I720
sS'ACTGAC'
p128
I376
sS'ACTGAA'
p129
I352
sS'AAGGTT'
p130
I128
sS'TCTCGT'
p131
I79
sS'GTGTCG'
p132
I433
sS'TCGAAC'
p133
I48
sS'TCGAAA'
p134
I46
sS'GTGTCC'
p135
I1661
sS'TCGAAG'
p136
I76
sS'GTGTCA'
p137
I1550
sS'CTTGCT'
p138
I373
sS'CCGTCT'
p139
I124
sS'CCACAA'
p140
I86
sS'GTGTCT'
p141
I937
sS'TTGAAG'
p142
I620
sS'TCGAAT'
p143
I18
sS'CTTGCG'
p144
I292
sS'CTTGCA'
p145
I686
sS'CTTGCC'
p146
I786
sS'CGAAAG'
p147
I105
sS'CGAAAA'
p148
I38
sS'CGAAAC'
p149
I53
sS'AATCAT'
p150
I434
sS'ACAGTG'
p151
I464
sS'CACGGC'
p152
I816
sS'AAATGA'
p153
I614
sS'AAATGG'
p154
I536
sS'CACGGG'
p155
I936
sS'ACAGTA'
p156
I212
sS'TAGAGC'
p157
I778
sS'CGAAAT'
p158
I27
sS'ACAGTT'
p159
I34
sS'AATCAG'
p160
I1648
sS'AATCAA'
p161
I1147
sS'AAATGT'
p162
I256
sS'AATCAC'
p163
I1280
sS'GGGTCT'
p164
I315
sS'TCTAGT'
p165
I213
sS'TTGCCG'
p166
I316
sS'TTGCCA'
p167
I1036
sS'TTGCCC'
p168
I1107
sS'GGGTAC'
p169
I134
sS'TCTAGG'
p170
I746
sS'ATACGC'
p171
I38
sS'TCTAGA'
p172
I417
sS'GGGTAG'
p173
I369
sS'TCTAGC'
p174
I448
sS'ATACGG'
p175
I51
sS'ATACAT'
p176
I41
sS'TCGGGC'
p177
I130
sS'TCGCCC'
p178
I210
sS'TCGCCA'
p179
I117
sS'ATAGTC'
p180
I86
sS'TCGCCG'
p181
I74
sS'GGTAAT'
p182
I164
sS'ACCCAT'
p183
I117
sS'ACCCAC'
p184
I717
sS'GGTAAC'
p185
I426
sS'ACCCAA'
p186
I578
sS'AGATGG'
p187
I426
sS'ACCCAG'
p188
I1083
sS'GGTAAG'
p189
I667
sS'TCGCCT'
p190
I52
sS'AGATGC'
p191
I228
sS'TTTGAG'
p192
I777
sS'CCCCAT'
p193
I179
sS'TTGGGT'
p194
I151
sS'CACTAG'
p195
I1801
sS'CACTAA'
p196
I1570
sS'CACTAC'
p197
I1295
sS'CCCCAA'
p198
I684
sS'CCCCAC'
p199
I1293
sS'CCCCAG'
p200
I1403
sS'CACTAT'
p201
I443
sS'TTGGGG'
p202
I658
sS'TCGGTT'
p203
I16
sS'TTGGGA'
p204
I459
sS'TTGGGC'
p205
I386
sS'TGCCTG'
p206
I5338
sS'TGCAGA'
p207
I2315
sS'TTTCTG'
p208
I2832
sS'TGCAGC'
p209
I2867
sS'TTTCTA'
p210
I1648
sS'TGCCTA'
p211
I1798
sS'TGCAGG'
p212
I3661
sS'ACGCCT'
p213
I58
sS'TCAGAC'
p214
I95
sS'TTTCTT'
p215
I375
sS'TGCCTT'
p216
I613
sS'TGCAGT'
p217
I1369
sS'ACAATT'
p218
I44
sS'AAGGAA'
p219
I1155
sS'AAGGAC'
p220
I685
sS'AAGGAG'
p221
I1510
sS'ATATGC'
p222
I202
sS'GTTCCA'
p223
I457
sS'ATATGA'
p224
I286
sS'TACGAA'
p225
I217
sS'ATATGG'
p226
I269
sS'GATGGA'
p227
I1184
sS'AAGGAT'
p228
I158
sS'TGGTTT'
p229
I287
sS'ATATGT'
p230
I177
sS'GGTCCC'
p231
I595
sS'GCCCAG'
p232
I2989
sS'GGTCCA'
p233
I367
sS'GCCCAA'
p234
I999
sS'GGTCCG'
p235
I207
sS'GCCCAC'
p236
I1355
sS'TGTGTC'
p237
I789
sS'AGACCC'
p238
I142
sS'CTTCGG'
p239
I586
sS'TCTTGT'
p240
I409
sS'CTTCGC'
p241
I532
sS'CTTAGT'
p242
I375
sS'TCCGGG'
p243
I1538
sS'AGGTCA'
p244
I895
sS'AAAGTT'
p245
I63
sS'TCCGGC'
p246
I871
sS'GGTCCT'
p247
I198
sS'TCCGGA'
p248
I594
sS'CTTAGC'
p249
I710
sS'ATTGTG'
p250
I899
sS'CTTAGA'
p251
I806
sS'TCTTGC'
p252
I859
sS'CTTAGG'
p253
I920
sS'ATTGTC'
p254
I226
sS'TCTTGG'
p255
I1174
sS'GCCTTT'
p256
I1403
sS'ATTTTG'
p257
I1960
sS'GAGGTG'
p258
I3448
sS'ATTTTA'
p259
I2253
sS'CGCTAG'
p260
I750
sS'ATTTTC'
p261
I943
sS'TCCAGC'
p262
I2599
sS'TAGCAG'
p263
I604
sS'GATACT'
p264
I480
sS'TAGCAC'
p265
I383
sS'TAGCAA'
p266
I474
sS'TCCAGT'
p267
I915
sS'ATTTTT'
p268
I249
sS'GCCTTG'
p269
I6010
sS'GTGGGG'
p270
I1620
sS'GCCTTA'
p271
I2767
sS'GCCTTC'
p272
I4119
sS'GATACG'
p273
I228
sS'TAGCAT'
p274
I126
sS'GATACC'
p275
I664
sS'GATTTC'
p276
I1959
sS'TGAGCT'
p277
I115
sS'ACGGAC'
p278
I59
sS'GATCAT'
p279
I230
sS'AAGACA'
p280
I1182
sS'AAGACC'
p281
I787
sS'GATTTA'
p282
I2838
sS'AAGACG'
p283
I382
sS'GATCAG'
p284
I1235
sS'TGAGCG'
p285
I103
sS'TGAGCA'
p286
I260
sS'GATCAA'
p287
I931
sS'AAGACT'
p288
I428
sS'GCGGTC'
p289
I127
sS'GCGGTA'
p290
I163
sS'GCGGTG'
p291
I651
sS'CGGTGT'
p292
I167
sS'TCGTTA'
p293
I161
sS'TCGTTC'
p294
I114
sS'ATGTGG'
p295
I936
sS'TCGTTG'
p296
I247
sS'GCGGTT'
p297
I22
sS'ACTTGC'
p298
I571
sS'ATGTGA'
p299
I733
sS'ACTTGA'
p300
I660
sS'CGGTGG'
p301
I587
sS'ACTTGG'
p302
I841
sS'CGGTGA'
p303
I305
sS'CGGTGC'
p304
I450
sS'TTCCTA'
p305
I2900
sS'TAGACT'
p306
I305
sS'TTCCTC'
p307
I4119
sS'CTTCCG'
p308
I565
sS'TGGGTT'
p309
I96
sS'TTCCTG'
p310
I7555
sS'TCCTTT'
p311
I1639
sS'CAGTTG'
p312
I1564
sS'TAGACG'
p313
I206
sS'TTCCTT'
p314
I1239
sS'TAGACC'
p315
I470
sS'TAGACA'
p316
I659
sS'TCCTTG'
p317
I6075
sS'TCCTTA'
p318
I3903
sS'TCCTTC'
p319
I4862
sS'ATCTCT'
p320
I929
sS'ACCGTT'
p321
I54
sS'TGGCGC'
p322
I382
sS'TTTACG'
p323
I180
sS'TGGCGA'
p324
I198
sS'TGGCGG'
p325
I596
sS'ATCTCG'
p326
I568
sS'ATCTCA'
p327
I2041
sS'ATCTCC'
p328
I1819
sS'GGCCAA'
p329
I1315
sS'ACGGAG'
p330
I136
sS'GGCCAC'
p331
I1508
sS'ACCGTG'
p332
I794
sS'ACCGTA'
p333
I275
sS'GGCCAG'
p334
I2123
sS'ACCGTC'
p335
I262
sS'ACCGAC'
p336
I218
sS'AGAATT'
p337
I88
sS'GGCAGT'
p338
I1001
sS'CCATAA'
p339
I104
sS'CAAAGG'
p340
I948
sS'CCATAC'
p341
I68
sS'CAAAGA'
p342
I672
sS'AGATTC'
p343
I184
sS'CAAAGC'
p344
I607
sS'CCATAG'
p345
I92
sS'GGCAGA'
p346
I2351
sS'GGCAGC'
p347
I3129
sS'AACGTA'
p348
I460
sS'GGCAGG'
p349
I4989
sS'CAACGC'
p350
I111
sS'CTAACA'
p351
I446
sS'CAACGA'
p352
I59
sS'CTAACC'
p353
I419
sS'CAACGG'
p354
I102
sS'GCACTG'
p355
I483
sS'GGGGGT'
p356
I99
sS'TACGCT'
p357
I166
sS'AGATTG'
p358
I470
sS'CGATCT'
p359
I20
sS'CTCTAG'
p360
I2530
sS'CTCTAA'
p361
I2149
sS'CTCTAC'
p362
I1825
sS'GGGGGG'
p363
I437
sS'TACGCA'
p364
I490
sS'TACGCC'
p365
I452
sS'GGGGGC'
p366
I365
sS'CGATCG'
p367
I18
sS'GGGGGA'
p368
I398
sS'TACGCG'
p369
I255
sS'CTCTAT'
p370
I620
sS'GCGCAG'
p371
I305
sS'ACCGAA'
p372
I155
sS'CAGACC'
p373
I826
sS'CAGACA'
p374
I1021
sS'CAGACG'
p375
I356
sS'TAGTTG'
p376
I1254
sS'GCTAAT'
p377
I97
sS'TAGTTC'
p378
I774
sS'TAGTTA'
p379
I1099
sS'CAGACT'
p380
I359
sS'GCTAAG'
p381
I602
sS'TAGTTT'
p382
I268
sS'GCTAAC'
p383
I302
sS'TCAGGG'
p384
I257
sS'GCTAAA'
p385
I429
sS'CGAGTA'
p386
I61
sS'TGCATT'
p387
I464
sS'GCGAAA'
p388
I85
sS'AACCCT'
p389
I644
sS'AACCCC'
p390
I1258
sS'TGCATG'
p391
I2332
sS'AACCCG'
p392
I662
sS'TGCATC'
p393
I902
sS'AGAATA'
p394
I446
sS'AGTTTG'
p395
I2740
sS'AACTGG'
p396
I2803
sS'AGTTTC'
p397
I1547
sS'AACTGC'
p398
I2572
sS'CCCAGA'
p399
I2212
sS'CCCAGC'
p400
I3625
sS'CCCAGG'
p401
I4250
sS'AACTGT'
p402
I1164
sS'AGTTTT'
p403
I406
sS'ACGTAT'
p404
I17
sS'AGTCAA'
p405
I805
sS'CGAGTC'
p406
I65
sS'CCCAGT'
p407
I942
sS'TTGACG'
p408
I165
sS'CGCATA'
p409
I268
sS'ATACTG'
p410
I317
sS'CGCATC'
p411
I357
sS'CTTGAA'
p412
I509
sS'ATACTC'
p413
I102
sS'CGCATG'
p414
I1017
sS'GCGCAA'
p415
I69
sS'GCGAAT'
p416
I19
sS'ATACTT'
p417
I41
sS'CTATCT'
p418
I264
sS'GCGCAC'
p419
I148
sS'GCTCCG'
p420
I428
sS'TATTGT'
p421
I908
sS'GCTCCC'
p422
I800
sS'GCTCCA'
p423
I634
sS'CCTACT'
p424
I255
sS'TGTACT'
p425
I365
sS'TTTAGT'
p426
I394
sS'TATTGG'
p427
I1458
sS'GCTCCT'
p428
I295
sS'TATTGC'
p429
I1266
sS'TATTGA'
p430
I1380
sS'TTTAGG'
p431
I795
sS'TGTACG'
p432
I175
sS'CCTACG'
p433
I178
sS'TGTACA'
p434
I722
sS'CCTACA'
p435
I439
sS'TGTACC'
p436
I474
sS'CCTACC'
p437
I624
sS'TTCGCG'
p438
I311
sS'TTCGCA'
p439
I372
sS'TTCGCC'
p440
I608
sS'AGTATC'
p441
I289
sS'GACTAA'
p442
I2647
sS'AGTATA'
p443
I553
sS'TTTGGG'
p444
I804
sS'AGTATG'
p445
I767
sS'TTTGGA'
p446
I543
sS'GACTAG'
p447
I1865
sS'TTCGCT'
p448
I228
sS'TTTGGT'
p449
I181
sS'GACTAT'
p450
I598
sS'AGTATT'
p451
I134
sS'TTACTC'
p452
I208
sS'TTACTA'
p453
I291
sS'TTACTG'
p454
I492
sS'ACCTTG'
p455
I3644
sS'ACCTTC'
p456
I2156
sS'ACCTTA'
p457
I2001
sS'CTAATA'
p458
I441
sS'GTAAAC'
p459
I255
sS'ACGCTT'
p460
I33
sS'ACCTTT'
p461
I632
sS'ACAGGG'
p462
I256
sS'CTGGGA'
p463
I1093
sS'CTGGGC'
p464
I938
sS'ACAGGC'
p465
I155
sS'ACAGGA'
p466
I174
sS'CTGGGG'
p467
I1318
sS'CAGGAC'
p468
I635
sS'GCAGCT'
p469
I144
sS'CAGGAA'
p470
I743
sS'TCGCTT'
p471
I45
sS'AGGACC'
p472
I831
sS'AGGACA'
p473
I1015
sS'GCGCAT'
p474
I23
sS'TTATAC'
p475
I121
sS'ACAGGT'
p476
I63
sS'CTGGGT'
p477
I263
sS'TTATAG'
p478
I197
sS'TCGCTG'
p479
I398
sS'GCAGCG'
p480
I172
sS'AGGACT'
p481
I462
sS'GCAGCA'
p482
I365
sS'GGAGGG'
p483
I705
sS'GCAGCC'
p484
I453
sS'CAGGAT'
p485
I112
sS'CCTCAG'
p486
I994
sS'CCTCAA'
p487
I487
sS'CCTCAC'
p488
I589
sS'TATGTT'
p489
I237
sS'ATGGGC'
p490
I243
sS'TCTTTG'
p491
I3614
sS'ATGGGA'
p492
I363
sS'TCTTTA'
p493
I2500
sS'ATGGGG'
p494
I508
sS'TCTTTC'
p495
I1883
sS'CCTCAT'
p496
I136
sS'ACAGTC'
p497
I89
sS'TCTTTT'
p498
I580
sS'TATGTG'
p499
I1894
sS'TATGTA'
p500
I1455
sS'ATGGGT'
p501
I83
sS'TATGTC'
p502
I555
sS'GAAAGA'
p503
I1479
sS'ATCAAG'
p504
I1099
sS'GAAAGC'
p505
I1087
sS'TCATGA'
p506
I227
sS'GAAAGG'
p507
I2177
sS'ATCAAA'
p508
I1190
sS'GTCAGG'
p509
I3110
sS'TGCTAC'
p510
I1177
sS'CATGAG'
p511
I1128
sS'ATCAAT'
p512
I270
sS'TCAAAC'
p513
I148
sS'CATGAC'
p514
I899
sS'CATGAA'
p515
I699
sS'GTAGCG'
p516
I118
sS'CAAGTT'
p517
I49
sS'GCTTTG'
p518
I3601
sS'GCTTTA'
p519
I1917
sS'GCTTTC'
p520
I1497
sS'ACGTGT'
p521
I93
sS'GCGGCG'
p522
I339
sS'CAAGTG'
p523
I564
sS'GTAGCT'
p524
I134
sS'GCGGCC'
p525
I609
sS'CAAGTC'
p526
I192
sS'GCGGCA'
p527
I261
sS'CAAGTA'
p528
I296
sS'CGGCCG'
p529
I373
sS'ATTGCT'
p530
I131
sS'GGGGAA'
p531
I353
sS'TAATCG'
p532
I82
sS'GGTCTT'
p533
I143
sS'TAATCA'
p534
I455
sS'TAATCC'
p535
I413
sS'TGCGAA'
p536
I243
sS'CGGCCC'
p537
I812
sS'CGGCCA'
p538
I451
sS'CGCTAT'
p539
I158
sS'TTGGAG'
p540
I440
sS'TCGTGA'
p541
I111
sS'ATGAAG'
p542
I489
sS'GGTCTG'
p543
I1622
sS'TAATCT'
p544
I159
sS'GGTCTC'
p545
I902
sS'GGAGGC'
p546
I319
sS'GGTCTA'
p547
I553
sS'AAAATG'
p548
I871
sS'AAAATC'
p549
I183
sS'AAAATA'
p550
I679
sS'TTCAGC'
p551
I2322
sS'TTCAGA'
p552
I2451
sS'TTCAGG'
p553
I3007
sS'GAACAT'
p554
I53
sS'TCGTCG'
p555
I61
sS'TTTAGC'
p556
I584
sS'TGTTTT'
p557
I744
sS'GAACAA'
p558
I276
sS'ATCCCG'
p559
I395
sS'GAACAC'
p560
I241
sS'ATCCCC'
p561
I785
sS'GAACAG'
p562
I366
sS'TTCAGT'
p563
I1405
sS'ATTGCA'
p564
I344
sS'CGGCTT'
p565
I87
sS'CACCAC'
p566
I1600
sS'CACCAA'
p567
I1246
sS'CACCAG'
p568
I1893
sS'TCCGTG'
p569
I1088
sS'ATTGCG'
p570
I106
sS'TCCGTC'
p571
I540
sS'GAGTTA'
p572
I1678
sS'TCCGTA'
p573
I406
sS'ACGCGA'
p574
I85
sS'CACCAT'
p575
I340
sS'AACATG'
p576
I2667
sS'AACATA'
p577
I1747
sS'AACATC'
p578
I1040
sS'GTCAGC'
p579
I2273
sS'GCACGG'
p580
I120
sS'GTCAGA'
p581
I2070
sS'GCACGA'
p582
I66
sS'CAGTCC'
p583
I1359
sS'GCACGC'
p584
I103
sS'TCAGCG'
p585
I103
sS'AACAAC'
p586
I1589
sS'GCAAGC'
p587
I237
sS'GCACGT'
p588
I25
sS'CAGTCT'
p589
I565
sS'GCAAGG'
p590
I481
sS'GTCAGT'
p591
I986
sS'GTATAC'
p592
I137
sS'TTCCGT'
p593
I362
sS'ACGGCT'
p594
I35
sS'GTATAG'
p595
I138
sS'CCGGAA'
p596
I138
sS'CCGGAC'
p597
I87
sS'CCGGAG'
p598
I197
sS'CGTCTT'
p599
I107
sS'CTCGTA'
p600
I393
sS'TTCCGG'
p601
I2005
sS'TTCCGA'
p602
I616
sS'TTCCGC'
p603
I1429
sS'GTATAT'
p604
I82
sS'CGTCTC'
p605
I659
sS'CGTCTA'
p606
I372
sS'CGTCTG'
p607
I1056
sS'CCGGAT'
p608
I22
sS'CTCTTC'
p609
I5999
sS'TGTTAT'
p610
I291
sS'CTCTTA'
p611
I4309
sS'CTCTTG'
p612
I6642
sS'CCCGAT'
p613
I50
sS'TACGTA'
p614
I508
sS'TACGTC'
p615
I395
sS'TCTGGT'
p616
I143
sS'AACAAA'
p617
I2988
sS'CGCGAT'
p618
I80
sS'TACGTG'
p619
I931
sS'TGTTAG'
p620
I1031
sS'ATTATA'
p621
I582
sS'GCTGTT'
p622
I146
sS'TGTTAC'
p623
I734
sS'CTCTTT'
p624
I2079
sS'TGTTAA'
p625
I1118
sS'TCTGGG'
p626
I1058
sS'CGCGAC'
p627
I461
sS'GATATT'
p628
I232
sS'TCTGGC'
p629
I523
sS'TACGTT'
p630
I115
sS'CGCGAG'
p631
I886
sS'AGTCGT'
p632
I133
sS'TTACCT'
p633
I104
sS'CTCCAT'
p634
I421
sS'AATGCG'
p635
I333
sS'ACTAGA'
p636
I363
sS'TTACCG'
p637
I37
sS'CTCCAC'
p638
I2150
sS'AGTCGG'
p639
I585
sS'TTACCC'
p640
I132
sS'CTCCAG'
p641
I3058
sS'TTACCA'
p642
I165
sS'AGTCGC'
p643
I510
sS'CAAATG'
p644
I727
sS'GTACCG'
p645
I53
sS'CCGACT'
p646
I71
sS'GCCTAC'
p647
I1175
sS'GCCTAA'
p648
I1143
sS'GCCTAG'
p649
I1919
sS'CCGACA'
p650
I90
sS'GATATC'
p651
I385
sS'CCGACC'
p652
I218
sS'CCGACG'
p653
I74
sS'GCCTAT'
p654
I390
sS'TGACGG'
p655
I72
sS'ACGCTC'
p656
I168
sS'CCCGAG'
p657
I822
sS'CTCGTT'
p658
I136
sS'CTAAGT'
p659
I208
sS'CCCGAA'
p660
I263
sS'CGCACA'
p661
I892
sS'ATACAC'
p662
I62
sS'CGCACC'
p663
I1151
sS'GGGTCG'
p664
I258
sS'ACTGCT'
p665
I151
sS'GGGTCA'
p666
I611
sS'CGCACG'
p667
I780
sS'GGGTCC'
p668
I743
sS'CTCACT'
p669
I1741
sS'TTTGTA'
p670
I1206
sS'ACTGCA'
p671
I595
sS'TTTGTC'
p672
I616
sS'ACTGCC'
p673
I490
sS'CGCACT'
p674
I441
sS'TTTGTG'
p675
I1789
sS'ACTGCG'
p676
I248
sS'CTCACC'
p677
I3187
sS'CTCACA'
p678
I2706
sS'CTCACG'
p679
I1037
sS'TAGTGG'
p680
I1093
sS'GTGAGG'
p681
I1474
sS'GATTTT'
p682
I576
sS'TAGTGC'
p683
I659
sS'GTGAGC'
p684
I957
sS'TAGTGA'
p685
I787
sS'GTGAGA'
p686
I870
sS'TCGACG'
p687
I40
sS'TCGACA'
p688
I53
sS'TCGACC'
p689
I86
sS'GATTTG'
p690
I3621
sS'GTGAGT'
p691
I567
sS'TAGTGT'
p692
I455
sS'GTGGGA'
p693
I874
sS'GTGGGC'
p694
I644
sS'TCGACT'
p695
I32
sS'GTACAC'
p696
I84
sS'ACGTAA'
p697
I65
sS'CTGGTT'
p698
I128
sS'TTGAGT'
p699
I314
sS'TCAAAA'
p700
I250
sS'CGAACG'
p701
I51
sS'CGAACC'
p702
I113
sS'CGAACA'
p703
I101
sS'CTGGTG'
p704
I1435
sS'CTGGTA'
p705
I564
sS'CTGGTC'
p706
I372
sS'CGAACT'
p707
I44
sS'TTGCAT'
p708
I152
sS'NNGAAT'
p709
I1
sS'TTGCAG'
p710
I652
sS'TCCATA'
p711
I1175
sS'CTTGAT'
p712
I114
sS'TTGCAC'
p713
I362
sS'TTGCAA'
p714
I402
sS'ACGTAC'
p715
I45
sS'TCCATC'
p716
I1023
sS'TCGCAT'
p717
I13
sS'GTCGTG'
p718
I790
sS'GTCGTA'
p719
I356
sS'GTCGTC'
p720
I386
sS'CCGTTT'
p721
I53
sS'ACTGAT'
p722
I86
sS'ATATCG'
p723
I59
sS'GTCGTT'
p724
I70
sS'TCAGAT'
p725
I28
sS'TCGCAG'
p726
I103
sS'TCCATG'
p727
I2244
sS'CCAAGC'
p728
I262
sS'TCGCAC'
p729
I40
sS'CCGTTG'
p730
I336
sS'CCGTTA'
p731
I184
sS'CCGTTC'
p732
I180
sS'AATGCT'
p733
I440
sS'GGTACG'
p734
I129
sS'GGTACA'
p735
I376
sS'GGTACC'
p736
I305
sS'TATTTG'
p737
I4178
sS'CCAGTT'
p738
I50
sS'TATTTC'
p739
I2484
sS'TATTTA'
p740
I4494
sS'CCCCCT'
p741
I437
sS'GGTACT'
p742
I172
sS'TCCAGG'
p743
I3593
sS'AATCTT'
p744
I286
sS'AATGCC'
p745
I856
sS'AATGCA'
p746
I1267
sS'CCCCCC'
p747
I577
sS'CCCCCA'
p748
I990
sS'TATTTT'
p749
I1027
sS'CCCCCG'
p750
I539
sS'GAGCGA'
p751
I901
sS'CTTGAG'
p752
I765
sS'ATGATG'
p753
I821
sS'CTTGAC'
p754
I435
sS'ATGATC'
p755
I161
sS'TGCAAC'
p756
I1140
sS'TGCAAA'
p757
I1563
sS'TGCAAG'
p758
I1623
sS'GAAGTG'
p759
I1558
sS'ATGATT'
p760
I99
sS'TATCAC'
p761
I676
sS'CGAATC'
p762
I58
sS'TTGAGG'
p763
I873
sS'GCCATT'
p764
I327
sS'CAATGT'
p765
I146
sS'TTGAGC'
p766
I488
sS'TGCAAT'
p767
I496
sS'GAGAAT'
p768
I388
sS'TGTCTT'
p769
I320
sS'CGAATA'
p770
I53
sS'ACTGAG'
p771
I585
sS'AAGGCC'
p772
I1398
sS'ATAACC'
p773
I202
sS'AAGGCA'
p774
I1599
sS'ATAACA'
p775
I322
sS'AAGGCG'
p776
I724
sS'ATAACG'
p777
I58
sS'ACTCCA'
p778
I426
sS'TTGACT'
p779
I295
sS'TGTCTG'
p780
I2823
sS'GAGAAG'
p781
I2787
sS'GAGAAA'
p782
I1840
sS'TGTCTC'
p783
I1476
sS'GAGAAC'
p784
I1305
sS'TGTCTA'
p785
I1123
sS'TGTGGC'
p786
I923
sS'TGTGGA'
p787
I653
sS'TGTGGG'
p788
I1248
sS'ATAACT'
p789
I127
sS'AGTAGG'
p790
I937
sS'GGTATT'
p791
I97
sS'CAATTT'
p792
I57
sS'GCCCCG'
p793
I1536
sS'ACCAAG'
p794
I1060
sS'GGTCAG'
p795
I841
sS'GCCCCC'
p796
I1738
sS'GGTCAA'
p797
I388
sS'GCCCCA'
p798
I1831
sS'GGTCAC'
p799
I623
sS'GGTCAT'
p800
I105
sS'CGTGCC'
p801
I398
sS'CGTGCA'
p802
I348
sS'GAACTG'
p803
I925
sS'CGTGCG'
p804
I357
sS'AGGTAC'
p805
I253
sS'TTTTGC'
p806
I1107
sS'TCTTAC'
p807
I441
sS'TTTTGA'
p808
I1399
sS'TCTTAA'
p809
I745
sS'TTTTGG'
p810
I1267
sS'ATCATG'
p811
I1709
sS'AATTGC'
p812
I1008
sS'TAGCCA'
p813
I657
sS'TGGGGT'
p814
I144
sS'CGCTCG'
p815
I1212
sS'GATAAT'
p816
I320
sS'CGCTCA'
p817
I1473
sS'CGCTCC'
p818
I3028
sS'AATTGT'
p819
I556
sS'CGAGAG'
p820
I85
sS'GCCATC'
p821
I956
sS'TCTTAT'
p822
I204
sS'TTTTGT'
p823
I763
sS'CGCTCT'
p824
I937
sS'TGGGGG'
p825
I701
sS'GATAAC'
p826
I782
sS'TAGCCT'
p827
I238
sS'TGGGGC'
p828
I596
sS'GATAAG'
p829
I1198
sS'GATCCT'
p830
I473
sS'AAGAAT'
p831
I276
sS'CGAAGT'
p832
I59
sS'GTTATC'
p833
I260
sS'AAGAAC'
p834
I779
sS'GATCCA'
p835
I820
sS'AAGAAA'
p836
I1417
sS'GATCCC'
p837
I1015
sS'AAGAAG'
p838
I1524
sS'GATCCG'
p839
I423
sS'ATACCA'
p840
I103
sS'ATGCCG'
p841
I199
sS'CAAGGG'
p842
I451
sS'ATCGAG'
p843
I171
sS'CAAGGC'
p844
I327
sS'GGTTCT'
p845
I439
sS'CAAGGA'
p846
I321
sS'GGTTCA'
p847
I921
sS'GCAACC'
p848
I254
sS'GGTTCC'
p849
I1145
sS'AAGGCT'
p850
I498
sS'GGTTCG'
p851
I384
sS'TAGGCA'
p852
I800
sS'ATTAAC'
p853
I421
sS'ATTATC'
p854
I232
sS'TAGAAT'
p855
I222
sS'CAAACG'
p856
I132
sS'ATTATG'
p857
I619
sS'AGTCTT'
p858
I243
sS'TAGAAA'
p859
I718
sS'TAGAAC'
p860
I459
sS'ATTATT'
p861
I96
sS'TAGAAG'
p862
I861
sS'AGTCTA'
p863
I897
sS'AGTCTC'
p864
I1234
sS'AGTCTG'
p865
I2149
sS'TAACTC'
p866
I186
sS'TAACTA'
p867
I300
sS'TAACTG'
p868
I551
sS'ATCTAT'
p869
I249
sS'AGGTAT'
p870
I124
sS'TAACTT'
p871
I48
sS'ATCTAG'
p872
I1031
sS'ATCTAC'
p873
I757
sS'ATCTAA'
p874
I1115
sS'CCATGT'
p875
I207
sS'ACCAAA'
p876
I771
sS'TGGAGG'
p877
I1639
sS'TGGAGA'
p878
I959
sS'TGGAGC'
p879
I884
sS'CCATGC'
p880
I235
sS'CCATGA'
p881
I186
sS'CCATGG'
p882
I336
sS'TGGAGT'
p883
I411
sS'ATTACG'
p884
I114
sS'TCAGTA'
p885
I246
sS'TCAGTC'
p886
I113
sS'CTCTCT'
p887
I2890
sS'GGGGAT'
p888
I52
sS'TCAGTG'
p889
I511
sS'CGATAT'
p890
I9
sS'CTCTCG'
p891
I1640
sS'GGGGAC'
p892
I304
sS'CTCTCC'
p893
I6389
sS'TCAGTT'
p894
I40
sS'CTCTCA'
p895
I3862
sS'CGATAG'
p896
I22
sS'CGATAA'
p897
I20
sS'TATCAA'
p898
I833
sS'GTGTTT'
p899
I541
sS'GCTACT'
p900
I228
sS'GTGGTT'
p901
I150
sS'GTGTTC'
p902
I1089
sS'GTGTTA'
p903
I1371
sS'GTGTTG'
p904
I2261
sS'ACCAAT'
p905
I448
sS'GTGGTA'
p906
I616
sS'GCTACA'
p907
I405
sS'GTGGTC'
p908
I412
sS'CTAAGC'
p909
I386
sS'GTGGTG'
p910
I1691
sS'GCTACG'
p911
I172
sS'GCCCCT'
p912
I762
sS'GCTTCA'
p913
I1194
sS'TGCCCT'
p914
I827
sS'AGCGTT'
p915
I170
sS'AGGTAA'
p916
I380
sS'TGCCCC'
p917
I1685
sS'TGCCCA'
p918
I1630
sS'TGCCCG'
p919
I729
sS'TTTCGG'
p920
I336
sS'AGCGTA'
p921
I469
sS'AGCGTC'
p922
I728
sS'ACAACA'
p923
I298
sS'AGCGTG'
p924
I1487
sS'GGCCCC'
p925
I1806
sS'GGCCCA'
p926
I1221
sS'CACGTG'
p927
I2687
sS'GGCCCG'
p928
I933
sS'CACGTA'
p929
I691
sS'CACGTC'
p930
I715
sS'ACGTGC'
p931
I194
sS'ACGTGA'
p932
I246
sS'GGGACT'
p933
I370
sS'CTATAC'
p934
I134
sS'CACGTT'
p935
I175
sS'TTCACG'
p936
I630
sS'GGCCCT'
p937
I644
sS'GGGACA'
p938
I823
sS'AATTGA'
p939
I1127
sS'GGGACC'
p940
I850
sS'AGGGAC'
p941
I449
sS'TCGTGG'
p942
I227
sS'GGGACG'
p943
I503
sS'TCTTAG'
p944
I755
sS'AGAGAG'
p945
I450
sS'AGAGAA'
p946
I277
sS'AGAGAC'
p947
I207
sS'GTCTCG'
p948
I1320
sS'GTCTTT'
p949
I1353
sS'TCTATC'
p950
I261
sS'CCACCA'
p951
I171
sS'TCTATG'
p952
I670
sS'AGAGAT'
p953
I52
sS'TCGTGC'
p954
I122
sS'GTCTTG'
p955
I4818
sS'TCTATT'
p956
I131
sS'GTCTTC'
p957
I3491
sS'GTCTTA'
p958
I3011
sS'GCAGAG'
p959
I252
sS'GCTCAA'
p960
I458
sS'GCTCAC'
p961
I564
sS'GCAGAC'
p962
I127
sS'GCAGAA'
p963
I152
sS'GCTCAG'
p964
I1040
sS'AGACGT'
p965
I30
sS'ATGCGT'
p966
I50
sS'TTGCTG'
p967
I2733
sS'TTGCTA'
p968
I1164
sS'TTGCTC'
p969
I1261
sS'GCAGAT'
p970
I31
sS'GCTCAT'
p971
I109
sS'CGAATT'
p972
I9
sS'GTACGG'
p973
I76
sS'TTGCTT'
p974
I418
sS'CGATTC'
p975
I50
sS'TAGCCG'
p976
I228
sS'ATGCGC'
p977
I199
sS'ATGCGA'
p978
I82
sS'TGTAAG'
p979
I915
sS'GGCTAG'
p980
I1466
sS'TGTAAC'
p981
I676
sS'GGCTAC'
p982
I1058
sS'TGTAAA'
p983
I1060
sS'GGCTAA'
p984
I1261
sS'ACTGTA'
p985
I693
sS'TTGGTA'
p986
I470
sS'ACTGTC'
p987
I325
sS'TTGGTC'
p988
I327
sS'TTCGAC'
p989
I184
sS'ACTGTG'
p990
I1458
sS'TTGGTG'
p991
I950
sS'GACTGC'
p992
I3727
sS'GGCTAT'
p993
I270
sS'GACTGA'
p994
I3567
sS'GACTGG'
p995
I4722
sS'TGTGGT'
p996
I360
sS'TTGGTT'
p997
I119
sS'ACTGTT'
p998
I110
sS'GTTTCT'
p999
I752
sS'AGGTCC'
p1000
I807
sS'GAATGA'
p1001
I795
sS'ATAATT'
p1002
I77
sS'CCTTTT'
p1003
I495
sS'GTTTCG'
p1004
I373
sS'CCGCTA'
p1005
I179
sS'GTTTCC'
p1006
I1800
sS'GTTTCA'
p1007
I1306
sS'ATAATG'
p1008
I422
sS'CCTTTA'
p1009
I2337
sS'CCTTTC'
p1010
I2007
sS'CGTTTA'
p1011
I625
sS'ATAATA'
p1012
I435
sS'CCTTTG'
p1013
I3775
sS'ACAGAA'
p1014
I133
sS'ACAGAC'
p1015
I118
sS'ACAGAG'
p1016
I185
sS'TTATCT'
p1017
I273
sS'CTGGAC'
p1018
I353
sS'CTGGAA'
p1019
I396
sS'CTGGAG'
p1020
I835
sS'CGATTT'
p1021
I10
sS'GTCGAT'
p1022
I31
sS'TGGGGA'
p1023
I588
sS'TTATCA'
p1024
I473
sS'CTGGAT'
p1025
I82
sS'TTATCC'
p1026
I377
sS'CCAATG'
p1027
I669
sS'AAACCG'
p1028
I86
sS'AAACCA'
p1029
I262
sS'CCAATC'
p1030
I286
sS'AAACCC'
p1031
I236
sS'CCAATA'
p1032
I381
sS'TGTCGG'
p1033
I456
sS'GAGATC'
p1034
I585
sS'AACGAG'
p1035
I512
sS'GAGATA'
p1036
I1090
sS'TGTCGC'
p1037
I487
sS'GAGATG'
p1038
I2423
sS'TGTCGA'
p1039
I179
sS'ATTTGA'
p1040
I903
sS'CCAATT'
p1041
I51
sS'ATTTGC'
p1042
I756
sS'GGGTAT'
p1043
I71
sS'ATTTGG'
p1044
I786
sS'CCCTAG'
p1045
I1377
sS'TGTCGT'
p1046
I136
sS'CCCTAC'
p1047
I1063
sS'CATGGA'
p1048
I666
sS'CCCTAA'
p1049
I1115
sS'CATTAT'
p1050
I386
sS'CTACAC'
p1051
I116
sS'ACTTCA'
p1052
I949
sS'TGACAG'
p1053
I177
sS'ATCACC'
p1054
I1151
sS'CATGCT'
p1055
I413
sS'TGACAC'
p1056
I76
sS'ATCACG'
p1057
I423
sS'TGGATA'
p1058
I471
sS'CATTAG'
p1059
I1217
sS'CATTAA'
p1060
I1389
sS'TGGATG'
p1061
I937
sS'AGCATT'
p1062
I492
sS'CATAGC'
p1063
I701
sS'TGACAT'
p1064
I48
sS'CATGCC'
p1065
I956
sS'ATCACT'
p1066
I686
sS'CATGCG'
p1067
I456
sS'GTAGAA'
p1068
I148
sS'GTAGAC'
p1069
I114
sS'GTAGAG'
p1070
I195
sS'GATTGG'
p1071
I3245
sS'ACACCC'
p1072
I114
sS'ACAACC'
p1073
I202
sS'GATTGC'
p1074
I1344
sS'GATTGA'
p1075
I1397
sS'TAAATT'
p1076
I116
sS'ACTAAG'
p1077
I532
sS'GTAGAT'
p1078
I37
sS'TTCGAG'
p1079
I325
sS'TTGCCT'
p1080
I567
sS'ATGAGT'
p1081
I306
sS'GATTGT'
p1082
I764
sS'ACAACT'
p1083
I106
sS'GTCGAA'
p1084
I183
sS'TAATAG'
p1085
I209
sS'GTCCGG'
p1086
I1229
sS'TAATAC'
p1087
I196
sS'GTCCGA'
p1088
I501
sS'TAATAA'
p1089
I288
sS'GTCCGC'
p1090
I1155
sS'TGTTTA'
p1091
I3280
sS'TCAACA'
p1092
I256
sS'ACTCTT'
p1093
I144
sS'GTCCGT'
p1094
I250
sS'TAATAT'
p1095
I100
sS'ATTCGC'
p1096
I134
sS'TTCTCC'
p1097
I4755
sS'TGAACT'
p1098
I165
sS'TTCTCA'
p1099
I4275
sS'ATTCGG'
p1100
I161
sS'TTCTCG'
p1101
I1209
sS'GAGCTA'
p1102
I1541
sS'TCGTAC'
p1103
I30
sS'TACCTT'
p1104
I566
sS'TCGTAA'
p1105
I48
sS'TCGTAG'
p1106
I69
sS'TCGTCA'
p1107
I112
sS'GAACCT'
p1108
I123
sS'ATCCAA'
p1109
I644
sS'ATCCAC'
p1110
I614
sS'TTTCAT'
p1111
I254
sS'TTCTCT'
p1112
I2677
sS'ATCCAG'
p1113
I915
sS'GAACCC'
p1114
I310
sS'TACCTG'
p1115
I3079
sS'TACCTA'
p1116
I1525
sS'TACCTC'
p1117
I1440
sS'TCGTAT'
p1118
I14
sS'ATGTTA'
p1119
I965
sS'ACCATA'
p1120
I828
sS'ACCATG'
p1121
I1762
sS'ATGTTG'
p1122
I1252
sS'AGCTCT'
p1123
I1733
sS'TGTCCT'
p1124
I328
sS'AGTGGT'
p1125
I238
sS'CGTGGT'
p1126
I202
sS'AGATGT'
p1127
I147
sS'TGATGT'
p1128
I139
sS'ATGTTT'
p1129
I250
sS'ACCATT'
p1130
I188
sS'CGTAAA'
p1131
I219
sS'AGCTCG'
p1132
I1135
sS'AGTGGC'
p1133
I746
sS'AGCTCC'
p1134
I4148
sS'AGCTCA'
p1135
I3330
sS'ATAGCC'
p1136
I112
sS'CAGTAA'
p1137
I506
sS'CAGTAC'
p1138
I355
sS'CAGTAG'
p1139
I531
sS'TTAATA'
p1140
I635
sS'CAGTAT'
p1141
I130
sS'AAAGTA'
p1142
I508
sS'TTTCAA'
p1143
I923
sS'CCGGCT'
p1144
I89
sS'GATCTA'
p1145
I1136
sS'GATCTC'
p1146
I1380
sS'ATTGAC'
p1147
I229
sS'GATCTG'
p1148
I2819
sS'TTTCAG'
p1149
I1001
sS'CCGGCC'
p1150
I510
sS'CCGGCA'
p1151
I233
sS'CCGGCG'
p1152
I186
sS'CACATT'
p1153
I513
sS'GTTCCC'
p1154
I657
sS'TCCCTC'
p1155
I2824
sS'TGTCCG'
p1156
I246
sS'TCCCTA'
p1157
I1887
sS'TGCCAC'
p1158
I1416
sS'TCCCTG'
p1159
I4897
sS'GATCTT'
p1160
I339
sS'CTAGAC'
p1161
I100
sS'ATAGAA'
p1162
I133
sS'AAGTGA'
p1163
I1426
sS'AAGTGC'
p1164
I1008
sS'TGTTCT'
p1165
I826
sS'AAGTGG'
p1166
I1476
sS'TGATTG'
p1167
I791
sS'TGATTC'
p1168
I264
sS'TGTATT'
p1169
I210
sS'TGATTA'
p1170
I413
sS'TGTTCA'
p1171
I1487
sS'CACAAG'
p1172
I1955
sS'TGTTCC'
p1173
I1427
sS'AAGTGT'
p1174
I595
sS'CACAAC'
p1175
I1360
sS'TGTTCG'
p1176
I333
sS'TCTGAA'
p1177
I414
sS'TCTGAC'
p1178
I453
sS'GAAGTC'
p1179
I450
sS'TCTGAG'
p1180
I867
sS'CGCGCC'
p1181
I1827
sS'CGCGCA'
p1182
I1117
sS'GGTAAA'
p1183
I595
sS'CGCGCG'
p1184
I1192
sS'CTCCCT'
p1185
I1614
sS'AGCGGG'
p1186
I1473
sS'AGCGGA'
p1187
I746
sS'AGCGGC'
p1188
I1082
sS'AGATGA'
p1189
I304
sS'GAAATA'
p1190
I831
sS'GACATT'
p1191
I535
sS'CGCGCT'
p1192
I494
sS'ACCTCC'
p1193
I2326
sS'CTCCCG'
p1194
I1733
sS'CTCCCA'
p1195
I3136
sS'CTCCCC'
p1196
I3641
sS'GCCTCT'
p1197
I2130
sS'TAAGCC'
p1198
I337
sS'CGGGAG'
p1199
I486
sS'CCCATG'
p1200
I2012
sS'CGGGAA'
p1201
I180
sS'CCCATA'
p1202
I1016
sS'TAGCTG'
p1203
I1707
sS'CCCATC'
p1204
I1023
sS'CCGAGA'
p1205
I171
sS'CCTGCT'
p1206
I362
sS'CCGAAT'
p1207
I20
sS'CCCATT'
p1208
I383
sS'CGGGAT'
p1209
I34
sS'GCCTCG'
p1210
I2079
sS'GCCTCA'
p1211
I3453
sS'TAAGCT'
p1212
I121
sS'GCCTCC'
p1213
I6232
sS'CCGAAC'
p1214
I67
sS'CCTGCG'
p1215
I496
sS'CCGAAA'
p1216
I58
sS'CCGAAG'
p1217
I137
sS'CCTGCC'
p1218
I1181
sS'CCTGCA'
p1219
I894
sS'CGACAC'
p1220
I22
sS'CAAGGT'
p1221
I109
sS'CCATTC'
p1222
I278
sS'TATAAG'
p1223
I775
sS'CCATTG'
p1224
I772
sS'TATAAC'
p1225
I544
sS'TAACGA'
p1226
I62
sS'CATTTC'
p1227
I2830
sS'TATAAT'
p1228
I380
sS'GTTCTA'
p1229
I914
sS'CCATTT'
p1230
I125
sS'TCTACA'
p1231
I423
sS'TCTACC'
p1232
I490
sS'CTAACT'
p1233
I187
sS'TCTACG'
p1234
I135
sS'ACTTTC'
p1235
I908
sS'CGCAAC'
p1236
I460
sS'TGCTTA'
p1237
I3809
sS'CGCAAA'
p1238
I466
sS'ATACCG'
p1239
I26
sS'CGCAAG'
p1240
I752
sS'AAAGAC'
p1241
I299
sS'ATACCC'
p1242
I68
sS'TCTACT'
p1243
I233
sS'CCGAGT'
p1244
I84
sS'ATACCT'
p1245
I52
sS'CGCAAT'
p1246
I123
sS'TAGTAA'
p1247
I475
sS'ATTTCT'
p1248
I434
sS'TAGTAC'
p1249
I271
sS'CTCAAG'
p1250
I2042
sS'CTCAAA'
p1251
I1803
sS'TAGTAG'
p1252
I484
sS'CTCAAC'
p1253
I1301
sS'GTGTGC'
p1254
I1181
sS'GTGTGA'
p1255
I1265
sS'GTGTGG'
p1256
I2247
sS'TAACGG'
p1257
I105
sS'TTGCGT'
p1258
I72
sS'CTCAAT'
p1259
I392
sS'TAGTAT'
p1260
I153
sS'GTGTGT'
p1261
I1368
sS'ATCTTT'
p1262
I829
sS'GTTGGG'
p1263
I828
sS'GTTGGA'
p1264
I443
sS'GTTGGC'
p1265
I472
sS'CCTTGG'
p1266
I1517
sS'CCTTGA'
p1267
I892
sS'GCGTAT'
p1268
I15
sS'CCTTGC'
p1269
I1101
sS'GGACGT'
p1270
I17
sS'GTTGGT'
p1271
I183
sS'ATCTTG'
p1272
I3869
sS'ATCTTA'
p1273
I2627
sS'ATCTTC'
p1274
I2238
sS'CCTTGT'
p1275
I491
sS'AGGATA'
p1276
I607
sS'AAACTA'
p1277
I415
sS'AGGATG'
p1278
I1456
sS'GACATG'
p1279
I2758
sS'GACATC'
p1280
I1444
sS'GACATA'
p1281
I1565
sS'TCGGCG'
p1282
I105
sS'GAATAT'
p1283
I72
sS'TCGGCC'
p1284
I265
sS'TCGGCA'
p1285
I120
sS'TTGCGA'
p1286
I134
sS'TTGCGC'
p1287
I241
sS'TTGCGG'
p1288
I244
sS'GAATAG'
p1289
I277
sS'TCGGCT'
p1290
I60
sS'ATCAGC'
p1291
I1293
sS'GAATAC'
p1292
I204
sS'GAATAA'
p1293
I308
sS'ACTTTT'
p1294
I267
sS'ATACAA'
p1295
I105
sS'GACCTT'
p1296
I708
sS'TGCCTC'
p1297
I2675
sS'ACGTCG'
p1298
I78
sS'GGACGC'
p1299
I106
sS'TTATAA'
p1300
I220
sS'GAAATG'
p1301
I1560
sS'AATGAT'
p1302
I258
sS'TTTCTC'
p1303
I1404
sS'GAAATC'
p1304
I320
sS'CGCATT'
p1305
I133
sS'GAAATT'
p1306
I79
sS'AATGAA'
p1307
I1384
sS'ATGTCC'
p1308
I657
sS'AATGAC'
p1309
I1103
sS'AATGAG'
p1310
I1767
sS'TCAGCA'
p1311
I282
sS'CTTGGA'
p1312
I643
sS'CTTGGC'
p1313
I722
sS'GTCCTT'
p1314
I634
sS'CTTGGG'
p1315
I1006
sS'ATACAG'
p1316
I130
sS'AGCCCT'
p1317
I1020
sS'GCGTAA'
p1318
I68
sS'TTGAAT'
p1319
I169
sS'GTCCTA'
p1320
I1617
sS'GTCCTC'
p1321
I2419
sS'TGCACG'
p1322
I606
sS'TGCACA'
p1323
I1819
sS'GTCCTG'
p1324
I4708
sS'TGCACC'
p1325
I1522
sS'TTGAAA'
p1326
I506
sS'AGCCCG'
p1327
I1155
sS'AGCCCA'
p1328
I2145
sS'AGCCCC'
p1329
I2332
sS'TTAACT'
p1330
I244
sS'ATAAAT'
p1331
I110
sS'TGGTCG'
p1332
I178
sS'TGGTCA'
p1333
I784
sS'TGGTCC'
p1334
I680
sS'ACGATT'
p1335
I8
sS'GAGACT'
p1336
I822
sS'ACGGGG'
p1337
I223
sS'TGGTCT'
p1338
I383
sS'ATAAAG'
p1339
I309
sS'ATAAAA'
p1340
I341
sS'TCAGCC'
p1341
I304
sS'ATAAAC'
p1342
I222
sS'GAGACG'
p1343
I865
sS'ACGATG'
p1344
I131
sS'CTACAG'
p1345
I186
sS'GAGACC'
p1346
I1482
sS'ACGATC'
p1347
I31
sS'GAGACA'
p1348
I1875
sS'ACGATA'
p1349
I64
sS'GGTTAC'
p1350
I548
sS'ATGTGT'
p1351
I439
sS'GGTTAA'
p1352
I753
sS'ACCACT'
p1353
I534
sS'GGTTAG'
p1354
I714
sS'CTTCCT'
p1355
I671
sS'TAAACT'
p1356
I274
sS'CGTGAA'
p1357
I211
sS'CCAACA'
p1358
I263
sS'TCCGCT'
p1359
I380
sS'CTTCCA'
p1360
I905
sS'CTTCCC'
p1361
I1491
sS'ACCACC'
p1362
I1318
sS'CGTATG'
p1363
I186
sS'ATGTGC'
p1364
I515
sS'GGTTAT'
p1365
I174
sS'TCCGCC'
p1366
I1759
sS'TCCGCA'
p1367
I652
sS'TCCGCG'
p1368
I613
sS'CGTACA'
p1369
I165
sS'AACGTC'
p1370
I514
sS'CGTGAG'
p1371
I573
sS'AACGTG'
p1372
I1198
sS'CGTGAC'
p1373
I467
sS'AGTGTG'
p1374
I2013
sS'TCTTCG'
p1375
I358
sS'AGTGTA'
p1376
I852
sS'TCTTCA'
p1377
I1350
sS'AGTGTC'
p1378
I568
sS'TCTTCC'
p1379
I1792
sS'TAAGTG'
p1380
I639
sS'TAAGTC'
p1381
I180
sS'AACGTT'
p1382
I138
sS'AGTAAA'
p1383
I914
sS'TCTTCT'
p1384
I596
sS'AGTGTT'
p1385
I199
sS'GTGCGC'
p1386
I508
sS'TTGGCA'
p1387
I622
sS'AAAGGT'
p1388
I131
sS'TTGGCC'
p1389
I969
sS'AGTAAC'
p1390
I695
sS'TTAACG'
p1391
I88
sS'TTGGCG'
p1392
I213
sS'GACTTC'
p1393
I4168
sS'TCGAGT'
p1394
I48
sS'GACTTA'
p1395
I3231
sS'GACTTG'
p1396
I5768
sS'ACGTAG'
p1397
I80
sS'AAAGGG'
p1398
I863
sS'AAAGGA'
p1399
I658
sS'TTGGCT'
p1400
I343
sS'AAAGGC'
p1401
I510
sS'GAGTAC'
p1402
I514
sS'GTATGG'
p1403
I348
sS'GACTTT'
p1404
I1486
sS'TTCTTT'
p1405
I2667
sS'CAAGAA'
p1406
I183
sS'GACGTT'
p1407
I245
sS'CAAGAC'
p1408
I161
sS'CAAGAG'
p1409
I290
sS'CGTATT'
p1410
I30
sS'TTCTTG'
p1411
I6716
sS'TTCTTC'
p1412
I5352
sS'TTCTTA'
p1413
I5494
sS'CAAGAT'
p1414
I41
sS'AGGGCT'
p1415
I365
sS'TACGGG'
p1416
I460
sS'TACGGA'
p1417
I339
sS'TACGGC'
p1418
I355
sS'CCAACT'
p1419
I115
sS'TAGAGT'
p1420
I336
sS'TACGGT'
p1421
I113
sS'AGGGCG'
p1422
I594
sS'AGGGCA'
p1423
I1017
sS'AGGGCC'
p1424
I1100
sS'CTGTGC'
p1425
I1485
sS'TAGAGA'
p1426
I1108
sS'TAGAGG'
p1427
I1272
sS'CCGTGT'
p1428
I110
sS'GTGCTG'
p1429
I4164
sS'GTGCTA'
p1430
I1146
sS'ATCTGT'
p1431
I823
sS'GTGCTC'
p1432
I1544
sS'GCTCGT'
p1433
I103
sS'ATCTGA'
p1434
I1789
sS'GTGCTT'
p1435
I519
sS'ATCTGC'
p1436
I1858
sS'TCGAGG'
p1437
I213
sS'CGAATG'
p1438
I135
sS'ATCTGG'
p1439
I2041
sS'ATCATA'
p1440
I1147
sS'GATAGC'
p1441
I557
sS'ATCATC'
p1442
I806
sS'GATAGA'
p1443
I946
sS'AAGCAA'
p1444
I838
sS'GATAGG'
p1445
I1141
sS'AAGCAC'
p1446
I651
sS'GGCTCA'
p1447
I2873
sS'GTTATG'
p1448
I764
sS'CTAGGT'
p1449
I104
sS'CATTTA'
p1450
I3599
sS'ACGCAT'
p1451
I17
sS'CATTTG'
p1452
I4322
sS'GTTATA'
p1453
I487
sS'CAAACA'
p1454
I604
sS'AAGCAT'
p1455
I167
sS'CAAACC'
p1456
I467
sS'GGCTCC'
p1457
I4324
sS'ATCATT'
p1458
I275
sS'GATAGT'
p1459
I358
sS'ACGCAG'
p1460
I142
sS'CTAGGG'
p1461
I365
sS'GTTATT'
p1462
I131
sS'CTAGGC'
p1463
I216
sS'CATTTT'
p1464
I726
sS'CTAGGA'
p1465
I291
sS'AAGTTT'
p1466
I254
sS'TACAGT'
p1467
I1223
sS'CTAACG'
p1468
I136
sS'CTAAGG'
p1469
I666
sS'CTAAGA'
p1470
I423
sS'GGGGCT'
p1471
I312
sS'TACAGG'
p1472
I3384
sS'AAGTTG'
p1473
I1598
sS'GGATGC'
p1474
I164
sS'AAGTTA'
p1475
I1358
sS'TACAGC'
p1476
I1970
sS'AAGTTC'
p1477
I826
sS'TACAGA'
p1478
I2255
sS'GGGGCC'
p1479
I1002
sS'GTATGA'
p1480
I344
sS'GGGGCA'
p1481
I717
sS'GGGGCG'
p1482
I852
sS'TTCAAC'
p1483
I1210
sS'TATATC'
p1484
I404
sS'TATATA'
p1485
I1444
sS'TATATG'
p1486
I1119
sS'AGTTCT'
p1487
I676
sS'TCCGGT'
p1488
I267
sS'GCCCAT'
p1489
I233
sS'TATATT'
p1490
I292
sS'GGACTA'
p1491
I152
sS'TGATGG'
p1492
I249
sS'CATATG'
p1493
I955
sS'TGATGC'
p1494
I159
sS'AGGTCT'
p1495
I411
sS'TGATGA'
p1496
I265
sS'TGCCAT'
p1497
I290
sS'CACATC'
p1498
I1392
sS'TGTTTC'
p1499
I2160
sS'CACATA'
p1500
I1951
sS'TTAATT'
p1501
I85
sS'CACATG'
p1502
I3167
sS'TGTTTG'
p1503
I4319
sS'ATGAGA'
p1504
I586
sS'ATGAGC'
p1505
I449
sS'ATGAGG'
p1506
I737
sS'TTTCAC'
p1507
I639
sS'ACTCTG'
p1508
I1564
sS'TGCCAG'
p1509
I1885
sS'ACTCTA'
p1510
I685
sS'TGCCAA'
p1511
I1171
sS'ACTCTC'
p1512
I532
sS'TGTAGT'
p1513
I579
sS'AAATTC'
p1514
I250
sS'AAATTA'
p1515
I586
sS'AAATTG'
p1516
I586
sS'CCAGTA'
p1517
I209
sS'GTATTT'
p1518
I214
sS'CGTACC'
p1519
I186
sS'TTAATC'
p1520
I211
sS'AAATTT'
p1521
I73
sS'GTCTAT'
p1522
I407
sS'GGGAAC'
p1523
I546
sS'GGTGCG'
p1524
I337
sS'GGGAAA'
p1525
I671
sS'GGGAAG'
p1526
I1523
sS'GGTGCC'
p1527
I590
sS'GGTGCA'
p1528
I522
sS'AGAGCG'
p1529
I188
sS'GCGACT'
p1530
I69
sS'AGCGAT'
p1531
I100
sS'AGAGCC'
p1532
I487
sS'AGAGCA'
p1533
I404
sS'GCGTAG'
p1534
I118
sS'GGTGCT'
p1535
I244
sS'GCGTAC'
p1536
I55
sS'TAATTT'
p1537
I121
sS'GGGAAT'
p1538
I145
sS'GCGACG'
p1539
I122
sS'AGAGCT'
p1540
I168
sS'GCGACA'
p1541
I165
sS'TATCGG'
p1542
I200
sS'GCGACC'
p1543
I208
sS'AGGTCG'
p1544
I252
sS'GCAGGA'
p1545
I307
sS'GCAGGC'
p1546
I223
sS'GCAGGG'
p1547
I472
sS'GCTCGC'
p1548
I555
sS'GCACTA'
p1549
I158
sS'CCGTGC'
p1550
I229
sS'GCTCGG'
p1551
I783
sS'TATTCT'
p1552
I844
sS'CCGTGG'
p1553
I341
sS'CTTTAG'
p1554
I954
sS'GCAGGT'
p1555
I86
sS'TCTTGA'
p1556
I783
sS'TATTCC'
p1557
I1316
sS'GGCGAG'
p1558
I1215
sS'TATTCA'
p1559
I1819
sS'CAATTA'
p1560
I417
sS'TATTCG'
p1561
I342
sS'GGCGAC'
p1562
I616
sS'TGTAGA'
p1563
I676
sS'TTTACC'
p1564
I620
sS'TGTAGC'
p1565
I668
sS'TTTACA'
p1566
I911
sS'AATCCT'
p1567
I350
sS'TGTAGG'
p1568
I884
sS'GGCTCG'
p1569
I1372
sS'TTCGGA'
p1570
I324
sS'TTCGGC'
p1571
I449
sS'AAATAG'
p1572
I244
sS'GTCTAC'
p1573
I978
sS'TTCGGG'
p1574
I702
sS'AGCATG'
p1575
I2849
sS'GGCTCT'
p1576
I1536
sS'AGCATC'
p1577
I1058
sS'TTTACT'
p1578
I463
sS'AGCATA'
p1579
I1312
sS'AACCTT'
p1580
I435
sS'ATTGTA'
p1581
I555
sS'TTCGGT'
p1582
I103
sS'GAGCAT'
p1583
I236
sS'GTTTAT'
p1584
I250
sS'GGGGAG'
p1585
I869
sS'GCACTC'
p1586
I123
sS'CGCTAC'
p1587
I637
sS'TTAATG'
p1588
I651
sS'GTTTAA'
p1589
I926
sS'CGCTAA'
p1590
I585
sS'AACTTG'
p1591
I4273
sS'CAATCT'
p1592
I112
sS'GTTTAG'
p1593
I713
sS'TCCAGA'
p1594
I1932
sS'CTGGCT'
p1595
I446
sS'AGGCGG'
p1596
I1380
sS'AGGCGA'
p1597
I386
sS'AGGCGC'
p1598
I750
sS'AGGAGT'
p1599
I526
sS'ACAGCC'
p1600
I264
sS'GATAAA'
p1601
I1249
sS'ACAGCA'
p1602
I301
sS'GAGGTC'
p1603
I819
sS'ACAGCG'
p1604
I96
sS'AGGAGC'
p1605
I1315
sS'GTCGGA'
p1606
I361
sS'AGGAGA'
p1607
I1358
sS'GTCGGC'
p1608
I577
sS'AGGAGG'
p1609
I3343
sS'CTGGCA'
p1610
I1091
sS'GTCGGG'
p1611
I971
sS'GCATCG'
p1612
I75
sS'CGATAC'
p1613
I17
sS'ACCGGT'
p1614
I71
sS'GGAAAA'
p1615
I243
sS'ATTGGT'
p1616
I176
sS'AATTTT'
p1617
I403
sS'TGTCAA'
p1618
I615
sS'TGTCAC'
p1619
I1060
sS'CCCTCT'
p1620
I1561
sS'GCTCTA'
p1621
I921
sS'TGTCAG'
p1622
I1197
sS'AACGCG'
p1623
I507
sS'AATTTA'
p1624
I2580
sS'AATTTC'
p1625
I1404
sS'AACGCC'
p1626
I890
sS'AACGCA'
p1627
I654
sS'AATTTG'
p1628
I2826
sS'CCCTCA'
p1629
I2512
sS'CCCTCC'
p1630
I5460
sS'ATTTAG'
p1631
I574
sS'CCCTCG'
p1632
I1242
sS'ACCGAT'
p1633
I27
sS'TAAATA'
p1634
I906
sS'GGAAAG'
p1635
I488
sS'TGACCA'
p1636
I116
sS'CATTCT'
p1637
I1115
sS'TAAATC'
p1638
I278
sS'AAATGC'
p1639
I413
sS'ATGGTT'
p1640
I50
sS'TAGCGT'
p1641
I102
sS'ACCACG'
p1642
I575
sS'CATTCG'
p1643
I552
sS'CATTCC'
p1644
I2450
sS'CATTCA'
p1645
I2480
sS'GGACTC'
p1646
I103
sS'TAAATG'
p1647
I1059
sS'ACAAAT'
p1648
I61
sS'GATTAA'
p1649
I1487
sS'GTAGGC'
p1650
I168
sS'GATTAC'
p1651
I1946
sS'GTAGGA'
p1652
I249
sS'GTAGGG'
p1653
I345
sS'GATTAG'
p1654
I1252
sS'GCGGGT'
p1655
I79
sS'ACAAAC'
p1656
I204
sS'ACAAAA'
p1657
I240
sS'ACAAAG'
p1658
I343
sS'GCGGGC'
p1659
I369
sS'GTCGGT'
p1660
I152
sS'GCGGGA'
p1661
I383
sS'GCGGGG'
p1662
I1162
sS'GATTAT'
p1663
I425
sS'GTAGGT'
p1664
I85
sS'GGCGTC'
p1665
I744
sS'TAATGA'
p1666
I438
sS'GATGTT'
p1667
I281
sS'TAATGC'
p1668
I336
sS'GGAGAT'
p1669
I43
sS'TAATGG'
p1670
I474
sS'GCGCCG'
p1671
I211
sS'CAATAA'
p1672
I165
sS'GCCCTC'
p1673
I2786
sS'GATGTG'
p1674
I2764
sS'GCCCTA'
p1675
I1613
sS'GATGTA'
p1676
I1141
sS'GCCCTG'
p1677
I5758
sS'GATGTC'
p1678
I851
sS'GGCGTG'
p1679
I2382
sS'TGAAAT'
p1680
I104
sS'TTCTAG'
p1681
I2181
sS'TTCTAA'
p1682
I2605
sS'ATCCGT'
p1683
I113
sS'TTCTAC'
p1684
I1563
sS'GGCTTA'
p1685
I2636
sS'TTGGAT'
p1686
I60
sS'TGAAAC'
p1687
I237
sS'TGAAAG'
p1688
I389
sS'TTCTAT'
p1689
I652
sS'ATCCGC'
p1690
I488
sS'AGTAAT'
p1691
I258
sS'ATCCGA'
p1692
I253
sS'ATCCGG'
p1693
I581
sS'TGGCTC'
p1694
I1181
sS'TGGCTA'
p1695
I856
sS'GCTACC'
p1696
I424
sS'TGGCTG'
p1697
I2957
sS'AGGCGT'
p1698
I220
sS'AGTTGT'
p1699
I579
sS'AGCTAT'
p1700
I475
sS'CTGGCG'
p1701
I414
sS'TGGCTT'
p1702
I270
sS'AGTTGG'
p1703
I1204
sS'AGCTAA'
p1704
I1751
sS'ACGCCG'
p1705
I98
sS'AGCTAC'
p1706
I1411
sS'AGTTGC'
p1707
I994
sS'AGTTGA'
p1708
I979
sS'AGCTAG'
p1709
I1683
sS'CGTTGA'
p1710
I358
sS'GCACCT'
p1711
I81
sS'CAGTGT'
p1712
I636
sS'TAACAA'
p1713
I232
sS'TCAGGT'
p1714
I66
sS'TCAAGG'
p1715
I407
sS'CTGGCC'
p1716
I1523
sS'TCAAGC'
p1717
I189
sS'TCAAGA'
p1718
I241
sS'GCACCA'
p1719
I150
sS'CAGTGC'
p1720
I1254
sS'GCACCC'
p1721
I130
sS'CAGTGA'
p1722
I1322
sS'CAGTGG'
p1723
I1602
sS'GCACCG'
p1724
I68
sS'TTTCGT'
p1725
I87
sS'TCAAGT'
p1726
I127
sS'CATGGC'
p1727
I807
sS'CGCAGG'
p1728
I2457
sS'ACTAGT'
p1729
I114
sS'TCAGGC'
p1730
I121
sS'GTGGGT'
p1731
I285
sS'CGTTGG'
p1732
I607
sS'CAACCA'
p1733
I160
sS'GTTCAT'
p1734
I136
sS'TTCCCT'
p1735
I1282
sS'ACCACA'
p1736
I1635
sS'GTTAGT'
p1737
I225
sS'CGAGCA'
p1738
I107
sS'CGCAGC'
p1739
I2183
sS'ACGCCA'
p1740
I137
sS'TTCCCA'
p1741
I2508
sS'TTCCCC'
p1742
I2400
sS'ACAGCT'
p1743
I103
sS'GTTCAC'
p1744
I441
sS'TTCCCG'
p1745
I1125
sS'GATCAC'
p1746
I992
sS'CGGATT'
p1747
I34
sS'CTTACT'
p1748
I419
sS'TACATG'
p1749
I2269
sS'AAGTAC'
p1750
I401
sS'TGAGCC'
p1751
I352
sS'TACATC'
p1752
I883
sS'AAGTAG'
p1753
I585
sS'TACATA'
p1754
I1919
sS'GCACAC'
p1755
I106
sS'GGACCG'
p1756
I31
sS'AACGCT'
p1757
I297
sS'GGACCA'
p1758
I68
sS'TCATCA'
p1759
I388
sS'GGACCC'
p1760
I88
sS'CACACG'
p1761
I991
sS'TACATT'
p1762
I555
sS'CACACC'
p1763
I2849
sS'CTGCAT'
p1764
I198
sS'CACACA'
p1765
I4464
sS'ACGGTC'
p1766
I58
sS'TCTGCC'
p1767
I723
sS'TCTGCA'
p1768
I826
sS'AGGTAG'
p1769
I466
sS'TCTGCG'
p1770
I359
sS'TAGATT'
p1771
I125
sS'CTCCAA'
p1772
I1504
sS'TTAAGG'
p1773
I539
sS'CCCGTA'
p1774
I405
sS'CGTCGA'
p1775
I145
sS'CCCGTG'
p1776
I1127
sS'TTAAGC'
p1777
I277
sS'TTACGT'
p1778
I30
sS'TAGATC'
p1779
I267
sS'AAACAG'
p1780
I405
sS'TAGATA'
p1781
I592
sS'TTTCGC'
p1782
I300
sS'TAGATG'
p1783
I1094
sS'GCGCCT'
p1784
I147
sS'TCTGCT'
p1785
I291
sS'TTACGC'
p1786
I61
sS'TTAAGT'
p1787
I237
sS'TTACGA'
p1788
I35
sS'TTACGG'
p1789
I80
sS'CCCGTT'
p1790
I90
sS'AGTGAC'
p1791
I957
sS'AGTGAA'
p1792
I738
sS'AGTGAG'
p1793
I1325
sS'CGGGCG'
p1794
I364
sS'AAACAC'
p1795
I239
sS'TAAGAG'
p1796
I327
sS'CGGGCC'
p1797
I700
sS'TAAGAA'
p1798
I219
sS'CGGGCA'
p1799
I392
sS'TAAGAC'
p1800
I189
sS'ATTTAT'
p1801
I208
sS'AGTGAT'
p1802
I153
sS'TAAGAT'
p1803
I49
sS'CCTGAA'
p1804
I362
sS'CCTGAC'
p1805
I501
sS'CCTGAG'
p1806
I782
sS'GTTAGG'
p1807
I740
sS'GCCAAC'
p1808
I1061
sS'TCATCT'
p1809
I247
sS'GTTAGC'
p1810
I392
sS'GTTAGA'
p1811
I550
sS'ACCCCC'
p1812
I600
sS'TATACG'
p1813
I180
sS'CGGATG'
p1814
I347
sS'TATACC'
p1815
I469
sS'TATACA'
p1816
I835
sS'ATTGGC'
p1817
I705
sS'CGTATA'
p1818
I106
sS'GTAATG'
p1819
I598
sS'TTTATT'
p1820
I304
sS'GTAATA'
p1821
I418
sS'ATTGGA'
p1822
I347
sS'GTAATC'
p1823
I201
sS'TCTAAC'
p1824
I331
sS'CGTTCT'
p1825
I250
sS'TCTAAA'
p1826
I450
sS'CGGATC'
p1827
I108
sS'TCTAAG'
p1828
I591
sS'CCACCC'
p1829
I255
sS'GTTCGT'
p1830
I75
sS'TTTATG'
p1831
I1344
sS'ACTAGG'
p1832
I510
sS'TTTATC'
p1833
I448
sS'ACTAGC'
p1834
I230
sS'TTTATA'
p1835
I1143
sS'ATTTAC'
p1836
I448
sS'CCACCT'
p1837
I109
sS'CGTTCG'
p1838
I285
sS'ACTTGT'
p1839
I301
sS'CGTTCA'
p1840
I467
sS'CGTTCC'
p1841
I784
sS'TCTAAT'
p1842
I124
sS'CTTTGT'
p1843
I1042
sS'ACTGGG'
p1844
I687
sS'ACTGGA'
p1845
I431
sS'ACTGGC'
p1846
I363
sS'TAGTCC'
p1847
I879
sS'GTGACC'
p1848
I959
sS'TAGTCA'
p1849
I1324
sS'GTGACA'
p1850
I917
sS'TAGTCG'
p1851
I202
sS'GTGACG'
p1852
I496
sS'TGTCAT'
p1853
I282
sS'ACTGGT'
p1854
I104
sS'CTTTGG'
p1855
I2112
sS'CCTATG'
p1856
I615
sS'CTTTGC'
p1857
I1864
sS'CTTTGA'
p1858
I2004
sS'GTGACT'
p1859
I685
sS'TAGTCT'
p1860
I457
sS'GTGCAC'
p1861
I565
sS'CGACGG'
p1862
I51
sS'ACCTAG'
p1863
I869
sS'CGACGA'
p1864
I22
sS'GTGCAG'
p1865
I1020
sS'CGACGC'
p1866
I54
sS'ACCTAC'
p1867
I743
sS'CCGCAG'
p1868
I192
sS'ACGGGA'
p1869
I134
sS'CCGCAC'
p1870
I109
sS'ACGTGG'
p1871
I356
sS'CGAAGC'
p1872
I164
sS'GCGCTG'
p1873
I927
sS'CGAAGA'
p1874
I152
sS'CCCCGT'
p1875
I219
sS'CGAAGG'
p1876
I274
sS'GCGCTC'
p1877
I361
sS'GTGCAT'
p1878
I162
sS'GCGCTA'
p1879
I238
sS'CCGCAT'
p1880
I26
sS'ATTACC'
p1881
I381
sS'GAAGAT'
p1882
I71
sS'GGATCT'
p1883
I81
sS'TCGTTT'
p1884
I40
sS'TCGGAC'
p1885
I41
sS'GAATCT'
p1886
I224
sS'CCTATA'
p1887
I365
sS'TCGGAG'
p1888
I104
sS'GGATCG'
p1889
I50
sS'GAAGAG'
p1890
I932
sS'GAAGAA'
p1891
I534
sS'GGATCC'
p1892
I194
sS'GAAGAC'
p1893
I436
sS'GGATCA'
p1894
I133
sS'GAATCA'
p1895
I722
sS'GAATCC'
p1896
I571
sS'TCGGAT'
p1897
I9
sS'GAATCG'
p1898
I136
sS'ATGGTC'
p1899
I140
sS'CAGATG'
p1900
I1329
sS'ATGGTA'
p1901
I313
sS'TGACCC'
p1902
I103
sS'ATGGTG'
p1903
I723
sS'CAGATC'
p1904
I372
sS'ACGCCC'
p1905
I246
sS'CAGATA'
p1906
I628
sS'CTCGAG'
p1907
I535
sS'CAGATT'
p1908
I111
sS'CTCGAC'
p1909
I305
sS'CTCGAA'
p1910
I258
sS'TCGCAA'
p1911
I42
sS'TGACCG'
p1912
I38
sS'TGCGTC'
p1913
I621
sS'AATGGT'
p1914
I256
sS'ATGATA'
p1915
I348
sS'GTTACG'
p1916
I184
sS'TGACCT'
p1917
I59
sS'TGCGTG'
p1918
I1392
sS'AATGGA'
p1919
I984
sS'AATGGG'
p1920
I1261
sS'CAATAC'
p1921
I107
sS'CACTCT'
p1922
I1590
sS'CAACTC'
p1923
I149
sS'CAACTA'
p1924
I167
sS'ACGCAA'
p1925
I57
sS'GTGAAT'
p1926
I165
sS'AGCCAG'
p1927
I2990
sS'TTGACA'
p1928
I493
sS'AAAAGT'
p1929
I219
sS'AGCCAC'
p1930
I2260
sS'AGCCAA'
p1931
I2208
sS'TGGTAG'
p1932
I318
sS'CGCCAT'
p1933
I196
sS'GAGTGT'
p1934
I777
sS'TGGTAC'
p1935
I192
sS'GAGGTA'
p1936
I1158
sS'TGGTAA'
p1937
I294
sS'AAAAGG'
p1938
I1156
sS'GGAGGT'
p1939
I98
sS'AGCCAT'
p1940
I418
sS'AAAAGC'
p1941
I659
sS'AAAAGA'
p1942
I913
sS'TCTATA'
p1943
I404
sS'GAGTGG'
p1944
I2440
sS'CGCCAG'
p1945
I1263
sS'TGGTAT'
p1946
I116
sS'CGCCAA'
p1947
I583
sS'GAGTGC'
p1948
I1498
sS'CGCCAC'
p1949
I1052
sS'GAGTGA'
p1950
I1924
sS'GCCAGG'
p1951
I4260
sS'GCCAGA'
p1952
I1867
sS'GCCAGC'
p1953
I2660
sS'GCCCGT'
p1954
I295
sS'CAATCC'
p1955
I341
sS'TACCGA'
p1956
I279
sS'TACCGC'
p1957
I558
sS'TACCGG'
p1958
I547
sS'GCCCGC'
p1959
I2516
sS'GCCAGT'
p1960
I809
sS'GCCCGA'
p1961
I822
sS'GCCCGG'
p1962
I2755
sS'TGCGAT'
p1963
I71
sS'CTTCAC'
p1964
I729
sS'CTTCAA'
p1965
I762
sS'CTTCAG'
p1966
I1276
sS'TCCGAG'
p1967
I580
sS'TCCGAA'
p1968
I209
sS'TCCGAC'
p1969
I300
sS'AATTCA'
p1970
I1576
sS'TATTAG'
p1971
I1153
sS'AATTCC'
p1972
I1417
sS'AATTCG'
p1973
I333
sS'TCCGAT'
p1974
I53
sS'ACATAC'
p1975
I77
sS'TAGCGG'
p1976
I347
sS'AATTCT'
p1977
I671
sS'TAGCGC'
p1978
I315
sS'GTCATC'
p1979
I1441
sS'GTCATA'
p1980
I1643
sS'GTCATG'
p1981
I2767
sS'AGCAGG'
p1982
I4583
sS'CCAGGT'
p1983
I104
sS'TTGGAA'
p1984
I262
sS'AGCAGC'
p1985
I3719
sS'AGCAGA'
p1986
I2702
sS'GTCATT'
p1987
I558
sS'CCAGGG'
p1988
I337
sS'AGCAGT'
p1989
I1273
sS'CCAGGA'
p1990
I296
sS'CCAGGC'
p1991
I243
sS'AGCGCT'
p1992
I494
sS'ATAGAG'
p1993
I119
sS'CATCTG'
p1994
I3128
sS'GATCGG'
p1995
I455
sS'CATCTA'
p1996
I1457
sS'ATAGAC'
p1997
I75
sS'CATCTC'
p1998
I1626
sS'GATCGC'
p1999
I526
sS'GGATGG'
p2000
I220
sS'CAAGCC'
p2001
I433
sS'CATCTT'
p2002
I455
sS'CAAGCA'
p2003
I362
sS'CAAGCG'
p2004
I130
sS'GTTCTT'
p2005
I201
sS'ACATGA'
p2006
I234
sS'CGTAAT'
p2007
I55
sS'ACATGC'
p2008
I173
sS'ACATGG'
p2009
I233
sS'CCCGCT'
p2010
I391
sS'GTACAT'
p2011
I33
sS'GGCCAT'
p2012
I214
sS'CGTAAG'
p2013
I268
sS'GTTCTG'
p2014
I1910
sS'ACATGT'
p2015
I122
sS'CGTAAC'
p2016
I190
sS'GTTCTC'
p2017
I953
sS'AGGGAG'
p2018
I1186
sS'ACGGAA'
p2019
I64
sS'CCCGCC'
p2020
I3614
sS'CCCGCA'
p2021
I917
sS'CCCTTT'
p2022
I1162
sS'TGTTGT'
p2023
I820
sS'GTTGTT'
p2024
I139
sS'ATCCTT'
p2025
I340
sS'TTGTCG'
p2026
I169
sS'TTGTCC'
p2027
I1036
sS'CCGTGA'
p2028
I179
sS'TTGTCA'
p2029
I1053
sS'ATCCTC'
p2030
I1287
sS'GTTGTA'
p2031
I689
sS'ATCCTA'
p2032
I1163
sS'GTTGTC'
p2033
I394
sS'ATCCTG'
p2034
I2762
sS'GTTGTG'
p2035
I1179
sS'TTGTCT'
p2036
I561
sS'ACCTCA'
p2037
I1912
sS'CCACTG'
p2038
I432
sS'TGACTA'
p2039
I270
sS'TGGGCC'
p2040
I791
sS'TGACTC'
p2041
I276
sS'TGGGCA'
p2042
I739
sS'TGGGCG'
p2043
I443
sS'TGACTG'
p2044
I404
sS'AAGCCG'
p2045
I466
sS'AAGCCC'
p2046
I1197
sS'AAGCCA'
p2047
I1214
sS'CAAAAT'
p2048
I73
sS'ACGCGG'
p2049
I168
sS'TGGGCT'
p2050
I276
sS'CAAAAC'
p2051
I306
sS'CAAAAA'
p2052
I379
sS'AAGCCT'
p2053
I441
sS'CAAAAG'
p2054
I419
sS'TGATTT'
p2055
I71
sS'TCAATG'
p2056
I391
sS'AAACTT'
p2057
I65
sS'TCAATC'
p2058
I111
sS'AAGGGA'
p2059
I1376
sS'TCAATA'
p2060
I272
sS'CAGTTC'
p2061
I956
sS'GACCCG'
p2062
I1216
sS'GACCCA'
p2063
I1920
sS'GACCCC'
p2064
I1710
sS'CTCTGT'
p2065
I2518
sS'TCAATT'
p2066
I43
sS'TGGCGT'
p2067
I100
sS'CTCTGC'
p2068
I6386
sS'GACCCT'
p2069
I799
sS'CTCTGA'
p2070
I4238
sS'ACAATC'
p2071
I98
sS'CTCTGG'
p2072
I6083
sS'CAGTTT'
p2073
I261
sS'GCGAAG'
p2074
I233
sS'ACGTTC'
p2075
I154
sS'TGCTGG'
p2076
I5098
sS'TGCTGA'
p2077
I3240
sS'GAGTCT'
p2078
I938
sS'TGCTGC'
p2079
I4415
sS'TAGGGA'
p2080
I681
sS'GCTGGT'
p2081
I194
sS'GTGATT'
p2082
I149
sS'CTACTA'
p2083
I291
sS'TGCTGT'
p2084
I1814
sS'TAGGGC'
p2085
I569
sS'GCCCTT'
p2086
I539
sS'TCGCTA'
p2087
I132
sS'ATGCGG'
p2088
I166
sS'GTGATG'
p2089
I1322
sS'GCTGGG'
p2090
I1981
sS'GTGATC'
p2091
I302
sS'GCTGGC'
p2092
I710
sS'GTGATA'
p2093
I528
sS'GCTGGA'
p2094
I803
sS'TGATAA'
p2095
I129
sS'TGATAC'
p2096
I77
sS'TGATAG'
p2097
I144
sS'CTTGTT'
p2098
I189
sS'GACGGT'
p2099
I326
sS'GCTAGG'
p2100
I831
sS'GCTAGA'
p2101
I513
sS'ATGAAT'
p2102
I149
sS'GCTAGC'
p2103
I303
sS'ATAGGG'
p2104
I159
sS'TGATAT'
p2105
I48
sS'GAGGTT'
p2106
I203
sS'GCTAGT'
p2107
I162
sS'ATGAAC'
p2108
I272
sS'GACGGG'
p2109
I1802
sS'CTTGTG'
p2110
I1608
sS'GACGGA'
p2111
I975
sS'CTTGTA'
p2112
I870
sS'GACGGC'
p2113
I1154
sS'CTTGTC'
p2114
I545
sS'GCACTT'
p2115
I53
sS'CTACTT'
p2116
I71
sS'CAACGT'
p2117
I25
sS'GGTGAA'
p2118
I492
sS'GGTGAC'
p2119
I689
sS'GCGTCT'
p2120
I149
sS'GACTGT'
p2121
I1809
sS'GGTGAG'
p2122
I1124
sS'GGAATG'
p2123
I629
sS'CGTCCT'
p2124
I166
sS'GGAATC'
p2125
I130
sS'GGAATA'
p2126
I269
sS'GCGTCA'
p2127
I347
sS'GCGTCC'
p2128
I533
sS'GGTGAT'
p2129
I109
sS'GCGTCG'
p2130
I174
sS'CAAACT'
p2131
I177
sS'CGTCCG'
p2132
I213
sS'GGAATT'
p2133
I57
sS'CGTCCC'
p2134
I569
sS'CGTCCA'
p2135
I321
sS'TTTCGA'
p2136
I174
sS'CCGTAT'
p2137
I23
sS'GCCGTG'
p2138
I1614
sS'GAAGTA'
p2139
I643
sS'GCCGTC'
p2140
I639
sS'GCCGTA'
p2141
I526
sS'CCGTAC'
p2142
I46
sS'CCGTAA'
p2143
I49
sS'TTCGAA'
p2144
I237
sS'CAAAGT'
p2145
I238
sS'GCCGTT'
p2146
I100
sS'GAAGTT'
p2147
I92
sS'GGCGCG'
p2148
I1207
sS'ATGCCC'
p2149
I639
sS'TTAGTT'
p2150
I52
sS'ATGCCA'
p2151
I650
sS'GGCGCC'
p2152
I1618
sS'TATTAA'
p2153
I1610
sS'GGCGCA'
p2154
I1021
sS'TATTAC'
p2155
I1005
sS'ACTATG'
p2156
I556
sS'CCATAT'
p2157
I56
sS'TTTAAG'
p2158
I1189
sS'ACTATC'
p2159
I153
sS'TTTAAA'
p2160
I1725
sS'ACTATA'
p2161
I334
sS'TTTAAC'
p2162
I669
sS'TATTAT'
p2163
I586
sS'TTAGTG'
p2164
I424
sS'GGCGCT'
p2165
I504
sS'TTAGTC'
p2166
I190
sS'ATGCCT'
p2167
I314
sS'TTAGTA'
p2168
I332
sS'TTTAAT'
p2169
I320
sS'ACTATT'
p2170
I82
sS'GGGCAT'
p2171
I88
sS'TTTCCG'
p2172
I294
sS'TTTCCA'
p2173
I822
sS'TTTCCC'
p2174
I949
sS'GTACGT'
p2175
I30
sS'GTTTGT'
p2176
I606
sS'TTTCCT'
p2177
I439
sS'GGGCAG'
p2178
I974
sS'GTCTGT'
p2179
I1454
sS'GGGCAA'
p2180
I292
sS'GGGCAC'
p2181
I357
sS'GTTTGC'
p2182
I1179
sS'GTTTGA'
p2183
I1176
sS'GTTTGG'
p2184
I1464
sS'GTACGA'
p2185
I28
sS'CCGCTC'
p2186
I253
sS'GCATGT'
p2187
I151
sS'TTCGAT'
p2188
I56
sS'CCGCTG'
p2189
I606
sS'TGAAAA'
p2190
I246
sS'GCGCGG'
p2191
I526
sS'GCGCGC'
p2192
I393
sS'ATCAAC'
p2193
I685
sS'GCGCGA'
p2194
I140
sS'GCATGG'
p2195
I296
sS'TGGATC'
p2196
I242
sS'GCATGC'
p2197
I262
sS'CCGCTT'
p2198
I45
sS'GCATGA'
p2199
I234
sS'GTCGAC'
p2200
I198
sS'GCGCGT'
p2201
I60
sS'GTCGAG'
p2202
I384
sS'AGACAT'
p2203
I42
sS'ACCGAG'
p2204
I403
sS'TGCGCT'
p2205
I319
sS'GAGCTC'
p2206
I1955
sS'ATTGAT'
p2207
I58
sS'GAGCTG'
p2208
I5156
sS'AAACGA'
p2209
I109
sS'AAACGC'
p2210
I160
sS'GTAACA'
p2211
I431
sS'GTAGTA'
p2212
I246
sS'AAACGG'
p2213
I179
sS'TGTCCC'
p2214
I839
sS'TGCGCG'
p2215
I731
sS'TGTCCA'
p2216
I655
sS'GAGCTT'
p2217
I377
sS'TGCGCC'
p2218
I975
sS'ATTGAG'
p2219
I341
sS'TGCGCA'
p2220
I945
sS'CACGCA'
p2221
I1006
sS'AAACGT'
p2222
I49
sS'ATTTCG'
p2223
I185
sS'ATTTCA'
p2224
I1050
sS'ATTTCC'
p2225
I1061
sS'ATCAGT'
p2226
I503
sS'ATCGGG'
p2227
I243
sS'CATAGT'
p2228
I373
sS'AAATCA'
p2229
I451
sS'ATCGGC'
p2230
I160
sS'ATCGGA'
p2231
I143
sS'TGGGTG'
p2232
I1233
sS'CGATCA'
p2233
I51
sS'TGGGTC'
p2234
I250
sS'TGGGTA'
p2235
I471
sS'CATAGG'
p2236
I790
sS'ATCGGT'
p2237
I41
sS'ATCAGG'
p2238
I1532
sS'ATCAGA'
p2239
I1288
sS'CATAGA'
p2240
I758
sS'ACGGGT'
p2241
I24
sS'CCTGGT'
p2242
I211
sS'GATTCT'
p2243
I1003
sS'CTTTTG'
p2244
I3679
sS'TACTAG'
p2245
I1160
sS'CTTTTC'
p2246
I2285
sS'CTTTTA'
p2247
I3121
sS'GATTCC'
p2248
I1957
sS'GATTCA'
p2249
I2482
sS'GATTCG'
p2250
I546
sS'ACGGGC'
p2251
I116
sS'TACTAT'
p2252
I558
sS'CTTTTT'
p2253
I614
sS'ACCAAC'
p2254
I707
sS'CGTAGA'
p2255
I225
sS'TCACGA'
p2256
I42
sS'TCACGC'
p2257
I79
sS'CGATTG'
p2258
I215
sS'TCACGG'
p2259
I93
sS'TCTCAT'
p2260
I145
sS'TCACGT'
p2261
I40
sS'TTCCAC'
p2262
I1496
sS'TTCCAA'
p2263
I1391
sS'TTCCAG'
p2264
I2409
sS'ACCCTT'
p2265
I224
sS'TGAAGT'
p2266
I214
sS'AAACAA'
p2267
I445
sS'CCACAT'
p2268
I30
sS'AGGCAC'
p2269
I544
sS'TTCCAT'
p2270
I418
sS'TGAAGC'
p2271
I355
sS'ACCCTC'
p2272
I1103
sS'TGAAGG'
p2273
I591
sS'ACCCTG'
p2274
I2579
sS'CTGACT'
p2275
I532
sS'ATAATC'
p2276
I120
sS'CCCCTT'
p2277
I418
sS'AGTTAT'
p2278
I254
sS'ACATAT'
p2279
I54
sS'CTGACG'
p2280
I327
sS'CTGACC'
p2281
I935
sS'CTGACA'
p2282
I827
sS'AGTTAA'
p2283
I975
sS'CCCCTG'
p2284
I3188
sS'AGTTAC'
p2285
I675
sS'CCCCTC'
p2286
I2249
sS'AGTTAG'
p2287
I774
sS'CCCCTA'
p2288
I1382
sS'ACACAG'
p2289
I192
sS'ACACAA'
p2290
I111
sS'ACACAC'
p2291
I145
sS'AATGTT'
p2292
I269
sS'CTGCAG'
p2293
I1462
sS'CATGGG'
p2294
I949
sS'CTGCAC'
p2295
I799
sS'CTGCAA'
p2296
I592
sS'AATGTC'
p2297
I753
sS'ACACAT'
p2298
I36
sS'AATGTA'
p2299
I1370
sS'AATGTG'
p2300
I2400
sS'CATGGT'
p2301
I288
sS'GCACAA'
p2302
I75
sS'GCACAG'
p2303
I145
sS'ACATTT'
p2304
I108
sS'CGAGAT'
p2305
I11
sS'ATTACT'
p2306
I232
sS'CACAAT'
p2307
I461
sS'ACATTG'
p2308
I536
sS'GTACCA'
p2309
I123
sS'ACATTA'
p2310
I410
sS'ACATTC'
p2311
I270
sS'ATTACA'
p2312
I800
sS'ATGCTC'
p2313
I666
sS'GTTCGC'
p2314
I289
sS'CGAGAC'
p2315
I75
sS'GTTCGG'
p2316
I357
sS'AAGTCT'
p2317
I536
sS'ACCCTA'
p2318
I992
sS'GCTATT'
p2319
I88
sS'GGACAT'
p2320
I14
sS'CAGCGT'
p2321
I155
sS'GCTATA'
p2322
I345
sS'GCTATC'
p2323
I190
sS'AAGTCG'
p2324
I296
sS'AAGTCA'
p2325
I1333
sS'GCTATG'
p2326
I658
sS'AAGTCC'
p2327
I1157
sS'GGACAG'
p2328
I118
sS'GGACAC'
p2329
I65
sS'GGACAA'
p2330
I77
sS'CTAATT'
p2331
I127
sS'AGGGTT'
p2332
I97
sS'GAGGCG'
p2333
I2028
sS'TGTTGG'
p2334
I1511
sS'GAGGCA'
p2335
I2447
sS'TGTTGA'
p2336
I1404
sS'GAGGCC'
p2337
I3095
sS'TGTTGC'
p2338
I1339
sS'ACTCGA'
p2339
I150
sS'TAAAAT'
p2340
I197
sS'ACTCGC'
p2341
I283
sS'AAGCTT'
p2342
I243
sS'ACTCGG'
p2343
I348
sS'AGCGCA'
p2344
I949
sS'GAGGCT'
p2345
I1040
sS'AGCGCC'
p2346
I1572
sS'AGGGTG'
p2347
I1482
sS'AGGGTA'
p2348
I454
sS'AGCGCG'
p2349
I1052
sS'AGGGTC'
p2350
I267
sS'TAAAAG'
p2351
I611
sS'ACTCGT'
p2352
I56
sS'TAAAAC'
p2353
I390
sS'TAAAAA'
p2354
I546
sS'CTACTC'
p2355
I212
sS'AGCTGC'
p2356
I4429
sS'ACGTTA'
p2357
I230
sS'AGCTGA'
p2358
I3098
sS'ACGTTG'
p2359
I348
sS'AGCTGG'
p2360
I4852
sS'TAGGGG'
p2361
I790
sS'AGTGCG'
p2362
I397
sS'AGTGCA'
p2363
I755
sS'AGAGTT'
p2364
I46
sS'AGTGCC'
p2365
I687
sS'CCAAAA'
p2366
I125
sS'TAGGGT'
p2367
I168
sS'GCATAG'
p2368
I97
sS'AGCTGT'
p2369
I1618
sS'ACGTTT'
p2370
I54
sS'AGTGCT'
p2371
I323
sS'AGAGTC'
p2372
I166
sS'AGAGTA'
p2373
I310
sS'AGAGTG'
p2374
I635
sS'TAACCC'
p2375
I164
sS'GTTAAA'
p2376
I662
sS'CCTGGC'
p2377
I822
sS'GTTAAC'
p2378
I458
sS'CCTGGA'
p2379
I672
sS'CCTGGG'
p2380
I1450
sS'GTTAAG'
p2381
I756
sS'TTCGTC'
p2382
I324
sS'CTAATC'
p2383
I187
sS'GTCTGG'
p2384
I3737
sS'GTCTGC'
p2385
I2789
sS'GTTAAT'
p2386
I209
sS'GTCTGA'
p2387
I2614
sS'CCGGTC'
p2388
I111
sS'GGAAGG'
p2389
I1198
sS'ATGCTT'
p2390
I223
sS'GGAAGC'
p2391
I528
sS'CTAATG'
p2392
I651
sS'GGAAGA'
p2393
I600
sS'GCGTTA'
p2394
I263
sS'TCCTCT'
p2395
I1904
sS'GCGTTC'
p2396
I255
sS'CAATGC'
p2397
I236
sS'GCGTTG'
p2398
I496
sS'CAATGG'
p2399
I490
sS'ATGCTG'
p2400
I1841
sS'GGAAGT'
p2401
I237
sS'CCACAC'
p2402
I88
sS'ATGCTA'
p2403
I689
sS'ATTTGT'
p2404
I328
sS'TCCTCG'
p2405
I1260
sS'TGTATG'
p2406
I1001
sS'TCCTCA'
p2407
I3142
sS'TGTATA'
p2408
I748
sS'TCCTCC'
p2409
I5711
sS'TGTATC'
p2410
I368
sS'CGTTAG'
p2411
I297
sS'TAACCG'
p2412
I47
sS'TCATAG'
p2413
I137
sS'TTCGTG'
p2414
I679
sS'CGTTAC'
p2415
I272
sS'TTCGTA'
p2416
I341
sS'CGTTAA'
p2417
I238
sS'TAACCA'
p2418
I214
sS'ACCGCT'
p2419
I151
sS'AACCCA'
p2420
I1351
sS'TCAGGA'
p2421
I192
sS'TTCGTT'
p2422
I109
sS'TACCCT'
p2423
I461
sS'TAACCT'
p2424
I87
sS'GTGAAG'
p2425
I769
sS'GTGAAA'
p2426
I490
sS'GTGAAC'
p2427
I379
sS'CAATAG'
p2428
I188
sS'TGCATA'
p2429
I1366
sS'ACCGCG'
p2430
I412
sS'ACCGCA'
p2431
I434
sS'CCCTAT'
p2432
I242
sS'ACCGCC'
p2433
I875
sS'AGTTCC'
p2434
I1398
sS'CCGCCT'
p2435
I165
sS'AGGCTT'
p2436
I329
sS'CCTTCT'
p2437
I783
sS'CGAGCT'
p2438
I55
sS'GTTGCA'
p2439
I488
sS'AACGAA'
p2440
I377
sS'GTTGCC'
p2441
I580
sS'GTGCCG'
p2442
I596
sS'GTGCCA'
p2443
I1335
sS'GTTGCG'
p2444
I199
sS'GTGCCC'
p2445
I1680
sS'CCGCCG'
p2446
I206
sS'AGGCTA'
p2447
I884
sS'CCTTCC'
p2448
I2328
sS'AGGCTC'
p2449
I1299
sS'CCGCCC'
p2450
I794
sS'AACGAC'
p2451
I312
sS'CCGCCA'
p2452
I251
sS'AGGCTG'
p2453
I3604
sS'GTGCCT'
p2454
I794
sS'TCCAAA'
p2455
I1178
sS'GTTGCT'
p2456
I265
sS'GGATAT'
p2457
I24
sS'TCGGGT'
p2458
I40
sS'AAACCT'
p2459
I68
sS'GCAGTT'
p2460
I58
sS'GAAGCT'
p2461
I334
sS'GGATAA'
p2462
I61
sS'TCGGGA'
p2463
I124
sS'TCGGGG'
p2464
I256
sS'GGATAG'
p2465
I60
sS'GAAGCG'
p2466
I415
sS'GCAGTG'
p2467
I645
sS'GAAGCC'
p2468
I985
sS'GCAGTA'
p2469
I223
sS'GAAGCA'
p2470
I856
sS'GCAGTC'
p2471
I133
sS'CGCCCG'
p2472
I1124
sS'GAGAGA'
p2473
I3033
sS'GAGAGG'
p2474
I4618
sS'CGCCCA'
p2475
I1436
sS'CTACAA'
p2476
I177
sS'GCATTG'
p2477
I656
sS'ACGCAC'
p2478
I98
sS'GCATTA'
p2479
I416
sS'CTCGCA'
p2480
I705
sS'CTCGCC'
p2481
I1501
sS'CTCGCG'
p2482
I826
sS'AAACAT'
p2483
I69
sS'CTATAT'
p2484
I91
sS'AACTGA'
p2485
I2619
sS'GCCGGG'
p2486
I2720
sS'GCCGGC'
p2487
I1314
sS'CATGTT'
p2488
I245
sS'GCCGGA'
p2489
I958
sS'AGAAAC'
p2490
I358
sS'AGTTTA'
p2491
I2092
sS'CGAGCG'
p2492
I76
sS'TACCCA'
p2493
I1079
sS'CATGTA'
p2494
I1105
sS'CATGTC'
p2495
I639
sS'GCCGGT'
p2496
I190
sS'GAGATT'
p2497
I166
sS'CATGTG'
p2498
I2257
sS'GTGCGA'
p2499
I240
sS'TACCCC'
p2500
I780
sS'GTACTC'
p2501
I153
sS'GGCCTG'
p2502
I4684
sS'GGCCTC'
p2503
I2496
sS'GGCCTA'
p2504
I1251
sS'TTTGTT'
p2505
I267
sS'AATCGG'
p2506
I441
sS'AATCGC'
p2507
I431
sS'AATCGA'
p2508
I283
sS'GTTCAG'
p2509
I753
sS'GGCCTT'
p2510
I393
sS'TCACTA'
p2511
I239
sS'CAGCGA'
p2512
I436
sS'AATCGT'
p2513
I141
sS'TGGATT'
p2514
I95
sS'AGCCGA'
p2515
I1065
sS'GAGCGT'
p2516
I306
sS'AGCCGC'
p2517
I2187
sS'TAATTG'
p2518
I770
sS'TAATTA'
p2519
I775
sS'AGCCGG'
p2520
I2245
sS'GTTTTT'
p2521
I406
sS'TGGTGA'
p2522
I814
sS'GGGCTC'
p2523
I950
sS'TGGTGC'
p2524
I647
sS'GATGGC'
p2525
I1032
sS'GGGCTG'
p2526
I2805
sS'TGGTGG'
p2527
I1068
sS'GATGGG'
p2528
I1843
sS'GTTTTC'
p2529
I1598
sS'GAGCGG'
p2530
I1834
sS'GTTTTG'
p2531
I3007
sS'AGCCGT'
p2532
I348
sS'GAGCGC'
p2533
I1491
sS'ATCACA'
p2534
I1473
sS'CCAAGG'
p2535
I476
sS'CTACAT'
p2536
I35
sS'TCTCAG'
p2537
I914
sS'GATGGT'
p2538
I317
sS'TGGTGT'
p2539
I446
sS'GGGCTT'
p2540
I199
sS'ATTCGT'
p2541
I43
sS'AGAACT'
p2542
I200
sS'GCGTTT'
p2543
I70
sS'CCTTCG'
p2544
I582
sS'TACCAT'
p2545
I292
sS'GGACCT'
p2546
I59
sS'CCTATT'
p2547
I114
sS'ACCCGG'
p2548
I872
sS'ACCCGA'
p2549
I377
sS'ATGTCT'
p2550
I346
sS'ACCCGC'
p2551
I770
sS'AGATAA'
p2552
I179
sS'TACCAC'
p2553
I889
sS'AGAACG'
p2554
I158
sS'TACCAA'
p2555
I873
sS'ATTGCC'
p2556
I275
sS'TACCAG'
p2557
I1111
sS'AGAACC'
p2558
I411
sS'ACCAGC'
p2559
I1423
sS'CACTGG'
p2560
I3958
sS'ACCAGA'
p2561
I1152
sS'TGACAA'
p2562
I116
sS'ACCAGG'
p2563
I1954
sS'CACTGC'
p2564
I4650
sS'CCTATC'
p2565
I268
sS'CACTGA'
p2566
I3266
sS'GAGTCA'
p2567
I3922
sS'TAGGTT'
p2568
I84
sS'GTTTAC'
p2569
I697
sS'CGTTAT'
p2570
I84
sS'CTGTTG'
p2571
I2328
sS'GTAACC'
p2572
I361
sS'CTGTTC'
p2573
I1155
sS'CGGGTT'
p2574
I42
sS'CTGTTA'
p2575
I1488
sS'AATTAC'
p2576
I905
sS'TAGGTG'
p2577
I1005
sS'AATTAG'
p2578
I1034
sS'TAGGTC'
p2579
I353
sS'CGGGTC'
p2580
I173
sS'CTGTTT'
p2581
I493
sS'CGGGTA'
p2582
I209
sS'CGGGTG'
p2583
I516
sS'CCAAAC'
p2584
I140
sS'ATTGTT'
p2585
I91
sS'CACACT'
p2586
I1264
sS'CATTAC'
p2587
I1041
sS'GCAATG'
p2588
I458
sS'TTAGGG'
p2589
I268
sS'ATATAT'
p2590
I112
sS'AGCAAC'
p2591
I1571
sS'TTAGGC'
p2592
I135
sS'AAAGCT'
p2593
I213
sS'AGCAAG'
p2594
I2469
sS'CATGCA'
p2595
I973
sS'AAAGCA'
p2596
I712
sS'AAAGCC'
p2597
I603
sS'TTAGGT'
p2598
I73
sS'ATATAA'
p2599
I180
sS'AGCAAT'
p2600
I557
sS'AAAGCG'
p2601
I207
sS'TACTTC'
p2602
I2786
sS'TACTTA'
p2603
I3414
sS'TACTTG'
p2604
I3831
sS'ATAGCG'
p2605
I44
sS'CAGCAT'
p2606
I143
sS'CAGCGC'
p2607
I756
sS'ATAGCT'
p2608
I73
sS'TACTTT'
p2609
I1293
sS'GGGTAA'
p2610
I227
sS'CTTCGA'
p2611
I253
sS'CGAGTT'
p2612
I19
sS'TCCAAT'
p2613
I429
sS'CGTACT'
p2614
I89
sS'TCCCGT'
p2615
I240
sS'TATGCT'
p2616
I286
sS'CTTAAG'
p2617
I732
sS'ACATAA'
p2618
I125
sS'CTTAAA'
p2619
I851
sS'ACATAG'
p2620
I86
sS'CTTAAC'
p2621
I562
sS'TCCAAG'
p2622
I1572
sS'CGAGTG'
p2623
I188
sS'TTGTTA'
p2624
I1366
sS'TCCAAC'
p2625
I985
sS'CGTACG'
p2626
I97
sS'AGGGGA'
p2627
I719
sS'CTTAAT'
p2628
I215
sS'AGGGGC'
p2629
I729
sS'TATGCA'
p2630
I807
sS'AGGGGG'
p2631
I940
sS'CGTTTG'
p2632
I1077
sS'CGACTT'
p2633
I12
sS'TGAATT'
p2634
I65
sS'TTGTAA'
p2635
I417
sS'CACAAA'
p2636
I1900
sS'TTGTAC'
p2637
I275
sS'GTACCT'
p2638
I79
sS'TTGTAG'
p2639
I486
sS'TGAATC'
p2640
I228
sS'CGACTA'
p2641
I52
sS'TGAATA'
p2642
I426
sS'GGATAC'
p2643
I43
sS'TGAATG'
p2644
I769
sS'AAGTAT'
p2645
I151
sS'CGACTG'
p2646
I100
sS'TTGTAT'
p2647
I173
sS'ATCGTG'
p2648
I433
sS'GCTTCG'
p2649
I480
sS'ATCGTC'
p2650
I158
sS'GCTTCC'
p2651
I1879
sS'TGGGAG'
p2652
I720
sS'TGGGAA'
p2653
I390
sS'TGGGAC'
p2654
I310
sS'GCTTCT'
p2655
I636
sS'ATCGTT'
p2656
I40
sS'ACAACG'
p2657
I74
sS'TGGGAT'
p2658
I80
sS'ACGCGC'
p2659
I150
sS'CTAGCC'
p2660
I320
sS'GACCAT'
p2661
I309
sS'CTAGCG'
p2662
I123
sS'CGGTAG'
p2663
I127
sS'ACTTAG'
p2664
I557
sS'ACTTAA'
p2665
I644
sS'CGGTAC'
p2666
I78
sS'ACTTAC'
p2667
I330
sS'CGGTAA'
p2668
I84
sS'GACCAG'
p2669
I2265
sS'GACCAC'
p2670
I1474
sS'CTAGCT'
p2671
I150
sS'CCCGTC'
p2672
I567
sS'TACACC'
p2673
I1179
sS'CGGTAT'
p2674
I26
sS'TACACA'
p2675
I2149
sS'TACACG'
p2676
I530
sS'GCGAGA'
p2677
I210
sS'GAGAGC'
p2678
I2109
sS'GCGAGC'
p2679
I289
sS'GGCCGT'
p2680
I314
sS'GCGAGG'
p2681
I640
sS'TTAAGA'
p2682
I499
sS'CAGCCG'
p2683
I447
sS'CAGCCA'
p2684
I1210
sS'CAGCCC'
p2685
I1515
sS'GCGAGT'
p2686
I80
sS'CTCGCT'
p2687
I495
sS'GAACTC'
p2688
I314
sS'GAACTA'
p2689
I458
sS'GGACTT'
p2690
I24
sS'CACCTA'
p2691
I2124
sS'AACTAT'
p2692
I477
sS'CACCTC'
p2693
I2770
sS'CACCTG'
p2694
I5112
sS'TGATCC'
p2695
I168
sS'AACACT'
p2696
I1056
sS'TGATCA'
p2697
I202
sS'ATTTAA'
p2698
I873
sS'AACTAG'
p2699
I1326
sS'GGACTG'
p2700
I297
sS'CACCTT'
p2701
I599
sS'AACTAC'
p2702
I1380
sS'AATTGG'
p2703
I1167
sS'AACGAT'
p2704
I66
sS'AACACG'
p2705
I712
sS'AACACA'
p2706
I2694
sS'AACACC'
p2707
I1779
sS'TGATCT'
p2708
I101
sS'TGTAAT'
p2709
I352
sS'GCATTC'
p2710
I323
sS'CAACAG'
p2711
I158
sS'GACAGT'
p2712
I1435
sS'CAACAA'
p2713
I143
sS'AAAGAA'
p2714
I486
sS'CAACAC'
p2715
I90
sS'GCTGAT'
p2716
I113
sS'CTATAA'
p2717
I203
sS'GACAGG'
p2718
I4820
sS'AAAGAG'
p2719
I589
sS'GACAGC'
p2720
I3459
sS'GACAGA'
p2721
I3684
sS'GTATTA'
p2722
I817
sS'GTATTC'
p2723
I325
sS'GTAAGT'
p2724
I194
sS'CCAGCG'
p2725
I150
sS'GTATTG'
p2726
I850
sS'GGTGGC'
p2727
I766
sS'TCCCCT'
p2728
I598
sS'GGTGGA'
p2729
I757
sS'TATCTT'
p2730
I353
sS'GGTGGG'
p2731
I1606
sS'AGAGGC'
p2732
I318
sS'GTAAGA'
p2733
I428
sS'AGAGGA'
p2734
I404
sS'CGCCCT'
p2735
I670
sS'AGAGGG'
p2736
I556
sS'GTAAGG'
p2737
I566
sS'TATCTA'
p2738
I1246
sS'CGTCAC'
p2739
I547
sS'TCCCCC'
p2740
I1119
sS'GGTGGT'
p2741
I194
sS'TCCCCA'
p2742
I1489
sS'GTCGCG'
p2743
I490
sS'GTCGCA'
p2744
I466
sS'GTCGCC'
p2745
I892
sS'TCGGTC'
p2746
I73
sS'TCGGTA'
p2747
I94
sS'GAGAGT'
p2748
I739
sS'TCGGTG'
p2749
I233
sS'GTCGCT'
p2750
I314
sS'CCGTCG'
p2751
I112
sS'CCGTCA'
p2752
I208
sS'CCGTCC'
p2753
I398
sS'GGCTGT'
p2754
I1448
sS'CGCGTG'
p2755
I1188
sS'GCATTT'
p2756
I87
sS'CGCGTC'
p2757
I662
sS'CGCGTA'
p2758
I371
sS'ATGCAG'
p2759
I465
sS'ATGCAA'
p2760
I314
sS'ATGCAC'
p2761
I285
sS'CGCGTT'
p2762
I77
sS'GGCTGG'
p2763
I5859
sS'GGCTGA'
p2764
I3070
sS'GGCTGC'
p2765
I4750
sS'ATGCAT'
p2766
I94
sS'TTTAGA'
p2767
I831
sS'ATGACG'
p2768
I184
sS'GGAGTT'
p2769
I37
sS'ATGACA'
p2770
I575
sS'ATGACC'
p2771
I371
sS'CCTGAT'
p2772
I88
sS'GGGCCT'
p2773
I358
sS'ATGACT'
p2774
I387
sS'GGAGTA'
p2775
I171
sS'CTACGC'
p2776
I97
sS'GGAGTC'
p2777
I140
sS'GGAGTG'
p2778
I442
sS'GGGCCG'
p2779
I524
sS'GGGCCC'
p2780
I855
sS'GGGCCA'
p2781
I680
sS'CTGATC'
p2782
I251
sS'ACGAGT'
p2783
I28
sS'AGGCCA'
p2784
I920
sS'AGGCCC'
p2785
I1173
sS'AGGCCG'
p2786
I534
sS'ACGAGG'
p2787
I223
sS'ACGAGC'
p2788
I100
sS'ACGAGA'
p2789
I94
sS'CTGATG'
p2790
I1126
sS'AGGCCT'
p2791
I456
sS'AGACGG'
p2792
I128
sS'GGGTTG'
p2793
I1301
sS'GACTAC'
p2794
I1826
sS'GGGTTA'
p2795
I755
sS'CTCGGG'
p2796
I1436
sS'GGGTTC'
p2797
I443
sS'TTTGAT'
p2798
I151
sS'ATTCGA'
p2799
I124
sS'CTACGA'
p2800
I71
sS'AACGGT'
p2801
I150
sS'GGGTTT'
p2802
I164
sS'TGCGAC'
p2803
I308
sS'AGAAAT'
p2804
I146
sS'TGCGAG'
p2805
I595
sS'AACGGC'
p2806
I493
sS'AGACGC'
p2807
I121
sS'AACGGA'
p2808
I490
sS'TTTGGC'
p2809
I456
sS'AACGGG'
p2810
I712
sS'TTTGAC'
p2811
I454
sS'TTTGAA'
p2812
I717
sS'AAGCAG'
p2813
I1297
sS'CGGGCT'
p2814
I162
sS'TGACGT'
p2815
I32
sS'CTCGTC'
p2816
I508
sS'CCCTGG'
p2817
I4166
sS'CCCTGA'
p2818
I2221
sS'CTCGTG'
p2819
I1044
sS'CCCTGC'
p2820
I4176
sS'CCCTGT'
p2821
I1072
sS'AAGCTC'
p2822
I1018
sS'GATATA'
p2823
I798
sS'AAGCTA'
p2824
I1122
sS'GATATG'
p2825
I1091
sS'AAGCTG'
p2826
I2781
sS'TGACGC'
p2827
I77
sS'TACTCT'
p2828
I1222
sS'CATCGT'
p2829
I128
sS'CAGGGT'
p2830
I249
sS'CTACGG'
p2831
I103
sS'CCAGTC'
p2832
I139
sS'TACGAT'
p2833
I49
sS'CCAGTG'
p2834
I443
sS'TACTCG'
p2835
I631
sS'CATCGA'
p2836
I259
sS'CATCGC'
p2837
I493
sS'TACTCC'
p2838
I1870
sS'NGAATT'
p2839
I1
sS'TACTCA'
p2840
I2944
sS'CATCGG'
p2841
I340
sS'CAGGGG'
p2842
I1197
sS'CAGGGA'
p2843
I1044
sS'CAGGGC'
p2844
I1154
sS'AATCTG'
p2845
I2164
sS'CGGACT'
p2846
I110
sS'AATCTC'
p2847
I1043
sS'AATCTA'
p2848
I1154
sS'TGAACG'
p2849
I74
sS'TCACAC'
p2850
I90
sS'TCACAA'
p2851
I97
sS'TCACAG'
p2852
I170
sS'GCCATA'
p2853
I1040
sS'CGGACG'
p2854
I221
sS'TCCACC'
p2855
I2418
sS'CGGACA'
p2856
I221
sS'CGGACC'
p2857
I365
sS'GCCATG'
p2858
I2516
sS'TTTTAA'
p2859
I1766
sS'CTCGGC'
p2860
I1201
sS'TCACAT'
p2861
I37
sS'TGAACC'
p2862
I294
sS'CACGGA'
p2863
I510
sS'ATTAAA'
p2864
I821
sS'ATTAAG'
p2865
I582
sS'TTTTAC'
p2866
I648
sS'TCACTT'
p2867
I58
sS'ACTCCT'
p2868
I164
sS'TCCACG'
p2869
I693
sS'ATTAAT'
p2870
I159
sS'GAACCA'
p2871
I337
sS'GGTATG'
p2872
I592
sS'GGTATA'
p2873
I335
sS'GGTATC'
p2874
I173
sS'GAACCG'
p2875
I121
sS'CAATGA'
p2876
I384
sS'ACGAAT'
p2877
I16
sS'CTGAAA'
p2878
I467
sS'CTGAAC'
p2879
I380
sS'CTGAAG'
p2880
I775
sS'NNNNGA'
p2881
I1
sS'TAGGTA'
p2882
I596
sS'CATTGC'
p2883
I1603
sS'CCCGGC'
p2884
I1299
sS'CATTGA'
p2885
I1349
sS'CTAGTT'
p2886
I43
sS'CATTGG'
p2887
I2231
sS'TCAACT'
p2888
I107
sS'ACCATC'
p2889
I610
sS'ACACCG'
p2890
I41
sS'CTGCCA'
p2891
I1946
sS'CTGCCC'
p2892
I2999
sS'CTATTC'
p2893
I429
sS'ACACCA'
p2894
I135
sS'CTGCCG'
p2895
I1038
sS'CTAGTG'
p2896
I545
sS'TCAACC'
p2897
I196
sS'ATGTTC'
p2898
I523
sS'CTAGTC'
p2899
I150
sS'TCAACG'
p2900
I41
sS'CTAGTA'
p2901
I260
sS'CATTGT'
p2902
I983
sS'TATGAC'
p2903
I716
sS'ACACCT'
p2904
I65
sS'CTGCCT'
p2905
I1269
sS'CCTCGT'
p2906
I111
sS'TTGTGT'
p2907
I619
sS'AGACTG'
p2908
I454
sS'CGAGGT'
p2909
I48
sS'AGACTA'
p2910
I211
sS'CCTCGG'
p2911
I731
sS'CCTCGC'
p2912
I638
sS'CCCGAC'
p2913
I483
sS'CCTCGA'
p2914
I264
sS'CGAGGA'
p2915
I132
sS'CGAGGC'
p2916
I143
sS'CGAGGG'
p2917
I209
sS'CACCGT'
p2918
I276
sS'ACTTTA'
p2919
I1466
sS'ACTTTG'
p2920
I2324
sS'GACCTG'
p2921
I4719
sS'GACCTA'
p2922
I1832
sS'GACCTC'
p2923
I2435
sS'CACCGG'
p2924
I1095
sS'ACGCTG'
p2925
I378
sS'CACCGA'
p2926
I564
sS'CACCGC'
p2927
I1783
sS'GGACGA'
p2928
I50
sS'CGCCCC'
p2929
I3170
sS'GGACGG'
p2930
I124
sS'ACGCTA'
p2931
I123
sS'CACAGC'
p2932
I3659
sS'CTTATC'
p2933
I400
sS'CACAGA'
p2934
I2981
sS'CTTATA'
p2935
I589
sS'CACAGG'
p2936
I3933
sS'CTTATG'
p2937
I881
sS'ACTCAT'
p2938
I206
sS'GAGGAG'
p2939
I3848
sS'GACGTA'
p2940
I643
sS'CGTATC'
p2941
I111
sS'GACGTC'
p2942
I1159
sS'GAGGAC'
p2943
I1159
sS'GAGGAA'
p2944
I1807
sS'GACGTG'
p2945
I2010
sS'TTAACA'
p2946
I456
sS'ACTCAC'
p2947
I714
sS'TTAACC'
p2948
I375
sS'ACTCAA'
p2949
I499
sS'ACTCAG'
p2950
I1089
sS'CTTATT'
p2951
I197
sS'CACAGT'
p2952
I1372
sS'AGCGAC'
p2953
I520
sS'TAAACA'
p2954
I775
sS'AGCGAA'
p2955
I470
sS'GAGGAT'
p2956
I224
sS'AGCGAG'
p2957
I1106
sS'CCACCG'
p2958
I71
sS'TAAACG'
p2959
I120
sS'CTGTGG'
p2960
I2203
sS'GTATGT'
p2961
I303
sS'AGTTCA'
p2962
I1352
sS'AGTTCG'
p2963
I407
sS'TAGCCC'
p2964
I595
sS'CTGTGA'
p2965
I1405
sS'CGGGGT'
p2966
I130
sS'TAGGAC'
p2967
I385
sS'GCAAAG'
p2968
I294
sS'TAGGAA'
p2969
I523
sS'GCAAAA'
p2970
I187
sS'TAGGAG'
p2971
I718
sS'GCAAAC'
p2972
I157
sS'CGGGGC'
p2973
I667
sS'CGGGGA'
p2974
I398
sS'CTGTGT'
p2975
I981
sS'CGGGGG'
p2976
I523
sS'GTATGC'
p2977
I251
sS'AGTGGA'
p2978
I628
sS'GCAAAT'
p2979
I54
sS'CGAGAA'
p2980
I57
sS'TAGGAT'
p2981
I86
sS'AAAAAT'
p2982
I131
sS'TTCAAT'
p2983
I511
sS'TGCTTT'
p2984
I1526
sS'TTATAT'
p2985
I121
sS'GTAATT'
p2986
I99
sS'GTTACC'
p2987
I552
sS'GTTACA'
p2988
I597
sS'TAATTC'
p2989
I333
sS'TATCGA'
p2990
I162
sS'TATCGC'
p2991
I248
sS'TATAGT'
p2992
I376
sS'GTCTAA'
p2993
I1209
sS'AGGACG'
p2994
I459
sS'TTCAAG'
p2995
I2158
sS'TGCTTC'
p2996
I4064
sS'TTCAAA'
p2997
I2453
sS'GTCTAG'
p2998
I1356
sS'TGCTTG'
p2999
I5339
sS'TATAGC'
p3000
I535
sS'TATCGT'
p3001
I84
sS'TATAGA'
p3002
I765
sS'AGTGGG'
p3003
I1113
sS'TATAGG'
p3004
I803
sS'GTTACT'
p3005
I318
sS'GCTCTC'
p3006
I969
sS'GGAAAC'
p3007
I279
sS'GGGCTA'
p3008
I662
sS'GCTCTG'
p3009
I2954
sS'CCACGT'
p3010
I40
sS'GGCGTT'
p3011
I131
sS'CAGGAG'
p3012
I1057
sS'CGATCC'
p3013
I90
sS'GAATGG'
p3014
I795
sS'GGCTTT'
p3015
I1035
sS'ACTACT'
p3016
I180
sS'GAATGC'
p3017
I597
sS'CCACGA'
p3018
I55
sS'AACCTG'
p3019
I3411
sS'CCACGC'
p3020
I110
sS'GGCGTA'
p3021
I440
sS'GTTCCG'
p3022
I278
sS'AACCTC'
p3023
I1873
sS'CCACGG'
p3024
I98
sS'AACCTA'
p3025
I1644
sS'GAATGT'
p3026
I314
sS'ACTACC'
p3027
I279
sS'GGCTTC'
p3028
I3812
sS'ACTACA'
p3029
I551
sS'ACTACG'
p3030
I123
sS'GGCTTG'
p3031
I4974
sS'TCCTAG'
p3032
I1567
sS'AGTCAG'
p3033
I1693
sS'CGTTGC'
p3034
I571
sS'TAACAC'
p3035
I152
sS'TCCTAC'
p3036
I1060
sS'AGTCAC'
p3037
I1556
sS'TCCTAA'
p3038
I1359
sS'TAACAG'
p3039
I236
sS'TCATCG'
p3040
I67
sS'AAGCGT'
p3041
I184
sS'TCATCC'
p3042
I374
sS'GTTTTA'
p3043
I2464
sS'CTTTCT'
p3044
I1088
sS'AGTCAT'
p3045
I428
sS'TCCTAT'
p3046
I359
sS'TAACAT'
p3047
I57
sS'CGTTGT'
p3048
I199
sS'CTTTCC'
p3049
I2471
sS'TCCCTT'
p3050
I621
sS'CTTTCA'
p3051
I1918
sS'CTTTCG'
p3052
I530
sS'AAGTAA'
p3053
I611
sS'AAAAAG'
p3054
I645
sS'GTTGAT'
p3055
I84
sS'CGACCA'
p3056
I30
sS'CGACCC'
p3057
I48
sS'CGACCG'
p3058
I22
sS'CCTTAT'
p3059
I201
sS'GTTGAC'
p3060
I352
sS'GTTGAA'
p3061
I388
sS'GTTGAG'
p3062
I565
sS'CCTTAC'
p3063
I406
sS'CCTTAA'
p3064
I661
sS'CCTTAG'
p3065
I785
sS'CGACCT'
p3066
I21
sS'AATAGA'
p3067
I994
sS'AATAGC'
p3068
I829
sS'CAACTG'
p3069
I363
sS'AATAGG'
p3070
I1055
sS'TCTCAA'
p3071
I587
sS'GGGGTT'
p3072
I67
sS'GGATGT'
p3073
I107
sS'AATAGT'
p3074
I420
sS'TCTCAC'
p3075
I553
sS'CAACTT'
p3076
I28
sS'GGGGTG'
p3077
I1181
sS'GGATGA'
p3078
I189
sS'GGGGTC'
p3079
I180
sS'GGGGTA'
p3080
I298
sS'TCTCCG'
p3081
I276
sS'GAGTCC'
p3082
I2054
sS'AAACTG'
p3083
I648
sS'TCTCCC'
p3084
I704
sS'GAGTCG'
p3085
I741
sS'TCTCCA'
p3086
I597
sS'AAACTC'
p3087
I239
sS'CTATGA'
p3088
I414
sS'AGTACG'
p3089
I171
sS'CTATGC'
p3090
I354
sS'AGTACC'
p3091
I445
sS'CTATGG'
p3092
I494
sS'AGTACA'
p3093
I624
sS'CCCTTA'
p3094
I2649
sS'CCCTTC'
p3095
I3976
sS'TCTCCT'
p3096
I279
sS'CCCTTG'
p3097
I4694
sS'AGCAAA'
p3098
I2025
sS'AGTACT'
p3099
I303
sS'ACGCGT'
p3100
I23
sS'GCCGAA'
p3101
I350
sS'GTGGAG'
p3102
I894
sS'GCCGAC'
p3103
I599
sS'GTGGAC'
p3104
I283
sS'GCCGAG'
p3105
I1415
sS'GTGGAA'
p3106
I428
sS'GGGTGA'
p3107
I701
sS'TATCAT'
p3108
I259
sS'GTGGAT'
p3109
I75
sS'GCCGAT'
p3110
I59
sS'AGATAG'
p3111
I123
sS'TATCTG'
p3112
I2142
sS'CACTGT'
p3113
I1793
sS'GTAGTC'
p3114
I171
sS'AAATCG'
p3115
I88
sS'CACGCG'
p3116
I643
sS'TTATCG'
p3117
I79
sS'GTAGTG'
p3118
I451
sS'AAATCC'
p3119
I381
sS'CACGCC'
p3120
I1579
sS'ATTAGT'
p3121
I201
sS'CTACGT'
p3122
I30
sS'AGATAC'
p3123
I91
sS'TCCCGA'
p3124
I602
sS'CACGCT'
p3125
I371
sS'AAATCT'
p3126
I166
sS'AAAGTC'
p3127
I235
sS'GTAGTT'
p3128
I60
sS'ACCAGT'
p3129
I421
sS'GATGAT'
p3130
I311
sS'GGAGCA'
p3131
I300
sS'GGAGCC'
p3132
I451
sS'AAAGTG'
p3133
I799
sS'CCAAAT'
p3134
I56
sS'GGAGCG'
p3135
I162
sS'AAAACT'
p3136
I219
sS'GATGAC'
p3137
I1496
sS'GATGAA'
p3138
I1208
sS'GCTCTT'
p3139
I193
sS'GATGAG'
p3140
I1882
sS'AAAACC'
p3141
I461
sS'AGAACA'
p3142
I561
sS'AAAACA'
p3143
I935
sS'AAAACG'
p3144
I145
sS'GGAGCT'
p3145
I157
sS'CCAAAG'
p3146
I240
sS'TCGCGG'
p3147
I187
sS'CGGTCC'
p3148
I465
sS'TCGCGC'
p3149
I128
sS'TCGCGA'
p3150
I75
sS'GCCACA'
p3151
I2324
sS'AGATCA'
p3152
I257
sS'GCCACC'
p3153
I2623
sS'AGATCC'
p3154
I241
sS'GCGCTT'
p3155
I58
sS'GCCACG'
p3156
I1088
sS'AGATCG'
p3157
I78
sS'ATGTCA'
p3158
I861
sS'TCGCGT'
p3159
I27
sS'GTGCAA'
p3160
I438
sS'ACCCGT'
p3161
I87
sS'AGAAAG'
p3162
I664
sS'TACCCG'
p3163
I372
sS'AGATCT'
p3164
I105
sS'GCCACT'
p3165
I1049
sS'AGAAAA'
p3166
I468
sS'CTACCC'
p3167
I258
sS'ATGTAC'
p3168
I196
sS'ACTTCG'
p3169
I254
sS'ATGTAA'
p3170
I303
sS'ATGTAG'
p3171
I272
sS'GTTCGA'
p3172
I200
sS'CTACCA'
p3173
I244
sS'ATTAGG'
p3174
I446
sS'CCCAAG'
p3175
I1515
sS'ATGTCG'
p3176
I132
sS'ATGTAT'
p3177
I113
sS'ATTAGA'
p3178
I463
sS'ATTAGC'
p3179
I370
sS'ATCCAT'
p3180
I133
sS'AGCACT'
p3181
I1213
sS'TTAGAA'
p3182
I147
sS'CGGCTG'
p3183
I1270
sS'TTAGAC'
p3184
I85
sS'CGGCTC'
p3185
I709
sS'TTAGAG'
p3186
I166
sS'CGGCTA'
p3187
I302
sS'AGCACC'
p3188
I2161
sS'AGCACA'
p3189
I2334
sS'AGCACG'
p3190
I881
sS'GCATAT'
p3191
I36
sS'TTAGAT'
p3192
I49
sS'CCAGCA'
p3193
I365
sS'ACCTAT'
p3194
I215
sS'CCAGCC'
p3195
I462
sS'ATATCC'
p3196
I286
sS'ATATCA'
p3197
I335
sS'CGACGT'
p3198
I18
sS'TTATTT'
p3199
I239
sS'TGTGAG'
p3200
I1256
sS'AATTAT'
p3201
I369
sS'TGTGAA'
p3202
I723
sS'ACGTCT'
p3203
I77
sS'TGTGAC'
p3204
I913
sS'ATATCT'
p3205
I171
sS'CCAGCT'
p3206
I141
sS'CACGGT'
p3207
I175
sS'AAAGAT'
p3208
I76
sS'TGTGAT'
p3209
I167
sS'TTATTG'
p3210
I1081
sS'TTATTA'
p3211
I1073
sS'CATGAT'
p3212
I167
sS'TTATTC'
p3213
I389
sS'ACATCT'
p3214
I119
sS'TTTTAT'
p3215
I366
sS'GCGAAC'
p3216
I97
sS'TACAAG'
p3217
I1662
sS'TCCACT'
p3218
I952
sS'TACAAA'
p3219
I2065
sS'AGACGA'
p3220
I89
sS'TACAAC'
p3221
I1101
sS'CCTCTG'
p3222
I2896
sS'AGGTGG'
p3223
I1545
sS'CCTCTC'
p3224
I1336
sS'AGGTGC'
p3225
I725
sS'CCTCTA'
p3226
I1160
sS'AGGTGA'
p3227
I905
sS'CTTACG'
p3228
I204
sS'TCCACA'
p3229
I1794
sS'TTTTAG'
p3230
I932
sS'ACATCG'
p3231
I44
sS'CTTACC'
p3232
I677
sS'ACATCA'
p3233
I287
sS'CTTACA'
p3234
I647
sS'ACATCC'
p3235
I247
sS'AGGTGT'
p3236
I443
sS'CCTCTT'
p3237
I238
sS'CGTCGG'
p3238
I486
sS'TATGAG'
p3239
I928
sS'CCCGGA'
p3240
I787
sS'CCCGGG'
p3241
I1762
sS'TATGAA'
p3242
I694
sS'TGGAAT'
p3243
I223
sS'AATTAA'
p3244
I1333
sS'TTGTGC'
p3245
I687
sS'TATGAT'
p3246
I206
sS'TTGTGG'
p3247
I1269
sS'CCCGGT'
p3248
I160
sS'TGGAAG'
p3249
I937
sS'GGTTTT'
p3250
I287
sS'TGGAAC'
p3251
I406
sS'TGGAAA'
p3252
I529
sS'TGAGGA'
p3253
I244
sS'AAGAGG'
p3254
I2500
sS'TGAGGC'
p3255
I231
sS'AAGAGA'
p3256
I1652
sS'AAGAGC'
p3257
I1237
sS'TGAGGG'
p3258
I324
sS'GCTTAG'
p3259
I708
sS'GCTTAC'
p3260
I347
sS'GCTTAA'
p3261
I542
sS'TCTGAT'
p3262
I106
sS'AAGCGC'
p3263
I578
sS'AAGAGT'
p3264
I489
sS'AAGCGA'
p3265
I417
sS'TGAGGT'
p3266
I89
sS'GCTTAT'
p3267
I124
sS'CTGCTA'
p3268
I1355
sS'GCGTGT'
p3269
I143
sS'CTGCTC'
p3270
I2300
sS'ACTTCT'
p3271
I335
sS'CCGCAA'
p3272
I53
sS'GACCGT'
p3273
I341
sS'CTGCTG'
p3274
I5175
sS'CGGTCA'
p3275
I251
sS'GGTCGT'
p3276
I95
sS'CTAGAG'
p3277
I245
sS'CTAGAA'
p3278
I161
sS'GAAAGT'
p3279
I365
sS'GACCGA'
p3280
I814
sS'GACCGC'
p3281
I1556
sS'ACTTCC'
p3282
I1344
sS'CTGCTT'
p3283
I589
sS'GACCGG'
p3284
I1601
sS'TCGGAA'
p3285
I62
sS'CTAGAT'
p3286
I46
sS'GGTCGG'
p3287
I576
sS'CGGTCT'
p3288
I132
sS'GGTCGC'
p3289
I504
sS'GGTCGA'
p3290
I223
sS'CGTCGC'
p3291
I509
sS'GCGTGG'
p3292
I556
sS'GCGTGA'
p3293
I247
sS'GCGTGC'
p3294
I328
sS'TGCTCA'
p3295
I3020
sS'TTCATC'
p3296
I1499
sS'TGCTCC'
p3297
I3265
sS'TTCATA'
p3298
I2150
sS'TTCATG'
p3299
I3159
sS'TGCTCG'
p3300
I954
sS'GTACAA'
p3301
I87
sS'CAGCAG'
p3302
I1247
sS'TACACT'
p3303
I871
sS'GCGGCT'
p3304
I129
sS'CAGCAC'
p3305
I665
sS'CAGCAA'
p3306
I644
sS'CCACAG'
p3307
I142
sS'TGCTCT'
p3308
I1734
sS'TTCATT'
p3309
I853
sS'GTAGCC'
p3310
I264
sS'TGGCCG'
p3311
I393
sS'GCTGCA'
p3312
I958
sS'AACTCT'
p3313
I1251
sS'TGGCCC'
p3314
I944
sS'TGGCCA'
p3315
I855
sS'GTAGCA'
p3316
I269
sS'AACTCA'
p3317
I2593
sS'TGGCCT'
p3318
I360
sS'AACTCC'
p3319
I2760
sS'GCTGCT'
p3320
I349
sS'AACTCG'
p3321
I764
sS'TGAAGA'
p3322
I429
sS'AATATT'
p3323
I235
sS'CAACCT'
p3324
I78
sS'CAGTTA'
p3325
I1283
sS'GCTGCC'
p3326
I1001
sS'GGCACG'
p3327
I733
sS'GGCACA'
p3328
I1621
sS'GACAAT'
p3329
I644
sS'GGCACC'
p3330
I1783
sS'CAACCG'
p3331
I47
sS'ACGACC'
p3332
I88
sS'AATATG'
p3333
I1268
sS'CGGTCG'
p3334
I157
sS'AATATA'
p3335
I1058
sS'TTAGGA'
p3336
I218
sS'AATATC'
p3337
I462
sS'CTTCGT'
p3338
I115
sS'GACAAA'
p3339
I2554
sS'GGCACT'
p3340
I869
sS'GACAAC'
p3341
I1592
sS'CAGAAC'
p3342
I641
sS'GACAAG'
p3343
I2546
sS'GCTGCG'
p3344
I582
sS'GCTTTT'
p3345
I391
sS'GCAATA'
p3346
I251
sS'GAATTT'
p3347
I115
sS'TTGAAC'
p3348
I349
sS'CGATGG'
p3349
I87
sS'TCCCAT'
p3350
I229
sS'CGATGC'
p3351
I56
sS'GTAAAT'
p3352
I124
sS'CGATGA'
p3353
I58
sS'GAATTA'
p3354
I770
sS'GAATTC'
p3355
I460
sS'GAATTG'
p3356
I803
sS'TCCCAA'
p3357
I903
sS'CGATGT'
p3358
I35
sS'TCCCAC'
p3359
I1159
sS'GTAAAG'
p3360
I320
sS'TCCCAG'
p3361
I2081
sS'GGATTT'
p3362
I56
sS'GTGCGT'
p3363
I144
sS'CTATCG'
p3364
I98
sS'GGATTC'
p3365
I154
sS'GGATTA'
p3366
I449
sS'GGATTG'
p3367
I431
sS'ACCTCT'
p3368
I847
sS'CTATCA'
p3369
I469
sS'ATATAG'
p3370
I128
sS'TCTGTG'
p3371
I2123
sS'TCTGTC'
p3372
I645
sS'TCTGTA'
p3373
I990
sS'GGCGGC'
p3374
I1614
sS'CTCCTT'
p3375
I1192
sS'GGCGGA'
p3376
I1285
sS'GGCGGG'
p3377
I4248
sS'AACCGA'
p3378
I511
sS'CTATCC'
p3379
I446
sS'TCTGTT'
p3380
I143
sS'ATATAC'
p3381
I101
sS'CTCCTG'
p3382
I7529
sS'AACCGT'
p3383
I197
sS'CTCCTA'
p3384
I2740
sS'CTCCTC'
p3385
I5476
sS'GGCGGT'
p3386
I317
sS'AACAAG'
p3387
I2164
sS'GACGCC'
p3388
I1936
sS'CCCACA'
p3389
I1968
sS'GACGCG'
p3390
I1294
sS'ATAGCA'
p3391
I178
sS'AGCCTT'
p3392
I690
sS'CCGATT'
p3393
I27
sS'CCCACT'
p3394
I928
sS'AACAAT'
p3395
I654
sS'GACGCT'
p3396
I695
sS'AGCGGT'
p3397
I185
sS'CCGATA'
p3398
I54
sS'AGCCTG'
p3399
I6123
sS'AGCCTA'
p3400
I1853
sS'CCGATG'
p3401
I141
sS'GTACCC'
p3402
I123
sS'TGGTTG'
p3403
I1395
sS'TAGGCT'
p3404
I249
sS'TGGTTA'
p3405
I995
sS'CGCCTT'
p3406
I380
sS'TGGTTC'
p3407
I626
sS'CAGAGT'
p3408
I479
sS'CAGTCA'
p3409
I1367
sS'ACCTCG'
p3410
I746
sS'GAGTTG'
p3411
I2517
sS'CGCCTC'
p3412
I2975
sS'GCGCCA'
p3413
I248
sS'CGCCTA'
p3414
I1025
sS'GAGTTC'
p3415
I1279
sS'CGCCTG'
p3416
I3431
sS'CAATTG'
p3417
I438
sS'CAGAGG'
p3418
I2338
sS'GCATCC'
p3419
I278
sS'GTGCGG'
p3420
I636
sS'CAGAGC'
p3421
I1529
sS'AAAATT'
p3422
I71
sS'CAGAGA'
p3423
I1495
sS'TAGCTA'
p3424
I780
sS'CCGATC'
p3425
I47
sS'AGACTC'
p3426
I183
sS'CCTAGA'
p3427
I506
sS'CCTAGC'
p3428
I457
sS'TTTGCT'
p3429
I293
sS'TAGCTC'
p3430
I678
sS'TGCGGT'
p3431
I218
sS'CCTAGG'
p3432
I750
sS'TAAGCA'
p3433
I377
sS'TGCGGC'
p3434
I821
sS'TGCGGA'
p3435
I507
sS'CCTAGT'
p3436
I214
sS'TGCGGG'
p3437
I1079
sS'TTTGCG'
p3438
I216
sS'TGAGTT'
p3439
I48
sS'CGGGAC'
p3440
I264
sS'ATCGCT'
p3441
I105
sS'ATCGCC'
p3442
I320
sS'TGAGTG'
p3443
I537
sS'ATCGCA'
p3444
I236
sS'TGAGTA'
p3445
I307
sS'ATCGCG'
p3446
I209
sS'TGAGTC'
p3447
I288
sS'AAGGTG'
p3448
I1685
sS'AAGGTC'
p3449
I487
sS'CATCAT'
p3450
I301
sS'AAGGTA'
p3451
I831
sS'AAGCGG'
p3452
I814
sS'ACGGCA'
p3453
I139
sS'CATCAC'
p3454
I1059
sS'ACGGCC'
p3455
I182
sS'CATCAA'
p3456
I895
sS'CATCAG'
p3457
I1376
sS'ACGGCG'
p3458
I106
sS'TCACCT'
p3459
I87
sS'CGGAAT'
p3460
I50
sS'CAATTC'
p3461
I195
sS'ATCGAT'
p3462
I22
sS'TCACCG'
p3463
I53
sS'TCACCA'
p3464
I154
sS'TCACCC'
p3465
I140
sS'CGGAAG'
p3466
I712
sS'CAACCC'
p3467
I157
sS'CGGCCT'
p3468
I199
sS'CGGAAC'
p3469
I241
sS'CGGAAA'
p3470
I229
sS'TAGCTT'
p3471
I182
sS'ATGGCG'
p3472
I193
sS'TGTGTA'
p3473
I1324
sS'CCGTAG'
p3474
I88
sS'TGTGTG'
p3475
I4187
sS'ATGGCA'
p3476
I532
sS'TTACTT'
p3477
I61
sS'TCGTCC'
p3478
I221
sS'ATGGCT'
p3479
I167
sS'TGTGTT'
p3480
I257
sS'CCAAGT'
p3481
I138
sS'AGATTA'
p3482
I411
sS'GAAACG'
p3483
I309
sS'GAAACA'
p3484
I945
sS'GAAACC'
p3485
I864
sS'AAGATA'
p3486
I789
sS'CTATGT'
p3487
I265
sS'CTGAGT'
p3488
I562
sS'GAAACT'
p3489
I356
sS'AGAATG'
p3490
I838
sS'AGATTT'
p3491
I65
sS'AGAATC'
p3492
I211
sS'CTGAGC'
p3493
I1041
sS'CTGAGA'
p3494
I1004
sS'CTGAGG'
p3495
I1646
sS'CATACC'
p3496
I671
sS'CATACA'
p3497
I806
sS'CATACG'
p3498
I208
sS'GCAATC'
p3499
I116
sS'TCAAAT'
p3500
I80
sS'CGAGCC'
p3501
I174
sS'GTCCAT'
p3502
I240
sS'AGGGGT'
p3503
I176
sS'CATACT'
p3504
I377
sS'AATGGC'
p3505
I768
sS'GTCCAG'
p3506
I1621
sS'CAAGCT'
p3507
I125
sS'TCAAAG'
p3508
I267
sS'GTCCAC'
p3509
I924
sS'GTCCAA'
p3510
I898
sS'CGGCGG'
p3511
I708
sS'TTGATG'
p3512
I846
sS'CTCATT'
p3513
I768
sS'CGGCGC'
p3514
I543
sS'TTGATC'
p3515
I223
sS'CGGCGA'
p3516
I216
sS'TTGATA'
p3517
I503
sS'TTGATT'
p3518
I125
sS'CGGCGT'
p3519
I90
sS'ATGGCC'
p3520
I454
sS'GTACGC'
p3521
I55
sS'ATCGAC'
p3522
I101
sS'CCATTA'
p3523
I403
sS'TGACTT'
p3524
I30
sS'TCGTCT'
p3525
I60
sS'CGGTTA'
p3526
I262
sS'GGTTTA'
p3527
I1452
sS'CGGTTC'
p3528
I279
sS'GGTTTC'
p3529
I1406
sS'CGGTTG'
p3530
I478
sS'GGTTTG'
p3531
I2465
sS'TATAAA'
p3532
I1270
sS'ATCCCA'
p3533
I980
sS'GCTGTG'
p3534
I2382
sS'ACCTAA'
p3535
I842
sS'GCTGTC'
p3536
I566
sS'CGGTTT'
p3537
I54
sS'GCTGTA'
p3538
I875
sS'TATGCG'
p3539
I201
sS'AGGTTG'
p3540
I1439
sS'AGGTTC'
p3541
I561
sS'AGGTTA'
p3542
I917
sS'ATGAAA'
p3543
I469
sS'GAGGGA'
p3544
I2753
sS'TTTTTC'
p3545
I1704
sS'GAGGGC'
p3546
I1974
sS'TTTTTA'
p3547
I3421
sS'TTTTTG'
p3548
I3108
sS'GAGGGG'
p3549
I3783
sS'TTAAAT'
p3550
I174
sS'AGGTTT'
p3551
I225
sS'TAAGCG'
p3552
I105
sS'TATGCC'
p3553
I535
sS'TTAAAC'
p3554
I260
sS'ATACGT'
p3555
I18
sS'TTAAAA'
p3556
I573
sS'ACTCCG'
p3557
I185
sS'TTAAAG'
p3558
I496
sS'GAGGGT'
p3559
I473
sS'TTTTTT'
p3560
I718
sS'ACTCCC'
p3561
I420
sS'CTGTAA'
p3562
I586
sS'GTCACG'
p3563
I1041
sS'CTGTAC'
p3564
I383
sS'GCAACT'
p3565
I110
sS'GTCACC'
p3566
I2663
sS'CTGTAG'
p3567
I583
sS'GTCACA'
p3568
I2508
sS'ACTTAT'
p3569
I128
sS'GCAACG'
p3570
I101
sS'GTCACT'
p3571
I1430
sS'TAGGCG'
p3572
I318
sS'ACGAAA'
p3573
I50
sS'CTGTAT'
p3574
I211
sS'GCAACA'
p3575
I287
sS'TAGGCC'
p3576
I665
sS'ATTCAT'
p3577
I182
sS'GTAAAA'
p3578
I269
sS'GCGATT'
p3579
I18
sS'TCGTGT'
p3580
I60
sS'TTCACT'
p3581
I1239
sS'ACAGAT'
p3582
I28
sS'GTCTCT'
p3583
I1932
sS'AACATT'
p3584
I522
sS'ATTCAG'
p3585
I613
sS'ATTCAA'
p3586
I463
sS'ATTCAC'
p3587
I445
sS'GTCTCC'
p3588
I4095
sS'CCACTA'
p3589
I187
sS'GTCTCA'
p3590
I3237
sS'GCGATG'
p3591
I258
sS'TTCACC'
p3592
I1792
sS'GCGATA'
p3593
I94
sS'TTCACA'
p3594
I2403
sS'GCGATC'
p3595
I59
sS'GAAGGC'
p3596
I737
sS'GAAGGA'
p3597
I991
sS'GAAGGG'
p3598
I1433
sS'CGATTA'
p3599
I64
sS'GGAACC'
p3600
I376
sS'AGACTT'
p3601
I42
sS'GGAACA'
p3602
I337
sS'GGAACG'
p3603
I121
sS'TGACGA'
p3604
I34
sS'ATAGTA'
p3605
I165
sS'TCATAC'
p3606
I72
sS'GAAGGT'
p3607
I190
sS'CAATCG'
p3608
I115
sS'CAATCA'
p3609
I512
sS'GGAACT'
p3610
I192
sS'TCCTGA'
p3611
I2696
sS'AGTCCA'
p3612
I626
sS'TCCTGC'
p3613
I4161
sS'AGTCCC'
p3614
I965
sS'ACTAAA'
p3615
I388
sS'TCCTGG'
p3616
I5050
sS'ACTAAC'
p3617
I293
sS'TAACGC'
p3618
I108
sS'CAGCTG'
p3619
I2832
sS'CAGCTA'
p3620
I1090
sS'CAGCTC'
p3621
I1274
sS'ACTAAT'
p3622
I121
sS'CGACTC'
p3623
I56
sS'AGTCCT'
p3624
I313
sS'TCCTGT'
p3625
I1582
sS'TAATGT'
p3626
I209
sS'CAGCTT'
p3627
I228
sS'TAACGT'
p3628
I31
sS'TTGACC'
p3629
I453
sS'GTACTT'
p3630
I52
sS'CGACAT'
p3631
I7
sS'TTGTTC'
p3632
I966
sS'CCGAGG'
p3633
I457
sS'TTGTTG'
p3634
I1902
sS'AGGAAG'
p3635
I2031
sS'CCGAGC'
p3636
I238
sS'CCGCGT'
p3637
I38
sS'GTACTG'
p3638
I387
sS'CGACAA'
p3639
I13
sS'CGACAG'
p3640
I42
sS'GTACTA'
p3641
I241
sS'CCGCGC'
p3642
I279
sS'GGAGGA'
p3643
I412
sS'CCGCGA'
p3644
I130
sS'CCGCGG'
p3645
I327
sS'TTGTTT'
p3646
I496
sS'TCCGTT'
p3647
I91
sS'AGGAAC'
p3648
I679
sS'AATAAC'
p3649
I838
sS'AATAAA'
p3650
I1825
sS'AATAAG'
p3651
I1244
sS'TACAAT'
p3652
I563
sS'TACTAA'
p3653
I1783
sS'AATAAT'
p3654
I372
sS'ACGGTG'
p3655
I253
sS'CCAACC'
p3656
I371
sS'CTCAGT'
p3657
I1422
sS'CCAACG'
p3658
I85
sS'GGGATT'
p3659
I128
sS'CGCCGC'
p3660
I3446
sS'GTGTAT'
p3661
I217
sS'CGCCGA'
p3662
I769
sS'GAGTAG'
p3663
I945
sS'CGCCGG'
p3664
I2128
sS'GAGTAA'
p3665
I904
sS'AGTAAG'
p3666
I886
sS'CTCAGG'
p3667
I4400
sS'CTCAGC'
p3668
I3765
sS'CTCAGA'
p3669
I2935
sS'GAGTAT'
p3670
I181
sS'TCGAGA'
p3671
I118
sS'GTGTAG'
p3672
I535
sS'TCGAGC'
p3673
I110
sS'GTGTAA'
p3674
I401
sS'GTGTAC'
p3675
I400
sS'CGCCGT'
p3676
I315
sS'GTGGCA'
p3677
I1071
sS'GTGGCC'
p3678
I1369
sS'CTCGGA'
p3679
I635
sS'GTGGCG'
p3680
I519
sS'GCCGCC'
p3681
I2456
sS'GCCGCA'
p3682
I1164
sS'GCCGCG'
p3683
I1299
sS'ACACTT'
p3684
I40
sS'CTCGGT'
p3685
I218
sS'AGATAT'
p3686
I63
sS'TCGCTC'
p3687
I206
sS'GTGGCT'
p3688
I442
sS'CATATA'
p3689
I836
sS'CAGTCG'
p3690
I351
sS'TACTAC'
p3691
I1087
sS'ACACTC'
p3692
I95
sS'ACACTA'
p3693
I165
sS'ACACTG'
p3694
I401
sS'GCCGCT'
p3695
I511
sS'ACCGGA'
p3696
I408
sS'AAATAA'
p3697
I369
sS'ACCGGC'
p3698
I387
sS'AAATAC'
p3699
I209
sS'CTTTAA'
p3700
I1522
sS'ACCGGG'
p3701
I548
sS'CTTTAC'
p3702
I801
sS'CACGAG'
p3703
I601
sS'CAGGTA'
p3704
I761
sS'AACTTC'
p3705
I2866
sS'CAGGTC'
p3706
I412
sS'CACGAC'
p3707
I398
sS'CACGAA'
p3708
I347
sS'CAGGTG'
p3709
I1693
sS'CTTTAT'
p3710
I371
sS'AATCCC'
p3711
I888
sS'AATCCA'
p3712
I744
sS'AAATAT'
p3713
I125
sS'AATCCG'
p3714
I284
sS'GATACA'
p3715
I934
sS'CACGAT'
p3716
I67
sS'CAGGTT'
p3717
I114
sS'AACTTT'
p3718
I839
sS'GGGATA'
p3719
I388
sS'GGGATC'
p3720
I255
sS'GGGTGT'
p3721
I413
sS'GGGATG'
p3722
I1137
sS'GATGCT'
p3723
I522
sS'CGCAGT'
p3724
I581
sS'ATTGGG'
p3725
I388
sS'GAGCCT'
p3726
I895
sS'GGAGAC'
p3727
I143
sS'AACCGG'
p3728
I832
sS'GGAGAA'
p3729
I188
sS'GGGTGC'
p3730
I562
sS'GGAGAG'
p3731
I281
sS'GGGTGG'
p3732
I1684
sS'GAGCCA'
p3733
I2170
sS'GAGCCC'
p3734
I2336
sS'GATGCG'
p3735
I492
sS'CGCAGA'
p3736
I1100
sS'GATGCA'
p3737
I1238
sS'GAGCCG'
p3738
I1161
sS'GATGCC'
p3739
I1121
sS'ACGAAC'
p3740
I47
sS'GGTAGT'
p3741
I258
sS'ACCCCT'
p3742
I245
sS'GCCAAT'
p3743
I821
sS'AACCGC'
p3744
I859
sS'AGAAGT'
p3745
I250
sS'ACCCCA'
p3746
I716
sS'GGTAGA'
p3747
I565
sS'GCCAAA'
p3748
I1082
sS'GGTAGC'
p3749
I483
sS'GCCAAG'
p3750
I2012
sS'CGGATA'
p3751
I113
sS'ACCCCG'
p3752
I439
sS'GGTAGG'
p3753
I911
sS'AGAAGA'
p3754
I621
sS'AGAAGC'
p3755
I605
sS'GCAAGA'
p3756
I313
sS'AGAAGG'
p3757
I1026
sS'CACTCC'
p3758
I3563
sS'CACTCA'
p3759
I3460
sS'CACTCG'
p3760
I1061
sS'TGCGTT'
p3761
I123
sS'TCAGCT'
p3762
I111
sS'AGCTTT'
p3763
I1181
sS'CCCCGG'
p3764
I1399
sS'TGCGTA'
p3765
I470
sS'CCCCGC'
p3766
I2916
sS'CCCCGA'
p3767
I554
sS'AGCTTC'
p3768
I3719
sS'AGCTTA'
p3769
I2860
sS'AGCTTG'
p3770
I4782
sS'ATACGA'
p3771
I24
sS'AGACCA'
p3772
I135
sS'CCACTT'
p3773
I43
sS'TTAGCT'
p3774
I124
sS'GTATAA'
p3775
I150
sS'TTAGCC'
p3776
I223
sS'TTAGCA'
p3777
I292
sS'CTAGCA'
p3778
I284
sS'TTAGCG'
p3779
I74
sS'CTTCAT'
p3780
I207
sS'AACTTA'
p3781
I2800
sS'TCATAT'
p3782
I70
sS'AAGGGG'
p3783
I1593
sS'ATAAGG'
p3784
I379
sS'TGTGCT'
p3785
I297
sS'AAGGGC'
p3786
I1088
sS'ATAAGC'
p3787
I179
sS'ATCCCT'
p3788
I405
sS'ATAAGA'
p3789
I340
sS'CCAGAC'
p3790
I98
sS'CCAGAA'
p3791
I134
sS'CCAGAG'
p3792
I200
sS'GCAAGT'
p3793
I137
sS'TGTGCG'
p3794
I401
sS'CTACCT'
p3795
I113
sS'ATAAGT'
p3796
I107
sS'AAGGGT'
p3797
I266
sS'TGTGCC'
p3798
I697
sS'ATAGGA'
p3799
I153
sS'TGTGCA'
p3800
I817
sS'ATAGGC'
p3801
I99
sS'TAAGTT'
p3802
I64
sS'AGACCG'
p3803
I61
sS'CCAGAT'
p3804
I34
sS'AGACAA'
p3805
I134
sS'GACGCA'
p3806
I1334
sS'AGACAC'
p3807
I113
sS'TCCATT'
p3808
I447
sS'AGACAG'
p3809
I248
sS'TTTTCT'
p3810
I859
sS'CGCTGT'
p3811
I786
sS'CCCACG'
p3812
I857
sS'CGTGGG'
p3813
I731
sS'CTATAG'
p3814
I168
sS'CGTGGC'
p3815
I576
sS'CGTGGA'
p3816
I322
sS'TTTTCG'
p3817
I306
sS'CGCTGA'
p3818
I1479
sS'CGCTGC'
p3819
I3051
sS'TTTTCC'
p3820
I1714
sS'TTTTCA'
p3821
I1532
sS'CGCTGG'
p3822
I2620
sS'TATGGA'
p3823
I506
sS'TATGGC'
p3824
I474
sS'CGTAGG'
p3825
I391
sS'CCCACC'
p3826
I3181
sS'TATGGG'
p3827
I672
sS'CGTAGC'
p3828
I291
sS'TACCGT'
p3829
I178
sS'TGGACT'
p3830
I272
sS'CGTAGT'
p3831
I174
sS'GCTCGA'
p3832
I231
sS'TATGGT'
p3833
I228
sS'ATTCCT'
p3834
I185
sS'TGGACA'
p3835
I599
sS'TGGACC'
p3836
I466
sS'TGGACG'
p3837
I232
sS'CCGGTT'
p3838
I22
sS'GACCAA'
p3839
I1670
sS'GCTTGA'
p3840
I768
sS'TGAGAC'
p3841
I106
sS'GCTTGC'
p3842
I843
sS'TGAGAA'
p3843
I181
sS'TGAGAG'
p3844
I239
sS'GCTTGG'
p3845
I1366
sS'CCTGTT'
p3846
I137
sS'CCGGTG'
p3847
I316
sS'AGGATT'
p3848
I167
sS'CCGGTA'
p3849
I112
sS'CCTGTC'
p3850
I582
sS'CCTGTA'
p3851
I853
sS'CCTGTG'
p3852
I2055
sS'GCTTGT'
p3853
I366
sS'TGAGAT'
p3854
I40
sS'ATCGTA'
p3855
I196
sS'GGTTGT'
p3856
I360
sS'CCCAAC'
p3857
I1037
sS'AGGGAT'
p3858
I85
sS'TATCAG'
p3859
I931
sS'ACAATA'
p3860
I295
sS'GGTTGG'
p3861
I1375
sS'CTGAAT'
p3862
I152
sS'GGTTGA'
p3863
I786
sS'GGTTGC'
p3864
I985
sS'TCCCGC'
p3865
I1899
sS'GTAACG'
p3866
I103
sS'TCCCGG'
p3867
I1632
sS'TGCTAT'
p3868
I536
sS'CGTTTT'
p3869
I144
sS'ATTCTC'
p3870
I524
sS'AGGGAA'
p3871
I566
sS'ATTCTA'
p3872
I746
sS'ATTCTG'
p3873
I1315
sS'TCATTT'
p3874
I150
sS'GTAACT'
p3875
I235
sS'TGCTAA'
p3876
I1825
sS'TATACT'
p3877
I374
sS'TGCTAG'
p3878
I1608
sS'CAGCGG'
p3879
I843
sS'AGGATC'
p3880
I323
sS'TCATTC'
p3881
I426
sS'TCATTA'
p3882
I611
sS'TCATTG'
p3883
I948
sS'ATTCTT'
p3884
I145
sS'CGTTTC'
p3885
I724
sS'CCACTC'
p3886
I146
sS'TGGCAA'
p3887
I355
sS'TGGCAC'
p3888
I430
sS'TGGCAG'
p3889
I737
sS'GCTGAG'
p3890
I1256
sS'GCTGAA'
p3891
I489
sS'GCTGAC'
p3892
I564
sS'TGGCAT'
p3893
I135
sS'GGCCGG'
p3894
I2525
sS'GTTCAA'
p3895
I537
sS'AGCCTC'
p3896
I3371
sS'GGCCGC'
p3897
I2420
sS'GAACTT'
p3898
I72
sS'GGCCGA'
p3899
I893
sS'GGCAAT'
p3900
I301
sS'CTGATT'
p3901
I207
sS'CCATCG'
p3902
I73
sS'CTAAAT'
p3903
I112
sS'CCATCC'
p3904
I405
sS'CCATCA'
p3905
I293
sS'GGCAAG'
p3906
I1868
sS'CTGATA'
p3907
I579
sS'GAGTTT'
p3908
I411
sS'GGCAAC'
p3909
I1144
sS'GGCAAA'
p3910
I1210
sS'CTAAAG'
p3911
I334
sS'CCATCT'
p3912
I220
sS'CTAAAC'
p3913
I208
sS'CTAAAA'
p3914
I271
sS'GACACC'
p3915
I2679
sS'GACACA'
p3916
I3297
sS'GACACG'
p3917
I1149
sS'CCAAGA'
p3918
I292
sS'AGGCAT'
p3919
I137
sS'TAGCGA'
p3920
I206
sS'TACGAG'
p3921
I274
sS'TACGAC'
p3922
I211
sS'GACACT'
p3923
I1526
sS'GGCGAT'
p3924
I81
sS'AGTCCG'
p3925
I270
sS'CTATTG'
p3926
I1095
sS'CTATTA'
p3927
I849
sS'GCATAC'
p3928
I57
sS'TCGATG'
p3929
I93
sS'TCGATA'
p3930
I53
sS'TCGATC'
p3931
I29
sS'CTATTT'
p3932
I215
sS'CGCGAA'
p3933
I291
sS'GCATCT'
p3934
I140
sS'CAGCCT'
p3935
I564
sS'TCGATT'
p3936
I15
sS'CTACCG'
p3937
I89
sS'GCGCCC'
p3938
I459
sS'ACAATG'
p3939
I506
sS'AACCAA'
p3940
I1481
sS'TGCCGG'
p3941
I1319
sS'AACCAC'
p3942
I1494
sS'TGCCGC'
p3943
I1452
sS'AACCAG'
p3944
I1709
sS'TGCCGA'
p3945
I490
sS'TTGGAC'
p3946
I226
sS'TCTGGA'
p3947
I480
sS'AGGCAG'
p3948
I1204
sS'TGCCGT'
p3949
I299
sS'AACCAT'
p3950
I304
sS'AACAGA'
p3951
I2583
sS'GGGAGT'
p3952
I393
sS'AACAGC'
p3953
I2400
sS'ACGTCC'
p3954
I180
sS'AACAGG'
p3955
I2909
sS'ACGTCA'
p3956
I320
sS'GACGAC'
p3957
I631
sS'GTCCCT'
p3958
I921
sS'GACGAA'
p3959
I521
sS'GACGAG'
p3960
I994
sS'CCCAAA'
p3961
I931
sS'CAATAT'
p3962
I41
sS'GGGAGG'
p3963
I3537
sS'GGGAGA'
p3964
I1181
sS'AACAGT'
p3965
I1023
sS'GGGAGC'
p3966
I1083
sS'ACGAAG'
p3967
I141
sS'CCCAAT'
p3968
I265
sS'GACGAT'
p3969
I109
sS'GGGCGC'
p3970
I627
sS'GGGCGA'
p3971
I409
sS'GCATCA'
p3972
I273
sS'GGGCGG'
p3973
I1958
sS'TCTCTT'
p3974
I258
sS'GTACAG'
p3975
I138
sS'CAGAAT'
p3976
I175
sS'ACGACT'
p3977
I44
sS'TCTCTC'
p3978
I1287
sS'TCTCTA'
p3979
I1224
sS'TCTCTG'
p3980
I2729
sS'GGGCGT'
p3981
I182
sS'CAGAAA'
p3982
I754
sS'ACGACA'
p3983
I92
sS'ACGACG'
p3984
I55
sS'CAGAAG'
p3985
I1187
sS'CCTTCA'
p3986
I1340
sS'CACTTT'
p3987
I1207
sS'CATATT'
p3988
I201
sS'CCTAAT'
p3989
I114
sS'TGATCG'
p3990
I32
sS'CACTTG'
p3991
I5099
sS'CCTAAC'
p3992
I302
sS'CCTAAA'
p3993
I322
sS'CACTTC'
p3994
I4553
sS'CCTAAG'
p3995
I501
sS'CACTTA'
p3996
I3795
sS'GCGGAT'
p3997
I21
sS'CTGCGG'
p3998
I758
sS'AAGATT'
p3999
I138
sS'CTCATG'
p4000
I3049
sS'GACTCG'
p4001
I1689
sS'CTCATC'
p4002
I1593
sS'GACTCC'
p4003
I4350
sS'CTCATA'
p4004
I1792
sS'GACTCA'
p4005
I8032
sS'ATAGGT'
p4006
I52
sS'AAGATC'
p4007
I337
sS'AAGATG'
p4008
I1583
sS'GACTCT'
p4009
I2075
sS'GTCCCG'
p4010
I1160
sS'TTGAGA'
p4011
I594
sS'ATCGAA'
p4012
I128
sS'AGTCGA'
p4013
I257
sS'ATATTT'
p4014
I167
sS'ACGGTA'
p4015
I88
sS'AACTAA'
p4016
I1640
sS'ATAGTT'
p4017
I41
sS'TACTGT'
p4018
I1428
sS'ATATTC'
p4019
I277
sS'ATATTA'
p4020
I653
sS'ATATTG'
p4021
I574
sS'TACTGC'
p4022
I2382
sS'TACTGA'
p4023
I2251
sS'TACTGG'
p4024
I2401
sS'ATAGTG'
p4025
I261
sS'GATCGA'
p4026
I270
sS'CAGGCA'
p4027
I1491
sS'CAGGCC'
p4028
I1548
sS'CATCCG'
p4029
I298
sS'AGGAAA'
p4030
I992
sS'CATCCA'
p4031
I808
sS'CAGGCG'
p4032
I697
sS'CATCCC'
p4033
I999
sS'TTATGA'
p4034
I409
sS'TTATGC'
p4035
I267
sS'CGGAGT'
p4036
I191
sS'TTATGG'
p4037
I327
sS'CATCCT'
p4038
I464
sS'AGGAAT'
p4039
I240
sS'CAGGCT'
p4040
I485
sS'ACGGAT'
p4041
I8
sS'CGGAGA'
p4042
I432
sS'CGGAGC'
p4043
I741
sS'TTATGT'
p4044
I256
sS'CGGAGG'
p4045
I1031
sS'ATGGAA'
p4046
I244
sS'ATGGAC'
p4047
I156
sS'ATGGAG'
p4048
I335
sS'CGCTTG'
p4049
I2072
sS'CGCTTA'
p4050
I977
sS'CGCTTC'
p4051
I2190
sS'TGAACA'
p4052
I359
sS'ATGGAT'
p4053
I40
sS'TTTGCA'
p4054
I722
sS'CGCTTT'
p4055
I539
sS'GATCGT'
p4056
I140
sS'TTTGCC'
p4057
I567
sS'TTGTGA'
p4058
I765
sS'GAAAAG'
p4059
I1078
sS'TAAACC'
p4060
I443
sS'GAAAAC'
p4061
I620
sS'ATAGAT'
p4062
I34
sS'GAAAAA'
p4063
I628
sS'GTTCCT'
p4064
I296
sS'TAAGTA'
p4065
I397
sS'AGACCT'
p4066
I56
sS'ACGGTT'
p4067
I20
sS'GAAAAT'
p4068
I157
sS'CTACTG'
p4069
I564
sS'ACAAGG'
p4070
I392
sS'ACAAGA'
p4071
I253
sS'AAAAAA'
p4072
I1270
sS'ACAAGC'
p4073
I182
sS'ACACGT'
p4074
I24
sS'CTGCGT'
p4075
I162
sS'GCGGAG'
p4076
I385
sS'CATAAG'
p4077
I742
sS'GCGGAA'
p4078
I136
sS'CATAAA'
p4079
I1033
sS'GCGGAC'
p4080
I130
sS'CATAAC'
p4081
I569
sS'ACACGC'
p4082
I90
sS'ACAAGT'
p4083
I138
sS'ACACGA'
p4084
I45
sS'ACACGG'
p4085
I89
sS'CATAAT'
p4086
I231
sS'GTCCCA'
p4087
I1656
sS'GCACAT'
p4088
I32
sS'GTCCCC'
p4089
I1993
sS'CTGCGA'
p4090
I335
sS'CTGCGC'
p4091
I747
sS'CGGCAA'
p4092
I127
sS'CGGCAC'
p4093
I192
sS'CGGCAG'
p4094
I382
sS'CCTCCT'
p4095
I442
sS'NNNGAA'
p4096
I1
sS'CGGCAT'
p4097
I38
sS'CCTCCC'
p4098
I1298
sS'CCTCCA'
p4099
I686
sS'CCTCCG'
p4100
I380
sS'CGTGAT'
p4101
I85
s.