(dp0
S'GGGCTT'
p1
I14354
sS'GAACGT'
p2
I2955
sS'CGTCGT'
p3
I1595
sS'CTTCTT'
p4
I18073
sS'CACCCT'
p5
I17055
sS'ATTGAA'
p6
I8782
sS'GAACGG'
p7
I3832
sS'GAACGC'
p8
I3949
sS'GAACGA'
p9
I2583
sS'CACCCA'
p10
I19110
sS'CTTCTA'
p11
I9699
sS'CACCCC'
p12
I20932
sS'CTTCTC'
p13
I20946
sS'CACCCG'
p14
I8541
sS'CTTCTG'
p15
I20159
sS'CGTGTG'
p16
I6342
sS'TAAGGT'
p17
I6239
sS'CGTGTC'
p18
I4232
sS'CGTGTA'
p19
I2146
sS'GGAAAT'
p20
I16541
sS'TAAGGG'
p21
I7619
sS'CGTGTT'
p22
I3805
sS'TAAGGC'
p23
I6894
sS'TAAGGA'
p24
I9934
sS'GTCAAA'
p25
I8026
sS'GTCAAC'
p26
I4987
sS'GTCAAG'
p27
I7647
sS'CTGTCC'
p28
I16465
sS'TCAGAG'
p29
I18520
sS'CTGTCA'
p30
I13386
sS'CTGTCG'
p31
I4453
sS'GTATCT'
p32
I5857
sS'TCAGAA'
p33
I16924
sS'CTTGGT'
p34
I10622
sS'GTCAAT'
p35
I5027
sS'GTATCA'
p36
I4535
sS'TCAGAT'
p37
I10712
sS'GTATCG'
p38
I976
sS'CTGTCT'
p39
I18425
sS'GGTGTC'
p40
I9630
sS'GGTGTA'
p41
I4940
sS'GGTGTG'
p42
I15914
sS'TATCCT'
p43
I6953
sS'CCGGGG'
p44
I18233
sS'TTCTGT'
p45
I18116
sS'ATTCCT'
p46
I14966
sS'CCGGGC'
p47
I20783
sS'CCGGGA'
p48
I14333
sS'TATCCA'
p49
I6547
sS'TATCCC'
p50
I5862
sS'TGGTTG'
p51
I9555
sS'TATCCG'
p52
I1413
sS'GGTGTT'
p53
I9094
sS'ATTCCG'
p54
I2926
sS'TTCTGG'
p55
I18725
sS'CCGGGT'
p56
I8897
sS'ATTCCC'
p57
I11290
sS'TTCTGC'
p58
I16505
sS'ATTCCA'
p59
I14204
sS'TTCTGA'
p60
I17098
sS'CTTGGA'
p61
I13544
sS'GGNCCC'
p62
I1
sS'CGTCAT'
p63
I2737
sS'GTAAAC'
p64
I6690
sS'CGCGGT'
p65
I5660
sS'AGGGAG'
p66
I30641
sS'CGCGGG'
p67
I15877
sS'CGCGGC'
p68
I16714
sS'CGCGGA'
p69
I7100
sS'NCCCAC'
p70
I1
sS'ACCTGT'
p71
I11274
sS'TCATGT'
p72
I9649
sS'CTCCGA'
p73
I5686
sS'TTACAG'
p74
I13906
sS'CTCCGC'
p75
I15575
sS'TTACAA'
p76
I9981
sS'TTACAC'
p77
I6566
sS'CTCCGG'
p78
I12052
sS'TCATGC'
p79
I9219
sS'ACCTGG'
p80
I18214
sS'TCATGA'
p81
I9868
sS'TCATGG'
p82
I10154
sS'ACCTGC'
p83
I14893
sS'GCGCNN'
p84
I1
sS'ACCTGA'
p85
I11558
sS'TTACAT'
p86
I9409
sS'CTCGAT'
p87
I2038
sS'CTCCGT'
p88
I5994
sS'GCCTGA'
p89
I14980
sS'GCCTGC'
p90
I21377
sS'GCCTGG'
p91
I32979
sS'TCTTGC'
p92
I11409
sS'TAAAGG'
p93
I10571
sS'CAAATT'
p94
I11795
sS'TAAAGA'
p95
I12542
sS'ACGGCT'
p96
I4084
sS'GCCTGT'
p97
I17067
sS'CGTCAA'
p98
I1870
sS'TAAAGT'
p99
I9766
sS'CAAATA'
p100
I12362
sS'ACGTCC'
p101
I3772
sS'CAAATC'
p102
I9806
sS'CGTGCT'
p103
I4646
sS'CAAATG'
p104
I13653
sS'AATACT'
p105
I8146
sS'TATCTC'
p106
I7394
sS'TCGATT'
p107
I1799
sS'TGGTTC'
p108
I9793
sS'GGCATA'
p109
I5029
sS'GGCATC'
p110
I8449
sS'AATACG'
p111
I1964
sS'AATACA'
p112
I12122
sS'AATACC'
p113
I6142
sS'GGCATT'
p114
I9826
sS'TATCTG'
p115
I8538
sS'TGCACA'
p116
I12667
sS'GAGCAC'
p117
I10339
sS'ACTGAT'
p118
I7862
sS'CATATC'
p119
I4967
sS'GAGCAG'
p120
I20712
sS'AGTAGT'
p121
I5855
sS'TCTCGC'
p122
I5959
sS'TCTCGA'
p123
I3420
sS'TCTCGG'
p124
I6917
sS'ACTGAG'
p125
I14832
sS'AGTAGA'
p126
I8979
sS'TTTGGT'
p127
I11091
sS'ACTGAC'
p128
I8867
sS'GAGCAT'
p129
I7880
sS'AGCCCG'
p130
I10868
sS'GGGTCA'
p131
I10423
sS'GTGTCG'
p132
I2787
sS'TCGAAC'
p133
I2359
sS'TCGAAA'
p134
I2167
sS'GTGTCC'
p135
I11081
sS'TCGAAG'
p136
I2502
sS'GTGTCA'
p137
I9641
sS'CTTGCT'
p138
I14458
sS'CCGTCT'
p139
I6278
sS'GTGTCT'
p140
I12205
sS'TTGAAG'
p141
I11429
sS'TCGAAT'
p142
I1953
sS'CTTGCG'
p143
I3769
sS'CTTGCA'
p144
I10593
sS'CTTGCC'
p145
I12988
sS'CGAAAG'
p146
I3551
sS'CGAAAA'
p147
I3109
sS'CGAAAC'
p148
I2858
sS'AAGGTT'
p149
I9334
sS'AATCAT'
p150
I10149
sS'AAATGC'
p151
I14284
sS'CACGGC'
p152
I6937
sS'AAATGA'
p153
I20016
sS'AAATGG'
p154
I15541
sS'CACGGG'
p155
I6438
sS'ACAGTA'
p156
I8132
sS'TAGAGC'
p157
I7071
sS'CGAAAT'
p158
I2273
sS'ACAGTT'
p159
I10355
sS'AATCAG'
p160
I11772
sS'AATCAA'
p161
I10113
sS'AAATGT'
p162
I17714
sS'AATCAC'
p163
I9971
sS'GGGTCT'
p164
I11794
sS'TCTAGT'
p165
I7513
sS'TTGCCG'
p166
I3500
sS'TTGCCA'
p167
I12164
sS'TTGCCC'
p168
I12364
sS'TTGCCT'
p169
I13924
sS'TCTAGG'
p170
I9267
sS'GGGTAA'
p171
I6743
sS'TCTAGA'
p172
I8646
sS'GGGTAG'
p173
I7873
sS'TCTAGC'
p174
I6846
sS'ATACGG'
p175
I1496
sS'TAGAGG'
p176
I10301
sS'GGCTCC'
p177
I23947
sS'TCGGGC'
p178
I6728
sS'TCGCCC'
p179
I8381
sS'AGNNNN'
p180
I1
sS'TCGCCA'
p181
I4514
sS'ATAGTC'
p182
I4164
sS'TCGCCG'
p183
I5278
sS'GGTAAT'
p184
I5767
sS'ACCCAT'
p185
I7325
sS'CGTCAG'
p186
I4440
sS'CTCACC'
p187
I17227
sS'ACCCAC'
p188
I12836
sS'GGTAAC'
p189
I5252
sS'ACCCAA'
p190
I9898
sS'AGATGG'
p191
I15574
sS'ACCCAG'
p192
I19933
sS'GGTAAG'
p193
I6940
sS'TCGCCT'
p194
I5718
sS'AGATGC'
p195
I9514
sS'CCCCAT'
p196
I13035
sS'TTGGGT'
p197
I9846
sS'CACTAG'
p198
I8066
sS'CACTAA'
p199
I6885
sS'CACTAC'
p200
I5746
sS'CCCCAA'
p201
I15905
sS'CCCCAC'
p202
I24753
sS'CCCCAG'
p203
I30623
sS'CACTAT'
p204
I5579
sS'NACAAC'
p205
I1
sS'TTGGGG'
p206
I16263
sS'TCGGTT'
p207
I2775
sS'TTGGGA'
p208
I16229
sS'TTGGGC'
p209
I10741
sS'CTCGAG'
p210
I4450
sS'GTGGGT'
p211
I12660
sS'TTTCTG'
p212
I23944
sS'TGCAGC'
p213
I18682
sS'TTTCTA'
p214
I14839
sS'TTTCTC'
p215
I23533
sS'TGCAGG'
p216
I19898
sS'ACGCCT'
p217
I6261
sS'TCAGAC'
p218
I9806
sS'TTTCTT'
p219
I30897
sS'TGCCTT'
p220
I16469
sS'TGCAGT'
p221
I16716
sS'TAGTGC'
p222
I4958
sS'AAGGAA'
p223
I24985
sS'AAGGAC'
p224
I10571
sS'AAGGAG'
p225
I20796
sS'ATATGC'
p226
I5351
sS'GTTCCA'
p227
I9906
sS'ATATGA'
p228
I7318
sS'ATATGG'
p229
I5700
sS'GAGTTC'
p230
I10242
sS'GATGGA'
p231
I10909
sS'AAGGAT'
p232
I10012
sS'AGGGCC'
p233
I18506
sS'ACATTT'
p234
I17890
sS'TGGTTT'
p235
I15387
sS'ATATGT'
p236
I8006
sS'GGTCCC'
p237
I14238
sS'GCCCAG'
p238
I32153
sS'GGTCCA'
p239
I7852
sS'GCCCAA'
p240
I10746
sS'GGTCCG'
p241
I5173
sS'GCCCAC'
p242
I15681
sS'TGTGTC'
p243
I12691
sS'AGACCC'
p244
I11849
sS'CTTCGG'
p245
I5225
sS'CTTCGA'
p246
I2551
sS'CTTCGC'
p247
I4928
sS'ATGCAA'
p248
I9474
sS'TCCGGG'
p249
I10854
sS'AGGTCA'
p250
I13559
sS'TCCGGC'
p251
I8463
sS'GGTCCT'
p252
I10964
sS'TCCGGA'
p253
I5603
sS'CTTAGC'
p254
I7414
sS'TCTTGA'
p255
I10989
sS'CTTAGA'
p256
I8456
sS'ATGCAC'
p257
I7215
sS'CTTAGG'
p258
I8452
sS'GTATCC'
p259
I4003
sS'AGACCT'
p260
I10799
sS'CGCTAC'
p261
I2425
sS'ATTTTG'
p262
I15684
sS'CGCTAA'
p263
I1966
sS'ATTTTA'
p264
I20128
sS'TAAATT'
p265
I13403
sS'ATTTTC'
p266
I17928
sS'TCCAGC'
p267
I21596
sS'TAGCAG'
p268
I8632
sS'GATACT'
p269
I4763
sS'TAGCAC'
p270
I6154
sS'TAGCAA'
p271
I7889
sS'GAGGTT'
p272
I11497
sS'ATTTTT'
p273
I30918
sS'TAAATC'
p274
I8232
sS'GTGGGG'
p275
I24880
sS'GCCTTA'
p276
I6935
sS'GCCTTC'
p277
I15482
sS'GATACG'
p278
I1394
sS'TAGCAT'
p279
I6197
sS'GATACC'
p280
I3695
sS'GATACA'
p281
I5806
sS'TGAGCT'
p282
I14610
sS'ACGGAC'
p283
I2726
sS'GATCAT'
p284
I6025
sS'TACCGG'
p285
I2155
sS'AAGACA'
p286
I14411
sS'AAGACC'
p287
I9654
sS'ACAATG'
p288
I9438
sS'AAACAT'
p289
I14194
sS'AAGACG'
p290
I3944
sS'ATGCAT'
p291
I8290
sS'TGAGCG'
p292
I5662
sS'TGAGCA'
p293
I13846
sS'TGAGCC'
p294
I18137
sS'AAGACT'
p295
I10788
sS'ACCACG'
p296
I5456
sS'GCGGTA'
p297
I2343
sS'ATAAGT'
p298
I6028
sS'GCGGTG'
p299
I10471
sS'CTATCG'
p300
I1126
sS'CGGTGT'
p301
I3974
sS'TCGTTA'
p302
I1611
sS'TCGTTC'
p303
I2566
sS'CGCTAG'
p304
I2942
sS'ACTTGT'
p305
I8581
sS'GAGTTT'
p306
I12083
sS'TGTGTG'
p307
I34271
sS'GCGGTT'
p308
I3884
sS'ACTTGC'
p309
I8598
sS'ATGTGA'
p310
I11637
sS'ACTTGA'
p311
I9950
sS'CGGTGG'
p312
I9245
sS'TCGTTT'
p313
I3537
sS'CGGTGA'
p314
I5483
sS'CCGTTA'
p315
I1806
sS'CGGTGC'
p316
I6782
sS'TTCCTA'
p317
I12116
sS'TAGACT'
p318
I5721
sS'TTCCTC'
p319
I23627
sS'CTTCCG'
p320
I8503
sS'TGGGTT'
p321
I12271
sS'TTCCTG'
p322
I26796
sS'TCCTTT'
p323
I21357
sS'GACCCA'
p324
I10743
sS'TAGACG'
p325
I1812
sS'TTCCTT'
p326
I25102
sS'TAGACC'
p327
I4312
sS'TAGACA'
p328
I6929
sS'TCCTTG'
p329
I14689
sS'TCCTTA'
p330
I9883
sS'TCCTTC'
p331
I20720
sS'ATCTCT'
p332
I13029
sS'ACCGTT'
p333
I2127
sS'TGGCGC'
p334
I9243
sS'TGGCGA'
p335
I4548
sS'GGCCAT'
p336
I9347
sS'NNGAAT'
p337
I2
sS'AATGCA'
p338
I12375
sS'ATCTCG'
p339
I3319
sS'ATCTCA'
p340
I11883
sS'ATCTCC'
p341
I11350
sS'GGCCAA'
p342
I14029
sS'ACGGAG'
p343
I6140
sS'GGCCAC'
p344
I17333
sS'AGGTAG'
p345
I8828
sS'ACCGTA'
p346
I1550
sS'TGGCGT'
p347
I4726
sS'ACCGTC'
p348
I2941
sS'AGATTA'
p349
I7656
sS'GGCAGT'
p350
I13741
sS'CCATAA'
p351
I6660
sS'CAAAGG'
p352
I15938
sS'TGTTTG'
p353
I15507
sS'CTAACT'
p354
I6495
sS'GAAACG'
p355
I4943
sS'CAAAGC'
p356
I14565
sS'CAACGT'
p357
I2647
sS'GGCAGA'
p358
I20412
sS'GGCAGC'
p359
I24764
sS'CGTGAG'
p360
I6311
sS'GGCAGG'
p361
I31675
sS'CAACGC'
p362
I3325
sS'CTAACA'
p363
I7540
sS'CAACGA'
p364
I2182
sS'CTAACC'
p365
I5961
sS'CCATAT'
p366
I5714
sS'CTAACG'
p367
I1910
sS'GGGGGT'
p368
I13539
sS'TACGCT'
p369
I1614
sS'AGATTG'
p370
I7733
sS'CGATCT'
p371
I2813
sS'NNNNNC'
p372
I1
sS'CTCTAG'
p373
I10356
sS'CTCTAA'
p374
I9177
sS'CTCTAC'
p375
I8842
sS'GGGGGG'
p376
I14571
sS'TACGCA'
p377
I1705
sS'TACGCC'
p378
I1928
sS'GGGGGC'
p379
I25991
sS'CGATCG'
p380
I981
sS'GGGGGA'
p381
I18953
sS'TACGCG'
p382
I1153
sS'CTCTAT'
p383
I7001
sS'ACCGAA'
p384
I2592
sS'CAGACC'
p385
I12061
sS'CAGACA'
p386
I15728
sS'CAGACG'
p387
I5324
sS'ACGTGA'
p388
I4476
sS'TAGTTG'
p389
I5434
sS'GCTAAT'
p390
I6923
sS'TAGTTC'
p391
I6013
sS'TAGTTA'
p392
I5481
sS'CAGACT'
p393
I12221
sS'ACCTTT'
p394
I11476
sS'GCGAAC'
p395
I2557
sS'TAGTTT'
p396
I9744
sS'GCTAAC'
p397
I4590
sS'GCTAAA'
p398
I7579
sS'TGCATT'
p399
I12526
sS'GCGAAA'
p400
I3186
sS'AACCCT'
p401
I10928
sS'GTCCAC'
p402
I7870
sS'AACCCC'
p403
I11538
sS'AACCCA'
p404
I12180
sS'TGCATA'
p405
I6930
sS'TGCATC'
p406
I8039
sS'AGATTT'
p407
I13591
sS'CTACAA'
p408
I7798
sS'CTACAC'
p409
I5964
sS'AACTGA'
p410
I12389
sS'AGTTTA'
p411
I9589
sS'CCCAGA'
p412
I23080
sS'CCCAGC'
p413
I36956
sS'AGAATC'
p414
I10434
sS'CCCAGG'
p415
I37701
sS'AACTGT'
p416
I10252
sS'AGTTTT'
p417
I15803
sS'CTACAT'
p418
I6279
sS'CCCAGT'
p419
I15994
sS'CGCATA'
p420
I1243
sS'ATACTG'
p421
I6780
sS'CGCATC'
p422
I2932
sS'ATACTA'
p423
I4522
sS'ATACTC'
p424
I4677
sS'CGCATG'
p425
I3721
sS'AGGCCA'
p426
I18965
sS'ATACTT'
p427
I7608
sS'CGCATT'
p428
I2620
sS'AGGCCC'
p429
I19617
sS'GCTCCG'
p430
I12705
sS'TATTGT'
p431
I8000
sS'GCTCCC'
p432
I22622
sS'GCTCCA'
p433
I16650
sS'CCTACT'
p434
I8304
sS'TGTACT'
p435
I6958
sS'TTTAGT'
p436
I10045
sS'TATTGG'
p437
I6158
sS'GCTCCT'
p438
I19627
sS'AGGCCG'
p439
I12013
sS'GCTGGG'
p440
I37064
sS'TTTAGG'
p441
I9544
sS'TGTACG'
p442
I1655
sS'CCTACG'
p443
I2586
sS'TGTACA'
p444
I7739
sS'TTTAGC'
p445
I7499
sS'TGTACC'
p446
I5369
sS'CCTACC'
p447
I8816
sS'ACTTCA'
p448
I11461
sS'TTCGCG'
p449
I2448
sS'TTCGCA'
p450
I2417
sS'TTCGCC'
p451
I4112
sS'AGTATC'
p452
I4693
sS'GACTAA'
p453
I6478
sS'AGTATA'
p454
I5162
sS'GACTAC'
p455
I4948
sS'AGTATG'
p456
I5648
sS'TTTGGA'
p457
I14662
sS'TTTGGC'
p458
I11549
sS'TTCGCT'
p459
I3586
sS'GTGTAT'
p460
I6672
sS'GACTAT'
p461
I4204
sS'AGTTTG'
p462
I11936
sS'AGTATT'
p463
I8447
sS'TTACTC'
p464
I7783
sS'TTACTA'
p465
I6506
sS'TTACTG'
p466
I9751
sS'ACCTTG'
p467
I10827
sS'ACCTTC'
p468
I10998
sS'ACCTTA'
p469
I6094
sS'TTACTT'
p470
I11212
sS'ACGCTT'
p471
I3123
sS'TAGGGC'
p472
I7125
sS'ACAGGG'
p473
I16087
sS'CTGGGA'
p474
I30992
sS'CTGGGC'
p475
I31927
sS'ACAGGC'
p476
I16691
sS'TTATAT'
p477
I9165
sS'CTGGGG'
p478
I30486
sS'AGGACG'
p479
I5949
sS'GCAGCT'
p480
I19679
sS'CAGGAA'
p481
I26155
sS'TCGCTT'
p482
I4195
sS'CAGGAG'
p483
I29754
sS'AGGACA'
p484
I14793
sS'GCGCAT'
p485
I3493
sS'TTATAC'
p486
I4862
sS'ACAGGT'
p487
I11462
sS'CTGGGT'
p488
I19973
sS'TTATAG'
p489
I6282
sS'GTCAGA'
p490
I11086
sS'TCGCTG'
p491
I6107
sS'GAGTTG'
p492
I9484
sS'GCAGCG'
p493
I13146
sS'AGGACT'
p494
I12164
sS'GCAGCA'
p495
I19796
sS'GGAGGG'
p496
I37657
sS'TCGCTA'
p497
I1834
sS'CAGGAT'
p498
I13264
sS'CCTCAG'
p499
I25102
sS'CCTCAA'
p500
I12326
sS'CCTCAC'
p501
I15968
sS'TATGTT'
p502
I8492
sS'ATGGGC'
p503
I8884
sS'TCTTTG'
p504
I16365
sS'ATGGGA'
p505
I11988
sS'TCTTTA'
p506
I12645
sS'ATGGGG'
p507
I13058
sS'TCTTTC'
p508
I20353
sS'CCTCAT'
p509
I12240
sS'TCTTTT'
p510
I24364
sS'TATGTG'
p511
I9046
sS'TATGTA'
p512
I7363
sS'ATGGGT'
p513
I7419
sS'TATGTC'
p514
I5134
sS'GAAAGA'
p515
I19821
sS'ATCAAG'
p516
I7602
sS'CATGAT'
p517
I7656
sS'ATCAAC'
p518
I5328
sS'GAAAGG'
p519
I19420
sS'ATCAAA'
p520
I10671
sS'GTCAGG'
p521
I14681
sS'ACGTGG'
p522
I6481
sS'CATGAG'
p523
I11406
sS'ATCAAT'
p524
I6346
sS'TCAAAC'
p525
I9570
sS'CATGAC'
p526
I8433
sS'CATGAA'
p527
I10988
sS'GTAGCG'
p528
I2404
sS'CAAGTT'
p529
I9960
sS'GCTTTG'
p530
I14452
sS'GTAGCC'
p531
I6075
sS'GCTTTC'
p532
I13771
sS'ACGTGT'
p533
I3931
sS'GAGGAT'
p534
I11309
sS'GCTTTT'
p535
I15671
sS'CAAGTG'
p536
I11840
sS'GTAGCT'
p537
I8051
sS'GCGGCC'
p538
I19474
sS'CAAGTC'
p539
I9778
sS'GCGGCA'
p540
I8339
sS'CAAGTA'
p541
I7395
sS'AACGGT'
p542
I2176
sS'TAATCG'
p543
I1347
sS'CTTGTG'
p544
I11820
sS'TAATCA'
p545
I7648
sS'TAATCC'
p546
I9336
sS'TGCGAA'
p547
I2450
sS'CGGCCC'
p548
I17671
sS'AAAATT'
p549
I20683
sS'TTGATA'
p550
I6124
sS'CGGCCG'
p551
I14804
sS'TCGTGA'
p552
I2698
sS'ATGAAG'
p553
I12021
sS'GGTCTG'
p554
I12169
sS'TAATCT'
p555
I7667
sS'TGCGAC'
p556
I2524
sS'GGTCTC'
p557
I13141
sS'GGTCTA'
p558
I4295
sS'CAGTCA'
p559
I12531
sS'AAAATG'
p560
I23029
sS'AAAATC'
p561
I14139
sS'CGGCCT'
p562
I12090
sS'TCGTCA'
p563
I2306
sS'ATCCCT'
p564
I10985
sS'TTCAGG'
p565
I14964
sS'GAACAT'
p566
I8003
sS'TCGTCG'
p567
I1514
sS'TGCCAA'
p568
I11746
sS'TCGGGA'
p569
I5860
sS'GAACAA'
p570
I10646
sS'ATCCCG'
p571
I4555
sS'GAACAC'
p572
I8600
sS'ATCCCC'
p573
I10263
sS'GAACAG'
p574
I12167
sS'ATCCCA'
p575
I14353
sS'AACGGA'
p576
I3267
sS'CACCAC'
p577
I16657
sS'CACCAA'
p578
I10892
sS'CACCAG'
p579
I17541
sS'AACATT'
p580
I12550
sS'AACGGG'
p581
I3923
sS'TCCGTC'
p582
I4539
sS'TTGATT'
p583
I10262
sS'TCCGTA'
p584
I1915
sS'ACCAGA'
p585
I11778
sS'ACGCGA'
p586
I1954
sS'CACCAT'
p587
I11298
sS'AACATG'
p588
I10851
sS'AACATA'
p589
I8518
sS'AACATC'
p590
I8055
sS'GTCAGN'
p591
I1
sS'GTCAGC'
p592
I10994
sS'GCACGG'
p593
I6015
sS'TCAGCC'
p594
I19458
sS'GCACGA'
p595
I2937
sS'CAGTCC'
p596
I12939
sS'GCACGC'
p597
I6392
sS'GCAAGT'
p598
I8546
sS'GCAAGC'
p599
I9084
sS'GCACGT'
p600
I4364
sS'CAGTCT'
p601
I13047
sS'TAAAGC'
p602
I8769
sS'TCAGCT'
p603
I16264
sS'GTCAGT'
p604
I9038
sS'TATCTA'
p605
I5500
sS'GTATAC'
p606
I2859
sS'TTCCGT'
p607
I3890
sS'GTATAA'
p608
I4967
sS'GTATAG'
p609
I3102
sS'CCGGAA'
p610
I7423
sS'CCGGAC'
p611
I5972
sS'CCGGAG'
p612
I11940
sS'TATCAT'
p613
I6169
sS'CTCGTA'
p614
I1506
sS'TTCCGG'
p615
I7296
sS'TTCCGA'
p616
I3421
sS'TTCCGC'
p617
I6109
sS'GTATAT'
p618
I5405
sS'CGTCTC'
p619
I6992
sS'TATCAA'
p620
I6040
sS'CGTCTG'
p621
I5287
sS'CCGGAT'
p622
I3494
sS'CTCTTC'
p623
I19075
sS'TGTTAT'
p624
I8330
sS'CTCTTA'
p625
I9298
sS'CTCTTG'
p626
I14139
sS'AGGGCT'
p627
I18513
sS'TACGTA'
p628
I1584
sS'TACGTC'
p629
I1497
sS'TCTGGT'
p630
I11937
sS'AACAAA'
p631
I22653
sS'CGCGAT'
p632
I2148
sS'TACGTG'
p633
I2618
sS'TGTTAG'
p634
I7366
sS'GGTTTC'
p635
I13321
sS'TGTTAC'
p636
I6860
sS'CTCTTT'
p637
I19665
sS'TGTTAA'
p638
I9686
sS'TCTGGG'
p639
I22919
sS'CGCGAC'
p640
I3614
sS'GATATT'
p641
I7078
sS'TCTGGC'
p642
I15858
sS'TACGTT'
p643
I1875
sS'CGCGAG'
p644
I6506
sS'AGTCGT'
p645
I2256
sS'TTACCT'
p646
I9246
sS'CTCCAT'
p647
I13006
sS'AATGCG'
p648
I2694
sS'TATGCC'
p649
I5089
sS'TTACCG'
p650
I2110
sS'CTCCAC'
p651
I18284
sS'AGTCGG'
p652
I4067
sS'TTACCC'
p653
I6638
sS'CTCCAG'
p654
I28657
sS'TTACCA'
p655
I8006
sS'AGTCGC'
p656
I3575
sS'GTACCG'
p657
I1654
sS'CCGACT'
p658
I4195
sS'GCCTAC'
p659
I5706
sS'GCCTAA'
p660
I6179
sS'GCCTAG'
p661
I8594
sS'GTGCGG'
p662
I7306
sS'CCGACA'
p663
I3396
sS'CCCTGT'
p664
I16040
sS'CCGACC'
p665
I5629
sS'CCGACG'
p666
I3272
sS'GCCTAT'
p667
I5064
sS'TGACGG'
p668
I3568
sS'ACGCGG'
p669
I4993
sS'CCCGAG'
p670
I10952
sS'AAGCTG'
p671
I16123
sS'CCCGAA'
p672
I4795
sS'CGCACA'
p673
I5306
sS'ATACAC'
p674
I6737
sS'CGCACC'
p675
I6866
sS'ATACAA'
p676
I9064
sS'ACTGCT'
p677
I12532
sS'ATACAG'
p678
I8230
sS'CGCACG'
p679
I4543
sS'GGGTCC'
p680
I12826
sS'GAGCGT'
p681
I3944
sS'CTCACT'
p682
I17435
sS'TTTGTA'
p683
I13394
sS'ACTGCA'
p684
I16522
sS'TTTGTC'
p685
I11788
sS'ACTGCC'
p686
I13571
sS'CGCACT'
p687
I4255
sS'ATACAT'
p688
I8179
sS'ACTGCG'
p689
I5395
sS'CTTGAC'
p690
I7491
sS'CTCACA'
p691
I15476
sS'CTCACG'
p692
I6243
sS'TAGTGG'
p693
I7951
sS'GTGAGG'
p694
I16467
sS'GATTTT'
p695
I14241
sS'ACAATT'
p696
I8895
sS'GTGAGC'
p697
I14470
sS'TAGTGA'
p698
I7235
sS'GTGAGA'
p699
I13020
sS'TCGACG'
p700
I1016
sS'TCGACA'
p701
I1524
sS'TCGACC'
p702
I2018
sS'ACAATA'
p703
I7693
sS'GTGAGT'
p704
I13487
sS'ACAATC'
p705
I6067
sS'GATTTC'
p706
I10655
sS'GATTTA'
p707
I8199
sS'TCGACT'
p708
I1853
sS'CTGGTT'
p709
I12589
sS'TTGAGT'
p710
I9561
sS'CGAACG'
p711
I1584
sS'CGAACC'
p712
I2873
sS'CGAACA'
p713
I2185
sS'CGGNCC'
p714
I1
sS'CTGGTG'
p715
I17718
sS'CTGGTA'
p716
I7260
sS'CTGGTC'
p717
I12792
sS'CTGCAA'
p718
I14735
sS'CGAACT'
p719
I3058
sS'TTGCAT'
p720
I9813
sS'ATGATT'
p721
I9981
sS'TTGCAG'
p722
I14559
sS'TCCATA'
p723
I6150
sS'TTGCAC'
p724
I7837
sS'TTGCAA'
p725
I10308
sS'AAGATC'
p726
I7584
sS'ACGTAC'
p727
I1558
sS'GAGGGC'
p728
I21781
sS'TCGCAT'
p729
I1694
sS'GTCGTG'
p730
I2792
sS'GTCGTA'
p731
I1080
sS'GTCGTC'
p732
I2552
sS'GCGTCC'
p733
I7961
sS'CCGTTT'
p734
I4298
sS'GAGCAA'
p735
I11832
sS'ATATCG'
p736
I973
sS'GTCGTT'
p737
I1986
sS'TCGCAG'
p738
I5270
sS'GAGGGG'
p739
I28009
sS'TCGCAC'
p740
I2766
sS'CCGTTG'
p741
I2800
sS'CGCTGC'
p742
I12791
sS'CCGTTC'
p743
I3619
sS'GATCGG'
p744
I2190
sS'AATGCT'
p745
I11347
sS'GGTACG'
p746
I1568
sS'GGTACA'
p747
I5256
sS'GGTACC'
p748
I4293
sS'TATTTG'
p749
I12347
sS'CCAGTT'
p750
I11982
sS'TTCAGC'
p751
I13375
sS'TATTTC'
p752
I13756
sS'TATTTA'
p753
I15675
sS'CCCCCT'
p754
I20226
sS'GGTACT'
p755
I4705
sS'TCCAGG'
p756
I23806
sS'AATGCC'
p757
I10069
sS'GCCGTG'
p758
I6917
sS'CCCCCC'
p759
I14677
sS'CCCCCA'
p760
I22746
sS'TATTTT'
p761
I26834
sS'CCCCCG'
p762
I15551
sS'CTTGAG'
p763
I13104
sS'ATGATG'
p764
I9431
sS'GAAGTA'
p765
I7671
sS'ATGATA'
p766
I6121
sS'GCGTTA'
p767
I1750
sS'ATGATC'
p768
I5867
sS'TGCAAC'
p769
I7847
sS'TGCAAA'
p770
I14678
sS'TGCAAG'
p771
I10680
sS'GCCGTC'
p772
I5525
sS'ATCTGA'
p773
I10902
sS'CTTGAT'
p774
I7689
sS'CGAATC'
p775
I2110
sS'TTGAGG'
p776
I12160
sS'AATCTC'
p777
I9887
sS'TTGAGC'
p778
I9417
sS'TTGAGA'
p779
I13855
sS'GAGAAT'
p780
I12364
sS'TGTCTT'
p781
I14564
sS'AGTAGC'
p782
I7971
sS'AAGGCC'
p783
I13955
sS'ATAACC'
p784
I5311
sS'AAGGCA'
p785
I16367
sS'ATAACA'
p786
I8387
sS'AAGGCG'
p787
I7146
sS'ATAACG'
p788
I1595
sS'TCCATT'
p789
I12724
sS'TGTCTG'
p790
I15507
sS'GAGAAG'
p791
I20938
sS'GAGAAA'
p792
I23395
sS'TGTCTC'
p793
I15421
sS'GAGAAC'
p794
I10853
sS'TGTCTA'
p795
I7043
sS'TGTGGC'
p796
I16189
sS'TGTGGA'
p797
I13570
sS'TGTGGG'
p798
I17702
sS'ATAACT'
p799
I7222
sS'AGTAGG'
p800
I8245
sS'CTGTAA'
p801
I14137
sS'AGGTAT'
p802
I6428
sS'ACCAAG'
p803
I10636
sS'ACTGAA'
p804
I13321
sS'GCCCCC'
p805
I25673
sS'GGTCAA'
p806
I6494
sS'ACCAAC'
p807
I7273
sS'GGTCAC'
p808
I10306
sS'GATCGC'
p809
I3179
sS'GGTCAT'
p810
I6986
sS'ACCAAT'
p811
I7002
sS'GCCCCT'
p812
I21867
sS'GAACTG'
p813
I11925
sS'AGGTAA'
p814
I9427
sS'GATAGG'
p815
I5108
sS'TTTTGC'
p816
I13479
sS'TCTTAC'
p817
I7130
sS'AATTGG'
p818
I7418
sS'TCTTAA'
p819
I10975
sS'TTTTGG'
p820
I14560
sS'TCTTAG'
p821
I8565
sS'AATTGC'
p822
I7720
sS'TAGCCA'
p823
I8731
sS'TGGGGT'
p824
I15798
sS'TAGCCC'
p825
I6712
sS'GATAAT'
p826
I6575
sS'CGCTCA'
p827
I5508
sS'TAGCCG'
p828
I3026
sS'AATTGT'
p829
I9038
sS'CGAGAG'
p830
I6271
sS'AATCTT'
p831
I10130
sS'TCTTAT'
p832
I8286
sS'TTTTGT'
p833
I22340
sS'CGCTCT'
p834
I7757
sS'TGGGGG'
p835
I22650
sS'TCTCGT'
p836
I2953
sS'TAGCCT'
p837
I7703
sS'TGGGGC'
p838
I22557
sS'TGGGGA'
p839
I23727
sS'GATCCT'
p840
I8600
sS'AAGAAT'
p841
I14203
sS'CGAAGT'
p842
I2837
sS'CATTTG'
p843
I13531
sS'AAGAAC'
p844
I11272
sS'GATCCA'
p845
I7411
sS'AAGAAA'
p846
I30555
sS'GATCCC'
p847
I8296
sS'AAGAAG'
p848
I17755
sS'GATCCG'
p849
I3639
sS'GCCCCA'
p850
I22403
sS'ATGCCG'
p851
I2910
sS'TGTGGT'
p852
I14276
sS'CAAGGG'
p853
I13488
sS'CAAGGC'
p854
I14266
sS'GGTTCT'
p855
I10576
sS'CAAGGA'
p856
I14714
sS'GGCGCN'
p857
I1
sS'GGTTCA'
p858
I8568
sS'GGTTCC'
p859
I10998
sS'AAGGCT'
p860
I14433
sS'GGTTCG'
p861
I2872
sS'TAGGCA'
p862
I8048
sS'ATTATA'
p863
I8346
sS'ATTATC'
p864
I6364
sS'TAGAAT'
p865
I8930
sS'GATAGT'
p866
I3814
sS'ATTATG'
p867
I7258
sS'AGTCTT'
p868
I10898
sS'TAGAAA'
p869
I14648
sS'TAGAAC'
p870
I6320
sS'ATTATT'
p871
I13861
sS'TAGAAG'
p872
I9574
sS'AGTCTA'
p873
I5722
sS'AGTCTC'
p874
I12399
sS'AGTCTG'
p875
I12081
sS'TAACTC'
p876
I6801
sS'TAACTA'
p877
I5462
sS'TAACTG'
p878
I8233
sS'ATCTAT'
p879
I5983
sS'ACGCGT'
p880
I1759
sS'GCCCCG'
p881
I24951
sS'NNNCAC'
p882
I1
sS'TAACTT'
p883
I9177
sS'ATCTAG'
p884
I6196
sS'ATCTAC'
p885
I5129
sS'ATCTAA'
p886
I6625
sS'GTCGGA'
p887
I2885
sS'GGTCAG'
p888
I13854
sS'CCATGT'
p889
I10899
sS'ACCAAA'
p890
I11465
sS'TGGAGG'
p891
I23251
sS'TGGAGA'
p892
I19645
sS'TGGAGC'
p893
I16460
sS'CCATGC'
p894
I9626
sS'CCATGA'
p895
I9864
sS'CCATGG'
p896
I12490
sS'TGGAGT'
p897
I14702
sS'ATTACG'
p898
I1472
sS'TCAGTA'
p899
I8018
sS'TCAGTC'
p900
I10274
sS'CTCTCT'
p901
I26758
sS'GGGGAT'
p902
I10134
sS'TCAGTG'
p903
I14034
sS'CGATAT'
p904
I957
sS'GGGGAA'
p905
I20676
sS'GGGGAC'
p906
I15631
sS'CTCTCC'
p907
I26255
sS'TCAGTT'
p908
I12537
sS'CTCTCA'
p909
I15268
sS'CGATAG'
p910
I1156
sS'CGATAA'
p911
I1315
sS'CGATAC'
p912
I996
sS'AGCCTG'
p913
I25035
sS'CTAAGG'
p914
I8448
sS'GTGTTT'
p915
I14293
sS'GCTACT'
p916
I7928
sS'GTGGTT'
p917
I11144
sS'CTAAGA'
p918
I8645
sS'GTGTTC'
p919
I8502
sS'GTGTTA'
p920
I6492
sS'GTGTTG'
p921
I9355
sS'CGTGCC'
p922
I6072
sS'GTGGTA'
p923
I6430
sS'GCTACA'
p924
I6482
sS'GTGGTC'
p925
I8604
sS'GCTACC'
p926
I5746
sS'GTGGTG'
p927
I16423
sS'GCTACG'
p928
I2338
sS'CGTGCA'
p929
I4422
sS'TTTCGT'
p930
I2973
sS'TGCCCT'
p931
I19013
sS'AGCGTT'
p932
I3274
sS'CGTGCG'
p933
I4756
sS'CACGGA'
p934
I5056
sS'TTTCGC'
p935
I3186
sS'TGCCCG'
p936
I8891
sS'TTTCGG'
p937
I3598
sS'GAGTTA'
p938
I6601
sS'AGCGTA'
p939
I1526
sS'AGCGTC'
p940
I4480
sS'AGCGTG'
p941
I5139
sS'GGCCCC'
p942
I25463
sS'GGCCCA'
p943
I17288
sS'CACGTG'
p944
I8164
sS'GGCCCG'
p945
I15491
sS'CACGTA'
p946
I2547
sS'CACGTC'
p947
I4534
sS'CTACGC'
p948
I2275
sS'CTACGA'
p949
I1642
sS'CTACGG'
p950
I2503
sS'ACAGTC'
p951
I8960
sS'CACGTT'
p952
I4099
sS'CTAAGT'
p953
I7051
sS'GNCCCA'
p954
I1
sS'GGCCCT'
p955
I18325
sS'GGGACA'
p956
I14747
sS'AATTGA'
p957
I7869
sS'GGGACC'
p958
I14381
sS'AGGGAC'
p959
I14674
sS'TCGTGG'
p960
I4209
sS'CTACGT'
p961
I2167
sS'AGAGAG'
p962
I26892
sS'AGAGAA'
p963
I23737
sS'AGAGAC'
p964
I15085
sS'TCTATA'
p965
I5630
sS'GTCTTT'
p966
I12379
sS'TCTATC'
p967
I5607
sS'TCTATG'
p968
I6365
sS'AGAGAT'
p969
I13157
sS'TCGTGC'
p970
I2953
sS'GTCTTG'
p971
I9890
sS'TCTATT'
p972
I9085
sS'GTCTTC'
p973
I10686
sS'GTCTTA'
p974
I6038
sS'GCAGAG'
p975
I25045
sS'GCTCAA'
p976
I9323
sS'GCTCAC'
p977
I14200
sS'GCAGAC'
p978
I10409
sS'GCAGAA'
p979
I16293
sS'GCTCAG'
p980
I19362
sS'ATGCGT'
p981
I2306
sS'TTGCTG'
p982
I15348
sS'TTGCTA'
p983
I7977
sS'TTGCTC'
p984
I11783
sS'GCAGAT'
p985
I10590
sS'GCTCAT'
p986
I9021
sS'GTACGG'
p987
I1585
sS'TTGCTT'
p988
I15346
sS'ATGCGG'
p989
I3180
sS'GAGAGG'
p990
I25234
sS'CGCTCC'
p991
I12408
sS'ATGCGC'
p992
I3435
sS'ATGCGA'
p993
I1731
sS'TGTAAG'
p994
I7972
sS'GGCTAG'
p995
I7241
sS'TGTAAC'
p996
I6856
sS'GGCTAC'
p997
I6045
sS'TGTAAA'
p998
I13294
sS'GGCTAA'
p999
I7696
sS'TTCGAG'
p1000
I3598
sS'TTGGTA'
p1001
I6262
sS'ACTGTC'
p1002
I8868
sS'TTGGTC'
p1003
I7806
sS'TTCGAC'
p1004
I1390
sS'TTCGAA'
p1005
I2314
sS'GTTTGG'
p1006
I11145
sS'GGAACC'
p1007
I10880
sS'GGCTAT'
p1008
I5030
sS'TGTAAT'
p1009
I12272
sS'GACTGG'
p1010
I12771
sS'TTCGAT'
p1011
I1610
sS'TTGGTT'
p1012
I10950
sS'ACTGTT'
p1013
I10182
sS'GTTTCT'
p1014
I16994
sS'GAATGA'
p1015
I13943
sS'ATAATT'
p1016
I11311
sS'CCTTTT'
p1017
I19180
sS'GTTTCG'
p1018
I2857
sS'GTTTCC'
p1019
I15601
sS'GTTTCA'
p1020
I12506
sS'ATAATG'
p1021
I8174
sS'CCTTTA'
p1022
I10696
sS'CCTTTC'
p1023
I19781
sS'ATAATC'
p1024
I6312
sS'ATAATA'
p1025
I10396
sS'CCTTTG'
p1026
I16147
sS'ACAGAA'
p1027
I17972
sS'CTCTCG'
p1028
I6238
sS'ACAGAC'
p1029
I11462
sS'GATAAC'
p1030
I4375
sS'ACAGAG'
p1031
I20590
sS'TTATCT'
p1032
I10405
sS'CTGGAC'
p1033
I13041
sS'CTGGAA'
p1034
I21854
sS'CTGGAG'
p1035
I28164
sS'ACAGAT'
p1036
I11205
sS'TTATCG'
p1037
I1276
sS'CCTTGC'
p1038
I12616
sS'TTATCA'
p1039
I8017
sS'CTGGAT'
p1040
I11535
sS'TTATCC'
p1041
I6491
sS'CCAATG'
p1042
I8201
sS'AAACCG'
p1043
I3764
sS'AAACCA'
p1044
I15301
sS'CCAATC'
p1045
I8403
sS'AAACCC'
p1046
I13079
sS'CCAATA'
p1047
I6133
sS'TGTCGG'
p1048
I3314
sS'GAGATC'
p1049
I8578
sS'CCCTAT'
p1050
I5653
sS'GAGATA'
p1051
I7390
sS'TGTCGC'
p1052
I3992
sS'GAGATG'
p1053
I14027
sS'AACGAC'
p1054
I1988
sS'AAACCT'
p1055
I12462
sS'CCAATT'
p1056
I7391
sS'ATTTGC'
p1057
I10208
sS'GGGTAT'
p1058
I4399
sS'ATTTGG'
p1059
I11918
sS'CCCTAG'
p1060
I10016
sS'TGTCGT'
p1061
I2208
sS'CCCTAC'
p1062
I7938
sS'GAGATT'
p1063
I9905
sS'CCCTAA'
p1064
I8352
sS'CATTAT'
p1065
I8088
sS'TGGATT'
p1066
I10474
sS'ATCACA'
p1067
I10720
sS'ATCACC'
p1068
I8847
sS'CATGCT'
p1069
I10500
sS'TGACAC'
p1070
I9621
sS'TGACAA'
p1071
I10038
sS'TGGATA'
p1072
I6605
sS'CATTAG'
p1073
I6764
sS'CATTAA'
p1074
I8884
sS'CATTAC'
p1075
I6006
sS'CATGCA'
p1076
I10108
sS'TGACAT'
p1077
I10024
sS'CATGCC'
p1078
I11659
sS'ATCACT'
p1079
I10118
sS'AATTAG'
p1080
I9414
sS'AACCTG'
p1081
I12339
sS'GTAGAA'
p1082
I7765
sS'GTAGAC'
p1083
I4074
sS'GTAGAG'
p1084
I9087
sS'ACAACA'
p1085
I11030
sS'ACAACC'
p1086
I7328
sS'GCATGA'
p1087
I9051
sS'GATTGC'
p1088
I5987
sS'ACAACG'
p1089
I2323
sS'ACTAAG'
p1090
I6920
sS'GTAGAT'
p1091
I5131
sS'TGCTAC'
p1092
I5957
sS'GGGTAC'
p1093
I4220
sS'TGATGC'
p1094
I7783
sS'GATCAA'
p1095
I5604
sS'TTCAGT'
p1096
I13098
sS'ACAACT'
p1097
I8303
sS'ATACGC'
p1098
I1277
sS'TAATAG'
p1099
I6162
sS'AGTCCG'
p1100
I3844
sS'TAATAC'
p1101
I5489
sS'GTCCGA'
p1102
I2546
sS'TAATAA'
p1103
I12265
sS'GTCCGC'
p1104
I5710
sS'TGTTTA'
p1105
I12949
sS'GACTGC'
p1106
I10193
sS'GANTGG'
p1107
I1
sS'CACATC'
p1108
I9988
sS'GTCCGT'
p1109
I2740
sS'TAATAT'
p1110
I8612
sS'CGTAAC'
p1111
I1422
sS'ATTCGC'
p1112
I1945
sS'TTCTCC'
p1113
I21767
sS'TGAACT'
p1114
I11092
sS'TTCTCA'
p1115
I17931
sS'ATCCAT'
p1116
I7345
sS'TTCTCG'
p1117
I4426
sS'TCGTAC'
p1118
I979
sS'TACCTT'
p1119
I7712
sS'TCGTAA'
p1120
I1421
sS'TCGTAG'
p1121
I1691
sS'GAACCT'
p1122
I8962
sS'ATCCAA'
p1123
I8087
sS'ATCCAC'
p1124
I8299
sS'TGAACC'
p1125
I8744
sS'TTCTCT'
p1126
I23724
sS'TGAACA'
p1127
I10913
sS'GAACCC'
p1128
I10176
sS'GAACCA'
p1129
I9739
sS'TACCTA'
p1130
I5270
sS'TACCTC'
p1131
I7337
sS'TCGTAT'
p1132
I1220
sS'ACCATC'
p1133
I7442
sS'ACCATA'
p1134
I5146
sS'ACCATG'
p1135
I9867
sS'ATGTTG'
p1136
I9863
sS'AGCTCT'
p1137
I16273
sS'TGTCCT'
p1138
I14990
sS'AGTGGT'
p1139
I10513
sS'CGTGGT'
p1140
I5453
sS'AGATGT'
p1141
I10097
sS'TGATGT'
p1142
I9672
sS'CTGTGG'
p1143
I21349
sS'ACCATT'
p1144
I7940
sS'AGTGGA'
p1145
I12934
sS'AGTGGC'
p1146
I15194
sS'AGCTCC'
p1147
I19131
sS'AGCTCA'
p1148
I14703
sS'GGCCTT'
p1149
I13846
sS'CAGTAA'
p1150
I9527
sS'CAGTAC'
p1151
I5721
sS'CAGTAG'
p1152
I8914
sS'TTAATA'
p1153
I10180
sS'CAGTAT'
p1154
I6985
sS'AAAGTA'
p1155
I11633
sS'AAAGTC'
p1156
I10987
sS'CCGGCT'
p1157
I11832
sS'GATCTA'
p1158
I4094
sS'GATCTC'
p1159
I8429
sS'ATTGAC'
p1160
I4993
sS'GATCTG'
p1161
I9354
sS'TCCCTT'
p1162
I18706
sS'CCGGCC'
p1163
I20142
sS'ATTAGG'
p1164
I6377
sS'CCGGCG'
p1165
I12894
sS'CACATT'
p1166
I12781
sS'ATTAGC'
p1167
I6828
sS'TCCCTC'
p1168
I24926
sS'TGTCCG'
p1169
I3920
sS'TCCCTA'
p1170
I9558
sS'TGCCAC'
p1171
I14804
sS'TCCCTG'
p1172
I25005
sS'GATCTT'
p1173
I7593
sS'CACAAT'
p1174
I8795
sS'AAGTGC'
p1175
I12231
sS'TGTTCT'
p1176
I14424
sS'AAGTGG'
p1177
I13110
sS'TGATTG'
p1178
I8959
sS'TGCGCA'
p1179
I5679
sS'TCTGAT'
p1180
I10732
sS'AGACTC'
p1181
I11342
sS'TGTTCA'
p1182
I10761
sS'CACAAG'
p1183
I11681
sS'TGTTCC'
p1184
I12202
sS'CACAAA'
p1185
I15441
sS'CACAAC'
p1186
I8377
sS'TGTTCG'
p1187
I2224
sS'TCTGAA'
p1188
I15933
sS'TGATTT'
p1189
I14704
sS'AGACTA'
p1190
I6080
sS'TCTGAG'
p1191
I18489
sS'CGCGCC'
p1192
I16970
sS'CGCGCA'
p1193
I6884
sS'GGTAAA'
p1194
I8163
sS'CGCGCG'
p1195
I14865
sS'CTCCCT'
p1196
I30318
sS'AGCGGG'
p1197
I10726
sS'AGCGGA'
p1198
I6106
sS'ACCTCT'
p1199
I13678
sS'AGATGA'
p1200
I13924
sS'GACATT'
p1201
I9187
sS'CGCGCT'
p1202
I8136
sS'ACCTCC'
p1203
I17039
sS'ACCTCA'
p1204
I13601
sS'CTATTG'
p1205
I5874
sS'CTCCCA'
p1206
I27781
sS'CTCCCC'
p1207
I31880
sS'GCCTCT'
p1208
I20797
sS'TAAGCC'
p1209
I7098
sS'TAGCTC'
p1210
I7305
sS'CCCATG'
p1211
I10647
sS'CGGGAA'
p1212
I8750
sS'CCCATA'
p1213
I5861
sS'TAGCTG'
p1214
I10856
sS'CCCATC'
p1215
I12980
sS'TTGTTG'
p1216
I11190
sS'CCTGCT'
p1217
I23288
sS'GTCTAT'
p1218
I4400
sS'ANTGGA'
p1219
I1
sS'CCGAAT'
p1220
I2339
sS'CCCATT'
p1221
I11589
sS'CGGGAT'
p1222
I4466
sS'GCCTCG'
p1223
I10933
sS'GCCTCA'
p1224
I18136
sS'TAAGCT'
p1225
I6778
sS'GCCTCC'
p1226
I32021
sS'CCGAAC'
p1227
I2985
sS'CCTGCG'
p1228
I11965
sS'CCGAAA'
p1229
I3507
sS'CCGAAG'
p1230
I5287
sS'CCTGCC'
p1231
I31313
sS'CCTGCA'
p1232
I20128
sS'GTACTG'
p1233
I5634
sS'CAAGGT'
p1234
I10953
sS'CCATTC'
p1235
I11310
sS'CCATTA'
p1236
I6735
sS'TATAAA'
p1237
I12646
sS'TATAAC'
p1238
I4558
sS'GCNNNN'
p1239
I1
sS'GATTTG'
p1240
I9774
sS'TATAAT'
p1241
I8515
sS'GTCGAA'
p1242
I1461
sS'CCATTT'
p1243
I15264
sS'TCTACA'
p1244
I7784
sS'TCTACC'
p1245
I7210
sS'TCTACG'
p1246
I1821
sS'ACTTTC'
p1247
I12509
sS'CGCAAC'
p1248
I2498
sS'TGCTTA'
p1249
I8770
sS'CGCAAA'
p1250
I3256
sS'ATACCG'
p1251
I1303
sS'CGCAAG'
p1252
I3806
sS'ATACCA'
p1253
I6171
sS'ATACCC'
p1254
I4552
sS'TCTACT'
p1255
I8866
sS'CCGAGT'
p1256
I5269
sS'ATACCT'
p1257
I6288
sS'CGCAAT'
p1258
I1832
sS'TAGTAA'
p1259
I6603
sS'TGGGTG'
p1260
I19080
sS'TAGTAC'
p1261
I3282
sS'CTCAAG'
p1262
I13095
sS'GTTTTG'
p1263
I14278
sS'CTCAAA'
p1264
I15657
sS'TAGTAG'
p1265
I5530
sS'CTCAAC'
p1266
I8397
sS'GTGTGC'
p1267
I11488
sS'GTGTGA'
p1268
I12568
sS'GTGTGG'
p1269
I16166
sS'TAACGG'
p1270
I1727
sS'TTGCGT'
p1271
I2489
sS'CTCAAT'
p1272
I7751
sS'TAGTAT'
p1273
I4496
sS'GTTCTC'
p1274
I10997
sS'GTGTGT'
p1275
I29390
sS'ATCTTT'
p1276
I12924
sS'GTTGGG'
p1277
I11531
sS'GTTGGA'
p1278
I8530
sS'GTTGGC'
p1279
I8719
sS'CCTTGG'
p1280
I17290
sS'CCTTGA'
p1281
I11375
sS'GCGTAT'
p1282
I1264
sS'AGGATT'
p1283
I11435
sS'GGACGT'
p1284
I3625
sS'CTAAGC'
p1285
I7248
sS'GTTGGT'
p1286
I7226
sS'ATCTTG'
p1287
I9537
sS'GAGAGT'
p1288
I10323
sS'ATCTTA'
p1289
I6967
sS'ATCTTC'
p1290
I9691
sS'CCTTGT'
p1291
I11573
sS'AGGATA'
p1292
I7138
sS'AGGATG'
p1293
I13715
sS'GACATG'
p1294
I8000
sS'GACATC'
p1295
I6903
sS'GACATA'
p1296
I5231
sS'TCGGCG'
p1297
I5053
sS'GAATAT'
p1298
I7648
sS'GGTGCA'
p1299
I10083
sS'TCGGCC'
p1300
I8649
sS'ATCAGA'
p1301
I10673
sS'TTGCGA'
p1302
I1915
sS'TTGCGC'
p1303
I3304
sS'TTGCGG'
p1304
I3821
sS'GAATAG'
p1305
I6211
sS'TCGGCT'
p1306
I6037
sS'ATCAGC'
p1307
I8908
sS'GAATAC'
p1308
I5066
sS'GAATAA'
p1309
I9888
sS'TGCCTG'
p1310
I23256
sS'CACCGC'
p1311
I10489
sS'TGCAGA'
p1312
I16681
sS'CGACAG'
p1313
I4503
sS'GACCTT'
p1314
I9049
sS'TGCCTC'
p1315
I19591
sS'TTATAA'
p1316
I10484
sS'GAAATG'
p1317
I17541
sS'AATGAT'
p1318
I9976
sS'GAAATA'
p1319
I13748
sS'GAAATC'
p1320
I10493
sS'ACCGGT'
p1321
I2107
sS'GAAATT'
p1322
I12990
sS'AATGAA'
p1323
I17994
sS'AATGAC'
p1324
I10579
sS'AATGAG'
p1325
I14886
sS'TCATTG'
p1326
I10005
sS'TCAGCA'
p1327
I15614
sS'TGCACT'
p1328
I11488
sS'CTTGGC'
p1329
I15857
sS'GTATTG'
p1330
I4692
sS'GTCCTT'
p1331
I10601
sS'CTTGGG'
p1332
I16893
sS'AGCCCT'
p1333
I18672
sS'GGGAAT'
p1334
I11343
sS'TTGAAT'
p1335
I10678
sS'GTCCTA'
p1336
I5476
sS'GTCCTC'
p1337
I12874
sS'TGCACG'
p1338
I4405
sS'CTTTTA'
p1339
I14538
sS'GTCCTG'
p1340
I15287
sS'TGCACC'
p1341
I10178
sS'TTGAAA'
p1342
I16177
sS'TTGAAC'
p1343
I8889
sS'AGCCCA'
p1344
I18784
sS'AGCCCC'
p1345
I22443
sS'CTTATG'
p1346
I5955
sS'ATAAAT'
p1347
I16406
sS'TGGTCG'
p1348
I2831
sS'TGGTCA'
p1349
I10377
sS'TGGTCC'
p1350
I9322
sS'ACGATT'
p1351
I1845
sS'GAGACT'
p1352
I12511
sS'GATTCA'
p1353
I9563
sS'TGGTCT'
p1354
I12462
sS'ATAAAG'
p1355
I11585
sS'CCTGTG'
p1356
I19917
sS'ATAAAA'
p1357
I20857
sS'ATGGTG'
p1358
I11422
sS'ATAAAC'
p1359
I9375
sS'GAGACG'
p1360
I6850
sS'ACGATG'
p1361
I2435
sS'CTACAG'
p1362
I10053
sS'GAGACC'
p1363
I13166
sS'ACGATC'
p1364
I1591
sS'GAGACA'
p1365
I15521
sS'ACGATA'
p1366
I1094
sS'GGTTAC'
p1367
I4848
sS'ATGTGT'
p1368
I12201
sS'GGTTAA'
p1369
I6622
sS'GACGTC'
p1370
I3893
sS'GCACTT'
p1371
I12197
sS'CTTCCT'
p1372
I30455
sS'GAGGAC'
p1373
I12656
sS'CGTGAA'
p1374
I3538
sS'CTCAGT'
p1375
I15068
sS'TCCGCT'
p1376
I5963
sS'CTTCCA'
p1377
I18159
sS'CTTCCC'
p1378
I27707
sS'ACCACC'
p1379
I12486
sS'CGTATG'
p1380
I1424
sS'ACCACA'
p1381
I14257
sS'GGTTAT'
p1382
I5212
sS'TCCGCC'
p1383
I13112
sS'TCCGCA'
p1384
I4983
sS'TCCGCG'
p1385
I6934
sS'AACGTC'
p1386
I2582
sS'AACGTA'
p1387
I1945
sS'AACGTG'
p1388
I4136
sS'CGTGAC'
p1389
I4405
sS'AGTGTG'
p1390
I13110
sS'TCTTCG'
p1391
I3518
sS'AGTGTA'
p1392
I6169
sS'TCTTCA'
p1393
I14778
sS'AGTGTC'
p1394
I9153
sS'TCTTCC'
p1395
I21288
sS'TAAGTG'
p1396
I8630
sS'TAAGTC'
p1397
I5878
sS'AACGTT'
p1398
I2941
sS'GCTCGC'
p1399
I7877
sS'TCTTCT'
p1400
I18556
sS'AGTGTT'
p1401
I10577
sS'ANNNNN'
p1402
I1
sS'GTGCGC'
p1403
I7120
sS'TTGGCA'
p1404
I11832
sS'AAAGGT'
p1405
I11367
sS'TTGGCC'
p1406
I13823
sS'GCTCGA'
p1407
I2765
sS'ACTTGG'
p1408
I12014
sS'TTAACG'
p1409
I1810
sS'TTGGCG'
p1410
I4294
sS'GACTTC'
p1411
I10295
sS'CGCCGG'
p1412
I12571
sS'GACTTA'
p1413
I5883
sS'GACTTG'
p1414
I9720
sS'ACGTCA'
p1415
I3867
sS'AAAGGG'
p1416
I17456
sS'AAAGGA'
p1417
I21115
sS'TTGGCT'
p1418
I14815
sS'AAAGGC'
p1419
I14961
sS'GAGTAC'
p1420
I4051
sS'GTCGAT'
p1421
I1153
sS'GACTTT'
p1422
I11036
sS'TTCTTT'
p1423
I28759
sS'TGAAAA'
p1424
I20708
sS'CAAGAA'
p1425
I14373
sS'AGCGAG'
p1426
I7792
sS'CAAGAC'
p1427
I9930
sS'GATTCG'
p1428
I2140
sS'CAAGAG'
p1429
I13874
sS'TTCTTG'
p1430
I14565
sS'TTCTTC'
p1431
I18725
sS'TTCTTA'
p1432
I12642
sS'CAAGAT'
p1433
I9836
sS'CCCGAT'
p1434
I2501
sS'TACGGG'
p1435
I2094
sS'TACGGA'
p1436
I1878
sS'TACGGC'
p1437
I1909
sS'CTCAGA'
p1438
I18629
sS'TAGAGT'
p1439
I6492
sS'TACGGT'
p1440
I1598
sS'GAGTAT'
p1441
I4724
sS'AGGGCG'
p1442
I13035
sS'AGGGCA'
p1443
I19184
sS'CCCGAC'
p1444
I6262
sS'TCGAGA'
p1445
I3469
sS'AGTTCG'
p1446
I3037
sS'TAGAGA'
p1447
I11810
sS'GGCGAG'
p1448
I10353
sS'GGCGAA'
p1449
I4238
sS'GTGCTG'
p1450
I18262
sS'GTGCTA'
p1451
I5978
sS'ATCTGT'
p1452
I11085
sS'GTGCTC'
p1453
I10122
sS'CAATTC'
p1454
I7967
sS'TAGGAC'
p1455
I5556
sS'ACCACT'
p1456
I10546
sS'GTGCTT'
p1457
I10725
sS'ATCTGC'
p1458
I10285
sS'CGAATA'
p1459
I1396
sS'CGAATG'
p1460
I2590
sS'ATCTGG'
p1461
I11463
sS'ATCATA'
p1462
I6146
sS'GATAGC'
p1463
I3649
sS'ATCATC'
p1464
I7505
sS'GATAGA'
p1465
I5446
sS'AAGCAA'
p1466
I15302
sS'CAAACT'
p1467
I11975
sS'ATCATG'
p1468
I7919
sS'TTTACC'
p1469
I8229
sS'CATTTC'
p1470
I17497
sS'CTAGGT'
p1471
I7044
sS'CATTTA'
p1472
I13354
sS'ACGCAT'
p1473
I2256
sS'GTTATC'
p1474
I4273
sS'GTTATA'
p1475
I4482
sS'CAAACA'
p1476
I15669
sS'AAGCAT'
p1477
I9880
sS'CAAACC'
p1478
I10727
sS'CATATT'
p1479
I9038
sS'ATCATT'
p1480
I10027
sS'CAAACG'
p1481
I3699
sS'ACGCAG'
p1482
I5936
sS'CTAGGG'
p1483
I9968
sS'GTTATT'
p1484
I8450
sS'CTAGGC'
p1485
I8636
sS'CATTTT'
p1486
I23149
sS'CTAGGA'
p1487
I9810
sS'AAGTTT'
p1488
I13375
sS'TACAGT'
p1489
I8401
sS'CTCGAA'
p1490
I3547
sS'GTGGCG'
p1491
I9567
sS'CGGGGA'
p1492
I14351
sS'GGGGCT'
p1493
I22476
sS'TACAGG'
p1494
I11903
sS'AAGTTG'
p1495
I9519
sS'AAGTTA'
p1496
I9092
sS'CAGTTA'
p1497
I8349
sS'AAGTTC'
p1498
I9629
sS'TACAGA'
p1499
I10633
sS'GGGGCC'
p1500
I26003
sS'GTATGA'
p1501
I5142
sS'GGGGCA'
p1502
I18686
sS'GGGGCG'
p1503
I28840
sS'ACAGTG'
p1504
I14283
sS'TATATC'
p1505
I4335
sS'TATATA'
p1506
I11009
sS'TGTATA'
p1507
I6710
sS'TATATG'
p1508
I6406
sS'TCCGGT'
p1509
I3835
sS'TATATT'
p1510
I10027
sS'TGATGG'
p1511
I9888
sS'CATATG'
p1512
I6222
sS'ATGAGT'
p1513
I11956
sS'AGGTCT'
p1514
I10830
sS'TGATGA'
p1515
I11401
sS'AGCATG'
p1516
I10519
sS'TGCCAT'
p1517
I11365
sS'ACTCTT'
p1518
I10659
sS'TGTTTC'
p1519
I15827
sS'CACATA'
p1520
I9009
sS'TTAATT'
p1521
I13152
sS'CACATG'
p1522
I12127
sS'TTTCAT'
p1523
I16745
sS'ATGAGA'
p1524
I12068
sS'ATGAGC'
p1525
I8896
sS'AGTAAC'
p1526
I6706
sS'ATGAGG'
p1527
I12164
sS'TTTCAC'
p1528
I14004
sS'ACTCTG'
p1529
I15195
sS'TTTCAA'
p1530
I16011
sS'ACTCTA'
p1531
I6508
sS'AGACCA'
p1532
I12494
sS'ACTCTC'
p1533
I10317
sS'TTAATG'
p1534
I9177
sS'AAATTC'
p1535
I13651
sS'GACTGA'
p1536
I10190
sS'AAATTA'
p1537
I16833
sS'AAATTG'
p1538
I11104
sS'CCAGTA'
p1539
I7630
sS'TTCAAT'
p1540
I8717
sS'AGACCG'
p1541
I4041
sS'CGTACC'
p1542
I1678
sS'TTAATC'
p1543
I7015
sS'AAATTT'
p1544
I17252
sS'CTTAGT'
p1545
I6822
sS'CGTCTA'
p1546
I1744
sS'GGGAAC'
p1547
I12107
sS'GGTGCG'
p1548
I6976
sS'GGGAAA'
p1549
I22747
sS'GGGAAG'
p1550
I28174
sS'GGTGCC'
p1551
I13331
sS'TCGTCC'
p1552
I3605
sS'GCCCAT'
p1553
I8716
sS'AGAGCG'
p1554
I7702
sS'GCGACT'
p1555
I3627
sS'AGCGAT'
p1556
I3092
sS'AGAGCC'
p1557
I17380
sS'AGAGCA'
p1558
I16658
sS'GCGTAG'
p1559
I2282
sS'GGTGCT'
p1560
I12405
sS'GCGTAC'
p1561
I1446
sS'GCGTAA'
p1562
I1524
sS'GCGACG'
p1563
I3710
sS'AGAGCT'
p1564
I16197
sS'GCGACA'
p1565
I3890
sS'TATCGG'
p1566
I1129
sS'GCGACC'
p1567
I5087
sS'AGGTCG'
p1568
I3826
sS'GCAGGA'
p1569
I22505
sS'GCAGGC'
p1570
I21182
sS'GCAGGG'
p1571
I27923
sS'CAATTT'
p1572
I11125
sS'GCACTA'
p1573
I5051
sS'CCGTGC'
p1574
I6074
sS'GCTCGG'
p1575
I9562
sS'TATTCT'
p1576
I10139
sS'CCGTGG'
p1577
I7533
sS'CTTTAG'
p1578
I8903
sS'GCAGGT'
p1579
I15159
sS'TGAAGC'
p1580
I11512
sS'TATTCC'
p1581
I7857
sS'CAATTG'
p1582
I5524
sS'TATTCA'
p1583
I9701
sS'CAATTA'
p1584
I7165
sS'TATTCG'
p1585
I1343
sS'GGCGAC'
p1586
I6307
sS'TGTAGA'
p1587
I7794
sS'GGCTCA'
p1588
I18112
sS'TGTAGC'
p1589
I6535
sS'TTTACA'
p1590
I13072
sS'TTTACG'
p1591
I2207
sS'TGTAGG'
p1592
I7587
sS'GGCTCG'
p1593
I7923
sS'TTCGGA'
p1594
I2994
sS'TTCGGC'
p1595
I3765
sS'CTTTAC'
p1596
I7962
sS'TTCAAG'
p1597
I12908
sS'TTCGGG'
p1598
I4708
sS'ATTGTC'
p1599
I6514
sS'AACTTA'
p1600
I7454
sS'GGCTCT'
p1601
I17580
sS'TTTCAG'
p1602
I18250
sS'TTTACT'
p1603
I12072
sS'AGCATA'
p1604
I6083
sS'ATTGTA'
p1605
I6825
sS'TTCGGT'
p1606
I2619
sS'GTTTAT'
p1607
I9422
sS'GGGGAG'
p1608
I32137
sS'GCACTC'
p1609
I10572
sS'GCCTTT'
p1610
I15125
sS'GTTTAA'
p1611
I9111
sS'GAGGTG'
p1612
I19011
sS'CACGAA'
p1613
I2974
sS'CGAATT'
p1614
I2042
sS'GTTTAG'
p1615
I6691
sS'TCCAGA'
p1616
I16671
sS'CTGGCT'
p1617
I23582
sS'AGGCGG'
p1618
I17691
sS'AGGCGA'
p1619
I5707
sS'AGGCGC'
p1620
I11348
sS'AGGAGT'
p1621
I14625
sS'ACAGCC'
p1622
I16170
sS'GATAAA'
p1623
I9498
sS'ACAGCA'
p1624
I16399
sS'GAGGTC'
p1625
I11874
sS'ACAGCG'
p1626
I6220
sS'AGGAGC'
p1627
I19593
sS'AGGCGT'
p1628
I6308
sS'AGGAGA'
p1629
I23116
sS'CTGGCG'
p1630
I10461
sS'AGGAGG'
p1631
I34118
sS'CTGGCA'
p1632
I18205
sS'CTGGCC'
p1633
I25272
sS'GCATCG'
p1634
I2523
sS'GGGGAN'
p1635
I1
sS'ACAGCT'
p1636
I14632
sS'GCTCTC'
p1637
I14983
sS'ATTGGT'
p1638
I6855
sS'AATTTT'
p1639
I20510
sS'TGTCAA'
p1640
I8304
sS'TGTCAC'
p1641
I11521
sS'CCCTCT'
p1642
I24274
sS'GGAAAC'
p1643
I15527
sS'ATTTAT'
p1644
I16481
sS'ATTGGG'
p1645
I7059
sS'AATTTA'
p1646
I13245
sS'AATTTC'
p1647
I13087
sS'AACGCC'
p1648
I4072
sS'ATTGGA'
p1649
I7614
sS'AATTTG'
p1650
I11693
sS'CCCTCA'
p1651
I16658
sS'ATTTAA'
p1652
I15884
sS'ATTTAG'
p1653
I9061
sS'CCCTCG'
p1654
I9647
sS'TAAATA'
p1655
I15582
sS'CACGAT'
p1656
I2371
sS'CAATAT'
p1657
I6715
sS'TGACCA'
p1658
I10653
sS'CATTCT'
p1659
I14707
sS'GCCTTG'
p1660
I14125
sS'TGACCG'
p1661
I3311
sS'NGATCC'
p1662
I1
sS'CATTCG'
p1663
I2509
sS'CATTCC'
p1664
I14486
sS'CATTCA'
p1665
I13108
sS'ACGAAA'
p1666
I2926
sS'CGCTAT'
p1667
I1581
sS'ACAAAT'
p1668
I13166
sS'GATTAA'
p1669
I7059
sS'GTAGGC'
p1670
I5605
sS'GATTAC'
p1671
I7328
sS'GTAGGA'
p1672
I7502
sS'GTAGGG'
p1673
I7982
sS'GATTAG'
p1674
I5221
sS'GCGGGT'
p1675
I7907
sS'ACAAAC'
p1676
I11967
sS'ACAAAA'
p1677
I22151
sS'ACAAAG'
p1678
I15708
sS'GCGGGC'
p1679
I18894
sS'GTCGGT'
p1680
I2438
sS'GCGGGA'
p1681
I13798
sS'GCGGGG'
p1682
I30953
sS'GATTAT'
p1683
I6245
sS'GTAGGT'
p1684
I6159
sS'CAATAC'
p1685
I4753
sS'TAATGA'
p1686
I9527
sS'GATGTT'
p1687
I8151
sS'TAATGC'
p1688
I5931
sS'GGAGAT'
p1689
I11238
sS'GCCCTT'
p1690
I14095
sS'CAATAA'
p1691
I9371
sS'GCCCTC'
p1692
I22001
sS'GATGTG'
p1693
I10034
sS'GCCCTA'
p1694
I7012
sS'GATGTA'
p1695
I4972
sS'GCCCTG'
p1696
I25961
sS'GATGTC'
p1697
I6961
sS'CAATAG'
p1698
I5735
sS'TGAAAT'
p1699
I16808
sS'TTCTAG'
p1700
I10375
sS'TTCTAA'
p1701
I12190
sS'ATCCGT'
p1702
I2066
sS'TTCTAC'
p1703
I7747
sS'GAATGT'
p1704
I10731
sS'TGAAAC'
p1705
I12495
sS'TGAAAG'
p1706
I15354
sS'TTCTAT'
p1707
I9294
sS'ATCCGC'
p1708
I3612
sS'ATCCGA'
p1709
I2015
sS'ATCCGG'
p1710
I3504
sS'TGGCTC'
p1711
I19337
sS'TGGCTA'
p1712
I8857
sS'TGGCTG'
p1713
I23477
sS'GGGTGA'
p1714
I14405
sS'AGTTGT'
p1715
I8402
sS'AGCTAT'
p1716
I6663
sS'CTTACG'
p1717
I1901
sS'ATTAGT'
p1718
I6435
sS'GTCGGC'
p1719
I4653
sS'CGTCGA'
p1720
I1077
sS'NNNNCA'
p1721
I1
sS'TGGCTT'
p1722
I16675
sS'AGTTGG'
p1723
I9755
sS'AGCTAA'
p1724
I8396
sS'AGCTAC'
p1725
I8072
sS'AGTTGC'
p1726
I7836
sS'AGTTGA'
p1727
I8014
sS'AGCTAG'
p1728
I7522
sS'CGTTGA'
p1729
I2045
sS'TCCAGT'
p1730
I12680
sS'GCACCT'
p1731
I12303
sS'CAGTGT'
p1732
I13346
sS'AGTCAG'
p1733
I15098
sS'TCAGGT'
p1734
I11777
sS'TCAAGG'
p1735
I11303
sS'GTCGGG'
p1736
I6371
sS'TCAAGC'
p1737
I8958
sS'TCAAGA'
p1738
I11092
sS'CTAATA'
p1739
I5995
sS'CAGTGC'
p1740
I14066
sS'CTAATC'
p1741
I5089
sS'CAGTGA'
p1742
I17997
sS'CAGTGG'
p1743
I19023
sS'CTAATG'
p1744
I6728
sS'TCAAGT'
p1745
I9901
sS'GCACAT'
p1746
I8753
sS'GAGCCC'
p1747
I19741
sS'TCAGGC'
p1748
I15089
sS'CGAGCT'
p1749
I5077
sS'CGTTGG'
p1750
I3400
sS'GATCAG'
p1751
I7361
sS'CAACCA'
p1752
I9551
sS'AGTCAA'
p1753
I9007
sS'TTCCCT'
p1754
I22887
sS'CGAGCG'
p1755
I5911
sS'GTTAGT'
p1756
I4899
sS'CGAGCA'
p1757
I4249
sS'GAGCCG'
p1758
I12285
sS'CGAGCC'
p1759
I7781
sS'TTCCCA'
p1760
I21464
sS'TTCCCC'
p1761
I20849
sS'GTTCAC'
p1762
I6999
sS'TTCCCG'
p1763
I8855
sS'GATCAC'
p1764
I7729
sS'GGACCT'
p1765
I10204
sS'TCCACC'
p1766
I16433
sS'AAGTAC'
p1767
I6165
sS'CACACT'
p1768
I12887
sS'TACATC'
p1769
I5025
sS'AAGTAG'
p1770
I8690
sS'TACATA'
p1771
I7451
sS'CATGGT'
p1772
I10015
sS'GGACCG'
p1773
I5907
sS'AACGCT'
p1774
I3353
sS'GGACCA'
p1775
I9436
sS'TCATCA'
p1776
I11360
sS'GGACCC'
p1777
I12927
sS'CACACG'
p1778
I6194
sS'TACATT'
p1779
I9573
sS'CACACC'
p1780
I15686
sS'GCACAA'
p1781
I8398
sS'AAGTAT'
p1782
I7737
sS'TCTGCC'
p1783
I20232
sS'TCTGCA'
p1784
I16837
sS'TCTGCG'
p1785
I6692
sS'TGCCCC'
p1786
I18661
sS'ATTGCC'
p1787
I7138
sS'CCCGTC'
p1788
I7204
sS'TTAAGG'
p1789
I8746
sS'CCCGTA'
p1790
I2163
sS'TTAAGA'
p1791
I10871
sS'CCCGTG'
p1792
I6598
sS'TTAAGC'
p1793
I6768
sS'ACGCAC'
p1794
I4057
sS'TAGATC'
p1795
I4062
sS'AAACAG'
p1796
I18324
sS'TAGATA'
p1797
I5601
sS'TGCCCA'
p1798
I18551
sS'TAGATG'
p1799
I7460
sS'TGGTTA'
p1800
I7508
sS'TCTGCT'
p1801
I18318
sS'TTACGC'
p1802
I1489
sS'TTAAGT'
p1803
I9345
sS'TTACGA'
p1804
I1520
sS'TTACGG'
p1805
I1884
sS'CCCGTT'
p1806
I3864
sS'AGTGAC'
p1807
I12489
sS'AGTGAA'
p1808
I13279
sS'AGTGAG'
p1809
I17701
sS'GCGGTC'
p1810
I5250
sS'CGGGCG'
p1811
I16193
sS'AAACAC'
p1812
I14414
sS'TAAGAG'
p1813
I9257
sS'CGGGCC'
p1814
I15873
sS'GAAAGT'
p1815
I12281
sS'CGGGCA'
p1816
I8691
sS'TAAGAC'
p1817
I6114
sS'AAACAA'
p1818
I23141
sS'AGTGAT'
p1819
I10148
sS'NCACAC'
p1820
I1
sS'TAAGAT'
p1821
I7188
sS'CCTGAA'
p1822
I15222
sS'CCTGAC'
p1823
I14535
sS'CCTGAG'
p1824
I22748
sS'GTTAGG'
p1825
I6269
sS'GCCAAC'
p1826
I8754
sS'TATACT'
p1827
I5049
sS'GTTAGC'
p1828
I4656
sS'GTTAGA'
p1829
I5958
sS'GNNNNN'
p1830
I1
sS'ACCCCC'
p1831
I13522
sS'TATACG'
p1832
I1011
sS'GGTAGC'
p1833
I5865
sS'TATACC'
p1834
I3447
sS'TATACA'
p1835
I6702
sS'ATTGGC'
p1836
I8647
sS'TCTTGT'
p1837
I11283
sS'ACTAGT'
p1838
I4234
sS'TTTATT'
p1839
I24492
sS'GTAATA'
p1840
I5923
sS'AACGCA'
p1841
I3254
sS'GTAATC'
p1842
I7596
sS'TCTAAC'
p1843
I5949
sS'CGTTCT'
p1844
I3891
sS'CCACCG'
p1845
I9422
sS'GGTAGG'
p1846
I8855
sS'CCACCA'
p1847
I19325
sS'CCACCC'
p1848
I26535
sS'GTTCGT'
p1849
I1900
sS'TTTATG'
p1850
I11284
sS'ACTAGG'
p1851
I6991
sS'TTTATC'
p1852
I9549
sS'ACTAGC'
p1853
I4743
sS'TTTATA'
p1854
I12620
sS'ACTAGA'
p1855
I7474
sS'CCACCT'
p1856
I22462
sS'CGTTCG'
p1857
I1599
sS'TCGTTG'
p1858
I2180
sS'CGTTCA'
p1859
I2707
sS'CGTTCC'
p1860
I4656
sS'TCTAAT'
p1861
I7645
sS'CTTTGT'
p1862
I15951
sS'CCCTCC'
p1863
I37325
sS'ACTGGA'
p1864
I12679
sS'ACTGGC'
p1865
I11466
sS'TAGTCC'
p1866
I5796
sS'GTGACC'
p1867
I10371
sS'TAGTCA'
p1868
I7449
sS'GTGACA'
p1869
I11845
sS'TAGTCG'
p1870
I1251
sS'GTGACG'
p1871
I4538
sS'TGTCAT'
p1872
I10711
sS'ACTGGT'
p1873
I7954
sS'CTTTGG'
p1874
I17346
sS'CCTATG'
p1875
I5875
sS'CTTTGC'
p1876
I14074
sS'ACGTGC'
p1877
I4417
sS'ACATTA'
p1878
I7718
sS'GTGACT'
p1879
I14895
sS'TAGTCT'
p1880
I6182
sS'GTGCAC'
p1881
I8163
sS'GCGCTT'
p1882
I5327
sS'ACCTAG'
p1883
I7125
sS'CGACGA'
p1884
I1471
sS'ACCTAA'
p1885
I6594
sS'CGACGC'
p1886
I3378
sS'ACCTAC'
p1887
I6194
sS'CCGCAG'
p1888
I13040
sS'CCGCAA'
p1889
I3806
sS'ATTGTG'
p1890
I8947
sS'CCGCAC'
p1891
I7145
sS'GGGACT'
p1892
I14176
sS'ACCTAT'
p1893
I4834
sS'CGACGT'
p1894
I1527
sS'CGAAGA'
p1895
I3540
sS'CCCCGT'
p1896
I7187
sS'CGAAGG'
p1897
I5181
sS'GCGCTC'
p1898
I10563
sS'GTGCAT'
p1899
I7397
sS'GCGCTA'
p1900
I2616
sS'CCGCAT'
p1901
I3058
sS'GTTCGC'
p1902
I2503
sS'NNNACA'
p1903
I1
sS'GAAGAT'
p1904
I9715
sS'GGATCT'
p1905
I8074
sS'TCGGAA'
p1906
I3463
sS'TCGGAC'
p1907
I2603
sS'GAATCT'
p1908
I9170
sS'TCGGAG'
p1909
I5617
sS'GGATCG'
p1910
I2859
sS'GAAGAG'
p1911
I19405
sS'GGTATA'
p1912
I3415
sS'GAAGAA'
p1913
I18659
sS'GTTCGG'
p1914
I2924
sS'GAAGAC'
p1915
I10631
sS'GGATCA'
p1916
I8117
sS'GAATCA'
p1917
I10798
sS'GAATCC'
p1918
I8425
sS'TCGGAT'
p1919
I2094
sS'GAATCG'
p1920
I2780
sS'ATGGTC'
p1921
I5766
sS'CAGATG'
p1922
I14762
sS'ATGGTA'
p1923
I6000
sS'TGACCC'
p1924
I10244
sS'ACGCCA'
p1925
I4579
sS'CAGATC'
p1926
I9308
sS'ACGCCC'
p1927
I8399
sS'TGCGTG'
p1928
I5835
sS'TGTCAG'
p1929
I12403
sS'ACAANN'
p1930
I1
sS'CTATCT'
p1931
I6639
sS'CAGATT'
p1932
I11093
sS'TGATTA'
p1933
I7715
sS'CTCGAC'
p1934
I2657
sS'ATGGTT'
p1935
I7547
sS'TCGCAA'
p1936
I1837
sS'GCTATT'
p1937
I7018
sS'TGCGTC'
p1938
I4119
sS'CCGGTA'
p1939
I2211
sS'GCGTGG'
p1940
I10037
sS'AATGGT'
p1941
I7929
sS'GTTACG'
p1942
I1469
sS'GGGACG'
p1943
I8602
sS'AATGGC'
p1944
I9883
sS'AATGGA'
p1945
I13033
sS'AATGGG'
p1946
I11578
sS'CCCCGA'
p1947
I8441
sS'CAACTC'
p1948
I9474
sS'AACGCG'
p1949
I2606
sS'CAACTA'
p1950
I5497
sS'ATTTAC'
p1951
I9066
sS'GTGAAT'
p1952
I9039
sS'AGCCAG'
p1953
I23809
sS'TTGACA'
p1954
I8101
sS'AAAAGT'
p1955
I15979
sS'GGAGGA'
p1956
I31385
sS'GGAGGC'
p1957
I32113
sS'TGGTAG'
p1958
I7307
sS'CGCCAT'
p1959
I5369
sS'TCGCTC'
p1960
I5984
sS'TGGTAC'
p1961
I4489
sS'GAGGTA'
p1962
I7383
sS'TGGTAA'
p1963
I7927
sS'AAAAGG'
p1964
I18974
sS'GGAGGT'
p1965
I17134
sS'AGCCAT'
p1966
I10906
sS'AAAAGC'
p1967
I15696
sS'AAAAGA'
p1968
I24076
sS'TTGACT'
p1969
I8678
sS'GAGTGG'
p1970
I14568
sS'CGCCAG'
p1971
I10225
sS'TGGTAT'
p1972
I6242
sS'CGCCAA'
p1973
I4340
sS'GAGTGC'
p1974
I10746
sS'CGCCAC'
p1975
I9781
sS'GAGTGA'
p1976
I13052
sS'GCCAGG'
p1977
I30391
sS'GCCAGA'
p1978
I15975
sS'CTCGTG'
p1979
I4287
sS'GCCAGC'
p1980
I20250
sS'GCCCGT'
p1981
I5080
sS'CAATCC'
p1982
I7370
sS'TACCGA'
p1983
I1484
sS'TACCGC'
p1984
I2382
sS'CTTCAT'
p1985
I11934
sS'GCCCGC'
p1986
I18843
sS'GCCAGT'
p1987
I11731
sS'GCCCGA'
p1988
I6583
sS'GCCCGG'
p1989
I20959
sS'TGCGAT'
p1990
I2124
sS'CTTCAC'
p1991
I11673
sS'CTTCAA'
p1992
I11465
sS'TACCGT'
p1993
I1612
sS'TCCGAG'
p1994
I5909
sS'TCCGAA'
p1995
I3022
sS'TCCGAC'
p1996
I2929
sS'AATTCA'
p1997
I12204
sS'TAGCGA'
p1998
I1810
sS'AATTCC'
p1999
I11966
sS'AATTCG'
p2000
I2048
sS'TCCGAT'
p2001
I1808
sS'NNNGAT'
p2002
I1
sS'TAGCGG'
p2003
I2874
sS'AATTCT'
p2004
I13823
sS'TAGCGC'
p2005
I2590
sS'GTCATC'
p2006
I8671
sS'GTCATA'
p2007
I5780
sS'GTCATG'
p2008
I8690
sS'AGCAGG'
p2009
I23247
sS'CCAGGT'
p2010
I18209
sS'TTGGAA'
p2011
I14928
sS'TTGGAG'
p2012
I14411
sS'AGCAGA'
p2013
I18404
sS'GGATGC'
p2014
I8657
sS'CCAGGG'
p2015
I28770
sS'AGCAGT'
p2016
I12788
sS'CCAGGA'
p2017
I27186
sS'CCAGGC'
p2018
I33632
sS'TTGGAT'
p2019
I8064
sS'ACGGTA'
p2020
I1558
sS'CATCTG'
p2021
I14697
sS'ACGGTC'
p2022
I2559
sS'CATCTA'
p2023
I7508
sS'ATAGAC'
p2024
I4230
sS'CATCTC'
p2025
I13896
sS'ATAGAA'
p2026
I9233
sS'GGGGTC'
p2027
I12369
sS'CAAGCC'
p2028
I12485
sS'CATCTT'
p2029
I12736
sS'CAAGCA'
p2030
I12053
sS'CAAGCG'
p2031
I4741
sS'ACTCGA'
p2032
I2338
sS'CCTGGC'
p2033
I29815
sS'GTTCTT'
p2034
I11533
sS'ACATGA'
p2035
I9694
sS'CGTAAT'
p2036
I1506
sS'ACATGC'
p2037
I8484
sS'ACATGG'
p2038
I10761
sS'CCCGCT'
p2039
I10501
sS'GTACAT'
p2040
I5081
sS'TGGCGG'
p2041
I11266
sS'CGTAAG'
p2042
I1930
sS'GTTCTG'
p2043
I12616
sS'ACATGT'
p2044
I8933
sS'GTTCTA'
p2045
I6243
sS'CGTAAA'
p2046
I2129
sS'CCCGCG'
p2047
I15826
sS'CCCGCC'
p2048
I34825
sS'AGACGC'
p2049
I5346
sS'CCCGCA'
p2050
I9347
sS'CCCTTT'
p2051
I17860
sS'TGTTGT'
p2052
I11263
sS'TCTTGG'
p2053
I14448
sS'GTTGTT'
p2054
I9628
sS'ATCCTT'
p2055
I10145
sS'TTGTCG'
p2056
I2016
sS'TTGTCC'
p2057
I9818
sS'CCGTGA'
p2058
I4557
sS'TTGTCA'
p2059
I9954
sS'ATCCTC'
p2060
I10903
sS'GTTGTA'
p2061
I5296
sS'ATCCTA'
p2062
I6506
sS'GTTGTC'
p2063
I6118
sS'ATCCTG'
p2064
I12796
sS'GTTGTG'
p2065
I8478
sS'TTGTCT'
p2066
I12174
sS'CTATGC'
p2067
I4921
sS'CCACTG'
p2068
I18817
sS'TGACTA'
p2069
I7468
sS'TGGGCC'
p2070
I17460
sS'TGACTC'
p2071
I18990
sS'TGGGCA'
p2072
I18459
sS'TGGGCG'
p2073
I12317
sS'TGACTG'
p2074
I12386
sS'AAGCCG'
p2075
I6218
sS'AAGCCC'
p2076
I14722
sS'AAGCCA'
p2077
I16521
sS'CAAAAT'
p2078
I15439
sS'TGACTT'
p2079
I12969
sS'TGGGCT'
p2080
I18596
sS'CAAAAC'
p2081
I13950
sS'CAAAAA'
p2082
I22206
sS'AAGCCT'
p2083
I13796
sS'CAAAAG'
p2084
I14798
sS'TCAATG'
p2085
I7347
sS'AAACTT'
p2086
I13555
sS'ACCGTG'
p2087
I4386
sS'TCAATC'
p2088
I5565
sS'TCAATA'
p2089
I6972
sS'CAGTTC'
p2090
I12064
sS'GACCCG'
p2091
I6968
sS'CAGTTG'
p2092
I9576
sS'GACCCC'
p2093
I12397
sS'CTCTGT'
p2094
I20700
sS'TCAATT'
p2095
I7982
sS'GGCCAG'
p2096
I26033
sS'CTCTGC'
p2097
I24890
sS'GACCCT'
p2098
I10618
sS'CTCTGA'
p2099
I18294
sS'CTCTGG'
p2100
I23956
sS'CAGTTT'
p2101
I15978
sS'GCGAAG'
p2102
I4982
sS'ACGTTC'
p2103
I2761
sS'TGCTGG'
p2104
I23724
sS'TGCTGA'
p2105
I15501
sS'GAGTCT'
p2106
I11125
sS'TGCTGC'
p2107
I19662
sS'TAGGGA'
p2108
I9517
sS'GCTGGT'
p2109
I14590
sS'GTGATT'
p2110
I10016
sS'CTACTA'
p2111
I5635
sS'TGCTGT'
p2112
I16466
sS'GCGAAT'
p2113
I1902
sS'TAATGG'
p2114
I6693
sS'GTGATG'
p2115
I10046
sS'CTACTG'
p2116
I8968
sS'GTGATC'
p2117
I7932
sS'GCTGGC'
p2118
I20419
sS'GTGATA'
p2119
I5375
sS'GCTGGA'
p2120
I21413
sS'TGATAA'
p2121
I8063
sS'TGTAGT'
p2122
I8184
sS'TGATAC'
p2123
I4503
sS'TGATAG'
p2124
I5218
sS'CTTGTT'
p2125
I11813
sS'GACGGT'
p2126
I2973
sS'GCTAGG'
p2127
I8419
sS'GCTAGA'
p2128
I6835
sS'ATGAAT'
p2129
I12593
sS'GCTAGC'
p2130
I4991
sS'ATAGGG'
p2131
I5636
sS'TGATAT'
p2132
I6375
sS'GTAGTG'
p2133
I5544
sS'GCTAGT'
p2134
I4623
sS'ATGAAC'
p2135
I7329
sS'GACGGG'
p2136
I7119
sS'ATGAAA'
p2137
I16741
sS'GACGGA'
p2138
I4671
sS'CTTGTA'
p2139
I6932
sS'GACGGC'
p2140
I5618
sS'CTTGTC'
p2141
I9552
sS'CCATAC'
p2142
I4196
sS'CAAAGA'
p2143
I15985
sS'AGTACG'
p2144
I1441
sS'CCATAG'
p2145
I5670
sS'GGTGAA'
p2146
I11312
sS'GGTGAC'
p2147
I12623
sS'GCGTCT'
p2148
I5321
sS'GACTGT'
p2149
I8981
sS'GGTGAG'
p2150
I17710
sS'GGAATG'
p2151
I14828
sS'CGTCCT'
p2152
I5952
sS'GGAATC'
p2153
I9202
sS'GGAATA'
p2154
I7777
sS'GCGTCA'
p2155
I3899
sS'GTTATG'
p2156
I5127
sS'GGGGTG'
p2157
I20900
sS'GGTGAT'
p2158
I8855
sS'GCGTCG'
p2159
I3559
sS'CGTCCG'
p2160
I3977
sS'GGAATT'
p2161
I12002
sS'CGTCCC'
p2162
I8596
sS'CGTCCA'
p2163
I4166
sS'TTTCGA'
p2164
I2161
sS'CCGTAT'
p2165
I1441
sS'GAAGTC'
p2166
I10237
sS'ACGTTT'
p2167
I4016
sS'GAAGTG'
p2168
I14262
sS'GCCGTA'
p2169
I1880
sS'CCGTAC'
p2170
I1638
sS'CCGTAA'
p2171
I1922
sS'CCGTAG'
p2172
I2507
sS'CAAAGT'
p2173
I14233
sS'GCCGTT'
p2174
I3293
sS'TTGGTG'
p2175
I10778
sS'GAAGTT'
p2176
I10929
sS'GGCGCG'
p2177
I16990
sS'ATGCCC'
p2178
I9424
sS'TTAGTT'
p2179
I7998
sS'TATTAG'
p2180
I5842
sS'GGCGCC'
p2181
I18406
sS'TATTAA'
p2182
I10114
sS'GGCGCA'
p2183
I8600
sS'TATTAC'
p2184
I5815
sS'ACTATG'
p2185
I5807
sS'CAACGG'
p2186
I2846
sS'TTTAAG'
p2187
I12904
sS'ACTATC'
p2188
I3774
sS'TTTAAA'
p2189
I28487
sS'ACTATA'
p2190
I4605
sS'TTTAAC'
p2191
I9242
sS'TATTAT'
p2192
I10241
sS'TTAGTG'
p2193
I6821
sS'GGCGCT'
p2194
I11181
sS'TTAGTC'
p2195
I6553
sS'ATGCCT'
p2196
I11841
sS'TTAGTA'
p2197
I6829
sS'TTTAAT'
p2198
I15300
sS'ATGTGC'
p2199
I8662
sS'ACTATT'
p2200
I6775
sS'GGANTG'
p2201
I1
sS'GCCGAT'
p2202
I2201
sS'GGGCAT'
p2203
I9204
sS'TTTCCG'
p2204
I5299
sS'TTTCCA'
p2205
I21049
sS'TTTCCC'
p2206
I22648
sS'GTACGT'
p2207
I1510
sS'GTTTGT'
p2208
I11918
sS'TCAGNN'
p2209
I1
sS'TTTCCT'
p2210
I29340
sS'GGGCAG'
p2211
I29570
sS'GTCTGT'
p2212
I11262
sS'GGGCAA'
p2213
I12306
sS'GGGCAC'
p2214
I13948
sS'GTTTGC'
p2215
I9111
sS'GTTTGA'
p2216
I9502
sS'GTACGC'
p2217
I1361
sS'GTACGA'
p2218
I1019
sS'CCGCTC'
p2219
I10999
sS'GCATGT'
p2220
I8442
sS'CCGCTA'
p2221
I2794
sS'CCGCTG'
p2222
I11544
sS'AGCATT'
p2223
I11390
sS'GCGCGG'
p2224
I18402
sS'GCGCGC'
p2225
I18422
sS'TGTTTT'
p2226
I25891
sS'GCGCGA'
p2227
I5114
sS'GCATGG'
p2228
I9824
sS'GCATGC'
p2229
I8630
sS'CCGCTT'
p2230
I5969
sS'TGACCT'
p2231
I13402
sS'GTCGAC'
p2232
I1274
sS'GCGCGT'
p2233
I5081
sS'GTCGAG'
p2234
I2593
sS'CGTGGC'
p2235
I8437
sS'GAGCTA'
p2236
I7284
sS'TGCGCT'
p2237
I5355
sS'GAGCTC'
p2238
I14554
sS'ATTGAT'
p2239
I6430
sS'GAGCTG'
p2240
I21920
sS'AGTACA'
p2241
I6828
sS'AAACGC'
p2242
I4297
sS'GTAACA'
p2243
I6757
sS'CACGCG'
p2244
I4813
sS'AAACGG'
p2245
I4278
sS'TGTCCC'
p2246
I14666
sS'TGCGCG'
p2247
I6997
sS'TGTCCA'
p2248
I11500
sS'GAGGGA'
p2249
I25385
sS'GAGCTT'
p2250
I11191
sS'TGCGCC'
p2251
I8507
sS'ATTGAG'
p2252
I7707
sS'CGCTGA'
p2253
I5922
sS'CACGCA'
p2254
I5658
sS'AAACGT'
p2255
I4005
sS'ATTTCG'
p2256
I2385
sS'ATTTCA'
p2257
I16471
sS'ATTTCC'
p2258
I16669
sS'ATCAGT'
p2259
I7658
sS'ATCGGG'
p2260
I2459
sS'CATAGT'
p2261
I5761
sS'ATCGGC'
p2262
I2200
sS'CCGTGT'
p2263
I4739
sS'ATCGGA'
p2264
I1994
sS'ATTTCT'
p2265
I19436
sS'CGATCA'
p2266
I1619
sS'TGGGTC'
p2267
I10828
sS'TGGGTA'
p2268
I7744
sS'CATAGG'
p2269
I5852
sS'ATCGGT'
p2270
I1470
sS'ATCAGG'
p2271
I9532
sS'CATAGC'
p2272
I5949
sS'CATAGA'
p2273
I6291
sS'ACGGGT'
p2274
I2727
sS'CCTGGT'
p2275
I15879
sS'ATTCGG'
p2276
I2348
sS'GATTCT'
p2277
I10596
sS'CTTTTG'
p2278
I15027
sS'TACTAG'
p2279
I4015
sS'CTTTTC'
p2280
I20383
sS'TACTAC'
p2281
I3989
sS'GATTCC'
p2282
I9099
sS'ACGGGG'
p2283
I7023
sS'ACGGGA'
p2284
I4760
sS'ACGGGC'
p2285
I5061
sS'GTCCGG'
p2286
I5914
sS'TACTAT'
p2287
I4958
sS'CTTTTT'
p2288
I24937
sS'TCACGA'
p2289
I2701
sS'TCACGC'
p2290
I5495
sS'AGAGTG'
p2291
I13492
sS'CGATTG'
p2292
I1973
sS'TCACGG'
p2293
I4412
sS'GCAGCC'
p2294
I25909
sS'TCACGT'
p2295
I4579
sS'TTCCAC'
p2296
I13404
sS'TTCCAA'
p2297
I14623
sS'TTCCAG'
p2298
I21587
sS'CGAGGC'
p2299
I11034
sS'ACCCTT'
p2300
I9744
sS'TGAAGT'
p2301
I11569
sS'ATGCTT'
p2302
I10045
sS'TTCCAT'
p2303
I13714
sS'ACCCTA'
p2304
I6306
sS'ACCCTC'
p2305
I13120
sS'TGAAGG'
p2306
I14544
sS'ACCCTG'
p2307
I16206
sS'CTGACT'
p2308
I14952
sS'CCCCTT'
p2309
I17198
sS'AGTTAT'
p2310
I7224
sS'CTGACG'
p2311
I4452
sS'CTGACC'
p2312
I13816
sS'CTGACA'
p2313
I12447
sS'AGTTAA'
p2314
I8951
sS'CCCCTG'
p2315
I22203
sS'AGTTAC'
p2316
I6698
sS'CCCCTC'
p2317
I27868
sS'AGTTAG'
p2318
I6645
sS'CCCCTA'
p2319
I9050
sS'ACACAG'
p2320
I18444
sS'ACACAA'
p2321
I12531
sS'ACACAC'
p2322
I29684
sS'AATGTT'
p2323
I12750
sS'CTGCAG'
p2324
I29650
sS'CATGGG'
p2325
I10846
sS'CTGCAC'
p2326
I15515
sS'CATGGC'
p2327
I11928
sS'AATGTC'
p2328
I9180
sS'ACACAT'
p2329
I11906
sS'AATGTA'
p2330
I9507
sS'AATGTG'
p2331
I12812
sS'GCACAC'
p2332
I11558
sS'CTGCAT'
p2333
I12298
sS'GCACAG'
p2334
I16592
sS'CGATTC'
p2335
I2745
sS'ATGCTG'
p2336
I12846
sS'ATGTTC'
p2337
I7943
sS'CGAGAT'
p2338
I3462
sS'ATTACT'
p2339
I8021
sS'ACATTG'
p2340
I7783
sS'ACGCTC'
p2341
I4056
sS'ACATTC'
p2342
I10694
sS'ATTACA'
p2343
I12121
sS'ATGCTC'
p2344
I7917
sS'ATTACC'
p2345
I5667
sS'CGAGAC'
p2346
I5258
sS'CGAGAA'
p2347
I4484
sS'AAGTCT'
p2348
I10756
sS'ATGCTA'
p2349
I6166
sS'GGACAT'
p2350
I7773
sS'CAGCGT'
p2351
I5742
sS'GCTATA'
p2352
I3944
sS'GCTATC'
p2353
I3513
sS'AAGTCG'
p2354
I2929
sS'AAGTCA'
p2355
I12799
sS'GCTATG'
p2356
I6019
sS'AAGTCC'
p2357
I10401
sS'GGACAG'
p2358
I16895
sS'GGACAC'
p2359
I10764
sS'GGACAA'
p2360
I9711
sS'CTAATT'
p2361
I9504
sS'AGGGTT'
p2362
I10620
sS'GAGGCG'
p2363
I16820
sS'TGTTGG'
p2364
I11701
sS'GAGGCA'
p2365
I19417
sS'AGCGCT'
p2366
I6594
sS'GAGGCC'
p2367
I23706
sS'TGTTGC'
p2368
I10292
sS'CAATGT'
p2369
I7846
sS'TAAAAT'
p2370
I20416
sS'ACTCGC'
p2371
I3893
sS'ACTCGG'
p2372
I5301
sS'AGCGCA'
p2373
I5405
sS'GAGGCT'
p2374
I21998
sS'AGCGCC'
p2375
I11400
sS'AGGGTG'
p2376
I17194
sS'AGGGTA'
p2377
I6864
sS'AGCGCG'
p2378
I8165
sS'AGGGTC'
p2379
I10589
sS'TAAAAG'
p2380
I14597
sS'ACTCGT'
p2381
I2076
sS'TAAAAC'
p2382
I12398
sS'TAAAAA'
p2383
I26236
sS'CTACTC'
p2384
I7753
sS'AGCTGC'
p2385
I19556
sS'ACGTTA'
p2386
I1928
sS'AGCTGA'
p2387
I15954
sS'ACGTTG'
p2388
I2863
sS'AGCTGG'
p2389
I24050
sS'TAGGGG'
p2390
I9030
sS'TAAATG'
p2391
I13319
sS'AGTGCG'
p2392
I4346
sS'AGTGCA'
p2393
I11554
sS'AGAGTT'
p2394
I11294
sS'AGTGCC'
p2395
I11979
sS'CCAAAA'
p2396
I14533
sS'TTCGTG'
p2397
I3076
sS'TAGGGT'
p2398
I6216
sS'AGCTGT'
p2399
I14606
sS'CTACTT'
p2400
I8657
sS'AGTGCT'
p2401
I14110
sS'CGTTAC'
p2402
I1701
sS'AGAGTA'
p2403
I7435
sS'AAAACA'
p2404
I25535
sS'TTCGTA'
p2405
I1594
sS'GTTAAA'
p2406
I9111
sS'GCACCA'
p2407
I11271
sS'GTTAAC'
p2408
I4739
sS'CCTGGA'
p2409
I23656
sS'CCTGGG'
p2410
I37395
sS'GTTAAG'
p2411
I6758
sS'TTCGTC'
p2412
I2389
sS'GCACCC'
p2413
I12747
sS'GTCTGG'
p2414
I13396
sS'NNNNNA'
p2415
I1
sS'GTCTGC'
p2416
I10413
sS'GTTAAT'
p2417
I6487
sS'GTCTGA'
p2418
I9940
sS'GCGGNC'
p2419
I1
sS'GGAAGG'
p2420
I28250
sS'CCACAT'
p2421
I11762
sS'GGAAGC'
p2422
I19513
sS'GCACCG'
p2423
I6742
sS'GGAAGA'
p2424
I21727
sS'TGTATT'
p2425
I12019
sS'CAATGA'
p2426
I9945
sS'GCGTTC'
p2427
I3906
sS'CAATGC'
p2428
I7157
sS'GCGTTG'
p2429
I3302
sS'CAATGG'
p2430
I8632
sS'CCACAG'
p2431
I21227
sS'GGAAGT'
p2432
I15751
sS'CCACAC'
p2433
I15844
sS'CCACAA'
p2434
I12465
sS'ATTTGT'
p2435
I13285
sS'TCCTCG'
p2436
I7033
sS'TGTATG'
p2437
I7746
sS'TCCTCA'
p2438
I17213
sS'GCGTTT'
p2439
I4171
sS'TCCTCC'
p2440
I31611
sS'TGTATC'
p2441
I5678
sS'TCCAAC'
p2442
I8384
sS'TAACCG'
p2443
I1766
sS'TCATAG'
p2444
I6723
sS'TCAGGG'
p2445
I17169
sS'TCATAA'
p2446
I8696
sS'TAACCC'
p2447
I6213
sS'TCATAC'
p2448
I5199
sS'TAACCA'
p2449
I7612
sS'ACCGCT'
p2450
I3856
sS'TCGCGA'
p2451
I2147
sS'TAGTGT'
p2452
I5934
sS'TCAGGA'
p2453
I17936
sS'TTCGTT'
p2454
I3048
sS'GCCACA'
p2455
I15852
sS'TAACCT'
p2456
I7270
sS'CGTTAT'
p2457
I1561
sS'GTGAAA'
p2458
I13992
sS'GTGAAC'
p2459
I7204
sS'AACCCG'
p2460
I5063
sS'ACCGCG'
p2461
I5649
sS'ACCGCA'
p2462
I4341
sS'AACGAG'
p2463
I3151
sS'ACCGCC'
p2464
I8091
sS'CCGCCT'
p2465
I17232
sS'AGGCTT'
p2466
I13839
sS'CCTTCT'
p2467
I20526
sS'GTTGCA'
p2468
I8179
sS'AACGAA'
p2469
I2982
sS'GTTGCC'
p2470
I9130
sS'GTGCCG'
p2471
I5437
sS'GTGCCA'
p2472
I12021
sS'GTTGCG'
p2473
I2646
sS'GTGCCC'
p2474
I13945
sS'CCTTCA'
p2475
I14073
sS'AGGCTA'
p2476
I7599
sS'CCTTCC'
p2477
I28359
sS'AGGCTC'
p2478
I16099
sS'CCGCCC'
p2479
I33847
sS'TGTCGA'
p2480
I1504
sS'CCTTCG'
p2481
I5132
sS'AGGCTG'
p2482
I31098
sS'GTGCCT'
p2483
I13612
sS'CAGCGA'
p2484
I6075
sS'TCCAAA'
p2485
I14560
sS'GTTGCT'
p2486
I9767
sS'GGATAT'
p2487
I5340
sS'TCGGGT'
p2488
I3856
sS'ATTTGA'
p2489
I11901
sS'GCAGTT'
p2490
I11099
sS'GAAGCT'
p2491
I13675
sS'GGATAA'
p2492
I6483
sS'ATGCCA'
p2493
I11149
sS'GGATAC'
p2494
I4166
sS'NNNNNG'
p2495
I3
sS'TCGGGG'
p2496
I8455
sS'GGATAG'
p2497
I4992
sS'GAAGCG'
p2498
I6925
sS'ATGTGG'
p2499
I11672
sS'GCAGTG'
p2500
I20036
sS'GAAGCC'
p2501
I16518
sS'GCAGTA'
p2502
I7372
sS'GAAGCA'
p2503
I14604
sS'GCAGTC'
p2504
I10073
sS'GAGAGC'
p2505
I14973
sS'GAGAGA'
p2506
I24350
sS'GTTCAT'
p2507
I7331
sS'CGCCCC'
p2508
I28338
sS'CGCCCA'
p2509
I12654
sS'ACGTAA'
p2510
I2114
sS'CTATAG'
p2511
I4205
sS'NNNNNN'
p2512
I811
sS'GCATTC'
p2513
I8956
sS'ACGCAA'
p2514
I2440
sS'CTCGCA'
p2515
I4482
sS'CGCCCT'
p2516
I13048
sS'AACGAT'
p2517
I1828
sS'GTCTCG'
p2518
I5263
sS'CTATAT'
p2519
I4899
sS'AGTTTC'
p2520
I13834
sS'GCCGGG'
p2521
I22706
sS'AGCATC'
p2522
I8969
sS'GCCGGC'
p2523
I15798
sS'CATGTT'
p2524
I10765
sS'GCCGGA'
p2525
I8468
sS'AGATCT'
p2526
I8921
sS'ACGTAG'
p2527
I2154
sS'GCCACT'
p2528
I15091
sS'CATGTA'
p2529
I7069
sS'CATGTC'
p2530
I7794
sS'GCCGGT'
p2531
I5356
sS'CATGTG'
p2532
I12286
sS'GATTGG'
p2533
I8497
sS'GGCCTG'
p2534
I24439
sS'GGCCTC'
p2535
I23885
sS'CAAGCT'
p2536
I10807
sS'TTTGTT'
p2537
I22563
sS'AATCGG'
p2538
I2396
sS'AATCGC'
p2539
I2698
sS'AATCGA'
p2540
I1805
sS'GTTCAG'
p2541
I9820
sS'TCACTG'
p2542
I17813
sS'TCACTA'
p2543
I7242
sS'TCACTC'
p2544
I12769
sS'AATCGT'
p2545
I1858
sS'TCGAGG'
p2546
I4241
sS'AGCCGA'
p2547
I6111
sS'CCGCCG'
p2548
I19705
sS'AGCCGC'
p2549
I11730
sS'TAATTG'
p2550
I7179
sS'AAAAAT'
p2551
I30519
sS'AGCCGG'
p2552
I11693
sS'TAATTC'
p2553
I8506
sS'TGGTGA'
p2554
I14307
sS'TCTCAT'
p2555
I12138
sS'TGGTGC'
p2556
I11327
sS'GATGGC'
p2557
I10415
sS'GGGCTG'
p2558
I29641
sS'TGGTGG'
p2559
I19503
sS'GATGGG'
p2560
I13022
sS'TAATTT'
p2561
I16743
sS'CAGCTG'
p2562
I25284
sS'AAAAAC'
p2563
I18914
sS'GGGCTC'
p2564
I19742
sS'GAGCGA'
p2565
I6113
sS'AGCCGT'
p2566
I3977
sS'AAAAAG'
p2567
I24788
sS'TGACAG'
p2568
I13505
sS'CCAAGG'
p2569
I17394
sS'ACGTAT'
p2570
I1748
sS'TCTCAG'
p2571
I19223
sS'TCTCAA'
p2572
I13645
sS'TGGTGT'
p2573
I11222
sS'TCTCAC'
p2574
I12774
sS'ATTCGT'
p2575
I1944
sS'AGAACT'
p2576
I12297
sS'CCGCCA'
p2577
I11242
sS'TACCAT'
p2578
I5793
sS'CCTATT'
p2579
I7253
sS'CACTGT'
p2580
I14323
sS'ACCCGA'
p2581
I3705
sS'AGATAC'
p2582
I5998
sS'ACCCGC'
p2583
I8036
sS'ACCAGT'
p2584
I8084
sS'TACCAC'
p2585
I6338
sS'AGAACG'
p2586
I3939
sS'TACCAA'
p2587
I6427
sS'AGAACA'
p2588
I14392
sS'TACCAG'
p2589
I7364
sS'AGAACC'
p2590
I10398
sS'ACCAGC'
p2591
I14704
sS'CACTGG'
p2592
I15945
sS'ATGTCC'
p2593
I7699
sS'ATCACG'
p2594
I3060
sS'ACCAGG'
p2595
I15913
sS'CACTGC'
p2596
I19651
sS'CCTATC'
p2597
I5175
sS'CACTGA'
p2598
I14201
sS'GAGTCA'
p2599
I19331
sS'TAGGTT'
p2600
I6179
sS'GTTTAC'
p2601
I6673
sS'AATTAT'
p2602
I11288
sS'AGCCAC'
p2603
I18700
sS'TGCTAT'
p2604
I7218
sS'TGGATC'
p2605
I7377
sS'CGGGTT'
p2606
I5109
sS'CTGTTA'
p2607
I8528
sS'AATTAC'
p2608
I8135
sS'TACATG'
p2609
I6906
sS'TAGGTG'
p2610
I8502
sS'CATGGA'
p2611
I10444
sS'TAGGTA'
p2612
I5119
sS'TAGGTC'
p2613
I4913
sS'CGGGTC'
p2614
I7008
sS'CTGTTT'
p2615
I18224
sS'CGGGTA'
p2616
I2607
sS'CGGGTG'
p2617
I8654
sS'TGCCAG'
p2618
I18260
sS'ATTGTT'
p2619
I10375
sS'AAGTAA'
p2620
I11047
sS'TGGATG'
p2621
I11016
sS'GCAATG'
p2622
I8589
sS'AGCAAA'
p2623
I16610
sS'ATATAT'
p2624
I12303
sS'AGCAAC'
p2625
I9461
sS'TTAGGC'
p2626
I6069
sS'AAAGCT'
p2627
I13927
sS'TTAGGA'
p2628
I9567
sS'AAAGCA'
p2629
I18715
sS'ATATAG'
p2630
I5080
sS'TTAGGT'
p2631
I6689
sS'ATATAA'
p2632
I9163
sS'AGCAAT'
p2633
I9865
sS'ATATAC'
p2634
I5313
sS'TACTTC'
p2635
I7859
sS'ATAGCC'
p2636
I4976
sS'TACTTG'
p2637
I7355
sS'ATGTTT'
p2638
I14458
sS'CAGCGC'
p2639
I12848
sS'ATAGCT'
p2640
I6748
sS'TACTTT'
p2641
I11712
sS'CATGCG'
p2642
I3672
sS'GGCATG'
p2643
I11397
sS'GTTTTC'
p2644
I15309
sS'CGAGTT'
p2645
I3035
sS'TCCAAT'
p2646
I7595
sS'CGTACT'
p2647
I1540
sS'TCCCGT'
p2648
I4837
sS'TATGCT'
p2649
I6183
sS'CTTAAG'
p2650
I8186
sS'ACATAA'
p2651
I8933
sS'CTTAAA'
p2652
I12788
sS'ACATAG'
p2653
I6593
sS'CTTAAC'
p2654
I6636
sS'CGTACA'
p2655
I1603
sS'CGAGTG'
p2656
I4297
sS'TTGTTA'
p2657
I9279
sS'CGAGTA'
p2658
I2036
sS'CGTACG'
p2659
I807
sS'AGGGGA'
p2660
I21507
sS'CTTAAT'
p2661
I7982
sS'AGGGGC'
p2662
I22062
sS'TATGCA'
p2663
I6733
sS'AGGGGG'
p2664
I20043
sS'CGTTTG'
p2665
I3619
sS'CGACTT'
p2666
I2843
sS'TGAATT'
p2667
I12310
sS'TTGTAA'
p2668
I10210
sS'AGCGGT'
p2669
I3925
sS'GTACCT'
p2670
I5614
sS'TTGTAG'
p2671
I7841
sS'TGAATC'
p2672
I9445
sS'CGACTA'
p2673
I1291
sS'TGAATA'
p2674
I9372
sS'CGACTC'
p2675
I4096
sS'TGAATG'
p2676
I13298
sS'CACACA'
p2677
I34577
sS'CGGCTG'
p2678
I12120
sS'TTGTAT'
p2679
I9107
sS'ATCGTG'
p2680
I2368
sS'GCTTCG'
p2681
I4492
sS'GCTTCA'
p2682
I11454
sS'ATCGTA'
p2683
I1132
sS'TGGGAG'
p2684
I27819
sS'GAGGGT'
p2685
I13006
sS'TGGGAA'
p2686
I21856
sS'TGGGAC'
p2687
I12827
sS'GCTTCT'
p2688
I16362
sS'ATCGTT'
p2689
I1771
sS'GATTGA'
p2690
I5621
sS'TGGGAT'
p2691
I14214
sS'GGGCTA'
p2692
I6544
sS'CTAGCC'
p2693
I7470
sS'CTAGCA'
p2694
I7183
sS'CTAGCG'
p2695
I2910
sS'CGGTAG'
p2696
I2695
sS'ACTTAG'
p2697
I7060
sS'TAGATT'
p2698
I6821
sS'ACTTAA'
p2699
I9313
sS'CGGTAC'
p2700
I1610
sS'ACTTAC'
p2701
I6408
sS'CGGTAA'
p2702
I2014
sS'GACCAG'
p2703
I13012
sS'GACCAC'
p2704
I8717
sS'GACCAA'
p2705
I7943
sS'TACACC'
p2706
I4975
sS'CGGTAT'
p2707
I1292
sS'TACACA'
p2708
I10352
sS'TACACG'
p2709
I2114
sS'GCGAGA'
p2710
I6090
sS'CGCCCG'
p2711
I16198
sS'GCGAGC'
p2712
I7847
sS'GCTGAG'
p2713
I23595
sS'GCGAGG'
p2714
I11311
sS'CAGCCG'
p2715
I11991
sS'CAGCCA'
p2716
I23456
sS'GGTATT'
p2717
I6279
sS'CAGCCC'
p2718
I29611
sS'GCTGAA'
p2719
I13008
sS'GCGAGT'
p2720
I3927
sS'CAGCCT'
p2721
I30821
sS'TTACGT'
p2722
I2159
sS'GAACTC'
p2723
I10227
sS'GAACTA'
p2724
I5852
sS'GGACTT'
p2725
I10347
sS'CACCTA'
p2726
I8349
sS'AACTAT'
p2727
I6217
sS'CACCTC'
p2728
I19035
sS'CACCTG'
p2729
I21651
sS'TGATCC'
p2730
I8221
sS'AACACT'
p2731
I10907
sS'TGATCA'
p2732
I7422
sS'TGATCG'
p2733
I1663
sS'TGCATG'
p2734
I10325
sS'AACTAG'
p2735
I6226
sS'GGACTG'
p2736
I13095
sS'CACCTT'
p2737
I13339
sS'AACTAC'
p2738
I6106
sS'AACTAA'
p2739
I8066
sS'AACACG'
p2740
I3795
sS'AACACA'
p2741
I15041
sS'AACACC'
p2742
I9048
sS'TGATCT'
p2743
I9663
sS'AAAGAC'
p2744
I12129
sS'CTATAC'
p2745
I3186
sS'CAACAG'
p2746
I12247
sS'GACAGT'
p2747
I9170
sS'CAACAA'
p2748
I11001
sS'AAAGAA'
p2749
I28203
sS'CAACAC'
p2750
I9286
sS'GCTGAT'
p2751
I8990
sS'GCATTA'
p2752
I5936
sS'GACAGG'
p2753
I15843
sS'CAACAT'
p2754
I9680
sS'GACAGC'
p2755
I12502
sS'GGGANT'
p2756
I1
sS'GACAGA'
p2757
I15879
sS'GTATTA'
p2758
I5455
sS'GTATTC'
p2759
I5224
sS'GTAAGT'
p2760
I6426
sS'CCAGCG'
p2761
I11245
sS'AGAGGT'
p2762
I13830
sS'GGTGGC'
p2763
I21106
sS'TCCCCT'
p2764
I21577
sS'GGTGGA'
p2765
I16408
sS'TATCTT'
p2766
I8692
sS'GGTGGG'
p2767
I27565
sS'NNNGAA'
p2768
I2
sS'AGAGGC'
p2769
I20603
sS'GTAAGA'
p2770
I7233
sS'AGAGGA'
p2771
I22461
sS'GTAAGC'
p2772
I5014
sS'GTATTT'
p2773
I13302
sS'ACCGAG'
p2774
I4834
sS'GTAAGG'
p2775
I6408
sS'TCCCCG'
p2776
I14086
sS'CGTCAC'
p2777
I4531
sS'CACAAN'
p2778
I1
sS'TCCCCC'
p2779
I19320
sS'GGTGGT'
p2780
I12382
sS'TCCCCA'
p2781
I23663
sS'GTCGCG'
p2782
I3498
sS'GTCGCA'
p2783
I2565
sS'GTCGCC'
p2784
I6419
sS'TCGGTC'
p2785
I2999
sS'TCGGTA'
p2786
I1498
sS'CTCGCG'
p2787
I6533
sS'TCGGTG'
p2788
I4149
sS'GTCGCT'
p2789
I3851
sS'ACCGGG'
p2790
I6027
sS'CCGTCG'
p2791
I3090
sS'CCGTCA'
p2792
I3493
sS'CCGTCC'
p2793
I7362
sS'GGCTGT'
p2794
I16384
sS'CGCGTG'
p2795
I4978
sS'GCATTT'
p2796
I14281
sS'CGCGTC'
p2797
I5240
sS'CGCGTA'
p2798
I1218
sS'GTTTTA'
p2799
I12391
sS'ATGCAG'
p2800
I12107
sS'CCACTA'
p2801
I8026
sS'CCTACA'
p2802
I7662
sS'CGCGTT'
p2803
I2550
sS'GGCTGG'
p2804
I34423
sS'GGCTGA'
p2805
I19373
sS'GGCTGC'
p2806
I26131
sS'CCACTT'
p2807
I13559
sS'TTTAGA'
p2808
I11169
sS'ATGACG'
p2809
I2672
sS'GGAGTT'
p2810
I13084
sS'ATGACA'
p2811
I10764
sS'TTTGTG'
p2812
I15714
sS'ATGACC'
p2813
I6931
sS'CCTGAT'
p2814
I9346
sS'GGGCCT'
p2815
I19886
sS'TAAGAA'
p2816
I12522
sS'ATGACT'
p2817
I13273
sS'GGAGTA'
p2818
I6436
sS'GGAGTC'
p2819
I12428
sS'GGAGTG'
p2820
I16445
sS'GGGCCG'
p2821
I18256
sS'GGGCCC'
p2822
I21869
sS'GGGCCA'
p2823
I17811
sS'GGCAAG'
p2824
I12872
sS'ACGAGT'
p2825
I2166
sS'TTCNNN'
p2826
I1
sS'GCGCAA'
p2827
I3306
sS'GCGCAC'
p2828
I7008
sS'GCGCAG'
p2829
I12766
sS'ACGAGG'
p2830
I5036
sS'ACGAGC'
p2831
I2968
sS'ACGAGA'
p2832
I2986
sS'CTGATG'
p2833
I11113
sS'AGGCCT'
p2834
I18124
sS'GCTCTA'
p2835
I6947
sS'AGACGG'
p2836
I6143
sS'GGGTTG'
p2837
I10379
sS'TTTGGG'
p2838
I17629
sS'GGGTTA'
p2839
I5832
sS'CTCGGG'
p2840
I11375
sS'GGGTTC'
p2841
I10265
sS'TTTGAT'
p2842
I10822
sS'TGCAAT'
p2843
I9073
sS'ATTCGA'
p2844
I1804
sS'ATTGCT'
p2845
I9810
sS'GGGTTT'
p2846
I13032
sS'TACAAG'
p2847
I7014
sS'AGATCC'
p2848
I8056
sS'TGCGAG'
p2849
I4524
sS'AACGGC'
p2850
I3312
sS'TTTGAG'
p2851
I15825
sS'ATTGCA'
p2852
I9214
sS'GACTAG'
p2853
I5118
sS'ATTGCG'
p2854
I1927
sS'TTTGAC'
p2855
I7816
sS'TTTGAA'
p2856
I17385
sS'AAGCAG'
p2857
I18325
sS'CGGGCT'
p2858
I10707
sS'TGACGT'
p2859
I3926
sS'CTCGTC'
p2860
I3960
sS'CCCTGG'
p2861
I28314
sS'CCCTGA'
p2862
I17064
sS'AAGCTT'
p2863
I10687
sS'CCCTGC'
p2864
I27948
sS'GTGGGC'
p2865
I15264
sS'GTGTAA'
p2866
I6480
sS'GATATC'
p2867
I3456
sS'AAGCTC'
p2868
I11019
sS'GATATA'
p2869
I4329
sS'AAGCTA'
p2870
I7353
sS'GATATG'
p2871
I4833
sS'CTCGTT'
p2872
I3087
sS'TGACGC'
p2873
I3847
sS'CTCGGA'
p2874
I5901
sS'TACTCT'
p2875
I7410
sS'CATCGT'
p2876
I2339
sS'GATGGT'
p2877
I7614
sS'CAGGGT'
p2878
I16417
sS'CCAGTC'
p2879
I12793
sS'TACGAT'
p2880
I1108
sS'CCAGTG'
p2881
I16090
sS'TACTCG'
p2882
I2037
sS'CATCGA'
p2883
I1811
sS'CATCGC'
p2884
I3499
sS'TACTCC'
p2885
I6424
sS'NGAATT'
p2886
I2
sS'TACTCA'
p2887
I8502
sS'CATCGG'
p2888
I2413
sS'CAGGGG'
p2889
I21887
sS'CAGGGA'
p2890
I25350
sS'CAGGGC'
p2891
I26319
sS'AATCTG'
p2892
I11155
sS'CGGACT'
p2893
I3937
sS'GCCATT'
p2894
I9896
sS'AGTCGA'
p2895
I1867
sS'AATCTA'
p2896
I6823
sS'TGAACG'
p2897
I2865
sS'TCACAC'
p2898
I12289
sS'TCACAA'
p2899
I10877
sS'TCACAG'
p2900
I17255
sS'GCCATA'
p2901
I5085
sS'CGGACG'
p2902
I4020
sS'ACATCG'
p2903
I2042
sS'CGGACA'
p2904
I3916
sS'CGGACC'
p2905
I5206
sS'GCCATG'
p2906
I11838
sS'TTTTAA'
p2907
I27433
sS'CGCNNN'
p2908
I1
sS'TCACAT'
p2909
I11483
sS'ATTAAC'
p2910
I6486
sS'ATTAAA'
p2911
I15345
sS'ATTAAG'
p2912
I7904
sS'TTTTAC'
p2913
I11912
sS'TCACTT'
p2914
I15267
sS'TCCACG'
p2915
I5454
sS'CAGNNN'
p2916
I1
sS'CTATTA'
p2917
I6051
sS'GTGCAG'
p2918
I15619
sS'ATTAAT'
p2919
I9792
sS'AAGCAC'
p2920
I10722
sS'TACCTG'
p2921
I9698
sS'GGTATG'
p2922
I4988
sS'CTGAAT'
p2923
I12100
sS'GGTATC'
p2924
I3685
sS'GAACCG'
p2925
I4021
sS'GGCCTA'
p2926
I6703
sS'CTGAAA'
p2927
I18368
sS'CAANNN'
p2928
I1
sS'CTGAAC'
p2929
I10151
sS'CTGAAG'
p2930
I16877
sS'NNNNGA'
p2931
I3
sS'CATTGC'
p2932
I8583
sS'TATGAG'
p2933
I7057
sS'CATTGA'
p2934
I7486
sS'CTAGTT'
p2935
I6282
sS'CATTGG'
p2936
I8111
sS'TCAACT'
p2937
I8056
sS'ATGTTA'
p2938
I7901
sS'ACACCG'
p2939
I3967
sS'CTGCCA'
p2940
I20802
sS'CTGCCC'
p2941
I29383
sS'ACACCC'
p2942
I12300
sS'ACACCA'
p2943
I11309
sS'CTGCCG'
p2944
I11090
sS'CTAGTG'
p2945
I8055
sS'TCAACC'
p2946
I6824
sS'TCAACA'
p2947
I9701
sS'CTAGTC'
p2948
I5063
sS'TCAACG'
p2949
I2064
sS'CTAGTA'
p2950
I4078
sS'CATTGT'
p2951
I9612
sS'TATGAC'
p2952
I5760
sS'GTAATG'
p2953
I6018
sS'ACACCT'
p2954
I11660
sS'CTGCCT'
p2955
I28062
sS'TATCAC'
p2956
I5362
sS'CCTCGT'
p2957
I4980
sS'TTGTGT'
p2958
I12448
sS'AGACTG'
p2959
I13047
sS'CGAGGT'
p2960
I5429
sS'GCACTG'
p2961
I14003
sS'CCTCGG'
p2962
I12822
sS'CCTCGC'
p2963
I11034
sS'CCTCGA'
p2964
I4177
sS'CGAGGA'
p2965
I7026
sS'AGACTT'
p2966
I10786
sS'CGAGGG'
p2967
I9686
sS'CACCGT'
p2968
I4645
sS'ACTTTA'
p2969
I9793
sS'ACTTTG'
p2970
I14232
sS'GACCTG'
p2971
I12276
sS'GACCTA'
p2972
I4950
sS'GACCTC'
p2973
I11984
sS'CACCGG'
p2974
I6291
sS'GCATAG'
p2975
I4867
sS'CACCGA'
p2976
I4067
sS'NNNNAC'
p2977
I1
sS'ACTTTT'
p2978
I15734
sS'GGACGA'
p2979
I3738
sS'GGACGC'
p2980
I7869
sS'GGACGG'
p2981
I7547
sS'ACGCTA'
p2982
I1667
sS'CACAGC'
p2983
I20205
sS'CTTATC'
p2984
I6005
sS'CACAGA'
p2985
I19302
sS'CTTATA'
p2986
I5341
sS'CACAGG'
p2987
I19777
sS'TTAACT'
p2988
I9056
sS'ACTCAT'
p2989
I11574
sS'GAGGAG'
p2990
I30699
sS'GACGTA'
p2991
I1500
sS'CGTATC'
p2992
I1312
sS'GCATAC'
p2993
I3577
sS'TAAACT'
p2994
I9743
sS'GAGGAA'
p2995
I23533
sS'GACGTG'
p2996
I4396
sS'TTAACA'
p2997
I9574
sS'ACTCAC'
p2998
I13454
sS'TTAACC'
p2999
I6641
sS'ACTCAA'
p3000
I9585
sS'ACTCAG'
p3001
I16719
sS'CTTATT'
p3002
I9989
sS'CACAGT'
p3003
I14264
sS'AGCGAC'
p3004
I3856
sS'TAAACA'
p3005
I12828
sS'AGCGAA'
p3006
I3628
sS'TAAACC'
p3007
I6923
sS'GACGTT'
p3008
I2662
sS'CGTATT'
p3009
I1918
sS'TAAACG'
p3010
I2535
sS'AGTTCC'
p3011
I11388
sS'GTATGT'
p3012
I6622
sS'AGTTCA'
p3013
I10989
sS'TACTTA'
p3014
I6952
sS'CTGTGC'
p3015
I16891
sS'CTGTGA'
p3016
I17399
sS'CGGGGT'
p3017
I9126
sS'TCTAAG'
p3018
I8422
sS'GCAAAG'
p3019
I14125
sS'TAGGAA'
p3020
I11627
sS'GCAAAA'
p3021
I13327
sS'TAGGAG'
p3022
I10205
sS'GCAAAC'
p3023
I9226
sS'CGGGGC'
p3024
I25399
sS'GTATGG'
p3025
I4504
sS'CTGTGT'
p3026
I18471
sS'CGGGGG'
p3027
I15795
sS'GTATGC'
p3028
I3545
sS'AGTTCT'
p3029
I12502
sS'GCAAAT'
p3030
I10401
sS'TAGGAT'
p3031
I6454
sS'TAATTA'
p3032
I9810
sS'CTATTT'
p3033
I11986
sS'TGCTTT'
p3034
I18931
sS'ACAGGA'
p3035
I16560
sS'GTAATT'
p3036
I8261
sS'GTTACC'
p3037
I5165
sS'GTTACA'
p3038
I6594
sS'GTTTTT'
p3039
I18692
sS'TATCGA'
p3040
I918
sS'TATCGC'
p3041
I1199
sS'TATAGT'
p3042
I4702
sS'GTCTAA'
p3043
I5075
sS'CAGGAC'
p3044
I15040
sS'GTCTAC'
p3045
I3987
sS'TGCTTC'
p3046
I14789
sS'TTCAAA'
p3047
I17434
sS'TTCAAC'
p3048
I7945
sS'TGCTTG'
p3049
I12034
sS'TATAGC'
p3050
I3953
sS'TATCGT'
p3051
I1103
sS'TATAGA'
p3052
I5634
sS'AGTGGG'
p3053
I15981
sS'TATAGG'
p3054
I4386
sS'GTTACT'
p3055
I6850
sS'GGAAAA'
p3056
I23881
sS'AACCTT'
p3057
I9295
sS'CCAAGT'
p3058
I12065
sS'GCTCTG'
p3059
I22702
sS'CCACGT'
p3060
I6541
sS'GGCGTT'
p3061
I4070
sS'AGGACC'
p3062
I10909
sS'GAATGG'
p3063
I11569
sS'GGCTTT'
p3064
I14761
sS'ACTACT'
p3065
I5931
sS'GAATGC'
p3066
I9148
sS'CCACGA'
p3067
I4193
sS'GGCGTC'
p3068
I6911
sS'CCACGC'
p3069
I9841
sS'GGCGTA'
p3070
I1964
sS'GTTCCG'
p3071
I3988
sS'AACCTC'
p3072
I11385
sS'CCACGG'
p3073
I7654
sS'AACCTA'
p3074
I6180
sS'GGCTTA'
p3075
I7051
sS'ACTACC'
p3076
I4858
sS'GGCTTC'
p3077
I16487
sS'ACTACA'
p3078
I8159
sS'ACTACG'
p3079
I1839
sS'GGCTTG'
p3080
I12654
sS'TCCTAG'
p3081
I9876
sS'TAACAA'
p3082
I9091
sS'CGTTGC'
p3083
I3306
sS'TAACAC'
p3084
I6492
sS'TCCTAC'
p3085
I7539
sS'AGTCAC'
p3086
I14731
sS'TCCTAA'
p3087
I9766
sS'TAACAG'
p3088
I8604
sS'TCATCG'
p3089
I2486
sS'GAATTG'
p3090
I8241
sS'AAGCGT'
p3091
I3023
sS'TCATCC'
p3092
I10857
sS'GAGCGG'
p3093
I11127
sS'CTTTCT'
p3094
I24881
sS'AGTCAT'
p3095
I13289
sS'TCCTAT'
p3096
I7258
sS'TAACAT'
p3097
I8110
sS'CGTTGT'
p3098
I2404
sS'CTTTCC'
p3099
I22397
sS'CTTTCA'
p3100
I15493
sS'CTTTCG'
p3101
I3600
sS'GAGCGC'
p3102
I10724
sS'GTTGAT'
p3103
I5290
sS'CGACCA'
p3104
I2851
sS'CGACCC'
p3105
I5705
sS'CGACCG'
p3106
I2687
sS'CCTTAT'
p3107
I6984
sS'GTTGAC'
p3108
I4902
sS'GTTGAA'
p3109
I7931
sS'ACTGGG'
p3110
I15988
sS'GTTGAG'
p3111
I8384
sS'TTAGGG'
p3112
I8292
sS'CCTTAC'
p3113
I6682
sS'CCTTAA'
p3114
I8525
sS'CCTTAG'
p3115
I8437
sS'CGACCT'
p3116
I3849
sS'AATAGA'
p3117
I9059
sS'AATAGC'
p3118
I6944
sS'CAACTG'
p3119
I9361
sS'AATAGG'
p3120
I7013
sS'AAAGTT'
p3121
I13306
sS'GGGGTT'
p3122
I11501
sS'GTCCCT'
p3123
I14030
sS'ATTCNN'
p3124
I1
sS'GGATGT'
p3125
I8427
sS'AATAGT'
p3126
I6880
sS'CCAAGA'
p3127
I14297
sS'CAACTT'
p3128
I9361
sS'ACTGTA'
p3129
I8276
sS'AAGCGG'
p3130
I6028
sS'GGATGA'
p3131
I11118
sS'GGATGG'
p3132
I13445
sS'GGGGTA'
p3133
I6020
sS'TCTCCG'
p3134
I7511
sS'GAGTCC'
p3135
I11055
sS'AAACTG'
p3136
I15852
sS'TCTCCC'
p3137
I23692
sS'AAACTA'
p3138
I9800
sS'TCTCCA'
p3139
I19788
sS'AAACTC'
p3140
I12448
sS'CTATGA'
p3141
I6763
sS'GTGAAG'
p3142
I11745
sS'ACGCGC'
p3143
I4975
sS'GCTAAG'
p3144
I7484
sS'AGTACC'
p3145
I4863
sS'CTATGG'
p3146
I5817
sS'TGCCGC'
p3147
I8251
sS'CCCTTA'
p3148
I7713
sS'CCCTTC'
p3149
I20924
sS'TCTCCT'
p3150
I23364
sS'CCCTTG'
p3151
I13221
sS'AGTACT'
p3152
I6076
sS'CTATGT'
p3153
I6565
sS'GCCGAA'
p3154
I3704
sS'GTGGAG'
p3155
I18355
sS'GCCGAC'
p3156
I4728
sS'GTGGAC'
p3157
I8047
sS'GCCGAG'
p3158
I12512
sS'GTGGAA'
p3159
I13439
sS'NTGGAG'
p3160
I1
sS'GTGGAT'
p3161
I8437
sS'GCCATC'
p3162
I10184
sS'ACGAAC'
p3163
I1795
sS'AGATAG'
p3164
I6645
sS'ACCCGG'
p3165
I8835
sS'GTAGTC'
p3166
I4907
sS'AAATCG'
p3167
I2603
sS'GTAGTA'
p3168
I3944
sS'ACCGAC'
p3169
I2577
sS'AAATCC'
p3170
I11945
sS'CACGCC'
p3171
I11056
sS'AAATCA'
p3172
I14712
sS'AGAGGG'
p3173
I24155
sS'CTTTGA'
p3174
I13819
sS'ATGTCT'
p3175
I9670
sS'TCCCGA'
p3176
I5771
sS'CACGCT'
p3177
I5216
sS'AAATCT'
p3178
I13392
sS'ACCGAT'
p3179
I1427
sS'CTTGAA'
p3180
I13064
sS'GTAGTT'
p3181
I6082
sS'AGATAA'
p3182
I10572
sS'GATGAT'
p3183
I7672
sS'GGAGCA'
p3184
I15992
sS'GGAGCC'
p3185
I24118
sS'AAAGTG'
p3186
I16325
sS'CCAAAT'
p3187
I11871
sS'GGAGCG'
p3188
I12630
sS'AAAACT'
p3189
I16038
sS'GATGAC'
p3190
I8894
sS'GATGAA'
p3191
I10765
sS'GCTCTT'
p3192
I13313
sS'GATGAG'
p3193
I11745
sS'AAGGGG'
p3194
I16996
sS'AAAACC'
p3195
I14009
sS'CCAAAC'
p3196
I11322
sS'AAAACG'
p3197
I5039
sS'GGAGCT'
p3198
I19058
sS'CCAAAG'
p3199
I17099
sS'TCGCGG'
p3200
I5347
sS'CTAGAG'
p3201
I10213
sS'TCGCGC'
p3202
I5209
sS'ACGTCG'
p3203
I1518
sS'TACCCT'
p3204
I6794
sS'AGATCA'
p3205
I9565
sS'GCCACC'
p3206
I21343
sS'AGAAAT'
p3207
I19145
sS'CGACGG'
p3208
I3121
sS'GCCACG'
p3209
I8339
sS'AGATCG'
p3210
I2992
sS'ATGTCA'
p3211
I9926
sS'TCGCGT'
p3212
I1949
sS'GTGCAA'
p3213
I7718
sS'ACCCGT'
p3214
I2733
sS'AGAAAG'
p3215
I24176
sS'TACCCG'
p3216
I2731
sS'AGAAAC'
p3217
I16963
sS'TACCCA'
p3218
I7942
sS'AGAAAA'
p3219
I31792
sS'TACCCC'
p3220
I6129
sS'ATGTAC'
p3221
I5103
sS'GACCGA'
p3222
I3119
sS'ATGTAA'
p3223
I9516
sS'ATGTAG'
p3224
I6274
sS'CCTATA'
p3225
I4496
sS'ACTGTG'
p3226
I14383
sS'CCGGCA'
p3227
I7654
sS'GACGAC'
p3228
I2478
sS'ATGTCG'
p3229
I1762
sS'ATGTAT'
p3230
I8031
sS'ATTAGA'
p3231
I7586
sS'GTTCCC'
p3232
I12431
sS'AGCACT'
p3233
I14279
sS'TTAGAA'
p3234
I12323
sS'GACGAG'
p3235
I3968
sS'TTAGAC'
p3236
I4887
sS'CGGCTC'
p3237
I12412
sS'TTAGAG'
p3238
I9311
sS'CGGCTA'
p3239
I3011
sS'AGCACC'
p3240
I12751
sS'AGCACA'
p3241
I13699
sS'AGCACG'
p3242
I4708
sS'ATAGCG'
p3243
I1614
sS'CGGCTT'
p3244
I6085
sS'TTAGAT'
p3245
I6638
sS'CCAGCA'
p3246
I23893
sS'CGAAGC'
p3247
I4471
sS'CCAGCC'
p3248
I34347
sS'ATATCC'
p3249
I5246
sS'ATATCA'
p3250
I6386
sS'GCGCTG'
p3251
I12764
sS'TTATTT'
p3252
I25369
sS'TGTGAG'
p3253
I15707
sS'TGTGAA'
p3254
I13846
sS'ACGTCT'
p3255
I3345
sS'TGTGAC'
p3256
I12141
sS'ATATCT'
p3257
I7222
sS'CCAGCT'
p3258
I23996
sS'CACGGT'
p3259
I4290
sS'AAAGAT'
p3260
I12778
sS'TGTGAT'
p3261
I11202
sS'TTATTG'
p3262
I9438
sS'TTATTA'
p3263
I12007
sS'GAAAGC'
p3264
I13796
sS'TTATTC'
p3265
I9931
sS'ACATCT'
p3266
I9988
sS'TTTTAT'
p3267
I20561
sS'CTTACT'
p3268
I8313
sS'TCCACT'
p3269
I12538
sS'TACAAA'
p3270
I13132
sS'AGACGA'
p3271
I3065
sS'TACAAC'
p3272
I5300
sS'CCTCTG'
p3273
I26843
sS'AGGTGG'
p3274
I22323
sS'CCTCTC'
p3275
I24919
sS'AGGTGC'
p3276
I12267
sS'CCTCTA'
p3277
I10125
sS'AGGTGA'
p3278
I16299
sS'TACAAT'
p3279
I6740
sS'TCCACA'
p3280
I13438
sS'TTTTAG'
p3281
I13627
sS'AGACGT'
p3282
I3375
sS'CTTACC'
p3283
I6954
sS'ACATCA'
p3284
I9455
sS'CTTACA'
p3285
I8061
sS'ACATCC'
p3286
I8485
sS'AGGTGT'
p3287
I11775
sS'CCTCTT'
p3288
I19073
sS'GCGTGA'
p3289
I5651
sS'CCCGGC'
p3290
I22946
sS'CCCGGA'
p3291
I10937
sS'CCCGGG'
p3292
I22660
sS'TATGAA'
p3293
I8939
sS'TGGAAT'
p3294
I14844
sS'AATTAA'
p3295
I13465
sS'TTGTGC'
p3296
I8703
sS'TATGAT'
p3297
I6112
sS'TTGTGG'
p3298
I12525
sS'CCCGGT'
p3299
I6023
sS'GGCGTG'
p3300
I11358
sS'TGGAAG'
p3301
I18445
sS'GGTTTT'
p3302
I14011
sS'TGGAAC'
p3303
I9910
sS'TGGAAA'
p3304
I21194
sS'TGAGGA'
p3305
I17322
sS'AAGAGG'
p3306
I18753
sS'TGAGGC'
p3307
I18249
sS'AAGAGA'
p3308
I19145
sS'AAGAGC'
p3309
I13221
sS'TGAGGG'
p3310
I16696
sS'GCTTAG'
p3311
I7076
sS'GCTTAC'
p3312
I5032
sS'GCTTAA'
p3313
I6765
sS'TGATTC'
p3314
I10789
sS'AAGCGC'
p3315
I5403
sS'AAGAGT'
p3316
I10750
sS'AAGCGA'
p3317
I4367
sS'TGAGGT'
p3318
I13377
sS'GCTTAT'
p3319
I5814
sS'CTGCTA'
p3320
I8718
sS'GCGTGT'
p3321
I5182
sS'CTGCTC'
p3322
I20365
sS'ACTTCT'
p3323
I13479
sS'GACCGT'
p3324
I2488
sS'CTGCTG'
p3325
I28876
sS'CGGTCA'
p3326
I3260
sS'GGTCGT'
p3327
I2357
sS'CGGTCC'
p3328
I5828
sS'CTAGAA'
p3329
I10102
sS'CTAGAC'
p3330
I5583
sS'ACTTCG'
p3331
I2880
sS'GACCGC'
p3332
I5134
sS'ACTTCC'
p3333
I15725
sS'CTGCTT'
p3334
I18377
sS'GACCGG'
p3335
I5206
sS'CTAGAT'
p3336
I6267
sS'GGTCGG'
p3337
I5792
sS'CGGTCT'
p3338
I4033
sS'GGTCGC'
p3339
I4927
sS'GGTCGA'
p3340
I2039
sS'CGTCGC'
p3341
I3839
sS'CAGCAT'
p3342
I13015
sS'CGTCGG'
p3343
I3177
sS'GCGTGC'
p3344
I6445
sS'TGCTCA'
p3345
I13597
sS'TTCATC'
p3346
I10739
sS'TGCTCC'
p3347
I16134
sS'TTCATA'
p3348
I9019
sS'TTCATG'
p3349
I10951
sS'TGCTCG'
p3350
I4101
sS'CAGAAT'
p3351
I13615
sS'CAGCAG'
p3352
I28952
sS'TACACT'
p3353
I6296
sS'GCGGCT'
p3354
I11663
sS'CAGCAC'
p3355
I18234
sS'CAGCAA'
p3356
I15500
sS'GGGAGT'
p3357
I13545
sS'GTACAC'
p3358
I4457
sS'TCTGAC'
p3359
I11101
sS'TTCATT'
p3360
I17852
sS'GCTTTA'
p3361
I8782
sS'TGGCCG'
p3362
I9405
sS'GCTGCA'
p3363
I18672
sS'AACTCT'
p3364
I11291
sS'TGGCCC'
p3365
I17420
sS'TGGCCA'
p3366
I20559
sS'GTAGCA'
p3367
I6181
sS'TCATCT'
p3368
I13876
sS'TGCTCT'
p3369
I16372
sS'AACTCA'
p3370
I11385
sS'TGGCCT'
p3371
I18763
sS'AACTCC'
p3372
I13314
sS'GCTGCT'
p3373
I22208
sS'AACTCG'
p3374
I2960
sS'GGATCC'
p3375
I8837
sS'TGAAGA'
p3376
I14512
sS'AATATT'
p3377
I14854
sS'GTTCGA'
p3378
I2404
sS'CAACCT'
p3379
I10519
sS'GCTGCC'
p3380
I24225
sS'GGCACG'
p3381
I6041
sS'GGCACA'
p3382
I13620
sS'GACAAT'
p3383
I6422
sS'GGCACC'
p3384
I13262
sS'CAACCG'
p3385
I3025
sS'CAGAAA'
p3386
I23424
sS'AATATG'
p3387
I8927
sS'CGGTCG'
p3388
I2709
sS'CAACCC'
p3389
I10232
sS'AGCAAG'
p3390
I14599
sS'AATATC'
p3391
I7081
sS'CTTCGT'
p3392
I3313
sS'GACAAA'
p3393
I11756
sS'GGCACT'
p3394
I11806
sS'GACAAC'
p3395
I5953
sS'CAGAAC'
p3396
I12602
sS'GACAAG'
p3397
I9783
sS'GCTGCG'
p3398
I13014
sS'GCGGCG'
p3399
I23246
sS'GCAATA'
p3400
I5772
sS'GAATTT'
p3401
I13448
sS'CGATGG'
p3402
I3083
sS'GACACT'
p3403
I9197
sS'TCCCAT'
p3404
I11990
sS'CGATGC'
p3405
I2446
sS'GTAAAT'
p3406
I9160
sS'CGATGA'
p3407
I2629
sS'GAATTA'
p3408
I8473
sS'GAATTC'
p3409
I9954
sS'GCAATT'
p3410
I7524
sS'TCCCAA'
p3411
I16060
sS'CGATGT'
p3412
I1949
sS'GTAAAA'
p3413
I11664
sS'GTAAAG'
p3414
I8004
sS'TCCCAG'
p3415
I31060
sS'GGATTT'
p3416
I11868
sS'GTGCGT'
p3417
I4242
sS'ACGCCG'
p3418
I4543
sS'GGATTC'
p3419
I8665
sS'GGATTA'
p3420
I9234
sS'AGGTCC'
p3421
I10242
sS'AGCGGC'
p3422
I11071
sS'GATAAG'
p3423
I5988
sS'CTATCA'
p3424
I5267
sS'AAAGCC'
p3425
I15173
sS'TCTGTG'
p3426
I19265
sS'CTATCC'
p3427
I5025
sS'GTCCCG'
p3428
I8607
sS'TCTGTA'
p3429
I10849
sS'AACCGG'
p3430
I3609
sS'CTCCTT'
p3431
I20816
sS'GGCGGA'
p3432
I13405
sS'CAGATA'
p3433
I8602
sS'AACCGC'
p3434
I3930
sS'AACCGA'
p3435
I2761
sS'GTGGGA'
p3436
I17432
sS'TCTGTT'
p3437
I15363
sS'AAAGCG'
p3438
I5012
sS'CTCCTG'
p3439
I29858
sS'AACCGT'
p3440
I2267
sS'CTCCTA'
p3441
I10339
sS'CTCCTC'
p3442
I30714
sS'GGCGGT'
p3443
I7993
sS'AACAAG'
p3444
I11753
sS'GACGCC'
p3445
I6741
sS'CCCACA'
p3446
I17741
sS'CCCACC'
p3447
I27498
sS'ATAGCA'
p3448
I7147
sS'AGCCTT'
p3449
I14127
sS'CCGATT'
p3450
I2299
sS'CCCACT'
p3451
I16391
sS'AACAAT'
p3452
I10143
sS'GACGCT'
p3453
I4510
sS'GTGCGA'
p3454
I2808
sS'CCGATA'
p3455
I1088
sS'CCGATC'
p3456
I2120
sS'AGCCTA'
p3457
I7506
sS'AGCCTC'
p3458
I21901
sS'GTACCC'
p3459
I4442
sS'CTCCCG'
p3460
I16726
sS'ACGAAT'
p3461
I1949
sS'CGCCTT'
p3462
I7214
sS'GCGCCT'
p3463
I11356
sS'TCNNNN'
p3464
I1
sS'CAGAGT'
p3465
I15148
sS'GCATCT'
p3466
I9632
sS'ACCTCG'
p3467
I5406
sS'AGGCAC'
p3468
I13442
sS'CGCCTC'
p3469
I16518
sS'AGGCAA'
p3470
I13595
sS'CGCCTA'
p3471
I3167
sS'AGGCAG'
p3472
I28632
sS'CGCCTG'
p3473
I13672
sS'ACGAAG'
p3474
I3256
sS'CAGAGG'
p3475
I26747
sS'GCATCC'
p3476
I8608
sS'GCATCA'
p3477
I7629
sS'CAGAGC'
p3478
I22681
sS'CGGCCA'
p3479
I9394
sS'CAGAGA'
p3480
I23549
sS'TAGCTA'
p3481
I5255
sS'CCTAGA'
p3482
I9209
sS'CCTAGC'
p3483
I8499
sS'TTTGCT'
p3484
I16444
sS'CGGGAG'
p3485
I16776
sS'TGCGGT'
p3486
I4373
sS'CCTAGG'
p3487
I10787
sS'TAAGCA'
p3488
I8850
sS'GTCTAG'
p3489
I5350
sS'AANNNN'
p3490
I1
sS'TGCGGC'
p3491
I8510
sS'TTTGCC'
p3492
I12710
sS'CCTAGT'
p3493
I7119
sS'TGCGGG'
p3494
I9576
sS'TAAGCG'
p3495
I2145
sS'TGAGTT'
p3496
I11022
sS'CGGGAC'
p3497
I8788
sS'ATCGCT'
p3498
I3176
sS'ATCGCC'
p3499
I3129
sS'TGAGTG'
p3500
I13493
sS'ATCGCA'
p3501
I2104
sS'TGAGTA'
p3502
I8696
sS'ATCGCG'
p3503
I2178
sS'TGAGTC'
p3504
I18320
sS'AAGGTG'
p3505
I13343
sS'AAGGTC'
p3506
I9082
sS'CATCAT'
p3507
I9256
sS'AAGGTA'
p3508
I8001
sS'ACGGCA'
p3509
I3618
sS'CATCAC'
p3510
I9707
sS'ACGGCC'
p3511
I5683
sS'CATCAA'
p3512
I8206
sS'CATCAG'
p3513
I11006
sS'ACGGCG'
p3514
I4387
sS'TCACCT'
p3515
I15919
sS'CGGAAT'
p3516
I2966
sS'ATCGAT'
p3517
I1227
sS'TCACCG'
p3518
I5356
sS'TCACCA'
p3519
I14443
sS'TCACCC'
p3520
I14066
sS'CGGAAG'
p3521
I8380
sS'AATATA'
p3522
I10186
sS'AACTGG'
p3523
I11859
sS'AAAATA'
p3524
I26507
sS'CGGAAC'
p3525
I4205
sS'AGCTCG'
p3526
I5094
sS'CGGAAA'
p3527
I5396
sS'TAGCTT'
p3528
I7266
sS'ATCCAG'
p3529
I11535
sS'ATGGCG'
p3530
I5457
sS'TGTGTA'
p3531
I10387
sS'ATGGCC'
p3532
I9503
sS'ATGGCA'
p3533
I11512
sS'TTCAGA'
p3534
I15560
sS'ATGGCT'
p3535
I10979
sS'TGTGTT'
p3536
I15179
sS'AGAATT'
p3537
I13778
sS'AGATTC'
p3538
I9219
sS'GAAACA'
p3539
I16041
sS'GAAACC'
p3540
I12978
sS'CTGAGT'
p3541
I16508
sS'AGGTAC'
p3542
I5499
sS'GAAACT'
p3543
I13873
sS'AGAATG'
p3544
I14669
sS'AGAATA'
p3545
I10243
sS'ACATAC'
p3546
I6664
sS'CTGAGC'
p3547
I19433
sS'CTGAGA'
p3548
I18876
sS'CTGAGG'
p3549
I24833
sS'CATACC'
p3550
I5038
sS'CATACA'
p3551
I7582
sS'CATACG'
p3552
I1363
sS'GCAATC'
p3553
I5995
sS'TCAAAT'
p3554
I12173
sS'GTCCAT'
p3555
I6128
sS'AGGGGT'
p3556
I12310
sS'CATACT'
p3557
I5639
sS'GTCCAG'
p3558
I12966
sS'TCAAAG'
p3559
I13748
sS'TCAAAA'
p3560
I16323
sS'GTCCAA'
p3561
I6882
sS'CGGCGG'
p3562
I20508
sS'TTGATG'
p3563
I8130
sS'ATCGAG'
p3564
I2117
sS'CGGCGC'
p3565
I15115
sS'TTGATC'
p3566
I5723
sS'CGGCGA'
p3567
I5308
sS'TCCAAG'
p3568
I13533
sS'CGTTAG'
p3569
I2005
sS'AAGTGA'
p3570
I15315
sS'AACTGC'
p3571
I10849
sS'CGGCGT'
p3572
I4638
sS'ATCGAC'
p3573
I1091
sS'TATAAG'
p3574
I5324
sS'TCGTCT'
p3575
I3080
sS'CGGTTA'
p3576
I1716
sS'GGTTTA'
p3577
I6938
sS'CGGTTC'
p3578
I3941
sS'GCTGTT'
p3579
I12677
sS'CGGTTG'
p3580
I3191
sS'GGTTTG'
p3581
I10638
sS'CCATTG'
p3582
I8831
sS'CGAGTC'
p3583
I4291
sS'GCTGTG'
p3584
I20560
sS'GCTGTC'
p3585
I12435
sS'CGGTTT'
p3586
I3928
sS'GCTGTA'
p3587
I8031
sS'GGGAGG'
p3588
I47191
sS'TATGCG'
p3589
I1219
sS'AGGTTG'
p3590
I10568
sS'AGGTTC'
p3591
I9032
sS'AGGTTA'
p3592
I7388
sS'CNNNNN'
p3593
I2
sS'ACTCCT'
p3594
I14410
sS'TTTTTC'
p3595
I25739
sS'TCCATC'
p3596
I10811
sS'TTTTTA'
p3597
I26473
sS'TCCTCT'
p3598
I22228
sS'TTTTTG'
p3599
I22103
sS'TCCATG'
p3600
I10527
sS'TTAAAT'
p3601
I15805
sS'AGGTTT'
p3602
I12566
sS'ACATAT'
p3603
I8018
sS'TTAAAC'
p3604
I9358
sS'ATACGT'
p3605
I1738
sS'TTAAAA'
p3606
I27239
sS'ACTCCG'
p3607
I5466
sS'TTAAAG'
p3608
I13348
sS'ACTCCA'
p3609
I14783
sS'TTTTTT'
p3610
I79819
sS'ACTCCC'
p3611
I13569
sS'TAGGCT'
p3612
I7392
sS'GTCACG'
p3613
I4355
sS'CTGTAC'
p3614
I6798
sS'GCAACT'
p3615
I7569
sS'GTCACC'
p3616
I12270
sS'CTGTAG'
p3617
I9987
sS'GTCACA'
p3618
I11958
sS'GCAACG'
p3619
I3236
sS'GGTCTT'
p3620
I9533
sS'GTCACT'
p3621
I12484
sS'TAGGCG'
p3622
I3256
sS'GCAACC'
p3623
I8155
sS'CTGTAT'
p3624
I8324
sS'GCAACA'
p3625
I9893
sS'TAGGCC'
p3626
I6600
sS'ATTCAT'
p3627
I12569
sS'TCCCAC'
p3628
I17324
sS'GCGATT'
p3629
I2733
sS'TCGTGT'
p3630
I2670
sS'TTCACT'
p3631
I13057
sS'GTCTCT'
p3632
I14988
sS'TCCGTG'
p3633
I4995
sS'ATTCAG'
p3634
I12224
sS'ATTCAA'
p3635
I10666
sS'ATTCAC'
p3636
I9123
sS'GTCTCC'
p3637
I15008
sS'GTCTCA'
p3638
I12680
sS'GCGATG'
p3639
I3429
sS'TTCACC'
p3640
I11454
sS'GCGATA'
p3641
I1278
sS'TTCACA'
p3642
I13727
sS'GCGATC'
p3643
I3067
sS'GAAGGC'
p3644
I15801
sS'GAAGGA'
p3645
I20609
sS'TTGTAC'
p3646
I5297
sS'GAAGGG'
p3647
I21086
sS'CGATTA'
p3648
I1233
sS'CAATCT'
p3649
I7778
sS'GGAACA'
p3650
I11911
sS'GGAACG'
p3651
I4933
sS'TGACGA'
p3652
I2249
sS'TACTGC'
p3653
I7338
sS'CGATTT'
p3654
I2723
sS'GAAGGT'
p3655
I11199
sS'CTCGCT'
p3656
I7521
sS'CAATCG'
p3657
I2019
sS'CAATCA'
p3658
I8857
sS'GGAACT'
p3659
I11138
sS'TCCTGA'
p3660
I18238
sS'AGTCCA'
p3661
I10317
sS'TCCTGC'
p3662
I22482
sS'AGTCCC'
p3663
I13663
sS'ACTAAA'
p3664
I10062
sS'TCCTGG'
p3665
I27194
sS'ACTAAC'
p3666
I4892
sS'TAACGC'
p3667
I1714
sS'TAACGA'
p3668
I1541
sS'CAGCTA'
p3669
I10777
sS'CAGCTC'
p3670
I22327
sS'ACTAAT'
p3671
I6337
sS'GATTGT'
p3672
I6029
sS'AGTCCT'
p3673
I12354
sS'TCCTGT'
p3674
I16821
sS'TAATGT'
p3675
I7968
sS'CAGCTT'
p3676
I16155
sS'GGTTAG'
p3677
I5766
sS'TAACGT'
p3678
I1999
sS'TTGACC'
p3679
I6477
sS'GTACTT'
p3680
I6398
sS'CGACAT'
p3681
I1782
sS'TTGTTC'
p3682
I10748
sS'CCGAGG'
p3683
I12569
sS'CGACTG'
p3684
I3608
sS'CCGAGA'
p3685
I6913
sS'CAGGCC'
p3686
I24481
sS'CCGAGC'
p3687
I9456
sS'CCGCGT'
p3688
I5196
sS'CGACAC'
p3689
I2876
sS'CGACAA'
p3690
I2021
sS'GTACTC'
p3691
I4168
sS'GTACTA'
p3692
I3077
sS'CCGCGC'
p3693
I18235
sS'TTGACG'
p3694
I1932
sS'CCGCGA'
p3695
I5357
sS'CCGCGG'
p3696
I16613
sS'TTGTTT'
p3697
I23114
sS'TCCGTT'
p3698
I3242
sS'AGCCAA'
p3699
I14450
sS'AATAAC'
p3700
I8449
sS'AATAAA'
p3701
I24669
sS'AATAAG'
p3702
I9911
sS'GGATTG'
p3703
I7459
sS'TACTAA'
p3704
I6786
sS'GAGTGT'
p3705
I9343
sS'AATAAT'
p3706
I13826
sS'ACGGTG'
p3707
I4584
sS'CCAACC'
p3708
I11009
sS'CCAACA'
p3709
I11589
sS'CCAACG'
p3710
I3376
sS'GGGATT'
p3711
I12552
sS'CGCCGC'
p3712
I22610
sS'AGTAAA'
p3713
I11919
sS'CGCCGA'
p3714
I4990
sS'GAGTAG'
p3715
I7894
sS'TCGAGT'
p3716
I2288
sS'GAGTAA'
p3717
I7935
sS'AGTAAG'
p3718
I8234
sS'CTCAGG'
p3719
I22786
sS'CTCAGC'
p3720
I23911
sS'CCAACT'
p3721
I9755
sS'AAAGAG'
p3722
I19339
sS'ATCGTC'
p3723
I1611
sS'GTGTAG'
p3724
I5977
sS'TCGAGC'
p3725
I2761
sS'AGTAAT'
p3726
I8266
sS'GTGTAC'
p3727
I4510
sS'CGCCGT'
p3728
I4341
sS'GTGGCA'
p3729
I14841
sS'GTGGCC'
p3730
I17549
sS'GCTTCC'
p3731
I19515
sS'CTCGGC'
p3732
I12412
sS'GCCGCC'
p3733
I25996
sS'GCCGCA'
p3734
I8376
sS'GCCGCG'
p3735
I16982
sS'TATTGA'
p3736
I6949
sS'ACACTT'
p3737
I10546
sS'CTCGGT'
p3738
I4897
sS'AGATAT'
p3739
I7043
sS'GTGGCT'
p3740
I18954
sS'CATATA'
p3741
I6329
sS'CAGTCG'
p3742
I3568
sS'ACACTC'
p3743
I9322
sS'ACACTA'
p3744
I5946
sS'ACACTG'
p3745
I13477
sS'GCCGCT'
p3746
I10986
sS'ACCGGA'
p3747
I3815
sS'AAATAA'
p3748
I25290
sS'ACCGGC'
p3749
I5318
sS'AAATAC'
p3750
I13078
sS'CTTTAA'
p3751
I13519
sS'AATCCT'
p3752
I11062
sS'AAATAG'
p3753
I11787
sS'CACGAG'
p3754
I4440
sS'CAGGTA'
p3755
I9671
sS'AACTTC'
p3756
I10969
sS'CAGGTC'
p3757
I12601
sS'CACGAC'
p3758
I2774
sS'AACTTG'
p3759
I10131
sS'CAGGTG'
p3760
I21782
sS'CTTTAT'
p3761
I11531
sS'AATCCC'
p3762
I12892
sS'GCTCGT'
p3763
I2835
sS'AATCCA'
p3764
I10431
sS'AAATAT'
p3765
I18077
sS'AATCCG'
p3766
I2668
sS'TCAGCG'
p3767
I5869
sS'CAGGTT'
p3768
I12550
sS'AACTTT'
p3769
I13122
sS'TCTGTC'
p3770
I15685
sS'GGGATA'
p3771
I5792
sS'GGGATC'
p3772
I8074
sS'GGGTGT'
p3773
I12594
sS'GGGATG'
p3774
I13307
sS'GATGCT'
p3775
I8949
sS'CGCAGT'
p3776
I5347
sS'GAGTCG'
p3777
I4013
sS'GAGCCT'
p3778
I16250
sS'GGAGAC'
p3779
I15077
sS'GGCGGC'
p3780
I26446
sS'GGAGAA'
p3781
I21430
sS'GGGTGC'
p3782
I12441
sS'GGAGAG'
p3783
I26389
sS'GGGTGG'
p3784
I26387
sS'GAGCCA'
p3785
I19139
sS'CGCAGG'
p3786
I11940
sS'GATGCG'
p3787
I3063
sS'CGCAGA'
p3788
I6834
sS'GATGCA'
p3789
I7868
sS'CGCAGC'
p3790
I12904
sS'GATGCC'
p3791
I8513
sS'CGGATT'
p3792
I2729
sS'GGTAGT'
p3793
I4640
sS'ACCCCT'
p3794
I12682
sS'GCCAAT'
p3795
I8438
sS'GGCGGG'
p3796
I35385
sS'AGAGTC'
p3797
I10491
sS'AGAAGT'
p3798
I12941
sS'ACCCCA'
p3799
I15495
sS'GGTAGA'
p3800
I7341
sS'GCCAAA'
p3801
I11436
sS'CGGATG'
p3802
I3596
sS'GCCAAG'
p3803
I15960
sS'CGGATA'
p3804
I1441
sS'ACCCCG'
p3805
I9282
sS'CGGATC'
p3806
I3687
sS'AGAAGA'
p3807
I18591
sS'AGAAGC'
p3808
I16224
sS'GCAAGA'
p3809
I11437
sS'AGAAGG'
p3810
I20724
sS'CACTCC'
p3811
I16028
sS'CACTCA'
p3812
I13087
sS'CACTCG'
p3813
I4238
sS'TGCGTT'
p3814
I3240
sS'GCAAGG'
p3815
I12896
sS'AGCTTT'
p3816
I14091
sS'CCCCGG'
p3817
I18316
sS'TGCGTA'
p3818
I1808
sS'CCCCGC'
p3819
I29918
sS'CACTCT'
p3820
I13465
sS'AGCTTC'
p3821
I13752
sS'AGCTTA'
p3822
I6785
sS'AGCTTG'
p3823
I10658
sS'ATACGA'
p3824
I1227
sS'NNACAA'
p3825
I1
sS'TTAGCT'
p3826
I8359
sS'AGGAAG'
p3827
I30222
sS'TTAGCC'
p3828
I7627
sS'TTAGCA'
p3829
I8337
sS'GACCAT'
p3830
I5781
sS'TTAGCG'
p3831
I2040
sS'CGATCC'
p3832
I2837
sS'TCATAT'
p3833
I7425
sS'ATAGGT'
p3834
I4811
sS'ATAAGG'
p3835
I7049
sS'AAACGA'
p3836
I3632
sS'TGTGCT'
p3837
I13920
sS'AAGGGC'
p3838
I14023
sS'ATAAGC'
p3839
I5823
sS'AAGGGA'
p3840
I19002
sS'ATAAGA'
p3841
I8276
sS'CCAGAC'
p3842
I13682
sS'CCAGAA'
p3843
I18638
sS'CCAGAG'
p3844
I23961
sS'TGTGCG'
p3845
I5395
sS'TCTAAA'
p3846
I11075
sS'AAGGGT'
p3847
I9631
sS'TGTGCC'
p3848
I13615
sS'ATAGGA'
p3849
I6934
sS'TGTGCA'
p3850
I12851
sS'ATAGGC'
p3851
I4976
sS'TAAGTT'
p3852
I7438
sS'TTTGCG'
p3853
I3182
sS'CCAGAT'
p3854
I11245
sS'AGACAA'
p3855
I12139
sS'GACGCA'
p3856
I4076
sS'AGACAC'
p3857
I12218
sS'AGACAG'
p3858
I18488
sS'TTTTCT'
p3859
I31963
sS'CGCTGT'
p3860
I6255
sS'CCCACG'
p3861
I8986
sS'CGTGGG'
p3862
I9020
sS'AGACAT'
p3863
I9757
sS'CGTGGA'
p3864
I5358
sS'TTTTCG'
p3865
I3080
sS'AACAAC'
p3866
I9366
sS'CGTCTT'
p3867
I4004
sS'TTTTCC'
p3868
I23693
sS'TTTTCA'
p3869
I20557
sS'CGCTGG'
p3870
I11287
sS'TATGGA'
p3871
I6438
sS'TATGGC'
p3872
I5250
sS'CGTAGG'
p3873
I2568
sS'CGTAGA'
p3874
I1927
sS'TATGGG'
p3875
I5903
sS'CGTAGC'
p3876
I2340
sS'CTTCAG'
p3877
I16692
sS'AAGTGT'
p3878
I10409
sS'TGGACT'
p3879
I10391
sS'CGTAGT'
p3880
I1806
sS'NNCACA'
p3881
I1
sS'TATGGT'
p3882
I5213
sS'TGGACA'
p3883
I11665
sS'TGGACC'
p3884
I7975
sS'TGGACG'
p3885
I4191
sS'GGCGGN'
p3886
I1
sS'CCGGTT'
p3887
I3791
sS'CTAGCT'
p3888
I7507
sS'GCTTGA'
p3889
I9023
sS'TGAGAC'
p3890
I12644
sS'GCTTGC'
p3891
I9196
sS'TGAGAA'
p3892
I17858
sS'TGAGAG'
p3893
I15317
sS'GCTTGG'
p3894
I13207
sS'CCTGTT'
p3895
I13408
sS'CCGGTG'
p3896
I6282
sS'CCGGTC'
p3897
I5024
sS'ACTTAT'
p3898
I6218
sS'CCTGTC'
p3899
I15759
sS'CCTGTA'
p3900
I12091
sS'CTCGCC'
p3901
I10229
sS'GCTTGT'
p3902
I8721
sS'TGAGAT'
p3903
I12041
sS'GGTTGT'
p3904
I7463
sS'AGGGAT'
p3905
I10899
sS'TATCAG'
p3906
I6642
sS'TATTGC'
p3907
I5803
sS'AATTCN'
p3908
I1
sS'TAGCGT'
p3909
I1702
sS'GGTTGG'
p3910
I11168
sS'GGTTGA'
p3911
I6785
sS'TTCACG'
p3912
I3534
sS'GGTTGC'
p3913
I8296
sS'TCCCGC'
p3914
I13702
sS'GTAACG'
p3915
I1656
sS'TCCCGG'
p3916
I14447
sS'GTAACC'
p3917
I4942
sS'CGTTTT'
p3918
I4986
sS'ATTCTC'
p3919
I12409
sS'AGGGAA'
p3920
I23066
sS'ATTCTA'
p3921
I8825
sS'ATTCTG'
p3922
I13748
sS'TCATTT'
p3923
I20111
sS'GTAACT'
p3924
I6880
sS'TGCTAA'
p3925
I8510
sS'TGCTAG'
p3926
I7166
sS'CAGCGG'
p3927
I11816
sS'AGGATC'
p3928
I8757
sS'TCATTC'
p3929
I13864
sS'TCATTA'
p3930
I9339
sS'CGTTTA'
p3931
I2424
sS'ATTCTT'
p3932
I14262
sS'CGTTTC'
p3933
I4993
sS'CCACTC'
p3934
I14155
sS'TGGCAA'
p3935
I12031
sS'TGGCAC'
p3936
I12190
sS'TGGCAG'
p3937
I21151
sS'GGCCGT'
p3938
I5719
sS'CCAAGC'
p3939
I13250
sS'GCTGAC'
p3940
I11169
sS'TGGCAT'
p3941
I11049
sS'GGCCGG'
p3942
I20373
sS'GTTCAA'
p3943
I8870
sS'NNGATC'
p3944
I1
sS'CCGATG'
p3945
I2428
sS'GGCCGC'
p3946
I19739
sS'GAACTT'
p3947
I9610
sS'GGCCGA'
p3948
I8641
sS'GGCAAT'
p3949
I7123
sS'CGCTCG'
p3950
I5925
sS'CTATAA'
p3951
I6377
sS'CTGATT'
p3952
I11882
sS'CCATCG'
p3953
I3003
sS'CTAAAT'
p3954
I9129
sS'CCATCC'
p3955
I13328
sS'CCATCA'
p3956
I9726
sS'CTGATC'
p3957
I7432
sS'CTGATA'
p3958
I6500
sS'GTACCA'
p3959
I4485
sS'GGCAAC'
p3960
I9060
sS'GGCAAA'
p3961
I12522
sS'CTAAAG'
p3962
I8643
sS'CCATCT'
p3963
I15342
sS'CTAAAC'
p3964
I6602
sS'CTAAAA'
p3965
I13761
sS'GACACC'
p3966
I9538
sS'GACACA'
p3967
I12580
sS'GACACG'
p3968
I4145
sS'AGGCAT'
p3969
I11583
sS'CGTATA'
p3970
I1030
sS'TACGAG'
p3971
I1597
sS'TACGAC'
p3972
I1139
sS'GGAAAG'
p3973
I22195
sS'TACGAA'
p3974
I1568
sS'GGCGAT'
p3975
I3141
sS'ACGCTG'
p3976
I5837
sS'GCATAA'
p3977
I5468
sS'CTATTC'
p3978
I6205
sS'TCGATG'
p3979
I1808
sS'TCGATA'
p3980
I957
sS'TCGATC'
p3981
I1467
sS'GCATAT'
p3982
I5396
sS'CGCGAA'
p3983
I2309
sS'GCATTG'
p3984
I7177
sS'CTGTTG'
p3985
I12447
sS'TGCCTA'
p3986
I8160
sS'TCGGCA'
p3987
I3279
sS'GCGCCC'
p3988
I19592
sS'TTTTGA'
p3989
I16675
sS'AACCAA'
p3990
I11096
sS'TGCCGG'
p3991
I7709
sS'AACCAC'
p3992
I11050
sS'GCGCCA'
p3993
I9365
sS'AACCAG'
p3994
I12556
sS'TGCCGA'
p3995
I3404
sS'TTGGAC'
p3996
I6940
sS'TCTGGA'
p3997
I16843
sS'GCGCCG'
p3998
I14981
sS'TGCCGT'
p3999
I3575
sS'AACCAT'
p4000
I7504
sS'CTGTTC'
p4001
I12400
sS'AACAGA'
p4002
I15376
sS'CTACCG'
p4003
I2560
sS'AACAGC'
p4004
I12816
sS'CTACCC'
p4005
I7960
sS'AACAGG'
p4006
I13247
sS'CTACCA'
p4007
I7246
sS'CCCAAG'
p4008
I16852
sS'AGCAGC'
p4009
I22181
sS'GACGAA'
p4010
I2411
sS'CCCAAC'
p4011
I11346
sS'CCCAAA'
p4012
I17319
sS'CTACCT'
p4013
I8857
sS'GGGAGA'
p4014
I23730
sS'AACAGT'
p4015
I9908
sS'GGGAGC'
p4016
I22898
sS'CCCAAT'
p4017
I7113
sS'GACGAT'
p4018
I1657
sS'GGGCGC'
p4019
I19471
sS'GGGCGA'
p4020
I8474
sS'GGGCGG'
p4021
I33793
sS'TCTCTT'
p4022
I19168
sS'GTACAG'
p4023
I6601
sS'CGTTAA'
p4024
I1833
sS'GTACAA'
p4025
I5291
sS'ACGACT'
p4026
I2162
sS'TCTCTC'
p4027
I24349
sS'TCTCTA'
p4028
I11803
sS'TCTCTG'
p4029
I23142
sS'GGGCGT'
p4030
I8631
sS'ACGACC'
p4031
I2355
sS'ACGACA'
p4032
I2368
sS'ACGACG'
p4033
I1496
sS'CAGAAG'
p4034
I20213
sS'CACTTT'
p4035
I16431
sS'CCTAAT'
p4036
I6423
sS'GTCATT'
p4037
I10573
sS'CACTTG'
p4038
I11956
sS'CCTAAC'
p4039
I6480
sS'CCTAAA'
p4040
I9411
sS'CACTTC'
p4041
I14449
sS'CCTAAG'
p4042
I8574
sS'CACTTA'
p4043
I8715
sS'GCGGAT'
p4044
I3842
sS'CTGCGG'
p4045
I13274
sS'AAGATT'
p4046
I10376
sS'CTCATG'
p4047
I11336
sS'GACTCG'
p4048
I4380
sS'CTCATC'
p4049
I11683
sS'GACTCC'
p4050
I12472
sS'CTCATA'
p4051
I7082
sS'GACTCA'
p4052
I18375
sS'AAGATA'
p4053
I8672
sS'CTCCAA'
p4054
I14438
sS'AAGATG'
p4055
I12864
sS'GACTCT'
p4056
I10528
sS'CTCATT'
p4057
I14865
sS'ATCGAA'
p4058
I1652
sS'GGACTA'
p4059
I5898
sS'ATATTT'
p4060
I17920
sS'ATAGAG'
p4061
I7065
sS'GGACTC'
p4062
I11334
sS'ATAGTT'
p4063
I6307
sS'TACTGT'
p4064
I8161
sS'ATATTC'
p4065
I7680
sS'ATATTA'
p4066
I8467
sS'ATATTG'
p4067
I6893
sS'ATAGTA'
p4068
I5039
sS'TACTGA'
p4069
I8111
sS'TACTGG'
p4070
I7532
sS'ATAGTG'
p4071
I5643
sS'GATCGA'
p4072
I1548
sS'CAGGCA'
p4073
I23414
sS'ACGGAA'
p4074
I3978
sS'CATCCG'
p4075
I3483
sS'AGGAAA'
p4076
I28778
sS'CATCCA'
p4077
I10884
sS'AGGAAC'
p4078
I12646
sS'CATCCC'
p4079
I13153
sS'TTATGA'
p4080
I8612
sS'TTATGC'
p4081
I5396
sS'CGGAGT'
p4082
I5535
sS'TTATGG'
p4083
I6772
sS'CATCCT'
p4084
I13759
sS'AGGAAT'
p4085
I14654
sS'TACAGC'
p4086
I7902
sS'CAGGCT'
p4087
I24833
sS'ACGGAT'
p4088
I2027
sS'CGGAGA'
p4089
I7630
sS'CGGAGC'
p4090
I12864
sS'TTATGT'
p4091
I8835
sS'CGGAGG'
p4092
I13715
sS'ATGGAA'
p4093
I14114
sS'ATGGAC'
p4094
I6194
sS'ATGGAG'
p4095
I13085
sS'CGCTTG'
p4096
I4822
sS'CGCTTA'
p4097
I2078
sS'CGCTTC'
p4098
I6812
sS'ATGGAT'
p4099
I7422
sS'TTTGCA'
p4100
I14510
sS'CGCTTT'
p4101
I4898
sS'GGGTCG'
p4102
I5746
sS'GATCGT'
p4103
I1579
sS'TGCGGA'
p4104
I5131
sS'TTGTGA'
p4105
I11262
sS'GAAAAG'
p4106
I20504
sS'GAAAAC'
p4107
I15392
sS'ATAGAT'
p4108
I5888
sS'GAAAAA'
p4109
I25609
sS'GTTCCT'
p4110
I12912
sS'TAAGTA'
p4111
I6942
sS'ACGGTT'
p4112
I2333
sS'GAAAAT'
p4113
I18003
sS'CGGCAT'
p4114
I2854
sS'ACAAGG'
p4115
I11825
sS'ACAAGA'
p4116
I11174
sS'AAAAAA'
p4117
I78683
sS'ACAAGC'
p4118
I8796
sS'ACACGT'
p4119
I3861
sS'CTGCGT'
p4120
I5963
sS'GCGGAG'
p4121
I16036
sS'CATAAG'
p4122
I5956
sS'GCGGAA'
p4123
I6078
sS'CATAAA'
p4124
I11378
sS'GCGGAC'
p4125
I5776
sS'CATAAC'
p4126
I5145
sS'ACACGC'
p4127
I5022
sS'ACAAGT'
p4128
I8433
sS'ACACGA'
p4129
I2728
sS'ACACGG'
p4130
I4646
sS'CATAAT'
p4131
I7293
sS'GTCCCA'
p4132
I12838
sS'GTCCCC'
p4133
I15684
sS'CTGCGA'
p4134
I5155
sS'CTGCGC'
p4135
I12671
sS'CGGCAA'
p4136
I3647
sS'CGGCAC'
p4137
I5155
sS'CGGCAG'
p4138
I11244
sS'GACGCG'
p4139
I5107
sS'CCTCCT'
p4140
I34351
sS'TGTTGA'
p4141
I9661
sS'CAGGCG'
p4142
I13835
sS'CCTCCC'
p4143
I46859
sS'CCTCCA'
p4144
I23155
sS'CCTCCG'
p4145
I13605
sS'CGTGAT'
p4146
I3149
s.