(dp0
S'GGGCTT'
p1
I71129
sS'GAACGT'
p2
I12304
sS'CTTCTT'
p3
I113884
sS'CACCCT'
p4
I89152
sS'GAACGG'
p5
I13319
sS'GAACGC'
p6
I12906
sS'GAACGA'
p7
I10621
sS'CACCCA'
p8
I105442
sS'CTTCTA'
p9
I64917
sS'CACCCC'
p10
I95956
sS'CTTCTC'
p11
I114889
sS'CACCCG'
p12
I31569
sS'CTTCTG'
p13
I117452
sS'GTCTCG'
p14
I21733
sS'CGTGTG'
p15
I25818
sS'TAAGGT'
p16
I42853
sS'CGTGTC'
p17
I16892
sS'CGTGTA'
p18
I10366
sS'GGAAAT'
p19
I106146
sS'TAAGGG'
p20
I45011
sS'CGTGTT'
p21
I17517
sS'TAAGGC'
p22
I41820
sS'TAAGGA'
p23
I67161
sS'GTCAAA'
p24
I55105
sS'AGGGAT'
p25
I63970
sS'GTCAAG'
p26
I46216
sS'CTGTCC'
p27
I84964
sS'TCAGAG'
p28
I108021
sS'CTGTCA'
p29
I83244
sS'CTGTCG'
p30
I17209
sS'TCAGAC'
p31
I58009
sS'TCAGAA'
p32
I111534
sS'GTCAAT'
p33
I34673
sS'GTATCA'
p34
I33958
sS'GTATCC'
p35
I25123
sS'GTATCG'
p36
I4274
sS'CTGTCT'
p37
I114847
sS'GGTGTC'
p38
I47118
sS'GGTGTA'
p39
I28957
sS'GGTGTG'
p40
I85723
sS'TATCCT'
p41
I50531
sS'CCGGGG'
p42
I58092
sS'TTCTGT'
p43
I122373
sS'ATTCCT'
p44
I101357
sS'CCGGGC'
p45
I66273
sS'CCGGGA'
p46
I45999
sS'TATCCA'
p47
I47247
sS'TATCCC'
p48
I35966
sS'GTTCTG'
p49
I73393
sS'TATCCG'
p50
I6095
sS'GGTGTT'
p51
I51903
sS'ATTCCG'
p52
I11263
sS'TTCTGG'
p53
I109715
sS'CCGGGT'
p54
I30945
sS'ATTCCC'
p55
I65666
sS'TTCTGC'
p56
I95700
sS'ATTCCA'
p57
I97950
sS'TTCTGA'
p58
I111492
sS'TGCACT'
p59
I70433
sS'GGNCCC'
p60
I1
sS'GGNCCG'
p61
I1
sS'CGTCAT'
p62
I12406
sS'CGCGGT'
p63
I15781
sS'CCCGCG'
p64
I41330
sS'ACGAAC'
p65
I7805
sS'CGCGGG'
p66
I41335
sS'NCCGCC'
p67
I1
sS'CGCGGC'
p68
I42442
sS'CGCGGA'
p69
I17780
sS'NCCCAC'
p70
I1
sS'ACCTGT'
p71
I63905
sS'TCATGT'
p72
I70642
sS'CTCCGA'
p73
I18805
sS'TTACAG'
p74
I96590
sS'CTCCGC'
p75
I44777
sS'TTACAA'
p76
I76854
sS'TTACAC'
p77
I45468
sS'CTCCGG'
p78
I37029
sS'TCATGC'
p79
I61018
sS'ACCTGG'
p80
I89481
sS'TCATGA'
p81
I71864
sS'TCATGG'
p82
I63964
sS'ACCTGC'
p83
I70868
sS'GCGCNN'
p84
I1
sS'ACCTGA'
p85
I66145
sS'AGAGGG'
p86
I113425
sS'CTCGAT'
p87
I9361
sS'CTCCGT'
p88
I23883
sS'GCCTGA'
p89
I80498
sS'GCCTGC'
p90
I92880
sS'GCCTGG'
p91
I167969
sS'TCTTGC'
p92
I71106
sS'GGGTCA'
p93
I54984
sS'TAAAGG'
p94
I68804
sS'CAAATT'
p95
I90405
sS'TAAAGA'
p96
I92450
sS'TAAAGC'
p97
I57780
sS'GCCTGT'
p98
I93809
sS'TCCCCG'
p99
I45512
sS'TAAAGT'
p100
I73853
sS'CAAATA'
p101
I98978
sS'ACGTCC'
p102
I13944
sS'CAAATC'
p103
I64800
sS'CGTGCT'
p104
I18519
sS'CAAATG'
p105
I96739
sS'AATACT'
p106
I65783
sS'TATCTC'
p107
I56994
sS'TCGATT'
p108
I8489
sS'GGCATG'
p109
I74270
sS'GGCATA'
p110
I35988
sS'GGCATC'
p111
I46874
sS'AATACG'
p112
I10614
sS'AATACA'
p113
I92236
sS'AATACC'
p114
I43994
sS'GGCATT'
p115
I65361
sS'TATCTG'
p116
I64882
sS'TGCACA'
p117
I79089
sS'GAGCAC'
p118
I51517
sS'ACTGAT'
p119
I57005
sS'GAGCAG'
p120
I101968
sS'AGTAGT'
p121
I41361
sS'TCTCGC'
p122
I21001
sS'TCTCGA'
p123
I16035
sS'TCTCGG'
p124
I26092
sS'ACTGAG'
p125
I88272
sS'AGTAGA'
p126
I62059
sS'AGTAGG'
p127
I48588
sS'ACTGAA'
p128
I90714
sS'ACGGCC'
p129
I19119
sS'TTTGTT'
p130
I172592
sS'GTGTCG'
p131
I10291
sS'TCGAAC'
p132
I10538
sS'TCTNCC'
p133
I1
sS'TCGAAA'
p134
I10466
sS'GTGTCC'
p135
I56038
sS'TCGAAG'
p136
I10779
sS'GTGTCA'
p137
I57670
sS'CTTGCT'
p138
I88712
sS'CCGTCT'
p139
I25955
sS'GTGTCT'
p140
I72075
sS'TTGAAG'
p141
I74394
sS'TCGAAT'
p142
I8954
sS'CTTGCG'
p143
I12771
sS'CTTGCA'
p144
I64219
sS'CTTGCC'
p145
I71171
sS'CGAAAG'
p146
I14227
sS'CGAAAA'
p147
I14019
sS'CGAAAC'
p148
I11959
sS'AATCAT'
p149
I78297
sS'AAATGC'
p150
I98456
sS'CACGGC'
p151
I24674
sS'AAATGA'
p152
I148497
sS'AAATGG'
p153
I101509
sS'CACGGG'
p154
I24784
sS'ACAGTA'
p155
I58876
sS'CGAAAT'
p156
I11205
sS'ACAGTT'
p157
I71628
sS'AATCAG'
p158
I76827
sS'AATCAA'
p159
I74639
sS'AAATGT'
p160
I139987
sS'AATCAC'
p161
I67158
sS'GGGTCT'
p162
I57857
sS'GCTCAA'
p163
I58235
sS'TCTAGT'
p164
I46856
sS'TTGCCG'
p165
I13014
sS'TTGCCA'
p166
I77560
sS'TTGCCC'
p167
I70214
sS'TTGCCT'
p168
I86136
sS'TCTAGG'
p169
I54730
sS'GGGTAA'
p170
I39535
sS'TCTAGA'
p171
I58217
sS'GGGTAG'
p172
I40895
sS'TCTAGC'
p173
I40646
sS'ATACGG'
p174
I7434
sS'ATACAT'
p175
I68566
sS'AGATGT'
p176
I69782
sS'TCGCCC'
p177
I27506
sS'AGNNNN'
p178
I1
sS'TCGCCA'
p179
I16059
sS'TCGCCG'
p180
I13830
sS'GGTAAT'
p181
I38417
sS'ACCCAT'
p182
I46749
sS'GTCAAC'
p183
I30896
sS'CTCACC'
p184
I84420
sS'ACCCAC'
p185
I65107
sS'GGTAAC'
p186
I29841
sS'ACCCAA'
p187
I59559
sS'AGATGG'
p188
I90564
sS'ACCCAG'
p189
I109753
sS'GGTAAG'
p190
I40119
sS'TCGCCT'
p191
I19923
sS'AGATGC'
p192
I57740
sS'GCTCAC'
p193
I77834
sS'CCCCAT'
p194
I73322
sS'TTGGGT'
p195
I59547
sS'CACTAG'
p196
I41822
sS'CACTAA'
p197
I47772
sS'CACTAC'
p198
I33548
sS'CCCCAA'
p199
I85235
sS'CCCCAC'
p200
I113542
sS'CCCCAG'
p201
I145243
sS'CACTAT'
p202
I41981
sS'NACAAC'
p203
I1
sS'TTGGGG'
p204
I85149
sS'TCGGTT'
p205
I11054
sS'TTGGGA'
p206
I98693
sS'TTGGGC'
p207
I57419
sS'TGCCTG'
p208
I134324
sS'TAGTGG'
p209
I43933
sS'TTTCTG'
p210
I154253
sS'TGCAGC'
p211
I92022
sS'TTTCTA'
p212
I109148
sS'TTTCTC'
p213
I148879
sS'TGCAGG'
p214
I100546
sS'ACGCCT'
p215
I26626
sS'TTTCTN'
p216
I1
sS'GTATCT'
p217
I43231
sS'TTTCTT'
p218
I215862
sS'ACGTGC'
p219
I18117
sS'TGCCTT'
p220
I100311
sS'TGCAGT'
p221
I103681
sS'TAGTGC'
p222
I29946
sS'AAGGAA'
p223
I158821
sS'TACAGT'
p224
I60694
sS'AAGGAC'
p225
I60872
sS'AAGGAG'
p226
I113800
sS'ATATGC'
p227
I42258
sS'GTTCCA'
p228
I56502
sS'ATATGA'
p229
I62998
sS'TACGAA'
p230
I8605
sS'ATATGG'
p231
I43804
sS'GAGTTC'
p232
I59193
sS'AAGGAT'
p233
I67607
sS'CTATCA'
p234
I39670
sS'GGCTCG'
p235
I24581
sS'TGACTT'
p236
I85698
sS'GGTCCC'
p237
I59068
sS'GCCCAG'
p238
I154664
sS'ATGCAG'
p239
I76706
sS'GCCCAA'
p240
I57438
sS'GGTCCG'
p241
I15482
sS'AGGTCT'
p242
I61563
sS'TGTGTC'
p243
I77935
sS'AGACCC'
p244
I57840
sS'ATTGTT'
p245
I80756
sS'CTTCGA'
p246
I10775
sS'CTTCGC'
p247
I15710
sS'ATGCAA'
p248
I70604
sS'GCCCAT'
p249
I48160
sS'AGGTCA'
p250
I89314
sS'TCCGGC'
p251
I25039
sS'GGTCCT'
p252
I52899
sS'TCCGGA'
p253
I18402
sS'CTTAGC'
p254
I44416
sS'ATTGTG'
p255
I63921
sS'CTTAGA'
p256
I55943
sS'ATGCAC'
p257
I46685
sS'CTTAGG'
p258
I50986
sS'ATTGTC'
p259
I43887
sS'TCTTGG'
p260
I88242
sS'GCCTTT'
p261
I84363
sS'ATTTTG'
p262
I119451
sS'GAGGTG'
p263
I95316
sS'ATTTTA'
p264
I163090
sS'TAAATT'
p265
I106906
sS'ATTTTC'
p266
I129781
sS'TCCAGC'
p267
I112434
sS'TAGCAG'
p268
I54864
sS'GATACT'
p269
I34316
sS'TAGCAC'
p270
I38431
sS'TAGCAA'
p271
I56345
sS'GAGGTT'
p272
I67977
sS'ATTTTT'
p273
I238927
sS'GCCTTG'
p274
I75729
sS'GTGGGG'
p275
I113520
sS'GCCTTA'
p276
I41818
sS'TTGACA'
p277
I57698
sS'GCCTTC'
p278
I76793
sS'GATACG'
p279
I6601
sS'TAGCAT'
p280
I47275
sS'GATACC'
p281
I23488
sS'GATACA'
p282
I42194
sS'TGAGCT'
p283
I87667
sS'ACGGAC'
p284
I10138
sS'GATCAT'
p285
I43323
sS'TACCGG'
p286
I7873
sS'TGGCAC'
p287
I69077
sS'AAGACA'
p288
I97547
sS'AAGACC'
p289
I55041
sS'GATTTA'
p290
I62155
sS'AAGACG'
p291
I16355
sS'GATCAG'
p292
I44839
sS'TGAGCG'
p293
I18647
sS'CTCGAG'
p294
I17049
sS'GATCAC'
p295
I48976
sS'TGAGCC'
p296
I102226
sS'AAGACT'
p297
I71954
sS'GCGGTC'
p298
I15031
sS'GCGGTA'
p299
I7959
sS'CGTGCA'
p300
I17957
sS'GCGGTG'
p301
I33152
sS'CTATCG'
p302
I5154
sS'CGGTGT'
p303
I14863
sS'TCGTTA'
p304
I7988
sS'TCGTTC'
p305
I10609
sS'CTTCCC'
p306
I133576
sS'TCGTTG'
p307
I9671
sS'TGTGTG'
p308
I181643
sS'GCGGTT'
p309
I12564
sS'AGTAAA'
p310
I91336
sS'ATGTGA'
p311
I82980
sS'ACTTGA'
p312
I69118
sS'CGGTGG'
p313
I32878
sS'TCGTTT'
p314
I17539
sS'ACGGAA'
p315
I15697
sS'CGGTGC'
p316
I21567
sS'TTCCTA'
p317
I79327
sS'TAGACT'
p318
I39991
sS'TTCCTC'
p319
I128185
sS'ACTGAC'
p320
I53362
sS'CTTCCG'
p321
I25933
sS'TTCCTG'
p322
I152554
sS'TCCTTT'
p323
I132503
sS'GACCCA'
p324
I55863
sS'ACGCTA'
p325
I7340
sS'TAGACG'
p326
I7839
sS'TTCCTT'
p327
I158774
sS'TAGACC'
p328
I25387
sS'TAGACA'
p329
I49610
sS'AAGNTG'
p330
I1
sS'TCCTTG'
p331
I88257
sS'TCCTTA'
p332
I67124
sS'TCCTTC'
p333
I113155
sS'ATCTCT'
p334
I92507
sS'ACCGTT'
p335
I9449
sS'TGGCGC'
p336
I28674
sS'TGGCGA'
p337
I16050
sS'TGTNNN'
p338
I1
sS'GGCCAT'
p339
I51807
sS'ATCTCG'
p340
I15807
sS'ANCTTA'
p341
I1
sS'ATCTCA'
p342
I86614
sS'ATCTCC'
p343
I67610
sS'GGCCAA'
p344
I74229
sS'GGCCAC'
p345
I76453
sS'ACCGTG'
p346
I19266
sS'ACCGTA'
p347
I7513
sS'TGGCGT'
p348
I17593
sS'ACCGTC'
p349
I11073
sS'ACCGAC'
p350
I8585
sS'AGATTA'
p351
I61971
sS'NGATCC'
p352
I2
sS'GGCAGT'
p353
I71262
sS'CCATAA'
p354
I49272
sS'CAAAGG'
p355
I92323
sS'CCATAC'
p356
I28210
sS'CTAACT'
p357
I44008
sS'AGATTC'
p358
I60727
sS'CAAAGC'
p359
I82255
sS'CAACGT'
p360
I12949
sS'GGCAGA'
p361
I112191
sS'GGCAGC'
p362
I105365
sS'AACGTA'
p363
I10590
sS'GGCAGG'
p364
I152486
sS'CAACGC'
p365
I11541
sS'CTAACA'
p366
I50821
sS'CAACGA'
p367
I9678
sS'CTAACC'
p368
I33288
sS'CCATAT'
p369
I43827
sS'GCACTG'
p370
I74357
sS'GGGGGT'
p371
I60500
sS'CGAGTG'
p372
I15663
sS'GAAACC'
p373
I72865
sS'CGATCT'
p374
I13576
sS'NNNNNC'
p375
I1
sS'CTCTAG'
p376
I57617
sS'CTCTAA'
p377
I61513
sS'CTCTAC'
p378
I54630
sS'GGGGGG'
p379
I57524
sS'TACGCA'
p380
I7981
sS'TACGCC'
p381
I7180
sS'GGGGGC'
p382
I90878
sS'CGATCG'
p383
I2948
sS'GGGGGA'
p384
I82101
sS'TACGCG'
p385
I3187
sS'CTCTAT'
p386
I50311
sS'CAGACC'
p387
I60702
sS'CAGACA'
p388
I96540
sS'CAGACG'
p389
I20616
sS'TGCGTG'
p390
I21950
sS'ACGTGA'
p391
I19667
sS'TAGTTG'
p392
I38399
sS'GCTAAT'
p393
I48561
sS'TAGTTC'
p394
I39783
sS'TAGTTA'
p395
I42568
sS'CAGACT'
p396
I73081
sS'GCTAAG'
p397
I44403
sS'TAGTTT'
p398
I73763
sS'GCTAAC'
p399
I27585
sS'GCTAAA'
p400
I51529
sS'TGCATT'
p401
I88337
sS'GCGAAA'
p402
I12352
sS'AACCCT'
p403
I63555
sS'GTCCAC'
p404
I39467
sS'ACGCAC'
p405
I14904
sS'AACCCC'
p406
I59242
sS'AACCCA'
p407
I71546
sS'TGCATA'
p408
I52971
sS'TGCATC'
p409
I48830
sS'AGAATA'
p410
I80066
sS'ACGTAA'
p411
I12243
sS'CTACAC'
p412
I35673
sS'AACTGA'
p413
I84251
sS'AGTTTA'
p414
I72955
sS'CCCAGA'
p415
I121130
sS'CCCAGC'
p416
I178226
sS'AGAATC'
p417
I68705
sS'CCCAGG'
p418
I188949
sS'AACTGT'
p419
I71619
sS'AGTTTT'
p420
I114490
sS'CTACAT'
p421
I46117
sS'AGTCAA'
p422
I59656
sS'CCCAGT'
p423
I86089
sS'TATAAT'
p424
I72294
sS'CGCATA'
p425
I5731
sS'ATACTG'
p426
I50468
sS'CGCATC'
p427
I10846
sS'ATACTA'
p428
I38009
sS'ATACTC'
p429
I34525
sS'CGCATG'
p430
I13376
sS'GCGCAA'
p431
I11146
sS'GCGAAT'
p432
I7518
sS'ACTTGC'
p433
I51886
sS'ATACTT'
p434
I62225
sS'CGCATT'
p435
I10527
sS'AGGCCC'
p436
I88492
sS'GCTCCG'
p437
I36875
sS'TATTGT'
p438
I62909
sS'GCTCCC'
p439
I92641
sS'GCTCCA'
p440
I79870
sS'CCTACT'
p441
I48589
sS'TGTACT'
p442
I48869
sS'TTTAGT'
p443
I75699
sS'NTTGTG'
p444
I1
sS'TATTGG'
p445
I41628
sS'GCTCCT'
p446
I91401
sS'TATTGC'
p447
I44342
sS'TATTGA'
p448
I54129
sS'TTTAGG'
p449
I63427
sS'TGTACG'
p450
I7535
sS'CCTACG'
p451
I9845
sS'TGTACA'
p452
I54924
sS'TTTAGC'
p453
I51505
sS'ACAGTG'
p454
I90667
sS'CCTACC'
p455
I45368
sS'TTCGCG'
p456
I6186
sS'TTCGCA'
p457
I9763
sS'TTCGCC'
p458
I14037
sS'AGTATC'
p459
I34311
sS'GACTAA'
p460
I43835
sS'AGTATA'
p461
I42591
sS'TTTGGG'
p462
I106980
sS'AGTATG'
p463
I42544
sS'TTTGGA'
p464
I97759
sS'TTTGGC'
p465
I72328
sS'TTCGCT'
p466
I13487
sS'GATCNN'
p467
I2
sS'TTTGGT'
p468
I76369
sS'GCCACA'
p469
I84390
sS'GACTAT'
p470
I31113
sS'AGTATT'
p471
I65798
sS'TTACTC'
p472
I54405
sS'TTACTA'
p473
I51145
sS'TTACTG'
p474
I68668
sS'ACCTTG'
p475
I65177
sS'ACCTTC'
p476
I62314
sS'ACCTTA'
p477
I42836
sS'TTACTT'
p478
I84080
sS'ACGCTT'
p479
I12518
sS'ACCTTT'
p480
I74362
sS'ACAGGG'
p481
I88789
sS'CTGGGA'
p482
I164697
sS'CTGGGC'
p483
I154647
sS'ACAGGC'
p484
I93910
sS'TTATAT'
p485
I80414
sS'CTGGGG'
p486
I145178
sS'AGGACG'
p487
I21250
sS'GCAGCT'
p488
I95625
sS'CAGGAA'
p489
I152613
sS'TCGCTT'
p490
I17798
sS'CAGGAG'
p491
I160367
sS'AGGACA'
p492
I87706
sS'GCGCAT'
p493
I10844
sS'TTATAC'
p494
I39645
sS'ACAGGT'
p495
I63939
sS'CTGGGT'
p496
I109748
sS'TTATAG'
p497
I53429
sS'TCGCTG'
p498
I21435
sS'GAGTTG'
p499
I54744
sS'GCAGCG'
p500
I38466
sS'AGGACT'
p501
I69715
sS'GCAGCA'
p502
I97888
sS'TCGCTA'
p503
I7270
sS'CAGGAT'
p504
I77199
sS'CCTCAG'
p505
I135866
sS'CCTCAA'
p506
I74627
sS'CCTCAC'
p507
I82714
sS'TATGTT'
p508
I72481
sS'ATGGGC'
p509
I48118
sS'TCTTTG'
p510
I105434
sS'ATGGGA'
p511
I73641
sS'TCTTTA'
p512
I92380
sS'ATGGGG'
p513
I73295
sS'TCTTTC'
p514
I128505
sS'CCTCAT'
p515
I77115
sS'TCTTTT'
p516
I170625
sS'TATGTG'
p517
I67505
sS'TATGTA'
p518
I62823
sS'ATGGGT'
p519
I46729
sS'TATGTC'
p520
I40586
sS'GAAAGA'
p521
I128533
sS'ATCAAG'
p522
I53686
sS'CATGAT'
p523
I58435
sS'ATCAAC'
p524
I37964
sS'GAAAGG'
p525
I107122
sS'ATCAAA'
p526
I77563
sS'GTCAGG'
p527
I78556
sS'ACGTGG'
p528
I26276
sS'CATGAG'
p529
I76121
sS'ATCAAT'
p530
I47983
sS'GTCCAA'
p531
I39947
sS'CATGAC'
p532
I54756
sS'CATGAA'
p533
I78318
sS'GTAGCG'
p534
I7954
sS'CAAGTT'
p535
I67710
sS'GCTTTG'
p536
I82214
sS'GTAGCC'
p537
I31947
sS'GCTTTC'
p538
I77187
sS'AGCGGT'
p539
I13518
sS'GAGGAT'
p540
I65528
sS'GCTTTT'
p541
I99081
sS'TGCCAG'
p542
I103265
sS'GTAGCT'
p543
I51127
sS'GCGGCC'
p544
I53977
sS'CAAGTC'
p545
I55705
sS'GCGGCA'
p546
I24814
sS'TTACAT'
p547
I78020
sS'AACGGT'
p548
I9445
sS'CGTACG'
p549
I2393
sS'TAATCG'
p550
I6619
sS'CTTGTG'
p551
I69210
sS'TAATCA'
p552
I60504
sS'TAATCC'
p553
I64428
sS'TGCGAA'
p554
I9770
sS'CGGCCC'
p555
I53596
sS'CGACTA'
p556
I5221
sS'AAAATT'
p557
I164027
sS'CGGCCG'
p558
I39534
sS'TCGTGA'
p559
I13342
sS'CTTGTA'
p560
I48286
sS'GGTCTG'
p561
I60710
sS'TAATCT'
p562
I61996
sS'TGCGAC'
p563
I8838
sS'GGTCTC'
p564
I66581
sS'GGTCTA'
p565
I25384
sS'AAAATG'
p566
I171580
sS'AAAATC'
p567
I100406
sS'CGGCCT'
p568
I41724
sS'TCGTCA'
p569
I10041
sS'TTCAGA'
p570
I103911
sS'TTCAGG'
p571
I89890
sS'ATATCC'
p572
I39226
sS'TCGTCG'
p573
I4308
sS'TGCCAA'
p574
I78402
sS'GAACAA'
p575
I68229
sS'ATCCCG'
p576
I15719
sS'GAACAC'
p577
I50212
sS'ATCCCC'
p578
I52522
sS'GAACAG'
p579
I71435
sS'TTCAGT'
p580
I90710
sS'GCACTT'
p581
I72951
sS'ATTGCA'
p582
I66431
sS'CACCAC'
p583
I90121
sS'NNNCTG'
p584
I1
sS'CACCAA'
p585
I64210
sS'CACCAG'
p586
I88000
sS'TCCGTG'
p587
I19839
sS'TCGTGC'
p588
I12410
sS'TCCGTC'
p589
I17684
sS'GAGTTA'
p590
I45161
sS'TCCGTA'
p591
I8151
sS'ACCAGA'
p592
I69057
sS'ACGCGA'
p593
I5196
sS'CACCAT'
p594
I72558
sS'AACATG'
p595
I80186
sS'AACATA'
p596
I72457
sS'AACATC'
p597
I57631
sS'GTCAGN'
p598
I1
sS'GTCAGC'
p599
I56667
sS'GCACGG'
p600
I22118
sS'GTCAGA'
p601
I67037
sS'GCACGA'
p602
I12417
sS'CAGTCC'
p603
I64709
sS'GCACGC'
p604
I20227
sS'CAGTCA'
p605
I75449
sS'GCAAGC'
p606
I46934
sS'GCACGT'
p607
I18118
sS'CAGTCT'
p608
I79292
sS'TCAGCT'
p609
I95136
sS'GTCAGT'
p610
I53362
sS'GTATAC'
p611
I22382
sS'TTCCGT'
p612
I15697
sS'ACGGCT'
p613
I15487
sS'GTATAG'
p614
I24208
sS'CCGGAA'
p615
I22567
sS'CCGGAC'
p616
I18089
sS'CAACGG'
p617
I10865
sS'CCGGAG'
p618
I37033
sS'TATCAT'
p619
I53818
sS'CTCGTA'
p620
I7415
sS'TTCCGG'
p621
I22569
sS'TTCCGA'
p622
I12757
sS'ATCAGC'
p623
I54276
sS'TTCCGC'
p624
I17867
sS'GTATAT'
p625
I45730
sS'CGTCTC'
p626
I27447
sS'TATCAA'
p627
I49963
sS'CGTCTG'
p628
I20625
sS'CCGGAT'
p629
I12222
sS'CTCTTC'
p630
I105217
sS'TGTTAT'
p631
I70048
sS'CTCTTA'
p632
I62239
sS'CTCTTG'
p633
I83543
sS'CCCGAT'
p634
I10007
sS'TACGTA'
p635
I9709
sS'TACGTC'
p636
I7018
sS'TCTGGT'
p637
I69040
sS'AACAAA'
p638
I172686
sS'CGCGAT'
p639
I6362
sS'TACGTG'
p640
I12930
sS'TGTTAG'
p641
I50858
sS'ATTATA'
p642
I72220
sS'GGTTTC'
p643
I72925
sS'CTCGTG'
p644
I18778
sS'CTCTTT'
p645
I121076
sS'TGTTAA'
p646
I72419
sS'TCTGGG'
p647
I121115
sS'CGCGAC'
p648
I9001
sS'GATATT'
p649
I56306
sS'TCTGGC'
p650
I85781
sS'TACGTT'
p651
I10599
sS'TCTGGA'
p652
I99407
sS'AGTCGT'
p653
I9665
sS'TTACCT'
p654
I58351
sS'CTCCAT'
p655
I79353
sS'TTACCG'
p656
I8563
sS'CTCCAC'
p657
I90428
sS'AGTCGG'
p658
I14395
sS'TTACCC'
p659
I39519
sS'CTCCAG'
p660
I146231
sS'TTACCA'
p661
I54977
sS'AGTCGC'
p662
I11697
sS'GTACCG'
p663
I6037
sS'CCGACT'
p664
I14391
sS'GCCTAC'
p665
I29573
sS'GCCTAA'
p666
I37833
sS'CCGAGG'
p667
I44424
sS'GCCTAG'
p668
I45572
sS'GTGCGG'
p669
I22862
sS'CCGACA'
p670
I12073
sS'CCCTGT'
p671
I88810
sS'CCGACC'
p672
I18358
sS'CCGACG'
p673
I8654
sS'AAGCTC'
p674
I62703
sS'NCTTAA'
p675
I1
sS'AACTCA'
p676
I74550
sS'GCCTAT'
p677
I33231
sS'TGACGG'
p678
I13491
sS'CCCGAG'
p679
I38981
sS'CTCGTT'
p680
I13374
sS'TCAGCG'
p681
I20290
sS'GCTGTC'
p682
I63642
sS'CGCACA'
p683
I18852
sS'ATACAC'
p684
I47700
sS'CGCACC'
p685
I22223
sS'GGGTCG'
p686
I18179
sS'ACTGCT'
p687
I77096
sS'ATACAG'
p688
I59711
sS'CGCACG'
p689
I12104
sS'GGGTCC'
p690
I53541
sS'CTCACT'
p691
I106930
sS'TTTGTA'
p692
I99508
sS'ACTGCA'
p693
I103614
sS'TTTGTC'
p694
I76267
sS'ACTGCC'
p695
I71250
sS'CGCACT'
p696
I14015
sS'TTTGTG'
p697
I102498
sS'ACTGCG'
p698
I18344
sS'CTTGAC'
p699
I46209
sS'CTCACA'
p700
I92545
sS'CTCACG'
p701
I26762
sS'GTGGGT'
p702
I65084
sS'GTGAGG'
p703
I82718
sS'GATTTT'
p704
I100413
sS'ACAATT'
p705
I68538
sS'GTGAGC'
p706
I77903
sS'TAGTGA'
p707
I50257
sS'GTGAGA'
p708
I78148
sS'TCGACG'
p709
I2954
sS'TCGACA'
p710
I6927
sS'TCGACC'
p711
I7706
sS'ACAATA'
p712
I62861
sS'GTGAGT'
p713
I72146
sS'TAGTGT'
p714
I40919
sS'GTGGGA'
p715
I87990
sS'ACAATG'
p716
I68947
sS'TCGACT'
p717
I7726
sS'GTGGGN'
p718
I1
sS'CTGGTT'
p719
I72121
sS'TGCAAA'
p720
I98616
sS'CGAACG'
p721
I4376
sS'TAAGNT'
p722
I1
sS'CGAACC'
p723
I9525
sS'CGAACA'
p724
I9314
sS'CGGNCC'
p725
I1
sS'CTGGTG'
p726
I87978
sS'CTGGTA'
p727
I46694
sS'CTGGTC'
p728
I69215
sS'CTGCAA'
p729
I87725
sS'CGAACT'
p730
I12989
sS'TTGCAT'
p731
I70596
sS'GACGAG'
p732
I14542
sS'NNGAAT'
p733
I4
sS'CGTCTT'
p734
I16370
sS'TTGCAG'
p735
I87761
sS'GAGGGA'
p736
I117555
sS'CTTGAT'
p737
I53688
sS'TTGCAC'
p738
I49031
sS'TTGCAA'
p739
I73263
sS'AAGATC'
p740
I51220
sS'ACGTAC'
p741
I7345
sS'TCCATC'
p742
I65487
sS'ATTGCG'
p743
I8907
sS'TCGCAT'
p744
I7769
sS'GAGCGG'
p745
I32334
sS'GTCGTG'
p746
I10888
sS'GTCGTA'
p747
I5011
sS'GTCGTC'
p748
I9003
sS'GGNAGA'
p749
I1
sS'CCGTTT'
p750
I17849
sS'GAGCAA'
p751
I71504
sS'GCCTCG'
p752
I37355
sS'GTCGTT'
p753
I8478
sS'TCAGAT'
p754
I75523
sS'TCGCAG'
p755
I17315
sS'TCCATG'
p756
I67250
sS'TCGCAC'
p757
I10057
sS'CCGTTG'
p758
I10855
sS'CCGTTA'
p759
I7588
sS'CCGTTC'
p760
I13315
sS'GATCGG'
p761
I7807
sS'AATGCT'
p762
I80854
sS'GGTACG'
p763
I6148
sS'GGTACA'
p764
I32892
sS'TCCAGG'
p765
I121391
sS'GGTACC'
p766
I22012
sS'TATTTG'
p767
I98993
sS'CCAGTT'
p768
I71049
sS'TTCAGC'
p769
I77987
sS'TATTTC'
p770
I105098
sS'TATTTA'
p771
I130414
sS'CCCCCT'
p772
I78348
sS'GGTACT'
p773
I28383
sS'AATGCG'
p774
I10522
sS'AATGCC'
p775
I65356
sS'AATGCA'
p776
I88267
sS'CCCCCC'
p777
I57524
sS'CCCCCA'
p778
I105717
sS'TATTTT'
p779
I215623
sS'CCCCCG'
p780
I49444
sS'CTTGAG'
p781
I82179
sS'ATGATG'
p782
I67594
sS'ATGATA'
p783
I53765
sS'GCGTTA'
p784
I6933
sS'ATGATC'
p785
I43314
sS'CGGACT'
p786
I12883
sS'TGCAAC'
p787
I51486
sS'TTGAGT'
p788
I65004
sS'TGCAAG'
p789
I64272
sS'GCCGTC'
p790
I17382
sS'ATGATT'
p791
I78293
sS'TATCAC'
p792
I41084
sS'CGAATC'
p793
I8389
sS'TTGAGG'
p794
I74585
sS'AATCTC'
p795
I68706
sS'TNCCAT'
p796
I1
sS'TTGAGC'
p797
I58214
sS'TTGAGA'
p798
I97057
sS'GAGAAT'
p799
I82727
sS'TGTCTT'
p800
I97581
sS'AGTAGC'
p801
I50371
sS'AAGGCC'
p802
I71722
sS'ATAACC'
p803
I36844
sS'AAGGCA'
p804
I100241
sS'ATAACA'
p805
I69993
sS'AAGGCG'
p806
I24020
sS'ATAACG'
p807
I8561
sS'GAGGGT'
p808
I65852
sS'TGTCTG'
p809
I96585
sS'GAGAAG'
p810
I114934
sS'GAGAAA'
p811
I148946
sS'TGTCTC'
p812
I96182
sS'GAGAAC'
p813
I61258
sS'TGTCTA'
p814
I49623
sS'TGTGGC'
p815
I84403
sS'TGTGGA'
p816
I81341
sS'TGTGGG'
p817
I93790
sS'ATAACT'
p818
I57367
sS'AAGGCT'
p819
I82620
sS'CTGTAA'
p820
I96540
sS'AGGTAT'
p821
I45409
sS'ACCAAG'
p822
I62629
sS'GAGCAT'
p823
I48359
sS'ACCAAA'
p824
I76411
sS'AAGCAG'
p825
I108870
sS'ACCAAC'
p826
I42243
sS'GGTCAC'
p827
I53650
sS'GATCGC'
p828
I12051
sS'GGTCAT'
p829
I45874
sS'ACCAAT'
p830
I42786
sS'TGTGGT'
p831
I83829
sS'AGGTAA'
p832
I58363
sS'GATAGG'
p833
I32672
sS'TTTTGC'
p834
I91208
sS'TCTTAC'
p835
I50244
sS'AATTGG'
p836
I50536
sS'TCTTAA'
p837
I79510
sS'AATTGA'
p838
I59525
sS'TCTTAG'
p839
I57756
sS'AATTGC'
p840
I54774
sS'TAGCCA'
p841
I55528
sS'TGGGGT'
p842
I84427
sS'TAGCCC'
p843
I35022
sS'GATAAT'
p844
I51920
sS'CGCTCA'
p845
I18653
sS'TAGCCG'
p846
I11642
sS'AATTGT'
p847
I68514
sS'CGAGAG'
p848
I21567
sS'AATCTT'
p849
I78528
sS'TCTTAT'
p850
I67896
sS'TTTTGT'
p851
I164919
sS'CGCTCT'
p852
I25901
sS'GATAAA'
p853
I75979
sS'GATAAC'
p854
I32895
sS'TAGCCT'
p855
I48932
sS'TGGGGC'
p856
I103078
sS'GATAAG'
p857
I48572
sS'CTCTCA'
p858
I89312
sS'GATCCT'
p859
I49983
sS'AAGAAT'
p860
I109416
sS'CGAAGT'
p861
I12029
sS'CATTTG'
p862
I96721
sS'AAGAAC'
p863
I71994
sS'GATCCA'
p864
I43950
sS'AAGAAA'
p865
I215981
sS'ATGCCA'
p866
I76650
sS'AAGAAG'
p867
I113940
sS'GATCCG'
p868
I13329
sS'GCCCCA'
p869
I103077
sS'ATGCCG'
p870
I11371
sS'CAAGGG'
p871
I70680
sS'CAAGGC'
p872
I75697
sS'GGTTCT'
p873
I57826
sS'CAAGGA'
p874
I88271
sS'GGCGCN'
p875
I1
sS'GGTTCA'
p876
I51854
sS'CAGGGC'
p877
I123531
sS'CAAGGT'
p878
I65208
sS'GGTTCG'
p879
I9522
sS'TAGGCA'
p880
I54095
sS'ATTAAC'
p881
I47668
sS'ATTATC'
p882
I51924
sS'TAGAAT'
p883
I68253
sS'CAAACG'
p884
I15941
sS'ATTATG'
p885
I60471
sS'AGTCTT'
p886
I71955
sS'TAGAAA'
p887
I109215
sS'TAGAAC'
p888
I42091
sS'ATTATT'
p889
I113765
sS'TAGAAG'
p890
I64959
sS'AGTCTA'
p891
I39982
sS'CTGTGG'
p892
I112413
sS'AGTCTC'
p893
I71772
sS'AGTCTG'
p894
I73054
sS'TAACTC'
p895
I45182
sS'TAACTA'
p896
I42577
sS'TAACTG'
p897
I57324
sS'ATCTAT'
p898
I49286
sS'ACGCGT'
p899
I5046
sS'GCCCCG'
p900
I71155
sS'TAACTT'
p901
I68750
sS'ATCTAG'
p902
I41596
sS'ATCTAC'
p903
I35965
sS'ATCTAA'
p904
I52216
sS'GGTCAG'
p905
I77091
sS'CCATGT'
p906
I71594
sS'GCCCCC'
p907
I90885
sS'TGGAGG'
p908
I117730
sS'TGGAGA'
p909
I112846
sS'TGGAGC'
p910
I79881
sS'CCATGC'
p911
I58984
sS'TCCAGA'
p912
I99426
sS'CCATGA'
p913
I63987
sS'CCATGG'
p914
I68371
sS'TGGAGT'
p915
I88872
sS'ATTACG'
p916
I8541
sS'TCAGTA'
p917
I57818
sS'TCAGTC'
p918
I60460
sS'CTCTCT'
p919
I149616
sS'GGGGAT'
p920
I52539
sS'TCAGTG'
p921
I86759
sS'CGATAT'
p922
I5558
sS'GGGGAA'
p923
I102239
sS'GGGGAC'
p924
I66238
sS'CTCTCC'
p925
I125523
sS'TCAGTT'
p926
I84260
sS'GGGGAG'
p927
I134159
sS'CGATAG'
p928
I5160
sS'CGATAA'
p929
I6722
sS'CGATAC'
p930
I4273
sS'CTAAGG'
p931
I49946
sS'GTGTTT'
p932
I94769
sS'GCTACT'
p933
I50369
sS'GTGGTT'
p934
I62652
sS'TGGNAG'
p935
I1
sS'GNAGAA'
p936
I1
sS'GTGTTC'
p937
I50185
sS'GTGTTA'
p938
I44451
sS'GTGTTG'
p939
I56242
sS'CGTGCC'
p940
I24321
sS'GTGGTA'
p941
I40162
sS'GCTACA'
p942
I40998
sS'GTGGTC'
p943
I42084
sS'GCTACC'
p944
I29337
sS'GTGGTG'
p945
I90038
sS'GCTACG'
p946
I8572
sS'GAGAGC'
p947
I70668
sS'AGGTAG'
p948
I50924
sS'TTTCGT'
p949
I14674
sS'TGCCCT'
p950
I102805
sS'AGCGTT'
p951
I13479
sS'CGTGCG'
p952
I12103
sS'TGCCCC'
p953
I85613
sS'TGCCCA'
p954
I105914
sS'TGCCCG'
p955
I31747
sS'TTTCGG'
p956
I13853
sS'AGCGTA'
p957
I6806
sS'AGCGTC'
p958
I15382
sS'AGCGTG'
p959
I19901
sS'GGCCCC'
p960
I97878
sS'GGCCCA'
p961
I81526
sS'CACGTG'
p962
I32932
sS'GGCCCG'
p963
I47225
sS'CACGTA'
p964
I12926
sS'CACGTC'
p965
I17807
sS'CTACGC'
p966
I7899
sS'CTACGA'
p967
I7506
sS'GGGACT'
p968
I66794
sS'ACAGTC'
p969
I54799
sS'CACGTT'
p970
I19021
sS'CTAAGT'
p971
I48260
sS'GNCCCA'
p972
I1
sS'GGCCCT'
p973
I84897
sS'GGGACA'
p974
I74363
sS'TTTTGG'
p975
I99276
sS'GGGACC'
p976
I59043
sS'AGGGAC'
p977
I69145
sS'GTCTCA'
p978
I80135
sS'CTACGT'
p979
I10233
sS'AGAGAG'
p980
I149640
sS'AGAGAA'
p981
I151859
sS'AGAGAC'
p982
I86423
sS'TCTATA'
p983
I45667
sS'GTCTTT'
p984
I78477
sS'TCTATC'
p985
I39895
sS'TCTATG'
p986
I47987
sS'AGAGAT'
p987
I92509
sS'ATGTGC'
p988
I57545
sS'GTCTTG'
p989
I60887
sS'TCTATT'
p990
I70375
sS'GTCTTC'
p991
I59607
sS'GTCTTA'
p992
I41916
sS'GCAGAG'
p993
I127010
sS'CGATTG'
p994
I7653
sS'CGCTCG'
p995
I15075
sS'GCAGAC'
p996
I53436
sS'GCAGAA'
p997
I95729
sS'GCTCAG'
p998
I98044
sS'AGACGT'
p999
I15117
sS'ATGCGT'
p1000
I10103
sS'TTGCTG'
p1001
I94517
sS'TTGCTA'
p1002
I56308
sS'TTGCTC'
p1003
I71459
sS'GCAGAT'
p1004
I64179
sS'GCTCAT'
p1005
I56716
sS'GTTTGC'
p1006
I54067
sS'TTGCTT'
p1007
I106326
sS'ATGCGG'
p1008
I11733
sS'CGCTCC'
p1009
I36078
sS'ATGCGC'
p1010
I10848
sS'TATATG'
p1011
I54906
sS'TGTAAG'
p1012
I56568
sS'GGCTAG'
p1013
I38317
sS'TGTAAC'
p1014
I47701
sS'GGCTAC'
p1015
I31950
sS'GACTGT'
p1016
I54804
sS'CTGAAA'
p1017
I120415
sS'ACTGTA'
p1018
I60632
sS'TTGGTA'
p1019
I44813
sS'ACTGTC'
p1020
I55086
sS'TTGGTC'
p1021
I44048
sS'TTCGAC'
p1022
I6038
sS'ACTGTG'
p1023
I89493
sS'TTGGTG'
p1024
I64161
sS'GACTGC'
p1025
I50684
sS'GGCTAT'
p1026
I34029
sS'TGTAAT'
p1027
I93117
sS'GACTGG'
p1028
I66393
sS'TTCGAT'
p1029
I7671
sS'TTGGTT'
p1030
I70792
sS'ACTGTT'
p1031
I70797
sS'GTTTCT'
p1032
I106310
sS'ATAATT'
p1033
I94683
sS'CCTTTT'
p1034
I119312
sS'GTTTCG'
p1035
I11949
sS'GTTTCC'
p1036
I84367
sS'GTTTCA'
p1037
I83942
sS'ATAATG'
p1038
I66224
sS'CCTTTA'
p1039
I68749
sS'CCTTTC'
p1040
I107110
sS'ATAATC'
p1041
I50403
sS'ATAATA'
p1042
I87065
sS'CCTTTG'
p1043
I92315
sS'ACAGAA'
p1044
I122392
sS'CTCTCG'
p1045
I21559
sS'ACAGAC'
p1046
I67725
sS'GCCCCT'
p1047
I90188
sS'ACAGAG'
p1048
I127010
sS'TTATCT'
p1049
I90343
sS'CTGGAC'
p1050
I66464
sS'CTGGAA'
p1051
I126990
sS'CTGGAG'
p1052
I146166
sS'ACAGAT'
p1053
I78483
sS'GTGAAG'
p1054
I67911
sS'TTATCG'
p1055
I6718
sS'TTATCA'
p1056
I67775
sS'CTGGAT'
p1057
I69250
sS'TTATCC'
p1058
I44402
sS'CCAATG'
p1059
I47232
sS'GGCGAG'
p1060
I32079
sS'ATTTGT'
p1061
I103455
sS'CCAATC'
p1062
I41945
sS'AAACCC'
p1063
I74565
sS'CCAATA'
p1064
I41595
sS'TGTCGG'
p1065
I12078
sS'GAGATC'
p1066
I50087
sS'CCCTAT'
p1067
I35927
sS'GAGATA'
p1068
I56971
sS'TGTCGC'
p1069
I14422
sS'GAGATG'
p1070
I86931
sS'AACGAC'
p1071
I8484
sS'AAACCT'
p1072
I80131
sS'CCAATT'
p1073
I50563
sS'ATTTGC'
p1074
I71219
sS'GGGTAT'
p1075
I28388
sS'ATTTGG'
p1076
I83715
sS'CCCTAG'
p1077
I49084
sS'TGTCGT'
p1078
I10345
sS'CCCTAC'
p1079
I40106
sS'GAGATT'
p1080
I68713
sS'CCCTAA'
p1081
I49429
sS'CATTAT'
p1082
I66264
sS'TGTTTG'
p1083
I108694
sS'TGGATT'
p1084
I69728
sS'ATCACA'
p1085
I76943
sS'ATCACC'
p1086
I53642
sS'CATGCT'
p1087
I68108
sS'TGACAC'
p1088
I57722
sS'TGACAA'
p1089
I67971
sS'TGGATA'
p1090
I47232
sS'CATTAG'
p1091
I47822
sS'CATTAA'
p1092
I69763
sS'TGGATG'
p1093
I66969
sS'CATGCA'
p1094
I68294
sS'TGACAT'
p1095
I73938
sS'CATGCC'
p1096
I74293
sS'ATCACT'
p1097
I72601
sS'AATTAG'
p1098
I70108
sS'GTAGAA'
p1099
I53872
sS'GTAGAC'
p1100
I25043
sS'GTAGAG'
p1101
I54645
sS'GATTGG'
p1102
I41932
sS'ACAACC'
p1103
I42852
sS'GCATGA'
p1104
I61035
sS'GATTGC'
p1105
I39356
sS'GATTGA'
p1106
I37621
sS'ACTAAG'
p1107
I46321
sS'GTAGAT'
p1108
I35973
sS'TGCTAC'
p1109
I38292
sS'GGGTAC'
p1110
I22878
sS'TGATGC'
p1111
I48185
sS'GATTGT'
p1112
I42621
sS'ACAACT'
p1113
I56168
sS'GCGCGT'
p1114
I12721
sS'TAATAG'
p1115
I49038
sS'GTCCGG'
p1116
I18089
sS'TAATAC'
p1117
I43533
sS'GTCCGA'
p1118
I8883
sS'TAATAA'
p1119
I97504
sS'GTCCGC'
p1120
I15925
sS'TGTTTA'
p1121
I105959
sS'GATCCC'
p1122
I40309
sS'CACATC'
p1123
I60352
sS'GTCCGT'
p1124
I10138
sS'TAATAT'
p1125
I73412
sS'CGTAAC'
p1126
I6742
sS'GGGNCC'
p1127
I1
sS'ATTCGC'
p1128
I7521
sS'TTCTCC'
p1129
I120407
sS'TGAACT'
p1130
I73699
sS'TTCTCA'
p1131
I118067
sS'ATCCAT'
p1132
I52430
sS'TTCTCG'
p1133
I17266
sS'TCGTAC'
p1134
I4566
sS'TACCTT'
p1135
I52491
sS'TCGTAA'
p1136
I8392
sS'TCGTAG'
p1137
I7510
sS'GAACCT'
p1138
I50056
sS'ATCCAA'
p1139
I55785
sS'ATCCAC'
p1140
I50448
sS'TGAACC'
p1141
I51939
sS'TTCTCT'
p1142
I151802
sS'TGAACA'
p1143
I73833
sS'GAACCC'
p1144
I50329
sS'GAACCA'
p1145
I55503
sS'TACCTA'
p1146
I37302
sS'TACCTC'
p1147
I45106
sS'TCGTAT'
p1148
I7200
sS'ATGTTA'
p1149
I66249
sS'ACCATA'
p1150
I39644
sS'ACCATG'
p1151
I65679
sS'ATGTTG'
p1152
I73265
sS'AGCTCT'
p1153
I92069
sS'GAGCTG'
p1154
I109989
sS'AGTGGT'
p1155
I63060
sS'CGTGGT'
p1156
I24890
sS'TGATGT'
p1157
I67024
sS'ATGTTT'
p1158
I117181
sS'ACCATT'
p1159
I55188
sS'AGTGGA'
p1160
I72791
sS'AGTGGC'
p1161
I81245
sS'AGCTCC'
p1162
I89444
sS'AGCTCA'
p1163
I87607
sS'GGCCTT'
p1164
I71713
sS'CAGTAA'
p1165
I68704
sS'CAGTAC'
p1166
I34885
sS'CAGTAG'
p1167
I54168
sS'TTTCAC'
p1168
I94489
sS'CAGTAT'
p1169
I50478
sS'ATGGNA'
p1170
I1
sS'GTTCCT'
p1171
I70566
sS'GATGGN'
p1172
I1
sS'TTAATC'
p1173
I54037
sS'CCGGCT'
p1174
I38357
sS'GATCTA'
p1175
I27886
sS'GATCTC'
p1176
I50060
sS'ATTGAC'
p1177
I34662
sS'GATCTG'
p1178
I55370
sS'TTTCAG'
p1179
I120379
sS'CCGGCC'
p1180
I62686
sS'ATTAGG'
p1181
I45385
sS'AACCTA'
p1182
I42772
sS'CACATT'
p1183
I92194
sS'ATTAGC'
p1184
I48522
sS'TCCCTC'
p1185
I117570
sS'GAGCTT'
p1186
I62712
sS'TCCCTA'
p1187
I55678
sS'TGCCAC'
p1188
I81431
sS'TCCCTG'
p1189
I130942
sS'GATCTT'
p1190
I51208
sS'CTAGAC'
p1191
I32399
sS'AAGTGA'
p1192
I101567
sS'AAGTGC'
p1193
I73017
sS'TGTTCT'
p1194
I94672
sS'AAGTGG'
p1195
I76286
sS'TGATTG'
p1196
I55604
sS'TGCGCA'
p1197
I16469
sS'TCTGAT'
p1198
I74296
sS'TGATTA'
p1199
I60514
sS'TGTTCA'
p1200
I73852
sS'ACGCAG'
p1201
I21388
sS'TGTTCC'
p1202
I68950
sS'CACAAA'
p1203
I102570
sS'CACAAC'
p1204
I49557
sS'TGTTCG'
p1205
I9310
sS'TCTGAA'
p1206
I103954
sS'TCTGAC'
p1207
I67044
sS'CACAAN'
p1208
I1
sS'TCTGAG'
p1209
I107809
sS'CGCGCC'
p1210
I45232
sS'CGCGCA'
p1211
I16917
sS'GGTAAA'
p1212
I53159
sS'CGCGCG'
p1213
I35276
sS'CTCCCT'
p1214
I147684
sS'AGCGGG'
p1215
I33614
sS'AGCGGA'
p1216
I18485
sS'ACCTCT'
p1217
I80633
sS'AGATGA'
p1218
I94149
sS'GACGTG'
p1219
I17808
sS'CGCGCT'
p1220
I20117
sS'GTGCGA'
p1221
I10053
sS'ACCTCA'
p1222
I83852
sS'CTCCCA'
p1223
I148681
sS'CTCCCC'
p1224
I134132
sS'GCCTCT'
p1225
I102507
sS'TAAGCC'
p1226
I43852
sS'TAGCTC'
p1227
I43269
sS'CCCATG'
p1228
I63629
sS'CGGGAA'
p1229
I29439
sS'CCCATA'
p1230
I38344
sS'TAGCTG'
p1231
I70481
sS'CCCATC'
p1232
I70749
sS'CCGAGA'
p1233
I26112
sS'CCTGCT'
p1234
I115924
sS'CCGAAT'
p1235
I9763
sS'CCCATT'
p1236
I69247
sS'CGGGAT'
p1237
I15726
sS'ATTTCG'
p1238
I11190
sS'TAGCTT'
p1239
I51460
sS'TAAGCT'
p1240
I46914
sS'GCCTCC'
p1241
I144480
sS'CCGAAC'
p1242
I9906
sS'CCTGCG'
p1243
I35559
sS'CCGAAA'
p1244
I13866
sS'CCGAAG'
p1245
I18724
sS'CCTGCC'
p1246
I152496
sS'CCTGCA'
p1247
I100470
sS'CGTGAG'
p1248
I26814
sS'GTACTG'
p1249
I34890
sS'CCATTC'
p1250
I65778
sS'TATAAG'
p1251
I44058
sS'TATAAA'
p1252
I108077
sS'TATAAC'
p1253
I37067
sS'GCNNNN'
p1254
I1
sS'GATTTG'
p1255
I64780
sS'CATTTC'
p1256
I116708
sS'GTACTC'
p1257
I25034
sS'CCATTT'
p1258
I101527
sS'TCTACA'
p1259
I55712
sS'TCTACC'
p1260
I43190
sS'CTNCCA'
p1261
I1
sS'TCTACG'
p1262
I8530
sS'ACTTTC'
p1263
I79564
sS'CGCAAC'
p1264
I8949
sS'CGCAAA'
p1265
I12364
sS'ATACCG'
p1266
I6149
sS'GACGCG'
p1267
I13367
sS'ATACCA'
p1268
I48104
sS'ATACCC'
p1269
I28377
sS'TCTACT'
p1270
I62035
sS'ATACCT'
p1271
I45413
sS'ACTTTG'
p1272
I95783
sS'TAGTAA'
p1273
I51183
sS'TGGGTG'
p1274
I105446
sS'TAGTAC'
p1275
I23165
sS'CTCAAG'
p1276
I82194
sS'CTCAAA'
p1277
I110119
sS'TAGTAG'
p1278
I40303
sS'CTCAAC'
p1279
I49480
sS'GTGTGC'
p1280
I59138
sS'GTGTGA'
p1281
I72642
sS'GTGTGG'
p1282
I85397
sS'TAACGG'
p1283
I7585
sS'CTCAAT'
p1284
I53457
sS'TAGTAT'
p1285
I38050
sS'GTTCTC'
p1286
I61268
sS'CTCCCG'
p1287
I54966
sS'GTGTGT'
p1288
I151337
sS'ATCTTT'
p1289
I97671
sS'GTTGGG'
p1290
I59364
sS'GTTGGA'
p1291
I49038
sS'GTTGGC'
p1292
I47684
sS'CCTTGG'
p1293
I94618
sS'CCTTGA'
p1294
I69335
sS'GCGTAT'
p1295
I5869
sS'AGGATT'
p1296
I74229
sS'GGACGT'
p1297
I13944
sS'CTAAGC'
p1298
I41707
sS'GTTGGT'
p1299
I42227
sS'ATCTTG'
p1300
I68321
sS'ATCTTA'
p1301
I57319
sS'ATCTTC'
p1302
I64470
sS'CCTTGT'
p1303
I68835
sS'AGGATA'
p1304
I50500
sS'AGGATG'
p1305
I80413
sS'GACATG'
p1306
I51625
sS'GACATC'
p1307
I42303
sS'GACATA'
p1308
I40591
sS'GATTTC'
p1309
I68035
sS'GAATAT'
p1310
I60408
sS'GGTGCA'
p1311
I53294
sS'TCGGCC'
p1312
I29595
sS'ATCAGA'
p1313
I74262
sS'TTGCGA'
p1314
I8064
sS'GACATT'
p1315
I67585
sS'TTGCGG'
p1316
I12842
sS'GAATAG'
p1317
I43744
sS'TCGGCT'
p1318
I22623
sS'CATAGA'
p1319
I47989
sS'GAATAC'
p1320
I36407
sS'GAATAA'
p1321
I75602
sS'CGTCGT'
p1322
I4612
sS'TGCAGA'
p1323
I97853
sS'GTACAT'
p1324
I38239
sS'ATACAA'
p1325
I71895
sS'GACCTT'
p1326
I56612
sS'TGCCTC'
p1327
I108744
sS'ACGTCG'
p1328
I4480
sS'GGACGC'
p1329
I23360
sS'TTATAA'
p1330
I87724
sS'GAAATG'
p1331
I116710
sS'AATGAT'
p1332
I77961
sS'GAAATA'
p1333
I105073
sS'GAAATC'
p1334
I68038
sS'ACCGGT'
p1335
I7573
sS'GAAATT'
p1336
I95506
sS'AATGAA'
p1337
I130202
sS'ATGTCC'
p1338
I48807
sS'AATGAC'
p1339
I73126
sS'AATGAG'
p1340
I97535
sS'AGGAAA'
p1341
I181672
sS'CTTGGA'
p1342
I79845
sS'CTTGGC'
p1343
I88358
sS'GTATTG'
p1344
I33364
sS'GTCCTT'
p1345
I60853
sS'CTTGGG'
p1346
I92042
sS'AGCCCT'
p1347
I96124
sS'GGGAAT'
p1348
I65686
sS'TTGAAT'
p1349
I80051
sS'GTCCTA'
p1350
I33010
sS'GTCCTC'
p1351
I61555
sS'TGCACG'
p1352
I17963
sS'CTTGGT'
p1353
I62602
sS'GTCCTG'
p1354
I76144
sS'TGCACC'
p1355
I53331
sS'TTGAAA'
p1356
I116821
sS'TTGAAC'
p1357
I59263
sS'AGCCCA'
p1358
I97914
sS'AGCCCC'
p1359
I95815
sS'CTTATG'
p1360
I44200
sS'ATAAAT'
p1361
I138574
sS'TGGTCG'
p1362
I10049
sS'TGGTCA'
p1363
I60959
sS'TGGTCC'
p1364
I46311
sS'ACGATT'
p1365
I9569
sS'GAGACT'
p1366
I71816
sS'GATTCA'
p1367
I63564
sS'TGGTCT'
p1368
I74032
sS'ATAAAG'
p1369
I87417
sS'CCTGTG'
p1370
I106275
sS'ATAAAA'
p1371
I169446
sS'TCAGCC'
p1372
I103940
sS'ATAAAC'
p1373
I78514
sS'GAGACG'
p1374
I27430
sS'ACGATG'
p1375
I11659
sS'CTACAG'
p1376
I61621
sS'GAGACC'
p1377
I66530
sS'ACGATC'
p1378
I8060
sS'GAGACA'
p1379
I96116
sS'ACGATA'
p1380
I6367
sS'GGTTAC'
p1381
I29106
sS'ATGTGT'
p1382
I85545
sS'GGTTAA'
p1383
I42718
sS'ACCACT'
p1384
I63052
sS'GGTTAG'
p1385
I33287
sS'CTTCCT'
p1386
I165435
sS'GAATGT'
p1387
I78869
sS'TCCATT'
p1388
I82348
sS'CGTGAA'
p1389
I16367
sS'CTCAGT'
p1390
I88288
sS'TCCGCT'
p1391
I18481
sS'CTTCCA'
p1392
I105500
sS'ATGTGG'
p1393
I74893
sS'ACCACC'
p1394
I63280
sS'CGTATG'
p1395
I7526
sS'ACCACA'
p1396
I83800
sS'GGTTAT'
p1397
I36852
sS'TCCGCC'
p1398
I39647
sS'TCCGCA'
p1399
I16119
sS'TCCGCG'
p1400
I17780
sS'AACGTC'
p1401
I11698
sS'TAAGTT'
p1402
I56389
sS'AACGTG'
p1403
I19016
sS'CGTGAC'
p1404
I16309
sS'GGTAGC'
p1405
I29353
sS'AGTGTG'
p1406
I75380
sS'TCTTCG'
p1407
I13909
sS'AGTGTA'
p1408
I44301
sS'TCTTCA'
p1409
I95836
sS'AGTGTC'
p1410
I54184
sS'TCTTCC'
p1411
I118375
sS'CGTGAT'
p1412
I15205
sS'TAAGTC'
p1413
I39571
sS'AACGTT'
p1414
I15464
sS'CAATTT'
p1415
I84010
sS'TCTTCT'
p1416
I119951
sS'AGTGTT'
p1417
I74015
sS'ANNNNN'
p1418
I1
sS'GTGCGC'
p1419
I19318
sS'TTGGCA'
p1420
I78371
sS'AAAGGT'
p1421
I74356
sS'TTGGCC'
p1422
I74223
sS'AGTAAC'
p1423
I45617
sS'ACTTGG'
p1424
I71949
sS'CTTATT'
p1425
I75349
sS'TTGGCG'
p1426
I14434
sS'GACTTC'
p1427
I58139
sS'TCGAGT'
p1428
I9952
sS'GACTTA'
p1429
I39543
sS'GACTTG'
p1430
I55685
sS'ACGTAG'
p1431
I10237
sS'AAAGGG'
p1432
I96302
sS'AAAGGA'
p1433
I132467
sS'TTGGCT'
p1434
I86185
sS'AAAGGC'
p1435
I84358
sS'GAGTAC'
p1436
I25025
sS'GTATGG'
p1437
I28197
sS'GTCGAT'
p1438
I4828
sS'GACTTT'
p1439
I70467
sS'TTCTTT'
p1440
I199944
sS'AANNNN'
p1441
I1
sS'CAAGAA'
p1442
I98130
sS'AGCGAG'
p1443
I26724
sS'CAAGAC'
p1444
I60921
sS'GATTCG'
p1445
I8378
sS'CAAGAG'
p1446
I83592
sS'CGTATT'
p1447
I10621
sS'TTCTTG'
p1448
I98102
sS'TTCTTC'
p1449
I118898
sS'TTCTTA'
p1450
I93845
sS'CAAGAT'
p1451
I68354
sS'AGGGCT'
p1452
I96110
sS'TACGGG'
p1453
I8517
sS'TACGGA'
p1454
I8154
sS'TACGGC'
p1455
I7155
sS'CCAACT'
p1456
I57596
sS'TAGAGT'
p1457
I45287
sS'TACGGT'
p1458
I7512
sS'AGGGCG'
p1459
I39468
sS'CCCGAA'
p1460
I17229
sS'CCCGAC'
p1461
I21010
sS'TCGAGA'
p1462
I16010
sS'TAGAGC'
p1463
I40208
sS'TAGAGA'
p1464
I81694
sS'TAGAGG'
p1465
I56926
sS'GTGTAA'
p1466
I45479
sS'GTGCTG'
p1467
I98164
sS'CGGGGT'
p1468
I32165
sS'GTGCTA'
p1469
I38413
sS'ATCTGT'
p1470
I78445
sS'GTGCTC'
p1471
I51509
sS'GGCGAC'
p1472
I20079
sS'ATCTGA'
p1473
I75514
sS'GTGCTT'
p1474
I64669
sS'ATCTGC'
p1475
I64160
sS'CGAATA'
p1476
I7078
sS'CGAATG'
p1477
I11159
sS'ATCTGG'
p1478
I70049
sS'ATCATA'
p1479
I52959
sS'GATAGC'
p1480
I24572
sS'ATCATC'
p1481
I53632
sS'GATAGA'
p1482
I39891
sS'AAGCAA'
p1483
I106373
sS'CAAACT'
p1484
I79920
sS'ATCATG'
p1485
I58407
sS'TTTACC'
p1486
I53117
sS'GTTATG'
p1487
I38213
sS'CTAGGT'
p1488
I41157
sS'CATTTA'
p1489
I103367
sS'ACGCAT'
p1490
I10108
sS'GTTATC'
p1491
I32884
sS'GTTATA'
p1492
I37035
sS'CAAACA'
p1493
I108684
sS'AAGCAT'
p1494
I72225
sS'CAAACC'
p1495
I60599
sS'GGCTCC'
p1496
I96038
sS'ATCATT'
p1497
I77957
sS'GATAGT'
p1498
I28600
sS'CTAGGG'
p1499
I49066
sS'GTTATT'
p1500
I64655
sS'CTAGGC'
p1501
I45565
sS'CATTTT'
p1502
I171586
sS'CTAGGA'
p1503
I58848
sS'AAGTTT'
p1504
I96180
sS'AAGGTC'
p1505
I56595
sS'CTCGAA'
p1506
I16141
sS'CTAACG'
p1507
I8320
sS'GTGGCG'
p1508
I31825
sS'CTAAGA'
p1509
I57760
sS'GGGGCT'
p1510
I95805
sS'TACAGG'
p1511
I76252
sS'AAGTTG'
p1512
I62338
sS'GGATGC'
p1513
I44652
sS'AAGTTA'
p1514
I68693
sS'TACAGC'
p1515
I48195
sS'AAGTTC'
p1516
I62092
sS'TACAGA'
p1517
I75003
sS'GGGGCC'
p1518
I97870
sS'GTATGA'
p1519
I38135
sS'GGGGCA'
p1520
I85608
sS'ATATGT'
p1521
I68730
sS'GGGGCG'
p1522
I75962
sS'TATATC'
p1523
I37815
sS'TATATA'
p1524
I87092
sS'TGTATA'
p1525
I56547
sS'CTTTTA'
p1526
I104430
sS'ACATCG'
p1527
I9286
sS'TCCGGT'
p1528
I12612
sS'GGTCCA'
p1529
I39713
sS'TATATT'
p1530
I87741
sS'CGTCTA'
p1531
I7844
sS'TGATGG'
p1532
I61807
sS'CATATG'
p1533
I50326
sS'ATGAGT'
p1534
I76181
sS'GCCCAC'
p1535
I67193
sS'TGATGA'
p1536
I78070
sS'AGCATG'
p1537
I68076
sS'TGCCAT'
p1538
I73141
sS'ACTCTT'
p1539
I70522
sS'TGTTTC'
p1540
I105434
sS'CACATA'
p1541
I67529
sS'TTAATT'
p1542
I102922
sS'CACATG'
p1543
I81093
sS'TTTCAT'
p1544
I125497
sS'ATGAGA'
p1545
I85325
sS'ATGAGC'
p1546
I56716
sS'ATGAGG'
p1547
I77075
sS'TTAATA'
p1548
I81767
sS'ACTCTG'
p1549
I93651
sS'TTTCAA'
p1550
I116809
sS'ACTCTA'
p1551
I45282
sS'TGTTTT'
p1552
I194224
sS'ACTCTC'
p1553
I59050
sS'TTAATG'
p1554
I69713
sS'AAATTC'
p1555
I100840
sS'CCCGGT'
p1556
I20560
sS'AAATTA'
p1557
I133015
sS'AAATTG'
p1558
I83961
sS'CCAGTA'
p1559
I47206
sS'AGACCG'
p1560
I14205
sS'NNNNTT'
p1561
I1
sS'AAATTT'
p1562
I138828
sS'TTCGAA'
p1563
I10865
sS'CTTAGT'
p1564
I46309
sS'GTCTAT'
p1565
I31458
sS'GGGAAC'
p1566
I58435
sS'GGTGCG'
p1567
I22201
sS'GGGAAA'
p1568
I124753
sS'GGGAAG'
p1569
I133601
sS'GGTGCC'
p1570
I60602
sS'TCGTCC'
p1571
I13084
sS'TCCGGG'
p1572
I33847
sS'AGAGCG'
p1573
I25898
sS'GCGACT'
p1574
I11699
sS'AGAGCC'
p1575
I85787
sS'AGAGCA'
p1576
I96459
sS'GCGTAG'
p1577
I7899
sS'GGTGCT'
p1578
I62800
sS'GCGTAC'
p1579
I4727
sS'GCGTAA'
p1580
I6666
sS'GCGACG'
p1581
I9743
sS'AGAGCT'
p1582
I92083
sS'GCGACA'
p1583
I14434
sS'TATCGG'
p1584
I5030
sS'GCGACC'
p1585
I14707
sS'AGGTCG'
p1586
I14296
sS'GCAGGA'
p1587
I114934
sS'GCAGGC'
p1588
I92860
sS'AGNTGC'
p1589
I1
sS'GCAGGG'
p1590
I125807
sS'GGCGAT'
p1591
I11168
sS'GCACTA'
p1592
I29938
sS'CCGTGC'
p1593
I22121
sS'GCTCGG'
p1594
I28792
sS'TATTCT'
p1595
I80134
sS'CCGTGG'
p1596
I28634
sS'CTTTAG'
p1597
I59206
sS'GCAGGT'
p1598
I70872
sS'TGAAGC'
p1599
I67833
sS'ACGTCT'
p1600
I15111
sS'TATTCC'
p1601
I53415
sS'CAATTG'
p1602
I38201
sS'TATTCA'
p1603
I75493
sS'CAATTA'
p1604
I55649
sS'TATTCG'
p1605
I7071
sS'CAATTC'
p1606
I55599
sS'TGTAGA'
p1607
I55717
sS'GGCTCA'
p1608
I102093
sS'TGTAGC'
p1609
I41005
sS'ACCCTC'
p1610
I65838
sS'TTTACG'
p1611
I11310
sS'TGTAGG'
p1612
I46101
sS'TGCTTA'
p1613
I64599
sS'TTCGGA'
p1614
I11523
sS'TTCGGC'
p1615
I12714
sS'CTTTAC'
p1616
I53106
sS'TTCAAG'
p1617
I88530
sS'TTCGGG'
p1618
I17213
sS'CACGAG'
p1619
I18778
sS'GGCTCT'
p1620
I85784
sS'TGTAGT'
p1621
I53710
sS'TTTACT'
p1622
I91318
sS'AGCATA'
p1623
I47166
sS'AGACCT'
p1624
I61558
sS'TTCGGT'
p1625
I10780
sS'GTTTAT'
p1626
I78511
sS'GTCTAG'
p1627
I32418
sS'GCACTC'
p1628
I56680
sS'CGCTAC'
p1629
I7962
sS'AGGCAT'
p1630
I79969
sS'GTTTAA'
p1631
I67635
sS'CGCTAA'
p1632
I7897
sS'AACTTG'
p1633
I67679
sS'CGAATT'
p1634
I9700
sS'GTTTAG'
p1635
I44569
sS'GAGGTA'
p1636
I45073
sS'CTGGCT'
p1637
I125532
sS'AGGCGG'
p1638
I55312
sS'GTCGGT'
p1639
I8589
sS'AGGCGC'
p1640
I33876
sS'AGGAGT'
p1641
I86258
sS'ACAGCC'
p1642
I84282
sS'ACAGCA'
p1643
I98938
sS'GAGGTC'
p1644
I64381
sS'ACAGCG'
p1645
I21745
sS'AGGAGC'
p1646
I91399
sS'AGGCGT'
p1647
I26647
sS'AGGAGA'
p1648
I131825
sS'CTGGCG'
p1649
I31725
sS'AGGAGG'
p1650
I161607
sS'CTGGCA'
p1651
I103191
sS'GTCGGG'
p1652
I20994
sS'GCGCCC'
p1653
I55025
sS'ACAGCT'
p1654
I87486
sS'GCTCTC'
p1655
I70673
sS'ATTGGT'
p1656
I42781
sS'AATTTT'
p1657
I164038
sS'AAACAG'
p1658
I121831
sS'TGTCAC'
p1659
I72016
sS'CCCTCT'
p1660
I113442
sS'GGAAAC'
p1661
I84363
sS'ATTTAT'
p1662
I138557
sS'ATTGGG'
p1663
I42681
sS'AATTTA'
p1664
I106865
sS'AATTTC'
p1665
I95494
sS'AACGCC'
p1666
I14237
sS'ATTGGA'
p1667
I50864
sS'AATTTG'
p1668
I90380
sS'CCCTCA'
p1669
I86571
sS'CCCTCC'
p1670
I154473
sS'TGTCAT'
p1671
I77549
sS'CCCTCG'
p1672
I31355
sS'TAAATA'
p1673
I130490
sS'CACGAT'
p1674
I12017
sS'GGCGTT'
p1675
I14230
sS'TGACCA'
p1676
I60930
sS'CATTCT'
p1677
I103318
sS'TAAATC'
p1678
I62199
sS'TGACCG'
p1679
I12173
sS'ACCACG'
p1680
I24896
sS'CATTCG'
p1681
I11156
sS'CATTCC'
p1682
I89980
sS'CATTCA'
p1683
I89056
sS'TCCATA'
p1684
I46141
sS'NNTTGT'
p1685
I1
sS'ACGAAA'
p1686
I14688
sS'CGCTAT'
p1687
I6916
sS'ACAAAT'
p1688
I103491
sS'GATTAA'
p1689
I54060
sS'GTAGGC'
p1690
I29579
sS'GATTAC'
p1691
I52262
sS'GTAGGA'
p1692
I44393
sS'GTAGGG'
p1693
I40076
sS'GATTAG'
p1694
I36932
sS'GAATGA'
p1695
I90631
sS'ACAAAC'
p1696
I82504
sS'ACAAAA'
p1697
I164948
sS'ACAAAG'
p1698
I100293
sS'GCGGGC'
p1699
I53649
sS'AGGCGA'
p1700
I19922
sS'GCGGGA'
p1701
I39851
sS'GCGGGG'
p1702
I84002
sS'GATTAT'
p1703
I50418
sS'GTAGGT'
p1704
I35829
sS'AACCTG'
p1705
I70950
sS'TAATGA'
p1706
I72229
sS'GATGTT'
p1707
I57629
sS'TAATGC'
p1708
I43153
sS'GGAGAT'
p1709
I67645
sS'GCCCTT'
p1710
I71823
sS'GGCGTA'
p1711
I7177
sS'GCCCTC'
p1712
I89924
sS'GATGTG'
p1713
I60329
sS'GCCCTA'
p1714
I38052
sS'GATGTA'
p1715
I36563
sS'GCCCTG'
p1716
I123511
sS'GATGTC'
p1717
I42303
sS'CAATAG'
p1718
I40874
sS'TGAAAT'
p1719
I124547
sS'TTCTAG'
p1720
I68814
sS'TTCTAA'
p1721
I88809
sS'ATCCGT'
p1722
I9205
sS'TTCTAC'
p1723
I53865
sS'TGAAAA'
p1724
I147509
sS'TGAAAC'
p1725
I83954
sS'TGAAAG'
p1726
I101536
sS'TTCTAT'
p1727
I72854
sS'ATCCGC'
p1728
I13480
sS'ATCCGA'
p1729
I8278
sS'ATCCGG'
p1730
I12221
sS'TGGCTC'
p1731
I103689
sS'TGGCTA'
p1732
I55551
sS'NNNNCT'
p1733
I1
sS'TGGCTG'
p1734
I122018
sS'GACCGG'
p1735
I16101
sS'GTCGGA'
p1736
I9581
sS'AGTTGT'
p1737
I56173
sS'AGCTAT'
p1738
I49845
sS'ATTAGT'
p1739
I49916
sS'GTCGGC'
p1740
I14316
sS'CGTCGA'
p1741
I2958
sS'TGGCTT'
p1742
I99348
sS'AGTTGG'
p1743
I57603
sS'AGCTAA'
p1744
I58191
sS'AGCTAC'
p1745
I51106
sS'AGTTGC'
p1746
I46252
sS'AGTTGA'
p1747
I54809
sS'AGCTAG'
p1748
I45267
sS'CGTTGA'
p1749
I9090
sS'TCCAGT'
p1750
I75779
sS'GCACCT'
p1751
I59880
sS'CAGTGT'
p1752
I82950
sS'AGTCAG'
p1753
I86189
sS'TCAGGT'
p1754
I66148
sS'TCAAGG'
p1755
I69323
sS'CTGGCC'
p1756
I124156
sS'TCAAGC'
p1757
I56066
sS'TCAAGA'
p1758
I76055
sS'CTAATA'
p1759
I47371
sS'CAGTGC'
p1760
I74370
sS'CTAATC'
p1761
I36925
sS'CAGTGA'
p1762
I112226
sS'CAGTGG'
p1763
I107658
sS'GCACCG'
p1764
I21564
sS'TCAAGT'
p1765
I69125
sS'TCAGGG'
p1766
I92586
sS'GAGCCC'
p1767
I86384
sS'TCAGGC'
p1768
I80484
sS'CGAGCT'
p1769
I17280
sS'CGTTGG'
p1770
I13060
sS'CAACCA'
p1771
I56263
sS'GTTCAT'
p1772
I51204
sS'TTCCCT'
p1773
I127374
sS'CGAGCG'
p1774
I15073
sS'CGAGCA'
p1775
I15016
sS'GAGCCG'
p1776
I39513
sS'CGAGCC'
p1777
I24601
sS'TTCCCA'
p1778
I123256
sS'TTCCCC'
p1779
I102191
sS'GTTCAC'
p1780
I42207
sS'TTCCCG'
p1781
I29431
sS'TGAGCA'
p1782
I82525
sS'GGACCT'
p1783
I49208
sS'TACATG'
p1784
I53625
sS'AAGTAC'
p1785
I42947
sS'CACACT'
p1786
I75392
sS'TACATC'
p1787
I36586
sS'AAGTAG'
p1788
I59821
sS'TACATA'
p1789
I62866
sS'GCACAC'
p1790
I59151
sS'GGACCG'
p1791
I18081
sS'AACGCT'
p1792
I13479
sS'GGACCA'
p1793
I46317
sS'CTTTCT'
p1794
I154801
sS'GGACCC'
p1795
I53555
sS'CACACG'
p1796
I25817
sS'TACATT'
p1797
I78048
sS'CACACC'
p1798
I85705
sS'CTGCAT'
p1799
I76738
sS'CACACA'
p1800
I181646
sS'TCTGCC'
p1801
I112206
sS'TCTGCA'
p1802
I97815
sS'TTAAGN'
p1803
I1
sS'TCTGCG'
p1804
I22042
sS'TAGATT'
p1805
I53333
sS'CCCGTC'
p1806
I25641
sS'TTAAGG'
p1807
I57016
sS'CCCGTA'
p1808
I8524
sS'TTAAGA'
p1809
I79453
sS'CCCGTG'
p1810
I24784
sS'TTAAGC'
p1811
I46813
sS'TTACGT'
p1812
I12242
sS'TAGATC'
p1813
I27900
sS'TGTCAA'
p1814
I57765
sS'TAGATA'
p1815
I48033
sS'TTTCGC'
p1816
I12351
sS'TAGATG'
p1817
I49902
sS'TCTGCT'
p1818
I108172
sS'TTACGC'
p1819
I6659
sS'TTAAGT'
p1820
I69720
sS'TTACGA'
p1821
I8392
sS'TTACGG'
p1822
I8793
sS'CCCGTT'
p1823
I15008
sS'AGTGAC'
p1824
I71285
sS'AGTGAA'
p1825
I89221
sS'AGTGAG'
p1826
I106994
sS'ACATTT'
p1827
I139974
sS'CGGGCG'
p1828
I45912
sS'AAACAC'
p1829
I94798
sS'TAAGAG'
p1830
I62306
sS'CGGGCC'
p1831
I47217
sS'TAAGAA'
p1832
I93938
sS'CGGGCA'
p1833
I31722
sS'TAAGAC'
p1834
I41933
sS'TGTCAG'
p1835
I75582
sS'AGTGAT'
p1836
I72647
sS'CTTTCC'
p1837
I121719
sS'TAAGAT'
p1838
I57375
sS'CCTGAA'
p1839
I89936
sS'CCTGAC'
p1840
I78629
sS'CCTGAG'
p1841
I122019
sS'GTTAGG'
p1842
I37276
sS'GCCAAC'
p1843
I47677
sS'TATACT'
p1844
I42625
sS'GTTAGC'
p1845
I27588
sS'GTTAGA'
p1846
I39278
sS'GNNNNN'
p1847
I1
sS'GCCAAA'
p1848
I72385
sS'TATACG'
p1849
I6190
sS'GTTAGT'
p1850
I32299
sS'TATACC'
p1851
I26646
sS'TATACA'
p1852
I56527
sS'ATTGGC'
p1853
I44912
sS'CGTATA'
p1854
I6199
sS'TCTTGT'
p1855
I75378
sS'ACTAGT'
p1856
I29281
sS'TTTATT'
p1857
I197729
sS'GTAATA'
p1858
I47070
sS'AACGCA'
p1859
I13081
sS'GTAATC'
p1860
I52202
sS'TCTAAC'
p1861
I39297
sS'CGTTCT'
p1862
I16052
sS'CCACCG'
p1863
I32898
sS'CGGATC'
p1864
I13321
sS'CCACCA'
p1865
I102932
sS'CCACCC'
p1866
I120902
sS'GTTCGT'
p1867
I7809
sS'TTTATG'
p1868
I91960
sS'ACTAGG'
p1869
I39184
sS'TTTATC'
p1870
I75956
sS'ACTAGC'
p1871
I28189
sS'TTTATA'
p1872
I107947
sS'ACTAGA'
p1873
I46859
sS'CCACCT'
p1874
I108496
sS'CGTTCG'
p1875
I4376
sS'ACTTGT'
p1876
I56967
sS'CGTTCA'
p1877
I12179
sS'CGTTCC'
p1878
I16538
sS'TCTAAT'
p1879
I58389
sS'CTTTGT'
p1880
I100306
sS'ATTTAA'
p1881
I124629
sS'ACTGGA'
p1882
I75754
sS'ACTGGC'
p1883
I62337
sS'TAGTCC'
p1884
I34919
sS'GTGACC'
p1885
I53652
sS'TAGTCA'
p1886
I52396
sS'GTGACA'
p1887
I72002
sS'TAGTCG'
p1888
I5224
sS'GTGACG'
p1889
I15856
sS'ATTTAG'
p1890
I69372
sS'ACTGGT'
p1891
I48952
sS'CTTTGG'
p1892
I105163
sS'CCTATG'
p1893
I38813
sS'CTTTGC'
p1894
I83095
sS'CTTTGA'
p1895
I87072
sS'ACATTA'
p1896
I63973
sS'GTGACT'
p1897
I82116
sS'TAGTCT'
p1898
I42305
sS'GTGCAC'
p1899
I41914
sS'GCGCTT'
p1900
I16565
sS'ACCTAG'
p1901
I41149
sS'GCAATT'
p1902
I54773
sS'ACCTAA'
p1903
I45797
sS'CGACGC'
p1904
I8949
sS'ACCTAC'
p1905
I35845
sS'CCGCAG'
p1906
I39673
sS'CCGCAA'
p1907
I12840
sS'CCGCAC'
p1908
I22868
sS'CTACGG'
p1909
I9191
sS'ACCTAT'
p1910
I34652
sS'CGACGT'
p1911
I4480
sS'CGAAGA'
p1912
I13908
sS'CCCCGT'
p1913
I26672
sS'CGAAGG'
p1914
I18162
sS'GCGCTC'
p1915
I28786
sS'GTGCAT'
p1916
I46684
sS'GCGCTA'
p1917
I8127
sS'NCTGAC'
p1918
I1
sS'CCGCAT'
p1919
I11735
sS'GTTCGC'
p1920
I7907
sS'NNNACA'
p1921
I1
sS'GAAGAT'
p1922
I64519
sS'GGATCT'
p1923
I45384
sS'TCGGAA'
p1924
I12759
sS'TCGGAC'
p1925
I8886
sS'GAATCT'
p1926
I60708
sS'TCGGAG'
p1927
I18799
sS'GGATCG'
p1928
I10692
sS'GAAGAG'
p1929
I105251
sS'GAAGAA'
p1930
I118939
sS'GGATCC'
p1931
I41125
sS'GAAGAC'
p1932
I59616
sS'GGATCA'
p1933
I50336
sS'GGATCN'
p1934
I2
sS'GAATCA'
p1935
I71804
sS'GAATCC'
p1936
I47004
sS'TCGGAT'
p1937
I8278
sS'GAATCG'
p1938
I12058
sS'ATGGTC'
p1939
I35880
sS'CAGATG'
p1940
I91531
sS'ACGCCG'
p1941
I12068
sS'TGACCC'
p1942
I54976
sS'ATGGTG'
p1943
I72463
sS'CAGATC'
p1944
I55384
sS'ACGCCC'
p1945
I29708
sS'CAGATA'
p1946
I64844
sS'CAATCG'
p1947
I7650
sS'CTATCT'
p1948
I49858
sS'CAGATT'
p1949
I76499
sS'CTCGAC'
p1950
I9811
sS'ATGGTT'
p1951
I53927
sS'TCGCAA'
p1952
I8065
sS'TTGCGC'
p1953
I11153
sS'GCTATT'
p1954
I49615
sS'TGCGTC'
p1955
I14300
sS'CCGGTA'
p1956
I7869
sS'NNNTTG'
p1957
I1
sS'AATGGT'
p1958
I55153
sS'GTTACG'
p1959
I6736
sS'ACGTGT'
p1960
I18618
sS'AATGGC'
p1961
I60095
sS'AATGGA'
p1962
I82321
sS'AATGGG'
p1963
I69206
sS'GATCAA'
p1964
I37207
sS'CCCCGA'
p1965
I29485
sS'CAACTC'
p1966
I54770
sS'ACAANN'
p1967
I1
sS'AACGCG'
p1968
I6809
sS'AATAGC'
p1969
I49597
sS'ATTTAC'
p1970
I70188
sS'CGTTAG'
p1971
I8324
sS'AGCCAG'
p1972
I125534
sS'GGAGGG'
p1973
I154443
sS'AAAAGT'
p1974
I113535
sS'GGAGGA'
p1975
I143623
sS'GGAGGC'
p1976
I144460
sS'TGGTAG'
p1977
I45322
sS'CGCCAT'
p1978
I18130
sS'GAGTGT'
p1979
I53834
sS'TGGTAC'
p1980
I28283
sS'TGGTAA'
p1981
I55008
sS'AAAAGG'
p1982
I119331
sS'GGAGGT'
p1983
I86906
sS'AGCCAT'
p1984
I69288
sS'AAAAGC'
p1985
I99082
sS'AAAAGA'
p1986
I170725
sS'TTGACT'
p1987
I59647
sS'GAGTGG'
p1988
I71983
sS'CGCCAG'
p1989
I31734
sS'TGGTAT'
p1990
I48133
sS'CGCCAA'
p1991
I14440
sS'GAGTGC'
p1992
I56577
sS'CGCCAC'
p1993
I31874
sS'GAGTGA'
p1994
I75973
sS'GCCAGG'
p1995
I145708
sS'GCCAGA'
p1996
I85776
sS'GCCAGC'
p1997
I90921
sS'GCCCGT'
p1998
I17658
sS'CAATCC'
p1999
I43162
sS'TACCGA'
p2000
I6585
sS'TACCGC'
p2001
I7957
sS'TACTGA'
p2002
I57843
sS'CTTCAT'
p2003
I81850
sS'GCCCGC'
p2004
I53669
sS'GCCAGT'
p2005
I62356
sS'GCCCGA'
p2006
I21773
sS'GCCCGG'
p2007
I66311
sS'TGCGAT'
p2008
I9400
sS'CTTCAC'
p2009
I67923
sS'CTTCAA'
p2010
I74408
sS'TACCGT'
p2011
I7741
sS'TCCGAG'
p2012
I20017
sS'TCCGAA'
p2013
I11527
sS'TCCGAC'
p2014
I9581
sS'AATTCA'
p2015
I91971
sS'TNNNNN'
p2016
I1
sS'AATTCC'
p2017
I81991
sS'AATTCG'
p2018
I9697
sS'TCCGAT'
p2019
I7607
sS'NNNGAT'
p2020
I2
sS'TAGCGG'
p2021
I9359
sS'AATTCT'
p2022
I102641
sS'TAGCGC'
p2023
I8129
sS'GTCATC'
p2024
I51734
sS'GTCATA'
p2025
I44354
sS'GTCATG'
p2026
I54734
sS'AGCAGG'
p2027
I115931
sS'CCAGGT'
p2028
I89426
sS'TTGGAA'
p2029
I98351
sS'AGCAGC'
p2030
I108084
sS'AGCAGA'
p2031
I108179
sS'GTCATT'
p2032
I73150
sS'CCAGGG'
p2033
I135275
sS'AGCAGT'
p2034
I77092
sS'CCAGGA'
p2035
I143945
sS'CCAGGC'
p2036
I167970
sS'TTGGAT'
p2037
I55775
sS'ACGGTA'
p2038
I7734
sS'CATCTG'
p2039
I91539
sS'ACGGTC'
p2040
I9785
sS'CATCTA'
p2041
I49879
sS'ATAGAC'
p2042
I31453
sS'CATCTC'
p2043
I86936
sS'ATAGAA'
p2044
I72850
sS'ATGCGA'
p2045
I7774
sS'ATTAGA'
p2046
I58367
sS'TCCAAC'
p2047
I49061
sS'GGGGTC'
p2048
I53036
sS'GATCGT'
p2049
I8056
sS'CATCTT'
p2050
I83869
sS'CAAGCA'
p2051
I75556
sS'ACGGTT'
p2052
I10113
sS'ACTCGA'
p2053
I9952
sS'GACTGA'
p2054
I60465
sS'CCTGGC'
p2055
I145711
sS'GTTCTT'
p2056
I71980
sS'ACATGA'
p2057
I70634
sS'CGTAAT'
p2058
I8545
sS'ACATGC'
p2059
I56807
sS'TCTTGA'
p2060
I76063
sS'ACATGG'
p2061
I71536
sS'CCCGCT'
p2062
I33628
sS'GTAAAC'
p2063
I46360
sS'TGGCGG'
p2064
I33773
sS'CGTAAG'
p2065
I9521
sS'GAGTCA'
p2066
I102585
sS'ACATGT'
p2067
I67480
sS'GTTCTA'
p2068
I42069
sS'CGTAAA'
p2069
I11318
sS'AGGGAG'
p2070
I147720
sS'CCCGCC'
p2071
I97856
sS'AGACGC'
p2072
I17846
sS'CCCGCA'
p2073
I30126
sS'CCCTTT'
p2074
I96352
sS'AGCGCA'
p2075
I16722
sS'GTTGTT'
p2076
I64813
sS'TTCTNC'
p2077
I1
sS'ATCCTT'
p2078
I67610
sS'TTGTCG'
p2079
I8248
sS'TTGTCC'
p2080
I55240
sS'TTGTCA'
p2081
I67922
sS'ATCCTC'
p2082
I65533
sS'GTTGTA'
p2083
I36315
sS'ATCCTA'
p2084
I44760
sS'GTTGTC'
p2085
I35780
sS'ATCCTG'
p2086
I77163
sS'GTTGTG'
p2087
I49545
sS'TTGTCT'
p2088
I81590
sS'CTATGC'
p2089
I32872
sS'GTTGTN'
p2090
I1
sS'TGACTA'
p2091
I52418
sS'TGGGCC'
p2092
I81551
sS'TGACTC'
p2093
I102605
sS'TGGGCA'
p2094
I105942
sS'TGGGCG'
p2095
I42015
sS'TGACTG'
p2096
I75457
sS'AAGCCG'
p2097
I20555
sS'NNNNGC'
p2098
I1
sS'AAGCCC'
p2099
I71137
sS'AAGCCA'
p2100
I99352
sS'CAAAAT'
p2101
I119560
sS'ACGCGG'
p2102
I13503
sS'TGGGCT'
p2103
I97964
sS'CANCTT'
p2104
I1
sS'CAAAAC'
p2105
I96816
sS'CAAAAA'
p2106
I162758
sS'AAGCCT'
p2107
I80040
sS'CAAAAG'
p2108
I99484
sS'TCAATG'
p2109
I50744
sS'AAACTT'
p2110
I96204
sS'TCAATC'
p2111
I37628
sS'TCAATA'
p2112
I54098
sS'CAGTTC'
p2113
I68669
sS'GACCCG'
p2114
I21861
sS'CAGTTG'
p2115
I59334
sS'GACCCC'
p2116
I53023
sS'CTCTGT'
p2117
I126988
sS'TCAATT'
p2118
I59550
sS'GGCCAG'
p2119
I124200
sS'CTCTGC'
p2120
I126965
sS'GACCCT'
p2121
I53769
sS'CTCTGA'
p2122
I107994
sS'ACAATC'
p2123
I42617
sS'CTCTGG'
p2124
I123874
sS'CAGTTT'
p2125
I105669
sS'GCGAAG'
p2126
I15703
sS'ACGTTC'
p2127
I12303
sS'TGCTGG'
p2128
I126246
sS'TGCTGA'
p2129
I95257
sS'GAGTCT'
p2130
I65230
sS'TGCTGC'
p2131
I97904
sS'AGCTGC'
p2132
I95614
sS'GCTGGT'
p2133
I77477
sS'GTGATT'
p2134
I67172
sS'CTACTA'
p2135
I40270
sS'TGCTGT'
p2136
I99002
sS'TAGGGC'
p2137
I38057
sS'TAATGG'
p2138
I47178
sS'TGTACC'
p2139
I32906
sS'GTGATG'
p2140
I61283
sS'GCTGGG'
p2141
I178207
sS'GTGATC'
p2142
I48995
sS'GCTGGC'
p2143
I90904
sS'GTGATA'
p2144
I41037
sS'GCTGGA'
p2145
I112367
sS'TGATAA'
p2146
I67839
sS'TGATAC'
p2147
I33987
sS'TGATAG'
p2148
I39683
sS'CTTGTT'
p2149
I78370
sS'GACGGT'
p2150
I11072
sS'GCTAGG'
p2151
I43189
sS'GCTAGA'
p2152
I40652
sS'ATGAAT'
p2153
I94906
sS'GCTAGC'
p2154
I24923
sS'ATAGGG'
p2155
I35908
sS'TGATAT'
p2156
I54427
sS'GCTAGT'
p2157
I28201
sS'ATGAAC'
p2158
I51202
sS'GACGGG'
p2159
I25661
sS'ATGAAA'
p2160
I125521
sS'GACGGA'
p2161
I17664
sS'ATGAAG'
p2162
I81824
sS'GACGGC'
p2163
I17389
sS'CTTGTC'
p2164
I57151
sS'CAAAGA'
p2165
I105460
sS'GNCCGC'
p2166
I1
sS'CCATAG'
p2167
I37333
sS'GGTGAA'
p2168
I66447
sS'GGTGAC'
p2169
I63884
sS'GCGTCT'
p2170
I17844
sS'TGTAAA'
p2171
I99641
sS'GGTGAG'
p2172
I84429
sS'GGAATG'
p2173
I89991
sS'CGTCCT'
p2174
I21252
sS'GGCTAA'
p2175
I46900
sS'GGAATC'
p2176
I50942
sS'GGAATA'
p2177
I53414
sS'GCGTCA'
p2178
I13427
sS'GCGTCC'
p2179
I23364
sS'GGTGAT'
p2180
I53691
sS'GCGTCG'
p2181
I8951
sS'CGTCCG'
p2182
I10781
sS'GGAATT'
p2183
I82006
sS'CGTCCC'
p2184
I27103
sS'CGTCCA'
p2185
I15382
sS'TTTCGA'
p2186
I10466
sS'CCGTAT'
p2187
I7434
sS'GAAGTC'
p2188
I58145
sS'GAAGTA'
p2189
I52960
sS'GAAGTG'
p2190
I79170
sS'GCCGTA'
p2191
I7153
sS'CCGTAC'
p2192
I5923
sS'CCGTAA'
p2193
I8793
sS'CCGTAG'
p2194
I9186
sS'CAAAGT'
p2195
I95924
sS'GCCGTT'
p2196
I11912
sS'GAAGTT'
p2197
I69005
sS'GGCGCG'
p2198
I45217
sS'ATGCCC'
p2199
I54500
sS'TTAGTT'
p2200
I60169
sS'TATTAG'
p2201
I47407
sS'GGCGCC'
p2202
I52263
sS'TATTAA'
p2203
I81882
sS'GGCGCA'
p2204
I26283
sS'TATTAC'
p2205
I47117
sS'ACTATG'
p2206
I44222
sS'CCTACA'
p2207
I46071
sS'TTTAAG'
p2208
I92819
sS'ACTATC'
p2209
I28594
sS'TTTAAA'
p2210
I211352
sS'ACTATA'
p2211
I40247
sS'TTTAAC'
p2212
I67295
sS'TATTAT'
p2213
I87112
sS'TTAGTG'
p2214
I47726
sS'GGCGCT'
p2215
I32030
sS'TTAGTC'
p2216
I43829
sS'ATGCCT'
p2217
I79948
sS'TTAGTA'
p2218
I52389
sS'TTTAAT'
p2219
I119929
sS'ACTATT'
p2220
I54845
sS'GGGCAT'
p2221
I54513
sS'AAAGAC'
p2222
I78488
sS'TTTCCG'
p2223
I18946
sS'TTTCCA'
p2224
I133802
sS'TTTCCC'
p2225
I124725
sS'GTACGT'
p2226
I7346
sS'GTTTGT'
p2227
I82483
sS'TCAGNN'
p2228
I1
sS'TTTCCT'
p2229
I181643
sS'GGGCAG'
p2230
I136724
sS'CCTGGA'
p2231
I121385
sS'GGGCAA'
p2232
I70201
sS'GGGCAC'
p2233
I64630
sS'GTACGG'
p2234
I5923
sS'GTTTGA'
p2235
I62853
sS'GTTTGG'
p2236
I65626
sS'GTACGA'
p2237
I4567
sS'CCGCTC'
p2238
I32328
sS'GCATGT'
p2239
I56813
sS'CCGCTA'
p2240
I9360
sS'CCGCTG'
p2241
I36126
sS'AGCATT'
p2242
I80867
sS'GCGCGG'
p2243
I47405
sS'NGCANC'
p2244
I1
sS'GCGCGC'
p2245
I43928
sS'GCGCGA'
p2246
I13446
sS'GCATGG'
p2247
I58950
sS'TGGATC'
p2248
I43951
sS'GCATGC'
p2249
I47233
sS'CCGCTT'
p2250
I19752
sS'TGACCT'
p2251
I89382
sS'GTCGAC'
p2252
I4646
sS'GTCGAA'
p2253
I6037
sS'GTCGAG'
p2254
I9816
sS'CGTGGC'
p2255
I28992
sS'GAGCTA'
p2256
I43250
sS'TGCGCT'
p2257
I16723
sS'GAGCTC'
p2258
I70510
sS'ATTGAT'
p2259
I47973
sS'TGTCCT'
p2260
I87736
sS'AAACGA'
p2261
I17540
sS'AAACGC'
p2262
I16228
sS'GTNNNN'
p2263
I1
sS'GTAACA'
p2264
I47746
sS'CACGCG'
p2265
I13097
sS'AAACGG'
p2266
I17856
sS'ATTGAA'
p2267
I65889
sS'TGCGCG'
p2268
I16915
sS'TGTCCA'
p2269
I69088
sS'TGTCCG'
p2270
I13882
sS'TGCGCC'
p2271
I26293
sS'ATTGAG'
p2272
I53422
sS'CGCTGA'
p2273
I20296
sS'GCGCAG'
p2274
I35076
sS'AAACGT'
p2275
I20903
sS'NNNNNT'
p2276
I1
sS'TGGGTT'
p2277
I71559
sS'ATTTCA'
p2278
I124483
sS'ATTTCC'
p2279
I106116
sS'ATCAGT'
p2280
I56992
sS'ATCGGG'
p2281
I10006
sS'CATAGT'
p2282
I44224
sS'ATCGGC'
p2283
I8095
sS'CCGTGT'
p2284
I19703
sS'ATCGGA'
p2285
I7602
sS'ATTTCT'
p2286
I143433
sS'CGATCA'
p2287
I7416
sS'TGGGTC'
p2288
I55885
sS'TGGGTA'
p2289
I48232
sS'CATAGG'
p2290
I38807
sS'ATCGGT'
p2291
I6450
sS'ATCAGG'
p2292
I57863
sS'CATAGC'
p2293
I41385
sS'CGGTGA'
p2294
I19804
sS'GGTCAA'
p2295
I40813
sS'ACGGGT'
p2296
I11310
sS'GTCTGA'
p2297
I58008
sS'ATTCGG'
p2298
I9771
sS'GATTCT'
p2299
I68675
sS'CTTTTG'
p2300
I99407
sS'TACTAG'
p2301
I28963
sS'CTTTTC'
p2302
I126475
sS'TACTAC'
p2303
I28456
sS'GATTCC'
p2304
I50917
sS'ACGGGG'
p2305
I26686
sS'ACGGGA'
p2306
I18322
sS'ACGGGC'
p2307
I17663
sS'TACTAT'
p2308
I42866
sS'CTTTTT'
p2309
I171886
sS'TCACGA'
p2310
I13332
sS'TCACGC'
p2311
I23483
sS'TCACGG'
p2312
I18113
sS'GCAGCC'
p2313
I111010
sS'TCTCAT'
p2314
I85354
sS'TCACGT'
p2315
I19669
sS'TTCCAC'
p2316
I77233
sS'TTCCAA'
p2317
I98347
sS'TTCCAG'
p2318
I126963
sS'CGAGGC'
p2319
I37353
sS'ACCCTT'
p2320
I55844
sS'TGAAGT'
p2321
I76871
sS'AAACAA'
p2322
I180523
sS'ATGCTT'
p2323
I72195
sS'TTCCAT'
p2324
I91218
sS'ACCCTA'
p2325
I38006
sS'TGAAGA'
p2326
I95908
sS'TGAAGG'
p2327
I83568
sS'ACCCTG'
p2328
I88729
sS'CTGACT'
p2329
I86175
sS'CCCCTT'
p2330
I80370
sS'AGTTAT'
p2331
I57389
sS'ACATAT'
p2332
I68747
sS'CTGACG'
p2333
I16853
sS'CTGACC'
p2334
I77105
sS'CTGACA'
p2335
I75528
sS'AGTTAA'
p2336
I66351
sS'CCCCTG'
p2337
I99275
sS'AGTTAC'
p2338
I46033
sS'CCCCTC'
p2339
I112502
sS'AGTTAG'
p2340
I44008
sS'CCCCTA'
p2341
I42723
sS'ACACAG'
p2342
I113187
sS'ACACAA'
p2343
I84291
sS'ACACAC'
p2344
I151359
sS'AATGTT'
p2345
I103360
sS'CTGCAG'
p2346
I146402
sS'CATGGG'
p2347
I63628
sS'CTGCAC'
p2348
I83071
sS'CATGGC'
p2349
I66232
sS'AATGTC'
p2350
I67568
sS'ACACAT'
p2351
I85553
sS'AATGTA'
p2352
I77970
sS'AATGTG'
p2353
I92156
sS'CATGGT'
p2354
I65641
sS'GCACAA'
p2355
I54019
sS'GCACAG'
p2356
I90319
sS'CGATTC'
p2357
I12061
sS'ATGCTG'
p2358
I81988
sS'ATGTTC'
p2359
I56868
sS'CGAGAT'
p2360
I15859
sS'ATTACT'
p2361
I63749
sS'CACAAT'
p2362
I63956
sS'ACATTG'
p2363
I58310
sS'ACGCTC'
p2364
I13754
sS'ACATTC'
p2365
I78848
sS'ATTACA'
p2366
I93081
sS'ATGCTC'
p2367
I48347
sS'ATTACC'
p2368
I38421
sS'CGAGAC'
p2369
I21727
sS'CGAGAA'
p2370
I17293
sS'AAGTCT'
p2371
I70015
sS'CCACAA'
p2372
I70649
sS'GGACAT'
p2373
I48811
sS'CAGCGT'
p2374
I21945
sS'GCTATA'
p2375
I30845
sS'GCTATC'
p2376
I24585
sS'AAGTCG'
p2377
I11147
sS'AAGTCA'
p2378
I85688
sS'GCTATG'
p2379
I41396
sS'CCACTC'
p2380
I72004
sS'GGACAG'
p2381
I84983
sS'GGACAC'
p2382
I56052
sS'GGACAA'
p2383
I55263
sS'CTAATT'
p2384
I70107
sS'AGGGTT'
p2385
I63580
sS'GAGGCG'
p2386
I51206
sS'TGTTGG'
p2387
I71724
sS'GAGGCA'
p2388
I108733
sS'TGTTGA'
p2389
I68606
sS'GAGGCC'
p2390
I108415
sS'TGTTGC'
p2391
I65378
sS'TCCAAG'
p2392
I79891
sS'CAATGT'
p2393
I58311
sS'TAAAAT'
p2394
I163267
sS'ACTCGC'
p2395
I13146
sS'ACTCGG'
p2396
I20258
sS'TGTTGT'
p2397
I76634
sS'GAGGCT'
p2398
I115201
sS'AGCGCC'
p2399
I32037
sS'AGGGTG'
p2400
I89150
sS'AGGGTA'
p2401
I41961
sS'AGCGCG'
p2402
I20113
sS'AGGGTC'
p2403
I53760
sS'TAAAAG'
p2404
I104523
sS'ACTCGT'
p2405
I9738
sS'TAAAAC'
p2406
I90714
sS'TAAAAA'
p2407
I204003
sS'CTACTC'
p2408
I48048
sS'TAGGGA'
p2409
I55677
sS'ACGTTA'
p2410
I10615
sS'AGCTGA'
p2411
I95168
sS'ACGTTG'
p2412
I12959
sS'AGCTGG'
p2413
I129536
sS'TAGGGG'
p2414
I42722
sS'TAAATG'
p2415
I103419
sS'AGTGCG'
p2416
I14006
sS'AGTGCA'
p2417
I70353
sS'AGAGTT'
p2418
I75617
sS'AGTGCC'
p2419
I62774
sS'CCAAAA'
p2420
I99338
sS'TAGGGT'
p2421
I38005
sS'GCATAG'
p2422
I32868
sS'AGCTGT'
p2423
I87505
sS'CTACTT'
p2424
I59813
sS'AGTGCT'
p2425
I86701
sS'AGAGTC'
p2426
I61193
sS'AGAGTA'
p2427
I52641
sS'AGAGTG'
p2428
I79043
sS'TTCGTA'
p2429
I8592
sS'GTTAAA'
p2430
I67289
sS'GCACCA'
p2431
I59751
sS'GTTAAC'
p2432
I31693
sS'GTCTGT'
p2433
I67723
sS'CCTGGG'
p2434
I188923
sS'GTTAAG'
p2435
I44114
sS'AGCCCG'
p2436
I34448
sS'TTCGTC'
p2437
I9821
sS'GCACCC'
p2438
I57766
sS'GTCTGG'
p2439
I71751
sS'NNNNNA'
p2440
I1
sS'GTCTGC'
p2441
I53451
sS'GTTAAT'
p2442
I47667
sS'CCTGGT'
p2443
I80593
sS'CGCAAT'
p2444
I8911
sS'GCGGNC'
p2445
I1
sS'CCGGTC'
p2446
I16100
sS'GGAAGG'
p2447
I135772
sS'CCACAT'
p2448
I74927
sS'GGAAGC'
p2449
I92145
sS'CTAATG'
p2450
I47803
sS'GGAAGA'
p2451
I118389
sS'TGTATT'
p2452
I92322
sS'CAATGA'
p2453
I67515
sS'GCGTTC'
p2454
I12903
sS'CAATGC'
p2455
I45199
sS'AAACCG'
p2456
I15091
sS'GCGTTG'
p2457
I11530
sS'CAATGG'
p2458
I52434
sS'CCACAG'
p2459
I112431
sS'GGAAGT'
p2460
I84360
sS'CCACAC'
p2461
I85415
sS'ATGCTA'
p2462
I47245
sS'AAACCA'
p2463
I97658
sS'TCCTCG'
p2464
I24658
sS'TGTATG'
p2465
I56941
sS'TCCTCA'
p2466
I100502
sS'GCGTTT'
p2467
I16225
sS'TCCTCC'
p2468
I143607
sS'TGTATC'
p2469
I42203
sS'GTGAAT'
p2470
I61490
sS'TAACCG'
p2471
I7131
sS'TCATAG'
p2472
I50885
sS'TTCGTG'
p2473
I13857
sS'TCATAA'
p2474
I70060
sS'TAACCC'
p2475
I35404
sS'TCATAC'
p2476
I38146
sS'TAACCA'
p2477
I50068
sS'ACCGCT'
p2478
I13515
sS'TCGCGA'
p2479
I5252
sS'TGCATG'
p2480
I68320
sS'TCAGGA'
p2481
I109041
sS'TTCGTT'
p2482
I14395
sS'TCATAT'
p2483
I63015
sS'TAACCT'
p2484
I49357
sS'CGTTAT'
p2485
I8564
sS'GTGAAA'
p2486
I94496
sS'GTGAAC'
p2487
I42215
sS'AACCCG'
p2488
I18294
sS'ACCGCG'
p2489
I15798
sS'ACCGCA'
p2490
I15961
sS'AACGAG'
p2491
I13376
sS'ACCGCC'
p2492
I23476
sS'CCGCCT'
p2493
I55321
sS'AGGCTT'
p2494
I80056
sS'CCTTCT'
p2495
I114843
sS'GGGACG'
p2496
I27090
sS'AACGAA'
p2497
I14403
sS'GTTGCC'
p2498
I50639
sS'GTGCCG'
p2499
I17821
sS'GTGCCA'
p2500
I69057
sS'GTTGCG'
p2501
I8948
sS'GTGCCC'
p2502
I64627
sS'CCTTCA'
p2503
I83520
sS'AGGCTA'
p2504
I48918
sS'CCTTCC'
p2505
I135733
sS'AGGCTC'
p2506
I79086
sS'CCGCCC'
p2507
I91118
sS'TGTCGA'
p2508
I6930
sS'CCGCCA'
p2509
I33776
sS'AGGCTG'
p2510
I174549
sS'GTGCCT'
p2511
I74532
sS'CAGCGA'
p2512
I21430
sS'GGCGAA'
p2513
I14040
sS'GTTGCT'
p2514
I57063
sS'NNNGCG'
p2515
I1
sS'GGATAT'
p2516
I39230
sS'TCGGGT'
p2517
I13850
sS'ATTTGA'
p2518
I92342
sS'GCAGTT'
p2519
I64056
sS'GAAGCT'
p2520
I77971
sS'GGATAA'
p2521
I44416
sS'GGATAC'
p2522
I25132
sS'NNNNNG'
p2523
I7
sS'TCGGGG'
p2524
I29483
sS'GGATAG'
p2525
I31036
sS'GAAGCG'
p2526
I21736
sS'GCAGTG'
p2527
I111300
sS'GAAGCC'
p2528
I78864
sS'GCAGTA'
p2529
I44282
sS'GAAGCA'
p2530
I87192
sS'GCAGTC'
p2531
I50696
sS'CGCCCG'
p2532
I45934
sS'GAGAGA'
p2533
I135463
sS'GAGAGG'
p2534
I120981
sS'CGCCCA'
p2535
I41998
sS'AGTTTG'
p2536
I79863
sS'CTATAG'
p2537
I30966
sS'NNNNNN'
p2538
I1290
sS'GCATTC'
p2539
I58275
sS'CTATAA'
p2540
I53434
sS'CTCGCA'
p2541
I15208
sS'CGCCCT'
p2542
I39468
sS'GAGAGT'
p2543
I59037
sS'AAACAT'
p2544
I117223
sS'CTATAT'
p2545
I41458
sS'AGTTTC'
p2546
I88090
sS'GCCGGG'
p2547
I72351
sS'AGCATC'
p2548
I53711
sS'TACCCG'
p2549
I9754
sS'GCCGGC'
p2550
I45184
sS'CATGTT'
p2551
I80193
sS'GCCGGA'
p2552
I25043
sS'AGATCT'
p2553
I59512
sS'AACTGC'
p2554
I64058
sS'GCCACT'
p2555
I81322
sS'CATGTA'
p2556
I53586
sS'GTTGCA'
p2557
I51466
sS'CATGTC'
p2558
I51626
sS'GCCGGT'
p2559
I16932
sS'CATGTG'
p2560
I81074
sS'AGTTCG'
p2561
I12949
sS'GGCCTG'
p2562
I113053
sS'GGCCTC'
p2563
I108470
sS'NNGCGC'
p2564
I1
sS'CAAGCT'
p2565
I64313
sS'AATCGG'
p2566
I9329
sS'AATCGC'
p2567
I11564
sS'AATCGA'
p2568
I8484
sS'GTTCAG'
p2569
I58851
sS'TCACTG'
p2570
I112211
sS'TCACTA'
p2571
I50254
sS'AGGGCA'
p2572
I102780
sS'TCACTC'
p2573
I75957
sS'AATCGT'
p2574
I9570
sS'TCGAGG'
p2575
I16294
sS'AGCCGA'
p2576
I22655
sS'CCGCCG'
p2577
I52964
sS'AGCCGC'
p2578
I33940
sS'TAATTG'
p2579
I55660
sS'AAAAAT'
p2580
I239005
sS'AGCCGG'
p2581
I38359
sS'GTTTTT'
p2582
I135478
sS'TGGTGA'
p2583
I85598
sS'GATGGA'
p2584
I65461
sS'TGGTGC'
p2585
I59756
sS'GGGCTA'
p2586
I35032
sS'GGGCTG'
p2587
I131789
sS'TGGTGG'
p2588
I102919
sS'GATGGG'
p2589
I70741
sS'TAATTT'
p2590
I133139
sS'CAGCTG'
p2591
I132299
sS'GTTTTA'
p2592
I90662
sS'GGGCTC'
p2593
I86376
sS'GTTTTG'
p2594
I96743
sS'GTTCAA'
p2595
I59251
sS'AAAAAG'
p2596
I171979
sS'TGACAG'
p2597
I83307
sS'CCAAGG'
p2598
I94629
sS'ACGTAT'
p2599
I10421
sS'TCTCAG'
p2600
I113599
sS'TCTCAA'
p2601
I97180
sS'TGGTGT'
p2602
I66358
sS'TCTCAC'
p2603
I78152
sS'ATTCGT'
p2604
I10063
sS'AGAACT'
p2605
I80210
sS'GCATTA'
p2606
I43148
sS'CCTTCG'
p2607
I18156
sS'TACCAT'
p2608
I45045
sS'AGATAG'
p2609
I49871
sS'CACTGT'
p2610
I90707
sS'ACCCGA'
p2611
I13857
sS'AGATAC'
p2612
I43222
sS'ACCCGC'
p2613
I25380
sS'AGATAA'
p2614
I90346
sS'TACCAC'
p2615
I40208
sS'AGAACG'
p2616
I16051
sS'TACCAA'
p2617
I44866
sS'ATTGCC'
p2618
I46806
sS'TACCAG'
p2619
I46727
sS'AGAACC'
p2620
I57818
sS'ATGTCA'
p2621
I73889
sS'CACTGG'
p2622
I88540
sS'AGATAT'
p2623
I60772
sS'ATCACG'
p2624
I15191
sS'CCTATA'
p2625
I33281
sS'CACTGC'
p2626
I111336
sS'CCTATC'
p2627
I32676
sS'CACTGA'
p2628
I86793
sS'TAGGTT'
p2629
I42797
sS'GTTTAC'
p2630
I46358
sS'AATTAT'
p2631
I94699
sS'CTGTTG'
p2632
I75986
sS'TGCTAT'
p2633
I55633
sS'CTGTTC'
p2634
I71422
sS'CGGGTT'
p2635
I18296
sS'CTGTTA'
p2636
I59249
sS'AATTAC'
p2637
I61707
sS'AATTAA'
p2638
I102957
sS'CATGGA'
p2639
I67246
sS'TAGGTA'
p2640
I37304
sS'TAGGTC'
p2641
I30222
sS'CGGGTC'
p2642
I21863
sS'CTGTTT'
p2643
I121809
sS'CGGGTA'
p2644
I9752
sS'CGGGTG'
p2645
I31562
sS'CTTCGG'
p2646
I18729
sS'AAGTAA'
p2647
I84101
sS'CATTAC'
p2648
I42740
sS'GCAATG'
p2649
I56512
sS'TTAGGG'
p2650
I49409
sS'ATATAT'
p2651
I99828
sS'AGCAAC'
p2652
I57076
sS'TTAGGC'
p2653
I37790
sS'AAAGCT'
p2654
I89929
sS'TTAGGA'
p2655
I63975
sS'AAAGCA'
p2656
I124705
sS'ATATAG'
p2657
I41437
sS'TTAGGT'
p2658
I45775
sS'ATATAA'
p2659
I80416
sS'AGCAAT'
p2660
I72784
sS'ATATAC'
p2661
I45743
sS'ATAGCA'
p2662
I55571
sS'ATAGCC'
p2663
I34017
sS'TACTTG'
p2664
I52990
sS'ATAGCG'
p2665
I6908
sS'CAGCAT'
p2666
I81995
sS'CAGCGC'
p2667
I36495
sS'CACAAG'
p2668
I69235
sS'ATAGCT'
p2669
I49839
sS'TACTTT'
p2670
I88177
sS'CATGCG'
p2671
I13371
sS'GTTTTC'
p2672
I97947
sS'CGAGTT'
p2673
I12283
sS'TCCAAT'
p2674
I50904
sS'CGTACT'
p2675
I6485
sS'TCCCGT'
p2676
I18323
sS'TATGCT'
p2677
I47174
sS'CTTAAG'
p2678
I55093
sS'ACATAA'
p2679
I73548
sS'CTTAAA'
p2680
I92816
sS'AGGGGT'
p2681
I62849
sS'CTTAAC'
p2682
I44112
sS'CGTACA'
p2683
I7533
sS'CGTACC'
p2684
I6154
sS'CGAGTA'
p2685
I9837
sS'TCCAAA'
p2686
I97856
sS'AGGGGA'
p2687
I103447
sS'CTTAAT'
p2688
I61101
sS'AGGGGC'
p2689
I90184
sS'TATGCA'
p2690
I52967
sS'AGGGGG'
p2691
I78339
sS'CGTTTG'
p2692
I15945
sS'CGACTT'
p2693
I11153
sS'TGAATT'
p2694
I92034
sS'TTGTAA'
p2695
I76818
sS'TTGTAC'
p2696
I36645
sS'CGTTTA'
p2697
I12490
sS'TGAATC'
p2698
I63587
sS'ACAACA'
p2699
I76616
sS'TGAATA'
p2700
I75501
sS'TCGGGA'
p2701
I22056
sS'TGAATG'
p2702
I89055
sS'AAGTAT'
p2703
I62221
sS'CGACTG'
p2704
I12926
sS'TTGTAT'
p2705
I71927
sS'ATCGTG'
p2706
I12020
sS'GCTTCG'
p2707
I15268
sS'ATCGTC'
p2708
I7400
sS'GCTTCC'
p2709
I92116
sS'TGGGAG'
p2710
I148745
sS'TGGGAA'
p2711
I123319
sS'GNGCAN'
p2712
I1
sS'TGGGAC'
p2713
I65838
sS'GCTTCT'
p2714
I90540
sS'ATCGTT'
p2715
I9589
sS'ACAACG'
p2716
I10871
sS'TGGGAT'
p2717
I87401
sS'CTAGCC'
p2718
I38313
sS'GACCAT'
p2719
I35879
sS'CTAGCG'
p2720
I9345
sS'CGGTAG'
p2721
I9388
sS'ACTTAG'
p2722
I48271
sS'ACTTAA'
p2723
I69731
sS'CGGTAC'
p2724
I6037
sS'ACTTAC'
p2725
I44253
sS'CGGTAA'
p2726
I8568
sS'GACCAG'
p2727
I69189
sS'GACCAC'
p2728
I42087
sS'GACCAA'
p2729
I44066
sS'TTCGAG'
p2730
I16111
sS'TACACC'
p2731
I28954
sS'CGGTAT'
p2732
I6153
sS'TACACA'
p2733
I72531
sS'TACACG'
p2734
I10369
sS'GCGAGA'
p2735
I21011
sS'AGGGCC'
p2736
I84894
sS'GCGAGC'
p2737
I22125
sS'GCTGAG'
p2738
I125695
sS'GCGAGG'
p2739
I33836
sS'CAGCCG'
p2740
I38689
sS'CAGCCA'
p2741
I121981
sS'CAGCCC'
p2742
I131784
sS'GCTGAA'
p2743
I78029
sS'GCGAGT'
p2744
I13144
sS'GAACTG'
p2745
I68638
sS'GAACTC'
p2746
I59243
sS'GAACTA'
p2747
I39767
sS'GGACTT'
p2748
I57016
sS'CACCTA'
p2749
I47124
sS'AACTAT'
p2750
I51967
sS'CACCTC'
p2751
I95353
sS'CACCTG'
p2752
I104073
sS'TGATCC'
p2753
I50363
sS'AACACT'
p2754
I74003
sS'TGATCA'
p2755
I50497
sS'TGATCG'
p2756
I7411
sS'NAGAAA'
p2757
I1
sS'AACTAG'
p2758
I42152
sS'GGACTG'
p2759
I64706
sS'CACCTT'
p2760
I73822
sS'AACTAC'
p2761
I40229
sS'GGACTC'
p2762
I52635
sS'AACGAT'
p2763
I9597
sS'AACACG'
p2764
I17515
sS'AACACA'
p2765
I102253
sS'AACACC'
p2766
I51903
sS'TGATCT'
p2767
I66119
sS'ATATCG'
p2768
I5556
sS'CTATAC'
p2769
I24195
sS'CAACAG'
p2770
I76031
sS'GACAGT'
p2771
I55080
sS'CAACAA'
p2772
I76753
sS'AAAGAA'
p2773
I200096
sS'CAACAC'
p2774
I56244
sS'GCTGAT'
p2775
I54281
sS'ACGCAA'
p2776
I10923
sS'GACAGG'
p2777
I83844
sS'CAACAT'
p2778
I73242
sS'GACAGC'
p2779
I63636
sS'GACAGA'
p2780
I97769
sS'GTATTA'
p2781
I43517
sS'GTATTC'
p2782
I36383
sS'GTAAGT'
p2783
I44255
sS'CCAGCG'
p2784
I35490
sS'AGAGGT'
p2785
I80646
sS'GGTGGC'
p2786
I94789
sS'TCCCCT'
p2787
I103441
sS'GGTGGA'
p2788
I81962
sS'TATCTT'
p2789
I74380
sS'GGTGGG'
p2790
I124996
sS'NNNGAA'
p2791
I4
sS'AGAGGC'
p2792
I102505
sS'GTAAGA'
p2793
I50240
sS'AGAGGA'
p2794
I122842
sS'GTAAGC'
p2795
I31134
sS'GTATTT'
p2796
I99443
sS'ACCGAG'
p2797
I17674
sS'GTAAGG'
p2798
I38303
sS'TATCTA'
p2799
I48009
sS'CGTCAC'
p2800
I15860
sS'TCCCCC'
p2801
I82100
sS'GGTGGT'
p2802
I63287
sS'TCCCCA'
p2803
I123972
sS'GTCGCG'
p2804
I8996
sS'GTCGCA'
p2805
I8838
sS'GTCGCC'
p2806
I20060
sS'TCGGTC'
p2807
I10563
sS'TCGGTA'
p2808
I6576
sS'CTCGCG'
p2809
I16093
sS'TCGGTG'
p2810
I15277
sS'GTCGCT'
p2811
I12655
sS'CCGTCG'
p2812
I8222
sS'CCGTCA'
p2813
I13493
sS'CCGTCC'
p2814
I24111
sS'GGCTGT'
p2815
I84283
sS'CGCGTG'
p2816
I13101
sS'GCATTT'
p2817
I98446
sS'CGCGTC'
p2818
I13371
sS'CGCGTA'
p2819
I3186
sS'CCACTG'
p2820
I107737
sS'CCACTA'
p2821
I43934
sS'AAAGTA'
p2822
I88126
sS'CGCGTT'
p2823
I6815
sS'GGCTGG'
p2824
I167768
sS'GGCTGA'
p2825
I103912
sS'GGCTGC'
p2826
I111003
sS'ATGCAT'
p2827
I64314
sS'TTTAGA'
p2828
I82889
sS'ATGACG'
p2829
I12404
sS'GGAGTT'
p2830
I76622
sS'ATGACA'
p2831
I77497
sS'ATGACC'
p2832
I45874
sS'CCTGAT'
p2833
I57886
sS'GGGCCT'
p2834
I88489
sS'ATGACT'
p2835
I88180
sS'GGAGTA'
p2836
I38343
sS'GGAGTC'
p2837
I60682
sS'GGAGTG'
p2838
I87353
sS'GGGCCG'
p2839
I53569
sS'GGGCCC'
p2840
I87342
sS'GGGCCA'
p2841
I82073
sS'GGCAAG'
p2842
I71175
sS'ACGAGT'
p2843
I9742
sS'TTCNNN'
p2844
I4
sS'AGGCCA'
p2845
I104251
sS'GCGCAC'
p2846
I19322
sS'AAAGTC'
p2847
I70455
sS'AGGCCG'
p2848
I41678
sS'ACGAGG'
p2849
I20182
sS'ACGAGC'
p2850
I10953
sS'ACGAGA'
p2851
I13232
sS'CTGATG'
p2852
I70672
sS'AGGCCT'
p2853
I93204
sS'GCTCTA'
p2854
I40200
sS'AGACGG'
p2855
I25953
sS'GGGTTG'
p2856
I52405
sS'GACTAC'
p2857
I29368
sS'GGGTTA'
p2858
I35387
sS'CTCGGG'
p2859
I38968
sS'GGGTTC'
p2860
I50296
sS'TTTGAT'
p2861
I77560
sS'TGCAAT'
p2862
I66484
sS'ATTCGA'
p2863
I8954
sS'ATTGCT'
p2864
I72776
sS'GGGTTT'
p2865
I74569
sS'TACAAG'
p2866
I48347
sS'AGATCC'
p2867
I45387
sS'TGCGAG'
p2868
I15217
sS'AACGGC'
p2869
I11910
sS'TTTGAG'
p2870
I109975
sS'AACGGA'
p2871
I13262
sS'GACTAG'
p2872
I30595
sS'AACGGG'
p2873
I15006
sS'TTTGAC'
p2874
I55097
sS'TTTGAA'
p2875
I121866
sS'CGGGCT'
p2876
I34448
sS'TGACGT'
p2877
I16784
sS'CTCGTC'
p2878
I14545
sS'CCCTGG'
p2879
I135295
sS'CCCTGA'
p2880
I92613
sS'AAGCTT'
p2881
I69962
sS'CCCTGC'
p2882
I125847
sS'GTGGGC'
p2883
I67168
sS'GATATC'
p2884
I27233
sS'TTGACG'
p2885
I8620
sS'GATATA'
p2886
I37793
sS'AAGCTA'
p2887
I51451
sS'GATATG'
p2888
I38635
sS'TGACGA'
p2889
I10050
sS'TGACGC'
p2890
I13427
sS'CTCGGA'
p2891
I20017
sS'TACTCT'
p2892
I52640
sS'CATCGT'
p2893
I11664
sS'CAGGGT'
p2894
I88730
sS'CCAGTC'
p2895
I66404
sS'GACACA'
p2896
I77885
sS'CCAGTG'
p2897
I88514
sS'TACTCG'
p2898
I9824
sS'CATCGA'
p2899
I8222
sS'CATCGC'
p2900
I12576
sS'TACTCC'
p2901
I38356
sS'NGAATT'
p2902
I4
sS'TACTCA'
p2903
I61173
sS'CATCGG'
p2904
I10002
sS'CAGGGG'
p2905
I99247
sS'CAGGGA'
p2906
I130934
sS'AAAGTT'
p2907
I96320
sS'AATCTG'
p2908
I76469
sS'TACAAT'
p2909
I54387
sS'GCCATT'
p2910
I60117
sS'AGTCGA'
p2911
I7728
sS'AATCTA'
p2912
I53300
sS'TGAACG'
p2913
I12178
sS'TCACAC'
p2914
I72639
sS'TCACAA'
p2915
I76216
sS'TCACAG'
p2916
I103842
sS'GCCATA'
p2917
I34442
sS'CGGACG'
p2918
I10786
sS'GCCATC'
p2919
I51633
sS'CGGACA'
p2920
I13891
sS'CGGACC'
p2921
I15479
sS'GCCATG'
p2922
I66263
sS'TTTTAA'
p2923
I206149
sS'CGCNNN'
p2924
I1
sS'TCACAT'
p2925
I83028
sS'CACGGA'
p2926
I19843
sS'ATTAAA'
p2927
I119913
sS'ATTAAG'
p2928
I61101
sS'CTTACA'
p2929
I56539
sS'TCACTT'
p2930
I101553
sS'TCCACG'
p2931
I21474
sS'CAGNNN'
p2932
I1
sS'GTGCAG'
p2933
I83028
sS'CGGCCA'
p2934
I30594
sS'ATTAAT'
p2935
I79965
sS'AAGCAC'
p2936
I64696
sS'TACCTG'
p2937
I52111
sS'GGTATG'
p2938
I33954
sS'GGTATA'
p2939
I26628
sS'GGTATC'
p2940
I23497
sS'AGTACA'
p2941
I48846
sS'GAACCG'
p2942
I13402
sS'GGCCTA'
p2943
I34545
sS'ACGAAT'
p2944
I10067
sS'GGTATT'
p2945
I43999
sS'CTGAAC'
p2946
I58844
sS'GGAACC'
p2947
I49963
sS'CTGAAG'
p2948
I99825
sS'ATTGTA'
p2949
I54338
sS'NNNNGA'
p2950
I6
sS'CATTGC'
p2951
I56524
sS'CCCGGC'
p2952
I72394
sS'CATTGA'
p2953
I50743
sS'CTAGTT'
p2954
I42141
sS'CATTGG'
p2955
I47238
sS'TCAACT'
p2956
I54817
sS'ACCATC'
p2957
I46990
sS'ACACCG'
p2958
I14864
sS'CTGCCA'
p2959
I112768
sS'CTGCCC'
p2960
I136711
sS'ACACCC'
p2961
I67209
sS'ACACCA'
p2962
I66339
sS'CTGCCG'
p2963
I35059
sS'CTAGTG'
p2964
I41813
sS'TCAACC'
p2965
I40027
sS'TCAACA'
p2966
I68551
sS'CTAGTC'
p2967
I30601
sS'TCAACG'
p2968
I9092
sS'CTAGTA'
p2969
I28937
sS'CATTGT'
p2970
I68979
sS'TATGAC'
p2971
I44372
sS'GTAATG'
p2972
I42740
sS'ACACCT'
p2973
I65248
sS'CTGCCT'
p2974
I156722
sS'CCTCGT'
p2975
I20194
sS'TATGAA'
p2976
I72418
sS'GAGGAC'
p2977
I61564
sS'AGACTG'
p2978
I79270
sS'CGAGGT'
p2979
I21363
sS'AGACTA'
p2980
I42305
sS'CCTCGG'
p2981
I44440
sS'CCTCGC'
p2982
I33843
sS'CCTCGA'
p2983
I16299
sS'CGAGGA'
p2984
I24663
sS'AGACTT'
p2985
I70009
sS'CGAGGG'
p2986
I31368
sS'CACCGT'
p2987
I19647
sS'ACTTTA'
p2988
I73794
sS'GTGGCC'
p2989
I76441
sS'GACCTG'
p2990
I63251
sS'GACCTA'
p2991
I30207
sS'GACCTC'
p2992
I64401
sS'CACCGG'
p2993
I21089
sS'ACGCTG'
p2994
I21937
sS'CACCGA'
p2995
I15287
sS'NNNNAC'
p2996
I1
sS'CACCGC'
p2997
I33174
sS'GGACGA'
p2998
I13083
sS'CGCCCC'
p2999
I75980
sS'GGACGG'
p3000
I24113
sS'CTATTA'
p3001
I49006
sS'CACAGC'
p3002
I106812
sS'CTTATC'
p3003
I48559
sS'CACAGA'
p3004
I117234
sS'CTTATA'
p3005
I44036
sS'CACAGG'
p3006
I106297
sS'TTAACT'
p3007
I66300
sS'ACTCAT'
p3008
I76187
sS'GAGGAG'
p3009
I136407
sS'GACGTA'
p3010
I7019
sS'CGTATC'
p3011
I6603
sS'GCATAC'
p3012
I24788
sS'TAAACT'
p3013
I72968
sS'GAGGAA'
p3014
I128206
sS'AGCGAT'
p3015
I14497
sS'TTAACA'
p3016
I72344
sS'ACTCAC'
p3017
I72144
sS'TTAACC'
p3018
I42691
sS'ACTCAA'
p3019
I65001
sS'ACTCAG'
p3020
I96286
sS'TTAACG'
p3021
I9271
sS'CACAGT'
p3022
I89494
sS'AGCGAC'
p3023
I12656
sS'TAAACA'
p3024
I105964
sS'AGCGAA'
p3025
I13493
sS'TAAACC'
p3026
I45688
sS'GACGTT'
p3027
I11693
sS'TCTAAA'
p3028
I82950
sS'TAAACG'
p3029
I12492
sS'AGTTCC'
p3030
I62844
sS'GTATGT'
p3031
I49839
sS'AGTTCA'
p3032
I73639
sS'TACTTA'
p3033
I54921
sS'CTGTGC'
p3034
I90326
sS'CTGTGA'
p3035
I103819
sS'GAGCGT'
p3036
I13758
sS'TAGGAC'
p3037
I33014
sS'GCAAAG'
p3038
I83123
sS'TAGGAA'
p3039
I79361
sS'GCAAAA'
p3040
I91274
sS'TAGGAG'
p3041
I60568
sS'GCAAAC'
p3042
I54080
sS'CGGGGC'
p3043
I71146
sS'CGGGGA'
p3044
I45511
sS'CTGTGT'
p3045
I113168
sS'CGGGGG'
p3046
I49448
sS'GTATGC'
p3047
I24777
sS'AGTTCT'
p3048
I80215
sS'GCAAAT'
p3049
I71242
sS'TAGGAT'
p3050
I44810
sS'TAATTA'
p3051
I78036
sS'TTCAAT'
p3052
I65905
sS'TGCTTT'
p3053
I124730
sS'ACAGGA'
p3054
I98295
sS'TGGGNC'
p3055
I1
sS'GTAATT'
p3056
I61710
sS'GTTACC'
p3057
I29828
sS'GTTACA'
p3058
I47674
sS'TAATTC'
p3059
I62763
sS'TATCGA'
p3060
I5073
sS'TATCGC'
p3061
I5236
sS'TATAGT'
p3062
I40275
sS'GTCTAA'
p3063
I33939
sS'CAGGAC'
p3064
I76156
sS'GTCTAC'
p3065
I25038
sS'TGCTTC'
p3066
I87246
sS'TTCAAA'
p3067
I121916
sS'TTCAAC'
p3068
I54184
sS'TGCTTG'
p3069
I75551
sS'TATAGC'
p3070
I30869
sS'TATCGT'
p3071
I6369
sS'TATAGA'
p3072
I45694
sS'AGTGGG'
p3073
I82662
sS'TATAGG'
p3074
I33293
sS'GTTACT'
p3075
I45608
sS'GGAAAA'
p3076
I147149
sS'AACCTT'
p3077
I61816
sS'GATGGC'
p3078
I51611
sS'GCTCTG'
p3079
I115821
sS'CCACGT'
p3080
I26287
sS'CAATAT'
p3081
I55020
sS'AGGACC'
p3082
I52885
sS'GAATGG'
p3083
I65779
sS'GNTGCN'
p3084
I1
sS'GGCTTT'
p3085
I83479
sS'ACTACT'
p3086
I41357
sS'GAATGC'
p3087
I58284
sS'CCACGA'
p3088
I16925
sS'CAATAC'
p3089
I33361
sS'CCACGC'
p3090
I35956
sS'CAATAA'
p3091
I73711
sS'GTTCCG'
p3092
I12753
sS'AACCTC'
p3093
I67936
sS'CCACGG'
p3094
I28646
sS'GCTCTT'
p3095
I73512
sS'GGCTTA'
p3096
I43818
sS'ACTACC'
p3097
I28634
sS'GGCTTC'
p3098
I78886
sS'ACTACA'
p3099
I53655
sS'ACTACG'
p3100
I7885
sS'GGCTTG'
p3101
I64891
sS'TCCTAG'
p3102
I58866
sS'TAACAA'
p3103
I71026
sS'CGTTGC'
p3104
I12005
sS'TAACAC'
p3105
I44475
sS'TCCTAC'
p3106
I44404
sS'AGTCAC'
p3107
I82130
sS'TCCTAA'
p3108
I64015
sS'TAACAG'
p3109
I59316
sS'TCATCG'
p3110
I11306
sS'AAGCGT'
p3111
I12525
sS'TCATCC'
p3112
I63659
sS'AAAAAC'
p3113
I135527
sS'TCATCA'
p3114
I78034
sS'AGTCAT'
p3115
I88168
sS'TCCTAT'
p3116
I50450
sS'TAACAT'
p3117
I66307
sS'CGTTGT'
p3118
I10883
sS'GAGCGA'
p3119
I20866
sS'CTTTCA'
p3120
I101470
sS'CTTTCG'
p3121
I14224
sS'GCGGGT'
p3122
I25373
sS'AGCCGT'
p3123
I15488
sS'GAGCGC'
p3124
I28788
sS'GTTGAT'
p3125
I37975
sS'CGACCA'
p3126
I10045
sS'CGACCC'
p3127
I18173
sS'CGACCG'
p3128
I7020
sS'CCTTAT'
p3129
I51509
sS'GTTGAC'
p3130
I30894
sS'GTTGAA'
p3131
I54191
sS'ACTGGG'
p3132
I86065
sS'GTTGAG'
p3133
I49467
sS'CCTTAC'
p3134
I38312
sS'CCTTAA'
p3135
I57037
sS'CCTTAG'
p3136
I49974
sS'CGACCT'
p3137
I14295
sS'AATAGA'
p3138
I70335
sS'CAACTA'
p3139
I38404
sS'CAACTG'
p3140
I59351
sS'AATAGG'
p3141
I49488
sS'GATGGT'
p3142
I46995
sS'GGGGTT'
p3143
I59261
sS'GTCCCT'
p3144
I69133
sS'ATTCNN'
p3145
I4
sS'GGATGT'
p3146
I50776
sS'AATAGT'
p3147
I54828
sS'CCAAGA'
p3148
I88265
sS'CAACTT'
p3149
I62357
sS'GGGGTG'
p3150
I95971
sS'GGATGA'
p3151
I63652
sS'GGATGG'
p3152
I70313
sS'GGGGTA'
p3153
I31694
sS'TCTCCG'
p3154
I24724
sS'GAGTCC'
p3155
I52617
sS'AAACTG'
p3156
I105680
sS'TCTCCC'
p3157
I117804
sS'AAACTA'
p3158
I73758
sS'TCTCCA'
p3159
I112800
sS'AAACTC'
p3160
I79928
sS'CTATGA'
p3161
I50884
sS'AGTACG'
p3162
I6485
sS'ACGCGC'
p3163
I12718
sS'AGTACC'
p3164
I28370
sS'CTATGG'
p3165
I37322
sS'TGCCGC'
p3166
I24822
sS'CCCTTA'
p3167
I44986
sS'CCCTTC'
p3168
I100077
sS'TCTCCT'
p3169
I131865
sS'CCCTTG'
p3170
I70666
sS'AGTACT'
p3171
I42285
sS'CTATGT'
p3172
I51342
sS'GCCGAA'
p3173
I12711
sS'GTGGAG'
p3174
I90426
sS'GCCGAC'
p3175
I14321
sS'GTGGAC'
p3176
I39452
sS'GCCGAG'
p3177
I42910
sS'GTGGAA'
p3178
I77235
sS'GTGGAT'
p3179
I50455
sS'GCCGAT'
p3180
I8096
sS'CCTATT'
p3181
I49523
sS'ACCCGG'
p3182
I30946
sS'GTAGTC'
p3183
I29356
sS'AAATCG'
p3184
I12627
sS'GTAGTA'
p3185
I28446
sS'GTAGTG'
p3186
I33538
sS'AAATCC'
p3187
I74570
sS'ACCGAA'
p3188
I10788
sS'AAATCA'
p3189
I108997
sS'NCCATC'
p3190
I1
sS'ATGTCT'
p3191
I71301
sS'TCCCGA'
p3192
I22066
sS'CACGCT'
p3193
I19900
sS'AAATCT'
p3194
I99213
sS'ACCGAT'
p3195
I6458
sS'CTTGAA'
p3196
I88559
sS'GTAGTT'
p3197
I40233
sS'ACCAGT'
p3198
I48941
sS'TGCCGT'
p3199
I14666
sS'GATGAT'
p3200
I53652
sS'GGAGCA'
p3201
I79253
sS'GGAGCC'
p3202
I96034
sS'AAAGTG'
p3203
I107970
sS'CCAAAT'
p3204
I83747
sS'GGAGCG'
p3205
I36075
sS'AAAACT'
p3206
I114493
sS'GATGAC'
p3207
I51743
sS'TGTCCC'
p3208
I74401
sS'GATGAA'
p3209
I72509
sS'GATGAG'
p3210
I69322
sS'AAAACC'
p3211
I88343
sS'AGAACA'
p3212
I94595
sS'CCAAAC'
p3213
I65645
sS'AAAACG'
p3214
I23957
sS'GGAGCT'
p3215
I89455
sS'CCAAAG'
p3216
I105235
sS'TCGCGG'
p3217
I13745
sS'CTAGAG'
p3218
I57610
sS'TCGCGC'
p3219
I13449
sS'GGGAGT'
p3220
I68315
sS'TACCCT'
p3221
I41976
sS'AGATCA'
p3222
I66088
sS'GCCACC'
p3223
I94834
sS'AGAAAT'
p3224
I143437
sS'CGACGG'
p3225
I8223
sS'GCCACG'
p3226
I28997
sS'AGATCG'
p3227
I13576
sS'ACCAGC'
p3228
I77469
sS'TCGCGT'
p3229
I5192
sS'GTGCAA'
p3230
I49030
sS'ACCCGT'
p3231
I11315
sS'AGAAAG'
p3232
I154847
sS'CGACGA'
p3233
I4310
sS'TCCCTT'
p3234
I104019
sS'AGAAAC'
p3235
I106321
sS'TACCCA'
p3236
I48257
sS'AGAAAA'
p3237
I224035
sS'TACCCC'
p3238
I31720
sS'ATGTAC'
p3239
I38231
sS'ACTTCG'
p3240
I12018
sS'ATGTAA'
p3241
I78007
sS'ATGTAG'
p3242
I46113
sS'ACCAGG'
p3243
I80602
sS'ACGTCA'
p3244
I16772
sS'CCGGCA'
p3245
I25121
sS'GACGAC'
p3246
I9003
sS'ATGTCG'
p3247
I8027
sS'ATGTAT'
p3248
I68556
sS'CCGGCG'
p3249
I33393
sS'GGCGTC'
p3250
I20529
sS'GTTCCC'
p3251
I58417
sS'AGCACT'
p3252
I86681
sS'TTAGAA'
p3253
I88780
sS'CGGCTG'
p3254
I38699
sS'TTAGAC'
p3255
I33938
sS'CGGCTC'
p3256
I39497
sS'TTAGAG'
p3257
I61499
sS'CGGCTA'
p3258
I11643
sS'AGCACC'
p3259
I62790
sS'AGCACA'
p3260
I84740
sS'AGCACG'
p3261
I18512
sS'GGTCGG'
p3262
I18363
sS'CGGCTT'
p3263
I20561
sS'TTAGAT'
p3264
I52206
sS'CCAGCA'
p3265
I126175
sS'CGAAGC'
p3266
I15279
sS'CCAGCC'
p3267
I167823
sS'AAAGAG'
p3268
I121090
sS'ATATCA'
p3269
I54390
sS'GCGCTG'
p3270
I36493
sS'TTATTT'
p3271
I204612
sS'TGTGAG'
p3272
I92607
sS'TGTGAA'
p3273
I94057
sS'GGGAGG'
p3274
I206839
sS'TGTGAC'
p3275
I72178
sS'ATATCT'
p3276
I60761
sS'CCAGCT'
p3277
I129521
sS'CACGGT'
p3278
I19258
sS'AAAGAT'
p3279
I97737
sS'TGTGAT'
p3280
I76986
sS'TTATTG'
p3281
I73657
sS'TTATTA'
p3282
I97399
sS'GAAAGC'
p3283
I77176
sS'TTATTC'
p3284
I75571
sS'ACATCT'
p3285
I69772
sS'TTTTAT'
p3286
I169421
sS'GCGAAC'
p3287
I7908
sS'CTTACT'
p3288
I57732
sS'TCCACT'
p3289
I72812
sS'TACAAA'
p3290
I99596
sS'AGACGA'
p3291
I13326
sS'TACAAC'
p3292
I36341
sS'CCTCTG'
p3293
I137866
sS'AGGTGG'
p3294
I108455
sS'CCTCTC'
p3295
I120985
sS'AGGTGC'
p3296
I59864
sS'CCTCTA'
p3297
I56912
sS'AGGTGA'
p3298
I86680
sS'CTTACG'
p3299
I9507
sS'TCCACA'
p3300
I81360
sS'TTTTAG'
p3301
I100508
sS'TCCACC'
p3302
I81986
sS'CTTACC'
p3303
I40108
sS'ACATCA'
p3304
I66972
sS'TTTTAC'
p3305
I85802
sS'ACATCC'
p3306
I50764
sS'AGGTGT'
p3307
I65244
sS'CCTCTT'
p3308
I103672
sS'GCGTGA'
p3309
I23485
sS'TATGAG'
p3310
I52394
sS'CCCGGA'
p3311
I33858
sS'NNCTGA'
p3312
I1
sS'CCCGGG'
p3313
I74605
sS'TTGTGT'
p3314
I84265
sS'TGGAAT'
p3315
I97984
sS'TAGGTG'
p3316
I47114
sS'TTGTGC'
p3317
I54016
sS'TATGAT'
p3318
I53007
sS'TTGTGG'
p3319
I70630
sS'TTTTGA'
p3320
I122436
sS'GGCGTG'
p3321
I44109
sS'TGGAAG'
p3322
I105532
sS'TGGAAC'
p3323
I56530
sS'TGGAAA'
p3324
I133890
sS'TGAGGA'
p3325
I100540
sS'AAGAGG'
p3326
I103665
sS'TGAGGC'
p3327
I99359
sS'AAGAGA'
p3328
I124506
sS'AAGAGC'
p3329
I73504
sS'TGAGGG'
p3330
I86598
sS'GCTTAG'
p3331
I41693
sS'GCTTAC'
p3332
I31138
sS'GCTTAA'
p3333
I46848
sS'TGATTC'
p3334
I71826
sS'AAGCGC'
p3335
I16560
sS'AAGAGT'
p3336
I70516
sS'AAGCGA'
p3337
I17791
sS'TGAGGT'
p3338
I83881
sS'GCTTAT'
p3339
I43997
sS'GTTCGG'
p3340
I9902
sS'CTGCTA'
p3341
I54843
sS'GCGTGT'
p3342
I19396
sS'CTGCTC'
p3343
I101938
sS'ACTTCT'
p3344
I85995
sS'GACCGT'
p3345
I9784
sS'CTGCTG'
p3346
I143549
sS'CGGTCA'
p3347
I12172
sS'GGTCGT'
p3348
I8779
sS'CGGTCC'
p3349
I18072
sS'CTAGAA'
p3350
I68837
sS'GAAAGT'
p3351
I79583
sS'GACCGA'
p3352
I10566
sS'GACCGC'
p3353
I15036
sS'ACTTCC'
p3354
I84325
sS'CTGCTT'
p3355
I108857
sS'ACTTCA'
p3356
I76807
sS'CTAGAT'
p3357
I41596
sS'AAGTGT'
p3358
I70201
sS'CGGTCT'
p3359
I14208
sS'GGTCGC'
p3360
I14712
sS'GGTCGA'
p3361
I7706
sS'CGTCGC'
p3362
I9743
sS'GCGTGG'
p3363
I35930
sS'CGTCGG'
p3364
I8661
sS'TGGTTG'
p3365
I56269
sS'GCGTGC'
p3366
I20231
sS'TGCTCA'
p3367
I82531
sS'TTCATC'
p3368
I72497
sS'TGCTCC'
p3369
I79258
sS'TTCATA'
p3370
I72364
sS'TTCATG'
p3371
I78274
sS'TGCTCG'
p3372
I14997
sS'CAGAAT'
p3373
I94372
sS'CAGCAG'
p3374
I143589
sS'TACACT'
p3375
I44322
sS'GCGGCT'
p3376
I33932
sS'CAGCAC'
p3377
I98155
sS'CAGCAA'
p3378
I94534
sS'GTACAC'
p3379
I27329
sS'TGATTT'
p3380
I109050
sS'TTCATT'
p3381
I130212
sS'GCTTTA'
p3382
I57756
sS'TGGCCG'
p3383
I30596
sS'GCTGCA'
p3384
I91998
sS'AACTCT'
p3385
I75617
sS'TGGCCC'
p3386
I82102
sS'TGGCCA'
p3387
I109683
sS'GTAGCA'
p3388
I38240
sS'TCATCT'
p3389
I94161
sS'TGCTCT'
p3390
I96482
sS'AGCAAA'
p3391
I110242
sS'TGGCCT'
p3392
I104329
sS'AACTCC'
p3393
I76648
sS'GCTGCT'
p3394
I108099
sS'AACTCG'
p3395
I12277
sS'CAGTCG'
p3396
I12915
sS'CTACAA'
p3397
I53057
sS'AATATT'
p3398
I126037
sS'GTTCGA'
p3399
I10520
sS'CAACCT'
p3400
I63959
sS'CAGTTA'
p3401
I57286
sS'GCTGCC'
p3402
I105366
sS'GGCACG'
p3403
I24300
sS'GGCACA'
p3404
I78344
sS'GACAAT'
p3405
I43899
sS'GGCACC'
p3406
I60598
sS'CAACCG'
p3407
I10725
sS'CAGAAA'
p3408
I154329
sS'AATATG'
p3409
I74004
sS'CGGTCG'
p3410
I7020
sS'AATATA'
p3411
I87665
sS'AGCAAG'
p3412
I88756
sS'AATATC'
p3413
I56314
sS'CTTCGT'
p3414
I14141
sS'GACAAA'
p3415
I76311
sS'GGCACT'
p3416
I62781
sS'GACAAC'
p3417
I35795
sS'CAGAAC'
p3418
I73422
sS'GACAAG'
p3419
I57180
sS'GCTGCG'
p3420
I37507
sS'GCGGCG'
p3421
I58758
sS'GCAATA'
p3422
I44316
sS'GAATTT'
p3423
I100867
sS'CAAGTG'
p3424
I73605
sS'CGATGG'
p3425
I12176
sS'GACACT'
p3426
I54187
sS'TCCCAT'
p3427
I73692
sS'CGATGC'
p3428
I9684
sS'GTAAAT'
p3429
I70204
sS'CGATGA'
p3430
I11306
sS'GAATTA'
p3431
I62722
sS'GAATTC'
p3432
I67203
sS'GAATTG'
p3433
I55602
sS'TCCCAA'
p3434
I98835
sS'CGATGT'
p3435
I9290
sS'GTAAAA'
p3436
I85827
sS'GTAAAG'
p3437
I53112
sS'TCCCAG'
p3438
I164650
sS'GGATTT'
p3439
I74561
sS'GTGCGT'
p3440
I14901
sS'CAAGTA'
p3441
I53028
sS'ATGGTA'
p3442
I44984
sS'GGATTC'
p3443
I47009
sS'GGATTA'
p3444
I64457
sS'AGGTCC'
p3445
I49195
sS'AGCGGC'
p3446
I31965
sS'ACGCCA'
p3447
I17576
sS'AAAGCC'
p3448
I83489
sS'TCTGTG'
p3449
I117236
sS'CTATCC'
p3450
I31016
sS'GTCCCG'
p3451
I26112
sS'TCTGTA'
p3452
I74929
sS'AACCGG'
p3453
I12614
sS'CTCCTT'
p3454
I113802
sS'GGCGGA'
p3455
I39661
sS'GGCGGG'
p3456
I97846
sS'AACCGA'
p3457
I11053
sS'TCTGTT'
p3458
I105519
sS'AAAGCG'
p3459
I18149
sS'CTCCTG'
p3460
I160354
sS'AACCGT'
p3461
I10115
sS'CTCCTA'
p3462
I60534
sS'CTCCTC'
p3463
I136395
sS'GGCGGT'
p3464
I23472
sS'AACAAG'
p3465
I78408
sS'GACGCC'
p3466
I20524
sS'CCCACA'
p3467
I93783
sS'CCCACC'
p3468
I125040
sS'TACTTC'
p3469
I52974
sS'AGCCTT'
p3470
I82610
sS'CCGATT'
p3471
I9335
sS'CCCACT'
p3472
I82674
sS'ACTTTT'
p3473
I113524
sS'AACAAT'
p3474
I80781
sS'GACGCT'
p3475
I15377
sS'ACCTCC'
p3476
I86855
sS'CCGATA'
p3477
I5029
sS'AGCCTG'
p3478
I138635
sS'AGCCTA'
p3479
I46202
sS'AGCCTC'
p3480
I115236
sS'GTACCC'
p3481
I22868
sS'GAGTTT'
p3482
I79867
sS'TGGTTA'
p3483
I50066
sS'CGCCTT'
p3484
I24025
sS'TGGTTC'
p3485
I55486
sS'TCNNNN'
p3486
I6
sS'CAGAGT'
p3487
I93676
sS'GCATCT'
p3488
I57754
sS'ACCTCG'
p3489
I21368
sS'AGGCAC'
p3490
I74531
sS'CGCCTC'
p3491
I51227
sS'AGGCAA'
p3492
I86149
sS'CGCCTA'
p3493
I11325
sS'AGGCAG'
p3494
I156751
sS'CGCCTG'
p3495
I49212
sS'GTACCT'
p3496
I32240
sS'CAGAGG'
p3497
I137873
sS'GCATCC'
p3498
I44650
sS'GCATCA'
p3499
I48156
sS'CAGAGC'
p3500
I115856
sS'GCATCG'
p3501
I9686
sS'CAGAGA'
p3502
I138661
sS'TAGCTA'
p3503
I39218
sS'AGACTC'
p3504
I65288
sS'CCTAGA'
p3505
I54717
sS'CCTAGC'
p3506
I43194
sS'TTTGCT'
p3507
I110205
sS'CGGGAG'
p3508
I55024
sS'TGCGGT'
p3509
I15959
sS'CCTAGG'
p3510
I57568
sS'TAAGCA'
p3511
I64594
sS'TGCGGC'
p3512
I24911
sS'TTTGCC'
p3513
I78341
sS'CCTAGT'
p3514
I39194
sS'TGCGGG'
p3515
I30129
sS'TTTGCG'
p3516
I12348
sS'TGAGTT'
p3517
I74601
sS'CGGGAC'
p3518
I26120
sS'ATCGCT'
p3519
I14500
sS'TCTCGT'
p3520
I13229
sS'ATCGCC'
p3521
I11164
sS'TGAGTG'
p3522
I76413
sS'ATCGCA'
p3523
I9399
sS'TGAGTA'
p3524
I61191
sS'ATCGCG'
p3525
I6369
sS'TGAGTC'
p3526
I97520
sS'AAGGTG'
p3527
I73818
sS'CGTCAA'
p3528
I8628
sS'CATCAT'
p3529
I67617
sS'AAGGTA'
p3530
I52441
sS'TACGCT'
p3531
I6809
sS'AAGCGG'
p3532
I19754
sS'ACGGCA'
p3533
I14654
sS'CATCAC'
p3534
I61311
sS'AAGGTT'
p3535
I61813
sS'CATCAA'
p3536
I55387
sS'CATCAG'
p3537
I70701
sS'ACGGCG'
p3538
I11853
sS'TCACCT'
p3539
I86698
sS'TCTAAG'
p3540
I55970
sS'CGGAAT'
p3541
I11267
sS'GTGGCT'
p3542
I99599
sS'ATCGAT'
p3543
I6639
sS'TCACCG'
p3544
I19807
sS'TCACCA'
p3545
I85618
sS'TCACCC'
p3546
I76252
sS'CGGAAG'
p3547
I25938
sS'CAACCC'
p3548
I52398
sS'AACTGG'
p3549
I71018
sS'AAAATA'
p3550
I215443
sS'CGGAAC'
p3551
I12756
sS'AGCTCG'
p3552
I17267
sS'CGGAAA'
p3553
I18965
sS'GCCTCA'
p3554
I99293
sS'ATCCAG'
p3555
I69265
sS'ATGGCG'
p3556
I18120
sS'TGTGTA'
p3557
I72546
sS'ATGGCC'
p3558
I51781
sS'ATGGCA'
p3559
I73095
sS'TTGTNN'
p3560
I1
sS'ATCCCT'
p3561
I63971
sS'ATGGCT'
p3562
I69285
sS'TGTGTT'
p3563
I102294
sS'CCAAGT'
p3564
I71948
sS'GAACAT'
p3565
I56891
sS'AGAATT'
p3566
I102661
sS'GAAACG'
p3567
I20130
sS'GAAACA'
p3568
I105395
sS'AGATTG'
p3569
I55126
sS'AAGATA'
p3570
I74345
sS'CTGAGT'
p3571
I96290
sS'AGGTAC'
p3572
I32244
sS'GAAACT'
p3573
I88098
sS'AGAATG'
p3574
I103313
sS'AGATTT'
p3575
I99203
sS'ACATAC'
p3576
I49821
sS'CTGAGC'
p3577
I98051
sS'CTGAGA'
p3578
I113598
sS'CTGAGG'
p3579
I135840
sS'CATACC'
p3580
I33955
sS'CATACA'
p3581
I56943
sS'CATACG'
p3582
I7519
sS'GCAATC'
p3583
I39351
sS'TCAAAT'
p3584
I92394
sS'GTCCAT'
p3585
I38176
sS'ACATAG'
p3586
I51332
sS'GCANCT'
p3587
I1
sS'CATACT'
p3588
I42551
sS'GTCCAG'
p3589
I66454
sS'TCAAAG'
p3590
I87095
sS'TCAAAA'
p3591
I122572
sS'TCAAAC'
p3592
I62885
sS'CGGCGG'
p3593
I52970
sS'TTGATG'
p3594
I55391
sS'ATCGAG'
p3595
I9364
sS'CGGCGC'
p3596
I38255
sS'TTGATC'
p3597
I37194
sS'CGGCGA'
p3598
I13824
sS'TTGATA'
p3599
I49926
sS'TTGATT'
p3600
I74633
sS'CGGCGT'
p3601
I12070
sS'GTACGC'
p3602
I4726
sS'AAGCTG'
p3603
I94999
sS'ATCGAC'
p3604
I4827
sS'CCATTA'
p3605
I47152
sS'TCGTCT'
p3606
I13330
sS'CGGTTA'
p3607
I7136
sS'GGTTTA'
p3608
I45672
sS'CGGTTC'
p3609
I13405
sS'GCTGTT'
p3610
I73874
sS'TTTACA'
p3611
I99550
sS'CGGTTG'
p3612
I10725
sS'GGTTTG'
p3613
I60612
sS'CCATTG'
p3614
I52445
sS'CGAGTC'
p3615
I15325
sS'GCTGTG'
p3616
I106775
sS'GGTTTT'
p3617
I88351
sS'CGGTTT'
p3618
I15087
sS'GCTGTA'
p3619
I48165
sS'TATGCG'
p3620
I5722
sS'AGGTTG'
p3621
I63965
sS'AGGTTC'
p3622
I50058
sS'AGGTTA'
p3623
I49335
sS'CNNNNN'
p3624
I7
sS'ACTCCT'
p3625
I86290
sS'TTTTTC'
p3626
I178509
sS'GAGGGC'
p3627
I89900
sS'TTTTTA'
p3628
I203753
sS'TCCTCT'
p3629
I122863
sS'TTTTTG'
p3630
I162531
sS'GAGGGG'
p3631
I112492
sS'TTAAAT'
p3632
I124644
sS'AGGTTT'
p3633
I80157
sS'TAAGCG'
p3634
I8326
sS'TATGCC'
p3635
I36001
sS'TTAAAC'
p3636
I67629
sS'ATACGT'
p3637
I10423
sS'TTAAAA'
p3638
I206116
sS'ACTCCG'
p3639
I19690
sS'TTAAAG'
p3640
I92927
sS'ACTCCA'
p3641
I88926
sS'TTTTTT'
p3642
I559860
sS'ACTCCC'
p3643
I68319
sS'TAGGCT'
p3644
I46220
sS'GTCACG'
p3645
I16297
sS'CTGTAC'
p3646
I41985
sS'GCAACT'
p3647
I46234
sS'GTCACC'
p3648
I63853
sS'CTGTAG'
p3649
I61608
sS'GTCACA'
p3650
I72120
sS'GCAACG'
p3651
I11996
sS'GGTCTT'
p3652
I55052
sS'GTCACT'
p3653
I71284
sS'TAGGCG'
p3654
I11323
sS'GCAACC'
p3655
I44498
sS'CTGTAT'
p3656
I59695
sS'GCAACA'
p3657
I65349
sS'TAGGCC'
p3658
I34522
sS'ATTCAT'
p3659
I94896
sS'TCCCAC'
p3660
I88011
sS'GCGATT'
p3661
I11561
sS'TCGTGT'
p3662
I12870
sS'TTCACT'
p3663
I89208
sS'GTCTCT'
p3664
I86399
sS'AACATT'
p3665
I103368
sS'ATTCAG'
p3666
I83609
sS'ATTCAA'
p3667
I80037
sS'ATTCAC'
p3668
I61473
sS'GTCTCC'
p3669
I73678
sS'TCGTGG'
p3670
I16926
sS'GCGATG'
p3671
I12572
sS'TTCACC'
p3672
I66446
sS'GCGATA'
p3673
I5237
sS'TTCACA'
p3674
I94022
sS'GCGATC'
p3675
I12037
sS'GAAGGC'
p3676
I76784
sS'GAAGGA'
p3677
I113140
sS'GAAGGG'
p3678
I100063
sS'CGATTA'
p3679
I6625
sS'CAATCT'
p3680
I55143
sS'GGAACA'
p3681
I68927
sS'GGAACG'
p3682
I16525
sS'AGCCAC'
p3683
I99671
sS'CACGAA'
p3684
I13855
sS'TACTGC'
p3685
I44298
sS'CGATTT'
p3686
I12629
sS'AAAACA'
p3687
I194136
sS'GAAGGT'
p3688
I62324
sS'CTCGCT'
p3689
I26718
sS'TTGTAG'
p3690
I53046
sS'CAATCA'
p3691
I55623
sS'GGAACT'
p3692
I62839
sS'TCCTGA'
p3693
I109085
sS'AGTCCA'
p3694
I59832
sS'TCCTGC'
p3695
I114939
sS'AGTCCC'
p3696
I66769
sS'ACTAAA'
p3697
I75709
sS'TCCTGG'
p3698
I143905
sS'ACTAAC'
p3699
I32306
sS'TAACGC'
p3700
I6935
sS'TAACGA'
p3701
I7997
sS'CAGCTA'
p3702
I70488
sS'CAGCTC'
p3703
I110003
sS'ACTAAT'
p3704
I49922
sS'CGACTC'
p3705
I14192
sS'AGTCCT'
p3706
I69719
sS'TCCTGT'
p3707
I98310
sS'TAATGT'
p3708
I64028
sS'CAGCTT'
p3709
I94993
sS'TAACGT'
p3710
I10621
sS'TTGACC'
p3711
I40798
sS'GTACTT'
p3712
I42942
sS'CGACAT'
p3713
I8030
sS'TTGTTC'
p3714
I68194
sS'CGCAAG'
p3715
I12772
sS'TTGTTA'
p3716
I70955
sS'CAANNN'
p3717
I1
sS'TTGTTG'
p3718
I76702
sS'CAGGCC'
p3719
I113087
sS'CCGAGC'
p3720
I28789
sS'CCGCGT'
p3721
I13501
sS'CGACAC'
p3722
I10297
sS'CGACAA'
p3723
I8259
sS'CGACAG'
p3724
I17238
sS'GTACTA'
p3725
I23164
sS'CCGCGC'
p3726
I47426
sS'CCGAGT'
p3727
I20245
sS'CCGCGA'
p3728
I13750
sS'CCGCGG'
p3729
I42698
sS'TTGTTT'
p3730
I180420
sS'GCATAT'
p3731
I42282
sS'TCCGTT'
p3732
I13256
sS'AGCCAA'
p3733
I86211
sS'AATAAC'
p3734
I64673
sS'AATAAA'
p3735
I197817
sS'AATAAG'
p3736
I75362
sS'GGATTG'
p3737
I43158
sS'TACTAA'
p3738
I52428
sS'AATAAT'
p3739
I113779
sS'ACGGTG'
p3740
I19630
sS'CCAACC'
p3741
I55987
sS'CCAACA'
p3742
I71679
sS'CCAACG'
p3743
I13056
sS'GGGATT'
p3744
I74877
sS'CGCCGC'
p3745
I58771
sS'GTGTAT'
p3746
I47722
sS'CGCCGA'
p3747
I13110
sS'GAGTAG'
p3748
I48058
sS'CGCCGG'
p3749
I33392
sS'GAGTAA'
p3750
I54419
sS'AGTAAG'
p3751
I57739
sS'CTCAGG'
p3752
I122032
sS'CTAAAA'
p3753
I100546
sS'CTCAGC'
p3754
I125703
sS'CTCAGA'
p3755
I107798
sS'GAGTAT'
p3756
I34526
sS'GCTTCA'
p3757
I67791
sS'GTGTAG'
p3758
I35669
sS'TCGAGC'
p3759
I10053
sS'AGTAAT'
p3760
I63747
sS'GTGTAC'
p3761
I27334
sS'CGCCGT'
p3762
I11851
sS'GTGGCA'
p3763
I81378
sS'CATATT'
p3764
I74048
sS'ATCGTA'
p3765
I6646
sS'CTCGGC'
p3766
I42900
sS'GCCGCC'
p3767
I72185
sS'GCCGCA'
p3768
I24905
sS'GCCGCG'
p3769
I42443
sS'ACACTT'
p3770
I70184
sS'CTCGGT'
p3771
I17672
sS'AAGTCC'
p3772
I57006
sS'TCGCTC'
p3773
I20825
sS'CATATC'
p3774
I38625
sS'CATATA'
p3775
I54880
sS'TCAGCA'
p3776
I95217
sS'ACACTC'
p3777
I53831
sS'ACACTA'
p3778
I40909
sS'ACACTG'
p3779
I82935
sS'GCCGCT'
p3780
I31959
sS'ACCGGA'
p3781
I12605
sS'AAATAA'
p3782
I204681
sS'ACCGGC'
p3783
I16940
sS'AAATAC'
p3784
I99439
sS'CTTTAA'
p3785
I92957
sS'AATCCT'
p3786
I74214
sS'AAATAG'
p3787
I90702
sS'AACTTA'
p3788
I56366
sS'CAGGTA'
p3789
I52088
sS'AACTTC'
p3790
I69017
sS'CAGGTC'
p3791
I63245
sS'CACGAC'
p3792
I10900
sS'ACGTTT'
p3793
I20907
sS'CAGGTG'
p3794
I104074
sS'CTTTAT'
p3795
I87402
sS'AATCCC'
p3796
I74771
sS'GCTCGT'
p3797
I10959
sS'AATCCA'
p3798
I69736
sS'AAATAT'
p3799
I155292
sS'AATCCG'
p3800
I10335
sS'GCAAGT'
p3801
I51877
sS'CAGGTT'
p3802
I70916
sS'AACTTT'
p3803
I96323
sS'TCTGTC'
p3804
I97762
sS'GGGATA'
p3805
I35938
sS'GGGATC'
p3806
I40302
sS'GGGTGT'
p3807
I67206
sS'GGGATG'
p3808
I68570
sS'GATGCT'
p3809
I53718
sS'CGCAGT'
p3810
I18341
sS'GAGTCG'
p3811
I14194
sS'GAGCCT'
p3812
I79077
sS'GGAGAC'
p3813
I73703
sS'GGGTGA'
p3814
I76279
sS'GGAGAA'
p3815
I120451
sS'GGGTGC'
p3816
I57755
sS'GGAGAG'
p3817
I125574
sS'GGGTGG'
p3818
I120888
sS'GAGCCA'
p3819
I103740
sS'CGCAGG'
p3820
I35571
sS'GATGCG'
p3821
I10841
sS'CGCAGA'
p3822
I22053
sS'GATGCA'
p3823
I48804
sS'CGCAGC'
p3824
I37519
sS'GATGCC'
p3825
I46876
sS'CGGATT'
p3826
I10330
sS'GGTAGT'
p3827
I28643
sS'ACCCCT'
p3828
I62854
sS'GCCAAT'
p3829
I44927
sS'AACCGC'
p3830
I12563
sS'AGAAGT'
p3831
I86032
sS'ACCCCA'
p3832
I84376
sS'GGTAGA'
p3833
I43192
sS'ACCCCC'
p3834
I60507
sS'CGGATG'
p3835
I13418
sS'GCCAAG'
p3836
I88378
sS'CGGATA'
p3837
I6097
sS'ACCCCG'
p3838
I32152
sS'GGTAGG'
p3839
I45391
sS'AGAAGA'
p3840
I119987
sS'AGAAGC'
p3841
I90571
sS'GCAAGA'
p3842
I71127
sS'AGAAGG'
p3843
I114837
sS'CACTCC'
p3844
I87423
sS'CACTCA'
p3845
I76391
sS'CACTCG'
p3846
I15661
sS'TGCGTT'
p3847
I13086
sS'GCAAGG'
p3848
I67052
sS'AGCTTT'
p3849
I89935
sS'CCCCGG'
p3850
I58107
sS'TGCGTA'
p3851
I7979
sS'CCCCGC'
p3852
I84016
sS'CACTCT'
p3853
I79051
sS'AGCTTC'
p3854
I77953
sS'AGCTTA'
p3855
I46903
sS'AGCTTG'
p3856
I64308
sS'ATACGA'
p3857
I7199
sS'NNACAA'
p3858
I1
sS'AGACCA'
p3859
I73935
sS'CCACTT'
p3860
I76304
sS'TTAGCT'
p3861
I58186
sS'GTATAA'
p3862
I39664
sS'TTAGCC'
p3863
I46867
sS'TTAGCA'
p3864
I59002
sS'CTAGCA'
p3865
I43996
sS'TTAGCG'
p3866
I7890
sS'CGATCC'
p3867
I10698
sS'AAGGGG'
p3868
I80370
sS'ATAAGG'
p3869
I51499
sS'TGTGCT'
p3870
I84779
sS'AAGGGC'
p3871
I71806
sS'ATAAGC'
p3872
I43992
sS'AAGGGA'
p3873
I103996
sS'ATAAGA'
p3874
I67866
sS'CCAGAC'
p3875
I71804
sS'CCAGAA'
p3876
I109773
sS'CCAGAG'
p3877
I123925
sS'TGTGCG'
p3878
I18841
sS'ATAAGT'
p3879
I48804
sS'AAGGGT'
p3880
I55865
sS'TGTGCC'
p3881
I78369
sS'ATAGGA'
p3882
I50415
sS'TGTGCA'
p3883
I79097
sS'ATAGGC'
p3884
I33227
sS'GCTCGC'
p3885
I22126
sS'ATACGC'
p3886
I5864
sS'CCAGAT'
p3887
I70075
sS'AGACAA'
p3888
I81592
sS'GACGCA'
p3889
I14301
sS'AGACAC'
p3890
I72058
sS'AGACAG'
p3891
I114811
sS'TTTTCT'
p3892
I223928
sS'CGCTGT'
p3893
I21749
sS'CCCACG'
p3894
I32399
sS'CGTGGG'
p3895
I32406
sS'AGACAT'
p3896
I71304
sS'CGTGGA'
p3897
I21482
sS'TTTTCG'
p3898
I14009
sS'AACAAC'
p3899
I64868
sS'CGCTGC'
p3900
I38469
sS'TTTTCC'
p3901
I147078
sS'TTTTCA'
p3902
I147358
sS'CGCTGG'
p3903
I35500
sS'TATGGA'
p3904
I46149
sS'TATGGC'
p3905
I34428
sS'CGTAGG'
p3906
I9848
sS'CGTAGA'
p3907
I8530
sS'TATGGG'
p3908
I38348
sS'CGTAGC'
p3909
I8581
sS'CTTCAG'
p3910
I99794
sS'TGGACT'
p3911
I59859
sS'CGTAGT'
p3912
I7887
sS'GCTCGA'
p3913
I10054
sS'TATGGT'
p3914
I39640
sS'TGGACA'
p3915
I69089
sS'TGGACC'
p3916
I39712
sS'TGGACG'
p3917
I15377
sS'CGTTAC'
p3918
I6980
sS'GGCGGN'
p3919
I1
sS'CCGGTT'
p3920
I12618
sS'CTAGCT'
p3921
I45255
sS'GCTTGA'
p3922
I56110
sS'TGAGAC'
p3923
I80129
sS'GCTTGC'
p3924
I46935
sS'TGAGAA'
p3925
I118145
sS'TGAGAG'
p3926
I89369
sS'GCTTGG'
p3927
I68185
sS'CCTGTT'
p3928
I78423
sS'CCGGTG'
p3929
I21074
sS'CCTTGC'
p3930
I67048
sS'ACTTAT'
p3931
I48797
sS'CCTGTC'
p3932
I83849
sS'CCTGTA'
p3933
I76187
sS'CTCGCC'
p3934
I32062
sS'GCTTGT'
p3935
I51990
sS'TGAGAT'
p3936
I86683
sS'GGTTGT'
p3937
I42872
sS'TATCAG'
p3938
I51101
sS'AATTCN'
p3939
I4
sS'TAGCGT'
p3940
I7337
sS'GGTTGG'
p3941
I55982
sS'CTGAAT'
p3942
I83637
sS'GGTTGA'
p3943
I40019
sS'TTCACG'
p3944
I16355
sS'GGTTGC'
p3945
I44533
sS'TCCCGC'
p3946
I39859
sS'GTAACG'
p3947
I6972
sS'TCCCGG'
p3948
I45993
sS'GTAACC'
p3949
I29101
sS'CGTTTT'
p3950
I23975
sS'ATTCTC'
p3951
I82712
sS'AGGGAA'
p3952
I127387
sS'ATTCTA'
p3953
I68205
sS'ATTCTG'
p3954
I94330
sS'TCATTT'
p3955
I148501
sS'GTAACT'
p3956
I46033
sS'TGCTAA'
p3957
I59043
sS'TGCTAG'
p3958
I44022
sS'CAGCGG'
p3959
I36136
sS'AGGATC'
p3960
I50001
sS'TCATTC'
p3961
I90617
sS'TCATTA'
p3962
I72207
sS'TCATTG'
p3963
I67502
sS'ATTCTT'
p3964
I109377
sS'CGTTTC'
p3965
I20148
sS'ACCGGG'
p3966
I20554
sS'TGGCAA'
p3967
I77582
sS'CCGATC'
p3968
I7805
sS'TGGCAG'
p3969
I112788
sS'GGCCGT'
p3970
I19123
sS'CCAAGC'
p3971
I68191
sS'GCTGAC'
p3972
I56684
sS'CGTCAG'
p3973
I16858
sS'TGGCAT'
p3974
I76674
sS'GGCCGG'
p3975
I62679
sS'NNGATC'
p3976
I2
sS'CCGATG'
p3977
I9999
sS'GGCCGC'
p3978
I53970
sS'GAACTT'
p3979
I62113
sS'GGCCGA'
p3980
I29579
sS'GGCAAT'
p3981
I46817
sS'ATCNNN'
p3982
I2
sS'CTGATT'
p3983
I76830
sS'CCATCG'
p3984
I12175
sS'CTAAAT'
p3985
I69379
sS'CCATCC'
p3986
I70297
sS'CCATCA'
p3987
I61778
sS'CTGATC'
p3988
I44834
sS'CTGATA'
p3989
I51065
sS'GTACCA'
p3990
I28273
sS'GGCAAC'
p3991
I50657
sS'GGCAAA'
p3992
I78367
sS'CTAAAG'
p3993
I59223
sS'CCATCT'
p3994
I90582
sS'CTAAAC'
p3995
I44573
sS'TTGCGT'
p3996
I10921
sS'GACACC'
p3997
I47109
sS'TACGAT'
p3998
I6647
sS'GACACG'
p3999
I16886
sS'GCGCCT'
p4000
I33885
sS'TAGCGA'
p4001
I7273
sS'TACGAG'
p4002
I7424
sS'TACGAC'
p4003
I5014
sS'GGAAAG'
p4004
I121756
sS'TCGGCG'
p4005
I13110
sS'CCGTGA'
p4006
I18111
sS'AGTCCG'
p4007
I12882
sS'TGTTAC'
p4008
I47782
sS'CTATTG'
p4009
I40858
sS'GCATAA'
p4010
I41964
sS'CTATTC'
p4011
I43738
sS'GGTTCC'
p4012
I49959
sS'TCGATG'
p4013
I8223
sS'TCGATA'
p4014
I5069
sS'TCGATC'
p4015
I6725
sS'CTATTT'
p4016
I90679
sS'CGCGAA'
p4017
I6186
sS'GCATTG'
p4018
I45178
sS'CAGCCT'
p4019
I174610
sS'TGCCTA'
p4020
I54089
sS'TCGGCA'
p4021
I12676
sS'TGGTTT'
p4022
I97682
sS'AACCAA'
p4023
I70837
sS'TGCCGG'
p4024
I25127
sS'AACCAC'
p4025
I62650
sS'GCGCCA'
p4026
I28693
sS'AACCAG'
p4027
I72146
sS'TGCCGA'
p4028
I12681
sS'TTGGAC'
p4029
I39932
sS'TCGGGC'
p4030
I21769
sS'CGCGAG'
p4031
I16096
sS'GCGCCG'
p4032
I38252
sS'GGCGGC'
p4033
I72185
sS'AACCAT'
p4034
I53947
sS'AACAGA'
p4035
I105523
sS'CTACCG'
p4036
I9389
sS'AACAGC'
p4037
I73896
sS'CTACCC'
p4038
I40875
sS'AACAGG'
p4039
I78441
sS'CTACCA'
p4040
I45299
sS'CCCAAG'
p4041
I92096
sS'TTGGAG'
p4042
I83400
sS'GACGAA'
p4043
I9824
sS'CCCAAC'
p4044
I59388
sS'CCCAAA'
p4045
I107128
sS'CTACCT'
p4046
I50902
sS'GGGAGA'
p4047
I117820
sS'AACAGT'
p4048
I70801
sS'GGGAGC'
p4049
I92650
sS'ACGAAG'
p4050
I14145
sS'CCCAAT'
p4051
I42717
sS'GACGAT'
p4052
I7398
sS'GGGCGC'
p4053
I55021
sS'GGGCGA'
p4054
I27527
sS'NGCGCC'
p4055
I1
sS'GGGCGG'
p4056
I91110
sS'TCTCTT'
p4057
I124533
sS'TGGGGG'
p4058
I105705
sS'GTACAG'
p4059
I41991
sS'CGTTAA'
p4060
I9280
sS'GTACAA'
p4061
I36641
sS'ACGACT'
p4062
I9664
sS'TCTCTC'
p4063
I135442
sS'TCTCTA'
p4064
I81650
sS'TCTCTG'
p4065
I138628
sS'GGGCGT'
p4066
I29704
sS'ACGACC'
p4067
I8773
sS'ACGACA'
p4068
I10341
sS'ACGACG'
p4069
I4610
sS'CAGAAG'
p4070
I117496
sS'TAAGTG'
p4071
I60247
sS'CACTTT'
p4072
I107928
sS'CCTAAT'
p4073
I45397
sS'CGCTAG'
p4074
I9346
sS'CACTTG'
p4075
I73581
sS'CCTAAC'
p4076
I37289
sS'CCTAAA'
p4077
I63467
sS'CACTTC'
p4078
I79162
sS'CCTAAG'
p4079
I51000
sS'CACTTA'
p4080
I60209
sS'GCGGAT'
p4081
I13466
sS'CTGCGG'
p4082
I39674
sS'AAGATT'
p4083
I78515
sS'CTCATG'
p4084
I76105
sS'GACTCG'
p4085
I15321
sS'CTCATC'
p4086
I69314
sS'GACTCC'
p4087
I60692
sS'CTCATA'
p4088
I52363
sS'GACTCA'
p4089
I97507
sS'ATAGGT'
p4090
I34644
sS'CTCCAA'
p4091
I83427
sS'AAGATG'
p4092
I83905
sS'GACTCT'
p4093
I61208
sS'CTCATT'
p4094
I97553
sS'ATCGAA'
p4095
I7672
sS'GGACTA'
p4096
I34937
sS'ATATTT'
p4097
I155250
sS'ATAGAG'
p4098
I50290
sS'AACTAA'
p4099
I60188
sS'ATAGTT'
p4100
I51963
sS'TACTGT'
p4101
I58939
sS'ATATTC'
p4102
I60367
sS'ATATTA'
p4103
I73351
sS'ATATTG'
p4104
I54991
sS'ATAGTA'
p4105
I42816
sS'ATAGTC'
p4106
I31095
sS'TACTGG'
p4107
I47214
sS'ATAGTG'
p4108
I41958
sS'GATCGA'
p4109
I6720
sS'CAGGCA'
p4110
I134269
sS'AGGAAG'
p4111
I165478
sS'CATCCG'
p4112
I13417
sS'ACGGAG'
p4113
I23874
sS'CATCCA'
p4114
I66977
sS'AGGAAC'
p4115
I70570
sS'CATCCC'
p4116
I68590
sS'TTATGA'
p4117
I70023
sS'TTATGC'
p4118
I41949
sS'CGGAGT'
p4119
I19674
sS'TTATGG'
p4120
I49248
sS'CATCCT'
p4121
I80416
sS'AGGAAT'
p4122
I101366
sS'CAGGCT'
p4123
I138618
sS'ACGGAT'
p4124
I9210
sS'CGGAGA'
p4125
I24727
sS'CGGAGC'
p4126
I36888
sS'TTATGT'
p4127
I73532
sS'CGGAGG'
p4128
I43239
sS'ATGGAA'
p4129
I91178
sS'ATGGAC'
p4130
I38167
sS'ATGGAG'
p4131
I79304
sS'CGCTTG'
p4132
I18446
sS'CGCTTA'
p4133
I8326
sS'CGCTTC'
p4134
I21743
sS'ATGGAT'
p4135
I52430
sS'TTTGCA'
p4136
I98506
sS'CGCTTT'
p4137
I18149
sS'GCCGTG'
p4138
I24681
sS'TGGGGA'
p4139
I123995
sS'CAAGCC'
p4140
I64889
sS'TGCGGA'
p4141
I16123
sS'TTGTGA'
p4142
I76189
sS'GAAAAG'
p4143
I126556
sS'GAAAAC'
p4144
I97983
sS'ATAGAT'
p4145
I49299
sS'GAAAAA'
p4146
I178643
sS'TAAGTA'
p4147
I54946
sS'CAAGCG'
p4148
I18422
sS'GAAAAT'
p4149
I129828
sS'CGGCAT'
p4150
I11370
sS'CACGCA'
p4151
I21945
sS'CTACTG'
p4152
I54156
sS'ACAAGG'
p4153
I68825
sS'ACAAGA'
p4154
I75406
sS'AAAAAA'
p4155
I560747
sS'ACAAGC'
p4156
I52005
sS'ACACGT'
p4157
I18612
sS'CTGCGT'
p4158
I21383
sS'GACGTC'
p4159
I13802
sS'GCGGAG'
p4160
I44791
sS'CATAAG'
p4161
I44207
sS'GCGGAA'
p4162
I17872
sS'CATAAA'
p4163
I92018
sS'GCGGAC'
p4164
I15914
sS'CATAAC'
p4165
I38218
sS'ACACGC'
p4166
I19395
sS'ACAAGT'
p4167
I56985
sS'ACACGA'
p4168
I12869
sS'ACACGG'
p4169
I19693
sS'CATAAT'
p4170
I60500
sS'GTCCCA'
p4171
I65822
sS'GCACAT'
p4172
I57556
sS'GTCCCC'
p4173
I66209
sS'ATCCCA'
p4174
I87262
sS'CTGCGA'
p4175
I17317
sS'CTGCGC'
p4176
I35072
sS'CGGCAA'
p4177
I13025
sS'CGGCAC'
p4178
I17828
sS'CGGCAG'
p4179
I35055
sS'CCTCCT'
p4180
I161586
sS'AGCGCT'
p4181
I21102
sS'CAGGCG'
p4182
I49206
sS'CCTCCC'
p4183
I206884
sS'CCTCCA'
p4184
I117700
sS'CACGCC'
p4185
I44073
sS'CCTCCG'
p4186
I43208
s.