(dp0
S'GAACGT'
p1
I5925
sS'ACATGA'
p2
I35170
sS'CTTCTT'
p3
I56645
sS'CACCCT'
p4
I44587
sS'GAACGG'
p5
I6498
sS'GAACGC'
p6
I6428
sS'GAACGA'
p7
I5314
sS'CACCCA'
p8
I52988
sS'CTTCTA'
p9
I32417
sS'CACCCC'
p10
I47793
sS'CTTCTC'
p11
I57529
sS'CACCCG'
p12
I15883
sS'CTTCTG'
p13
I58579
sS'GTCTCG'
p14
I10801
sS'CGTGTG'
p15
I12845
sS'TAAGGT'
p16
I21336
sS'CGTGTC'
p17
I8394
sS'CGTGTA'
p18
I5192
sS'AGGCAA'
p19
I43357
sS'TAAGGG'
p20
I22516
sS'CGTGTT'
p21
I8719
sS'TAAGGC'
p22
I20958
sS'TAAGGA'
p23
I33681
sS'GTCAAA'
p24
I27587
sS'CCCGCT'
p25
I16787
sS'GTCAAG'
p26
I22976
sS'CTGTCC'
p27
I42287
sS'TCAGAG'
p28
I53964
sS'CTGTCA'
p29
I41823
sS'CTGTCG'
p30
I8652
sS'TCAGAC'
p31
I29205
sS'TCAGAA'
p32
I56021
sS'TCATAA'
p33
I34813
sS'GTCAAT'
p34
I17320
sS'GTATCA'
p35
I17032
sS'GTATCC'
p36
I12600
sS'GTATCG'
p37
I2138
sS'CTGTCT'
p38
I57497
sS'GGTGTC'
p39
I23638
sS'GGTGTA'
p40
I14385
sS'GGTGTG'
p41
I42844
sS'TATCCT'
p42
I25192
sS'CCGGGG'
p43
I29142
sS'TTCTGT'
p44
I60909
sS'ATTCCT'
p45
I50734
sS'CCGGGC'
p46
I33172
sS'CCGGGA'
p47
I22984
sS'TATCCA'
p48
I23793
sS'TATCCC'
p49
I17966
sS'GTTCTG'
p50
I36752
sS'GGCGAG'
p51
I16014
sS'GGTGTT'
p52
I25789
sS'ATTCCG'
p53
I5578
sS'TTCTGG'
p54
I54589
sS'CCGGGT'
p55
I15398
sS'ATTCCC'
p56
I32948
sS'TTCTGC'
p57
I47840
sS'ATTCCA'
p58
I49197
sS'TTCTGA'
p59
I55490
sS'TGCACT'
p60
I35179
sS'GGNCCG'
p61
I1
sS'CGTCAT'
p62
I6214
sS'GTTCTC'
p63
I30644
sS'CCCGCG'
p64
I20727
sS'CGCGGG'
p65
I20606
sS'NCCGCC'
p66
I1
sS'CGCGGC'
p67
I21412
sS'CGCGGA'
p68
I8853
sS'GTCCTT'
p69
I30249
sS'ACCTGT'
p70
I31935
sS'TCATGT'
p71
I35468
sS'CTCCGA'
p72
I9388
sS'TTACAG'
p73
I48641
sS'CTCCGC'
p74
I22539
sS'TTACAA'
p75
I38563
sS'CCGGCA'
p76
I12554
sS'TTACAC'
p77
I22757
sS'CTCCGG'
p78
I18572
sS'TCATGC'
p79
I30630
sS'TGCGAT'
p80
I4686
sS'TCATGA'
p81
I35935
sS'TCATGG'
p82
I31972
sS'ACCTGC'
p83
I35549
sS'ACCTGA'
p84
I32990
sS'GTATTT'
p85
I49347
sS'CTCGAT'
p86
I4713
sS'CTCCGT'
p87
I12000
sS'GCCTGA'
p88
I40351
sS'GCCTGC'
p89
I46260
sS'GCCTGG'
p90
I84081
sS'TCTTGC'
p91
I35480
sS'TAAAGG'
p92
I34504
sS'CAAATT'
p93
I45144
sS'TAAAGA'
p94
I46526
sS'TAAAGC'
p95
I28901
sS'GCCTGT'
p96
I46534
sS'CGTCAA'
p97
I4244
sS'TAAAGT'
p98
I36765
sS'CAAATA'
p99
I49667
sS'ACGTCC'
p100
I6940
sS'CAAATC'
p101
I32575
sS'CAAATG'
p102
I48436
sS'AATACT'
p103
I33132
sS'AATCCG'
p104
I5144
sS'TATCTC'
p105
I28349
sS'CCGGCG'
p106
I16662
sS'GGCATG'
p107
I37133
sS'GTCCTC'
p108
I30611
sS'GGCATC'
p109
I23641
sS'AATACG'
p110
I5325
sS'AATACA'
p111
I46317
sS'AATACC'
p112
I22184
sS'GGCATT'
p113
I32543
sS'TCCCCA'
p114
I62182
sS'TGCACA'
p115
I39370
sS'GAGCAC'
p116
I25629
sS'GAGCAA'
p117
I35662
sS'GAGCAG'
p118
I50830
sS'AGTAGT'
p119
I20617
sS'TCTCGC'
p120
I10580
sS'TCTCGA'
p121
I8030
sS'TCTCGG'
p122
I12943
sS'ACTGAG'
p123
I44236
sS'AGTAGA'
p124
I30952
sS'AGTAGG'
p125
I24295
sS'ACTGAA'
p126
I45440
sS'ACGGCC'
p127
I9559
sS'TTTGTT'
p128
I86145
sS'GTGTCG'
p129
I5161
sS'TCGAAC'
p130
I5308
sS'TCGAAA'
p131
I5165
sS'GTGTCC'
p132
I27721
sS'TCGAAG'
p133
I5437
sS'GTGTCA'
p134
I28986
sS'ATTTGC'
p135
I35656
sS'CTTGCT'
p136
I44538
sS'TCGGTC'
p137
I5263
sS'CCACAA'
p138
I35411
sS'GTGTCT'
p139
I36037
sS'AGCCCC'
p140
I48042
sS'TCGAAT'
p141
I4403
sS'CTTGCG'
p142
I6395
sS'CTTGCA'
p143
I32103
sS'CTTGCC'
p144
I35319
sS'CGAAAG'
p145
I7032
sS'CGAAAA'
p146
I7009
sS'CGAAAC'
p147
I5956
sS'CACGGA'
p148
I9966
sS'AAATGC'
p149
I49341
sS'CACGGC'
p150
I12359
sS'AAATGA'
p151
I74366
sS'AAATGG'
p152
I50686
sS'CACGGG'
p153
I12451
sS'ACAGTA'
p154
I29491
sS'CGAAAT'
p155
I5608
sS'ACAGTT'
p156
I35682
sS'AATCAG'
p157
I38468
sS'AATCAA'
p158
I37664
sS'AAATGT'
p159
I69984
sS'AATCAC'
p160
I33848
sS'TTTGTA'
p161
I49753
sS'TCTAGT'
p162
I23461
sS'TTGCCG'
p163
I6531
sS'TTGCCA'
p164
I38588
sS'GGGTAT'
p165
I14215
sS'TTGCCT'
p166
I42787
sS'TCTAGG'
p167
I27419
sS'GGGTAA'
p168
I19750
sS'TCTAGA'
p169
I29108
sS'GGGTAG'
p170
I20516
sS'TCTAGC'
p171
I20335
sS'ATACGG'
p172
I3663
sS'TGACTA'
p173
I26143
sS'AATTGG'
p174
I25450
sS'TGGGCC'
p175
I40704
sS'AGATGT'
p176
I34497
sS'TCGCCC'
p177
I13802
sS'TCGCCA'
p178
I8031
sS'TCGCCG'
p179
I7001
sS'GGTAAT'
p180
I19179
sS'ACCCAT'
p181
I23311
sS'GTCAAC'
p182
I15286
sS'CTCACC'
p183
I42370
sS'ACCCAC'
p184
I32419
sS'GGTAAC'
p185
I15004
sS'ACCCAA'
p186
I30032
sS'AGATGG'
p187
I45369
sS'ACCCAG'
p188
I54907
sS'GGTAAG'
p189
I20060
sS'TCGCCT'
p190
I9958
sS'AGATGC'
p191
I28873
sS'GCTCAC'
p192
I39156
sS'TTTGAG'
p193
I54832
sS'CCCCAT'
p194
I36667
sS'TTGGGT'
p195
I29522
sS'CACTAG'
p196
I20889
sS'GTTCCG'
p197
I6526
sS'CACTAC'
p198
I16702
sS'CCCCAA'
p199
I42816
sS'CCCCAC'
p200
I56879
sS'CCCCAG'
p201
I72570
sS'CACTAT'
p202
I21030
sS'TTGGGG'
p203
I42375
sS'CCGTCC'
p204
I12064
sS'TTGGGA'
p205
I49041
sS'TTGGGC'
p206
I28686
sS'TGCCTG'
p207
I67038
sS'GTGGGT'
p208
I32682
sS'TTTCTG'
p209
I76689
sS'TGCAGC'
p210
I46134
sS'TTTCTA'
p211
I54251
sS'TTTCTC'
p212
I74182
sS'TGCAGG'
p213
I50520
sS'GGGTCA'
p214
I27288
sS'GTATCT'
p215
I21583
sS'TTTCTT'
p216
I107225
sS'TGCCTT'
p217
I49880
sS'TGCAGT'
p218
I51650
sS'ACAATT'
p219
I34605
sS'AAGGAA'
p220
I79516
sS'AAGGAC'
p221
I30610
sS'AATGTC'
p222
I33725
sS'AAGGAG'
p223
I56970
sS'ATATGC'
p224
I21157
sS'GTTCCA'
p225
I28210
sS'ATATGA'
p226
I31422
sS'TACGAA'
p227
I4333
sS'ATATGG'
p228
I21855
sS'AAGGAT'
p229
I33800
sS'CTATCA'
p230
I19917
sS'GGCTCG'
p231
I12267
sS'ATATGT'
p232
I34158
sS'GGTCCC'
p233
I29780
sS'GCCCAG'
p234
I77244
sS'ATGCAG'
p235
I38427
sS'GCCCAA'
p236
I28743
sS'GGTCCG'
p237
I7718
sS'AGGTCT'
p238
I30632
sS'TGTGTC'
p239
I38926
sS'AGACCC'
p240
I28706
sS'ATTGTT'
p241
I40057
sS'CTTCGA'
p242
I5341
sS'CTTCGC'
p243
I7921
sS'ATGCAA'
p244
I35497
sS'GCCCAT'
p245
I24101
sS'AGGTCA'
p246
I44545
sS'TCCGGC'
p247
I12480
sS'GGTCCT'
p248
I26410
sS'TCCGGA'
p249
I9200
sS'CTACCT'
p250
I25485
sS'ATTGTG'
p251
I31630
sS'CTTAGA'
p252
I27783
sS'ATGCAC'
p253
I23505
sS'CTTAGG'
p254
I25403
sS'ATTGTC'
p255
I21894
sS'TCTTGG'
p256
I44105
sS'GCCTTT'
p257
I41716
sS'ATTTTG'
p258
I59383
sS'GAGGTG'
p259
I47583
sS'ATTTTA'
p260
I81691
sS'TAAATT'
p261
I53346
sS'ATTTTC'
p262
I64782
sS'GATTTG'
p263
I32211
sS'TAGCAG'
p264
I27234
sS'GATACT'
p265
I17176
sS'TAGCAC'
p266
I19104
sS'TAGCAA'
p267
I28330
sS'GAGGTT'
p268
I33910
sS'ATTTTT'
p269
I119337
sS'GCCTTG'
p270
I37923
sS'TAGTGT'
p271
I20423
sS'GCCTTA'
p272
I20862
sS'TTGACA'
p273
I28985
sS'GCCTTC'
p274
I38470
sS'GATACG'
p275
I3217
sS'TAGCAT'
p276
I23578
sS'GATACC'
p277
I11731
sS'GATTTC'
p278
I33845
sS'TGAGCT'
p279
I43947
sS'ACGGAC'
p280
I5081
sS'GATCAT'
p281
I21593
sS'TGGCAC'
p282
I34542
sS'ACCGAG'
p283
I8906
sS'AAGACC'
p284
I27542
sS'GATTTA'
p285
I31064
sS'AAGACG'
p286
I8229
sS'GATCAG'
p287
I22473
sS'TGAGCG'
p288
I9273
sS'TGAGCA'
p289
I41124
sS'TGAGCC'
p290
I50885
sS'AAGACT'
p291
I36194
sS'ACCACG'
p292
I12509
sS'GCGGTA'
p293
I4010
sS'CGTGCA'
p294
I8887
sS'GCGGTG'
p295
I16510
sS'CGGTGT'
p296
I7453
sS'TCGTTA'
p297
I3981
sS'TCGTTC'
p298
I5304
sS'CTTCCC'
p299
I67378
sS'TCGTTG'
p300
I4813
sS'TGTGTG'
p301
I90096
sS'GCGGTT'
p302
I6300
sS'ACTTGC'
p303
I26046
sS'ACCACC'
p304
I31666
sS'ACTTGA'
p305
I34533
sS'CGGTGG'
p306
I16577
sS'ACTTGG'
p307
I35925
sS'CGGTGA'
p308
I9742
sS'CGGTGC'
p309
I10700
sS'TTCCTA'
p310
I39378
sS'TAGACT'
p311
I19884
sS'TTCCTC'
p312
I64196
sS'ACTGAC'
p313
I26973
sS'ATGTGC'
p314
I28790
sS'TTCCTG'
p315
I76257
sS'TCCTTT'
p316
I66152
sS'GACCCA'
p317
I27947
sS'ACGCTA'
p318
I3654
sS'TAGACG'
p319
I3866
sS'TTCCTT'
p320
I79267
sS'TAGACC'
p321
I12707
sS'TAGACA'
p322
I24776
sS'AAGNTG'
p323
I1
sS'TCCTTG'
p324
I44034
sS'TCCTTA'
p325
I33461
sS'TCCTTC'
p326
I56499
sS'ATCTCT'
p327
I46337
sS'ACCGTT'
p328
I4796
sS'TGGCGC'
p329
I14307
sS'TGGCGA'
p330
I8016
sS'TGTNNN'
p331
I1
sS'TGGCGG'
p332
I16772
sS'ATCTCG'
p333
I7903
sS'ATCTCA'
p334
I43265
sS'ATCTCC'
p335
I33629
sS'GGCCAA'
p336
I37001
sS'GGCCAC'
p337
I38129
sS'ACCGTG'
p338
I9578
sS'ACCGTA'
p339
I3818
sS'TGGCGT'
p340
I8638
sS'ACCGTC'
p341
I5568
sS'ACCGAC'
p342
I4257
sS'AGAATT'
p343
I51352
sS'GGCAGT'
p344
I35422
sS'CCATAA'
p345
I24812
sS'CAAAGG'
p346
I46407
sS'CCATAC'
p347
I14271
sS'CAAAGA'
p348
I53063
sS'AGATTC'
p349
I30408
sS'CAAAGC'
p350
I41196
sS'CAACGT'
p351
I6595
sS'GGCAGA'
p352
I55782
sS'GGCAGC'
p353
I52501
sS'TAAGTT'
p354
I28170
sS'GGCAGG'
p355
I76262
sS'CAACGC'
p356
I5791
sS'CAAAGT'
p357
I48191
sS'CAACGA'
p358
I4864
sS'GCACTC'
p359
I28348
sS'CCATAT'
p360
I21960
sS'GCACTG'
p361
I37407
sS'GGGGGT'
p362
I30264
sS'TACGCT'
p363
I3281
sS'GAAACC'
p364
I36716
sS'CGATCT'
p365
I6879
sS'NNNNNC'
p366
I1
sS'CTCTAG'
p367
I28871
sS'CTCTAA'
p368
I30951
sS'CTCTAC'
p369
I27382
sS'GGGGGG'
p370
I29026
sS'CGATCC'
p371
I5354
sS'TACGCC'
p372
I3621
sS'GGGGGC'
p373
I45451
sS'CGATCG'
p374
I1473
sS'GGGGGA'
p375
I41363
sS'TACGCG'
p376
I1615
sS'CTCTAT'
p377
I25218
sS'CAGACC'
p378
I30301
sS'CAGACA'
p379
I48426
sS'CAGACG'
p380
I10277
sS'CGCTAA'
p381
I4023
sS'TAGTTG'
p382
I19090
sS'GCTAAT'
p383
I24253
sS'TAGTTC'
p384
I19728
sS'TAGTTA'
p385
I21278
sS'CAGACT'
p386
I36479
sS'GCTAAG'
p387
I22088
sS'TAGTTT'
p388
I36876
sS'GCTAAC'
p389
I13837
sS'GCTAAA'
p390
I25964
sS'TAAGTG'
p391
I30016
sS'TGCTGC'
p392
I48907
sS'AACCCT'
p393
I31631
sS'AACCCC'
p394
I29507
sS'TGCATG'
p395
I33932
sS'AACCCG'
p396
I9143
sS'TTTCCG'
p397
I9588
sS'TGCATC'
p398
I24388
sS'AGAATA'
p399
I40063
sS'CTACAA'
p400
I26548
sS'ACGTAC'
p401
I3699
sS'AGTTTC'
p402
I44196
sS'CTACAG'
p403
I30916
sS'CCCAGA'
p404
I60822
sS'CCCAGC'
p405
I89151
sS'AGAATC'
p406
I34416
sS'CAGTCC'
p407
I32407
sS'CCCAGG'
p408
I94547
sS'AACTGT'
p409
I35949
sS'AGTTTT'
p410
I57223
sS'CTACAT'
p411
I22983
sS'AGTCAA'
p412
I29732
sS'CCCAGT'
p413
I42769
sS'TATAAT'
p414
I36175
sS'CGCATA'
p415
I2865
sS'ATACTG'
p416
I25405
sS'CGCATC'
p417
I5506
sS'ATACTA'
p418
I19044
sS'ATACTC'
p419
I17279
sS'CGCATG'
p420
I6686
sS'GCGCAA'
p421
I5559
sS'GCGAAT'
p422
I3738
sS'ATACTT'
p423
I31079
sS'CGCATT'
p424
I5305
sS'AGGCCC'
p425
I44338
sS'GCTCCG'
p426
I18577
sS'TATTGT'
p427
I31120
sS'GCTCCC'
p428
I46527
sS'GCTCCA'
p429
I40079
sS'CCTACT'
p430
I24284
sS'TGTACT'
p431
I24351
sS'TTTAGT'
p432
I37838
sS'NTTGTG'
p433
I1
sS'TATTGG'
p434
I20656
sS'GCTCCT'
p435
I45671
sS'TATTGC'
p436
I22105
sS'TATTGA'
p437
I27004
sS'TTTAGG'
p438
I31576
sS'TGTACG'
p439
I3734
sS'CCTACG'
p440
I4955
sS'TGTACA'
p441
I27459
sS'CCTACA'
p442
I23104
sS'TGTACC'
p443
I16444
sS'CCTACC'
p444
I22675
sS'TTCGCG'
p445
I3033
sS'TTCGCA'
p446
I4954
sS'TTCGCC'
p447
I7086
sS'AGTATC'
p448
I17134
sS'GACTAA'
p449
I21905
sS'AGTATA'
p450
I21307
sS'TTTGGG'
p451
I53428
sS'AGTATG'
p452
I21327
sS'TTTGGA'
p453
I48710
sS'TTTGGC'
p454
I36131
sS'ACGAAC'
p455
I3930
sS'GATCNN'
p456
I2
sS'TTTGGT'
p457
I38165
sS'GACTAT'
p458
I15476
sS'AGTATT'
p459
I32659
sS'TTACTC'
p460
I27373
sS'TTACTA'
p461
I25455
sS'TTACTG'
p462
I34312
sS'ACCTTG'
p463
I32464
sS'ACCTTC'
p464
I31299
sS'ACCTTA'
p465
I21506
sS'GTAAAC'
p466
I23176
sS'ACCTTT'
p467
I37177
sS'ACAGGG'
p468
I44315
sS'CTGGGA'
p469
I82143
sS'CTGGGC'
p470
I77388
sS'ACAGGC'
p471
I47324
sS'TTATAT'
p472
I40062
sS'CTGGGG'
p473
I72640
sS'AGGACG'
p474
I10668
sS'GCAGCT'
p475
I48001
sS'CAGGAA'
p476
I76310
sS'TCGCTT'
p477
I8966
sS'CAGGAG'
p478
I80039
sS'AGGACA'
p479
I44047
sS'GCGCAT'
p480
I5467
sS'TTATAC'
p481
I19760
sS'ACAGGT'
p482
I31987
sS'CTGGGT'
p483
I54851
sS'TTATAG'
p484
I26673
sS'TCGCTG'
p485
I10787
sS'GAGTTG'
p486
I27256
sS'GCAGCG'
p487
I19109
sS'AGGACT'
p488
I35073
sS'GCAGCA'
p489
I48986
sS'GCAGCC'
p490
I55462
sS'CAGGAT'
p491
I38726
sS'CCTCAG'
p492
I67889
sS'CCTCAA'
p493
I37492
sS'CCTCAC'
p494
I41656
sS'TATGTT'
p495
I35799
sS'ATGGGC'
p496
I24039
sS'TCTTTG'
p497
I52388
sS'ATGGGA'
p498
I36802
sS'TCTTTA'
p499
I45885
sS'ATGGGG'
p500
I36640
sS'TCTTTC'
p501
I63620
sS'CCTCAT'
p502
I38622
sS'TCTTTT'
p503
I85274
sS'TATGTG'
p504
I33495
sS'TATGTA'
p505
I31514
sS'ATGGGT'
p506
I23432
sS'TATGTC'
p507
I20308
sS'ACCTGG'
p508
I44546
sS'GAAAGA'
p509
I64904
sS'ATCAAG'
p510
I27050
sS'CATGAT'
p511
I29221
sS'ATCAAC'
p512
I19067
sS'GAAAGG'
p513
I53828
sS'GTCCAC'
p514
I19879
sS'CGCTAG'
p515
I4647
sS'ACGTGG'
p516
I13147
sS'CATGAG'
p517
I37850
sS'ATCAAT'
p518
I24146
sS'GTCCAA'
p519
I19994
sS'GAAAGT'
p520
I39861
sS'CATGAA'
p521
I39050
sS'GTAGCG'
p522
I4033
sS'CAAGTT'
p523
I33888
sS'GCGGCT'
p524
I16990
sS'GTAGCC'
p525
I15994
sS'GCTTTC'
p526
I38540
sS'AAAGTA'
p527
I44257
sS'CAATCT'
p528
I27531
sS'GCGGCG'
p529
I29236
sS'CAAGTG'
p530
I36803
sS'GTAGCT'
p531
I25602
sS'GCGGCC'
p532
I27143
sS'CAAGTC'
p533
I27849
sS'GCGGCA'
p534
I12410
sS'TTACAT'
p535
I38990
sS'AACGGT'
p536
I4652
sS'CGTACG'
p537
I1197
sS'TAATCG'
p538
I3309
sS'GGTCTT'
p539
I27498
sS'TAATCA'
p540
I30315
sS'TAATCC'
p541
I32142
sS'TGCGAA'
p542
I4812
sS'CGGCCC'
p543
I27051
sS'CGACTA'
p544
I2582
sS'AAAATT'
p545
I81795
sS'CGCTAT'
p546
I3480
sS'CGGCCG'
p547
I19765
sS'TCGTGA'
p548
I6575
sS'CTTGTA'
p549
I24055
sS'GGTCTG'
p550
I30405
sS'GAGTTC'
p551
I29403
sS'TGCGAC'
p552
I4380
sS'GGTCTC'
p553
I33393
sS'GGTCTA'
p554
I12673
sS'AAAATG'
p555
I86063
sS'AAAATC'
p556
I50383
sS'CGGCCT'
p557
I20705
sS'TTCAGC'
p558
I38769
sS'CTAACC'
p559
I16567
sS'TTCAGA'
p560
I52167
sS'TTCAGG'
p561
I44927
sS'GAACAT'
p562
I28557
sS'TCGTCG'
p563
I2149
sS'TTTAGC'
p564
I25557
sS'TGTTTT'
p565
I96618
sS'GAACAA'
p566
I34292
sS'ATCCCG'
p567
I7812
sS'GAACAC'
p568
I24939
sS'TCGTCT'
p569
I6629
sS'GAACAG'
p570
I35838
sS'TTCAGT'
p571
I45266
sS'ATTGCA'
p572
I32935
sS'CACCAC'
p573
I45076
sS'NNNCTG'
p574
I1
sS'CACCAA'
p575
I32295
sS'CACCAG'
p576
I43862
sS'TCCGTG'
p577
I9878
sS'ATTGCG'
p578
I4405
sS'TCCGTC'
p579
I8892
sS'TTGATT'
p580
I36982
sS'TCCGTA'
p581
I4028
sS'ACCAGA'
p582
I34507
sS'CGGCGT'
p583
I6022
sS'ACGCGA'
p584
I2618
sS'CACCAT'
p585
I36432
sS'AACATG'
p586
I40039
sS'AACATA'
p587
I36670
sS'AACATC'
p588
I29081
sS'GTCAGC'
p589
I28465
sS'GCACGG'
p590
I11065
sS'GTCAGA'
p591
I33560
sS'GCACGA'
p592
I6195
sS'GTCAGG'
p593
I39358
sS'GCACGC'
p594
I10206
sS'CAGTCA'
p595
I37659
sS'GCACCA'
p596
I30024
sS'GCAAGC'
p597
I23551
sS'GCACGT'
p598
I9174
sS'GCAAGA'
p599
I35640
sS'TCAGCT'
p600
I47325
sS'GTCAGT'
p601
I26397
sS'TATCTA'
p602
I24078
sS'GTATAC'
p603
I11189
sS'TTCCGT'
p604
I7853
sS'ACGGCT'
p605
I7754
sS'GTATAG'
p606
I12143
sS'CCGGAA'
p607
I11155
sS'CCGGAC'
p608
I9105
sS'CCGGAG'
p609
I18459
sS'TATCAT'
p610
I26992
sS'CTCGTA'
p611
I3778
sS'TTCCGG'
p612
I11416
sS'TTCCGA'
p613
I6408
sS'TTCCGC'
p614
I8932
sS'GTATAT'
p615
I22803
sS'CGTCTC'
p616
I13672
sS'TATCAA'
p617
I25300
sS'CGTCTG'
p618
I10346
sS'CCGGAT'
p619
I6203
sS'CTCTTC'
p620
I52887
sS'TGTTAT'
p621
I35050
sS'CTCTTA'
p622
I31044
sS'CTCTTG'
p623
I41602
sS'CCCGAT'
p624
I4981
sS'TACGTA'
p625
I4856
sS'TACGTC'
p626
I3505
sS'TCTGGT'
p627
I34543
sS'CGCGAT'
p628
I3211
sS'TACGTG'
p629
I6464
sS'TGTTAG'
p630
I25524
sS'GGTTTC'
p631
I36187
sS'CTCGTG'
p632
I9390
sS'CTCTTT'
p633
I60431
sS'TGTTAA'
p634
I36062
sS'TCTGGG'
p635
I60302
sS'CGCGAC'
p636
I4415
sS'GATATT'
p637
I28090
sS'TCTGGC'
p638
I42897
sS'TACGTT'
p639
I5248
sS'TCTGGA'
p640
I49557
sS'AGTCGT'
p641
I4800
sS'GGTACT'
p642
I14287
sS'TTACCT'
p643
I29155
sS'CTCCAT'
p644
I39897
sS'ACTAGA'
p645
I23407
sS'TTACCG'
p646
I4230
sS'CTCCAC'
p647
I45258
sS'AGTCGG'
p648
I7318
sS'TTACCC'
p649
I19766
sS'CTCCAG'
p650
I72997
sS'TTACCA'
p651
I27443
sS'AGTCGC'
p652
I5906
sS'GTACCG'
p653
I3044
sS'CCGACT'
p654
I7075
sS'GCCTAC'
p655
I14846
sS'GCCTAA'
p656
I18806
sS'CCGAGG'
p657
I22324
sS'GCCTAG'
p658
I22738
sS'CCGACA'
p659
I6060
sS'CCCTGT'
p660
I44490
sS'CCGACC'
p661
I9310
sS'CCGACG'
p662
I4285
sS'AAGCTC'
p663
I31560
sS'AACTCA'
p664
I37158
sS'GCCTAT'
p665
I16679
sS'AAGCTA'
p666
I25898
sS'CCCGAG'
p667
I19665
sS'AAGCTG'
p668
I47489
sS'GCTGTC'
p669
I31865
sS'CGCACA'
p670
I9548
sS'ATACAC'
p671
I24173
sS'CGCACC'
p672
I11280
sS'GGGTCG'
p673
I9018
sS'ACTGCT'
p674
I38755
sS'ATACAG'
p675
I29937
sS'CGCACG'
p676
I6130
sS'GGGTCC'
p677
I26803
sS'CTCACT'
p678
I53708
sS'GGCATA'
p679
I17922
sS'GGGTCT'
p680
I29141
sS'ACTGCA'
p681
I52018
sS'TTTGTC'
p682
I37773
sS'ACTGCC'
p683
I35831
sS'CGCACT'
p684
I7167
sS'TTTGTG'
p685
I51093
sS'ACTGCG'
p686
I9210
sS'CTTGAC'
p687
I23232
sS'CTCACA'
p688
I46583
sS'CTCACG'
p689
I13510
sS'TAGTGG'
p690
I22184
sS'GTGAGG'
p691
I41064
sS'GATTTT'
p692
I50027
sS'TAGTGC'
p693
I14973
sS'GTGAGC'
p694
I38714
sS'TAGTGA'
p695
I25108
sS'GTGAGA'
p696
I38882
sS'TCGACG'
p697
I1514
sS'TCGACA'
p698
I3473
sS'TCGACC'
p699
I3868
sS'ACAATA'
p700
I31773
sS'GTGAGT'
p701
I35963
sS'GTGGGG'
p702
I56647
sS'GTGGGA'
p703
I43817
sS'GTGGGC'
p704
I33727
sS'TCGACT'
p705
I3904
sS'GTGGGN'
p706
I1
sS'ACGTAA'
p707
I6188
sS'CTGGTT'
p708
I35859
sS'TGCAAA'
p709
I49247
sS'CGAACG'
p710
I2188
sS'TAAGNT'
p711
I1
sS'CGAACC'
p712
I4749
sS'CGAACA'
p713
I4609
sS'CTGGTG'
p714
I44128
sS'CTGGTA'
p715
I23305
sS'CTGGTC'
p716
I34903
sS'CTGCAA'
p717
I43978
sS'CGAACT'
p718
I6527
sS'TTGCAT'
p719
I35102
sS'GACGAG'
p720
I7293
sS'NNGAAT'
p721
I3
sS'CGTCTT'
p722
I8134
sS'TTGCAG'
p723
I43763
sS'ACTCCT'
p724
I43241
sS'TTGCAC'
p725
I24519
sS'TTGCAA'
p726
I36630
sS'AAGATC'
p727
I25531
sS'TCCATC'
p728
I32690
sS'TCGCAT'
p729
I3950
sS'GAGCGG'
p730
I16159
sS'GTCGTG'
p731
I5474
sS'GTCGTA'
p732
I2528
sS'GTCGTC'
p733
I4500
sS'GGNAGA'
p734
I1
sS'CCGTTT'
p735
I8968
sS'ACTGAT'
p736
I28486
sS'GTCGTT'
p737
I4236
sS'TCGCAG'
p738
I8607
sS'TCCATG'
p739
I33741
sS'CCAAGC'
p740
I34267
sS'TCGCAC'
p741
I5086
sS'CCGTTG'
p742
I5483
sS'CCGTTA'
p743
I3737
sS'CCGTTC'
p744
I6820
sS'GATCGG'
p745
I3912
sS'AATGCT'
p746
I40355
sS'GGTACG'
p747
I3064
sS'GGTACA'
p748
I16454
sS'GGTACC'
p749
I11006
sS'TATTTG'
p750
I49309
sS'CCAGTT'
p751
I35329
sS'TATTTC'
p752
I52628
sS'TATTTA'
p753
I65182
sS'CCCCCT'
p754
I39053
sS'GCCACT'
p755
I40621
sS'AATGCG'
p756
I5216
sS'AATCTT'
p757
I39217
sS'AATGCC'
p758
I32810
sS'AATGCA'
p759
I44295
sS'CCCCCC'
p760
I28502
sS'CCCCCA'
p761
I52576
sS'TATTTT'
p762
I107596
sS'CCCCCG'
p763
I24780
sS'CTTGAG'
p764
I40977
sS'ATGATG'
p765
I33846
sS'ATGATA'
p766
I26804
sS'GCGTTA'
p767
I3431
sS'CTTGAA'
p768
I44222
sS'CGGACT'
p769
I6365
sS'TGCAAC'
p770
I25818
sS'TTGAGT'
p771
I32544
sS'TGCAAG'
p772
I32153
sS'GCCGTC'
p773
I8790
sS'ATGATT'
p774
I39271
sS'CTTGAT'
p775
I26634
sS'ACGGGA'
p776
I9167
sS'CGAATC'
p777
I4251
sS'TTGAGG'
p778
I37105
sS'AATCTC'
p779
I34312
sS'GATCGA'
p780
I3299
sS'TTGAGC'
p781
I28906
sS'TTGAGA'
p782
I48314
sS'GAGAAT'
p783
I41106
sS'TGTCTT'
p784
I48603
sS'CGAATA'
p785
I3477
sS'AGTAGC'
p786
I25051
sS'AAGGCC'
p787
I35883
sS'TATCGA'
p788
I2561
sS'AAGGCA'
p789
I50393
sS'ATAACA'
p790
I34982
sS'AAGGCG'
p791
I12037
sS'ATAACG'
p792
I4221
sS'TGTGGT'
p793
I41887
sS'TGTCTG'
p794
I48131
sS'ACGTAG'
p795
I5129
sS'GAGAAA'
p796
I74735
sS'TGTCTC'
p797
I48050
sS'GAGAAC'
p798
I30621
sS'TGTCTA'
p799
I24852
sS'TGTGGC'
p800
I42167
sS'TGTGGA'
p801
I40491
sS'TGTGGG'
p802
I46650
sS'ATAACT'
p803
I28717
sS'AAGGCT'
p804
I41355
sS'CTGTAA'
p805
I47918
sS'AACGGC'
p806
I5950
sS'GCCCCG'
p807
I35803
sS'ACCAAG'
p808
I31477
sS'GGTCAG'
p809
I38433
sS'GCCCCC'
p810
I45434
sS'GGTCAA'
p811
I20422
sS'CGTGCT'
p812
I9233
sS'GGTCAC'
p813
I26888
sS'AACAAT'
p814
I40717
sS'GATCGC'
p815
I5972
sS'GGTCAT'
p816
I22904
sS'CGTGCC'
p817
I12149
sS'AGGTAG'
p818
I25433
sS'AGGTAA'
p819
I29203
sS'CAAACT'
p820
I40101
sS'TTTTGC'
p821
I45546
sS'TCTTAC'
p822
I25000
sS'TTTTGA'
p823
I60884
sS'TCTTAA'
p824
I39867
sS'AATTGA'
p825
I29685
sS'TCTTAG'
p826
I28951
sS'AATTGC'
p827
I27204
sS'TAGCCA'
p828
I27672
sS'TGGGGT'
p829
I42223
sS'TAGCCC'
p830
I17614
sS'GATAAT'
p831
I25866
sS'GAGAAG'
p832
I57380
sS'TAGCCG'
p833
I5866
sS'AATTGT'
p834
I33919
sS'GCCATC'
p835
I26075
sS'TCTTAT'
p836
I33920
sS'TTTTGT'
p837
I82336
sS'CGCTCT'
p838
I12964
sS'GATAAA'
p839
I38009
sS'GATAAC'
p840
I16317
sS'TAGCCT'
p841
I24335
sS'TGGGGC'
p842
I51181
sS'GATAAG'
p843
I24197
sS'CTCTCA'
p844
I44897
sS'GATCCT'
p845
I25087
sS'AAGAAT'
p846
I54868
sS'CGAAGT'
p847
I6110
sS'GTTATC'
p848
I16574
sS'AAGAAC'
p849
I35974
sS'GATCCA'
p850
I21900
sS'AAGAAA'
p851
I108689
sS'ATGCCA'
p852
I38470
sS'AAGAAG'
p853
I57260
sS'GATCCG'
p854
I6673
sS'GCCCCA'
p855
I51896
sS'ATGCCG'
p856
I5729
sS'CAAGGG'
p857
I35344
sS'CAAGGC'
p858
I37785
sS'GGTTCT'
p859
I29033
sS'CAAGGA'
p860
I44227
sS'GGTTCA'
p861
I26048
sS'GGTTCC'
p862
I25088
sS'CAAGGT'
p863
I32723
sS'TGCATT'
p864
I43999
sS'AACCTT'
p865
I30783
sS'TAGGCA'
p866
I27105
sS'ATTATA'
p867
I36066
sS'ATTATC'
p868
I26062
sS'TAGAAT'
p869
I33997
sS'CAAACG'
p870
I7951
sS'ATTATG'
p871
I30129
sS'CCAGCA'
p872
I62764
sS'TAGAAA'
p873
I54929
sS'TAGAAC'
p874
I20935
sS'ATTATT'
p875
I56756
sS'TAGAAG'
p876
I32525
sS'AGTCTA'
p877
I20104
sS'AGTCTC'
p878
I36069
sS'AGTCTG'
p879
I36588
sS'TAACTC'
p880
I22452
sS'TAACTA'
p881
I21294
sS'TAACTG'
p882
I28720
sS'ATCTAT'
p883
I24583
sS'ACGCGT'
p884
I2523
sS'AGGTAT'
p885
I22669
sS'TAACTT'
p886
I34359
sS'ATCTAG'
p887
I20886
sS'ATCTAC'
p888
I18003
sS'ATCTAA'
p889
I26258
sS'CCATGT'
p890
I35810
sS'ACCAAA'
p891
I38237
sS'TGGAGG'
p892
I58845
sS'TGGAGA'
p893
I56156
sS'TGGAGC'
p894
I39799
sS'CCATGC'
p895
I29838
sS'TCCAGA'
p896
I49851
sS'CCATGA'
p897
I32010
sS'CCATGG'
p898
I34186
sS'TGGAGT'
p899
I44543
sS'ATTACG'
p900
I4285
sS'TCAGTA'
p901
I28658
sS'TCAGTC'
p902
I30313
sS'CTCTCT'
p903
I74382
sS'GGGGAT'
p904
I26491
sS'TCAGTG'
p905
I43274
sS'CGATAT'
p906
I2734
sS'GGGGAA'
p907
I50972
sS'GGGGAC'
p908
I33038
sS'CTCTCC'
p909
I63103
sS'TCAGTT'
p910
I41941
sS'GGGGAG'
p911
I66947
sS'CGATAG'
p912
I2577
sS'CGATAA'
p913
I3332
sS'CGATAC'
p914
I2136
sS'CTAAGG'
p915
I25128
sS'GTGTTT'
p916
I47274
sS'ATAACC'
p917
I18368
sS'GCTACT'
p918
I25326
sS'GTGGTT'
p919
I31242
sS'TGGNAG'
p920
I1
sS'GTGTTC'
p921
I25263
sS'GTGTTA'
p922
I22208
sS'GTGTTG'
p923
I27799
sS'ACCAAT'
p924
I21380
sS'GTGGTA'
p925
I20137
sS'GCTACA'
p926
I20457
sS'GTGGTC'
p927
I21111
sS'GCTACC'
p928
I14660
sS'GTGGTG'
p929
I45009
sS'GCTACG'
p930
I4247
sS'GCCCCT'
p931
I45288
sS'TTTCGT'
p932
I7349
sS'TGCCCT'
p933
I51455
sS'AGCGTT'
p934
I6688
sS'CGTGCG'
p935
I5975
sS'TGCCCC'
p936
I42852
sS'TGCCCA'
p937
I53005
sS'TGCCCG'
p938
I15766
sS'ACAGTG'
p939
I45409
sS'GAGTTA'
p940
I22720
sS'AGCGTA'
p941
I3528
sS'AGCGTC'
p942
I7802
sS'AGCGTG'
p943
I9966
sS'GGCCCC'
p944
I49294
sS'GGCCCA'
p945
I40843
sS'CACGTG'
p946
I16467
sS'GGCCCG'
p947
I23755
sS'CACGTA'
p948
I6463
sS'CACGTC'
p949
I8790
sS'ACGTGC'
p950
I8943
sS'ACGTGA'
p951
I9883
sS'CTACGG'
p952
I4609
sS'ACAGTC'
p953
I27269
sS'CACGTT'
p954
I9624
sS'CTAAGT'
p955
I24211
sS'GGCCCT'
p956
I42416
sS'GGGACA'
p957
I37218
sS'TTTTGG'
p958
I49640
sS'GGGACC'
p959
I29265
sS'AGGGAC'
p960
I34248
sS'GTCTCA'
p961
I40396
sS'ACGTGT'
p962
I9365
sS'AGAGAG'
p963
I75236
sS'AGAGAA'
p964
I75836
sS'AGAGAC'
p965
I43424
sS'TCTATA'
p966
I23032
sS'GTCTTT'
p967
I38947
sS'TCTATC'
p968
I19777
sS'TCTATG'
p969
I23922
sS'AGAGAT'
p970
I46174
sS'TTCACA'
p971
I47013
sS'GTCTTG'
p972
I30440
sS'TCTATT'
p973
I34954
sS'GTCTTC'
p974
I29435
sS'GTCTTA'
p975
I21142
sS'GCAGAG'
p976
I63184
sS'GCTCAA'
p977
I29320
sS'CGCTCG'
p978
I7553
sS'GCAGAC'
p979
I26669
sS'GCAGAA'
p980
I47880
sS'GCTCAG'
p981
I48974
sS'AGACGT'
p982
I7570
sS'ATGCGT'
p983
I5015
sS'TTGCTG'
p984
I47298
sS'TTGCTA'
p985
I28004
sS'CGCTCA'
p986
I9383
sS'GCAGAT'
p987
I31916
sS'GCTCAT'
p988
I28294
sS'GTTTGC'
p989
I27080
sS'TTGCTT'
p990
I53138
sS'ATGCGG'
p991
I5880
sS'CGCTCC'
p992
I18107
sS'ATGCGC'
p993
I5378
sS'ATGCGA'
p994
I3820
sS'TGTAAG'
p995
I28170
sS'GGCTAG'
p996
I19180
sS'TGTAAC'
p997
I23642
sS'GGCTAC'
p998
I15954
sS'GACTGT'
p999
I27535
sS'CTGAAA'
p1000
I60115
sS'TTCGAG'
p1001
I8036
sS'TTGGTA'
p1002
I22333
sS'ACTGTC'
p1003
I27620
sS'TTGGTC'
p1004
I22007
sS'TTCGAC'
p1005
I3057
sS'ACTGTG'
p1006
I44767
sS'TTGGTG'
p1007
I31894
sS'GACTGC'
p1008
I25389
sS'GGCTAT'
p1009
I17088
sS'GACTGA'
p1010
I30135
sS'GACTGG'
p1011
I33135
sS'TTCGAT'
p1012
I3881
sS'TTGGTT'
p1013
I35335
sS'ACTGTT'
p1014
I35305
sS'GTTTCT'
p1015
I53100
sS'ATAATT'
p1016
I47439
sS'CCTTTT'
p1017
I59312
sS'GTTTCG'
p1018
I5997
sS'GTTTCC'
p1019
I42170
sS'GTTTCA'
p1020
I41770
sS'ATAATG'
p1021
I33072
sS'CCTTTA'
p1022
I34285
sS'CCTTTC'
p1023
I53298
sS'ATAATC'
p1024
I25203
sS'NNNNGA'
p1025
I3
sS'ATAATA'
p1026
I43659
sS'CCTTTG'
p1027
I45920
sS'ACAGAA'
p1028
I61493
sS'CTCTCG'
p1029
I10825
sS'ACAGAC'
p1030
I33842
sS'ACAGAG'
p1031
I63876
sS'TTATCT'
p1032
I45352
sS'CTGGAC'
p1033
I33173
sS'CTGGAA'
p1034
I63280
sS'CTGGAG'
p1035
I73200
sS'ACAGAT'
p1036
I39084
sS'TGGGGA'
p1037
I61812
sS'TTATCA'
p1038
I33982
sS'TCCAGC'
p1039
I56092
sS'TTATCC'
p1040
I22186
sS'CCAATG'
p1041
I23764
sS'AAACCG'
p1042
I7663
sS'AAACCA'
p1043
I49057
sS'CCAATC'
p1044
I21050
sS'AAACCC'
p1045
I37302
sS'CCAATA'
p1046
I20951
sS'TGTCGG'
p1047
I6016
sS'GAGATC'
p1048
I25174
sS'AACGAG'
p1049
I6694
sS'GAGATA'
p1050
I28642
sS'TGTCGC'
p1051
I7197
sS'GAGATG'
p1052
I43278
sS'TGTCGA'
p1053
I3455
sS'ATTTGA'
p1054
I46272
sS'CCAATT'
p1055
I25107
sS'TCCATA'
p1056
I23358
sS'TTGCCC'
p1057
I35180
sS'ATTTGG'
p1058
I41579
sS'CCCTAG'
p1059
I24451
sS'TGTCGT'
p1060
I5307
sS'CCCTAC'
p1061
I20076
sS'GAGATT'
p1062
I34387
sS'CCCTAA'
p1063
I24844
sS'CATTAT'
p1064
I33171
sS'CAATCG'
p1065
I3807
sS'TGGATT'
p1066
I34722
sS'ATCACA'
p1067
I38552
sS'ATCACC'
p1068
I26841
sS'CATGCT'
p1069
I34238
sS'TGACAC'
p1070
I28714
sS'ATCACG'
p1071
I7661
sS'TGGATA'
p1072
I23436
sS'AGGAAC'
p1073
I35437
sS'CATTAG'
p1074
I23813
sS'CATTAA'
p1075
I34844
sS'TGGATG'
p1076
I33323
sS'CATGCA'
p1077
I34378
sS'TGACAT'
p1078
I37110
sS'CATGCC'
p1079
I37151
sS'ATCACT'
p1080
I36434
sS'AATTAG'
p1081
I34925
sS'GTAGAA'
p1082
I26902
sS'GTAGAC'
p1083
I12446
sS'GTAGAG'
p1084
I27263
sS'GATTGG'
p1085
I20880
sS'ACAACC'
p1086
I21407
sS'GCATGA'
p1087
I30389
sS'GATTGC'
p1088
I19579
sS'GATTGA'
p1089
I18868
sS'ACTAAG'
p1090
I23050
sS'GTAGAT'
p1091
I17974
sS'TGCTAC'
p1092
I19295
sS'GGGTAC'
p1093
I11591
sS'ATGAGT'
p1094
I38172
sS'GATCAA'
p1095
I18813
sS'ACAACT'
p1096
I28271
sS'GCGCGT'
p1097
I6336
sS'TAATAG'
p1098
I24412
sS'GTCCGG'
p1099
I8981
sS'TAATAC'
p1100
I21932
sS'GTCCGA'
p1101
I4487
sS'TAATAA'
p1102
I48627
sS'GTCCGC'
p1103
I7962
sS'TGTTTA'
p1104
I52505
sS'GATCCC'
p1105
I20075
sS'CACATC'
p1106
I30405
sS'GTCCGT'
p1107
I5057
sS'TAATAT'
p1108
I36790
sS'GGGNCC'
p1109
I1
sS'ATTCGC'
p1110
I3781
sS'TTCTCC'
p1111
I60335
sS'TGAACT'
p1112
I36936
sS'TTCTCA'
p1113
I58900
sS'ATTCGG'
p1114
I4861
sS'TTCTCG'
p1115
I8642
sS'TCGTAC'
p1116
I2327
sS'TACCTT'
p1117
I26302
sS'TCGTAA'
p1118
I4285
sS'TCGTAG'
p1119
I3704
sS'TCGTCA'
p1120
I4971
sS'TAACGG'
p1121
I3848
sS'ATCCAA'
p1122
I27914
sS'ATCCAC'
p1123
I25480
sS'TGTTTG'
p1124
I54442
sS'TTCTCT'
p1125
I75992
sS'ATTCGT'
p1126
I4985
sS'GAACCC'
p1127
I25223
sS'TACCTG'
p1128
I25984
sS'TACCTA'
p1129
I18731
sS'TACCTC'
p1130
I22571
sS'TCGTAT'
p1131
I3610
sS'ATGTTA'
p1132
I33048
sS'ACCATA'
p1133
I19985
sS'ACCATG'
p1134
I32897
sS'ATGTTG'
p1135
I36404
sS'AGCTCT'
p1136
I46417
sS'TGTCCT'
p1137
I43671
sS'AGTGGT'
p1138
I31665
sS'CGTGGT'
p1139
I12386
sS'TGATGT'
p1140
I33349
sS'ATGTTT'
p1141
I58270
sS'ACCATT'
p1142
I27473
sS'AGTGGA'
p1143
I36186
sS'AGTGGC'
p1144
I40659
sS'AGCTCC'
p1145
I44909
sS'AGCTCA'
p1146
I43694
sS'CAGTAA'
p1147
I34371
sS'CAGTAC'
p1148
I17405
sS'CAGTAG'
p1149
I26969
sS'CGCGGT'
p1150
I7941
sS'TTTCAC'
p1151
I47112
sS'CAGTAT'
p1152
I25066
sS'ATGGNA'
p1153
I1
sS'GTTCCT'
p1154
I35127
sS'GATGGN'
p1155
I1
sS'TGCCAG'
p1156
I51610
sS'CCGGCT'
p1157
I19241
sS'GATCTA'
p1158
I13924
sS'GATCTC'
p1159
I24893
sS'ATTGAC'
p1160
I17350
sS'GATCTG'
p1161
I27664
sS'TTTCAG'
p1162
I60293
sS'CCGGCC'
p1163
I31310
sS'ATTAGG'
p1164
I22604
sS'AAAGTT'
p1165
I48079
sS'CACATT'
p1166
I46085
sS'ATTAGC'
p1167
I24291
sS'TCCCTC'
p1168
I59311
sS'GAGCTT'
p1169
I31147
sS'TCCCTA'
p1170
I27813
sS'TGCCAC'
p1171
I40738
sS'TCCCTG'
p1172
I65830
sS'GATCTT'
p1173
I25681
sS'AAGTGA'
p1174
I50808
sS'AAGTGC'
p1175
I36305
sS'TGTTCT'
p1176
I47419
sS'AAGTGG'
p1177
I38248
sS'TGATTG'
p1178
I27655
sS'TGCGCA'
p1179
I8233
sS'TCTGAT'
p1180
I36805
sS'TGATTA'
p1181
I30209
sS'TGTTCA'
p1182
I36791
sS'CACAAG'
p1183
I34735
sS'TGTTCC'
p1184
I34276
sS'AAGTGT'
p1185
I34965
sS'CACAAC'
p1186
I25049
sS'TGTTCG'
p1187
I4705
sS'TCTGAA'
p1188
I51764
sS'TGATTT'
p1189
I54290
sS'TCTGAG'
p1190
I54077
sS'CGCGCC'
p1191
I22696
sS'CGCGCA'
p1192
I8498
sS'GGTAAA'
p1193
I26636
sS'CGCGCG'
p1194
I17636
sS'CTCCCT'
p1195
I74311
sS'AGCGGG'
p1196
I16833
sS'AGCGGA'
p1197
I9171
sS'ACCTCT'
p1198
I40326
sS'AGATGA'
p1199
I47263
sS'GACGTG'
p1200
I9015
sS'CGCGCT'
p1201
I10005
sS'GTGCGA'
p1202
I4970
sS'ACCTCA'
p1203
I42003
sS'ACCTCG'
p1204
I10617
sS'GTGCGG'
p1205
I11211
sS'GCCTCT'
p1206
I51162
sS'TAAGCC'
p1207
I21983
sS'TAGCTC'
p1208
I21794
sS'CCCATG'
p1209
I31953
sS'CGGGAA'
p1210
I14636
sS'TAATTT'
p1211
I66711
sS'TAGCTG'
p1212
I35153
sS'CCCATC'
p1213
I35335
sS'CCGAGA'
p1214
I13158
sS'CCTGCT'
p1215
I58038
sS'GTCTAT'
p1216
I15661
sS'CCGAAT'
p1217
I4910
sS'CCCATT'
p1218
I34514
sS'CGGGAT'
p1219
I7912
sS'GCCTCG'
p1220
I18756
sS'TAGCTT'
p1221
I25553
sS'TAAGCT'
p1222
I23425
sS'GCCTCC'
p1223
I72520
sS'CCGAAC'
p1224
I4902
sS'CCTGCG'
p1225
I17828
sS'CCGAAA'
p1226
I6978
sS'CCGAAG'
p1227
I9351
sS'CCTGCC'
p1228
I76219
sS'CCTGCA'
p1229
I49983
sS'GTACTG'
p1230
I17475
sS'CCATTC'
p1231
I32973
sS'TATAAG'
p1232
I22099
sS'TATAAA'
p1233
I54086
sS'TATAAC'
p1234
I18650
sS'TAACGA'
p1235
I4011
sS'CATTTC'
p1236
I58403
sS'GGTTCG'
p1237
I4777
sS'GTACTC'
p1238
I12383
sS'GTTCTA'
p1239
I21148
sS'CCATTT'
p1240
I50829
sS'TCAGCG'
p1241
I10173
sS'TCTACC'
p1242
I21582
sS'CTAACT'
p1243
I21973
sS'TCTACG'
p1244
I4316
sS'ACTTTC'
p1245
I39705
sS'CGCAAC'
p1246
I4594
sS'ACTCCA'
p1247
I44354
sS'CGCAAA'
p1248
I6190
sS'ATACCG'
p1249
I3081
sS'GACGCG'
p1250
I6818
sS'ATACCA'
p1251
I24359
sS'ATACCC'
p1252
I14166
sS'TCTACT'
p1253
I31109
sS'ATACCT'
p1254
I22742
sS'CGCAAT'
p1255
I4503
sS'TAGTAA'
p1256
I25713
sS'TGGGTG'
p1257
I52464
sS'TAGTAC'
p1258
I11465
sS'CTCAAG'
p1259
I41224
sS'CTCAAA'
p1260
I55210
sS'TAGTAG'
p1261
I20193
sS'CTCAAC'
p1262
I24871
sS'GTGTGC'
p1263
I29693
sS'GTGTGA'
p1264
I36058
sS'GTGTGG'
p1265
I42372
sS'CTCAAT'
p1266
I26874
sS'TAGTAT'
p1267
I18989
sS'CTCCCG'
p1268
I27473
sS'GTGTGT'
p1269
I75042
sS'ATCTTT'
p1270
I48544
sS'GTTGGG'
p1271
I29258
sS'GTTGGA'
p1272
I24338
sS'GTTGGC'
p1273
I23845
sS'CCTTGG'
p1274
I47306
sS'CCTTGA'
p1275
I34572
sS'GCGTAT'
p1276
I2951
sS'AGGATT'
p1277
I37084
sS'AGTCTT'
p1278
I35762
sS'CTAAGC'
p1279
I20762
sS'GTTGGT'
p1280
I20955
sS'ATCTTG'
p1281
I34251
sS'ATCTTA'
p1282
I28903
sS'ATCTTC'
p1283
I32310
sS'CCTTGT'
p1284
I34363
sS'AGGATA'
p1285
I25321
sS'AGGATG'
p1286
I40288
sS'GACATG'
p1287
I25790
sS'ATCAGG'
p1288
I28796
sS'TTGCGT'
p1289
I5398
sS'GACATA'
p1290
I20286
sS'TCGGCG'
p1291
I6503
sS'GAATAT'
p1292
I30311
sS'TCGGCC'
p1293
I14813
sS'ATCAGA'
p1294
I37479
sS'TTGCGA'
p1295
I4012
sS'GACATT'
p1296
I33848
sS'TTGCGG'
p1297
I6317
sS'GAATAG'
p1298
I21955
sS'TCGGCT'
p1299
I11212
sS'ATCAGC'
p1300
I27162
sS'GAATAC'
p1301
I18302
sS'GAATAA'
p1302
I37582
sS'ACTTTT'
p1303
I56725
sS'TGCAGA'
p1304
I48995
sS'ATACAA'
p1305
I36075
sS'GGACGA'
p1306
I6472
sS'TGCCTC'
p1307
I54431
sS'TTATAA'
p1308
I43866
sS'GAAATG'
p1309
I58310
sS'AATGAT'
p1310
I39015
sS'GAAATA'
p1311
I52471
sS'GAAATC'
p1312
I34191
sS'GAAATT'
p1313
I47684
sS'AATGAA'
p1314
I65341
sS'ATGTCC'
p1315
I24529
sS'AATGAC'
p1316
I36560
sS'AATGAG'
p1317
I48851
sS'AGGAAA'
p1318
I91062
sS'CTTGGA'
p1319
I39830
sS'CTTGGC'
p1320
I44242
sS'GTATTG'
p1321
I16687
sS'GTTTTC'
p1322
I48840
sS'CTTGGG'
p1323
I45976
sS'AGCCCT'
p1324
I48184
sS'GCGTAA'
p1325
I3315
sS'TTGAAT'
p1326
I39851
sS'GTCCTA'
p1327
I16648
sS'CAAGCT'
p1328
I32310
sS'TGCACG'
p1329
I9073
sS'CTTGGT'
p1330
I31133
sS'GTCCTG'
p1331
I37772
sS'TGCACC'
p1332
I26700
sS'TTGAAA'
p1333
I58409
sS'TTGAAC'
p1334
I29658
sS'AGCCCA'
p1335
I48887
sS'TTGAAG'
p1336
I37135
sS'TTAACT'
p1337
I33089
sS'ATAAAT'
p1338
I69161
sS'TGGTCG'
p1339
I5018
sS'TGGTCA'
p1340
I30706
sS'TGGTCC'
p1341
I23277
sS'ACGATT'
p1342
I4784
sS'GAGACT'
p1343
I35727
sS'GATTCA'
p1344
I31724
sS'TGGTCT'
p1345
I37111
sS'ATAAAG'
p1346
I43610
sS'ATAAAA'
p1347
I84693
sS'TCAGCC'
p1348
I52218
sS'ATAAAC'
p1349
I39507
sS'GAGACG'
p1350
I13766
sS'ACGATG'
p1351
I5764
sS'GAGACC'
p1352
I33169
sS'ACGATC'
p1353
I4017
sS'GAGACA'
p1354
I48090
sS'ACGATA'
p1355
I3203
sS'GGTTAC'
p1356
I14646
sS'ATGTGT'
p1357
I42380
sS'GGTTAA'
p1358
I21463
sS'GACGTC'
p1359
I6901
sS'GGTTAG'
p1360
I16721
sS'CTTCCT'
p1361
I82723
sS'GAATGT'
p1362
I39406
sS'GAGGAC'
p1363
I30957
sS'CGTGAA'
p1364
I8097
sS'CTCAGT'
p1365
I44043
sS'TCCGCT'
p1366
I9314
sS'CTTCCA'
p1367
I52931
sS'ATGTGG'
p1368
I37306
sS'ATGTGA'
p1369
I41639
sS'CGTATG'
p1370
I3748
sS'CTTCCG'
p1371
I12917
sS'GGTTAT'
p1372
I18471
sS'TCCGCC'
p1373
I19914
sS'TCCGCA'
p1374
I8162
sS'TCCGCG'
p1375
I8928
sS'AACGTC'
p1376
I5866
sS'AACGTA'
p1377
I5345
sS'AACGTG'
p1378
I9391
sS'CGTGAC'
p1379
I8135
sS'GGTAGC'
p1380
I14688
sS'AGTGTG'
p1381
I37403
sS'TCTTCG'
p1382
I6977
sS'AGTGTA'
p1383
I22034
sS'TCTTCA'
p1384
I47774
sS'AGTGTC'
p1385
I26978
sS'TCTTCC'
p1386
I59239
sS'CGTGAT'
p1387
I7533
sS'ACTCAA'
p1388
I32454
sS'TAAGTC'
p1389
I19881
sS'AACGTT'
p1390
I7731
sS'CCGTGA'
p1391
I8932
sS'TCTTCT'
p1392
I59915
sS'AGTGTT'
p1393
I37157
sS'AACCGG'
p1394
I6369
sS'GTGCGC'
p1395
I9579
sS'TTGGCA'
p1396
I39219
sS'AAAGGT'
p1397
I37187
sS'TTGGCC'
p1398
I37221
sS'GAGTAG'
p1399
I24053
sS'CTTATT'
p1400
I37661
sS'TTGGCG'
p1401
I7228
sS'GACTTC'
p1402
I28960
sS'TCGAGT'
p1403
I4963
sS'GACTTA'
p1404
I19676
sS'GACTTG'
p1405
I27850
sS'AAAGGG'
p1406
I48550
sS'AAAGGA'
p1407
I66334
sS'TTGGCT'
p1408
I42913
sS'AAAGGC'
p1409
I42642
sS'GAGTAC'
p1410
I12638
sS'GTATGG'
p1411
I13933
sS'GTCGAT'
p1412
I2387
sS'GACTTT'
p1413
I35214
sS'TTCTTT'
p1414
I99375
sS'CAAGAA'
p1415
I49120
sS'AGCGAG'
p1416
I13197
sS'CAAGAC'
p1417
I30470
sS'CAAGAG'
p1418
I41958
sS'CGTATT'
p1419
I5294
sS'TTCTTG'
p1420
I48995
sS'TTCTTC'
p1421
I59286
sS'TTCTTA'
p1422
I46618
sS'CAAGAT'
p1423
I34094
sS'AGGGCT'
p1424
I47929
sS'TACGGG'
p1425
I4343
sS'TACGGA'
p1426
I4127
sS'TACGGC'
p1427
I3543
sS'CCAACT'
p1428
I29068
sS'TAGAGT'
p1429
I22523
sS'TACGGT'
p1430
I3692
sS'AGGGCG'
p1431
I19714
sS'AGGGCA'
p1432
I51331
sS'AGGGCC'
p1433
I42476
sS'TCGAGA'
p1434
I7989
sS'TAGAGC'
p1435
I19810
sS'TAGAGA'
p1436
I40727
sS'TAGAGG'
p1437
I28610
sS'AGTAAT'
p1438
I31539
sS'GTGCTG'
p1439
I48868
sS'GTGCTA'
p1440
I19310
sS'ATCTGT'
p1441
I39387
sS'GTGCTC'
p1442
I25882
sS'TTGCGC'
p1443
I5594
sS'ATCTGA'
p1444
I37718
sS'GTGCTT'
p1445
I32072
sS'ATCTGC'
p1446
I32252
sS'TCGAGG'
p1447
I8086
sS'CGAATG'
p1448
I5578
sS'ATCTGG'
p1449
I34875
sS'ATCATA'
p1450
I26409
sS'GATAGC'
p1451
I12201
sS'AAGCAG'
p1452
I54403
sS'GATAGA'
p1453
I20110
sS'AAGCAA'
p1454
I53206
sS'GATAGG'
p1455
I16256
sS'ATCATG'
p1456
I29195
sS'TTTACC'
p1457
I26505
sS'GTTATG'
p1458
I19104
sS'CTAGGT'
p1459
I20637
sS'CATTTA'
p1460
I51808
sS'ACGCAT'
p1461
I5092
sS'CATTTG'
p1462
I48287
sS'GTTATA'
p1463
I18405
sS'CAAACA'
p1464
I54237
sS'AAGCAT'
p1465
I36151
sS'CAAACC'
p1466
I30163
sS'GTGGCC'
p1467
I38313
sS'ATCATT'
p1468
I38933
sS'GATAGT'
p1469
I14289
sS'ACGCAG'
p1470
I10596
sS'CTAGGG'
p1471
I24624
sS'GTTATT'
p1472
I32414
sS'CTAGGC'
p1473
I22823
sS'CATTTT'
p1474
I85520
sS'CTAGGA'
p1475
I29665
sS'AAGTTT'
p1476
I48160
sS'TACAGT'
p1477
I30220
sS'CTCGAA'
p1478
I8093
sS'CTAACG'
p1479
I4252
sS'GCGCCT'
p1480
I16987
sS'CTAAGA'
p1481
I28800
sS'GGGGCT'
p1482
I47761
sS'TACAGG'
p1483
I38289
sS'AAGTTG'
p1484
I30868
sS'GGATGC'
p1485
I22172
sS'AAGTTA'
p1486
I34354
sS'TACAGC'
p1487
I24244
sS'AAGTTC'
p1488
I31208
sS'TACAGA'
p1489
I37847
sS'GGGGCC'
p1490
I48575
sS'GTATGA'
p1491
I19134
sS'GGGGCA'
p1492
I42755
sS'GGGGCG'
p1493
I37754
sS'TATATC'
p1494
I19024
sS'TATATA'
p1495
I43533
sS'TGTATA'
p1496
I28338
sS'TATATG'
p1497
I27076
sS'TCCGGT'
p1498
I6288
sS'GGTCCA'
p1499
I19959
sS'TATATT'
p1500
I43893
sS'TGATGG'
p1501
I30792
sS'CTCGGT'
p1502
I8766
sS'TGATGC'
p1503
I24075
sS'GCCCAC'
p1504
I33455
sS'TGATGA'
p1505
I39207
sS'TGCCAT'
p1506
I36766
sS'ACTCTT'
p1507
I35403
sS'TGTTTC'
p1508
I52525
sS'CACATA'
p1509
I34021
sS'TTAATT'
p1510
I51602
sS'CACATG'
p1511
I40429
sS'TTTCAT'
p1512
I62549
sS'ATGAGA'
p1513
I42562
sS'ATGAGC'
p1514
I28427
sS'ATGAGG'
p1515
I38481
sS'TTAATA'
p1516
I40865
sS'ACTCTG'
p1517
I46945
sS'TTAATC'
p1518
I26983
sS'ACTCTA'
p1519
I22754
sS'TGCCAA'
p1520
I39162
sS'ACTCTC'
p1521
I29453
sS'TTAATG'
p1522
I34878
sS'AAATTC'
p1523
I50271
sS'AAATTA'
p1524
I66346
sS'AAATTG'
p1525
I41807
sS'CCAGTA'
p1526
I23488
sS'TTCAAT'
p1527
I32911
sS'AGACCG'
p1528
I7150
sS'NNNNTT'
p1529
I1
sS'AAATTT'
p1530
I69410
sS'TTCGAA'
p1531
I5431
sS'CTTAGT'
p1532
I23264
sS'CGTCTA'
p1533
I3977
sS'GGGAAC'
p1534
I29280
sS'GGTGCG'
p1535
I10935
sS'GGGAAA'
p1536
I62345
sS'GGGAAG'
p1537
I66209
sS'GGTGCC'
p1538
I30096
sS'GGTGCA'
p1539
I26621
sS'AGAGCG'
p1540
I12936
sS'GCGACT'
p1541
I5792
sS'AGAGCC'
p1542
I42891
sS'AGAGCA'
p1543
I48012
sS'GCGTAG'
p1544
I3993
sS'GGTGCT'
p1545
I31427
sS'GCGTAC'
p1546
I2390
sS'GGGAAT'
p1547
I32735
sS'GCGACG'
p1548
I4846
sS'AGAGCT'
p1549
I45660
sS'GCGACA'
p1550
I7235
sS'TATCGG'
p1551
I2500
sS'GCGACC'
p1552
I7279
sS'AGGTCG'
p1553
I7165
sS'GCAGGA'
p1554
I57428
sS'GCAGGC'
p1555
I46615
sS'AGNTGC'
p1556
I1
sS'GCAGGG'
p1557
I63017
sS'GGCGAT'
p1558
I5493
sS'GCACTA'
p1559
I14963
sS'CCGTGC'
p1560
I11055
sS'GCTCGG'
p1561
I14376
sS'TATTCT'
p1562
I40032
sS'CCGTGG'
p1563
I14426
sS'CTTAGC'
p1564
I22321
sS'CTTTAG'
p1565
I29459
sS'GCAGGT'
p1566
I35317
sS'ACCCTA'
p1567
I18888
sS'TATTCC'
p1568
I26820
sS'CAATTG'
p1569
I19108
sS'TATTCA'
p1570
I37514
sS'CAATTA'
p1571
I27961
sS'TATTCG'
p1572
I3592
sS'GGCGAC'
p1573
I10078
sS'TGTAGA'
p1574
I27781
sS'GGCTCA'
p1575
I51281
sS'TGTAGC'
p1576
I20554
sS'GGCTCC'
p1577
I48253
sS'TTTACG'
p1578
I5566
sS'TGTAGG'
p1579
I22988
sS'TGCTTA'
p1580
I32518
sS'TTCGGA'
p1581
I5756
sS'TTCGGC'
p1582
I6259
sS'CTTTAC'
p1583
I26506
sS'TTCAAG'
p1584
I44327
sS'TTCGGG'
p1585
I8694
sS'AGCATG'
p1586
I33860
sS'GGCTCT'
p1587
I42893
sS'TGTAGT'
p1588
I26788
sS'TTTACT'
p1589
I45628
sS'AGCATA'
p1590
I23508
sS'AGACCT'
p1591
I30924
sS'TTCGGT'
p1592
I5399
sS'GAGCAT'
p1593
I24093
sS'GTTTAT'
p1594
I38989
sS'GTCTAG'
p1595
I16297
sS'ATACAT'
p1596
I34175
sS'CGCTAC'
p1597
I3922
sS'TGCTTG'
p1598
I37544
sS'GTTTAA'
p1599
I33809
sS'TCCAGG'
p1600
I60695
sS'CACGAA'
p1601
I6949
sS'CGAATT'
p1602
I4840
sS'GTTTAG'
p1603
I22087
sS'GAGGTA'
p1604
I22522
sS'CTGGCT'
p1605
I62998
sS'AGGCGG'
p1606
I27526
sS'GTCGGT'
p1607
I4332
sS'AGGCGC'
p1608
I16891
sS'AGGAGT'
p1609
I43026
sS'ACAGCC'
p1610
I42373
sS'ACAGCA'
p1611
I49453
sS'GAGGTC'
p1612
I32220
sS'ACAGCG'
p1613
I10951
sS'AGGAGC'
p1614
I45727
sS'AGGCGT'
p1615
I13250
sS'AGGAGA'
p1616
I65916
sS'CTGGCG'
p1617
I15643
sS'AGGAGG'
p1618
I80801
sS'CTGGCA'
p1619
I51622
sS'GTCGGG'
p1620
I10457
sS'GCGCCC'
p1621
I27441
sS'ACAGCT'
p1622
I43974
sS'GCTCTC'
p1623
I35472
sS'ATTGGT'
p1624
I21395
sS'AATTTT'
p1625
I82255
sS'AAACAG'
p1626
I61192
sS'TGTCAC'
p1627
I36270
sS'CCCTCT'
p1628
I56719
sS'GCTCTA'
p1629
I20393
sS'TGTCAG'
p1630
I37867
sS'ATTGGG'
p1631
I21087
sS'AATTTA'
p1632
I53535
sS'AATTTC'
p1633
I47811
sS'AACGCC'
p1634
I7109
sS'AACGCA'
p1635
I6506
sS'AATTTG'
p1636
I45253
sS'ATTTAC'
p1637
I35186
sS'ATTTAA'
p1638
I62345
sS'TGTCAT'
p1639
I38662
sS'CCCTCG'
p1640
I15602
sS'TAAATA'
p1641
I65260
sS'CAATAT'
p1642
I27664
sS'TGACCA'
p1643
I30239
sS'TGACCC'
p1644
I27696
sS'TAAATC'
p1645
I31109
sS'TGACCG'
p1646
I6067
sS'CATTCG'
p1647
I5580
sS'CATTCC'
p1648
I45104
sS'CATTCA'
p1649
I44564
sS'NNTTGT'
p1650
I1
sS'TAAATG'
p1651
I51579
sS'ACAAAT'
p1652
I51986
sS'GATTAA'
p1653
I27065
sS'GTAGGC'
p1654
I14732
sS'GATTAC'
p1655
I26190
sS'GTAGGA'
p1656
I22267
sS'GTAGGG'
p1657
I20020
sS'GATTAG'
p1658
I18340
sS'GGCTTT'
p1659
I41938
sS'ACAAAC'
p1660
I41153
sS'TTTCAA'
p1661
I58401
sS'ACAAAA'
p1662
I82593
sS'ACAAAG'
p1663
I50541
sS'GCGGGC'
p1664
I26956
sS'AGGCGA'
p1665
I9960
sS'GCGGGA'
p1666
I19928
sS'GCGGGG'
p1667
I41481
sS'GATTAT'
p1668
I25200
sS'GTAGGT'
p1669
I17847
sS'GGCGTC'
p1670
I10273
sS'TAATGA'
p1671
I36172
sS'GATGTT'
p1672
I28551
sS'TAATGC'
p1673
I21541
sS'GGGATG'
p1674
I34200
sS'TAATGG'
p1675
I23535
sS'CAATAA'
p1676
I37108
sS'GCCCTC'
p1677
I44944
sS'GATGTG'
p1678
I29933
sS'GCCCTA'
p1679
I19086
sS'GATGTA'
p1680
I18293
sS'TAATGT'
p1681
I31910
sS'GATGTC'
p1682
I21038
sS'AACCTC'
p1683
I34049
sS'TGAAAT'
p1684
I62085
sS'GCTCTT'
p1685
I36810
sS'TTCTAA'
p1686
I44610
sS'ATCCGT'
p1687
I4535
sS'TTCTAC'
p1688
I26963
sS'TGAAAA'
p1689
I73759
sS'TGAAAC'
p1690
I42178
sS'TGAAAG'
p1691
I50995
sS'TTCTAT'
p1692
I36203
sS'ATCCGC'
p1693
I6886
sS'ATCCGA'
p1694
I4180
sS'ATCCGG'
p1695
I6019
sS'TGGCTC'
p1696
I51942
sS'TGGCTA'
p1697
I27873
sS'NNNNCT'
p1698
I1
sS'TGGCTG'
p1699
I61062
sS'GACCGG'
p1700
I7977
sS'GTCGGA'
p1701
I4770
sS'GGAATA'
p1702
I26586
sS'AGTTGT'
p1703
I27902
sS'AGCTAT'
p1704
I24940
sS'ATTAGT'
p1705
I24934
sS'AAGACA'
p1706
I48966
sS'GTCGGC'
p1707
I7195
sS'CGTCGA'
p1708
I1442
sS'TGGCTT'
p1709
I49565
sS'AGTTGG'
p1710
I28532
sS'AGCTAA'
p1711
I29074
sS'AGCTAC'
p1712
I25517
sS'AGTTGC'
p1713
I22940
sS'AGTTGA'
p1714
I27258
sS'AGCTAG'
p1715
I22774
sS'CGTTGA'
p1716
I4526
sS'TCCAGT'
p1717
I37882
sS'GCACCT'
p1718
I30066
sS'CAGTGT'
p1719
I41467
sS'TAACAA'
p1720
I35514
sS'TCAGGT'
p1721
I33156
sS'TCAAGG'
p1722
I34754
sS'CTGGCC'
p1723
I62303
sS'TCAAGC'
p1724
I28119
sS'CATGGA'
p1725
I33502
sS'CTAATA'
p1726
I23611
sS'CAGTGC'
p1727
I36956
sS'GCACCC'
p1728
I28904
sS'CAGTGA'
p1729
I55953
sS'CAGTGG'
p1730
I53699
sS'GCACCG'
p1731
I10866
sS'TCAAGT'
p1732
I34589
sS'TCAGGG'
p1733
I45897
sS'GAGCCC'
p1734
I42936
sS'TCAGGC'
p1735
I40144
sS'CGAGCT'
p1736
I8594
sS'CGTTGG'
p1737
I6473
sS'GTTCAT'
p1738
I25507
sS'TTCCCT'
p1739
I63719
sS'CGAGCG'
p1740
I7522
sS'CGAGCA'
p1741
I7385
sS'GAGCCG'
p1742
I19731
sS'CGAGCC'
p1743
I12324
sS'GTTCAG'
p1744
I29376
sS'TTCCCC'
p1745
I51243
sS'GTTCAC'
p1746
I21259
sS'TTCCCG'
p1747
I14802
sS'GATCAC'
p1748
I24527
sS'GGACCT'
p1749
I24528
sS'TACATG'
p1750
I26777
sS'AAGTAC'
p1751
I21487
sS'AAGTAA'
p1752
I42174
sS'TACATC'
p1753
I18284
sS'AAGTAG'
p1754
I29670
sS'TACATA'
p1755
I31320
sS'GCACAC'
p1756
I29451
sS'GGACCG'
p1757
I8978
sS'AACGCT'
p1758
I6789
sS'GGACCA'
p1759
I23040
sS'TCATCA'
p1760
I38838
sS'GGACCC'
p1761
I26738
sS'CACACG'
p1762
I12967
sS'TACATT'
p1763
I39058
sS'CACACC'
p1764
I42867
sS'CTGCAT'
p1765
I38285
sS'CACACA'
p1766
I91558
sS'TCTGCC'
p1767
I56434
sS'TCTGCA'
p1768
I48851
sS'TTAAGN'
p1769
I1
sS'TCTGCG'
p1770
I11065
sS'TAGATT'
p1771
I26507
sS'CCCGTC'
p1772
I12719
sS'TTAAGG'
p1773
I28288
sS'CCCGTA'
p1774
I4180
sS'TTAAGA'
p1775
I39613
sS'CCCGTG'
p1776
I12325
sS'TTAAGC'
p1777
I23347
sS'TTACGT'
p1778
I6054
sS'TAGATC'
p1779
I13968
sS'TGTCAA'
p1780
I28755
sS'TAGATA'
p1781
I23943
sS'TTTCGC'
p1782
I6239
sS'TAGATG'
p1783
I24969
sS'TCTGCT'
p1784
I54332
sS'TTACGC'
p1785
I3348
sS'TTAAGT'
p1786
I34732
sS'TTACGA'
p1787
I4107
sS'TTACGG'
p1788
I4420
sS'CCCGTT'
p1789
I7611
sS'AGTGAC'
p1790
I35677
sS'AGTGAA'
p1791
I44654
sS'GGACGT'
p1792
I7003
sS'AGTGAG'
p1793
I53266
sS'ACATTT'
p1794
I69994
sS'CGGGCG'
p1795
I23054
sS'AAACAC'
p1796
I47508
sS'TAAGAG'
p1797
I31224
sS'CGGGCC'
p1798
I23460
sS'TAAGAA'
p1799
I47271
sS'CGGGCA'
p1800
I15964
sS'TAAGAC'
p1801
I20781
sS'ATTTAT'
p1802
I69415
sS'AGTGAT'
p1803
I36202
sS'CTTTCC'
p1804
I60700
sS'TAAGAT'
p1805
I28442
sS'CCTGAA'
p1806
I45007
sS'CGGGCT'
p1807
I17333
sS'AGTAAA'
p1808
I45709
sS'CCTGAG'
p1809
I61226
sS'GTTAGG'
p1810
I18752
sS'AACGCG'
p1811
I3356
sS'TCATCT'
p1812
I46888
sS'GTTAGC'
p1813
I13752
sS'GTTAGA'
p1814
I19635
sS'ACCCCC'
p1815
I30231
sS'TATACG'
p1816
I3115
sS'GTTAGT'
p1817
I16186
sS'TATACC'
p1818
I13336
sS'TATACA'
p1819
I28183
sS'ATTGGC'
p1820
I22408
sS'CGTATA'
p1821
I3080
sS'TCTTGT'
p1822
I37688
sS'TCCACG'
p1823
I10661
sS'ACTAGT'
p1824
I14636
sS'TTTATT'
p1825
I98931
sS'GTAATA'
p1826
I23513
sS'ATTGGA'
p1827
I25501
sS'GTAATC'
p1828
I26043
sS'TCTAAC'
p1829
I19652
sS'CGTTCT'
p1830
I8115
sS'CCACCG'
p1831
I16307
sS'GGTAGG'
p1832
I22711
sS'CCACCA'
p1833
I51473
sS'CCACCC'
p1834
I60259
sS'GTTCGT'
p1835
I3876
sS'TTTATG'
p1836
I46011
sS'GTAATT'
p1837
I30635
sS'TTTATC'
p1838
I37954
sS'ACTAGC'
p1839
I14002
sS'TTTATA'
p1840
I53939
sS'ATAGAA'
p1841
I36650
sS'CCACCT'
p1842
I54331
sS'CGTTCG'
p1843
I2186
sS'ACTTGT'
p1844
I28354
sS'CGTTCA'
p1845
I6178
sS'CGTTCC'
p1846
I8509
sS'TCTAAT'
p1847
I29379
sS'CTTTGT'
p1848
I49756
sS'ACTGGG'
p1849
I43307
sS'CGCCAA'
p1850
I7211
sS'ACTGGA'
p1851
I37874
sS'ACTGGC'
p1852
I31306
sS'TAGTCC'
p1853
I17520
sS'GTGACC'
p1854
I26772
sS'TAGTCA'
p1855
I26257
sS'GTGACA'
p1856
I35736
sS'TAGTCG'
p1857
I2640
sS'GTGACG'
p1858
I7890
sS'ATTTAG'
p1859
I34633
sS'ACTGGT'
p1860
I24555
sS'CTTTGG'
p1861
I52584
sS'CTTTGC'
p1862
I41414
sS'CTTTGA'
p1863
I43163
sS'GTGACT'
p1864
I40794
sS'TAGTCT'
p1865
I21159
sS'GTGCAC'
p1866
I20959
sS'GCGCTT'
p1867
I8327
sS'ACCTAG'
p1868
I20523
sS'GCAATT'
p1869
I27568
sS'ACCTAA'
p1870
I22952
sS'CGACGC'
p1871
I4482
sS'ACCTAC'
p1872
I17991
sS'CCGCAG'
p1873
I20074
sS'CCGCAA'
p1874
I6522
sS'CCGCAC'
p1875
I11648
sS'GGGACT'
p1876
I33059
sS'CGAAGC'
p1877
I7632
sS'GCGCTG'
p1878
I18162
sS'CGAAGA'
p1879
I6930
sS'CACTCA'
p1880
I38314
sS'CGAAGG'
p1881
I9057
sS'GCGCTC'
p1882
I14395
sS'GTGCAT'
p1883
I23171
sS'GCGCTA'
p1884
I4092
sS'NCTGAC'
p1885
I1
sS'CCGCAT'
p1886
I5853
sS'ATTACC'
p1887
I19239
sS'GAAGAT'
p1888
I32185
sS'GGATCT'
p1889
I22683
sS'TCGGAA'
p1890
I6348
sS'TCGGAC'
p1891
I4398
sS'GAATCT'
p1892
I30306
sS'CCTATA'
p1893
I16525
sS'TCGGAG'
p1894
I9412
sS'GGATCG'
p1895
I5342
sS'GAAGAG'
p1896
I52361
sS'GAAGAA'
p1897
I59636
sS'GGATCC'
p1898
I20557
sS'GAAGAC'
p1899
I30171
sS'GGATCA'
p1900
I25234
sS'GGATCN'
p1901
I2
sS'GAATCA'
p1902
I35984
sS'GAATCC'
p1903
I23597
sS'TCGGAT'
p1904
I4097
sS'GAATCG'
p1905
I6088
sS'ATGGTC'
p1906
I18030
sS'CAGATG'
p1907
I45881
sS'ACGCCG'
p1908
I6049
sS'CATTCT'
p1909
I51717
sS'ACGCCA'
p1910
I8951
sS'CAGATC'
p1911
I27710
sS'ACGCCC'
p1912
I14844
sS'CAGATA'
p1913
I32351
sS'CTCGAG'
p1914
I8523
sS'CAGATT'
p1915
I38046
sS'CTCGAC'
p1916
I4949
sS'ATGGTT'
p1917
I27117
sS'TCGCAA'
p1918
I4054
sS'TGCGTC'
p1919
I7146
sS'CCGGTA'
p1920
I3910
sS'NNNTTG'
p1921
I1
sS'AATGGT'
p1922
I27704
sS'GGGACG'
p1923
I13617
sS'AATGGC'
p1924
I30025
sS'AATGGA'
p1925
I40899
sS'AATGGG'
p1926
I34716
sS'CAATAC'
p1927
I16673
sS'CCCCGA'
p1928
I14665
sS'AATAGA'
p1929
I35408
sS'CAACTA'
p1930
I19316
sS'CGTTAG'
p1931
I4070
sS'TTGACC'
p1932
I20382
sS'GGAGGG'
p1933
I76912
sS'AAAAGT'
p1934
I56805
sS'GGAGGA'
p1935
I71897
sS'GGAGGC'
p1936
I71943
sS'TGGTAG'
p1937
I22767
sS'CGCCAT'
p1938
I9235
sS'GAGTGT'
p1939
I26746
sS'ATGATC'
p1940
I21721
sS'TGGTAA'
p1941
I27554
sS'AAAAGG'
p1942
I60018
sS'GGAGGT'
p1943
I43329
sS'AGCCAT'
p1944
I34580
sS'AAAAGC'
p1945
I49592
sS'AAAAGA'
p1946
I85378
sS'TTGACT'
p1947
I29914
sS'GAGTGG'
p1948
I35967
sS'CGCCAG'
p1949
I16086
sS'TGGTAT'
p1950
I23762
sS'ACGCCT'
p1951
I13389
sS'GAGTGC'
p1952
I28281
sS'CGCCAC'
p1953
I15857
sS'GAGTGA'
p1954
I37848
sS'GCCAGG'
p1955
I72676
sS'GCCAGA'
p1956
I42877
sS'GCCAGC'
p1957
I45529
sS'GCCCGT'
p1958
I8717
sS'CAATCC'
p1959
I21596
sS'TACCGA'
p1960
I3328
sS'TACCGC'
p1961
I3948
sS'TACTGA'
p1962
I29170
sS'CTTCAT'
p1963
I40993
sS'GCCCGC'
p1964
I26703
sS'GCCAGT'
p1965
I31038
sS'GCCCGA'
p1966
I10989
sS'GCCCGG'
p1967
I33125
sS'CTTCAC'
p1968
I34058
sS'CTTCAA'
p1969
I37271
sS'CTTCAG'
p1970
I49937
sS'TCCGAG'
p1971
I9992
sS'TCCGAA'
p1972
I5772
sS'TCCGAC'
p1973
I4811
sS'AATTCA'
p1974
I45923
sS'TNNNNN'
p1975
I1
sS'AATTCC'
p1976
I41143
sS'AATTCG'
p1977
I4865
sS'TCCGAT'
p1978
I3894
sS'GGACAA'
p1979
I27809
sS'TAGCGG'
p1980
I4677
sS'TAGCGA'
p1981
I3633
sS'TAGCGC'
p1982
I4033
sS'GTCATC'
p1983
I25664
sS'GTCATA'
p1984
I22104
sS'GTCATG'
p1985
I27308
sS'AGCAGG'
p1986
I57880
sS'CCAGGT'
p1987
I44904
sS'TTGGAA'
p1988
I49036
sS'AGCAGC'
p1989
I54014
sS'AGCAGA'
p1990
I53842
sS'GTCATT'
p1991
I36581
sS'ACGACC'
p1992
I4403
sS'CCAGGG'
p1993
I67412
sS'AGCAGT'
p1994
I38341
sS'CCAGGA'
p1995
I71978
sS'CCAGGC'
p1996
I83892
sS'TTGGAT'
p1997
I27871
sS'ATAGAG'
p1998
I25080
sS'CATCTG'
p1999
I45660
sS'ACGGTC'
p2000
I4888
sS'CATCTA'
p2001
I24920
sS'ATAGAC'
p2002
I15798
sS'CATCTC'
p2003
I43652
sS'ACGGTG'
p2004
I9777
sS'TCCAAC'
p2005
I24709
sS'GGATGG'
p2006
I35071
sS'GATCGT'
p2007
I4039
sS'CATCTT'
p2008
I42008
sS'CAAGCA'
p2009
I38004
sS'ACGGTT'
p2010
I4967
sS'GTTCTT'
p2011
I36018
sS'ACCTCC'
p2012
I43540
sS'CGTAAT'
p2013
I4256
sS'ACATGC'
p2014
I28343
sS'TCTTGA'
p2015
I37977
sS'ACATGG'
p2016
I35754
sS'AGGGAT'
p2017
I31841
sS'GGCCAT'
p2018
I26067
sS'CGTAAG'
p2019
I4795
sS'GAGTCA'
p2020
I51108
sS'ACATGT'
p2021
I33738
sS'CGTAAC'
p2022
I3378
sS'CGTAAA'
p2023
I5748
sS'AGGGAG'
p2024
I73388
sS'ACGGAA'
p2025
I7843
sS'CTCGTT'
p2026
I6683
sS'CCCGCC'
p2027
I49023
sS'AGGGAA'
p2028
I63658
sS'CCCTTT'
p2029
I47778
sS'AGCGCA'
p2030
I8417
sS'GTTGTT'
p2031
I32196
sS'ATCCTT'
p2032
I33804
sS'TTGTCG'
p2033
I4088
sS'TTGTCC'
p2034
I27444
sS'TTGTCA'
p2035
I33851
sS'ATCCTC'
p2036
I32885
sS'GTTGTA'
p2037
I18136
sS'ATCCTA'
p2038
I22363
sS'GTTGTC'
p2039
I17689
sS'ATCCTG'
p2040
I38450
sS'GTTGTG'
p2041
I24506
sS'TTGTCT'
p2042
I40549
sS'CTATGC'
p2043
I16630
sS'GTTGTN'
p2044
I1
sS'CTGTGG'
p2045
I56250
sS'AAGGGG'
p2046
I40274
sS'TGACTC'
p2047
I51485
sS'TGGGCA'
p2048
I52910
sS'TGGGCG'
p2049
I21234
sS'TGACTG'
p2050
I37799
sS'AAGCCG'
p2051
I10143
sS'NNNNGC'
p2052
I1
sS'AAGCCC'
p2053
I35567
sS'AAGCCA'
p2054
I49780
sS'CAAAAT'
p2055
I60118
sS'TGACTT'
p2056
I42677
sS'TGGGCT'
p2057
I49049
sS'CAAAAC'
p2058
I48561
sS'CAAAAA'
p2059
I81290
sS'AAGCCT'
p2060
I39861
sS'CAAAAG'
p2061
I49871
sS'TCTGAC'
p2062
I33483
sS'TCAATG'
p2063
I25537
sS'CCCTTA'
p2064
I22499
sS'TCAATC'
p2065
I18757
sS'TCAATA'
p2066
I27113
sS'CAGTTC'
p2067
I34054
sS'GACCCG'
p2068
I11029
sS'CAGTTG'
p2069
I29389
sS'GACCCC'
p2070
I26426
sS'CTCTGT'
p2071
I63120
sS'TCAATT'
p2072
I29847
sS'GGCCAG'
p2073
I61867
sS'CTCTGC'
p2074
I63812
sS'GACCCT'
p2075
I26884
sS'CTCTGA'
p2076
I54043
sS'ACAATC'
p2077
I21303
sS'CTCTGG'
p2078
I61863
sS'CAGTTT'
p2079
I52591
sS'GCGAAG'
p2080
I7785
sS'ACGTTC'
p2081
I6380
sS'TGCTGG'
p2082
I63449
sS'CGAGGT'
p2083
I10748
sS'TGCTGA'
p2084
I47492
sS'CCCTTG'
p2085
I35341
sS'GCGAAA'
p2086
I6113
sS'AGCTGC'
p2087
I47617
sS'GCTGGT'
p2088
I38814
sS'GTGATT'
p2089
I33316
sS'CTACTA'
p2090
I20092
sS'TGCTGT'
p2091
I49515
sS'AGCTGA'
p2092
I47832
sS'GCCCTT'
p2093
I35858
sS'TCGCTA'
p2094
I3637
sS'GTGATG'
p2095
I30658
sS'GCTGGG'
p2096
I89064
sS'GTGATC'
p2097
I24453
sS'GCTGGC'
p2098
I45388
sS'GTGATA'
p2099
I20527
sS'GCTGGA'
p2100
I56302
sS'TGATAA'
p2101
I33814
sS'TGATAC'
p2102
I16935
sS'TGATAG'
p2103
I19759
sS'CTTGTT'
p2104
I38965
sS'GACGGT'
p2105
I5502
sS'GCTAGG'
p2106
I21791
sS'GCTAGA'
p2107
I20311
sS'ATGAAT'
p2108
I47582
sS'GCTAGC'
p2109
I12458
sS'AAGGGT'
p2110
I27978
sS'TGATAT'
p2111
I27040
sS'GCTAGT'
p2112
I14193
sS'ATGAAC'
p2113
I25691
sS'GACGGG'
p2114
I12928
sS'ATGAAA'
p2115
I62968
sS'GACGGA'
p2116
I8779
sS'ATGAAG'
p2117
I40841
sS'GACGGC'
p2118
I8597
sS'CTTGTC'
p2119
I28604
sS'GCACTT'
p2120
I36666
sS'CTACTT'
p2121
I30159
sS'NNNGAA'
p2122
I3
sS'GNCCGC'
p2123
I1
sS'CCATAG'
p2124
I18857
sS'GGTGAA'
p2125
I33277
sS'GGTGAC'
p2126
I31577
sS'GCGTCT'
p2127
I8956
sS'TGTAAA'
p2128
I49774
sS'GGTGAG'
p2129
I42052
sS'GGAATG'
p2130
I44887
sS'CGTCCT'
p2131
I10577
sS'GGCTAA'
p2132
I23463
sS'GGAATC'
p2133
I25514
sS'GCCCTG'
p2134
I61945
sS'GCGTCA'
p2135
I6733
sS'GCGTCC'
p2136
I11618
sS'GGTGAT'
p2137
I26823
sS'GCGTCG'
p2138
I4468
sS'CGTCCG'
p2139
I5393
sS'GGAATT'
p2140
I40856
sS'CGTCCC'
p2141
I13482
sS'CGTCCA'
p2142
I7784
sS'TTTCGA'
p2143
I5303
sS'CCGTAT'
p2144
I3767
sS'GAAGTC'
p2145
I29183
sS'GAAGTA'
p2146
I26376
sS'GAAGTG'
p2147
I39474
sS'GCCGTA'
p2148
I3613
sS'CCGTAC'
p2149
I2912
sS'CCGTAA'
p2150
I4372
sS'CCGTAG'
p2151
I4581
sS'CTAACA'
p2152
I25303
sS'GCCGTT'
p2153
I5960
sS'CCCTCC'
p2154
I77550
sS'GAAGTT'
p2155
I34521
sS'GGCGCG'
p2156
I22524
sS'ATGCCC'
p2157
I27321
sS'TTAGTT'
p2158
I29950
sS'TATTAG'
p2159
I23777
sS'GGCGCC'
p2160
I26135
sS'TATTAA'
p2161
I40962
sS'GGCGCA'
p2162
I13081
sS'TATTAC'
p2163
I23584
sS'ACTATG'
p2164
I22086
sS'CAACGG'
p2165
I5375
sS'TTTAAG'
p2166
I46107
sS'ACTATC'
p2167
I14309
sS'TTTAAA'
p2168
I105682
sS'ACTATA'
p2169
I20132
sS'TTTAAC'
p2170
I33404
sS'TATTAT'
p2171
I43430
sS'TTAGTG'
p2172
I23970
sS'GGCGCT'
p2173
I16117
sS'TCAACA'
p2174
I34395
sS'TTAGTC'
p2175
I21932
sS'ATGCCT'
p2176
I39726
sS'TTAGTA'
p2177
I26333
sS'TTTAAT'
p2178
I60099
sS'ACTATT'
p2179
I27422
sS'GGGCAT'
p2180
I27184
sS'TTCTAG'
p2181
I34253
sS'TTTCCA'
p2182
I67113
sS'TTTCCC'
p2183
I62391
sS'GTACGT'
p2184
I3647
sS'GTTTGT'
p2185
I41345
sS'TTTCCT'
p2186
I90599
sS'GGGCAG'
p2187
I68328
sS'CCTGGA'
p2188
I60687
sS'GGGCAA'
p2189
I35027
sS'GGGCAC'
p2190
I32435
sS'GTACGG'
p2191
I3010
sS'GTTTGA'
p2192
I31418
sS'GTTTGG'
p2193
I32804
sS'GTACGA'
p2194
I2239
sS'CCGCTC'
p2195
I16174
sS'GCATGT'
p2196
I28478
sS'CCGCTA'
p2197
I4684
sS'CCGCTG'
p2198
I18042
sS'AGCATT'
p2199
I40504
sS'GCGCGG'
p2200
I23672
sS'GCGCGC'
p2201
I21964
sS'GCGCGA'
p2202
I6709
sS'GCATGG'
p2203
I29135
sS'TGGATC'
p2204
I22049
sS'GCATGC'
p2205
I23620
sS'CCGCTT'
p2206
I9862
sS'TGACCT'
p2207
I44797
sS'GTCGAC'
p2208
I2323
sS'GTCGAA'
p2209
I2981
sS'GTCGAG'
p2210
I4863
sS'AGACAT'
p2211
I35841
sS'GAGCTA'
p2212
I21462
sS'TGCGCT'
p2213
I8306
sS'GAGCTC'
p2214
I35252
sS'ATTGAT'
p2215
I23832
sS'GAGCTG'
p2216
I54862
sS'AAACGA'
p2217
I8727
sS'AAACGC'
p2218
I8041
sS'GTNNNN'
p2219
I1
sS'GTAACA'
p2220
I24106
sS'CACGCG'
p2221
I6648
sS'AAACGG'
p2222
I8886
sS'ATTGAA'
p2223
I32985
sS'TGCGCG'
p2224
I8420
sS'TGTCCA'
p2225
I34317
sS'TGTCCG'
p2226
I6860
sS'TGCGCC'
p2227
I13206
sS'ATTGAG'
p2228
I26563
sS'CGCTGA'
p2229
I10124
sS'GCGCAG'
p2230
I17463
sS'AAACGT'
p2231
I10528
sS'NNNNNT'
p2232
I1
sS'TGGGTT'
p2233
I35769
sS'ATTTCA'
p2234
I62428
sS'ATTTCC'
p2235
I53466
sS'ATCAGT'
p2236
I28516
sS'ATCGGG'
p2237
I5027
sS'CATAGT'
p2238
I22131
sS'ATCGGC'
p2239
I4103
sS'CCGTGT'
p2240
I9682
sS'ATCGGA'
p2241
I3711
sS'ATTTCT'
p2242
I71134
sS'CGATCA'
p2243
I3711
sS'TGGGTC'
p2244
I27923
sS'TTTCGG'
p2245
I6882
sS'TGGGTA'
p2246
I24342
sS'CATAGG'
p2247
I19326
sS'ATCGGT'
p2248
I3191
sS'CATGAC'
p2249
I27438
sS'CATAGC'
p2250
I20659
sS'CATAGA'
p2251
I24069
sS'ACGGGT'
p2252
I5585
sS'GTCTGA'
p2253
I28811
sS'GATTCT'
p2254
I34273
sS'CTTTTG'
p2255
I49588
sS'TACTAG'
p2256
I14543
sS'CTTTTC'
p2257
I63174
sS'CAGCAA'
p2258
I47234
sS'CTTTTA'
p2259
I52062
sS'GATTCC'
p2260
I25424
sS'ACGGGG'
p2261
I13434
sS'GATTCG'
p2262
I4133
sS'ACGGGC'
p2263
I8943
sS'TACTAT'
p2264
I21478
sS'CTTTTT'
p2265
I85806
sS'ACCAAC'
p2266
I21287
sS'CGTAGA'
p2267
I4213
sS'TCACGA'
p2268
I6763
sS'TCACGC'
p2269
I11876
sS'CGATTG'
p2270
I3846
sS'TCACGG'
p2271
I9184
sS'TCTCAT'
p2272
I42776
sS'TCACGT'
p2273
I9790
sS'TTCCAC'
p2274
I38537
sS'TTCCAA'
p2275
I49322
sS'TTCCAG'
p2276
I63685
sS'CGAGGC'
p2277
I18600
sS'ACCCTT'
p2278
I27871
sS'TGAAGT'
p2279
I38304
sS'AAACAA'
p2280
I90622
sS'CCACAT'
p2281
I37599
sS'AGGCAC'
p2282
I37566
sS'TTCCAT'
p2283
I45914
sS'TGAAGC'
p2284
I33785
sS'TGAAGA'
p2285
I48121
sS'TGAAGG'
p2286
I41637
sS'ACCCTG'
p2287
I44556
sS'CTGACT'
p2288
I43106
sS'CCCCTT'
p2289
I40094
sS'AGTTAT'
p2290
I28656
sS'ACATAT'
p2291
I34578
sS'CTGACG'
p2292
I8419
sS'CTGACC'
p2293
I38662
sS'CTGACA'
p2294
I37682
sS'AGTTAA'
p2295
I33248
sS'CCCCTG'
p2296
I49485
sS'AGTTAC'
p2297
I23035
sS'CCCCTC'
p2298
I56371
sS'AGTTAG'
p2299
I22026
sS'CCCCTA'
p2300
I21491
sS'ACACAG'
p2301
I56401
sS'ACACAA'
p2302
I42610
sS'ACACAC'
p2303
I76304
sS'AATGTT'
p2304
I51589
sS'CTGCAG'
p2305
I73198
sS'CATGGG'
p2306
I31675
sS'CTGCAC'
p2307
I41272
sS'CATGGC'
p2308
I33066
sS'TGTAAT'
p2309
I46414
sS'ACACAT'
p2310
I43170
sS'AATGTA'
p2311
I38943
sS'AATGTG'
p2312
I46092
sS'CATGGT'
p2313
I32765
sS'GCACAA'
p2314
I27139
sS'GCACAG'
p2315
I45287
sS'CGATTC'
p2316
I5967
sS'CCACAG'
p2317
I56164
sS'CGAGAT'
p2318
I7932
sS'ATTACT'
p2319
I32195
sS'CACAAT'
p2320
I32305
sS'ACATTG'
p2321
I29172
sS'ACATTA'
p2322
I32096
sS'ACATTC'
p2323
I39454
sS'ATTACA'
p2324
I46680
sS'ATGCTC'
p2325
I24262
sS'GTTCGC'
p2326
I3997
sS'CGAGAC'
p2327
I10930
sS'CGAGAA'
p2328
I8638
sS'AAGTCT'
p2329
I34990
sS'GCTATT'
p2330
I24739
sS'GGACAT'
p2331
I24269
sS'GCTATA'
p2332
I15351
sS'GCTATC'
p2333
I12382
sS'AAGTCG'
p2334
I5452
sS'AAGTCA'
p2335
I43000
sS'GCTATG'
p2336
I20729
sS'AAGTCC'
p2337
I28680
sS'GGACAG'
p2338
I42684
sS'GGACAC'
p2339
I28323
sS'CTATCG'
p2340
I2581
sS'CTAATT'
p2341
I35175
sS'AGGGTT'
p2342
I31938
sS'GAGGCG'
p2343
I25392
sS'TGTTGG'
p2344
I35579
sS'GAGGCA'
p2345
I54298
sS'TGTTGA'
p2346
I34187
sS'GAGGCC'
p2347
I54383
sS'TGTTGC'
p2348
I32549
sS'TCCAAG'
p2349
I40036
sS'ACTCGA'
p2350
I4985
sS'TAAAAT'
p2351
I81492
sS'ACTCGC'
p2352
I6540
sS'ACTCGG'
p2353
I10124
sS'TGTTGT'
p2354
I37816
sS'GAGGCT'
p2355
I57380
sS'AGCGCC'
p2356
I15917
sS'AGGGTG'
p2357
I44564
sS'AGGGTA'
p2358
I20972
sS'AGCGCG'
p2359
I10112
sS'AGGGTC'
p2360
I26886
sS'TAAAAG'
p2361
I52397
sS'ACTCGT'
p2362
I4864
sS'TAAAAC'
p2363
I45693
sS'TAAAAA'
p2364
I102348
sS'ACCCTC'
p2365
I32743
sS'TAGGGA'
p2366
I27868
sS'ACGTTA'
p2367
I5321
sS'TAGGGC'
p2368
I18972
sS'ACGTTG'
p2369
I6361
sS'AGCTGG'
p2370
I64716
sS'TAGGGG'
p2371
I21231
sS'AGTGCG'
p2372
I6845
sS'AGTGCA'
p2373
I35216
sS'AGAGTT'
p2374
I37707
sS'AGTGCC'
p2375
I31186
sS'AAAACC'
p2376
I44399
sS'TAGGGT'
p2377
I19121
sS'GCATAG'
p2378
I16239
sS'AGCTGT'
p2379
I43520
sS'ACGTTT'
p2380
I10377
sS'AGTGCT'
p2381
I43229
sS'AGAGTC'
p2382
I30545
sS'AGAGTA'
p2383
I26257
sS'AGAGTG'
p2384
I39433
sS'TAACCC'
p2385
I17369
sS'GTTAAA'
p2386
I33887
sS'CCTGGC'
p2387
I73032
sS'GTTAAC'
p2388
I15846
sS'GTCTGT'
p2389
I33880
sS'CCTGGG'
p2390
I94388
sS'GTTAAG'
p2391
I21926
sS'AGCCCG'
p2392
I17111
sS'TTCGTC'
p2393
I4836
sS'CTAATC'
p2394
I18581
sS'GTCTGG'
p2395
I36005
sS'GTCTGC'
p2396
I26774
sS'GTTAAT'
p2397
I23700
sS'CCTGGT'
p2398
I40302
sS'CCGGTC'
p2399
I8123
sS'GGAAGG'
p2400
I67510
sS'ATGCTT'
p2401
I36053
sS'GGAAGC'
p2402
I45940
sS'CTAATG'
p2403
I24002
sS'GGAAGA'
p2404
I59144
sS'TGTATT'
p2405
I45958
sS'TCCTCT'
p2406
I61516
sS'GCGTTC'
p2407
I6475
sS'CAATGC'
p2408
I22702
sS'CTGGAT'
p2409
I34723
sS'GCGTTG'
p2410
I5746
sS'CAATGG'
p2411
I26365
sS'ATGCTG'
p2412
I41152
sS'GGAAGT'
p2413
I41985
sS'CCACAC'
p2414
I43032
sS'ATGCTA'
p2415
I23683
sS'ATTTGT'
p2416
I51494
sS'TCCTCG'
p2417
I12361
sS'TGTATG'
p2418
I28215
sS'TCCTCA'
p2419
I50409
sS'GCGTTT'
p2420
I8183
sS'TCCTCC'
p2421
I71713
sS'TGTATC'
p2422
I21085
sS'GTGAAT'
p2423
I30872
sS'TAACCG'
p2424
I3583
sS'TCATAG'
p2425
I25341
sS'TTCGTG'
p2426
I6905
sS'CGTTAC'
p2427
I3488
sS'TTCGTA'
p2428
I4269
sS'TCATAC'
p2429
I19013
sS'TAACCA'
p2430
I25021
sS'ACCGCT'
p2431
I6732
sS'TCGCGA'
p2432
I2627
sS'AACCCA'
p2433
I35775
sS'TCAGGA'
p2434
I54660
sS'TTCGTT'
p2435
I7195
sS'TCATAT'
p2436
I31581
sS'TAACCT'
p2437
I24683
sS'GTGAAG'
p2438
I33860
sS'GTGAAA'
p2439
I47372
sS'GTGAAC'
p2440
I20951
sS'CAATAG'
p2441
I20648
sS'TGCATA'
p2442
I26458
sS'ACCGCG'
p2443
I7846
sS'ACCGCA'
p2444
I8116
sS'CCCTAT'
p2445
I17949
sS'ACCGCC'
p2446
I11742
sS'CCGCCT'
p2447
I27789
sS'AGGCTT'
p2448
I40185
sS'CCTTCT'
p2449
I57372
sS'GTTGCA'
p2450
I25665
sS'AACGAA'
p2451
I7203
sS'GTTGCC'
p2452
I25403
sS'GTGCCG'
p2453
I8855
sS'GTGCCA'
p2454
I34526
sS'GTTGCG'
p2455
I4350
sS'GTGCCC'
p2456
I32199
sS'CCGCCG'
p2457
I26602
sS'AGGCTA'
p2458
I24595
sS'CCTTCC'
p2459
I68247
sS'AGGCTC'
p2460
I39616
sS'CCGCCC'
p2461
I45514
sS'AACGAC'
p2462
I4245
sS'CCGCCA'
p2463
I16999
sS'AGGCTG'
p2464
I87037
sS'GTGCCT'
p2465
I36958
sS'GGCGAA'
p2466
I6954
sS'GTTGCT'
p2467
I28299
sS'NNNGCG'
p2468
I1
sS'GGATAT'
p2469
I19568
sS'TCGGGT'
p2470
I6898
sS'AAACCT'
p2471
I39995
sS'GCAGTT'
p2472
I31679
sS'GAAGCT'
p2473
I39179
sS'GGATAA'
p2474
I22218
sS'TCGGGA'
p2475
I10970
sS'NNNNNG'
p2476
I4
sS'TCGGGG'
p2477
I14821
sS'GGATAG'
p2478
I15478
sS'GAAGCG'
p2479
I10797
sS'GCAGTG'
p2480
I55395
sS'GAAGCC'
p2481
I39238
sS'GCAGTA'
p2482
I22157
sS'GAAGCA'
p2483
I43567
sS'GCAGTC'
p2484
I25299
sS'CGCCCG'
p2485
I22868
sS'GAGAGA'
p2486
I67957
sS'GAGAGG'
p2487
I60125
sS'CGCCCA'
p2488
I20777
sS'AGTTTG'
p2489
I39801
sS'CTATAG'
p2490
I15485
sS'NNNNNN'
p2491
I646
sS'GCATTC'
p2492
I29129
sS'CTATAA'
p2493
I26759
sS'CTCGCA'
p2494
I7569
sS'CTCGCC'
p2495
I16057
sS'GAGAGT'
p2496
I29591
sS'AAACAT'
p2497
I58940
sS'CTATAT'
p2498
I20743
sS'AACTGA'
p2499
I42322
sS'GCCGGG'
p2500
I36186
sS'AGCATC'
p2501
I26801
sS'TACCCG'
p2502
I4829
sS'GCCGGC'
p2503
I22589
sS'CATGTT'
p2504
I40147
sS'GCCGGA'
p2505
I12565
sS'AGATCT'
p2506
I29758
sS'AGTTTA'
p2507
I36374
sS'TACCCA'
p2508
I23911
sS'CATGTA'
p2509
I26826
sS'CATGTC'
p2510
I25839
sS'GCCGGT'
p2511
I8428
sS'CATGTG'
p2512
I40654
sS'AGTTCG'
p2513
I6439
sS'TACCCC'
p2514
I15891
sS'GGCCTG'
p2515
I56471
sS'GGCCTC'
p2516
I54065
sS'NNGCGC'
p2517
I1
sS'GGCCTA'
p2518
I17347
sS'AATCGG'
p2519
I4601
sS'AATCGC'
p2520
I5880
sS'AATCGA'
p2521
I4281
sS'TTCCCA'
p2522
I62015
sS'GGCCTT'
p2523
I35835
sS'TCACTA'
p2524
I25147
sS'TCACTC'
p2525
I38115
sS'AATCGT'
p2526
I4785
sS'AGCCGA'
p2527
I11426
sS'GAGCGT'
p2528
I6973
sS'AGCCGC'
p2529
I16950
sS'TAATTG'
p2530
I27702
sS'AAAAAT'
p2531
I119629
sS'AGCCGG'
p2532
I19123
sS'GTTTTT'
p2533
I67555
sS'TGGTGA'
p2534
I42860
sS'GGGCTC'
p2535
I43435
sS'TGGTGC'
p2536
I29725
sS'GATGGC'
p2537
I25553
sS'GGGCTG'
p2538
I65650
sS'TGGTGG'
p2539
I51445
sS'GATGGG'
p2540
I35408
sS'AAAAAA'
p2541
I280809
sS'GTTTTA'
p2542
I44998
sS'GTTTTG'
p2543
I48215
sS'GTTCAA'
p2544
I29605
sS'AAAAAG'
p2545
I86126
sS'TGACAG'
p2546
I41462
sS'CCAAGG'
p2547
I47300
sS'ACGTAT'
p2548
I5164
sS'TCTCAG'
p2549
I56702
sS'GATGGT'
p2550
I23604
sS'TGGTGT'
p2551
I33058
sS'GGGCTT'
p2552
I35573
sS'AGAACT'
p2553
I40201
sS'GCATTA'
p2554
I21610
sS'CCTTCG'
p2555
I9108
sS'TACCAT'
p2556
I22597
sS'AGATAG'
p2557
I25057
sS'ACCCGG'
p2558
I15552
sS'ACCCGA'
p2559
I6958
sS'ATGTCT'
p2560
I35472
sS'ACCCGC'
p2561
I12665
sS'AGATAA'
p2562
I44999
sS'TACCAC'
p2563
I20043
sS'AGAACG'
p2564
I7940
sS'TACCAA'
p2565
I22506
sS'AGAACA'
p2566
I47229
sS'TACCAG'
p2567
I23407
sS'AGAACC'
p2568
I28795
sS'ATGTCA'
p2569
I36803
sS'CACTGG'
p2570
I44529
sS'CCTATG'
p2571
I19489
sS'TGACAA'
p2572
I34104
sS'ACCAGG'
p2573
I40295
sS'CACTGC'
p2574
I55933
sS'CCTATC'
p2575
I16411
sS'CAGCGT'
p2576
I11002
sS'TAGGTT'
p2577
I21465
sS'GTTTAC'
p2578
I23184
sS'AATTAT'
p2579
I47258
sS'CTGTTG'
p2580
I37877
sS'GTAACC'
p2581
I14463
sS'CTGTTC'
p2582
I35591
sS'CGGGTT'
p2583
I9160
sS'CTGTTA'
p2584
I29443
sS'AATTAC'
p2585
I31070
sS'TAGGTG'
p2586
I23291
sS'TAGGTA'
p2587
I18575
sS'TAGGTC'
p2588
I15175
sS'CGGGTC'
p2589
I10836
sS'CTGTTT'
p2590
I60628
sS'CGGGTA'
p2591
I4922
sS'CGGGTG'
p2592
I15685
sS'CTTCGG'
p2593
I9378
sS'CACACT'
p2594
I37970
sS'CATTAC'
p2595
I21594
sS'GCAATG'
p2596
I28271
sS'TTAGGG'
p2597
I24571
sS'ATATAT'
p2598
I49917
sS'AGCAAC'
p2599
I28768
sS'TTAGGC'
p2600
I19015
sS'AAAGCT'
p2601
I45027
sS'TTAGGA'
p2602
I31859
sS'AAAGCA'
p2603
I62677
sS'ATATAG'
p2604
I20699
sS'TTAGGT'
p2605
I22825
sS'ATATAA'
p2606
I40362
sS'AGCAAT'
p2607
I36332
sS'ATATAC'
p2608
I22929
sS'ATAGCA'
p2609
I27914
sS'ATAGCC'
p2610
I16935
sS'TACTTG'
p2611
I26407
sS'ATAGCG'
p2612
I3434
sS'TCTCAC'
p2613
I39273
sS'CAGCAT'
p2614
I40850
sS'CAGCGC'
p2615
I18333
sS'ATAGCT'
p2616
I24900
sS'TACTTT'
p2617
I43901
sS'CATGCG'
p2618
I6682
sS'CGAGTT'
p2619
I6150
sS'TCCAAT'
p2620
I25372
sS'CGTACT'
p2621
I3243
sS'TCCCGT'
p2622
I9157
sS'TATGCT'
p2623
I23665
sS'CTTAAG'
p2624
I27545
sS'ACATAA'
p2625
I36822
sS'CTTAAA'
p2626
I46704
sS'ACATAG'
p2627
I25755
sS'CTTAAC'
p2628
I22194
sS'CGTACA'
p2629
I3802
sS'CGTACC'
p2630
I3085
sS'CGAGTA'
p2631
I4933
sS'TCCAAA'
p2632
I49092
sS'AGGGGA'
p2633
I51630
sS'CTTAAT'
p2634
I30657
sS'TATGCG'
p2635
I2859
sS'TATGCA'
p2636
I26512
sS'AGGGGG'
p2637
I39289
sS'TCATTA'
p2638
I36041
sS'CGACTT'
p2639
I5697
sS'TGAATT'
p2640
I46070
sS'TTGTAA'
p2641
I38271
sS'CACAAA'
p2642
I51448
sS'TTGTAC'
p2643
I18331
sS'CGTTTA'
p2644
I6289
sS'TGAATC'
p2645
I31845
sS'ACAACA'
p2646
I38797
sS'TGAATA'
p2647
I37991
sS'CGACTC'
p2648
I6944
sS'TGAATG'
p2649
I44485
sS'AAGTAT'
p2650
I31140
sS'CGACTG'
p2651
I6411
sS'TTGTAT'
p2652
I35834
sS'ATCGTG'
p2653
I5966
sS'GCTTCG'
p2654
I7640
sS'ATCGTC'
p2655
I3767
sS'GCTTCC'
p2656
I46185
sS'TGGGAG'
p2657
I74061
sS'TGGGAA'
p2658
I61263
sS'TGGGAC'
p2659
I32888
sS'GCTTCT'
p2660
I45115
sS'ATCGTT'
p2661
I4806
sS'ACAACG'
p2662
I5472
sS'TGGGAT'
p2663
I43725
sS'CTAGCC'
p2664
I19134
sS'GACCAT'
p2665
I17850
sS'CTAGCG'
p2666
I4695
sS'CGGTAG'
p2667
I4663
sS'ACTTAG'
p2668
I24055
sS'ACTTAA'
p2669
I35010
sS'CGGTAC'
p2670
I2993
sS'ACTTAC'
p2671
I22380
sS'CGGTAA'
p2672
I4335
sS'GACCAG'
p2673
I34306
sS'GACCAC'
p2674
I20977
sS'GACCAA'
p2675
I22054
sS'ACTTAT'
p2676
I24380
sS'CGGTAT'
p2677
I3069
sS'TACACA'
p2678
I36557
sS'TACACG'
p2679
I5174
sS'GCGAGA'
p2680
I10426
sS'GAGAGC'
p2681
I35201
sS'GCGAGC'
p2682
I11024
sS'GGCCGT'
p2683
I9560
sS'GCGAGG'
p2684
I16837
sS'CAGCCG'
p2685
I19462
sS'CAGCCA'
p2686
I60928
sS'CAGCCC'
p2687
I66138
sS'TCCGGG'
p2688
I17015
sS'GCGAGT'
p2689
I6600
sS'GAACTG'
p2690
I34605
sS'CCCTCA'
p2691
I43497
sS'GAACTC'
p2692
I29820
sS'GAACTA'
p2693
I20049
sS'GGACTT'
p2694
I28323
sS'CACCTA'
p2695
I23826
sS'AACTAT'
p2696
I25973
sS'CACCTC'
p2697
I47743
sS'CACCTG'
p2698
I51968
sS'TGATCC'
p2699
I25117
sS'AACACT'
p2700
I36855
sS'TGATCA'
p2701
I25254
sS'TGATCG'
p2702
I3702
sS'NAGAAA'
p2703
I1
sS'AACTAG'
p2704
I21088
sS'GGACTG'
p2705
I32300
sS'CACCTT'
p2706
I36981
sS'GGACTA'
p2707
I17407
sS'GGACTC'
p2708
I26276
sS'AACGAT'
p2709
I4790
sS'AACACG'
p2710
I8791
sS'TGCAAT'
p2711
I33519
sS'AACACC'
p2712
I26121
sS'TGATCT'
p2713
I32888
sS'AAAGAC'
p2714
I39539
sS'ACGCAC'
p2715
I7620
sS'CAACAG'
p2716
I38137
sS'GACAGT'
p2717
I27461
sS'CAACAA'
p2718
I38740
sS'CCAGCC'
p2719
I84022
sS'CAACAC'
p2720
I28439
sS'GCTGAT'
p2721
I27113
sS'ACCACA'
p2722
I41931
sS'ACGCAA'
p2723
I5523
sS'GACAGG'
p2724
I41951
sS'CAACAT'
p2725
I36852
sS'GACAGC'
p2726
I31777
sS'GACAGA'
p2727
I48851
sS'GTATTA'
p2728
I21588
sS'GTATTC'
p2729
I18097
sS'GTAAGT'
p2730
I21876
sS'CCAGCG'
p2731
I17832
sS'AGAGGT'
p2732
I40324
sS'GGTGGC'
p2733
I47579
sS'TCCCCT'
p2734
I51822
sS'GGTGGA'
p2735
I40925
sS'TATCTT'
p2736
I37207
sS'GGTGGG'
p2737
I62644
sS'ATCCCT'
p2738
I32129
sS'AGAGGC'
p2739
I51343
sS'GTAAGA'
p2740
I25246
sS'AGAGGA'
p2741
I61343
sS'GTAAGC'
p2742
I15523
sS'AGAGGG'
p2743
I56720
sS'GTAAGG'
p2744
I19382
sS'TCCCCG'
p2745
I22911
sS'CGTCAC'
p2746
I7969
sS'TCCCCC'
p2747
I40732
sS'GGTGGT'
p2748
I31621
sS'CGTCAG'
p2749
I8441
sS'GTCGCG'
p2750
I4584
sS'GTCGCA'
p2751
I4457
sS'GTCGCC'
p2752
I9989
sS'CCGTCT'
p2753
I12969
sS'TCGGTA'
p2754
I3250
sS'CTCGCG'
p2755
I8057
sS'TCGGTG'
p2756
I7643
sS'GTCGCT'
p2757
I6384
sS'GTAACT'
p2758
I22995
sS'CCGTCG'
p2759
I4163
sS'CCGTCA'
p2760
I6776
sS'TCGGTT'
p2761
I5518
sS'GGCTGT'
p2762
I41926
sS'CGCGTG'
p2763
I6452
sS'GCATTT'
p2764
I49113
sS'CGCGTC'
p2765
I6553
sS'CGCGTA'
p2766
I1571
sS'CCACTG'
p2767
I54012
sS'CCACTA'
p2768
I21746
sS'CCACTC'
p2769
I36021
sS'CGCGTT'
p2770
I3456
sS'GGCTGG'
p2771
I83787
sS'GGCTGA'
p2772
I51716
sS'GGCTGC'
p2773
I55547
sS'ATGCAT'
p2774
I32157
sS'TTTAGA'
p2775
I41170
sS'ATGACG'
p2776
I6191
sS'GGAGTT'
p2777
I38177
sS'ATGACA'
p2778
I38859
sS'ATGACC'
p2779
I22967
sS'CCTGAT'
p2780
I29082
sS'GGGCCT'
p2781
I44151
sS'ATGACT'
p2782
I44280
sS'GGAGTA'
p2783
I19111
sS'TATCCG'
p2784
I3060
sS'GGAGTC'
p2785
I30493
sS'GGAGTG'
p2786
I43650
sS'GGGCCG'
p2787
I26528
sS'GGGCCC'
p2788
I43670
sS'GGGCCA'
p2789
I40819
sS'CTGATC'
p2790
I22358
sS'ACGAGT'
p2791
I4877
sS'TTCNNN'
p2792
I1
sS'AGGCCA'
p2793
I52052
sS'GCGCAC'
p2794
I9744
sS'AAAGTC'
p2795
I35241
sS'AGGCCG'
p2796
I20995
sS'ACGAGG'
p2797
I10153
sS'ACGAGC'
p2798
I5360
sS'ACGAGA'
p2799
I6621
sS'CTGATG'
p2800
I35198
sS'AGGCCT'
p2801
I46599
sS'ACATCT'
p2802
I35281
sS'GGGTTG'
p2803
I26214
sS'GACTAC'
p2804
I14607
sS'GGGTTA'
p2805
I18024
sS'CTCGGG'
p2806
I19302
sS'GGGTTC'
p2807
I25089
sS'TTTGAT'
p2808
I38319
sS'ATTCGA'
p2809
I4553
sS'CTACGA'
p2810
I3804
sS'ATTGCT'
p2811
I36446
sS'GGGTTT'
p2812
I37261
sS'TACAAG'
p2813
I24263
sS'AGATCC'
p2814
I22699
sS'TGCGAG'
p2815
I7647
sS'ATTGCC'
p2816
I23299
sS'AGACGC'
p2817
I8889
sS'AACGGA'
p2818
I6606
sS'GACTAG'
p2819
I15305
sS'AACGGG'
p2820
I7397
sS'TTTGAC'
p2821
I27519
sS'TTTGAA'
p2822
I60969
sS'ATCATC'
p2823
I26759
sS'CCTGAC'
p2824
I39239
sS'TTCGCT'
p2825
I6860
sS'TGACGT'
p2826
I8407
sS'CTCGTC'
p2827
I7253
sS'CCCTGG'
p2828
I67881
sS'CCCTGA'
p2829
I46705
sS'AAGCTT'
p2830
I34977
sS'CCCTGC'
p2831
I62816
sS'GATATC'
p2832
I13608
sS'TTGACG'
p2833
I4382
sS'GATATA'
p2834
I18771
sS'TGACGG'
p2835
I6719
sS'GATATG'
p2836
I19247
sS'TGACGA'
p2837
I5080
sS'TGACGC'
p2838
I6695
sS'TACTCT'
p2839
I26387
sS'CATCGT'
p2840
I5897
sS'CAGGGT'
p2841
I44167
sS'CCAGTC'
p2842
I33270
sS'GACACA'
p2843
I38983
sS'CCAGTG'
p2844
I44002
sS'TACTCG'
p2845
I4902
sS'CATCGA'
p2846
I4058
sS'CATCGC'
p2847
I6259
sS'TACTCC'
p2848
I19241
sS'NGAATT'
p2849
I3
sS'TACTCA'
p2850
I30508
sS'CATCGG'
p2851
I5027
sS'CAGGGG'
p2852
I49773
sS'GAACCT'
p2853
I24751
sS'CAGGGA'
p2854
I65110
sS'CAGGGC'
p2855
I61582
sS'AATCTG'
p2856
I38443
sS'TACAAT'
p2857
I27365
sS'GCCATT'
p2858
I30084
sS'AGTCGA'
p2859
I3821
sS'AATCTA'
p2860
I26803
sS'TGAACG'
p2861
I5996
sS'TCACAC'
p2862
I36589
sS'CCCATA'
p2863
I19163
sS'TCACAA'
p2864
I38301
sS'TCACAG'
p2865
I52295
sS'GCCATA'
p2866
I17359
sS'CGGACG'
p2867
I5392
sS'ACATCG'
p2868
I4570
sS'CGGACA'
p2869
I7025
sS'CGGACC'
p2870
I7760
sS'GCCATG'
p2871
I33183
sS'CTTACC'
p2872
I20053
sS'CTCGGC'
p2873
I21438
sS'TCACAT'
p2874
I41364
sS'TGAACC'
p2875
I25864
sS'ATTAAC'
p2876
I23968
sS'ATTAAA'
p2877
I59826
sS'ATTAAG'
p2878
I30450
sS'CTTACA'
p2879
I28379
sS'TCACTT'
p2880
I50739
sS'TGAACA'
p2881
I37047
sS'CGGCCA'
p2882
I15325
sS'GAACCG'
p2883
I6644
sS'ATTAAT'
p2884
I39990
sS'AAGCAC'
p2885
I32610
sS'GAACCA'
p2886
I27683
sS'GGTATG'
p2887
I16833
sS'GGTATA'
p2888
I13307
sS'GGTATC'
p2889
I11760
sS'CGAGAG'
p2890
I10741
sS'CAATGA'
p2891
I34041
sS'ACGAAT'
p2892
I5081
sS'GGTATT'
p2893
I21816
sS'CTGAAC'
p2894
I29477
sS'CTGAAG'
p2895
I49867
sS'ATTGTA'
p2896
I27006
sS'CCCGAA'
p2897
I8525
sS'CATTGC'
p2898
I28238
sS'CCCGGC'
p2899
I36185
sS'CATTGA'
p2900
I25210
sS'CTAGTT'
p2901
I21059
sS'CATTGG'
p2902
I23468
sS'TCAACT'
p2903
I27564
sS'ACCATC'
p2904
I23391
sS'ACACCG'
p2905
I7411
sS'CTGCCA'
p2906
I56586
sS'CTGCCC'
p2907
I68392
sS'ACACCC'
p2908
I33766
sS'ACACCA'
p2909
I33288
sS'CTGCCG'
p2910
I17505
sS'CTAGTG'
p2911
I20929
sS'TCAACC'
p2912
I20015
sS'ATGTTC'
p2913
I28336
sS'CTAGTC'
p2914
I15291
sS'TCAACG'
p2915
I4564
sS'CTAGTA'
p2916
I14403
sS'CATTGT'
p2917
I34284
sS'TATGAC'
p2918
I22250
sS'ACACCT'
p2919
I32550
sS'CTGCCT'
p2920
I78812
sS'CCTCGT'
p2921
I10038
sS'TTGTGT'
p2922
I41664
sS'AGACTG'
p2923
I39698
sS'TCACTG'
p2924
I56264
sS'AGACTA'
p2925
I21146
sS'CCTCGG'
p2926
I22103
sS'CCTCGC'
p2927
I17004
sS'CCCGAC'
p2928
I10547
sS'CCTCGA'
p2929
I8211
sS'CGAGGA'
p2930
I12300
sS'AGACTT'
p2931
I35025
sS'CGAGGG'
p2932
I15757
sS'CACCGT'
p2933
I9860
sS'ACTTTA'
p2934
I37059
sS'ACTTTG'
p2935
I47649
sS'GACCTG'
p2936
I31771
sS'GTAATG'
p2937
I21148
sS'GACCTC'
p2938
I32171
sS'CACCGG'
p2939
I10522
sS'ACGCTG'
p2940
I10935
sS'CACCGA'
p2941
I7639
sS'CACCGC'
p2942
I16651
sS'GACCTT'
p2943
I28420
sS'GGACGC'
p2944
I11742
sS'GGACGG'
p2945
I12056
sS'CTATTA'
p2946
I24610
sS'CACAGC'
p2947
I53661
sS'CTTATC'
p2948
I24370
sS'CACAGA'
p2949
I58762
sS'CTTATA'
p2950
I21942
sS'CACAGG'
p2951
I53040
sS'CTTATG'
p2952
I22155
sS'ACTCAT'
p2953
I38005
sS'GAGGAG'
p2954
I68081
sS'GACGTA'
p2955
I3513
sS'CGTATC'
p2956
I3386
sS'ACGCTC'
p2957
I6782
sS'TAAACT'
p2958
I36598
sS'GAGGAA'
p2959
I64024
sS'AGCGAT'
p2960
I7219
sS'TTAACA'
p2961
I36336
sS'ACTCAC'
p2962
I36183
sS'TTAACC'
p2963
I21236
sS'TTGTGA'
p2964
I37905
sS'ACTCAG'
p2965
I48054
sS'TTAACG'
p2966
I4692
sS'CACAGT'
p2967
I44720
sS'AGCGAC'
p2968
I6270
sS'TAAACA'
p2969
I53443
sS'AGCGAA'
p2970
I6631
sS'TAAACC'
p2971
I22758
sS'GACGTT'
p2972
I5828
sS'TCTAAA'
p2973
I41754
sS'TAAACG'
p2974
I6200
sS'AGTTCC'
p2975
I31164
sS'GTATGT'
p2976
I24689
sS'AGTTCA'
p2977
I36730
sS'CTGTGC'
p2978
I45039
sS'CTGTGA'
p2979
I51541
sS'CGGGGT'
p2980
I16266
sS'TAGGAC'
p2981
I16366
sS'GCAAAG'
p2982
I41678
sS'TAGGAA'
p2983
I39968
sS'GCAAAA'
p2984
I45693
sS'TAGGAG'
p2985
I30410
sS'GCAAAC'
p2986
I26986
sS'CGGGGC'
p2987
I35347
sS'CGGGGA'
p2988
I22589
sS'CTGTGT'
p2989
I56765
sS'CGGGGG'
p2990
I24670
sS'GTATGC'
p2991
I12362
sS'AGTTCT'
p2992
I40010
sS'GCAAAT'
p2993
I35570
sS'TAGGAT'
p2994
I22422
sS'TAATTA'
p2995
I39018
sS'ACGCTT'
p2996
I6200
sS'TGCTTT'
p2997
I62039
sS'ACAGGA'
p2998
I49346
sS'TGGGNC'
p2999
I1
sS'ACTAGG'
p3000
I19773
sS'GTTACC'
p3001
I14835
sS'GTTACA'
p3002
I24045
sS'TAATTC'
p3003
I31485
sS'GTTACG'
p3004
I3362
sS'TATCGC'
p3005
I2707
sS'TATAGT'
p3006
I20128
sS'GTCTAA'
p3007
I17069
sS'CAGGAC'
p3008
I38372
sS'GTCTAC'
p3009
I12603
sS'TGCTTC'
p3010
I43659
sS'TTCAAA'
p3011
I60928
sS'TTCAAC'
p3012
I27331
sS'GATGGA'
p3013
I32775
sS'TATAGC'
p3014
I15503
sS'TATCGT'
p3015
I3166
sS'TATAGA'
p3016
I22657
sS'AGTGGG'
p3017
I41522
sS'TATAGG'
p3018
I16763
sS'GTTACT'
p3019
I22555
sS'GGAAAA'
p3020
I73682
sS'GGAAAC'
p3021
I42200
sS'GGGCTA'
p3022
I17410
sS'GCTCTG'
p3023
I58041
sS'CCACGT'
p3024
I13138
sS'GGCGTT'
p3025
I7123
sS'AGGACC'
p3026
I26488
sS'GAATGG'
p3027
I32812
sS'GNTGCN'
p3028
I1
sS'GAATGA'
p3029
I45205
sS'ACTACT'
p3030
I20746
sS'GAATGC'
p3031
I29157
sS'CCACGA'
p3032
I8467
sS'AACCTG'
p3033
I35298
sS'CCACGC'
p3034
I18172
sS'GGCGTA'
p3035
I3559
sS'GGAAAT'
p3036
I52670
sS'CCACGG'
p3037
I14215
sS'AACCTA'
p3038
I21320
sS'GGCTTA'
p3039
I21859
sS'TGGTAC'
p3040
I14145
sS'GGCTTC'
p3041
I39644
sS'ACTACA'
p3042
I26901
sS'ACTACG'
p3043
I3907
sS'GGCTTG'
p3044
I32307
sS'TCCTAG'
p3045
I29190
sS'AGTCAG'
p3046
I43072
sS'CGTTGC'
p3047
I6008
sS'TAACAC'
p3048
I22269
sS'TCCTAC'
p3049
I22131
sS'AGTCAC'
p3050
I41329
sS'TCCTAA'
p3051
I32137
sS'TAACAG'
p3052
I29843
sS'TCATCG'
p3053
I5746
sS'AAGCGT'
p3054
I6320
sS'TCATCC'
p3055
I31656
sS'AAAAAC'
p3056
I67944
sS'CTTTCT'
p3057
I76682
sS'AGTCAT'
p3058
I43901
sS'TCCTAT'
p3059
I25120
sS'TAACAT'
p3060
I33228
sS'CGTTGT'
p3061
I5407
sS'GAGCGA'
p3062
I10212
sS'TACCCT'
p3063
I20983
sS'CTTTCA'
p3064
I50519
sS'CTTTCG'
p3065
I7193
sS'GCGGGT'
p3066
I12713
sS'AGCCGT'
p3067
I7737
sS'GAGCGC'
p3068
I14392
sS'GTTGAT'
p3069
I18903
sS'CGACCA'
p3070
I5028
sS'CGACCC'
p3071
I9159
sS'GCATAC'
p3072
I12413
sS'CGACCG'
p3073
I3538
sS'CCTTAT'
p3074
I25866
sS'GTTGAC'
p3075
I15608
sS'GTTGAA'
p3076
I26856
sS'GTTGAG'
p3077
I24604
sS'CCTTAC'
p3078
I18931
sS'CCTTAA'
p3079
I28740
sS'CCTTAG'
p3080
I24842
sS'CGACCT'
p3081
I7126
sS'CAACTC'
p3082
I27501
sS'AATAGC'
p3083
I24861
sS'CAACTG'
p3084
I29955
sS'AATAGG'
p3085
I24701
sS'AATATC'
p3086
I28218
sS'TCTCAA'
p3087
I48801
sS'GGGGTT'
p3088
I29742
sS'GTCCCT'
p3089
I34893
sS'ATTCNN'
p3090
I1
sS'GGATGT'
p3091
I25265
sS'AATAGT'
p3092
I27422
sS'CCAAGA'
p3093
I44145
sS'CAACTT'
p3094
I31481
sS'ACTGTA'
p3095
I30445
sS'GGGGTG'
p3096
I48172
sS'GGATGA'
p3097
I31991
sS'GGGGTC'
p3098
I26600
sS'GGGGTA'
p3099
I15813
sS'TCTCCG'
p3100
I12419
sS'GAGTCC'
p3101
I26350
sS'AAACTG'
p3102
I53082
sS'TCTCCC'
p3103
I59011
sS'AAACTA'
p3104
I36883
sS'TCTCCA'
p3105
I56663
sS'AAACTC'
p3106
I39893
sS'CTATGA'
p3107
I25547
sS'AGTACG'
p3108
I3238
sS'ACGCGC'
p3109
I6383
sS'AGTACC'
p3110
I14090
sS'ACGCGG'
p3111
I6915
sS'AGTACA'
p3112
I24501
sS'AAACTT'
p3113
I48036
sS'CCCTTC'
p3114
I50386
sS'TCTCCT'
p3115
I65931
sS'GAGTCT'
p3116
I32817
sS'AGTACT'
p3117
I21146
sS'CTATGT'
p3118
I25582
sS'GCCGAA'
p3119
I6451
sS'GTGGAG'
p3120
I45171
sS'GCCGAC'
p3121
I7124
sS'GTGGAC'
p3122
I19583
sS'GCCGAG'
p3123
I21473
sS'GTGGAA'
p3124
I38709
sS'CGCCCC'
p3125
I38225
sS'GTGGAT'
p3126
I24974
sS'GCCGAT'
p3127
I3990
sS'CCTATT'
p3128
I24813
sS'TATCTG'
p3129
I32501
sS'CACTGT'
p3130
I45280
sS'GTAGTC'
p3131
I14755
sS'AAATCG'
p3132
I6341
sS'GTAGTA'
p3133
I14202
sS'TTATCG'
p3134
I3387
sS'GTAGTG'
p3135
I16844
sS'AAATCC'
p3136
I37262
sS'ACCGAA'
p3137
I5385
sS'AAATCA'
p3138
I54738
sS'CTACGT'
p3139
I5108
sS'AGATAC'
p3140
I21647
sS'TCCCGA'
p3141
I11089
sS'CACGCT'
p3142
I9933
sS'AAATCT'
p3143
I49905
sS'ACCGAT'
p3144
I3263
sS'GTAGTT'
p3145
I19973
sS'ACCAGT'
p3146
I24390
sS'CGTTAT'
p3147
I4339
sS'GATGAT'
p3148
I26871
sS'GGAGCA'
p3149
I39654
sS'GGAGCC'
p3150
I47781
sS'AAAGTG'
p3151
I54025
sS'CCAAAT'
p3152
I42159
sS'GGAGCG'
p3153
I17972
sS'AAAACT'
p3154
I57262
sS'GATGAC'
p3155
I26068
sS'TGTCCC'
p3156
I37164
sS'GATGAA'
p3157
I36448
sS'GATGAG'
p3158
I34637
sS'CAATTT'
p3159
I42177
sS'ACTAAC'
p3160
I16116
sS'CCAAAC'
p3161
I32834
sS'AAAACG'
p3162
I12025
sS'GGAGCT'
p3163
I44541
sS'CCAAAG'
p3164
I52612
sS'TCGCGG'
p3165
I6885
sS'CGGTCC'
p3166
I9098
sS'TCGCGC'
p3167
I6738
sS'GGGAGT'
p3168
I34066
sS'GCCACA'
p3169
I42231
sS'AGATCA'
p3170
I33225
sS'GCCACC'
p3171
I47232
sS'AGAAAT'
p3172
I72285
sS'CGACGG'
p3173
I4062
sS'GCCACG'
p3174
I14496
sS'AGATCG'
p3175
I6703
sS'TGCCTA'
p3176
I26985
sS'ACCAGC'
p3177
I38660
sS'TCGCGT'
p3178
I2575
sS'GTGCAA'
p3179
I24511
sS'ACCCGT'
p3180
I5731
sS'AGAAAG'
p3181
I78137
sS'CGACGA'
p3182
I2162
sS'TCCCTT'
p3183
I52134
sS'AGAAAC'
p3184
I53216
sS'AGATAT'
p3185
I30411
sS'AGAAAA'
p3186
I112376
sS'GTGCAG'
p3187
I41784
sS'ATGTAC'
p3188
I19015
sS'ACTTCG'
p3189
I5914
sS'ATGTAA'
p3190
I39027
sS'ACCACT'
p3191
I31386
sS'ATGTAG'
p3192
I23130
sS'GAGGAT'
p3193
I32649
sS'CTACCA'
p3194
I22547
sS'TCGCTC'
p3195
I10639
sS'GACGAC'
p3196
I4500
sS'ATGTCG'
p3197
I4073
sS'ATGTAT'
p3198
I34391
sS'ATTAGA'
p3199
I29001
sS'CACTGA'
p3200
I43503
sS'GTTCCC'
p3201
I29138
sS'ATCCAT'
p3202
I26438
sS'AGCACT'
p3203
I43460
sS'TTAGAA'
p3204
I44172
sS'CGGCTG'
p3205
I19231
sS'TTAGAC'
p3206
I16875
sS'GGATAC'
p3207
I12531
sS'CGGCTC'
p3208
I19774
sS'TTAGAG'
p3209
I30567
sS'CGGCTA'
p3210
I5777
sS'AGCACC'
p3211
I31368
sS'AGCACA'
p3212
I42464
sS'AGCACG'
p3213
I9280
sS'CCAAAA'
p3214
I49677
sS'CGGCTT'
p3215
I10414
sS'CGCCCT'
p3216
I19755
sS'TTAGAT'
p3217
I25960
sS'ATATCG'
p3218
I2822
sS'ACCTAT'
p3219
I17466
sS'AAAGAA'
p3220
I100657
sS'AAAGAG'
p3221
I60645
sS'AACTAC'
p3222
I20256
sS'ATATCA'
p3223
I27363
sS'CGACGT'
p3224
I2283
sS'TTATTT'
p3225
I102223
sS'TGTGAG'
p3226
I45986
sS'TGTGAA'
p3227
I47032
sS'ACGTCT'
p3228
I7548
sS'TGTGAC'
p3229
I35811
sS'ATATCT'
p3230
I30349
sS'CCAGCT'
p3231
I64816
sS'CACGGT'
p3232
I9689
sS'AAAGAT'
p3233
I49151
sS'TGTGAT'
p3234
I38406
sS'TTATTG'
p3235
I36575
sS'TTATTA'
p3236
I48830
sS'GAAAGC'
p3237
I38643
sS'TTATTC'
p3238
I37991
sS'AGACGG'
p3239
I12974
sS'TTTTAT'
p3240
I84738
sS'GCGAAC'
p3241
I3910
sS'CTTACT'
p3242
I28731
sS'TCCACT'
p3243
I36617
sS'TACAAA'
p3244
I49810
sS'AGACGA'
p3245
I6699
sS'TACAAC'
p3246
I18192
sS'CCTCTG'
p3247
I68856
sS'AGGTGG'
p3248
I54146
sS'CCTCTC'
p3249
I60859
sS'AGGTGC'
p3250
I29812
sS'CCTCTA'
p3251
I28313
sS'AGGTGA'
p3252
I43140
sS'CTTACG'
p3253
I4721
sS'TCCACA'
p3254
I40867
sS'TTTTAG'
p3255
I50031
sS'TCCACC'
p3256
I41052
sS'TTTTAA'
p3257
I102761
sS'ACATCA'
p3258
I33655
sS'TTTTAC'
p3259
I42711
sS'ACATCC'
p3260
I25506
sS'AGGTGT'
p3261
I32684
sS'CCTCTT'
p3262
I51691
sS'GCGTGA'
p3263
I11603
sS'TATGAG'
p3264
I26337
sS'CCCGGA'
p3265
I16837
sS'CCCAAT'
p3266
I21610
sS'CCCGGG'
p3267
I37304
sS'TATGAA'
p3268
I36242
sS'TGGAAT'
p3269
I48776
sS'AATTAA'
p3270
I51345
sS'TTGTGC'
p3271
I26890
sS'TATGAT'
p3272
I26575
sS'TTGTGG'
p3273
I35238
sS'CCCGGT'
p3274
I10345
sS'GGCGTG'
p3275
I21834
sS'TGGAAG'
p3276
I52578
sS'TATCAC'
p3277
I20540
sS'TGGAAA'
p3278
I66743
sS'TGAGGA'
p3279
I50118
sS'AAGAGG'
p3280
I51973
sS'TGAGGC'
p3281
I49627
sS'AAGAGA'
p3282
I62374
sS'AAGAGC'
p3283
I36698
sS'TGAGGG'
p3284
I43076
sS'GCTTAG'
p3285
I20943
sS'GCTTAC'
p3286
I15608
sS'GCTTAA'
p3287
I23482
sS'TGATTC'
p3288
I35825
sS'AAGCGC'
p3289
I8235
sS'AAGAGT'
p3290
I35108
sS'AAGCGA'
p3291
I8828
sS'NGCGCC'
p3292
I1
sS'TGAGGT'
p3293
I41861
sS'GCTTAT'
p3294
I21992
sS'GTTCGG'
p3295
I5001
sS'CTGCTA'
p3296
I27613
sS'GCGTGT'
p3297
I9627
sS'CTGCTC'
p3298
I51114
sS'ACTTCT'
p3299
I42870
sS'GACCGT'
p3300
I4898
sS'CTGCTG'
p3301
I71945
sS'CGGTCA'
p3302
I6107
sS'GGTCGT'
p3303
I4375
sS'CTAGAG'
p3304
I28738
sS'CTAGAA'
p3305
I34568
sS'CTAGAC'
p3306
I16108
sS'GACCGA'
p3307
I5300
sS'GACCGC'
p3308
I7564
sS'ACTTCC'
p3309
I42359
sS'CTGCTT'
p3310
I54459
sS'ACTTCA'
p3311
I38547
sS'CTAGAT'
p3312
I20709
sS'GGTCGG'
p3313
I9051
sS'CGGTCT'
p3314
I7057
sS'GGTCGC'
p3315
I7432
sS'GGTCGA'
p3316
I3837
sS'CGTCGC'
p3317
I4896
sS'GCGTGG'
p3318
I17762
sS'CGTCGG'
p3319
I4373
sS'TGGTTG'
p3320
I28082
sS'GCGTGC'
p3321
I10025
sS'TGCTCA'
p3322
I41407
sS'TTCATC'
p3323
I36057
sS'TGCTCC'
p3324
I39602
sS'TTCATA'
p3325
I36153
sS'TTCATG'
p3326
I39244
sS'TGCTCG'
p3327
I7615
sS'GTACAA'
p3328
I18311
sS'CAGCAG'
p3329
I71626
sS'TACACT'
p3330
I22275
sS'GCTTTG'
p3331
I41035
sS'CAGCAC'
p3332
I49277
sS'CGTCGT'
p3333
I2270
sS'ATATCC'
p3334
I19657
sS'GTACAC'
p3335
I13694
sS'TGCTCT'
p3336
I48466
sS'TTCATT'
p3337
I64865
sS'GCTTTA'
p3338
I28873
sS'GCTGCC'
p3339
I52859
sS'GCTGCA'
p3340
I45873
sS'AACTCT'
p3341
I37911
sS'TGGCCC'
p3342
I41258
sS'TGGCCA'
p3343
I54842
sS'GTAGCA'
p3344
I18964
sS'AGCAAA'
p3345
I55185
sS'TGGCCT'
p3346
I52236
sS'AACTCC'
p3347
I38448
sS'GCTGCT'
p3348
I54073
sS'AACACA'
p3349
I51366
sS'CAGTCG'
p3350
I6506
sS'AATATT'
p3351
I63003
sS'GTTCGA'
p3352
I5221
sS'CAACCT'
p3353
I32042
sS'CAGTTA'
p3354
I28582
sS'TGGCCG'
p3355
I15264
sS'GGCACG'
p3356
I12156
sS'GGCACA'
p3357
I39231
sS'GACAAT'
p3358
I21988
sS'GGCACC'
p3359
I30496
sS'CAACCG'
p3360
I5427
sS'GTACAT'
p3361
I19218
sS'AATATG'
p3362
I37143
sS'CGGTCG'
p3363
I3483
sS'AATATA'
p3364
I43786
sS'AGCAAG'
p3365
I44193
sS'CAACCA'
p3366
I28178
sS'CTTCGT'
p3367
I7005
sS'GACAAA'
p3368
I38499
sS'GGCACT'
p3369
I31589
sS'GACAAC'
p3370
I18097
sS'ACGACA'
p3371
I5033
sS'GACAAG'
p3372
I28573
sS'GCTGCG'
p3373
I18609
sS'GCTTTT'
p3374
I49501
sS'GCAATA'
p3375
I22219
sS'GAATTT'
p3376
I50577
sS'CGATGG'
p3377
I6137
sS'GNAGAA'
p3378
I1
sS'TCCCAT'
p3379
I36855
sS'CGATGC'
p3380
I4805
sS'GTAAAT'
p3381
I35018
sS'CGATGA'
p3382
I5563
sS'GAATTA'
p3383
I31246
sS'GAATTC'
p3384
I33606
sS'GAATTG'
p3385
I27680
sS'TCCCAA'
p3386
I49727
sS'CGATGT'
p3387
I4719
sS'GTAAAA'
p3388
I43101
sS'GTAAAG'
p3389
I26604
sS'TCCCAG'
p3390
I82528
sS'GGATTT'
p3391
I37303
sS'GTGCGT'
p3392
I7284
sS'CAAGTA'
p3393
I26599
sS'ATGGTA'
p3394
I22408
sS'GGATTC'
p3395
I23397
sS'GGATTA'
p3396
I32301
sS'AGGTCC'
p3397
I24673
sS'AGCGGC'
p3398
I16029
sS'ATGGTG'
p3399
I36086
sS'AAAGCC'
p3400
I41552
sS'TCTGTG'
p3401
I58481
sS'TCTGTC'
p3402
I48915
sS'GTCCCG'
p3403
I13092
sS'TCTGTA'
p3404
I37107
sS'GGCGGC'
p3405
I35973
sS'CTCCTT'
p3406
I56827
sS'GGCGGA'
p3407
I19743
sS'GGCGGG'
p3408
I48822
sS'AACCGA'
p3409
I5536
sS'CTATCC'
p3410
I15548
sS'TCTGTT'
p3411
I52739
sS'AAAGCG'
p3412
I9067
sS'CTCCTG'
p3413
I80324
sS'AACCGT'
p3414
I5148
sS'CTCCTA'
p3415
I30144
sS'CTCCTC'
p3416
I68318
sS'GGCGGT'
p3417
I11734
sS'GACGCA'
p3418
I7153
sS'GACGCC'
p3419
I10254
sS'AACAAC'
p3420
I32641
sS'CCCACC'
p3421
I62386
sS'TACTTC'
p3422
I26602
sS'AGCCTT'
p3423
I41258
sS'AACTCG'
p3424
I6131
sS'CCGATT'
p3425
I4736
sS'CCCACT'
p3426
I41138
sS'TACTTA'
p3427
I27709
sS'GACGCT'
p3428
I7582
sS'AGCGGT'
p3429
I6783
sS'CCGATA'
p3430
I2528
sS'AGCCTG'
p3431
I69095
sS'AGCCTA'
p3432
I23024
sS'AGCCTC'
p3433
I57834
sS'GTACCC'
p3434
I11281
sS'GAGTTT'
p3435
I40000
sS'TGGTTA'
p3436
I25053
sS'CGCCTT'
p3437
I11985
sS'TGGTTC'
p3438
I27807
sS'TCNNNN'
p3439
I3
sS'CAGAGT'
p3440
I46729
sS'GCATCT'
p3441
I28879
sS'CTCCCA'
p3442
I74653
sS'TGGTTT'
p3443
I48621
sS'CGCCTC'
p3444
I25834
sS'GCGCCA'
p3445
I14374
sS'CGCCTA'
p3446
I5684
sS'GCGCCG'
p3447
I19162
sS'CGCCTG'
p3448
I24645
sS'GTACCT'
p3449
I16145
sS'CAGAGG'
p3450
I69014
sS'GCATCC'
p3451
I22477
sS'CTCCCC'
p3452
I67196
sS'CAGAGC'
p3453
I57787
sS'GCATCG'
p3454
I4883
sS'CAGAGA'
p3455
I69562
sS'AATCAT'
p3456
I39033
sS'TAGCTA'
p3457
I19612
sS'AGACTC'
p3458
I32437
sS'CCTAGA'
p3459
I27312
sS'CCTAGC'
p3460
I21399
sS'TTTGCT'
p3461
I55041
sS'CGGGAG'
p3462
I27515
sS'TGCGGT'
p3463
I7847
sS'CCTAGG'
p3464
I28786
sS'TAAGCA'
p3465
I32077
sS'TGCGGC'
p3466
I12372
sS'TGCGGA'
p3467
I7963
sS'CCTAGT'
p3468
I19417
sS'TGCGGG'
p3469
I14843
sS'TTTGCG'
p3470
I6166
sS'TGAGTT'
p3471
I37423
sS'CGGGAC'
p3472
I13026
sS'ATCGCT'
p3473
I7274
sS'TAATCT'
p3474
I31058
sS'TCTCGT'
p3475
I6611
sS'ATCGCC'
p3476
I5673
sS'TGAGTG'
p3477
I38075
sS'ATCGCA'
p3478
I4717
sS'TGAGTA'
p3479
I30678
sS'ATCGCG'
p3480
I3152
sS'TGAGTC'
p3481
I48781
sS'AAGGTG'
p3482
I36841
sS'AAGGTC'
p3483
I28186
sS'CATCAT'
p3484
I33755
sS'AAGGTA'
p3485
I26166
sS'ATTTCG'
p3486
I5590
sS'AAGCGG'
p3487
I9892
sS'ACGGCA'
p3488
I7230
sS'CATCAC'
p3489
I30650
sS'AAGGTT'
p3490
I31034
sS'CATCAA'
p3491
I27731
sS'CATCAG'
p3492
I35492
sS'ACGGCG'
p3493
I5899
sS'TCACCT'
p3494
I43550
sS'TCTAAG'
p3495
I28171
sS'TCGTTT'
p3496
I8814
sS'CGGAAT'
p3497
I5683
sS'CAATTC'
p3498
I27922
sS'GTGGCT'
p3499
I49833
sS'ATCGAT'
p3500
I3319
sS'TCACCG'
p3501
I10060
sS'TCACCA'
p3502
I42738
sS'TCACCC'
p3503
I38315
sS'CGGAAG'
p3504
I13019
sS'CAACCC'
p3505
I26193
sS'AACTGG'
p3506
I35704
sS'AAAATA'
p3507
I107957
sS'CGGAAC'
p3508
I6224
sS'AGCTCG'
p3509
I8678
sS'CGGAAA'
p3510
I9364
sS'GCCTCA'
p3511
I49693
sS'ATCCAG'
p3512
I34534
sS'ATGGCG'
p3513
I8893
sS'TGTGTA'
p3514
I35992
sS'ATGGCC'
p3515
I25726
sS'ATGGCA'
p3516
I36363
sS'TTACTT'
p3517
I41909
sS'TTGTNN'
p3518
I1
sS'TCGTCC'
p3519
I6613
sS'ATGGCT'
p3520
I34708
sS'TGTGTT'
p3521
I50909
sS'CCAAGT'
p3522
I36022
sS'GCGGTC'
p3523
I7472
sS'AGATTA'
p3524
I30933
sS'GAAACG'
p3525
I10002
sS'GAAACA'
p3526
I52897
sS'AGATTG'
p3527
I27590
sS'CTGAGT'
p3528
I48227
sS'AGGTAC'
p3529
I16088
sS'GAAACT'
p3530
I43891
sS'AGAATG'
p3531
I51591
sS'AGATTT'
p3532
I49304
sS'ACATAC'
p3533
I25145
sS'CTGAGC'
p3534
I49072
sS'CTGAGA'
p3535
I56912
sS'CTGAGG'
p3536
I67966
sS'CATACC'
p3537
I17117
sS'CATACA'
p3538
I28727
sS'CATACG'
p3539
I3775
sS'GCAATC'
p3540
I19777
sS'TCAAAT'
p3541
I46099
sS'GTCCAT'
p3542
I18964
sS'AGGGGT'
p3543
I31571
sS'CATACT'
p3544
I21229
sS'GTCCAG'
p3545
I33277
sS'TCAAAG'
p3546
I43923
sS'TCAAAA'
p3547
I61628
sS'CACTAA'
p3548
I23781
sS'TCAAAC'
p3549
I31452
sS'CGGCGG'
p3550
I26367
sS'TTGATG'
p3551
I27664
sS'ATCGAG'
p3552
I4646
sS'CGGCGC'
p3553
I19095
sS'TTGATC'
p3554
I18381
sS'CGGCGA'
p3555
I6826
sS'TTGATA'
p3556
I24637
sS'CTATCT'
p3557
I24810
sS'AACTGC'
p3558
I32374
sS'CGAGTG'
p3559
I7740
sS'GTACGC'
p3560
I2337
sS'CTACGC'
p3561
I3905
sS'CCATTA'
p3562
I23633
sS'ATCCCC'
p3563
I26035
sS'CGGTTA'
p3564
I3552
sS'GGTTTA'
p3565
I22926
sS'CGGTTC'
p3566
I6762
sS'GCTGTT'
p3567
I36782
sS'TTTACA'
p3568
I49814
sS'CGGTTG'
p3569
I5293
sS'GGTTTG'
p3570
I30449
sS'CCATTG'
p3571
I26061
sS'CGAGTC'
p3572
I7759
sS'GCTGTG'
p3573
I53140
sS'GGTTTT'
p3574
I43943
sS'CGGTTT'
p3575
I7427
sS'GCTGTA'
p3576
I23935
sS'CAATGT'
p3577
I29133
sS'AGGGGC'
p3578
I44894
sS'AGGTTG'
p3579
I31923
sS'AGGTTC'
p3580
I25300
sS'AGGTTA'
p3581
I24661
sS'CNNNNN'
p3582
I3
sS'GAGGGA'
p3583
I58254
sS'TTTTTC'
p3584
I89090
sS'GAGGGC'
p3585
I44972
sS'TTTTTA'
p3586
I101514
sS'TTTTTG'
p3587
I81355
sS'GAGGGG'
p3588
I56120
sS'TTAAAT'
p3589
I62291
sS'ACTACC'
p3590
I14233
sS'AGGTTT'
p3591
I40150
sS'TAAGCG'
p3592
I4168
sS'TATGCC'
p3593
I18067
sS'TTAAAC'
p3594
I33819
sS'ATACGT'
p3595
I5258
sS'TTAAAA'
p3596
I103375
sS'ACTCCG'
p3597
I9819
sS'TTAAAG'
p3598
I46591
sS'GAGGGT'
p3599
I33101
sS'TTTTTT'
p3600
I279517
sS'ACTCCC'
p3601
I34243
sS'TAGGCT'
p3602
I23197
sS'GTCACG'
p3603
I8172
sS'CTGTAC'
p3604
I20995
sS'GCAACT'
p3605
I23309
sS'GTCACC'
p3606
I32294
sS'CTGTAG'
p3607
I30692
sS'GTCACA'
p3608
I36339
sS'GCAACG'
p3609
I5991
sS'GTCACT'
p3610
I35611
sS'TAGGCG'
p3611
I5643
sS'GCAACC'
p3612
I22265
sS'CTGTAT'
p3613
I29777
sS'GCAACA'
p3614
I32809
sS'TAGGCC'
p3615
I17191
sS'ATTCAT'
p3616
I47317
sS'TCCCAC'
p3617
I44183
sS'GCGATT'
p3618
I5683
sS'TCGTGT'
p3619
I6485
sS'TTCACT'
p3620
I44553
sS'GTCTCT'
p3621
I42993
sS'AACATT'
p3622
I51771
sS'ATTCAG'
p3623
I41567
sS'ATTCAA'
p3624
I40196
sS'ATTCAC'
p3625
I30603
sS'GTCTCC'
p3626
I36968
sS'TCGTGG'
p3627
I8463
sS'GCGATG'
p3628
I6314
sS'TTCACC'
p3629
I33170
sS'GCGATA'
p3630
I2531
sS'TCGTGC'
p3631
I6217
sS'GCGATC'
p3632
I6076
sS'GAAGGC'
p3633
I38316
sS'TCTACA'
p3634
I27923
sS'GAAGGA'
p3635
I56650
sS'GAAGGG'
p3636
I49689
sS'CGATTA'
p3637
I3314
sS'GGAACC'
p3638
I24879
sS'GGAACA'
p3639
I34678
sS'GGAACG'
p3640
I8027
sS'AGCCAC'
p3641
I49803
sS'TACTGC'
p3642
I22137
sS'CGATTT'
p3643
I6288
sS'AAAACA'
p3644
I97586
sS'GAAGGT'
p3645
I31009
sS'CTCGCT'
p3646
I13524
sS'TTGTAG'
p3647
I26505
sS'CAATCA'
p3648
I27964
sS'GGAACT'
p3649
I31680
sS'TCCTGA'
p3650
I54418
sS'AGTCCA'
p3651
I30045
sS'TCCTGC'
p3652
I57506
sS'AGTCCC'
p3653
I33715
sS'ACTAAA'
p3654
I37872
sS'TCCTGG'
p3655
I71929
sS'AGTCCG'
p3656
I6517
sS'TAACGC'
p3657
I3502
sS'CAGCTG'
p3658
I66148
sS'CAGCTA'
p3659
I35331
sS'CAGCTC'
p3660
I55137
sS'ACTAAT'
p3661
I24990
sS'GATTGT'
p3662
I21325
sS'AGTCCT'
p3663
I34643
sS'TCCTGT'
p3664
I48953
sS'CAGCTT'
p3665
I47509
sS'TAACGT'
p3666
I5298
sS'AGCCAG'
p3667
I62547
sS'GTACTT'
p3668
I21460
sS'CGACAT'
p3669
I3953
sS'TTGTTC'
p3670
I33916
sS'CGCAAG'
p3671
I6374
sS'TTGTTA'
p3672
I35478
sS'TTGTTG'
p3673
I37989
sS'CAGGCC'
p3674
I56598
sS'CCGAGC'
p3675
I14416
sS'CCGCGT'
p3676
I6589
sS'CGACAC'
p3677
I5134
sS'CGACAA'
p3678
I4169
sS'CGACAG'
p3679
I8581
sS'GTACTA'
p3680
I11704
sS'CCGCGC'
p3681
I23744
sS'CCGAGT'
p3682
I10129
sS'CCGCGA'
p3683
I6864
sS'TACGCA'
p3684
I3999
sS'CCGCGG'
p3685
I21348
sS'TTGTTT'
p3686
I89844
sS'GCATAT'
p3687
I21108
sS'TCCGTT'
p3688
I6651
sS'AGCCAA'
p3689
I43282
sS'AATAAC'
p3690
I32255
sS'AATAAA'
p3691
I98856
sS'AATAAG'
p3692
I37695
sS'CTTGTG'
p3693
I34484
sS'GGATTG'
p3694
I21563
sS'TACTAA'
p3695
I26090
sS'AATAAT'
p3696
I57040
sS'CCAACC'
p3697
I28165
sS'CCAACA'
p3698
I36125
sS'CCAACG'
p3699
I6585
sS'GGGATT'
p3700
I37575
sS'CGCCGC'
p3701
I29526
sS'GTGTAT'
p3702
I23543
sS'CGCCGA'
p3703
I6604
sS'AGTAAC'
p3704
I23059
sS'CGCCGG'
p3705
I16730
sS'GAGTAA'
p3706
I27040
sS'AGTAAG'
p3707
I29003
sS'CTCAGG'
p3708
I60796
sS'CTAAAA'
p3709
I50501
sS'CTCAGC'
p3710
I63073
sS'CTCAGA'
p3711
I53740
sS'GAGTAT'
p3712
I17250
sS'GCTTCA'
p3713
I34030
sS'GTGTAG'
p3714
I17724
sS'TCGAGC'
p3715
I5007
sS'GTGTAA'
p3716
I22710
sS'GTGTAC'
p3717
I13638
sS'CGCCGT'
p3718
I5955
sS'GTGGCA'
p3719
I40661
sS'CATATT'
p3720
I36879
sS'CTCGGA'
p3721
I10023
sS'GTGGCG'
p3722
I15985
sS'GCCGCC'
p3723
I36214
sS'GCCGCA'
p3724
I12536
sS'GCCGCG'
p3725
I21030
sS'ACACTT'
p3726
I35225
sS'CATATG'
p3727
I25178
sS'CATATC'
p3728
I19384
sS'CATATA'
p3729
I27815
sS'TCAGCA'
p3730
I47752
sS'TACTAC'
p3731
I14249
sS'ACACTC'
p3732
I27090
sS'ACACTA'
p3733
I20486
sS'ACACTG'
p3734
I41477
sS'GCCGCT'
p3735
I15930
sS'ACCGGA'
p3736
I6318
sS'AAATAA'
p3737
I102419
sS'ACCGGC'
p3738
I8509
sS'AAATAC'
p3739
I50106
sS'CTTTAA'
p3740
I46356
sS'AATCCT'
p3741
I37137
sS'AAATAG'
p3742
I45415
sS'CACGAG'
p3743
I9383
sS'CAGGTA'
p3744
I26116
sS'AACTTC'
p3745
I34492
sS'CAGGTC'
p3746
I31487
sS'CACGAC'
p3747
I5420
sS'AACTTG'
p3748
I33812
sS'CAGGTG'
p3749
I52110
sS'CTTTAT'
p3750
I43805
sS'AATCCC'
p3751
I37248
sS'GCTCGT'
p3752
I5594
sS'AATCCA'
p3753
I35003
sS'AAATAT'
p3754
I77502
sS'ACCGGT'
p3755
I3787
sS'GATACA'
p3756
I21128
sS'CACGAT'
p3757
I6052
sS'CAGGTT'
p3758
I35623
sS'AACTTT'
p3759
I48232
sS'CCCGCA'
p3760
I15282
sS'GGGATA'
p3761
I17985
sS'GGGATC'
p3762
I20238
sS'GGGTGT'
p3763
I33435
sS'GGAGAT'
p3764
I33994
sS'GATGCT'
p3765
I26924
sS'CGCAGT'
p3766
I9130
sS'GAGTCG'
p3767
I7246
sS'GAGCCT'
p3768
I39466
sS'GGAGAC'
p3769
I36717
sS'GGGTGA'
p3770
I37944
sS'GGAGAA'
p3771
I60093
sS'GGGTGC'
p3772
I28861
sS'GGAGAG'
p3773
I62439
sS'TGGAAC'
p3774
I28313
sS'GGGTGG'
p3775
I60636
sS'GAGCCA'
p3776
I51769
sS'CGCAGG'
p3777
I17741
sS'GATGCG'
p3778
I5337
sS'CGCAGA'
p3779
I10979
sS'GATGCA'
p3780
I24432
sS'CGCAGC'
p3781
I18905
sS'GATGCC'
p3782
I23235
sS'CGGATT'
p3783
I5186
sS'GGTAGT'
p3784
I14403
sS'ACCCCT'
p3785
I31270
sS'GCCAAT'
p3786
I22518
sS'TTGCTC'
p3787
I35820
sS'AACCGC'
p3788
I6262
sS'AGAAGT'
p3789
I43140
sS'ACCCCA'
p3790
I42186
sS'GGTAGA'
p3791
I21601
sS'GCCAAA'
p3792
I36226
sS'CGGATG'
p3793
I6682
sS'GCCAAG'
p3794
I44127
sS'CGGATA'
p3795
I3034
sS'ACCCCG'
p3796
I15891
sS'CGGATC'
p3797
I6651
sS'AGAAGA'
p3798
I60079
sS'AGAAGC'
p3799
I45447
sS'CAGTCT'
p3800
I39592
sS'AGAAGG'
p3801
I57481
sS'CACTCC'
p3802
I43737
sS'CCCCGT'
p3803
I13244
sS'CACTCG'
p3804
I7919
sS'TGCGTT'
p3805
I6581
sS'GCAAGG'
p3806
I33540
sS'AGCTTT'
p3807
I44904
sS'CCCCGG'
p3808
I28958
sS'TGCGTA'
p3809
I3982
sS'CCCCGC'
p3810
I42525
sS'CACTCT'
p3811
I39611
sS'AGCTTC'
p3812
I38777
sS'AGCTTA'
p3813
I23480
sS'AGCTTG'
p3814
I31995
sS'ATACGA'
p3815
I3589
sS'AGACCA'
p3816
I36869
sS'CCACTT'
p3817
I38044
sS'TTAGCT'
p3818
I29111
sS'GTATAA'
p3819
I19899
sS'TTAGCC'
p3820
I23426
sS'TTAGCA'
p3821
I29472
sS'CTAGCA'
p3822
I21849
sS'TTAGCG'
p3823
I3868
sS'CTCATT'
p3824
I48709
sS'TACCGG'
p3825
I3961
sS'AACTTA'
p3826
I28205
sS'ATAGGT'
p3827
I17180
sS'ATAAGG'
p3828
I25638
sS'TGTGCT'
p3829
I42290
sS'AAGGGC'
p3830
I35958
sS'ATAAGC'
p3831
I22000
sS'AAGGGA'
p3832
I51878
sS'ATAAGA'
p3833
I33953
sS'CCAGAC'
p3834
I35788
sS'CTACTC'
p3835
I23998
sS'CCAGAA'
p3836
I55150
sS'CCAGAG'
p3837
I62025
sS'GCAAGT'
p3838
I25846
sS'TGTGCG'
p3839
I9298
sS'ATAAGT'
p3840
I24420
sS'ATAGGG'
p3841
I17966
sS'TGTGCC'
p3842
I39124
sS'ATAGGA'
p3843
I25307
sS'TGTGCA'
p3844
I39722
sS'ATAGGC'
p3845
I16551
sS'GCTCGC'
p3846
I11101
sS'ATACGC'
p3847
I2918
sS'CCAGAT'
p3848
I35190
sS'AGACAA'
p3849
I41043
sS'AACAAG'
p3850
I39426
sS'AGACAC'
p3851
I36022
sS'TCCATT'
p3852
I41431
sS'AGACAG'
p3853
I57318
sS'TTTTCT'
p3854
I111611
sS'CGCTGT'
p3855
I10793
sS'CCCACG'
p3856
I16302
sS'TCAAGA'
p3857
I38077
sS'CGTGGG'
p3858
I16102
sS'CGTGGC'
p3859
I14497
sS'CGTGGA'
p3860
I10820
sS'TTTTCG'
p3861
I7004
sS'CCCACA'
p3862
I47138
sS'CGCTGC'
p3863
I19365
sS'TTTTCC'
p3864
I73430
sS'TTTTCA'
p3865
I73672
sS'CGCTGG'
p3866
I17666
sS'TATGGA'
p3867
I22788
sS'TATGGC'
p3868
I17074
sS'CGTAGG'
p3869
I4890
sS'AACAAA'
p3870
I86475
sS'TATGGG'
p3871
I19190
sS'CGTAGC'
p3872
I4329
sS'TACCGT'
p3873
I3846
sS'TGGACT'
p3874
I29797
sS'CGTAGT'
p3875
I3979
sS'GCTCGA'
p3876
I5046
sS'TATGGT'
p3877
I19657
sS'TGGACA'
p3878
I34778
sS'TGGACC'
p3879
I19755
sS'TGGACG'
p3880
I7591
sS'CCGGTT'
p3881
I6247
sS'CTAGCT'
p3882
I22491
sS'GCTTGA'
p3883
I27967
sS'TGAGAC'
p3884
I39727
sS'GCTTGC'
p3885
I23380
sS'TGAGAA'
p3886
I59205
sS'GCCAAC'
p3887
I23848
sS'TGAGAG'
p3888
I44448
sS'GCTTGG'
p3889
I33921
sS'CCTGTT'
p3890
I38777
sS'CCGGTG'
p3891
I10559
sS'CCTTGC'
p3892
I33500
sS'TACACC'
p3893
I14576
sS'CCTGTC'
p3894
I41894
sS'CCTGTA'
p3895
I37945
sS'CCTGTG'
p3896
I53244
sS'GCTTGT'
p3897
I25768
sS'TGAGAT'
p3898
I43390
sS'ATCGTA'
p3899
I3350
sS'GGTTGT'
p3900
I21458
sS'TATCAG'
p3901
I25549
sS'AATTCN'
p3902
I1
sS'TAGCGT'
p3903
I3685
sS'GGTTGG'
p3904
I27827
sS'CTGAAT'
p3905
I42054
sS'GGTTGA'
p3906
I19998
sS'TTCACG'
p3907
I8269
sS'GGTTGC'
p3908
I22246
sS'TCCCGC'
p3909
I19927
sS'GTAACG'
p3910
I3489
sS'TCCCGG'
p3911
I23009
sS'TGCTAT'
p3912
I27691
sS'CGTTTT'
p3913
I11935
sS'ATTCTC'
p3914
I41621
sS'CTATAC'
p3915
I12055
sS'ATTCTA'
p3916
I34231
sS'ATTCTG'
p3917
I46864
sS'TCATTT'
p3918
I74124
sS'CAGCGA'
p3919
I10645
sS'TGCTAA'
p3920
I29550
sS'TATACT'
p3921
I21293
sS'TGCTAG'
p3922
I22157
sS'CAGCGG'
p3923
I18092
sS'AGGATC'
p3924
I24910
sS'TCATTC'
p3925
I45421
sS'CGTTTG'
p3926
I7997
sS'TCATTG'
p3927
I33466
sS'ATTCTT'
p3928
I54531
sS'CGTTTC'
p3929
I10139
sS'ACCGGG'
p3930
I10208
sS'TGGCAA'
p3931
I38976
sS'CCGATC'
p3932
I3892
sS'TGGCAG'
p3933
I56177
sS'GCTGAG'
p3934
I62637
sS'GCTGAA'
p3935
I39249
sS'GCTGAC'
p3936
I28211
sS'TGGCAT'
p3937
I38193
sS'GGCCGG'
p3938
I31375
sS'CCGATG'
p3939
I4975
sS'GGCCGC'
p3940
I26830
sS'GAACTT'
p3941
I30890
sS'GGCCGA'
p3942
I14774
sS'GGCAAT'
p3943
I23516
sS'GACCTA'
p3944
I15039
sS'ATCNNN'
p3945
I2
sS'CTGATT'
p3946
I38358
sS'CCATCG'
p3947
I6038
sS'CTAAAT'
p3948
I34742
sS'CCATCC'
p3949
I35238
sS'CCATCA'
p3950
I30990
sS'GGCAAG'
p3951
I35849
sS'CTGATA'
p3952
I25531
sS'GTACCA'
p3953
I14121
sS'GGCAAC'
p3954
I25245
sS'GGCAAA'
p3955
I39271
sS'CTAAAG'
p3956
I29772
sS'CCATCT'
p3957
I45210
sS'CTAAAC'
p3958
I22480
sS'GACATC'
p3959
I21272
sS'GACACC'
p3960
I23477
sS'TACGAT'
p3961
I3294
sS'GACACG'
p3962
I8496
sS'CTACAC'
p3963
I17943
sS'AGGCAT'
p3964
I40243
sS'AATTCT'
p3965
I51294
sS'TACGAG'
p3966
I3643
sS'TACGAC'
p3967
I2484
sS'GGAAAG'
p3968
I61039
sS'GACACT'
p3969
I27203
sS'CGTGAG'
p3970
I13272
sS'TGTTAC'
p3971
I23649
sS'CTATTG'
p3972
I20218
sS'GCATAA'
p3973
I20998
sS'CTATTC'
p3974
I21775
sS'TCGATG'
p3975
I4163
sS'TCGATA'
p3976
I2512
sS'TCGATC'
p3977
I3422
sS'CTATTT'
p3978
I45279
sS'CGCGAA'
p3979
I3154
sS'GCATTG'
p3980
I22487
sS'CAGCCT'
p3981
I87536
sS'TCGATT'
p3982
I4206
sS'CTACCG'
p3983
I4723
sS'TCGGCA'
p3984
I6451
sS'ACGAAA'
p3985
I7332
sS'ACAATG'
p3986
I34677
sS'AACCAA'
p3987
I35476
sS'TGCCGG'
p3988
I12566
sS'AACCAC'
p3989
I31411
sS'TGCCGC'
p3990
I12411
sS'AACCAG'
p3991
I36273
sS'TGCCGA'
p3992
I6226
sS'TTGGAC'
p3993
I19944
sS'TCGGGC'
p3994
I10783
sS'CGCGAG'
p3995
I8033
sS'AGGCAG'
p3996
I77919
sS'TGCCGT'
p3997
I7427
sS'NNCTGA'
p3998
I1
sS'AACCAT'
p3999
I26820
sS'AACAGA'
p4000
I52773
sS'ACGTCG'
p4001
I2196
sS'AACAGC'
p4002
I37103
sS'CTACCC'
p4003
I20377
sS'AACAGG'
p4004
I39642
sS'ACGTCA'
p4005
I8371
sS'CCCAAG'
p4006
I46097
sS'TTGGAG'
p4007
I41524
sS'GACGAA'
p4008
I4987
sS'CCCAAC'
p4009
I30114
sS'CCCAAA'
p4010
I53618
sS'GGGAGG'
p4011
I102901
sS'GGGAGA'
p4012
I58805
sS'AACAGT'
p4013
I35488
sS'GGGAGC'
p4014
I46119
sS'ACGAAG'
p4015
I7139
sS'TCAGAT'
p4016
I37802
sS'GACGAT'
p4017
I3636
sS'GGGCGC'
p4018
I27578
sS'GGGCGA'
p4019
I13716
sS'GCATCA'
p4020
I24091
sS'GGGCGG'
p4021
I45606
sS'TCTCTT'
p4022
I62147
sS'TGGGGG'
p4023
I53132
sS'GTACAG'
p4024
I20987
sS'CGTTAA'
p4025
I4583
sS'CAGAAT'
p4026
I47481
sS'ACGACT'
p4027
I4865
sS'TCTCTC'
p4028
I67502
sS'TCTCTA'
p4029
I40936
sS'TCTCTG'
p4030
I69075
sS'GGGCGT'
p4031
I14863
sS'CAGAAA'
p4032
I77591
sS'CAGAAC'
p4033
I36658
sS'ACGACG'
p4034
I2340
sS'CAGAAG'
p4035
I58892
sS'CCTTCA'
p4036
I41900
sS'CACTTT'
p4037
I53926
sS'CCTAAT'
p4038
I22792
sS'CACTTG'
p4039
I36788
sS'CCTAAC'
p4040
I18531
sS'CCTAAA'
p4041
I31855
sS'CACTTC'
p4042
I39699
sS'CCTAAG'
p4043
I25594
sS'CACTTA'
p4044
I30210
sS'GTCCCA'
p4045
I32941
sS'CTGCGG'
p4046
I19607
sS'AAGATT'
p4047
I39320
sS'CTCATG'
p4048
I38269
sS'GACTCG'
p4049
I7562
sS'CTCATC'
p4050
I34673
sS'GACTCC'
p4051
I30198
sS'CTCATA'
p4052
I26046
sS'GACTCA'
p4053
I48735
sS'AAGATA'
p4054
I37163
sS'CTCCAA'
p4055
I41897
sS'AAGATG'
p4056
I41883
sS'GACTCT'
p4057
I30656
sS'TGCGTG'
p4058
I10787
sS'ATCGAA'
p4059
I3792
sS'ATCGAC'
p4060
I2438
sS'ATATTT'
p4061
I77780
sS'ACGGTA'
p4062
I3890
sS'AACTAA'
p4063
I30225
sS'ATAGTT'
p4064
I25982
sS'TACTGT'
p4065
I29416
sS'ATATTC'
p4066
I30079
sS'ATATTA'
p4067
I36597
sS'ATATTG'
p4068
I27334
sS'ATAGTA'
p4069
I21355
sS'ATAGTC'
p4070
I15625
sS'TACTGG'
p4071
I23718
sS'ATAGTG'
p4072
I20950
sS'CTATGG'
p4073
I18468
sS'CAGGCA'
p4074
I67259
sS'AGGAAG'
p4075
I82713
sS'CATCCG'
p4076
I6736
sS'ACGGAG'
p4077
I11883
sS'CATCCA'
p4078
I33660
sS'CAGGCG'
p4079
I24560
sS'CATCCC'
p4080
I34378
sS'TTATGA'
p4081
I35225
sS'TTATGC'
p4082
I20954
sS'CGGAGT'
p4083
I9860
sS'TTATGG'
p4084
I24450
sS'CATCCT'
p4085
I40131
sS'AGGAAT'
p4086
I50618
sS'CAGGCT'
p4087
I69529
sS'ACGGAT'
p4088
I4671
sS'CGGAGA'
p4089
I12306
sS'CGGAGC'
p4090
I18302
sS'TTATGT'
p4091
I36717
sS'CGGAGG'
p4092
I21545
sS'ATGGAA'
p4093
I45278
sS'ATGGAC'
p4094
I19210
sS'ATGGAG'
p4095
I39429
sS'CGCTTG'
p4096
I9187
sS'CGCTTA'
p4097
I4157
sS'CGCTTC'
p4098
I10944
sS'ATGGAT'
p4099
I25986
sS'TTTGCA'
p4100
I49303
sS'CGCTTT'
p4101
I9080
sS'GCCGTG'
p4102
I12315
sS'CAAGCC'
p4103
I32584
sS'TTTGCC'
p4104
I39087
sS'GAAAAG'
p4105
I63336
sS'GAAAAC'
p4106
I49123
sS'ATAGAT'
p4107
I24706
sS'GAAAAA'
p4108
I89489
sS'TAAGTA'
p4109
I27221
sS'CAAGCG'
p4110
I9246
sS'GAAAAT'
p4111
I65023
sS'CACGCA'
p4112
I11168
sS'CTACTG'
p4113
I27196
sS'ACAAGG'
p4114
I34473
sS'ACAAGA'
p4115
I37703
sS'ACAAGC'
p4116
I26226
sS'ACACGT'
p4117
I9247
sS'CTGCGT'
p4118
I10785
sS'GCGGAG'
p4119
I22247
sS'CATAAG'
p4120
I22050
sS'GCGGAA'
p4121
I8940
sS'CATAAA'
p4122
I45993
sS'GCGGAC'
p4123
I7955
sS'CATAAC'
p4124
I19115
sS'ACACGC'
p4125
I9768
sS'ACAAGT'
p4126
I28621
sS'ACACGA'
p4127
I6383
sS'ACACGG'
p4128
I10010
sS'CATAAT'
p4129
I30353
sS'GCGGAT'
p4130
I6592
sS'GCACAT'
p4131
I28757
sS'GTCCCC'
p4132
I33186
sS'ATCCCA'
p4133
I43609
sS'CTGCGA'
p4134
I8709
sS'CTGCGC'
p4135
I17611
sS'CGGCAA'
p4136
I6489
sS'CGGCAC'
p4137
I8968
sS'CGGCAG'
p4138
I17551
sS'CCTCCT'
p4139
I80799
sS'ATCAAA'
p4140
I39241
sS'AGCGCT'
p4141
I10551
sS'CGGCAT'
p4142
I5643
sS'CCTCCC'
p4143
I103956
sS'CCTCCA'
p4144
I58876
sS'CACGCC'
p4145
I22257
sS'CCTCCG'
p4146
I21681
s.