(dp0
S'GAACGT'
p1
I4560
sS'ACATGA'
p2
I17086
sS'CTTCTT'
p3
I29008
sS'CACCCT'
p4
I30515
sS'GAACGG'
p5
I5797
sS'GAACGC'
p6
I5923
sS'GAACGA'
p7
I4104
sS'CAACAT'
p8
I17899
sS'CACCCA'
p9
I34346
sS'CTTCTA'
p10
I15886
sS'CACCCC'
p11
I38468
sS'CTTCTC'
p12
I36179
sS'CACCCG'
p13
I13904
sS'CTTCTG'
p14
I35907
sS'CGTGTG'
p15
I10856
sS'TAAGGT'
p16
I10298
sS'CGTGTC'
p17
I6852
sS'CGTGTA'
p18
I3605
sS'AGGCAA'
p19
I24926
sS'GGAAAT'
p20
I26827
sS'TAAGGG'
p21
I13008
sS'CGTGTT'
p22
I6321
sS'TAAGGC'
p23
I11657
sS'TAAGGA'
p24
I15734
sS'GTCAAA'
p25
I14876
sS'GTCAAC'
p26
I9928
sS'GTCAAG'
p27
I14092
sS'CTGTCC'
p28
I33175
sS'TCAGAG'
p29
I34568
sS'CTGTCA'
p30
I26225
sS'CTCGCC'
p31
I15329
sS'CTGTCG'
p32
I7250
sS'TCAGAC'
p33
I18180
sS'TCAGAA'
p34
I29237
sS'GTCAAT'
p35
I9164
sS'GTATCA'
p36
I7601
sS'GTATCC'
p37
I7026
sS'GTATCG'
p38
I1548
sS'CTGTCT'
p39
I35516
sS'GGTGTC'
p40
I17061
sS'GGTGTA'
p41
I8343
sS'GGTGTG'
p42
I26526
sS'TATCCT'
p43
I11865
sS'CCGGGG'
p44
I30491
sS'TTCTGT'
p45
I33482
sS'ATTCCT'
p46
I25591
sS'CCGGGC'
p47
I32954
sS'CCGGGA'
p48
I22378
sS'TATCCA'
p49
I11148
sS'TATCCC'
p50
I10156
sS'GTTCTG'
p51
I23601
sS'GGCGAG'
p52
I15344
sS'GGTGTT'
p53
I16024
sS'ATTCCG'
p54
I4330
sS'TTCTGG'
p55
I32691
sS'CCGGGT'
p56
I14113
sS'ATTCCC'
p57
I19590
sS'TTCTGC'
p58
I29380
sS'ATTCCA'
p59
I25306
sS'TTCTGA'
p60
I28909
sS'TGCACT'
p61
I22136
sS'CTGCCC'
p62
I55562
sS'GGNCCG'
p63
I1
sS'TATCTT'
p64
I14724
sS'GTTCTC'
p65
I19320
sS'CCCGCG'
p66
I22955
sS'CGCGGG'
p67
I22853
sS'NCCGCC'
p68
I1
sS'CGCGGC'
p69
I23603
sS'CGCGGA'
p70
I9651
sS'GTCCTT'
p71
I20035
sS'ACCTGT'
p72
I20204
sS'ATACTA'
p73
I7308
sS'TCATGT'
p74
I17177
sS'CTCCGA'
p75
I8890
sS'TTACAG'
p76
I24827
sS'CTCCGC'
p77
I22664
sS'TTACAA'
p78
I17445
sS'TTACAC'
p79
I12281
sS'CTCCGG'
p80
I18609
sS'TCATGC'
p81
I15821
sS'TGCGAT'
p82
I3364
sS'TCATGA'
p83
I16222
sS'TCATGG'
p84
I18180
sS'ACCTGC'
p85
I26399
sS'ACCTGA'
p86
I20432
sS'GTATTT'
p87
I22163
sS'CTCCGT'
p88
I9830
sS'GCCTGA'
p89
I27702
sS'GCCTGC'
p90
I38323
sS'GCCTGG'
p91
I63273
sS'TCTTGC'
p92
I19967
sS'TAAAGG'
p93
I18062
sS'CAAATT'
p94
I19003
sS'TAAAGA'
p95
I20970
sS'TAAAGC'
p96
I15007
sS'GCCTGT'
p97
I31924
sS'TCCCCG'
p98
I22645
sS'TAAAGT'
p99
I16671
sS'CAAATA'
p100
I23988
sS'ACGTCC'
p101
I6183
sS'CAAATC'
p102
I16450
sS'CGTGCT'
p103
I7948
sS'CAAATG'
p104
I24533
sS'GACTTC'
p105
I17723
sS'TATCTC'
p106
I13410
sS'GGCATG'
p107
I21460
sS'GTCCTC'
p108
I23468
sS'GGCATC'
p109
I15197
sS'AATACG'
p110
I3076
sS'AATACA'
p111
I20106
sS'AATACC'
p112
I10533
sS'GGCATT'
p113
I17199
sS'TCCCCA'
p114
I45122
sS'TGCACA'
p115
I26064
sS'GAGCAC'
p116
I18929
sS'ACTGAT'
p117
I13713
sS'GAGCAG'
p118
I38710
sS'AGTAGT'
p119
I9672
sS'TCTCGC'
p120
I8933
sS'TCTCGA'
p121
I5257
sS'TCTCGG'
p122
I11019
sS'ACTGAG'
p123
I27556
sS'AGTAGA'
p124
I14784
sS'AGTAGG'
p125
I14121
sS'GAGCAT'
p126
I14336
sS'ACGGCC'
p127
I9485
sS'TCTCGT'
p128
I4765
sS'GTGTCG'
p129
I4506
sS'TCGAAC'
p130
I3646
sS'TCGAAA'
p131
I3459
sS'GTGTCC'
p132
I21176
sS'TCGAAG'
p133
I4103
sS'GTGTCA'
p134
I17208
sS'CTTGCT'
p135
I26769
sS'TCGGTC'
p136
I4966
sS'CCACAA'
p137
I21507
sS'GTGTCT'
p138
I21998
sS'AGCCCC'
p139
I41930
sS'TCGAAT'
p140
I2836
sS'CTTGCG'
p141
I5621
sS'CTTGCA'
p142
I19424
sS'CTTGCC'
p143
I22807
sS'CGAAAG'
p144
I5670
sS'CGAAAA'
p145
I4706
sS'CGAAAC'
p146
I4443
sS'AATCAT'
p147
I15865
sS'AAATGC'
p148
I24665
sS'CACGGC'
p149
I11812
sS'AAATGA'
p150
I32570
sS'AAATGG'
p151
I26075
sS'CACGGG'
p152
I11628
sS'ACAGTA'
p153
I15059
sS'CGAAAT'
p154
I3656
sS'ACAGTT'
p155
I18979
sS'AATCAG'
p156
I19550
sS'AATCAA'
p157
I16596
sS'AAATGT'
p158
I30660
sS'AATCAC'
p159
I15870
sS'TTTGTA'
p160
I23765
sS'GCTCAA'
p161
I18101
sS'TCTAGT'
p162
I11950
sS'TTGCCG'
p163
I5559
sS'TTGCCA'
p164
I20695
sS'GGGTAT'
p165
I7997
sS'TTGCCT'
p166
I24314
sS'TCTAGG'
p167
I16041
sS'GGGTAA'
p168
I11747
sS'TCTAGA'
p169
I14813
sS'GGGTAG'
p170
I13884
sS'TCTAGC'
p171
I11902
sS'ATACGG'
p172
I2432
sS'TGACTA'
p173
I11060
sS'AATTGG'
p174
I11881
sS'TGGGCC'
p175
I33510
sS'AGATGT'
p176
I17546
sS'TCGCCC'
p177
I12658
sS'ACTGCG'
p178
I8398
sS'TCGCCG'
p179
I7369
sS'GGTAAT'
p180
I8990
sS'ACCCAT'
p181
I13202
sS'CTCACC'
p182
I30330
sS'ACCCAC'
p183
I22941
sS'GGTAAC'
p184
I8618
sS'ACCCAA'
p185
I17579
sS'AGATGG'
p186
I26635
sS'ACCCAG'
p187
I37508
sS'GGTAAG'
p188
I11857
sS'TCGCCT'
p189
I8695
sS'AGATGC'
p190
I16971
sS'TTTGAG'
p191
I28614
sS'CCCCAT'
p192
I25243
sS'TTGGGT'
p193
I17177
sS'CACTAG'
p194
I12375
sS'GTTCCG'
p195
I6065
sS'CACTAC'
p196
I9454
sS'CCCCAA'
p197
I29729
sS'CCCCAC'
p198
I46056
sS'CCCCAG'
p199
I60075
sS'CACTAT'
p200
I9936
sS'TTGGGG'
p201
I29377
sS'CCGTCC'
p202
I11713
sS'TTGGGA'
p203
I28624
sS'TTGGGC'
p204
I19529
sS'TGCCTG'
p205
I45080
sS'TAGTGG'
p206
I12754
sS'TTTCTG'
p207
I41327
sS'TGCAGC'
p208
I35046
sS'TTTCTA'
p209
I24105
sS'TTTCTC'
p210
I39648
sS'TGCAGG'
p211
I38466
sS'GGGTCA'
p212
I21381
sS'TACCGC'
p213
I3429
sS'GTATCT'
p214
I10437
sS'TTTCTT'
p215
I48462
sS'TGCCTT'
p216
I29517
sS'TGCAGT'
p217
I30506
sS'ACGATG'
p218
I3954
sS'TAGTGC'
p219
I8553
sS'AAGGAA'
p220
I40212
sS'AAGGAC'
p221
I20141
sS'AAGGAG'
p222
I34152
sS'ATATGC'
p223
I9121
sS'GTTCCA'
p224
I17547
sS'ATATGA'
p225
I11471
sS'ATATGG'
p226
I9682
sS'AAGGAT'
p227
I17073
sS'CTATCA'
p228
I9281
sS'ATATGT'
p229
I13167
sS'GGTCCC'
p230
I26350
sS'GCCCAG'
p231
I59786
sS'CCACTG'
p232
I36687
sS'GCCCAA'
p233
I19475
sS'GGTCCG'
p234
I8106
sS'AGGTCT'
p235
I20320
sS'ATGGCG'
p236
I7561
sS'AGACCC'
p237
I23211
sS'ATTGTT'
p238
I18044
sS'CTTCGA'
p239
I4059
sS'CTTCGC'
p240
I7447
sS'ATGCAA'
p241
I17190
sS'GCCCAT'
p242
I16277
sS'AGGTCA'
p243
I29163
sS'AAAGTT'
p244
I23939
sS'TCCGGC'
p245
I12495
sS'GGTCCT'
p246
I20303
sS'TCCGGA'
p247
I8586
sS'CTACCT'
p248
I15033
sS'ATTGTG'
p249
I16133
sS'CTTAGA'
p250
I13966
sS'CCACTC'
p251
I25808
sS'CTTAGG'
p252
I14331
sS'ATTGTC'
p253
I11620
sS'TCTTGG'
p254
I24165
sS'GCCTTT'
p255
I27492
sS'ATTTTG'
p256
I25528
sS'GAGGTG'
p257
I33353
sS'ATTTTA'
p258
I30936
sS'TAAATT'
p259
I19549
sS'ATTTTC'
p260
I28625
sS'ACAATA'
p261
I13493
sS'TAGCAG'
p262
I15824
sS'GATACT'
p263
I8184
sS'TAGCAC'
p264
I10479
sS'TAGCAA'
p265
I13603
sS'GAGGTT'
p266
I20182
sS'ATTTTT'
p267
I47438
sS'GCCTTG'
p268
I27592
sS'TAGTGT'
p269
I10310
sS'GCCTTA'
p270
I11666
sS'TTGACA'
p271
I15800
sS'GCCTTC'
p272
I27342
sS'GATACG'
p273
I2144
sS'TAGCAT'
p274
I10405
sS'GATACC'
p275
I6455
sS'GATTTC'
p276
I17493
sS'TGAGCT'
p277
I28816
sS'ACGGAC'
p278
I4553
sS'GATCAT'
p279
I10590
sS'ACCGAG'
p280
I8107
sS'AAGACC'
p281
I17436
sS'ACAATG'
p282
I18389
sS'AAACAT'
p283
I27265
sS'AAGACG'
p284
I5865
sS'GATCAG'
p285
I13997
sS'TGAGCG'
p286
I8878
sS'TGAGCA'
p287
I26286
sS'TGAGCC'
p288
I34011
sS'AAGACT'
p289
I18232
sS'ACCACG'
p290
I8803
sS'GCGGTA'
p291
I3470
sS'CGTGCA'
p292
I7798
sS'GCGGTG'
p293
I15746
sS'CGGTGT'
p294
I6480
sS'TCGTTA'
p295
I2452
sS'TCGTTC'
p296
I4106
sS'CTTCCC'
p297
I48727
sS'TCGTTG'
p298
I3435
sS'TGTGTG'
p299
I58806
sS'GCGGTT'
p300
I5748
sS'ACTTGC'
p301
I15185
sS'ACCACC'
p302
I21870
sS'ACTTGA'
p303
I16887
sS'CGGTGG'
p304
I15296
sS'ACTTGG'
p305
I20994
sS'ACGGAA'
p306
I6051
sS'CCGTTA'
p307
I2839
sS'CGGTGC'
p308
I10583
sS'TTCCTA'
p309
I19874
sS'TAGACT'
p310
I9991
sS'TTCCTC'
p311
I39299
sS'ACTGAC'
p312
I16148
sS'CTTCCG'
p313
I11768
sS'TTCCTG'
p314
I47158
sS'TCCTTT'
p315
I35913
sS'GACCCA'
p316
I21055
sS'ACGCTA'
p317
I2657
sS'TAGACG'
p318
I2756
sS'TTCCTT'
p319
I39761
sS'TAGACC'
p320
I7793
sS'TAGACA'
p321
I12720
sS'TCCTTG'
p322
I25608
sS'TCCTTA'
p323
I15593
sS'TCCTTC'
p324
I33578
sS'ATCTCT'
p325
I23757
sS'TCCGCA'
p326
I7945
sS'ACCGTT'
p327
I3576
sS'TGGCGC'
p328
I13354
sS'TGGCGA'
p329
I6886
sS'TGGCGG'
p330
I16564
sS'ATCTCG'
p331
I5347
sS'ATCTCA'
p332
I20934
sS'ATCTCC'
p333
I20100
sS'GGCCAA'
p334
I24130
sS'GGCCAC'
p335
I31243
sS'ACCGTG'
p336
I7573
sS'ATGCAG'
p337
I22514
sS'GGCCAG'
p338
I48556
sS'ACCGTC'
p339
I4683
sS'ACCGAC'
p340
I3929
sS'AGAATT'
p341
I22502
sS'GGCAGT'
p342
I24224
sS'CCATAA'
p343
I10874
sS'CAAAGG'
p344
I32653
sS'CCATAC'
p345
I7822
sS'CAAAGA'
p346
I30459
sS'AGATTC'
p347
I15769
sS'CAAAGC'
p348
I27649
sS'CAACGT'
p349
I4580
sS'GGCAGA'
p350
I38172
sS'GGCAGC'
p351
I43778
sS'AACGTA'
p352
I3050
sS'GGCAGG'
p353
I58372
sS'CAACGC'
p354
I5037
sS'GCACTA'
p355
I8393
sS'CAACGA'
p356
I3494
sS'GCACTC'
p357
I19199
sS'CCATAT'
p358
I9752
sS'GCACTG'
p359
I26307
sS'GGGGGT'
p360
I25577
sS'TACGCT'
p361
I2408
sS'GAAACC'
p362
I22078
sS'CGATCT'
p363
I4511
sS'NNNNNC'
p364
I2
sS'CTCTAG'
p365
I17467
sS'CTCTAA'
p366
I15929
sS'CTCTAC'
p367
I15669
sS'GGGGGG'
p368
I26130
sS'CGATCC'
p369
I4502
sS'TACGCC'
p370
I2836
sS'GGGGGC'
p371
I44590
sS'CGATCG'
p372
I1408
sS'GGGGGA'
p373
I34508
sS'TACGCG'
p374
I1580
sS'CTCTAT'
p375
I12482
sS'CCCCGC'
p376
I44086
sS'CAGACC'
p377
I23493
sS'CAGACA'
p378
I30673
sS'CAGACG'
p379
I8871
sS'CGCTAA'
p380
I3132
sS'TAGTTG'
p381
I9196
sS'GCTAAT'
p382
I11539
sS'TAGTTC'
p383
I10114
sS'TAGTTA'
p384
I9374
sS'CAGACT'
p385
I22894
sS'GCTAAG'
p386
I12728
sS'TAGTTT'
p387
I16250
sS'GCTAAC'
p388
I8243
sS'GCTAAA'
p389
I12862
sS'CGAGTA'
p390
I3178
sS'TAAGTG'
p391
I14509
sS'GCGAAA'
p392
I4756
sS'AACCCT'
p393
I19566
sS'AACCCC'
p394
I20520
sS'TGCATG'
p395
I19513
sS'TGCATA'
p396
I12280
sS'TGCATC'
p397
I14016
sS'AGAATA'
p398
I16895
sS'CTACAA'
p399
I13816
sS'ACGTAC'
p400
I2613
sS'AACGTT'
p401
I4842
sS'AGTTTA'
p402
I16399
sS'CCCAGA'
p403
I43160
sS'CCCAGC'
p404
I68833
sS'CCCAGG'
p405
I72466
sS'AACTGT'
p406
I19219
sS'AGTTTT'
p407
I26263
sS'CTACAT'
p408
I10774
sS'AGTCAA'
p409
I15694
sS'CGAGTC'
p410
I6478
sS'CCCAGT'
p411
I29937
sS'TTGACG'
p412
I2965
sS'CGCATA'
p413
I2020
sS'ATACTG'
p414
I11997
sS'CGCATC'
p415
I4890
sS'CTTGAA'
p416
I22579
sS'ATACTC'
p417
I8179
sS'CGCATG'
p418
I5623
sS'GCGCAA'
p419
I5021
sS'ATACTT'
p420
I12563
sS'CGCATT'
p421
I4184
sS'AGGCCC'
p422
I38206
sS'GCTCCG'
p423
I18866
sS'TATTGT'
p424
I13284
sS'GCTCCC'
p425
I39775
sS'GCTCCA'
p426
I30248
sS'CCTACT'
p427
I14168
sS'TGTACT'
p428
I13221
sS'TTTAGT'
p429
I16212
sS'TATTGG'
p430
I9559
sS'GCTCCT'
p431
I34147
sS'TATTGC'
p432
I9761
sS'GCTGGG'
p433
I67924
sS'TTTAGG'
p434
I16016
sS'TGTACG'
p435
I2705
sS'CCTACG'
p436
I3947
sS'TGTACA'
p437
I15073
sS'CCTACA'
p438
I13582
sS'TGTACC'
p439
I9890
sS'CCTACC'
p440
I15419
sS'TTCGCG'
p441
I3170
sS'TTCGCA'
p442
I3960
sS'TTCGCC'
p443
I6193
sS'AGTATC'
p444
I8016
sS'GACTAA'
p445
I9396
sS'AGTATA'
p446
I8056
sS'TTTGGG'
p447
I30867
sS'AGTATG'
p448
I9625
sS'TTTGGA'
p449
I26754
sS'GACTAG'
p450
I8762
sS'TTCGCT'
p451
I5446
sS'GATCNN'
p452
I1
sS'TTTGGT'
p453
I19937
sS'GTCAGC'
p454
I20140
sS'GACTAT'
p455
I7444
sS'AGTTTG'
p456
I21652
sS'AGTATT'
p457
I13816
sS'TTACTC'
p458
I13247
sS'TTACTA'
p459
I10614
sS'TTACTG'
p460
I17099
sS'ACCTTG'
p461
I22300
sS'ACCTTC'
p462
I19962
sS'ACCTTA'
p463
I10458
sS'CTAATA'
p464
I9290
sS'TTACTT'
p465
I18574
sS'ACGCTT'
p466
I4704
sS'ACCTTT'
p467
I21726
sS'ACAGGG'
p468
I32372
sS'CTGGGA'
p469
I56659
sS'CTGGGC'
p470
I59442
sS'ACAGGC'
p471
I32187
sS'CTTTTA'
p472
I23411
sS'TTATAT'
p473
I13690
sS'CTGGGG'
p474
I59818
sS'CAGGAC'
p475
I29468
sS'GCAGCT'
p476
I37035
sS'CAGGAA'
p477
I47093
sS'TCGCTT'
p478
I6690
sS'CAGGAG'
p479
I55379
sS'AGGACA'
p480
I29484
sS'GCGCAT'
p481
I4898
sS'TTATAC'
p482
I7873
sS'ACAGGT'
p483
I20164
sS'CTGGGT'
p484
I37163
sS'TTATAG'
p485
I10231
sS'TCGCTG'
p486
I9931
sS'GCAGCG'
p487
I19754
sS'AGGACT'
p488
I23301
sS'TCGCTC'
p489
I9098
sS'GCAGCC'
p490
I47189
sS'CAGGAT'
p491
I23281
sS'CCTCAG'
p492
I46021
sS'CCTCAA'
p493
I21538
sS'CCTCAC'
p494
I30081
sS'TATGTT'
p495
I14734
sS'ATGGGC'
p496
I16073
sS'TCTTTG'
p497
I30181
sS'ATGGGA'
p498
I22147
sS'TCTTTA'
p499
I20460
sS'ATGGGG'
p500
I25013
sS'TCTTTC'
p501
I33947
sS'CCTCAT'
p502
I22444
sS'TCTTTT'
p503
I40335
sS'TATGTG'
p504
I15678
sS'TATGTA'
p505
I12778
sS'ATGGGT'
p506
I13249
sS'TATGTC'
p507
I9245
sS'ACCTGG'
p508
I32640
sS'GAAAGA'
p509
I34214
sS'ATCAAG'
p510
I12887
sS'CATGAT'
p511
I13241
sS'ATCAAC'
p512
I9240
sS'GAAAGG'
p513
I34376
sS'GTCCAC'
p514
I15896
sS'GTCAGG'
p515
I26859
sS'ACGTGG'
p516
I10869
sS'CATGAG'
p517
I20651
sS'ATCAAT'
p518
I10711
sS'GTCCAA'
p519
I14023
sS'CATGAC'
p520
I14562
sS'CATGAA'
p521
I19392
sS'GTAGCG'
p522
I3526
sS'CAAGTT'
p523
I17535
sS'GCGGCT'
p524
I17652
sS'GTAGCC'
p525
I10448
sS'GCTTTC'
p526
I24508
sS'ACGTGT'
p527
I6739
sS'AAAGTA'
p528
I19774
sS'GCGGCG'
p529
I31683
sS'CAAGTG'
p530
I21476
sS'GTAGCT'
p531
I14057
sS'GCGGCC'
p532
I29442
sS'CAAGTC'
p533
I16929
sS'GCGGCA'
p534
I12648
sS'TTACAT'
p535
I16168
sS'AACGGT'
p536
I3517
sS'CCCTTT'
p537
I31579
sS'ACCCTC'
p538
I24386
sS'TAATCG'
p539
I1949
sS'CTTGTG'
p540
I21052
sS'TAATCA'
p541
I12829
sS'TAATCC'
p542
I15633
sS'TGCGAA'
p543
I3887
sS'CGGCCC'
p544
I28551
sS'CGACTA'
p545
I1872
sS'CGGCCA'
p546
I14962
sS'CGCTAT'
p547
I2498
sS'CGGCCG'
p548
I21428
sS'TCGTGA'
p549
I4261
sS'CTTGTA'
p550
I11977
sS'GGTCTG'
p551
I23354
sS'GAGTTC'
p552
I18473
sS'TGCGAC'
p553
I4009
sS'GGTCTC'
p554
I23959
sS'GGTCTA'
p555
I7808
sS'CAGTCA'
p556
I22550
sS'AAAATG'
p557
I37328
sS'AAAATC'
p558
I22758
sS'CGGCCT'
p559
I19451
sS'TTCAGC'
p560
I24178
sS'CTAACC'
p561
I9933
sS'TTCAGA'
p562
I28245
sS'TTCAGG'
p563
I27349
sS'GAACAT'
p564
I13901
sS'TCGTCG'
p565
I2095
sS'TTTAGC'
p566
I12817
sS'TGTTTT'
p567
I44937
sS'TCGGGA'
p568
I9137
sS'GAACAA'
p569
I20248
sS'ATCCCG'
p570
I7005
sS'GAACAC'
p571
I15646
sS'TCGTCT'
p572
I4850
sS'GAACAG'
p573
I23184
sS'TTCAGT'
p574
I23708
sS'AACGGA'
p575
I5090
sS'CACCAC'
p576
I28842
sS'NNNCTG'
p577
I1
sS'CACCAA'
p578
I19351
sS'CACCAG'
p579
I31920
sS'TCCGTG'
p580
I8459
sS'ATTGCG'
p581
I3162
sS'TCCGTC'
p582
I7103
sS'GAGTTA'
p583
I11787
sS'TCCGTA'
p584
I2964
sS'ACCAGA'
p585
I21709
sS'CGGCGT'
p586
I6270
sS'ACGCGA'
p587
I2634
sS'CACCAT'
p588
I20407
sS'AACATG'
p589
I19886
sS'AACATA'
p590
I14875
sS'AACATC'
p591
I14794
sS'TCAGCA'
p592
I29076
sS'GCACGG'
p593
I10316
sS'GTCAGA'
p594
I19874
sS'GCACGA'
p595
I4927
sS'CAGTCC'
p596
I24174
sS'GCACGC'
p597
I9544
sS'GCAAGT'
p598
I15205
sS'AACAAC'
p599
I16482
sS'GCAAGC'
p600
I16265
sS'GCACGT'
p601
I7420
sS'CAGTCT'
p602
I23902
sS'TCAGCT'
p603
I29767
sS'GTCAGT'
p604
I15905
sS'TATCTA'
p605
I9749
sS'GTATAC'
p606
I4968
sS'TTCCGT'
p607
I6037
sS'ACGGCT'
p608
I6808
sS'GTATAG'
p609
I5486
sS'CCGGAA'
p610
I10360
sS'CCGGAC'
p611
I9383
sS'CCGGAG'
p612
I18665
sS'CGTCTT'
p613
I5854
sS'CTCGTA'
p614
I2523
sS'TTCCGG'
p615
I10481
sS'TTCCGA'
p616
I5185
sS'TTCCGC'
p617
I8529
sS'GTATAT'
p618
I8368
sS'TATCAC'
p619
I9168
sS'CGTCTA'
p620
I2782
sS'CGTCTG'
p621
I8872
sS'CCGGAT'
p622
I5383
sS'CTCTTC'
p623
I33486
sS'TGTTAT'
p624
I14484
sS'CTCTTA'
p625
I15596
sS'CTCTTG'
p626
I25221
sS'CCCGAT'
p627
I4176
sS'TACGTA'
p628
I2602
sS'TACGTC'
p629
I2341
sS'TCTGGT'
p630
I21208
sS'AACAAA'
p631
I43749
sS'CGCGAT'
p632
I2867
sS'TACGTG'
p633
I4244
sS'TGTTAG'
p634
I13168
sS'GGTTTC'
p635
I21667
sS'CTCGTG'
p636
I7347
sS'CTCTTT'
p637
I34475
sS'TGTTAA'
p638
I16890
sS'TCTGGG'
p639
I42936
sS'CGCGAC'
p640
I4725
sS'GATATT'
p641
I11145
sS'TCTGGC'
p642
I29482
sS'TACGTT'
p643
I3007
sS'TCTGGA'
p644
I31123
sS'AGTCGT'
p645
I3387
sS'GGTACT'
p646
I8269
sS'TTACCT'
p647
I15636
sS'CTCCAT'
p648
I24105
sS'TTACCG'
p649
I3133
sS'CTCCAC'
p650
I32243
sS'AGTCGG'
p651
I6521
sS'TTACCC'
p652
I11790
sS'CTCCAG'
p653
I52556
sS'TTACCA'
p654
I13525
sS'AGTCGC'
p655
I5348
sS'AATGCC'
p656
I17408
sS'AATACT'
p657
I13991
sS'GTACCG'
p658
I2560
sS'CCGACT'
p659
I6419
sS'GCCTAC'
p660
I9666
sS'GCCTAA'
p661
I10450
sS'CCGAGG'
p662
I21011
sS'GCCTAG'
p663
I15122
sS'CCGACA'
p664
I5460
sS'CCCTGT'
p665
I32118
sS'CCGACC'
p666
I9219
sS'CCGACG'
p667
I4563
sS'AACTCA'
p668
I19733
sS'GCCTAT'
p669
I8784
sS'AAGCTA'
p670
I12811
sS'CCCGAG'
p671
I18675
sS'AAGCTG'
p672
I30085
sS'CTAAGT'
p673
I11998
sS'GCTGTC'
p674
I23676
sS'CGCACA'
p675
I8738
sS'ATACAC'
p676
I11819
sS'CGCACC'
p677
I10595
sS'GGGTCG'
p678
I9397
sS'ACTGCT'
p679
I23468
sS'TTTGTT'
p680
I43786
sS'CGCACG'
p681
I6486
sS'GGGTCC'
p682
I24768
sS'CTCACT'
p683
I31784
sS'GGCATA'
p684
I8610
sS'GGGTCT'
p685
I23113
sS'ACTGCA'
p686
I30698
sS'TTTGTC'
p687
I21733
sS'ACTGCC'
p688
I24034
sS'CGCACT'
p689
I6557
sS'TTTGTG'
p690
I29017
sS'TAGAGC'
p691
I12015
sS'CTTGAC'
p692
I14175
sS'CTCACA'
p693
I28244
sS'CTCACG'
p694
I10312
sS'GTGGGT'
p695
I22869
sS'GTGAGG'
p696
I29763
sS'GATTTT'
p697
I22843
sS'ACAATT'
p698
I14864
sS'GTGAGC'
p699
I26352
sS'TAGTGA'
p700
I12126
sS'GTGAGA'
p701
I23143
sS'TCGACG'
p702
I1522
sS'TCGACA'
p703
I2588
sS'TCGACC'
p704
I3448
sS'GATTTG'
p705
I16234
sS'GTGAGT'
p706
I20624
sS'GTGGGG'
p707
I45725
sS'GTGGGA'
p708
I31784
sS'GTGGGC'
p709
I28005
sS'TCGACT'
p710
I2932
sS'GTGGGN'
p711
I1
sS'GTACAC'
p712
I8948
sS'ACGTAA'
p713
I3458
sS'CTGGTT'
p714
I22509
sS'TGCAAA'
p715
I28479
sS'CGAACG'
p716
I2220
sS'CGAACC'
p717
I4324
sS'CGAACA'
p718
I3661
sS'CTGGTG'
p719
I31923
sS'CTGGTA'
p720
I13286
sS'CTGGTC'
p721
I23522
sS'CTGCAA'
p722
I26713
sS'CGAACT'
p723
I4654
sS'TGTCCG'
p724
I6542
sS'TTGCAT'
p725
I17130
sS'GACGAG'
p726
I6354
sS'NNGAAT'
p727
I1
sS'TTGCAG'
p728
I26904
sS'ACTCCT'
p729
I25524
sS'TTGCAC'
p730
I15739
sS'TTGCAA'
p731
I19412
sS'AAGATC'
p732
I13386
sS'TCCATC'
p733
I19443
sS'TCGCAT'
p734
I2839
sS'GAGCGG'
p735
I16649
sS'GTCGTG'
p736
I4526
sS'GTCGTA'
p737
I1722
sS'GTCGTC'
p738
I3871
sS'CCGTTT'
p739
I6916
sS'GAGCAA'
p740
I22350
sS'GTCGTT'
p741
I3147
sS'TCGCAG'
p742
I8051
sS'CGAATT'
p743
I3065
sS'TCGCAC'
p744
I4290
sS'CCGTTG'
p745
I4542
sS'CGCTGC'
p746
I20045
sS'CCGTTC'
p747
I6097
sS'GATCGG'
p748
I3471
sS'AATGCT'
p749
I19878
sS'GGTACG'
p750
I2571
sS'GGTACA'
p751
I10000
sS'GGTACC'
p752
I7512
sS'TATTTG'
p753
I24240
sS'CAGGGA'
p754
I48237
sS'TATTTC'
p755
I21883
sS'TATTTA'
p756
I27197
sS'CCCCCT'
p757
I34339
sS'GCCACT'
p758
I27046
sS'AATGCG'
p759
I4041
sS'AATCTT'
p760
I16389
sS'TGCAAT'
p761
I16392
sS'AATGCA'
p762
I22124
sS'CCCCCC'
p763
I25723
sS'CCCCCA'
p764
I44374
sS'TATTTT'
p765
I40988
sS'CCCCCG'
p766
I25935
sS'GAGCGA'
p767
I8960
sS'CTTGAG'
p768
I23205
sS'ATGATG'
p769
I15448
sS'ATGATA'
p770
I9893
sS'GCGTTA'
p771
I2679
sS'AGACGC'
p772
I8011
sS'CGGACT'
p773
I6183
sS'TGCAAC'
p774
I14833
sS'TTGAGT'
p775
I16458
sS'TGCAAG'
p776
I19293
sS'GCCGTC'
p777
I8760
sS'ATGATT'
p778
I15654
sS'CTTGAT'
p779
I12913
sS'CGAATC'
p780
I3209
sS'TTGAGG'
p781
I21311
sS'AATCTC'
p782
I16879
sS'GATCGA'
p783
I2399
sS'TTGAGC'
p784
I17895
sS'TTGAGA'
p785
I24100
sS'GAGAAT'
p786
I20861
sS'TGTCTT'
p787
I24644
sS'CGAATA'
p788
I2116
sS'AGTAGC'
p789
I13543
sS'AAGGCC'
p790
I27750
sS'TATCGA'
p791
I1536
sS'AAGGCA'
p792
I29918
sS'ATAACA'
p793
I14321
sS'AAGGCG'
p794
I10486
sS'ATAACG'
p795
I2561
sS'TGTGGT'
p796
I24232
sS'TGTCTG'
p797
I30579
sS'GAGAAG'
p798
I36434
sS'GAGAAA'
p799
I40097
sS'CTGTTG'
p800
I23554
sS'GAGAAC'
p801
I19765
sS'TGTCTA'
p802
I12554
sS'TGTGGC'
p803
I28673
sS'TGTGGA'
p804
I25798
sS'TGTGGG'
p805
I33570
sS'TGACAC'
p806
I17066
sS'ATAACT'
p807
I11829
sS'AAGGCT'
p808
I26195
sS'TAGGCT'
p809
I13308
sS'CAATTT'
p810
I17511
sS'AACGGC'
p811
I5281
sS'GCCCCG'
p812
I36916
sS'ACCAAG'
p813
I19171
sS'GGTCAG'
p814
I27794
sS'GCCCCC'
p815
I44862
sS'GGTCAA'
p816
I13848
sS'GCCCCA'
p817
I41495
sS'GGTCAC'
p818
I20160
sS'AACAAT'
p819
I18280
sS'GATCGC'
p820
I4700
sS'GGTCAT'
p821
I13383
sS'CGTGCC'
p822
I10007
sS'AGGTAG'
p823
I15012
sS'AGGTAA'
p824
I15790
sS'CAAACT'
p825
I21739
sS'TTTTGC'
p826
I23527
sS'TCTTAC'
p827
I11891
sS'TTTTGA'
p828
I27983
sS'TCTTAA'
p829
I16319
sS'AATTGA'
p830
I12451
sS'AAGCAC'
p831
I19742
sS'AATTGC'
p832
I12439
sS'TCCAGC'
p833
I39916
sS'TGGGGT'
p834
I29812
sS'CGCTCG'
p835
I8116
sS'GATAAT'
p836
I10757
sS'CGCTCA'
p837
I8879
sS'TAGCCG'
p838
I4406
sS'AATTGT'
p839
I14550
sS'CGAGAG'
p840
I9844
sS'GCCATC'
p841
I17414
sS'TCTTAT'
p842
I13455
sS'TTTTGT'
p843
I38908
sS'CGCTCT'
p844
I11730
sS'GATAAA'
p845
I16408
sS'GATAAC'
p846
I7895
sS'TAGCCT'
p847
I13621
sS'TGGGGC'
p848
I41211
sS'GATAAG'
p849
I11574
sS'GATCCT'
p850
I15853
sS'AAGAAT'
p851
I23441
sS'CGAAGT'
p852
I4698
sS'GTTATC'
p853
I7889
sS'AAGAAC'
p854
I19464
sS'GATCCA'
p855
I13032
sS'AAGAAA'
p856
I48523
sS'ATGCCA'
p857
I19308
sS'AAGAAG'
p858
I29399
sS'GATCCG'
p859
I5429
sS'ATGCCG'
p860
I4736
sS'CAAGGG'
p861
I25206
sS'ATCGAG'
p862
I3302
sS'CAAGGC'
p863
I27456
sS'GGTTCT'
p864
I18445
sS'CAAGGA'
p865
I25692
sS'GGTTCA'
p866
I16148
sS'GCAACC'
p867
I14382
sS'GGTTCC'
p868
I18343
sS'CAAGGT'
p869
I22226
sS'TGCATT'
p870
I21936
sS'GGTTCG'
p871
I4336
sS'TAGGCA'
p872
I14692
sS'ATTATA'
p873
I12264
sS'ATTATC'
p874
I10639
sS'TAGAAT'
p875
I14352
sS'CAAACG'
p876
I6112
sS'ATTATG'
p877
I11400
sS'CCAGCA'
p878
I44463
sS'TAGAAA'
p879
I24381
sS'TAGAAC'
p880
I10681
sS'ATTATT'
p881
I21348
sS'TAGAAG'
p882
I16303
sS'AGTCTA'
p883
I10228
sS'AGTCTC'
p884
I21543
sS'AGTCTG'
p885
I23041
sS'TAACTC'
p886
I11661
sS'TAACTA'
p887
I9321
sS'TAACTG'
p888
I14619
sS'ATCTAT'
p889
I9906
sS'ACGCGT'
p890
I2461
sS'AGGTAT'
p891
I10549
sS'TAACTT'
p892
I15470
sS'ATCTAG'
p893
I10306
sS'ATCTAC'
p894
I8654
sS'ATCTAA'
p895
I10911
sS'CCATGT'
p896
I20565
sS'ACCAAA'
p897
I20161
sS'TGGAGG'
p898
I42135
sS'TGGAGA'
p899
I35486
sS'TGGAGC'
p900
I29947
sS'CCATGC'
p901
I19165
sS'TCCAGA'
p902
I31095
sS'CCATGA'
p903
I18514
sS'CCATGG'
p904
I23999
sS'TGGAGT'
p905
I26849
sS'ATTACG'
p906
I2446
sS'TCAGTA'
p907
I14412
sS'TCAGTC'
p908
I18246
sS'CTCTCT'
p909
I47362
sS'GGGGAT'
p910
I18761
sS'TCAGTG'
p911
I26538
sS'CGATAT'
p912
I1517
sS'GGGGAA'
p913
I36254
sS'GGGGAC'
p914
I29081
sS'CTCTCC'
p915
I47124
sS'TCAGTT'
p916
I21695
sS'GGGGAG'
p917
I56759
sS'CGATAG'
p918
I1729
sS'CGATAA'
p919
I2015
sS'TATCAA'
p920
I9784
sS'CTAAGG'
p921
I14081
sS'GTGTTT'
p922
I27120
sS'ATAACC'
p923
I9065
sS'GCTACT'
p924
I13403
sS'GTGGTT'
p925
I18160
sS'GTGTTC'
p926
I15706
sS'GTGTTA'
p927
I11057
sS'GTGTTG'
p928
I17132
sS'ACCAAT'
p929
I10875
sS'GTGGTA'
p930
I10711
sS'GCTACA'
p931
I11924
sS'GTGGTC'
p932
I15453
sS'GCTACC'
p933
I9760
sS'GTGGTG'
p934
I28781
sS'GCTACG'
p935
I3555
sS'GCCCCT'
p936
I40178
sS'TTTCGT'
p937
I4535
sS'TGCCCT'
p938
I36562
sS'AGCGTT'
p939
I5403
sS'CGTGCG'
p940
I6307
sS'TGCCCC'
p941
I34623
sS'TGCCCA'
p942
I35492
sS'TGCCCG'
p943
I14495
sS'ACAGTG'
p944
I28381
sS'AGCGTA'
p945
I2574
sS'AGCGTC'
p946
I7089
sS'AGCGTG'
p947
I8701
sS'GGCCCC'
p948
I47073
sS'GGCCCA'
p949
I33996
sS'CACGTG'
p950
I13861
sS'GGCCCG'
p951
I24950
sS'CACGTA'
p952
I4267
sS'CACGTC'
p953
I7209
sS'ACGTGC'
p954
I7394
sS'ACGTGA'
p955
I7138
sS'CTACGG'
p956
I3885
sS'ACAGTC'
p957
I17259
sS'CACGTT'
p958
I6747
sS'TTCACG'
p959
I5769
sS'GGCCCT'
p960
I35664
sS'GGGACA'
p961
I28679
sS'TTTTGG'
p962
I24349
sS'GGGACC'
p963
I26282
sS'AGGGAC'
p964
I26698
sS'GTCTCA'
p965
I22790
sS'CTACGT'
p966
I3432
sS'TCTTAG'
p967
I13910
sS'AGAGAG'
p968
I47481
sS'AGAGAA'
p969
I42063
sS'AGAGAC'
p970
I27432
sS'TCTATA'
p971
I9266
sS'GTCTTT'
p972
I21224
sS'TCTATC'
p973
I9324
sS'TCTATG'
p974
I11372
sS'AGAGAT'
p975
I23426
sS'TTCACA'
p976
I25259
sS'TAGCCA'
p977
I14772
sS'GTCTTG'
p978
I16936
sS'TCTATT'
p979
I15322
sS'GTCTTC'
p980
I17774
sS'GTCTTA'
p981
I9783
sS'GCAGAG'
p982
I47255
sS'GAAGGC'
p983
I27509
sS'GCTCAC'
p984
I26587
sS'GCAGAC'
p985
I19882
sS'GCAGAA'
p986
I29454
sS'GCTCAG'
p987
I36919
sS'ATGCGT'
p988
I3661
sS'TTGCTG'
p989
I28911
sS'TTGCTA'
p990
I13769
sS'TTGCTC'
p991
I22497
sS'GCAGAT'
p992
I19055
sS'GCTCAT'
p993
I16271
sS'GTTTGC'
p994
I19363
sS'TTGCTT'
p995
I27816
sS'ATGCGG'
p996
I5162
sS'CGCTCC'
p997
I18614
sS'ATGCGC'
p998
I4899
sS'ATGCGA'
p999
I2691
sS'TGTAAG'
p1000
I13788
sS'GGCTAG'
p1001
I12690
sS'GTTTGA'
p1002
I17656
sS'TGTAAC'
p1003
I12273
sS'GGCTAC'
p1004
I10449
sS'TGTAAA'
p1005
I24419
sS'CTGAAA'
p1006
I31810
sS'ACTGTA'
p1007
I15322
sS'TTGGTA'
p1008
I10751
sS'ACTGTC'
p1009
I17529
sS'TTGGTC'
p1010
I13711
sS'TTCGAC'
p1011
I2364
sS'ACTGTG'
p1012
I27707
sS'TTGGTG'
p1013
I19285
sS'GACTGC'
p1014
I17914
sS'GGCTAT'
p1015
I9009
sS'TGTAAT'
p1016
I20043
sS'GACTGG'
p1017
I23107
sS'TTCGAT'
p1018
I2399
sS'TTGGTT'
p1019
I18716
sS'ACTGTT'
p1020
I19195
sS'GTTTCT'
p1021
I28686
sS'GAATGA'
p1022
I23091
sS'ATAATT'
p1023
I17048
sS'CCTTTT'
p1024
I32502
sS'GTTTCG'
p1025
I4386
sS'GTTTCC'
p1026
I26551
sS'GTTTCA'
p1027
I21577
sS'ATAATG'
p1028
I13302
sS'CCTTTA'
p1029
I17909
sS'CCTTTC'
p1030
I33950
sS'ATAATC'
p1031
I10339
sS'NNNNGA'
p1032
I1
sS'ATAATA'
p1033
I15372
sS'CCTTTG'
p1034
I32326
sS'ACAGAA'
p1035
I33868
sS'CTCTCG'
p1036
I9827
sS'ACAGAC'
p1037
I22280
sS'ACAGAG'
p1038
I41383
sS'TTATCT'
p1039
I19769
sS'CTGGAC'
p1040
I26060
sS'CTGGAA'
p1041
I39416
sS'CTGGAG'
p1042
I52737
sS'ACAGAT'
p1043
I20971
sS'TGGGGA'
p1044
I44549
sS'TTATCA'
p1045
I13814
sS'CTGGAT'
p1046
I21184
sS'TTATCC'
p1047
I10908
sS'CCAATG'
p1048
I13669
sS'AAACCG'
p1049
I5865
sS'ATTTGT'
p1050
I23835
sS'CCAATC'
p1051
I12778
sS'AAACCC'
p1052
I22866
sS'CCAATA'
p1053
I9785
sS'TGTCGG'
p1054
I5529
sS'GAGATC'
p1055
I14638
sS'AACGAG'
p1056
I4987
sS'GAGATA'
p1057
I13319
sS'TGTCGC'
p1058
I5992
sS'GAGATG'
p1059
I24864
sS'TGTCGA'
p1060
I2511
sS'ATTTGA'
p1061
I19946
sS'CCAATT'
p1062
I11721
sS'ATTTGC'
p1063
I19266
sS'TTGCCC'
p1064
I23179
sS'ATTTGG'
p1065
I20110
sS'CCCTAG'
p1066
I16934
sS'TGTCGT'
p1067
I3836
sS'CCCTAC'
p1068
I13963
sS'GAGATT'
p1069
I16859
sS'CCCTAA'
p1070
I14295
sS'TACAAC'
p1071
I9133
sS'CATTAT'
p1072
I13376
sS'CTACAC'
p1073
I10743
sS'TGGATT'
p1074
I18069
sS'ATCACA'
p1075
I19104
sS'ATCACC'
p1076
I14900
sS'CATGCT'
p1077
I19386
sS'GTAAAC'
p1078
I14016
sS'ATCACG'
p1079
I4928
sS'TGGATA'
p1080
I11161
sS'AGGAAC'
p1081
I21818
sS'CATTAG'
p1082
I11284
sS'CATTAA'
p1083
I14823
sS'TGGATG'
p1084
I19767
sS'CATGCA'
p1085
I19422
sS'TGACAT'
p1086
I17896
sS'CATGCC'
p1087
I21460
sS'ATCACT'
p1088
I17379
sS'AATTAG'
p1089
I14304
sS'GTAGAA'
p1090
I13483
sS'GTAGAC'
p1091
I7257
sS'GTAGAG'
p1092
I15453
sS'GATTGG'
p1093
I12741
sS'ACAACC'
p1094
I13140
sS'GATTGC'
p1095
I10902
sS'GATTGA'
p1096
I9478
sS'ACTAAG'
p1097
I11083
sS'GTAGAT'
p1098
I8600
sS'TGCTAC'
p1099
I10721
sS'ATACGA'
p1100
I1985
sS'ATGAGT'
p1101
I16393
sS'GATTGT'
p1102
I10961
sS'ACAACT'
p1103
I14892
sS'GCGCGT'
p1104
I6682
sS'TAATAG'
p1105
I9710
sS'GTCCGG'
p1106
I9309
sS'TAATAC'
p1107
I8625
sS'GTCCGA'
p1108
I4262
sS'TAATAA'
p1109
I18086
sS'GTCCGC'
p1110
I8450
sS'TGCCAT'
p1111
I19863
sS'GATCCC'
p1112
I14914
sS'ACTCTT'
p1113
I19015
sS'GTCCGT'
p1114
I4515
sS'TAATAT'
p1115
I12750
sS'CGTAAC'
p1116
I2350
sS'ATTCGC'
p1117
I2791
sS'TTCTCC'
p1118
I36787
sS'TGAACT'
p1119
I22600
sS'TTCTCA'
p1120
I30781
sS'ATTCGG'
p1121
I3622
sS'TTCTCG'
p1122
I6867
sS'TCGTAC'
p1123
I1670
sS'TTAATT'
p1124
I19745
sS'TCGTAA'
p1125
I2350
sS'TCGTAG'
p1126
I2638
sS'TCGTCA'
p1127
I3599
sS'TAACGG'
p1128
I2885
sS'ATCCAA'
p1129
I13796
sS'ATCCAC'
p1130
I14761
sS'TTTCAT'
p1131
I27530
sS'TTCTCT'
p1132
I41626
sS'ATTCGT'
p1133
I3009
sS'GAACCC'
p1134
I17972
sS'TACCTG'
p1135
I15983
sS'TACCTA'
p1136
I9020
sS'TACCTC'
p1137
I12619
sS'TCGTAT'
p1138
I1941
sS'ATGTTA'
p1139
I13572
sS'ACCATA'
p1140
I8760
sS'ACCATG'
p1141
I18108
sS'ATGTTG'
p1142
I17621
sS'AGCTCT'
p1143
I30739
sS'TGTCCT'
p1144
I29736
sS'AGTGGT'
p1145
I18553
sS'CGTGGT'
p1146
I8531
sS'ATGAGC'
p1147
I16601
sS'ATGTTT'
p1148
I27106
sS'ACCATT'
p1149
I13941
sS'AGTGGA'
p1150
I22746
sS'AGTGGC'
p1151
I26672
sS'AGCTCC'
p1152
I33751
sS'AGCTCA'
p1153
I28594
sS'TCGCCA'
p1154
I6802
sS'TCCATG'
p1155
I20390
sS'CAGTAA'
p1156
I17307
sS'CAGTAC'
p1157
I10431
sS'CAGTAG'
p1158
I15427
sS'CGCGGT'
p1159
I7882
sS'TTTCAC'
p1160
I24254
sS'CAGTAT'
p1161
I11885
sS'ATGGNA'
p1162
I1
sS'GTTCCT'
p1163
I21768
sS'GATGGN'
p1164
I1
sS'TGCCAG'
p1165
I33363
sS'CCGGCT'
p1166
I18448
sS'GATCTA'
p1167
I6921
sS'GATCTC'
p1168
I14828
sS'ATTGAC'
p1169
I9345
sS'GATCTG'
p1170
I17081
sS'TTTCAG'
p1171
I32380
sS'CCGGCC'
p1172
I31770
sS'ATTAGG'
p1173
I10698
sS'ATTAGA'
p1174
I12034
sS'CACATT'
p1175
I22722
sS'ATTAGC'
p1176
I11419
sS'TCCCTC'
p1177
I43637
sS'GAGCTT'
p1178
I20170
sS'TCCCTA'
p1179
I16357
sS'TGCCAC'
p1180
I25379
sS'TCCCTG'
p1181
I48114
sS'GATCTT'
p1182
I13147
sS'AAGTGA'
p1183
I25797
sS'AAGTGC'
p1184
I21367
sS'TGTTCT'
p1185
I26884
sS'AAGTGG'
p1186
I23197
sS'TGATTG'
p1187
I14968
sS'TCTGAT'
p1188
I18531
sS'TGATTA'
p1189
I12475
sS'TGTTCA'
p1190
I20750
sS'CACAAG'
p1191
I21099
sS'TGTTCC'
p1192
I21536
sS'AAGTGT'
p1193
I18358
sS'CACAAC'
p1194
I15313
sS'TGTTCG'
p1195
I3658
sS'TCTGAA'
p1196
I28229
sS'TGATTT'
p1197
I24223
sS'TCTGAG'
p1198
I33410
sS'CGCGCC'
p1199
I23377
sS'CGCGCA'
p1200
I9203
sS'GGTAAA'
p1201
I14886
sS'CGCGCG'
p1202
I19146
sS'CTCCCT'
p1203
I54115
sS'AGCGGG'
p1204
I16967
sS'GTGCGT'
p1205
I6475
sS'ACCTCT'
p1206
I25316
sS'AGATGA'
p1207
I23904
sS'GACATT'
p1208
I16581
sS'CGCGCT'
p1209
I10943
sS'GTGCGA'
p1210
I4383
sS'ACCTCA'
p1211
I24581
sS'ACCTCG'
p1212
I8717
sS'GTGCGG'
p1213
I11234
sS'GCCTCT'
p1214
I38136
sS'TAAGCC'
p1215
I12310
sS'TAGCTC'
p1216
I12855
sS'CCCATG'
p1217
I21749
sS'CGGGAA'
p1218
I13299
sS'TAATTT'
p1219
I24927
sS'TAGCTG'
p1220
I19203
sS'CCCATC'
p1221
I24204
sS'CCGAGA'
p1222
I10938
sS'CCTGCT'
p1223
I43160
sS'CCGAAT'
p1224
I3615
sS'CCCATT'
p1225
I20486
sS'CGGGAT'
p1226
I7024
sS'GCCTCG'
p1227
I17140
sS'TAGCTT'
p1228
I12688
sS'TAAGCT'
p1229
I11807
sS'GCCTCC'
p1230
I55057
sS'CCGAAC'
p1231
I4502
sS'CCTGCG'
p1232
I18230
sS'CCGAAA'
p1233
I5538
sS'CCGAAG'
p1234
I8215
sS'CCTGCC'
p1235
I58697
sS'CCTGCA'
p1236
I38100
sS'GTACTG'
p1237
I10317
sS'CCATTC'
p1238
I19510
sS'TATAAG'
p1239
I8306
sS'TATAAA'
p1240
I18635
sS'TATAAC'
p1241
I7340
sS'TAACGA'
p1242
I2450
sS'CATTTC'
p1243
I29307
sS'TATAAT'
p1244
I12311
sS'CCATTT'
p1245
I26073
sS'TCTACA'
p1246
I14371
sS'TCTACC'
p1247
I12386
sS'CTAACT'
p1248
I11427
sS'TCTACG'
p1249
I3114
sS'CACCGT'
p1250
I7838
sS'CGCAAC'
p1251
I4096
sS'ACTCCA'
p1252
I26845
sS'CGCAAA'
p1253
I5017
sS'ATACCG'
p1254
I2126
sS'CGCAAG'
p1255
I5751
sS'ATACCA'
p1256
I10965
sS'ATCGGC'
p1257
I3561
sS'TCTACT'
p1258
I14980
sS'CCGAGT'
p1259
I8580
sS'ATACCT'
p1260
I10600
sS'CGCAAT'
p1261
I3288
sS'TAGTAA'
p1262
I10521
sS'TGGGTG'
p1263
I33898
sS'TAGTAC'
p1264
I5274
sS'CTCAAG'
p1265
I23502
sS'CTCAAA'
p1266
I28738
sS'TAGTAG'
p1267
I9139
sS'CTCAAC'
p1268
I14835
sS'GTGTGC'
p1269
I21595
sS'GTGTGA'
p1270
I21769
sS'GTGTGG'
p1271
I28337
sS'CTCAAT'
p1272
I13186
sS'TAGTAT'
p1273
I7255
sS'CTCCCG'
p1274
I25897
sS'GTGTGT'
p1275
I48397
sS'ATCTTT'
p1276
I22162
sS'GTTGGG'
p1277
I20838
sS'GTTGGA'
p1278
I14806
sS'GTTGGC'
p1279
I14674
sS'CCTTGG'
p1280
I33291
sS'CCTTGA'
p1281
I22255
sS'GCGTAT'
p1282
I2011
sS'AGGATT'
p1283
I19231
sS'AGTCTT'
p1284
I17958
sS'CTAAGC'
p1285
I12296
sS'GTTGGT'
p1286
I12554
sS'ATCTTG'
p1287
I15476
sS'GAGAGT'
p1288
I18607
sS'ATCTTA'
p1289
I11174
sS'ATCTTC'
p1290
I15991
sS'CCTTGT'
p1291
I21819
sS'AGGATA'
p1292
I12170
sS'AGGATG'
p1293
I24103
sS'GACATG'
p1294
I14761
sS'TTGCGT'
p1295
I4004
sS'GACATA'
p1296
I9039
sS'TCGGCG'
p1297
I6979
sS'GAATAT'
p1298
I12215
sS'TCGGCC'
p1299
I13670
sS'ATCAGA'
p1300
I18961
sS'TTGCGA'
p1301
I3021
sS'TTGCGC'
p1302
I4967
sS'TTGCGG'
p1303
I5739
sS'GAATAG'
p1304
I10652
sS'TCGGCT'
p1305
I9371
sS'ATCAGC'
p1306
I16040
sS'GAATAC'
p1307
I8792
sS'GAATAA'
p1308
I16370
sS'ACTTTT'
p1309
I26255
sS'TGCAGA'
p1310
I32306
sS'ATACAA'
p1311
I15437
sS'GGACGA'
p1312
I5835
sS'TGCCTC'
p1313
I35752
sS'ACGTCG'
p1314
I2162
sS'TTATAA'
p1315
I15176
sS'GAAATG'
p1316
I29620
sS'AATGAT'
p1317
I16309
sS'GAAATA'
p1318
I22011
sS'GAAATC'
p1319
I17524
sS'ACCGGT'
p1320
I3329
sS'GAAATT'
p1321
I20520
sS'AATGAA'
p1322
I29535
sS'ATGTCC'
p1323
I14958
sS'AATGAC'
p1324
I17288
sS'AATGAG'
p1325
I24364
sS'CTTGGA'
p1326
I24026
sS'CTTGGC'
p1327
I28057
sS'GTATTG'
p1328
I8146
sS'GTTTTC'
p1329
I26205
sS'CTTGGG'
p1330
I31162
sS'ATACAG'
p1331
I14785
sS'AGCCCT'
p1332
I35358
sS'GCGTAA'
p1333
I2320
sS'TTGAAT'
p1334
I17450
sS'GTCCTA'
p1335
I9925
sS'CAAGCT'
p1336
I20051
sS'TGCACG'
p1337
I7710
sS'CTTGGT'
p1338
I19067
sS'GTCCTG'
p1339
I29029
sS'TGCACC'
p1340
I19583
sS'TTGAAA'
p1341
I27401
sS'AGCCCG'
p1342
I17203
sS'AGCCCA'
p1343
I35809
sS'TTGAAG'
p1344
I19662
sS'TTAACT'
p1345
I16193
sS'ATAAAT'
p1346
I25158
sS'TGGTCG'
p1347
I4402
sS'TGGTCA'
p1348
I19056
sS'TGGTCC'
p1349
I17155
sS'ACGATT'
p1350
I2913
sS'GAGACT'
p1351
I21414
sS'GATTCA'
p1352
I14337
sS'TGGTCT'
p1353
I22579
sS'ATAAAG'
p1354
I19617
sS'ATAAAA'
p1355
I30910
sS'TCAGCC'
p1356
I34923
sS'ATAAAC'
p1357
I16445
sS'GAGACG'
p1358
I10612
sS'GATTCG'
p1359
I3117
sS'CTACAG'
p1360
I18264
sS'GAGACC'
p1361
I23980
sS'ACGATC'
p1362
I2621
sS'GAGACA'
p1363
I29123
sS'ACGATA'
p1364
I1779
sS'GGTTAC'
p1365
I8664
sS'ATGTGT'
p1366
I21781
sS'GGTTAA'
p1367
I12059
sS'ACCACT'
p1368
I18599
sS'GGTTAG'
p1369
I9981
sS'CTTCCT'
p1370
I50851
sS'GAATGT'
p1371
I19591
sS'GAGGAC'
p1372
I23521
sS'CGTGAA'
p1373
I5665
sS'CTCAGT'
p1374
I27289
sS'TCCGCT'
p1375
I9137
sS'CTTCCA'
p1376
I32151
sS'ATGTGG'
p1377
I21558
sS'ATGTGA'
p1378
I20290
sS'CGTATG'
p1379
I2254
sS'ATGTGC'
p1380
I15985
sS'GGTTAT'
p1381
I9003
sS'TCCGCC'
p1382
I18328
sS'GACGTG'
p1383
I7256
sS'TCCGCG'
p1384
I9860
sS'AACGTC'
p1385
I4254
sS'TAAGTT'
p1386
I12100
sS'AACGTG'
p1387
I6774
sS'CGTGAC'
p1388
I6687
sS'GGTAGC'
p1389
I9716
sS'AGTGTG'
p1390
I23929
sS'TCTTCG'
p1391
I5500
sS'AGTGTA'
p1392
I11424
sS'TCTTCA'
p1393
I24712
sS'AGTGTC'
p1394
I16914
sS'TCTTCC'
p1395
I36049
sS'CGTGAT'
p1396
I4941
sS'ACTCAA'
p1397
I16401
sS'TAAGTC'
p1398
I9765
sS'TAAGTA'
p1399
I11539
sS'CCGTGA'
p1400
I7372
sS'TCTTCT'
p1401
I31280
sS'AGTGTT'
p1402
I19755
sS'GTGCGC'
p1403
I9770
sS'TTGGCA'
p1404
I19771
sS'AAAGGT'
p1405
I21767
sS'TTGGCC'
p1406
I24486
sS'CCGTGC'
p1407
I10145
sS'CTTATT'
p1408
I16074
sS'TTGGCG'
p1409
I6338
sS'TTCCAT'
p1410
I23137
sS'TCGAGT'
p1411
I3606
sS'GACTTA'
p1412
I9806
sS'GACTTG'
p1413
I17012
sS'AAAGGG'
p1414
I31933
sS'AAAGGA'
p1415
I36119
sS'TTGGCT'
p1416
I24549
sS'AAAGGC'
p1417
I27749
sS'AGTAAG'
p1418
I13736
sS'GTATGG'
p1419
I7529
sS'GTCGAT'
p1420
I1771
sS'GACTTT'
p1421
I21935
sS'TTCTTT'
p1422
I47112
sS'CAAGAA'
p1423
I23914
sS'AGCGAG'
p1424
I11830
sS'CAAGAC'
p1425
I16894
sS'TCAGCG'
p1426
I9390
sS'CGTATT'
p1427
I3076
sS'TTCTTG'
p1428
I23517
sS'TTCTTC'
p1429
I30287
sS'TTCTTA'
p1430
I19015
sS'CAAGAT'
p1431
I15681
sS'AGGGCT'
p1432
I35447
sS'TACGGG'
p1433
I3439
sS'TACGGA'
p1434
I3076
sS'TACGGC'
p1435
I2900
sS'CTAACA'
p1436
I13108
sS'CCAACT'
p1437
I17413
sS'TAGAGT'
p1438
I11464
sS'TACGGT'
p1439
I2519
sS'AGGGCG'
p1440
I18769
sS'AGGGCA'
p1441
I36634
sS'AGGGCC'
p1442
I35676
sS'CTGTGC'
p1443
I32579
sS'TAGAGA'
p1444
I20688
sS'TAGAGG'
p1445
I17282
sS'AGTAAT'
p1446
I12393
sS'GTGCTG'
p1447
I33808
sS'GTGCTA'
p1448
I10665
sS'ATCTGT'
p1449
I20985
sS'GTGCTC'
p1450
I18908
sS'GGCGAC'
p1451
I9338
sS'ATCTGA'
p1452
I18628
sS'GTGCTT'
p1453
I19490
sS'ATCTGC'
p1454
I19245
sS'TCGAGG'
p1455
I7019
sS'CGAATG'
p1456
I4055
sS'ATCTGG'
p1457
I20528
sS'ATCATA'
p1458
I9821
sS'GATAGC'
p1459
I6354
sS'AAGCAG'
p1460
I33835
sS'GATAGA'
p1461
I9398
sS'AAGCAA'
p1462
I28003
sS'GATAGG'
p1463
I9213
sS'ATCATG'
p1464
I13368
sS'TTTACC'
p1465
I14839
sS'GTTATG'
p1466
I8819
sS'CTAGGT'
p1467
I12147
sS'CATTTA'
p1468
I22449
sS'ACGCAT'
p1469
I3780
sS'CATTTG'
p1470
I23849
sS'GTTATA'
p1471
I7320
sS'CAAACA'
p1472
I34017
sS'AAGCAT'
p1473
I17275
sS'CAAACC'
p1474
I19120
sS'CTCGGG'
p1475
I18179
sS'ATCATT'
p1476
I16337
sS'GATAGT'
p1477
I6676
sS'ACGCAG'
p1478
I9527
sS'CTAGGG'
p1479
I17007
sS'GTTATT'
p1480
I14021
sS'CTAGGC'
p1481
I15083
sS'CATTTT'
p1482
I37292
sS'CTAGGA'
p1483
I17208
sS'AAGTTT'
p1484
I22637
sS'TACAGT'
p1485
I15263
sS'CTAACG'
p1486
I3063
sS'ATTTCA'
p1487
I27878
sS'GCGCCT'
p1488
I16521
sS'CTAAGA'
p1489
I13873
sS'GGGGCT'
p1490
I42014
sS'TACAGG'
p1491
I21247
sS'AAGTTG'
p1492
I15824
sS'AAGTTA'
p1493
I15595
sS'TACAGC'
p1494
I14272
sS'AAGTTC'
p1495
I18096
sS'TACAGA'
p1496
I20009
sS'GGGGCC'
p1497
I46831
sS'GTATGA'
p1498
I8466
sS'GGGGCA'
p1499
I34709
sS'GGGGCG'
p1500
I39474
sS'TATATC'
p1501
I6661
sS'TATATA'
p1502
I15219
sS'TGTATA'
p1503
I11130
sS'TATATG'
p1504
I9989
sS'ACATCG'
p1505
I3280
sS'TCCGGT'
p1506
I5742
sS'GGTCCA'
p1507
I15869
sS'TATATT'
p1508
I15055
sS'TGATGG'
p1509
I18072
sS'CATATG'
p1510
I10809
sS'TGATGC'
p1511
I13170
sS'GCCCAC'
p1512
I27663
sS'TGATGA'
p1513
I18461
sS'TGTTTA'
p1514
I26469
sS'CACATC'
p1515
I17944
sS'TGTTTC'
p1516
I28137
sS'CACATA'
p1517
I15920
sS'TCATAA'
p1518
I12823
sS'CACATG'
p1519
I23377
sS'TGTTTG'
p1520
I34048
sS'ATGAGA'
p1521
I20989
sS'TGATGT'
p1522
I16837
sS'AGTAAC'
p1523
I11695
sS'ATGAGG'
p1524
I22572
sS'TTAATA'
p1525
I15535
sS'ACTCTG'
p1526
I30073
sS'TTAATC'
p1527
I11771
sS'ACTCTA'
p1528
I11491
sS'TGCCAA'
p1529
I19903
sS'ACTCTC'
p1530
I18621
sS'TTAATG'
p1531
I14816
sS'AAATTC'
p1532
I21849
sS'GACTGA'
p1533
I18447
sS'AAATTA'
p1534
I24585
sS'AAATTG'
p1535
I17555
sS'CCAGTA'
p1536
I13151
sS'TTCAAT'
p1537
I14181
sS'TCTTGT'
p1538
I19360
sS'AAATTT'
p1539
I26244
sS'TTCGAA'
p1540
I3695
sS'CTTAGT'
p1541
I11337
sS'GGGAAC'
p1542
I21698
sS'GGTGCG'
p1543
I10410
sS'GGGAAA'
p1544
I38967
sS'GGGAAG'
p1545
I48146
sS'GGTGCC'
p1546
I23040
sS'TCGTCC'
p1547
I6055
sS'GGTGCA'
p1548
I19383
sS'AGAGCG'
p1549
I11832
sS'GCGACT'
p1550
I5096
sS'AGAGCC'
p1551
I32155
sS'AGAGCA'
p1552
I31953
sS'GCGTAG'
p1553
I3318
sS'GGTGCT'
p1554
I22496
sS'GCGTAC'
p1555
I2054
sS'ACTGAA'
p1556
I23775
sS'GGGAAT'
p1557
I19322
sS'GCGACG'
p1558
I5124
sS'AGAGCT'
p1559
I30566
sS'GCGACA'
p1560
I6135
sS'TATCGG'
p1561
I1814
sS'GCGACC'
p1562
I7615
sS'AGGTCG'
p1563
I6553
sS'GCAGGA'
p1564
I40946
sS'GCAGGC'
p1565
I38728
sS'GCAGGG'
p1566
I52116
sS'GGCGAT'
p1567
I4717
sS'GCTCGA'
p1568
I4421
sS'GCTCGG'
p1569
I14727
sS'TATTCT'
p1570
I16743
sS'CCGTGG'
p1571
I13287
sS'CTTAGC'
p1572
I12863
sS'AAATAC'
p1573
I22165
sS'GCAGGT'
p1574
I26442
sS'TCTTGA'
p1575
I17628
sS'TATTCC'
p1576
I13126
sS'CAATTG'
p1577
I9185
sS'TATTCA'
p1578
I15909
sS'CAATTA'
p1579
I11083
sS'TATTCG'
p1580
I2105
sS'GCTCGT'
p1581
I4750
sS'TGTAGA'
p1582
I14444
sS'GGCTCA'
p1583
I33893
sS'AGCATT'
p1584
I19791
sS'GGCTCC'
p1585
I41278
sS'TTTACG'
p1586
I3385
sS'TGTAGG'
p1587
I13516
sS'GGCTCG'
p1588
I12064
sS'TTCGGA'
p1589
I4708
sS'TTCGGC'
p1590
I5695
sS'CTTTAC'
p1591
I14144
sS'TTCAAG'
p1592
I22688
sS'TTCGGG'
p1593
I7509
sS'AGCATG'
p1594
I19246
sS'GGCTCT'
p1595
I31978
sS'TGTAGT'
p1596
I13508
sS'TTTACT'
p1597
I21881
sS'AGCATA'
p1598
I10770
sS'AACCTT'
p1599
I17364
sS'ATTGTA'
p1600
I11459
sS'TTCGGT'
p1601
I4138
sS'GTTTAT'
p1602
I16605
sS'CTCTCA'
p1603
I28362
sS'ATACAT'
p1604
I13194
sS'CGCTAC'
p1605
I3497
sS'TGCTTG'
p1606
I22246
sS'GTTTAA'
p1607
I16677
sS'TCCAGG'
p1608
I44645
sS'AACTTG'
p1609
I17412
sS'GTTTAG'
p1610
I11722
sS'GAGGTA'
p1611
I12773
sS'CTGGCT'
p1612
I44821
sS'AGGCGG'
p1613
I25259
sS'GTCGGT'
p1614
I3976
sS'AGGCGC'
p1615
I16454
sS'AGGAGT'
p1616
I25397
sS'ACAGCC'
p1617
I31063
sS'ACAGCA'
p1618
I31685
sS'GAGGTC'
p1619
I22738
sS'ACAGCG'
p1620
I10124
sS'AGGAGC'
p1621
I34300
sS'AGGCGT'
p1622
I9649
sS'AGGAGA'
p1623
I40825
sS'CTGGCG'
p1624
I15743
sS'AGGAGG'
p1625
I58123
sS'CTGGCA'
p1626
I33228
sS'CTGGCC'
p1627
I49094
sS'GCGCCC'
p1628
I28421
sS'CGATAC'
p1629
I1558
sS'ACAGCT'
p1630
I28345
sS'GCTCTC'
p1631
I27081
sS'ATTGGT'
p1632
I10931
sS'AATTTT'
p1633
I31485
sS'TGTCAA'
p1634
I15557
sS'TGTCAC'
p1635
I22044
sS'CCCTCT'
p1636
I42920
sS'GCTCTA'
p1637
I12247
sS'TGTCAG'
p1638
I23126
sS'ATTGGG'
p1639
I11906
sS'AATTTA'
p1640
I19731
sS'AATTTC'
p1641
I20862
sS'AACGCC'
p1642
I6160
sS'AACGCA'
p1643
I5117
sS'AATTTG'
p1644
I18875
sS'CCCTCA'
p1645
I31248
sS'ATTTAA'
p1646
I24680
sS'TGTCAT'
p1647
I18802
sS'CCCTCG'
p1648
I15639
sS'TAAATA'
p1649
I27050
sS'CAATAT'
p1650
I11734
sS'TGACCA'
p1651
I18957
sS'TGACCC'
p1652
I21549
sS'TAAATC'
p1653
I13005
sS'TGACCG'
p1654
I5512
sS'CATTCG'
p1655
I3934
sS'TGACCT'
p1656
I29694
sS'CATTCA'
p1657
I23708
sS'TCCATA'
p1658
I11114
sS'TAAATG'
p1659
I22477
sS'ACAAAT'
p1660
I23963
sS'GATTAA'
p1661
I11686
sS'GTAGGC'
p1662
I9822
sS'GATTAC'
p1663
I12416
sS'GTAGGA'
p1664
I12707
sS'GTAGGG'
p1665
I14030
sS'GATTAG'
p1666
I8739
sS'GCGGGT'
p1667
I12165
sS'ACAAAC'
p1668
I23677
sS'TTTCAA'
p1669
I27387
sS'ACAAAA'
p1670
I38971
sS'ACAAAG'
p1671
I32634
sS'GCGGGC'
p1672
I27907
sS'AGGCGA'
p1673
I8697
sS'GCGGGA'
p1674
I20050
sS'GCGGGG'
p1675
I43326
sS'GATTAT'
p1676
I10023
sS'GTAGGT'
p1677
I10273
sS'GGCGTC'
p1678
I10017
sS'TAATGA'
p1679
I14970
sS'GATGTT'
p1680
I14620
sS'TAATGC'
p1681
I9662
sS'GGGATG'
p1682
I24099
sS'TAATGG'
p1683
I11291
sS'CAATAA'
p1684
I15310
sS'GCCCTC'
p1685
I37428
sS'GATGTG'
p1686
I17851
sS'GCCCTA'
p1687
I12632
sS'GATGTA'
p1688
I8560
sS'TAATGT'
p1689
I13367
sS'GATGTC'
p1690
I12212
sS'GGCGTG'
p1691
I15949
sS'TGAAAT'
p1692
I27780
sS'TTCTAG'
p1693
I17307
sS'TTCTAA'
p1694
I19632
sS'ATCCGT'
p1695
I3322
sS'TTCTAC'
p1696
I13194
sS'TGAAAA'
p1697
I34058
sS'TGAAAC'
p1698
I21732
sS'TGAAAG'
p1699
I28033
sS'TTCTAT'
p1700
I15167
sS'ATCCGC'
p1701
I5619
sS'ATCCGA'
p1702
I3194
sS'ATCCGG'
p1703
I5333
sS'TGGCTC'
p1704
I34568
sS'TGGCTA'
p1705
I14932
sS'NNNNCT'
p1706
I1
sS'TGGCTG'
p1707
I43371
sS'GACCGG'
p1708
I7836
sS'GTCGGA'
p1709
I4438
sS'AGTTGT'
p1710
I14681
sS'AGCTAT'
p1711
I12170
sS'ATTAGT'
p1712
I9573
sS'AAGACA'
p1713
I24612
sS'GTCGGC'
p1714
I7157
sS'CGTCGA'
p1715
I1425
sS'NNNNCA'
p1716
I1
sS'TGGCTT'
p1717
I29924
sS'AGTTGG'
p1718
I17319
sS'AGCTAA'
p1719
I14617
sS'ACGCCG'
p1720
I6347
sS'AGCTAC'
p1721
I13973
sS'AGTTGC'
p1722
I13405
sS'AGTTGA'
p1723
I13819
sS'AGCTAG'
p1724
I13314
sS'TCCTAG'
p1725
I17202
sS'TCCAGT'
p1726
I22997
sS'GCACCT'
p1727
I21855
sS'CAGTGT'
p1728
I26223
sS'TAACAA'
p1729
I16096
sS'TCAGGT'
p1730
I20412
sS'TCAAGG'
p1731
I22301
sS'GTCGGG'
p1732
I10164
sS'TCAAGC'
p1733
I16217
sS'CATGGA'
p1734
I20339
sS'GCACCA'
p1735
I20547
sS'CAGTGC'
p1736
I26266
sS'GCACCC'
p1737
I23178
sS'CAGTGA'
p1738
I33207
sS'CAGTGG'
p1739
I36663
sS'GCACCG'
p1740
I10751
sS'TCAAGT'
p1741
I16865
sS'TCAGGG'
p1742
I33004
sS'GAGCCC'
p1743
I36468
sS'TCAGGC'
p1744
I27509
sS'CGAGCT'
p1745
I8134
sS'CGTTGG'
p1746
I5399
sS'CAACCA'
p1747
I17056
sS'GTTCAT'
p1748
I13520
sS'TTCCCT'
p1749
I39946
sS'ACCACA'
p1750
I24438
sS'CGAGCA'
p1751
I6805
sS'GAGCCG'
p1752
I18875
sS'CGAGCC'
p1753
I12257
sS'GTTCAG'
p1754
I19528
sS'TTCCCC'
p1755
I36543
sS'GTTCAC'
p1756
I13721
sS'TTCCCG'
p1757
I13408
sS'GATCAC'
p1758
I13995
sS'GGACCT'
p1759
I19538
sS'TACATG'
p1760
I12169
sS'AAGTAC'
p1761
I11104
sS'AAGTAA'
p1762
I18946
sS'TACATC'
p1763
I8481
sS'AAGTAG'
p1764
I13988
sS'TACATA'
p1765
I12579
sS'GCACAC'
p1766
I21718
sS'GGACCG'
p1767
I8991
sS'AACGCT'
p1768
I5297
sS'GGACCA'
p1769
I17415
sS'TCATCA'
p1770
I18568
sS'GGACCC'
p1771
I25035
sS'CACACG'
p1772
I11146
sS'TACATT'
p1773
I16226
sS'CACACC'
p1774
I26407
sS'CTGCAT'
p1775
I22502
sS'AAGTAT'
p1776
I12409
sS'TCTGCC'
p1777
I38173
sS'TCTGCA'
p1778
I32264
sS'TCTGCG'
p1779
I10698
sS'TAGATT'
p1780
I11051
sS'CCCGTC'
p1781
I11232
sS'TTAAGG'
p1782
I13405
sS'CCCGTA'
p1783
I3379
sS'TTAAGA'
p1784
I16304
sS'CCCGTG'
p1785
I11350
sS'TTAAGC'
p1786
I11594
sS'TTACGT'
p1787
I3503
sS'TAGATC'
p1788
I7034
sS'AAACAG'
p1789
I35659
sS'TAGATA'
p1790
I9587
sS'TTTCGC'
p1791
I4797
sS'TAGATG'
p1792
I12181
sS'TCTGCT'
p1793
I34508
sS'TTACGC'
p1794
I2434
sS'TTAAGT'
p1795
I15115
sS'TTACGA'
p1796
I2343
sS'TTACGG'
p1797
I3108
sS'CCCGTT'
p1798
I6501
sS'AGTGAC'
p1799
I20998
sS'AGTGAA'
p1800
I23565
sS'GGACGT'
p1801
I6150
sS'AGTGAG'
p1802
I31759
sS'ACATTT'
p1803
I30536
sS'CGGGCG'
p1804
I23119
sS'AAACAC'
p1805
I27262
sS'TAAGAG'
p1806
I15646
sS'CGGGCC'
p1807
I24569
sS'TAAGAA'
p1808
I19260
sS'CGGGCA'
p1809
I14676
sS'TAAGAC'
p1810
I9757
sS'ATTTAT'
p1811
I25415
sS'AGTGAT'
p1812
I17397
sS'GGGNCC'
p1813
I1
sS'TAAGAT'
p1814
I10838
sS'CCTGAA'
p1815
I27412
sS'CGGGCT'
p1816
I17544
sS'AGTAAA'
p1817
I22050
sS'CCTGAG'
p1818
I42091
sS'GTTAGG'
p1819
I11221
sS'AACGCG'
p1820
I3491
sS'TCATCT'
p1821
I23897
sS'GTTAGC'
p1822
I8031
sS'GTTAGA'
p1823
I10185
sS'TGTAGC'
p1824
I11631
sS'ACCCCC'
p1825
I25808
sS'GACATC'
p1826
I12275
sS'TATACG'
p1827
I1550
sS'GTTAGT'
p1828
I8122
sS'TATACC'
p1829
I5774
sS'TATACA'
p1830
I11283
sS'ATTGGC'
p1831
I12465
sS'CGTATA'
p1832
I1597
sS'TCCACG'
p1833
I9239
sS'ACTAGT'
p1834
I7125
sS'TTTATT'
p1835
I39486
sS'GTAATA'
p1836
I8912
sS'ATTGGA'
p1837
I12471
sS'GTAATC'
p1838
I12375
sS'TCTAAC'
p1839
I10191
sS'CGTTCT'
p1840
I6316
sS'CCACCG'
p1841
I15214
sS'GGTAGG'
p1842
I15238
sS'CCACCA'
p1843
I34991
sS'CCACCC'
p1844
I46819
sS'GTTCGT'
p1845
I2975
sS'TTTATG'
p1846
I17884
sS'GTAATT'
p1847
I12628
sS'GTAACG'
p1848
I2496
sS'TTTATC'
p1849
I16428
sS'ACTAGC'
p1850
I7952
sS'TTTATA'
p1851
I18981
sS'ACTAGA'
p1852
I11917
sS'CCACCT'
p1853
I38592
sS'CGTTCG'
p1854
I2210
sS'ACTTGT'
p1855
I15029
sS'CGTTCA'
p1856
I4726
sS'CGTTCC'
p1857
I7486
sS'TCTAAT'
p1858
I12020
sS'CTTTGT'
p1859
I32107
sS'ACTGGG'
p1860
I29965
sS'ACTGGA'
p1861
I23054
sS'ACTGGC'
p1862
I21014
sS'TAGTCC'
p1863
I10194
sS'GTGACC'
p1864
I20165
sS'TAGTCA'
p1865
I11167
sS'GTGACA'
p1866
I21618
sS'TAGTCG'
p1867
I1960
sS'GTGACG'
p1868
I6673
sS'ATTTAG'
p1869
I15022
sS'ACTGGT'
p1870
I14353
sS'CTTTGG'
p1871
I32706
sS'CTTTGC'
p1872
I27148
sS'CTTTGA'
p1873
I27138
sS'ACATTA'
p1874
I13224
sS'GTGACT'
p1875
I21840
sS'TAGTCT'
p1876
I10351
sS'GTGCAC'
p1877
I15604
sS'GCGCTT'
p1878
I8085
sS'ACCTAG'
p1879
I11941
sS'GCAATT'
p1880
I12454
sS'ACCTAA'
p1881
I11276
sS'CGACGC'
p1882
I4758
sS'ACCTAC'
p1883
I10609
sS'CCGCAG'
p1884
I21025
sS'CCGCAA'
p1885
I5865
sS'CCGCAC'
p1886
I11492
sS'GGGACT'
p1887
I24893
sS'CGAAGC'
p1888
I6919
sS'GCGCTG'
p1889
I19082
sS'CGAAGA'
p1890
I5412
sS'CCCCGT'
p1891
I11838
sS'CGAAGG'
p1892
I7952
sS'GCGCTC'
p1893
I15174
sS'GTGCAT'
p1894
I13699
sS'GCGCTA'
p1895
I3700
sS'NCTGAC'
p1896
I1
sS'CCGCAT'
p1897
I5190
sS'ATTACC'
p1898
I8947
sS'GAAGAT'
p1899
I16230
sS'GGATCT'
p1900
I14137
sS'TCGGAA'
p1901
I5253
sS'TCGGAC'
p1902
I4228
sS'GAATCT'
p1903
I15604
sS'CCTATA'
p1904
I7479
sS'TCGGAG'
p1905
I8792
sS'GGATCG'
p1906
I4562
sS'GAAGAG'
p1907
I33522
sS'GAAGAA'
p1908
I30260
sS'GGATCC'
p1909
I15481
sS'GAAGAC'
p1910
I17891
sS'GGATCA'
p1911
I15046
sS'GGATCN'
p1912
I1
sS'GAATCA'
p1913
I16276
sS'GAATCC'
p1914
I14936
sS'TCGGAT'
p1915
I3202
sS'NNNCAG'
p1916
I1
sS'GAATCG'
p1917
I4281
sS'ATGGTC'
p1918
I10472
sS'CAGATG'
p1919
I27463
sS'ATGGTA'
p1920
I10000
sS'CATTCT'
p1921
I25548
sS'ACGCCA'
p1922
I7351
sS'CAGATC'
p1923
I17152
sS'ACGCCC'
p1924
I12187
sS'CAGATA'
p1925
I15786
sS'CTCGAG'
p1926
I7297
sS'CAGATT'
p1927
I19301
sS'CTCGAC'
p1928
I4199
sS'ATGGTT'
p1929
I13173
sS'TCGCAA'
p1930
I3125
sS'TGCGTC'
p1931
I6141
sS'AATGGT'
p1932
I13705
sS'GGGACG'
p1933
I13549
sS'AATGGC'
p1934
I17113
sS'AATGGA'
p1935
I21480
sS'AATGGG'
p1936
I20625
sS'CAATAC'
p1937
I8150
sS'GATCAA'
p1938
I11076
sS'CCCCGA'
p1939
I14172
sS'AATAGA'
p1940
I15393
sS'CAATCA'
p1941
I14756
sS'CAACTA'
p1942
I9184
sS'ATTTAC'
p1943
I17421
sS'CGTTAG'
p1944
I2928
sS'TTGACC'
p1945
I13724
sS'GGAGGG'
p1946
I64763
sS'AAAAGT'
p1947
I26628
sS'GGAGGA'
p1948
I52227
sS'GGAGGC'
p1949
I54703
sS'TGGTAG'
p1950
I12631
sS'CGCCAT'
p1951
I7669
sS'GAGTGT'
p1952
I17153
sS'TGGTAC'
p1953
I7880
sS'TGGTAA'
p1954
I13445
sS'AAAAGG'
p1955
I32497
sS'GGAGGT'
p1956
I30421
sS'AGCCAT'
p1957
I19670
sS'AAAAGC'
p1958
I27269
sS'AAAAGA'
p1959
I40037
sS'TTGACT'
p1960
I15970
sS'GAGTGG'
p1961
I25472
sS'CGCCAG'
p1962
I16086
sS'TGGTAT'
p1963
I10808
sS'CGCCAA'
p1964
I6485
sS'GAGTGC'
p1965
I18967
sS'CGCCAC'
p1966
I14093
sS'GAGTGA'
p1967
I22520
sS'GCCAGG'
p1968
I55741
sS'GCCAGA'
p1969
I29508
sS'GCCAGC'
p1970
I36859
sS'GCCCGT'
p1971
I8241
sS'CAATCC'
p1972
I12893
sS'TACCGA'
p1973
I2419
sS'ACGCCT'
p1974
I9525
sS'CTTCAT'
p1975
I20860
sS'GCCCGC'
p1976
I27682
sS'GCCAGT'
p1977
I20778
sS'GCCCGA'
p1978
I10754
sS'GCCCGG'
p1979
I32909
sS'CTTCAC'
p1980
I21194
sS'CTTCAA'
p1981
I19640
sS'CTTCAG'
p1982
I30448
sS'TCCGAG'
p1983
I9253
sS'TCCGAA'
p1984
I4746
sS'TCCGAC'
p1985
I4556
sS'AATTCA'
p1986
I19841
sS'AATTCC'
p1987
I20348
sS'AATTCG'
p1988
I3107
sS'TCCGAT'
p1989
I2972
sS'GGACAA'
p1990
I18664
sS'ACATAC'
p1991
I11737
sS'TAGCGG'
p1992
I4244
sS'AATTCT'
p1993
I22155
sS'TAGCGC'
p1994
I3679
sS'GTCATC'
p1995
I13936
sS'GTCATA'
p1996
I8691
sS'GTCATG'
p1997
I14425
sS'AGCAGG'
p1998
I43241
sS'CCAGGT'
p1999
I32569
sS'TTGGAA'
p2000
I25347
sS'AGCAGC'
p2001
I41250
sS'AGCAGA'
p2002
I34718
sS'GGATGC'
p2003
I15249
sS'ACGACC'
p2004
I3915
sS'CCAGGG'
p2005
I55626
sS'AGCAGT'
p2006
I23562
sS'CCAGGA'
p2007
I50843
sS'CCAGGC'
p2008
I63265
sS'TTGGAT'
p2009
I13625
sS'ATAGAG'
p2010
I12398
sS'CATCTG'
p2011
I27479
sS'ACGGTC'
p2012
I4201
sS'CATCTA'
p2013
I11925
sS'ATAGAC'
p2014
I7834
sS'CATCTC'
p2015
I25054
sS'ATAGAA'
p2016
I15326
sS'GGATGG'
p2017
I24305
sS'GATCGT'
p2018
I2607
sS'CATCTT'
p2019
I20585
sS'CAAGCA'
p2020
I22347
sS'ACGGTT'
p2021
I3681
sS'GTTCTT'
p2022
I19332
sS'ACCTCC'
p2023
I30284
sS'CGTAAT'
p2024
I2333
sS'ACATGC'
p2025
I15882
sS'ACATGG'
p2026
I20551
sS'AGGGAT'
p2027
I19639
sS'GGCCAT'
p2028
I17833
sS'CGTAAG'
p2029
I3061
sS'GAGTCA'
p2030
I24405
sS'ACATGT'
p2031
I16674
sS'GTTCTA'
p2032
I10928
sS'CGTAAA'
p2033
I3377
sS'AGGGAG'
p2034
I53710
sS'ATCCTT'
p2035
I16990
sS'CTCGTT'
p2036
I5042
sS'CCCGCC'
p2037
I48541
sS'AGGGAA'
p2038
I40138
sS'AAACTA'
p2039
I15915
sS'AGCGCA'
p2040
I8300
sS'GTTGTT'
p2041
I16233
sS'TGGATC'
p2042
I13145
sS'TTGTCG'
p2043
I3200
sS'TTGTCC'
p2044
I18427
sS'TTGTCA'
p2045
I18042
sS'ATCCTC'
p2046
I20106
sS'GTTGTA'
p2047
I9066
sS'ATCCTA'
p2048
I10972
sS'GTTGTC'
p2049
I10778
sS'ATCCTG'
p2050
I23724
sS'GTTGTG'
p2051
I14935
sS'TTGTCT'
p2052
I22192
sS'CTATGC'
p2053
I8939
sS'CTGTGG'
p2054
I41002
sS'ATAGGT'
p2055
I8311
sS'TGACTC'
p2056
I24338
sS'TGGGCA'
p2057
I35467
sS'TGGGCG'
p2058
I18200
sS'TGACTG'
p2059
I22857
sS'AAGCCG'
p2060
I9500
sS'AAGCCC'
p2061
I26481
sS'AAGCCA'
p2062
I29886
sS'CAAAAT'
p2063
I25654
sS'TGACTT'
p2064
I22563
sS'TGGGCT'
p2065
I35902
sS'CAAAAC'
p2066
I24953
sS'CAAAAA'
p2067
I37094
sS'AAGCCT'
p2068
I25052
sS'CAAAAG'
p2069
I27265
sS'TCTGAC'
p2070
I20036
sS'TCAATG'
p2071
I13073
sS'CCCTTA'
p2072
I13063
sS'TCAATC'
p2073
I9482
sS'TCAATA'
p2074
I12265
sS'CAGTTC'
p2075
I21341
sS'GACCCG'
p2076
I11140
sS'CAGTTG'
p2077
I17547
sS'GACCCC'
p2078
I24504
sS'CTCTGT'
p2079
I41165
sS'TCAATT'
p2080
I12429
sS'TGGCGT'
p2081
I7054
sS'CTCTGC'
p2082
I47233
sS'GACCCT'
p2083
I22590
sS'CTCTGA'
p2084
I34767
sS'ACAATC'
p2085
I10957
sS'CTCTGG'
p2086
I45832
sS'CAGTTT'
p2087
I27571
sS'GCGAAG'
p2088
I7260
sS'ACGTTC'
p2089
I4623
sS'TGCTGG'
p2090
I44040
sS'CGAGGT'
p2091
I8905
sS'TGCTGA'
p2092
I28981
sS'CCCTTG'
p2093
I25049
sS'TGCTGC'
p2094
I35880
sS'AGCTGC'
p2095
I36867
sS'GCTGGT'
p2096
I26278
sS'GTGATT'
p2097
I15982
sS'CTACTA'
p2098
I9054
sS'TGCTGT'
p2099
I31272
sS'GCGAAT'
p2100
I2887
sS'GCCCTT'
p2101
I26088
sS'TCGCTA'
p2102
I2697
sS'GTGATG'
p2103
I17097
sS'ACGTTG'
p2104
I4420
sS'GTGATC'
p2105
I14088
sS'GCTGGC'
p2106
I36568
sS'GTGATA'
p2107
I9245
sS'GCTGGA'
p2108
I40219
sS'TGATAA'
p2109
I13945
sS'TGATAC'
p2110
I7759
sS'TGATAG'
p2111
I9168
sS'CTTGTT'
p2112
I21771
sS'GACGGT'
p2113
I4674
sS'GCTAGG'
p2114
I14653
sS'GCTAGA'
p2115
I11651
sS'ATGAAT'
p2116
I19935
sS'GCTAGC'
p2117
I8535
sS'ATAGGG'
p2118
I10008
sS'TGATAT'
p2119
I9872
sS'GCTAGT'
p2120
I8117
sS'ATGAAC'
p2121
I13602
sS'GACGGG'
p2122
I11508
sS'ATGAAA'
p2123
I27855
sS'GACGGA'
p2124
I7178
sS'ATGAAG'
p2125
I20666
sS'GACGGC'
p2126
I8552
sS'CTTGTC'
p2127
I17746
sS'GCACTT'
p2128
I21477
sS'CTACTT'
p2129
I14200
sS'CCCGCT'
p2130
I17011
sS'GNCCGC'
p2131
I1
sS'CCATAG'
p2132
I10614
sS'GGTGAA'
p2133
I19691
sS'GGTGAC'
p2134
I21149
sS'GCGTCT'
p2135
I8090
sS'GACTGT'
p2136
I17121
sS'GGTGAG'
p2137
I29964
sS'GGAATG'
p2138
I25436
sS'CGTCCT'
p2139
I9824
sS'GGCTAA'
p2140
I12877
sS'GGAATC'
p2141
I15623
sS'GGAATA'
p2142
I12887
sS'GCGTCA'
p2143
I5563
sS'GCGTCC'
p2144
I12054
sS'GGTGAT'
p2145
I14902
sS'GCGTCG'
p2146
I4587
sS'CGTCCG'
p2147
I5596
sS'GGAATT'
p2148
I20112
sS'CGTCCC'
p2149
I13511
sS'CGTCCA'
p2150
I7077
sS'TTTCGA'
p2151
I3547
sS'CCGTAT'
p2152
I2452
sS'GAAGTC'
p2153
I17886
sS'GAAGTA'
p2154
I12719
sS'GAAGTG'
p2155
I23989
sS'GCCGTA'
p2156
I2937
sS'CCGTAC'
p2157
I2441
sS'CCGTAA'
p2158
I2989
sS'CCGTAG'
p2159
I3913
sS'CAAAGT'
p2160
I29367
sS'GCCGTT'
p2161
I5135
sS'CCCTCC'
p2162
I65220
sS'GAAGTT'
p2163
I18628
sS'GGCGCG'
p2164
I23396
sS'ATGCCC'
p2165
I17328
sS'TTAGTT'
p2166
I13581
sS'TATTAG'
p2167
I9424
sS'GGCGCC'
p2168
I26830
sS'TATTAA'
p2169
I15507
sS'GGCGCA'
p2170
I12559
sS'TATTAC'
p2171
I9044
sS'ACTATG'
p2172
I10582
sS'CAACGG'
p2173
I4707
sS'TTTAAG'
p2174
I20144
sS'ACTATC'
p2175
I6719
sS'TTTAAA'
p2176
I45382
sS'ACTATA'
p2177
I7659
sS'TTTAAC'
p2178
I16363
sS'TATTAT'
p2179
I15187
sS'TTAGTG'
p2180
I11726
sS'GGCGCT'
p2181
I16619
sS'TTAGTC'
p2182
I9389
sS'ATGCCT'
p2183
I21262
sS'TTAGTA'
p2184
I10505
sS'TTTAAT'
p2185
I23176
sS'ACTATT'
p2186
I11768
sS'GCCGAT'
p2187
I3454
sS'GGGCAT'
p2188
I17139
sS'TTTCCG'
p2189
I8077
sS'TTTCCA'
p2190
I36530
sS'TTTCCC'
p2191
I38950
sS'GTACGT'
p2192
I2532
sS'GTTTGT'
p2193
I23529
sS'TTTCCT'
p2194
I47937
sS'GGGCAG'
p2195
I55697
sS'CCTGGA'
p2196
I45016
sS'GGGCAA'
p2197
I23280
sS'GGGCAC'
p2198
I25380
sS'GTACGG'
p2199
I2502
sS'ACGTAG'
p2200
I3464
sS'GTTTGG'
p2201
I20468
sS'GTACGA'
p2202
I1613
sS'CCGCTC'
p2203
I16808
sS'GCATGT'
p2204
I15977
sS'CCGCTA'
p2205
I4304
sS'CCGCTG'
p2206
I18498
sS'GCGCGG'
p2207
I25363
sS'GCGCGC'
p2208
I23717
sS'GCGCGA'
p2209
I6833
sS'GCATGG'
p2210
I18874
sS'GCATGC'
p2211
I14981
sS'CCGCTT'
p2212
I9249
sS'GCATGA'
p2213
I16010
sS'GTCGAC'
p2214
I2054
sS'GTCGAA'
p2215
I2298
sS'GTCGAG'
p2216
I4130
sS'AGACAT'
p2217
I17177
sS'GAGCTA'
p2218
I12808
sS'TGCGCT'
p2219
I8189
sS'GAGCTC'
p2220
I26556
sS'ATTGAT'
p2221
I10684
sS'GAGCTG'
p2222
I41885
sS'AAACGA'
p2223
I5679
sS'AAACGC'
p2224
I6431
sS'GTAACA'
p2225
I12232
sS'CACGCG'
p2226
I6981
sS'AAACGG'
p2227
I6912
sS'ATTGAA'
p2228
I14129
sS'TGCGCG'
p2229
I9074
sS'TGTCCA'
p2230
I22924
sS'TCAGAT'
p2231
I18704
sS'TGCGCC'
p2232
I12747
sS'ATTGAG'
p2233
I13233
sS'TGCGCA'
p2234
I7856
sS'GCGCAG'
p2235
I18129
sS'AAACGT'
p2236
I6667
sS'TGGGTT'
p2237
I21882
sS'CACGCC'
p2238
I16213
sS'ATTTCC'
p2239
I26926
sS'ATCAGT'
p2240
I13985
sS'ATCGGG'
p2241
I4293
sS'CATAGT'
p2242
I10566
sS'GCAGCA'
p2243
I35994
sS'CCGTGT'
p2244
I8147
sS'ATCGGA'
p2245
I2924
sS'ATTTCT'
p2246
I31079
sS'CGATCA'
p2247
I2753
sS'TGGGTC'
p2248
I20503
sS'TTTCGG'
p2249
I5539
sS'TGGGTA'
p2250
I14176
sS'CATAGG'
p2251
I10493
sS'ATCGGT'
p2252
I2391
sS'ATCAGG'
p2253
I16984
sS'CATAGC'
p2254
I11135
sS'CATAGA'
p2255
I11516
sS'ACGGGT'
p2256
I4588
sS'GTCTGA'
p2257
I17920
sS'GATTCT'
p2258
I17771
sS'CTTTTG'
p2259
I27243
sS'TACTAG'
p2260
I6851
sS'CTTTTC'
p2261
I34342
sS'CAGCAA'
p2262
I28983
sS'TACTAC'
p2263
I6487
sS'GATTCC'
p2264
I15743
sS'ACGGGG'
p2265
I12077
sS'ACGGGA'
p2266
I7856
sS'ACGGGC'
p2267
I8467
sS'TACTAT'
p2268
I8521
sS'CTTTTT'
p2269
I41097
sS'ACCAAC'
p2270
I12654
sS'TCACGA'
p2271
I4449
sS'TCACGC'
p2272
I8568
sS'TCACGG'
p2273
I7688
sS'TCACGT'
p2274
I7060
sS'TTCCAC'
p2275
I23558
sS'TTCCAA'
p2276
I25532
sS'TTCCAG'
p2277
I39267
sS'CGAGGC'
p2278
I17246
sS'ACCCTT'
p2279
I17552
sS'TGAAGT'
p2280
I20360
sS'AAACAA'
p2281
I44020
sS'ATGCTT'
p2282
I17333
sS'AGGCAC'
p2283
I25121
sS'GCCCTG'
p2284
I50251
sS'ACCCTA'
p2285
I10852
sS'TGAAGA'
p2286
I24746
sS'TGAAGG'
p2287
I25800
sS'ACCCTG'
p2288
I32357
sS'CTGACT'
p2289
I24878
sS'CCCCTT'
p2290
I30279
sS'AGTTAT'
p2291
I11976
sS'ACATAT'
p2292
I13227
sS'CTGACG'
p2293
I7032
sS'CTGACC'
p2294
I28097
sS'CTGACA'
p2295
I23119
sS'AGTTAA'
p2296
I16138
sS'CCCCTG'
p2297
I42142
sS'AGTTAC'
p2298
I11722
sS'CCCCTC'
p2299
I49567
sS'AGTTAG'
p2300
I11493
sS'CCCCTA'
p2301
I15299
sS'ACACAG'
p2302
I37718
sS'ACACAA'
p2303
I24169
sS'ACACAC'
p2304
I49206
sS'AATGTT'
p2305
I23066
sS'CTGCAG'
p2306
I56629
sS'CATGGG'
p2307
I21366
sS'CTGCAC'
p2308
I30331
sS'CATGGC'
p2309
I21683
sS'AATGTC'
p2310
I16510
sS'ACACAT'
p2311
I22003
sS'AATGTA'
p2312
I16196
sS'AATGTG'
p2313
I22832
sS'CATGGT'
p2314
I18205
sS'GCACAA'
p2315
I16647
sS'GCACAG'
p2316
I33160
sS'CGATTC'
p2317
I4205
sS'CCACAG'
p2318
I41411
sS'ATGTTC'
p2319
I14067
sS'CGAGAT'
p2320
I5220
sS'ATTACT'
p2321
I12592
sS'ACATTG'
p2322
I14829
sS'ACGCTC'
p2323
I6260
sS'ACATTC'
p2324
I20061
sS'ATTACA'
p2325
I19984
sS'ATGCTC'
p2326
I14394
sS'GTTCGC'
p2327
I3735
sS'CGAGAC'
p2328
I8113
sS'GTTCGG'
p2329
I4548
sS'AAGTCT'
p2330
I18731
sS'GACCAA'
p2331
I13733
sS'GCTATT'
p2332
I11812
sS'GGACAT'
p2333
I14675
sS'GCTATA'
p2334
I6550
sS'GCTATC'
p2335
I6592
sS'AAGTCG'
p2336
I4312
sS'AAGTCA'
p2337
I22560
sS'GCTATG'
p2338
I11219
sS'AAGTCC'
p2339
I20909
sS'GGACAG'
p2340
I32816
sS'GGACAC'
p2341
I21347
sS'CTATCG'
p2342
I1844
sS'CTAATT'
p2343
I14336
sS'AGGGTT'
p2344
I19826
sS'GAGGCG'
p2345
I23610
sS'TGTTGG'
p2346
I20756
sS'GAGGCA'
p2347
I35710
sS'TGTTGA'
p2348
I19236
sS'GAGGCC'
p2349
I44745
sS'TGTTGC'
p2350
I18687
sS'TCCAAG'
p2351
I24151
sS'ACTCGA'
p2352
I3699
sS'TAAAAT'
p2353
I30404
sS'ACTCGC'
p2354
I5878
sS'ACTCGG'
p2355
I8570
sS'TGTTGT'
p2356
I19565
sS'GAGGCT'
p2357
I39687
sS'AGCGCC'
p2358
I16350
sS'AGGGTG'
p2359
I30095
sS'AGGGTA'
p2360
I12335
sS'AGCGCG'
p2361
I10990
sS'AGGGTC'
p2362
I22290
sS'TAAAAG'
p2363
I23497
sS'ACTCGT'
p2364
I3467
sS'TAAAAC'
p2365
I19901
sS'TAAAAA'
p2366
I40758
sS'CTACTC'
p2367
I13573
sS'TAGGGA'
p2368
I16440
sS'ACGTTA'
p2369
I3129
sS'AGCTGA'
p2370
I30200
sS'CTACTG'
p2371
I15487
sS'AGCTGG'
p2372
I45493
sS'TAGGGG'
p2373
I15189
sS'AGTGCG'
p2374
I6533
sS'AGTGCA'
p2375
I22173
sS'AGAGTT'
p2376
I20641
sS'AGTGCC'
p2377
I20902
sS'AAAACC'
p2378
I23466
sS'TAGGGT'
p2379
I10874
sS'GCATAG'
p2380
I8955
sS'AGCTGT'
p2381
I28360
sS'ACGTTT'
p2382
I6547
sS'AGTGCT'
p2383
I25546
sS'AGAGTC'
p2384
I19813
sS'TCAAGA'
p2385
I17797
sS'AGAGTG'
p2386
I24778
sS'TAACCC'
p2387
I10598
sS'GTTAAA'
p2388
I16341
sS'CCTGGC'
p2389
I55824
sS'GTTAAC'
p2390
I8661
sS'GTCTGT'
p2391
I22348
sS'CCTGGG'
p2392
I72293
sS'GTTAAG'
p2393
I11284
sS'TAACCA'
p2394
I13155
sS'CTAATC'
p2395
I8983
sS'GTCTGG'
p2396
I25724
sS'GTCTGC'
p2397
I19838
sS'GTTAAT'
p2398
I11815
sS'CCTGGT'
p2399
I29423
sS'CCGGTC'
p2400
I7987
sS'GGAAGG'
p2401
I48632
sS'CCACAT'
p2402
I21559
sS'GGAAGC'
p2403
I33668
sS'CTAATG'
p2404
I11331
sS'GGAAGA'
p2405
I35879
sS'TGTATT'
p2406
I20203
sS'TCCTCT'
p2407
I40013
sS'GCGTTC'
p2408
I5925
sS'CAATGC'
p2409
I12987
sS'GCGTTG'
p2410
I5035
sS'CAATGG'
p2411
I15877
sS'ATGCTG'
p2412
I23461
sS'GGAAGT'
p2413
I25472
sS'CCACAC'
p2414
I28849
sS'ATGCTA'
p2415
I10429
sS'AAACCA'
p2416
I26032
sS'TCCTCG'
p2417
I11151
sS'TGTATG'
p2418
I13457
sS'CAATGT'
p2419
I15023
sS'GCGTTT'
p2420
I6607
sS'TCCTCC'
p2421
I52325
sS'TGTATC'
p2422
I10065
sS'GTGAAT'
p2423
I15352
sS'TAACCG'
p2424
I2661
sS'TCATAG'
p2425
I11747
sS'TTCGTG'
p2426
I4963
sS'CGTTAC'
p2427
I2563
sS'TTCGTA'
p2428
I2532
sS'CGTTAA'
p2429
I3013
sS'TTCGTC'
p2430
I3669
sS'ACCGCT'
p2431
I6094
sS'TCGCGA'
p2432
I2714
sS'AACCCA'
p2433
I22010
sS'TCAGGA'
p2434
I32176
sS'TTCGTT'
p2435
I4646
sS'TACCCT'
p2436
I12469
sS'TAACCT'
p2437
I13223
sS'GTGAAG'
p2438
I20727
sS'GTGAAA'
p2439
I24468
sS'GTGAAC'
p2440
I13582
sS'CAATAG'
p2441
I10272
sS'AACCCG'
p2442
I7705
sS'ACCGCG'
p2443
I7759
sS'ACCGCA'
p2444
I7132
sS'CCCTAT'
p2445
I9980
sS'ACCGCC'
p2446
I11548
sS'CCGCCT'
p2447
I25302
sS'AGGCTT'
p2448
I25233
sS'CCTTCT'
p2449
I35217
sS'GTTGCA'
p2450
I14849
sS'AACGAA'
p2451
I4735
sS'GTTGCC'
p2452
I15574
sS'GTGCCG'
p2453
I8294
sS'GTGCCA'
p2454
I20865
sS'GTTGCG'
p2455
I3915
sS'GTGCCC'
p2456
I25109
sS'CCGCCG'
p2457
I28927
sS'AGGCTA'
p2458
I13858
sS'CCTTCC'
p2459
I48385
sS'AGGCTC'
p2460
I29145
sS'CCGCCC'
p2461
I46152
sS'AACGAC'
p2462
I3126
sS'CCGCCA'
p2463
I16753
sS'AGGCTG'
p2464
I58673
sS'GTGCCT'
p2465
I24921
sS'GGCGAA'
p2466
I6070
sS'GTTGCT'
p2467
I16916
sS'NNNGCG'
p2468
I1
sS'GGATAT'
p2469
I8832
sS'TCGGGT'
p2470
I6070
sS'AAACCT'
p2471
I21600
sS'GCAGTT'
p2472
I19255
sS'GAAGCT'
p2473
I24690
sS'GGATAA'
p2474
I11035
sS'GGATAC'
p2475
I7087
sS'NNNNNG'
p2476
I2
sS'TCGGGG'
p2477
I14357
sS'GGATAG'
p2478
I8778
sS'GAAGCG'
p2479
I10203
sS'GCAGTG'
p2480
I36871
sS'GAAGCC'
p2481
I28864
sS'GCAGTA'
p2482
I12418
sS'GAAGCA'
p2483
I26397
sS'GCAGTC'
p2484
I17944
sS'CGCCCG'
p2485
I22921
sS'GAGAGA'
p2486
I41463
sS'GAGAGG'
p2487
I45004
sS'CGCCCA'
p2488
I17877
sS'GGCGGC'
p2489
I38435
sS'CTATAG'
p2490
I7413
sS'NNNNNN'
p2491
I369
sS'ACGCAC'
p2492
I6708
sS'CTATAA'
p2493
I10137
sS'CTCGCA'
p2494
I6963
sS'CGCCCT'
p2495
I18792
sS'CTCGCG'
p2496
I8594
sS'GTCTCG'
p2497
I7943
sS'CTATAT'
p2498
I8018
sS'AGTTTC'
p2499
I23695
sS'GCCGGG'
p2500
I35911
sS'AGCATC'
p2501
I15630
sS'TACCCG'
p2502
I4046
sS'GCCGGC'
p2503
I24089
sS'CATGTT'
p2504
I19973
sS'GCCGGA'
p2505
I12661
sS'AGATCT'
p2506
I15413
sS'AACTGC'
p2507
I19315
sS'CGAGCG'
p2508
I8131
sS'TACCCA'
p2509
I13794
sS'CATGTA'
p2510
I12166
sS'CATGTC'
p2511
I14994
sS'GCCGGT'
p2512
I8264
sS'CATGTG'
p2513
I23273
sS'ATTAAC'
p2514
I11913
sS'TACCCC'
p2515
I10755
sS'GTACTC'
p2516
I7400
sS'GGCCTG'
p2517
I47339
sS'GGCCTC'
p2518
I44267
sS'NNGCGC'
p2519
I1
sS'GGCCTA'
p2520
I11772
sS'AATCGG'
p2521
I3578
sS'AATCGC'
p2522
I4130
sS'AATCGA'
p2523
I2803
sS'TTCCCA'
p2524
I38852
sS'GGCCTT'
p2525
I27873
sS'TCACTA'
p2526
I12140
sS'TCACTC'
p2527
I22921
sS'AATCGT'
p2528
I2900
sS'AGCCGA'
p2529
I9473
sS'GAGCGT'
p2530
I6412
sS'AGCCGC'
p2531
I17688
sS'TAATTG'
p2532
I11015
sS'TAATTA'
p2533
I14789
sS'AGCCGG'
p2534
I18460
sS'GTTTTT'
p2535
I31320
sS'TGGTGA'
p2536
I24731
sS'GATGGA'
p2537
I19456
sS'TGGTGC'
p2538
I20229
sS'GATGGC'
p2539
I17154
sS'GGGCTG'
p2540
I56166
sS'TGGTGG'
p2541
I34757
sS'GATGGG'
p2542
I24192
sS'AAAAAA'
p2543
I129680
sS'GTTTTA'
p2544
I19828
sS'GGGCTC'
p2545
I36523
sS'GTTTTG'
p2546
I24991
sS'GTTCAA'
p2547
I17179
sS'AAAAAG'
p2548
I41574
sS'TGACAG'
p2549
I26149
sS'CCAAGG'
p2550
I33015
sS'ACGTAT'
p2551
I2652
sS'TCTCAG'
p2552
I34317
sS'GATGGT'
p2553
I13314
sS'TGGTGT'
p2554
I20498
sS'GGGCTT'
p2555
I26421
sS'AGAACT'
p2556
I21803
sS'GCATTA'
p2557
I9874
sS'CCTTCG'
p2558
I8147
sS'TACCAT'
p2559
I10107
sS'AGATAG'
p2560
I11976
sS'ACCCGG'
p2561
I14093
sS'ACCCGA'
p2562
I6146
sS'AGATAC'
p2563
I10460
sS'ACCCGC'
p2564
I11999
sS'AGATAA'
p2565
I19658
sS'TACCAC'
p2566
I10823
sS'AGAACG'
p2567
I6264
sS'TACCAA'
p2568
I10887
sS'AGAACA'
p2569
I26823
sS'TACCAG'
p2570
I13308
sS'AGAACC'
p2571
I18380
sS'ATGTCA'
p2572
I18028
sS'CACTGG'
p2573
I30787
sS'CCTATG'
p2574
I10727
sS'TGACAA'
p2575
I18170
sS'ACCAGG'
p2576
I29421
sS'CACTGC'
p2577
I36895
sS'CCTATC'
p2578
I9051
sS'CAGCGT'
p2579
I9827
sS'TAGGTT'
p2580
I10554
sS'GTTTAC'
p2581
I14022
sS'AATTAT'
p2582
I17104
sS'AGCCAC'
p2583
I33610
sS'TGCTAT'
p2584
I12504
sS'CTGTTC'
p2585
I22793
sS'CGGGTT'
p2586
I7749
sS'CTGTTA'
p2587
I15667
sS'AATTAC'
p2588
I12570
sS'AATTAA'
p2589
I19436
sS'TAGGTA'
p2590
I8926
sS'TAGGTC'
p2591
I8784
sS'CGGGTC'
p2592
I11206
sS'CTGTTT'
p2593
I35751
sS'CGGGTA'
p2594
I4193
sS'CGGGTG'
p2595
I13784
sS'GGGTAC'
p2596
I8018
sS'CTTCGG'
p2597
I8344
sS'CACACT'
p2598
I24291
sS'CATTAC'
p2599
I9954
sS'TTAGGG'
p2600
I13985
sS'ATATAT'
p2601
I16808
sS'AGCAAC'
p2602
I16916
sS'TTAGGC'
p2603
I10639
sS'AAAGCT'
p2604
I25626
sS'TTAGGA'
p2605
I16498
sS'AAAGCA'
p2606
I34361
sS'ATATAG'
p2607
I7887
sS'TTAGGT'
p2608
I11116
sS'ATATAA'
p2609
I13489
sS'AGCAAT'
p2610
I17123
sS'AAAGCG'
p2611
I7516
sS'ATAGCA'
p2612
I12614
sS'ATAGCC'
p2613
I8695
sS'TACTTG'
p2614
I12508
sS'ATAGCG'
p2615
I2532
sS'CAGCAT'
p2616
I23417
sS'CAGCGC'
p2617
I19253
sS'ATAGCT'
p2618
I11788
sS'TACTTT'
p2619
I19514
sS'CATGCG'
p2620
I5583
sS'CGAGTT'
p2621
I4801
sS'TCCAAT'
p2622
I12485
sS'CGTACT'
p2623
I2296
sS'TCCCGT'
p2624
I7815
sS'TATGCT'
p2625
I10716
sS'CTTAAG'
p2626
I12595
sS'ACATAA'
p2627
I15089
sS'CTTAAA'
p2628
I20178
sS'AGGGGT'
p2629
I23959
sS'CTTAAC'
p2630
I11378
sS'CGTACA'
p2631
I2807
sS'CGTACC'
p2632
I2574
sS'TCCAAC'
p2633
I15369
sS'TCCAAA'
p2634
I26891
sS'AGGGGA'
p2635
I39150
sS'CTTAAT'
p2636
I12491
sS'TATGCG'
p2637
I2061
sS'TATGCA'
p2638
I12415
sS'AGGGGG'
p2639
I34593
sS'TCATTA'
p2640
I14975
sS'CGACTT'
p2641
I4384
sS'TGAATT'
p2642
I20115
sS'TTGTAA'
p2643
I17234
sS'CACAAA'
p2644
I29177
sS'TTGTAC'
p2645
I10012
sS'GTACCT'
p2646
I9909
sS'NNCAGA'
p2647
I1
sS'TTGTAG'
p2648
I13815
sS'TGAATC'
p2649
I14637
sS'ACAACA'
p2650
I20040
sS'TGAATA'
p2651
I16126
sS'CGACTC'
p2652
I5978
sS'TGAATG'
p2653
I23491
sS'CACACA'
p2654
I59975
sS'CGACTG'
p2655
I5648
sS'TTGTAT'
p2656
I15198
sS'ATCGTG'
p2657
I3976
sS'GCTTCG'
p2658
I6858
sS'GCTTCA'
p2659
I20942
sS'GCTTCC'
p2660
I33605
sS'TGGGAG'
p2661
I50879
sS'TGGGAA'
p2662
I38445
sS'TGGGAC'
p2663
I24323
sS'GCTTCT'
p2664
I28351
sS'ATCGTT'
p2665
I2882
sS'ACAACG'
p2666
I3963
sS'TGGGAT'
p2667
I25645
sS'CTAGCC'
p2668
I12617
sS'GACCAT'
p2669
I10487
sS'CTAGCG'
p2670
I4234
sS'CGGTGA'
p2671
I8262
sS'CGGTAG'
p2672
I3911
sS'ACTTAG'
p2673
I11984
sS'ACTTAA'
p2674
I15115
sS'CGGTAC'
p2675
I2575
sS'ACTTAC'
p2676
I10843
sS'CGGTAA'
p2677
I3360
sS'GACCAG'
p2678
I23889
sS'GACCAC'
p2679
I15538
sS'CTATCC'
p2680
I8692
sS'TTCGAG'
p2681
I5482
sS'TACACC'
p2682
I8462
sS'CGGTAT'
p2683
I2043
sS'TACACA'
p2684
I20134
sS'TACACG'
p2685
I3740
sS'GCGAGA'
p2686
I8938
sS'GAGAGC'
p2687
I27032
sS'GCGAGC'
p2688
I11410
sS'GGCCGT'
p2689
I9365
sS'GCGAGG'
p2690
I16786
sS'CAGCCG'
p2691
I19621
sS'CAGCCA'
p2692
I43403
sS'CAGCCC'
p2693
I55562
sS'TCCGGG'
p2694
I16910
sS'GCGAGT'
p2695
I5825
sS'GAACTG'
p2696
I21561
sS'GAACTC'
p2697
I18833
sS'GAACTA'
p2698
I10298
sS'GGACTT'
p2699
I20891
sS'CACCTA'
p2700
I13736
sS'AACTAT'
p2701
I10816
sS'CACCTC'
p2702
I33619
sS'CACCTG'
p2703
I37706
sS'TGATCC'
p2704
I14916
sS'AACACT'
p2705
I19813
sS'TGATCA'
p2706
I13839
sS'TGATCG'
p2707
I2782
sS'AACTAG'
p2708
I10640
sS'GGACTG'
p2709
I24239
sS'CACCTT'
p2710
I22958
sS'GGACTA'
p2711
I10312
sS'GGACTC'
p2712
I20933
sS'AACGAT'
p2713
I2882
sS'AACACG'
p2714
I6432
sS'AACACA'
p2715
I28830
sS'CGTCTC'
p2716
I10604
sS'AACACC'
p2717
I16250
sS'TGATCT'
p2718
I17920
sS'AAAGAC'
p2719
I21614
sS'GCATTC'
p2720
I16115
sS'CAACAG'
p2721
I23751
sS'GACAGT'
p2722
I17062
sS'CAACAA'
p2723
I20265
sS'AAAGAA'
p2724
I47358
sS'CAACAC'
p2725
I17079
sS'GCTGAT'
p2726
I15955
sS'ACGCAA'
p2727
I4123
sS'GACAGG'
p2728
I30270
sS'ATATCC'
p2729
I8794
sS'GACAGC'
p2730
I23543
sS'GACAGA'
p2731
I30680
sS'GTATTA'
p2732
I8549
sS'GTATTC'
p2733
I8684
sS'GTAAGT'
p2734
I10707
sS'CCAGCG'
p2735
I18138
sS'AGAGGT'
p2736
I25090
sS'GGTGGC'
p2737
I35725
sS'TCCCCT'
p2738
I39202
sS'GGTGGA'
p2739
I28003
sS'CGTCAT'
p2740
I4025
sS'GGTGGG'
p2741
I49830
sS'NNNGAA'
p2742
I1
sS'AGAGGC'
p2743
I38440
sS'GTAAGA'
p2744
I11824
sS'AGAGGA'
p2745
I40151
sS'GTAAGC'
p2746
I8848
sS'AGAGGG'
p2747
I42562
sS'GTAAGG'
p2748
I11062
sS'CGTCAA'
p2749
I2959
sS'CGTCAC'
p2750
I6628
sS'TCCCCC'
p2751
I33998
sS'GGTGGT'
p2752
I21840
sS'CGTCAG'
p2753
I7004
sS'GTCGCG'
p2754
I4896
sS'GTCGCA'
p2755
I3972
sS'GTCGCC'
p2756
I9333
sS'CCGTCT'
p2757
I9888
sS'TCGGTA'
p2758
I2453
sS'TATTGA'
p2759
I12496
sS'TCGGTG'
p2760
I6756
sS'GTCGCT'
p2761
I5862
sS'GTAACT'
p2762
I11589
sS'CCGTCG'
p2763
I4388
sS'CCGTCA'
p2764
I5787
sS'TCGGTT'
p2765
I4312
sS'GGCTGT'
p2766
I31107
sS'CGCGTG'
p2767
I6823
sS'GCATTT'
p2768
I24284
sS'CGCGTC'
p2769
I7046
sS'CGCGTA'
p2770
I1549
sS'GAATTT'
p2771
I22311
sS'CCACTA'
p2772
I12693
sS'ATGCAC'
p2773
I13786
sS'CGCGTT'
p2774
I3518
sS'GGCTGG'
p2775
I63638
sS'GGCTGA'
p2776
I35390
sS'GGCTGC'
p2777
I47321
sS'ATGCAT'
p2778
I14409
sS'TTTAGA'
p2779
I19133
sS'ATGACG'
p2780
I4074
sS'GGAGTT'
p2781
I23067
sS'ATGACA'
p2782
I18710
sS'ATGACC'
p2783
I13710
sS'CCTGAT'
p2784
I17029
sS'GGGCCT'
p2785
I37830
sS'ATGACT'
p2786
I18104
sS'GGAGTA'
p2787
I11029
sS'TATCCG'
p2788
I2262
sS'GGAGTC'
p2789
I21523
sS'GGAGTG'
p2790
I28652
sS'GGGCCG'
p2791
I28182
sS'GGGCCC'
p2792
I41479
sS'GGGCCA'
p2793
I33087
sS'CTGATC'
p2794
I13731
sS'ACGAGT'
p2795
I3333
sS'TTCNNN'
p2796
I1
sS'AGGCCA'
p2797
I37858
sS'GCGCAC'
p2798
I9863
sS'AAAGTC'
p2799
I21922
sS'AGGCCG'
p2800
I19457
sS'TGTCTC'
p2801
I29051
sS'ACGAGG'
p2802
I8349
sS'ACGAGC'
p2803
I4733
sS'ACGAGA'
p2804
I4864
sS'CTGATG'
p2805
I19928
sS'AGGCCT'
p2806
I36098
sS'GATTTA'
p2807
I13211
sS'ACATCT'
p2808
I17635
sS'GGGTTG'
p2809
I18512
sS'GACTAC'
p2810
I8087
sS'GGGTTA'
p2811
I10831
sS'GGGTTC'
p2812
I17877
sS'TTTGAT'
p2813
I18276
sS'ATTCGA'
p2814
I2834
sS'CTACGA'
p2815
I2696
sS'ATTGCT'
p2816
I17091
sS'GGGTTT'
p2817
I22764
sS'TACAAG'
p2818
I12070
sS'AGATCC'
p2819
I14319
sS'TGCGAG'
p2820
I7088
sS'ATTGCC'
p2821
I12057
sS'ATCCAT'
p2822
I12859
sS'ATTGCA'
p2823
I16223
sS'TTTGGC'
p2824
I19978
sS'AACGGG'
p2825
I6421
sS'TTTGAC'
p2826
I14985
sS'TTTGAA'
p2827
I30771
sS'ATCATC'
p2828
I12434
sS'CCTGAC'
p2829
I26874
sS'TGACGT'
p2830
I5580
sS'CTCGTC'
p2831
I6326
sS'CCCTGG'
p2832
I55672
sS'CCCTGA'
p2833
I32822
sS'AAGCTT'
p2834
I18873
sS'CCCTGC'
p2835
I52280
sS'TACCTT'
p2836
I13580
sS'GATATC'
p2837
I5709
sS'AAGCTC'
p2838
I20380
sS'GATATA'
p2839
I6580
sS'TGACGG'
p2840
I5853
sS'GATATG'
p2841
I8326
sS'TGACGA'
p2842
I3595
sS'TGACGC'
p2843
I5716
sS'TACTCT'
p2844
I13638
sS'CATCGT'
p2845
I4149
sS'CAGGGT'
p2846
I32002
sS'CCAGTC'
p2847
I22934
sS'TACGAT'
p2848
I1834
sS'CCAGTG'
p2849
I30598
sS'TACTCG'
p2850
I3110
sS'CATCGA'
p2851
I2998
sS'CATCGC'
p2852
I5341
sS'TACTCC'
p2853
I11067
sS'NGAATT'
p2854
I2
sS'TACTCA'
p2855
I14593
sS'CATCGG'
p2856
I4318
sS'CAGGGG'
p2857
I42390
sS'GAACCT'
p2858
I16108
sS'CCAGTT'
p2859
I21115
sS'CAGGGC'
p2860
I50475
sS'AATCTG'
p2861
I19221
sS'TACAAT'
p2862
I11657
sS'GCCATT'
p2863
I16768
sS'AATCTA'
p2864
I11188
sS'TGAACG'
p2865
I4722
sS'TCACAC'
p2866
I21999
sS'CCCATA'
p2867
I10284
sS'TCACAA'
p2868
I19563
sS'TCACAG'
p2869
I32376
sS'GCCATA'
p2870
I8904
sS'CGGACG'
p2871
I5675
sS'TCCACC'
p2872
I28296
sS'CGGACA'
p2873
I6543
sS'CGGACC'
p2874
I8215
sS'GCCATG'
p2875
I21964
sS'TTTTAA'
p2876
I42345
sS'CTCGGC'
p2877
I19275
sS'TCACAT'
p2878
I20208
sS'TGAACC'
p2879
I16040
sS'CACGGA'
p2880
I8574
sS'ATTAAA'
p2881
I22707
sS'ATTAAG'
p2882
I12387
sS'CTTACA'
p2883
I13970
sS'TCACTT'
p2884
I25545
sS'TGAACA'
p2885
I20646
sS'ATTAAT'
p2886
I14424
sS'GAACCA'
p2887
I16947
sS'GGTATG'
p2888
I8739
sS'GGTATA'
p2889
I5769
sS'GGTATC'
p2890
I6402
sS'GAACCG'
p2891
I6007
sS'CAATGA'
p2892
I16857
sS'GGTATT'
p2893
I10475
sS'CTGAAC'
p2894
I19604
sS'CTGAAG'
p2895
I30862
sS'NNNNGC'
p2896
I1
sS'CCCGAA'
p2897
I7326
sS'CATTGC'
p2898
I15433
sS'CCCGGC'
p2899
I35587
sS'CATTGA'
p2900
I12968
sS'CTAGTT'
p2901
I10692
sS'CATTGG'
p2902
I13612
sS'TCAACT'
p2903
I13902
sS'ACCATC'
p2904
I13418
sS'ACACCG'
p2905
I6459
sS'CTGCCA'
p2906
I37579
sS'GACACT'
p2907
I16739
sS'ACACCC'
p2908
I21265
sS'ACACCA'
p2909
I20595
sS'CTGCCG'
p2910
I17776
sS'CTAGTG'
p2911
I12420
sS'TCAACC'
p2912
I11848
sS'TCAACA'
p2913
I18909
sS'CTAGTC'
p2914
I8784
sS'TCAACG'
p2915
I3339
sS'CTAGTA'
p2916
I6867
sS'CATTGT'
p2917
I18504
sS'TATGAC'
p2918
I8967
sS'ACACCT'
p2919
I19810
sS'CTGCCT'
p2920
I54284
sS'CCTCGT'
p2921
I8270
sS'TTGTGT'
p2922
I23706
sS'TACGCA'
p2923
I2954
sS'AGACTG'
p2924
I23837
sS'TCACTG'
p2925
I33340
sS'AGACTA'
p2926
I10459
sS'CCTCGG'
p2927
I20554
sS'CCTCGC'
p2928
I16819
sS'CCCGAC'
p2929
I10144
sS'CCTCGA'
p2930
I7035
sS'CGAGGA'
p2931
I11201
sS'AGACTT'
p2932
I18653
sS'CGAGGG'
p2933
I15790
sS'ACTTTC'
p2934
I21270
sS'ACTTTA'
p2935
I17039
sS'ACTTTG'
p2936
I29176
sS'GACCTG'
p2937
I24068
sS'GTAATG'
p2938
I9827
sS'GACCTC'
p2939
I22580
sS'CACCGG'
p2940
I10310
sS'ACGCTG'
p2941
I9637
sS'CACCGA'
p2942
I6977
sS'CACCGC'
p2943
I15658
sS'GACCTT'
p2944
I20559
sS'GGACGC'
p2945
I12173
sS'GGACGG'
p2946
I11830
sS'CTATTA'
p2947
I9743
sS'CACAGC'
p2948
I39822
sS'CTTATC'
p2949
I11628
sS'CACAGA'
p2950
I38037
sS'CTTATA'
p2951
I8391
sS'CACAGG'
p2952
I38940
sS'CTTATG'
p2953
I10027
sS'ACTCAT'
p2954
I16441
sS'GAGGAG'
p2955
I51342
sS'GACGTA'
p2956
I2265
sS'CGTATC'
p2957
I2142
sS'GACGTC'
p2958
I5494
sS'TAAACT'
p2959
I16277
sS'GAGGAA'
p2960
I39605
sS'AGCGAT'
p2961
I5021
sS'TTAACA'
p2962
I17093
sS'ACTCAC'
p2963
I20645
sS'TTAACC'
p2964
I12010
sS'TTGTGA'
p2965
I19682
sS'ACTCAG'
p2966
I28374
sS'TTAACG'
p2967
I3005
sS'CACAGT'
p2968
I27912
sS'AGCGAC'
p2969
I5900
sS'TAAACA'
p2970
I26486
sS'AGCGAA'
p2971
I5392
sS'TAAACC'
p2972
I11712
sS'GACGTT'
p2973
I4127
sS'TCTAAA'
p2974
I18822
sS'TAAACG'
p2975
I4019
sS'AGTTCC'
p2976
I19525
sS'GTATGT'
p2977
I11604
sS'AGTTCA'
p2978
I22330
sS'TACTTA'
p2979
I11635
sS'AGTTCG'
p2980
I4580
sS'TAGCCC'
p2981
I11790
sS'CTGTGA'
p2982
I32127
sS'CGGGGT'
p2983
I14999
sS'TAGGAC'
p2984
I9909
sS'GCAAAG'
p2985
I27069
sS'TAGGAA'
p2986
I20110
sS'GCAAAA'
p2987
I23568
sS'TAGGAG'
p2988
I17773
sS'GCAAAC'
p2989
I19347
sS'CGGGGC'
p2990
I36949
sS'CGGGGA'
p2991
I22620
sS'CTGTGT'
p2992
I37636
sS'CGGGGG'
p2993
I25693
sS'GTATGC'
p2994
I6472
sS'AGTTCT'
p2995
I21528
sS'GCAAAT'
p2996
I19399
sS'CGAGAA'
p2997
I6778
sS'TAGGAT'
p2998
I10946
sS'AAAAAT'
p2999
I47697
sS'GCATAT'
p3000
I8975
sS'TGCTTT'
p3001
I34260
sS'GTCTAT'
p3002
I7743
sS'TGGGNC'
p3003
I1
sS'ACTAGG'
p3004
I11626
sS'GTTACC'
p3005
I8656
sS'GTTACA'
p3006
I12285
sS'TAATTC'
p3007
I13058
sS'GTTACG'
p3008
I2395
sS'TATCGC'
p3009
I1898
sS'TATAGT'
p3010
I7760
sS'GTCTAA'
p3011
I8657
sS'AGGACG'
p3012
I9798
sS'GTCTAC'
p3013
I7335
sS'TGCTTC'
p3014
I26085
sS'TTCAAA'
p3015
I30790
sS'TTCAAC'
p3016
I14013
sS'TCTCAT'
p3017
I21077
sS'TATAGC'
p3018
I6441
sS'TATCGT'
p3019
I1764
sS'TATAGA'
p3020
I9292
sS'AGTGGG'
p3021
I30081
sS'TATAGG'
p3022
I7558
sS'GTTACT'
p3023
I11423
sS'GGAAAA'
p3024
I40041
sS'GGAAAC'
p3025
I26631
sS'GGGCTA'
p3026
I11788
sS'GCTCTG'
p3027
I43354
sS'CCACGT'
p3028
I10846
sS'GGCGTT'
p3029
I6090
sS'AGGACC'
p3030
I20447
sS'GAATGG'
p3031
I19736
sS'GGCTTT'
p3032
I27091
sS'ACTACT'
p3033
I9755
sS'GAATGC'
p3034
I16154
sS'CCACGA'
p3035
I7057
sS'AACCTG'
p3036
I21930
sS'CCACGC'
p3037
I14965
sS'GGCGTA'
p3038
I2750
sS'AACCTC'
p3039
I20103
sS'CCACGG'
p3040
I13318
sS'AACCTA'
p3041
I10566
sS'GGCTTA'
p3042
I12386
sS'ACTACC'
p3043
I7862
sS'GGCTTC'
p3044
I28825
sS'ACTACA'
p3045
I13710
sS'ACTACG'
p3046
I2761
sS'GGCTTG'
p3047
I22863
sS'CGTTGA'
p3048
I3359
sS'AGTCAG'
p3049
I24876
sS'CGTTGC'
p3050
I4766
sS'TAACAC'
p3051
I11330
sS'TCCTAC'
p3052
I12867
sS'AGTCAC'
p3053
I22029
sS'TCCTAA'
p3054
I16263
sS'TAACAG'
p3055
I15720
sS'TCATCG'
p3056
I4185
sS'AAGCGT'
p3057
I4863
sS'TCATCC'
p3058
I18712
sS'AAAAAC'
p3059
I31331
sS'CTTTCT'
p3060
I41534
sS'AGTCAT'
p3061
I18094
sS'TCCTAT'
p3062
I12212
sS'TAACAT'
p3063
I13650
sS'CGTTGT'
p3064
I3916
sS'CTTTCC'
p3065
I38452
sS'CTTTCA'
p3066
I27980
sS'CTTTCG'
p3067
I5677
sS'AGCCGT'
p3068
I6783
sS'GAGCGC'
p3069
I15165
sS'GTTGAT'
p3070
I9431
sS'CGACCA'
p3071
I4438
sS'CGACCC'
p3072
I9504
sS'GCATAC'
p3073
I6390
sS'CGACCG'
p3074
I3783
sS'CCTTAT'
p3075
I12278
sS'GTTGAC'
p3076
I9981
sS'GTTGAA'
p3077
I14237
sS'GTTGAG'
p3078
I14772
sS'CCTTAC'
p3079
I10892
sS'CCTTAA'
p3080
I13487
sS'CCTTAG'
p3081
I14111
sS'CGACCT'
p3082
I6473
sS'CAACTC'
p3083
I16798
sS'AATAGC'
p3084
I11718
sS'CAACTG'
p3085
I17694
sS'AATAGG'
p3086
I12273
sS'AATATC'
p3087
I11234
sS'CCAAGC'
p3088
I24109
sS'GGGGTT'
p3089
I20550
sS'GTCCCT'
p3090
I26895
sS'ATTCNN'
p3091
I1
sS'GGATGT'
p3092
I15450
sS'AATAGT'
p3093
I11677
sS'TCTCAC'
p3094
I23392
sS'CAACTT'
p3095
I16085
sS'GGGGTG'
p3096
I38226
sS'GGATGA'
p3097
I18693
sS'GGGGTC'
p3098
I24655
sS'GGGGTA'
p3099
I10936
sS'TCTCCG'
p3100
I11757
sS'GAGTCC'
p3101
I20922
sS'AAACTG'
p3102
I27889
sS'TCTCCC'
p3103
I43086
sS'GAGTCG'
p3104
I6114
sS'TCTCCA'
p3105
I35367
sS'AAACTC'
p3106
I21226
sS'CTATGA'
p3107
I11665
sS'AGTACG'
p3108
I2334
sS'ACGCGC'
p3109
I6818
sS'AGTACC'
p3110
I8198
sS'ACGCGG'
p3111
I7318
sS'AGTACA'
p3112
I13331
sS'AAACTT'
p3113
I22189
sS'CCCTTC'
p3114
I36683
sS'TCTCCT'
p3115
I40706
sS'GAGTCT'
p3116
I19793
sS'AGTACT'
p3117
I10401
sS'CTATGT'
p3118
I12559
sS'GCCGAA'
p3119
I5629
sS'GTGGAG'
p3120
I32144
sS'GCCGAC'
p3121
I7031
sS'GTGGAC'
p3122
I15747
sS'GCCGAG'
p3123
I19290
sS'GTGGAA'
p3124
I23383
sS'CGCCCC'
p3125
I39834
sS'GTGGAT'
p3126
I14594
sS'ACGAAC'
p3127
I3008
sS'CCTATT'
p3128
I12091
sS'TATCTG'
p3129
I15629
sS'CACTGT'
p3130
I28606
sS'GTAGTC'
p3131
I8099
sS'AAATCG'
p3132
I4175
sS'GTAGTA'
p3133
I6332
sS'TTATCG'
p3134
I2087
sS'GTAGTG'
p3135
I9587
sS'AAATCC'
p3136
I19952
sS'ACCGAA'
p3137
I4170
sS'AAATCA'
p3138
I24007
sS'ATGTCT'
p3139
I17050
sS'CACGCT'
p3140
I8602
sS'AAATCT'
p3141
I21592
sS'ACCGAT'
p3142
I2322
sS'GTAGTT'
p3143
I9904
sS'ACCAGT'
p3144
I14079
sS'CGTTAT'
p3145
I2599
sS'GATGAT'
p3146
I12375
sS'GGAGCA'
p3147
I29274
sS'GGAGCC'
p3148
I41043
sS'AAAGTG'
p3149
I28737
sS'CCAAAT'
p3150
I20417
sS'GGAGCG'
p3151
I18338
sS'AAAACT'
p3152
I26026
sS'GATGAC'
p3153
I13825
sS'TGTCCC'
p3154
I28534
sS'GATGAA'
p3155
I18744
sS'GCTCTT'
p3156
I23619
sS'GATGAG'
p3157
I20078
sS'CCAAAA'
p3158
I24288
sS'ACTAAC'
p3159
I7949
sS'CCAAAC'
p3160
I20410
sS'AAAACG'
p3161
I7877
sS'GGAGCT'
p3162
I33911
sS'CCAAAG'
p3163
I33255
sS'TCGCGG'
p3164
I7465
sS'CGGTCC'
p3165
I9175
sS'TCGCGC'
p3166
I6706
sS'CTACCG'
p3167
I4062
sS'GCCACA'
p3168
I28840
sS'AGATCA'
p3169
I18031
sS'GCCACC'
p3170
I35347
sS'AGAAAT'
p3171
I31423
sS'CGACGG'
p3172
I4332
sS'GCCACG'
p3173
I13101
sS'AGATCG'
p3174
I4429
sS'TGCCTA'
p3175
I14445
sS'ACCAGC'
p3176
I26509
sS'TCGCGT'
p3177
I2638
sS'GTGCAA'
p3178
I15627
sS'ACCCGT'
p3179
I4572
sS'AGAAAG'
p3180
I42413
sS'CGACGA'
p3181
I2165
sS'TCCCTT'
p3182
I32444
sS'AGAAAC'
p3183
I28638
sS'AGATAT'
p3184
I11528
sS'AGAAAA'
p3185
I52492
sS'GTGCAG'
p3186
I30230
sS'ATGTAC'
p3187
I9173
sS'ACTTCG'
p3188
I4651
sS'ATGTAA'
p3189
I16269
sS'ATGTAG'
p3190
I10779
sS'GAGGAT'
p3191
I19749
sS'CTACCA'
p3192
I12630
sS'CCGGCA'
p3193
I12285
sS'GACGAC'
p3194
I3934
sS'ATGTCG'
p3195
I2906
sS'ATGTAT'
p3196
I13476
sS'CCGGCG'
p3197
I18057
sS'CACTGA'
p3198
I26441
sS'GTTCCC'
p3199
I21496
sS'AGCACT'
p3200
I25531
sS'TTAGAA'
p3201
I19516
sS'CGGCTG'
p3202
I19245
sS'TTAGAC'
p3203
I8725
sS'CGGCTC'
p3204
I19025
sS'TTAGAG'
p3205
I16119
sS'CGGCTA'
p3206
I4427
sS'AGCACC'
p3207
I22699
sS'AGCACA'
p3208
I27354
sS'AGCACG'
p3209
I7975
sS'CGGCTT'
p3210
I9579
sS'TTAGAT'
p3211
I10937
sS'ATATCG'
p3212
I1534
sS'ACCTAT'
p3213
I8387
sS'CCAGCC'
p3214
I64120
sS'AAAGAG'
p3215
I34400
sS'AACTAC'
p3216
I10081
sS'ATATCA'
p3217
I10100
sS'CGACGT'
p3218
I2194
sS'TTATTT'
p3219
I41095
sS'TGTGAG'
p3220
I28045
sS'TGTGAA'
p3221
I25209
sS'GGGAGG'
p3222
I80894
sS'TGTGAC'
p3223
I21483
sS'ATATCT'
p3224
I11385
sS'CCAGCT'
p3225
I45400
sS'CACGGT'
p3226
I7663
sS'AAAGAT'
p3227
I22374
sS'TGTGAT'
p3228
I19174
sS'TTATTG'
p3229
I15270
sS'TTATTA'
p3230
I18118
sS'GAAAGC'
p3231
I24443
sS'TTATTC'
p3232
I16380
sS'AGACGG'
p3233
I9898
sS'TTTTAT'
p3234
I31514
sS'GCGAAC'
p3235
I3696
sS'CTTACT'
p3236
I13661
sS'TCCACT'
p3237
I22830
sS'TACAAA'
p3238
I24016
sS'AGACGA'
p3239
I4956
sS'CACAAT'
p3240
I16359
sS'CCTCTG'
p3241
I51050
sS'AGGTGG'
p3242
I39014
sS'CCTCTC'
p3243
I45337
sS'AGGTGC'
p3244
I21636
sS'CCTCTA'
p3245
I17223
sS'AGGTGA'
p3246
I27214
sS'CTTACG'
p3247
I3167
sS'TCCACA'
p3248
I26099
sS'TTTTAG'
p3249
I21907
sS'AGACGT'
p3250
I5228
sS'CTTACC'
p3251
I11658
sS'ACATCA'
p3252
I17087
sS'TTTTAC'
p3253
I18989
sS'ACATCC'
p3254
I15479
sS'AGGTGT'
p3255
I19695
sS'CCTCTT'
p3256
I32772
sS'CGTCGG'
p3257
I4564
sS'TATGAG'
p3258
I11471
sS'CCCGGA'
p3259
I16865
sS'NNCTGA'
p3260
I1
sS'CCCGGG'
p3261
I37360
sS'TATGAA'
p3262
I14387
sS'TGGAAT'
p3263
I24666
sS'TAGGTG'
p3264
I13565
sS'NCAGAG'
p3265
I1
sS'TTGTGC'
p3266
I16393
sS'TATGAT'
p3267
I9756
sS'TTGTGG'
p3268
I21322
sS'CCCGGT'
p3269
I9879
sS'TGGAAG'
p3270
I32212
sS'TGGAAC'
p3271
I17649
sS'TGGAAA'
p3272
I36694
sS'TGAGGA'
p3273
I30636
sS'AAGAGG'
p3274
I32717
sS'TGAGGC'
p3275
I33395
sS'AAGAGA'
p3276
I33675
sS'AAGAGC'
p3277
I23977
sS'TGAGGG'
p3278
I31265
sS'GCTTAG'
p3279
I12511
sS'GCTTAC'
p3280
I8820
sS'GCTTAA'
p3281
I11715
sS'TGATTC'
p3282
I16283
sS'AAGCGC'
p3283
I7814
sS'AAGAGT'
p3284
I18610
sS'AAGCGA'
p3285
I6678
sS'NGCGCC'
p3286
I1
sS'TGAGGT'
p3287
I24665
sS'GCTTAT'
p3288
I10446
sS'CTGCTA'
p3289
I15766
sS'GCGTGT'
p3290
I8134
sS'CTGCTC'
p3291
I38831
sS'ACTTCT'
p3292
I22159
sS'GACCGT'
p3293
I4147
sS'CTGCTG'
p3294
I53948
sS'CGGTCA'
p3295
I5578
sS'GGTCGT'
p3296
I3867
sS'CTAGAG'
p3297
I17421
sS'CTAGAA'
p3298
I17349
sS'CTAGAC'
p3299
I9459
sS'GACCGA'
p3300
I4847
sS'GACCGC'
p3301
I7737
sS'ACTTCC'
p3302
I25474
sS'CTGCTT'
p3303
I33712
sS'ACTTCA'
p3304
I20664
sS'CTAGAT'
p3305
I10254
sS'GGTCGG'
p3306
I9126
sS'CGGTCT'
p3307
I6353
sS'GGTCGC'
p3308
I7662
sS'GGTCGA'
p3309
I3433
sS'CGTCGC'
p3310
I5064
sS'GCGTGG'
p3311
I14786
sS'TGAAGC'
p3312
I21047
sS'GCGTGA'
p3313
I8572
sS'TGGTTG'
p3314
I16601
sS'GCGTGC'
p3315
I9551
sS'TGCTCA'
p3316
I26567
sS'TTCATC'
p3317
I18602
sS'TGCTCC'
p3318
I29415
sS'TTCATA'
p3319
I14506
sS'TTCATG'
p3320
I19357
sS'TGCTCG'
p3321
I6766
sS'GTACAA'
p3322
I10135
sS'CAGCAG'
p3323
I54414
sS'TACACT'
p3324
I11476
sS'GCTTTG'
p3325
I27440
sS'CAGCAC'
p3326
I34427
sS'CGTCGT'
p3327
I2180
sS'ACGACT'
p3328
I3423
sS'TGCTCT'
p3329
I31878
sS'TTCATT'
p3330
I29339
sS'GCTTTA'
p3331
I14961
sS'GCTGCC'
p3332
I44323
sS'GCTGCA'
p3333
I35107
sS'AACTCT'
p3334
I20855
sS'TGGCCC'
p3335
I33440
sS'TGGCCA'
p3336
I35826
sS'GTAGCA'
p3337
I10471
sS'AGCAAA'
p3338
I32215
sS'TGGCCT'
p3339
I37868
sS'AACTCC'
p3340
I23060
sS'GCTGCT'
p3341
I41125
sS'AACTCG'
p3342
I4858
sS'AATATT'
p3343
I26551
sS'GTTCGA'
p3344
I3512
sS'CAACCT'
p3345
I19061
sS'CAGTTA'
p3346
I14560
sS'TGGCCG'
p3347
I14858
sS'GGCACG'
p3348
I10029
sS'GGCACA'
p3349
I25517
sS'GACAAT'
p3350
I11412
sS'GGCACC'
p3351
I23451
sS'CAACCG'
p3352
I4791
sS'GTACAT'
p3353
I9281
sS'AATATG'
p3354
I14346
sS'CGGTCG'
p3355
I3738
sS'AATATA'
p3356
I15056
sS'AGCAAG'
p3357
I26710
sS'GGAACC'
p3358
I18285
sS'CTTCGT'
p3359
I5311
sS'GACAAA'
p3360
I22278
sS'GGCACT'
p3361
I21162
sS'GACAAC'
p3362
I11117
sS'ACGACA'
p3363
I3685
sS'GACAAG'
p3364
I17906
sS'GCTGCG'
p3365
I19544
sS'GCAATC'
p3366
I10886
sS'GCAATA'
p3367
I9899
sS'GCAATG'
p3368
I15600
sS'TTGAAC'
p3369
I17207
sS'CGATGG'
p3370
I5129
sS'TCCCAT'
p3371
I21960
sS'CGATGC'
p3372
I4006
sS'GTAAAT'
p3373
I17338
sS'CGATGA'
p3374
I3973
sS'GAATTA'
p3375
I12980
sS'GAATTC'
p3376
I16905
sS'GAATTG'
p3377
I13592
sS'TCCCAA'
p3378
I28652
sS'CGATGT'
p3379
I3428
sS'GTAAAA'
p3380
I19257
sS'GTAAAG'
p3381
I14116
sS'TCCCAG'
p3382
I56929
sS'GGATTT'
p3383
I19990
sS'AGCGGA'
p3384
I8991
sS'CAAGTA'
p3385
I12388
sS'CTCGAT'
p3386
I3286
sS'GGATTC'
p3387
I14722
sS'GGATTA'
p3388
I15566
sS'AGGTCC'
p3389
I19508
sS'AGCGGC'
p3390
I16647
sS'ATGGTG'
p3391
I20239
sS'AAAGCC'
p3392
I26848
sS'TCTGTG'
p3393
I37825
sS'TCTGTC'
p3394
I30630
sS'TCTGTA'
p3395
I19923
sS'AACCGG'
p3396
I5605
sS'CTCCTT'
p3397
I33911
sS'GGCGGA'
p3398
I18144
sS'GGCGGG'
p3399
I48407
sS'AACCGA'
p3400
I4295
sS'TCTGTT'
p3401
I29569
sS'ATATAC'
p3402
I8631
sS'CTCCTG'
p3403
I55538
sS'AACCGT'
p3404
I3731
sS'CTCCTA'
p3405
I17767
sS'CTCCTC'
p3406
I51741
sS'GGCGGT'
p3407
I11713
sS'GACGCA'
p3408
I6316
sS'CCCACG'
p3409
I15037
sS'CCCACA'
p3410
I33917
sS'CCCACC'
p3411
I50073
sS'TACTTC'
p3412
I12652
sS'AGCCTT'
p3413
I26436
sS'CCGATT'
p3414
I3616
sS'CCCACT'
p3415
I29704
sS'GGTCTT'
p3416
I17270
sS'GACGCT'
p3417
I6951
sS'AGCGGT'
p3418
I6175
sS'CCGATA'
p3419
I1733
sS'AGCCTG'
p3420
I47592
sS'AGCCTA'
p3421
I13191
sS'AGCCTC'
p3422
I39424
sS'GTACCC'
p3423
I7727
sS'GAGTTT'
p3424
I21603
sS'TGGTTA'
p3425
I12992
sS'CGCCTT'
p3426
I10252
sS'TGGTTC'
p3427
I17032
sS'TCNNNN'
p3428
I2
sS'CAGAGT'
p3429
I29889
sS'GCATCT'
p3430
I16933
sS'CTCCCA'
p3431
I51072
sS'GAGTTG'
p3432
I16655
sS'CGCCTC'
p3433
I23978
sS'GCGCCA'
p3434
I13400
sS'CGCCTA'
p3435
I4604
sS'GCGCCG'
p3436
I20970
sS'CGCCTG'
p3437
I21250
sS'ACGAAG'
p3438
I5384
sS'CAGAGG'
p3439
I51264
sS'GCATCC'
p3440
I15475
sS'CTCCCC'
p3441
I56907
sS'CAGAGC'
p3442
I43495
sS'AAAATT'
p3443
I31202
sS'CAGAGA'
p3444
I44540
sS'TAGCTA'
p3445
I9100
sS'CCGATC'
p3446
I3459
sS'AGACTC'
p3447
I19590
sS'CCTAGA'
p3448
I16112
sS'CTCGAA'
p3449
I5635
sS'TTTGCT'
p3450
I32235
sS'CGGGAG'
p3451
I25795
sS'TGCGGT'
p3452
I6901
sS'CCTAGG'
p3453
I19137
sS'TAAGCA'
p3454
I15735
sS'GTCTAG'
p3455
I9630
sS'TGCGGC'
p3456
I12744
sS'TGCGGA'
p3457
I7980
sS'CCTAGT'
p3458
I11593
sS'TGCGGG'
p3459
I15228
sS'TTTGCG'
p3460
I5038
sS'TGAGTT'
p3461
I20036
sS'CGGGAC'
p3462
I13309
sS'ATCGCT'
p3463
I5128
sS'TAATCT'
p3464
I13047
sS'ATCGCC'
p3465
I4686
sS'TGAGTG'
p3466
I23829
sS'ATCGCA'
p3467
I3411
sS'TGAGTA'
p3468
I14515
sS'ATCGCG'
p3469
I2855
sS'TGAGTC'
p3470
I23452
sS'AAGGTG'
p3471
I22653
sS'AAGGTC'
p3472
I20334
sS'CATCAT'
p3473
I15467
sS'AAGGTA'
p3474
I13556
sS'ATTTCG'
p3475
I3605
sS'AAGCGG'
p3476
I9302
sS'ACGGCA'
p3477
I6016
sS'CATCAC'
p3478
I17328
sS'AAGGTT'
p3479
I17406
sS'CATCAA'
p3480
I13731
sS'CATCAG'
p3481
I20604
sS'ACGGCG'
p3482
I6218
sS'TCACCT'
p3483
I27733
sS'TCTAAG'
p3484
I14123
sS'TCGTTT'
p3485
I5725
sS'CGGAAT'
p3486
I4489
sS'CAATTC'
p3487
I13687
sS'GTGGCT'
p3488
I33628
sS'ATCGAT'
p3489
I2138
sS'TCACCG'
p3490
I8339
sS'TCACCA'
p3491
I24323
sS'TCACCC'
p3492
I25963
sS'CGGAAG'
p3493
I12083
sS'CAACCC'
p3494
I18368
sS'AACTGG'
p3495
I21283
sS'AAAATA'
p3496
I40958
sS'CGGAAC'
p3497
I5829
sS'AGCTCG'
p3498
I8200
sS'CGGAAA'
p3499
I7898
sS'GCCTCA'
p3500
I33066
sS'ATCCAG'
p3501
I20894
sS'TGTGTC'
p3502
I24067
sS'TGTGTA'
p3503
I19719
sS'ATGGCC'
p3504
I17520
sS'ATGGCA'
p3505
I19798
sS'ATCCCT'
p3506
I19581
sS'ATGGCT'
p3507
I19770
sS'TGTGTT'
p3508
I28929
sS'CCAAGT'
p3509
I20982
sS'GCGGTC'
p3510
I7687
sS'AGATTA'
p3511
I12791
sS'GAAACG'
p3512
I7667
sS'GAAACA'
p3513
I28504
sS'AGATTG'
p3514
I13406
sS'CTGAGT'
p3515
I28346
sS'AGGTAC'
p3516
I9890
sS'GAAACT'
p3517
I23169
sS'AGAATG'
p3518
I25568
sS'AGATTT'
p3519
I21452
sS'AACTGA'
p3520
I21936
sS'AGAATC'
p3521
I17616
sS'CTGAGC'
p3522
I37070
sS'CTGAGA'
p3523
I34629
sS'CTGAGG'
p3524
I46285
sS'CATACC'
p3525
I8782
sS'CATACA'
p3526
I13788
sS'CATACG'
p3527
I2282
sS'TCAAAT'
p3528
I20168
sS'GTCCAT'
p3529
I12321
sS'ACATAG'
p3530
I12374
sS'CATACT'
p3531
I9596
sS'GTCCAG'
p3532
I25937
sS'TCAAAG'
p3533
I27067
sS'CACGAG'
p3534
I7428
sS'TCAAAA'
p3535
I28020
sS'CACTAA'
p3536
I11812
sS'TCAAAC'
p3537
I17575
sS'CGGCGG'
p3538
I28389
sS'TTGATG'
p3539
I14026
sS'CTCATT'
p3540
I24213
sS'CGGCGC'
p3541
I20898
sS'TTGATC'
p3542
I10955
sS'CGGCGA'
p3543
I7375
sS'TTGATA'
p3544
I9692
sS'CTATCT'
p3545
I11865
sS'ACCGTA'
p3546
I2517
sS'TTGATT'
p3547
I16615
sS'CGAGTG'
p3548
I6878
sS'GTACGC'
p3549
I2058
sS'ATCGAC'
p3550
I1881
sS'CTACGC'
p3551
I3371
sS'CCATTA'
p3552
I11329
sS'ATCCCC'
p3553
I18530
sS'CGGTTA'
p3554
I2651
sS'GGTTTA'
p3555
I12061
sS'CGGTTC'
p3556
I6118
sS'GCTGTT'
p3557
I23834
sS'TTTACA'
p3558
I24462
sS'CGGTTG'
p3559
I4648
sS'GGTTTG'
p3560
I19216
sS'CCATTG'
p3561
I15764
sS'CGTACG'
p3562
I1102
sS'GCTGTG'
p3563
I39075
sS'GGTTTT'
p3564
I23326
sS'CGGTTT'
p3565
I5954
sS'GCTGTA'
p3566
I14232
sS'AGGGGC'
p3567
I40289
sS'TCTCAA'
p3568
I24137
sS'AGGTTG'
p3569
I18949
sS'AGGTTC'
p3570
I16251
sS'AGGTTA'
p3571
I13224
sS'CNNNNN'
p3572
I2
sS'GAGGGA'
p3573
I42807
sS'TTTTTC'
p3574
I41750
sS'GAGGGC'
p3575
I37377
sS'TTTTTA'
p3576
I40632
sS'TTTTTG'
p3577
I37097
sS'GAGGGG'
p3578
I50028
sS'TTAAAT'
p3579
I24515
sS'AGGTTT'
p3580
I21600
sS'TAAGCG'
p3581
I3245
sS'TATGCC'
p3582
I8697
sS'TTAAAC'
p3583
I16420
sS'ATACGT'
p3584
I2725
sS'TTAAAA'
p3585
I42289
sS'ACTCCG'
p3586
I8420
sS'TTAAAG'
p3587
I21359
sS'GAGGGT'
p3588
I24134
sS'TTTTTT'
p3589
I128202
sS'ACTCCC'
p3590
I23718
sS'CTGTAA'
p3591
I24634
sS'GTCACG'
p3592
I6767
sS'CTGTAC'
p3593
I12919
sS'GCAACT'
p3594
I13516
sS'GTCACC'
p3595
I21452
sS'CTGTAG'
p3596
I18114
sS'GTCACA'
p3597
I21500
sS'ACTTAT'
p3598
I9956
sS'GCAACG'
p3599
I5036
sS'GTCACT'
p3600
I21130
sS'TAGGCG'
p3601
I4573
sS'ACGAAA'
p3602
I4711
sS'CTGTAT'
p3603
I14623
sS'GCAACA'
p3604
I18795
sS'TAGGCC'
p3605
I11862
sS'ATTCAT'
p3606
I19905
sS'TCCCAC'
p3607
I32040
sS'GCGATT'
p3608
I4023
sS'TCGTGT'
p3609
I4606
sS'TTCACT'
p3610
I23644
sS'GTCTCT'
p3611
I27460
sS'AACATT'
p3612
I23153
sS'ATTCAG'
p3613
I21148
sS'ATTCAA'
p3614
I17486
sS'ATTCAC'
p3615
I15233
sS'GTCTCC'
p3616
I26922
sS'TCGTGG'
p3617
I6967
sS'GCGATG'
p3618
I5414
sS'TTCACC'
p3619
I19700
sS'GCGATA'
p3620
I1847
sS'TCGTGC'
p3621
I4965
sS'GCGATC'
p3622
I4672
sS'CGATTG'
p3623
I2880
sS'GAAGGA'
p3624
I34034
sS'GAAGGG'
p3625
I36666
sS'CGATTA'
p3626
I2009
sS'CAATCT'
p3627
I13454
sS'GGAACA'
p3628
I21826
sS'GGAACG'
p3629
I7167
sS'TACTGC'
p3630
I12500
sS'CGATTT'
p3631
I4146
sS'AAAACA'
p3632
I45143
sS'GAAGGT'
p3633
I19661
sS'CTCGCT'
p3634
I11985
sS'CAATCG'
p3635
I3009
sS'ATAGTC'
p3636
I7402
sS'GGAACT'
p3637
I19705
sS'TCCTGA'
p3638
I32387
sS'AGTCCA'
p3639
I22307
sS'TCCTGC'
p3640
I41175
sS'AGTCCC'
p3641
I24984
sS'ACTAAA'
p3642
I16443
sS'TCCTGG'
p3643
I50972
sS'AGTCCG'
p3644
I6290
sS'TAACGC'
p3645
I2677
sS'CAGCTG'
p3646
I49734
sS'CAGCTA'
p3647
I19354
sS'CAGCTC'
p3648
I41516
sS'ACTAAT'
p3649
I9607
sS'TCATTG'
p3650
I17038
sS'TCCTGT'
p3651
I30923
sS'CAGCTT'
p3652
I29953
sS'TAACGT'
p3653
I3110
sS'AGCCAG'
p3654
I44876
sS'GTACTT'
p3655
I10961
sS'CGACAT'
p3656
I2931
sS'TTGTTC'
p3657
I20238
sS'TTGTTA'
p3658
I16007
sS'TTGTTG'
p3659
I19924
sS'CAGGCC'
p3660
I47290
sS'CCGAGC'
p3661
I14790
sS'CCGCGT'
p3662
I7152
sS'CGACAC'
p3663
I4534
sS'CGACAA'
p3664
I3168
sS'CGACAG'
p3665
I7248
sS'GTACTA'
p3666
I5515
sS'CCGCGC'
p3667
I25428
sS'ACGGAG'
p3668
I9915
sS'CCGCGA'
p3669
I7360
sS'ATACCC'
p3670
I7834
sS'CCGCGG'
p3671
I23847
sS'TTGTTT'
p3672
I43594
sS'TCCGTT'
p3673
I5177
sS'AGCCAA'
p3674
I24817
sS'AATAAC'
p3675
I13749
sS'AATAAA'
p3676
I39175
sS'AATAAG'
p3677
I16167
sS'CATTCC'
p3678
I25616
sS'GGATTG'
p3679
I12827
sS'TACTAA'
p3680
I10665
sS'AATAAT'
p3681
I21579
sS'ACGGTG'
p3682
I7845
sS'CCAACC'
p3683
I19917
sS'CCAACA'
p3684
I21215
sS'CCAACG'
p3685
I5476
sS'GGGATT'
p3686
I21748
sS'CGCCGC'
p3687
I32211
sS'GTGTAT'
p3688
I11544
sS'CGCCGA'
p3689
I7001
sS'GAGTAG'
p3690
I13569
sS'CGCCGG'
p3691
I18272
sS'GAGTAA'
p3692
I13073
sS'GAGTAC'
p3693
I7448
sS'CTCAGG'
p3694
I41916
sS'CTAAAA'
p3695
I21981
sS'CTCAGC'
p3696
I42814
sS'CTCAGA'
p3697
I33603
sS'GAGTAT'
p3698
I7975
sS'TCGAGA'
p3699
I5205
sS'GTGTAG'
p3700
I10387
sS'TCGAGC'
p3701
I4378
sS'GTGTAA'
p3702
I12362
sS'GTGTAC'
p3703
I8781
sS'CGCCGT'
p3704
I6135
sS'GTGGCA'
p3705
I25414
sS'GTGGCC'
p3706
I30875
sS'CTCGGA'
p3707
I9417
sS'GTGGCG'
p3708
I14211
sS'GCCGCC'
p3709
I38708
sS'GCCGCA'
p3710
I13060
sS'GCCGCG'
p3711
I23200
sS'ACACTT'
p3712
I18226
sS'CTCGGT'
p3713
I7990
sS'CATATC'
p3714
I8224
sS'CATATA'
p3715
I9964
sS'CAGTCG'
p3716
I5759
sS'TGCTTA'
p3717
I15763
sS'ACACTC'
p3718
I17412
sS'ACACTA'
p3719
I10315
sS'ACACTG'
p3720
I26356
sS'GCCGCT'
p3721
I16620
sS'ACCGGA'
p3722
I5682
sS'AAATAA'
p3723
I40912
sS'ACCGGC'
p3724
I8379
sS'CTTTAG'
p3725
I15535
sS'CTTTAA'
p3726
I21368
sS'ACCGGG'
p3727
I9773
sS'AAATAG'
p3728
I20438
sS'AACTTA'
p3729
I12001
sS'CAGGTA'
p3730
I15982
sS'AACTTC'
p3731
I18522
sS'CAGGTC'
p3732
I23701
sS'CACGAC'
p3733
I4526
sS'CACGAA'
p3734
I5118
sS'CAGGTG'
p3735
I37988
sS'CTTTAT'
p3736
I19301
sS'AATCCC'
p3737
I21443
sS'AATCCA'
p3738
I18236
sS'AAATAT'
p3739
I30510
sS'AATCCG'
p3740
I4077
sS'GATACA'
p3741
I10057
sS'CACGAT'
p3742
I4036
sS'CAGGTT'
p3743
I21910
sS'AACTTT'
p3744
I23838
sS'CCCGCA'
p3745
I15434
sS'GGGATA'
p3746
I10199
sS'GGGATC'
p3747
I15058
sS'GGGTGT'
p3748
I21274
sS'GGAGAT'
p3749
I20152
sS'GATGCT'
p3750
I15634
sS'CGCAGT'
p3751
I8245
sS'GAGCCT'
p3752
I29275
sS'GGAGAC'
p3753
I26635
sS'GGGTGA'
p3754
I25469
sS'GGAGAA'
p3755
I37361
sS'GGGTGC'
p3756
I22906
sS'GGAGAG'
p3757
I46691
sS'GGGTGG'
p3758
I46354
sS'GAGCCA'
p3759
I34877
sS'CGCAGG'
p3760
I18175
sS'GATGCG'
p3761
I4731
sS'CGCAGA'
p3762
I10420
sS'GATGCA'
p3763
I13956
sS'CGCAGC'
p3764
I19911
sS'GATGCC'
p3765
I15078
sS'CGGATT'
p3766
I4048
sS'GGTAGT'
p3767
I7948
sS'ACCCCT'
p3768
I23566
sS'GCCAAT'
p3769
I12619
sS'AACCGC'
p3770
I5699
sS'AGAAGT'
p3771
I22709
sS'ACCCCA'
p3772
I30055
sS'GGTAGA'
p3773
I12553
sS'GCCAAA'
p3774
I20039
sS'CGGATG'
p3775
I5728
sS'GCCAAG'
p3776
I27993
sS'CGGATA'
p3777
I2198
sS'ACCCCG'
p3778
I14802
sS'CGGATC'
p3779
I5509
sS'AGAAGA'
p3780
I31835
sS'AGAAGC'
p3781
I28543
sS'GCAAGA'
p3782
I20224
sS'AGAAGG'
p3783
I35488
sS'CACTCC'
p3784
I29136
sS'CACTCA'
p3785
I24308
sS'CACTCG'
p3786
I7088
sS'TGCGTT'
p3787
I5250
sS'GCAAGG'
p3788
I23218
sS'AGCTTT'
p3789
I25060
sS'CCCCGG'
p3790
I30230
sS'TGCGTA'
p3791
I2836
sS'TGCGTG'
p3792
I9562
sS'CACTCT'
p3793
I24838
sS'AGCTTC'
p3794
I24606
sS'AGCTTA'
p3795
I12002
sS'AGCTTG'
p3796
I20000
sS'AGACCA'
p3797
I22828
sS'CCACTT'
p3798
I23034
sS'CAAGAG'
p3799
I25396
sS'AGAGTA'
p3800
I13334
sS'TTAGCT'
p3801
I14635
sS'GTATAA'
p3802
I7737
sS'TTAGCC'
p3803
I12808
sS'TTAGCA'
p3804
I14647
sS'CTAGCA'
p3805
I12549
sS'TTAGCG'
p3806
I3043
sS'TACCGG'
p3807
I3412
sS'TCATAT'
p3808
I11302
sS'AAGGGG'
p3809
I30381
sS'ATAAGG'
p3810
I12113
sS'TGTGCT'
p3811
I26897
sS'AAGGGC'
p3812
I26184
sS'ATAAGC'
p3813
I10328
sS'AAGGGA'
p3814
I32662
sS'ATAAGA'
p3815
I13464
sS'CCAGAC'
p3816
I25578
sS'CCAGAA'
p3817
I33005
sS'CCAGAG'
p3818
I45957
sS'TGTGCG'
p3819
I8621
sS'ATAAGT'
p3820
I10072
sS'AAGGGT'
p3821
I17559
sS'TGTGCC'
p3822
I25243
sS'ATAGGA'
p3823
I12315
sS'TGTGCA'
p3824
I25811
sS'ATAGGC'
p3825
I8896
sS'GCTCGC'
p3826
I11246
sS'ATACGC'
p3827
I1913
sS'AGACCG'
p3828
I6286
sS'CCAGAT'
p3829
I20981
sS'AGACAA'
p3830
I22691
sS'AACAAG'
p3831
I22175
sS'AGACAC'
p3832
I21927
sS'TCCATT'
p3833
I21482
sS'AGACAG'
p3834
I35339
sS'GCTTTT'
p3835
I27070
sS'TTTTCT'
p3836
I52329
sS'CGCTGT'
p3837
I10078
sS'GACGCC'
p3838
I10214
sS'CGTGGG'
p3839
I14922
sS'CGTGGC'
p3840
I13113
sS'CGTGGA'
p3841
I9335
sS'TTTTCG'
p3842
I4755
sS'CGCTGA'
p3843
I9204
sS'TATCAT'
p3844
I10030
sS'TTTTCC'
p3845
I39619
sS'TTTTCA'
p3846
I34148
sS'CGCTGG'
p3847
I17833
sS'TATGGA'
p3848
I10894
sS'TATGGC'
p3849
I8724
sS'CGTAGG'
p3850
I3945
sS'ATCGTC'
p3851
I2729
sS'CGTAGA'
p3852
I2988
sS'TATGGG'
p3853
I10321
sS'CGTAGC'
p3854
I3614
sS'TACCGT'
p3855
I2626
sS'TGGACT'
p3856
I21990
sS'CGTAGT'
p3857
I2798
sS'TATGGT'
p3858
I8714
sS'TGGACA'
p3859
I22756
sS'TGGACC'
p3860
I16028
sS'TGGACG'
p3861
I6968
sS'CCGGTT'
p3862
I5628
sS'CTAGCT'
p3863
I13343
sS'GCTTGA'
p3864
I16088
sS'TGAGAC'
p3865
I22987
sS'GCTTGC'
p3866
I16312
sS'TGAGAA'
p3867
I30929
sS'GCCAAC'
p3868
I14689
sS'TGAGAG'
p3869
I28078
sS'GCTTGG'
p3870
I23912
sS'CCTGTT'
p3871
I25198
sS'CCGGTG'
p3872
I10285
sS'CCTTGC'
p3873
I23181
sS'CCGGTA'
p3874
I3317
sS'CCTGTC'
p3875
I30347
sS'CCTGTA'
p3876
I20832
sS'CCTGTG'
p3877
I38744
sS'GCTTGT'
p3878
I16360
sS'TGAGAT'
p3879
I20899
sS'ATCGTA'
p3880
I1827
sS'GGTTGT'
p3881
I12894
sS'TCCTCA'
p3882
I31137
sS'TATCAG'
p3883
I11826
sS'AATTCN'
p3884
I1
sS'TAGCGT'
p3885
I2670
sS'GGTTGG'
p3886
I19427
sS'CTGAAT'
p3887
I21602
sS'GGTTGA'
p3888
I12006
sS'GGTTGC'
p3889
I14388
sS'GAAAGT'
p3890
I21680
sS'TCCCGC'
p3891
I20150
sS'TCCCGA'
p3892
I9234
sS'TCCCGG'
p3893
I22442
sS'GTAACC'
p3894
I8609
sS'CGTTTT'
p3895
I7881
sS'ATTCTC'
p3896
I20943
sS'CTATAC'
p3897
I5408
sS'ATTCTA'
p3898
I14390
sS'ATTCTG'
p3899
I23650
sS'TCATTT'
p3900
I31987
sS'CAGCGA'
p3901
I9755
sS'TGCTAA'
p3902
I14730
sS'TATACT'
p3903
I8284
sS'TGCTAG'
p3904
I12704
sS'CAGCGG'
p3905
I18583
sS'AGGATC'
p3906
I15526
sS'TCATTC'
p3907
I23122
sS'CGTTTG'
p3908
I6119
sS'CGTTTA'
p3909
I4086
sS'ATTCTT'
p3910
I23211
sS'CGTTTC'
p3911
I7708
sS'TGGCAA'
p3912
I20870
sS'TGGCAC'
p3913
I21096
sS'TGGCAG'
p3914
I37186
sS'GCTGAG'
p3915
I43288
sS'GCTGAA'
p3916
I24442
sS'GCTGAC'
p3917
I20087
sS'TGGCAT'
p3918
I19079
sS'GGCCGG'
p3919
I31960
sS'CCGATG'
p3920
I4118
sS'GGCCGC'
p3921
I29142
sS'GAACTT'
p3922
I18070
sS'GGCCGA'
p3923
I13446
sS'GGCAAT'
p3924
I12049
sS'GACCTA'
p3925
I8895
sS'ATCNNN'
p3926
I1
sS'CTGATT'
p3927
I19682
sS'CCATCG'
p3928
I5212
sS'CTAAAT'
p3929
I15044
sS'CCATCC'
p3930
I24455
sS'CCATCA'
p3931
I18293
sS'GGCAAG'
p3932
I23152
sS'CTGATA'
p3933
I11890
sS'GTACCA'
p3934
I7969
sS'GGCAAC'
p3935
I15906
sS'GGCAAA'
p3936
I23665
sS'CTAAAG'
p3937
I15567
sS'CCATCT'
p3938
I26531
sS'CTAAAC'
p3939
I11616
sS'ACGAAT'
p3940
I3101
sS'GACACC'
p3941
I17019
sS'GACACA'
p3942
I24138
sS'GACACG'
p3943
I6964
sS'CCAAGA'
p3944
I24267
sS'AGGCAT'
p3945
I21507
sS'TAGCGA'
p3946
I2743
sS'TACGAG'
p3947
I2511
sS'TACGAC'
p3948
I1681
sS'GGAAAG'
p3949
I38582
sS'TACGAA'
p3950
I2610
sS'CGTGAG'
p3951
I10081
sS'TGTTAC'
p3952
I11823
sS'CTATTG'
p3953
I10151
sS'GCATAA'
p3954
I9371
sS'CTATTC'
p3955
I10751
sS'TCGATG'
p3956
I3039
sS'TCGATA'
p3957
I1455
sS'TCGATC'
p3958
I2423
sS'CTATTT'
p3959
I20342
sS'CGCGAA'
p3960
I3247
sS'GCATTG'
p3961
I12845
sS'CAGCCT'
p3962
I58698
sS'TCGATT'
p3963
I2682
sS'TCGGCA'
p3964
I5656
sS'TGGTTT'
p3965
I25930
sS'AACCAA'
p3966
I18882
sS'TGCCGG'
p3967
I12241
sS'AACCAC'
p3968
I18513
sS'TGCCGC'
p3969
I12534
sS'AACCAG'
p3970
I22617
sS'TGCCGA'
p3971
I5484
sS'TTGGAC'
p3972
I13729
sS'TCGGGC'
p3973
I10579
sS'CGCGAG'
p3974
I8696
sS'ATGATC'
p3975
I10670
sS'AGGCAG'
p3976
I54063
sS'TGCCGT'
p3977
I6114
sS'AACCAT'
p3978
I13205
sS'AACAGA'
p3979
I29778
sS'GGGAGT'
p3980
I23808
sS'AACAGC'
p3981
I23595
sS'CTACCC'
p3982
I13713
sS'AACAGG'
p3983
I25500
sS'ACGTCA'
p3984
I5668
sS'CCCAAG'
p3985
I31017
sS'TTGGAG'
p3986
I25319
sS'GACGAA'
p3987
I3748
sS'CCCAAC'
p3988
I21331
sS'CCCAAA'
p3989
I31199
sS'ACGTCT'
p3990
I5280
sS'GGGAGA'
p3991
I42776
sS'AACAGT'
p3992
I19456
sS'GGGAGC'
p3993
I39661
sS'CCCAAT'
p3994
I11979
sS'GACGAT'
p3995
I2519
sS'GGGCGC'
p3996
I28720
sS'GGGCGA'
p3997
I12499
sS'GCATCA'
p3998
I13183
sS'GGGCGG'
p3999
I46506
sS'TCTCTT'
p4000
I33393
sS'TGGGGG'
p4001
I44398
sS'GTACAG'
p4002
I12856
sS'TCATAC'
p4003
I8490
sS'CAGAAT'
p4004
I23896
sS'GCATCG'
p4005
I4123
sS'TCTCTC'
p4006
I41682
sS'TCTCTA'
p4007
I20579
sS'TCTCTG'
p4008
I44559
sS'GGGCGT'
p4009
I11810
sS'CAGAAA'
p4010
I41922
sS'CAGAAC'
p4011
I23372
sS'ACGACG'
p4012
I2243
sS'CAGAAG'
p4013
I36415
sS'CCTTCA'
p4014
I25790
sS'CACTTT'
p4015
I28534
sS'CATATT'
p4016
I14271
sS'CCTAAT'
p4017
I10759
sS'GTCATT'
p4018
I17244
sS'CGCTAG'
p4019
I4243
sS'CACTTG'
p4020
I21184
sS'CCTAAC'
p4021
I11177
sS'CCTAAA'
p4022
I16073
sS'CACTTC'
p4023
I24071
sS'CCTAAG'
p4024
I14316
sS'CACTTA'
p4025
I14473
sS'GTCCCA'
p4026
I24192
sS'ACAGGA'
p4027
I31221
sS'AATCCT'
p4028
I19633
sS'CTGCGG'
p4029
I20731
sS'AAGATT'
p4030
I16214
sS'CTCATG'
p4031
I20278
sS'GACTCG'
p4032
I6557
sS'CTCATC'
p4033
I20395
sS'GACTCC'
p4034
I21179
sS'CTCATA'
p4035
I11343
sS'GACTCA'
p4036
I23217
sS'AAGATA'
p4037
I14949
sS'CTCCAA'
p4038
I25500
sS'AAGATG'
p4039
I20564
sS'GACTCT'
p4040
I19874
sS'GTCCCG'
p4041
I13326
sS'ATCGAA'
p4042
I2410
sS'AGTCGA'
p4043
I2891
sS'CCTAGC'
p4044
I14361
sS'ATATTT'
p4045
I30681
sS'ACGGTA'
p4046
I2644
sS'AACTAA'
p4047
I13196
sS'ATAGTT'
p4048
I10765
sS'TACTGT'
p4049
I14804
sS'ATATTC'
p4050
I12073
sS'ATATTA'
p4051
I12739
sS'ATATTG'
p4052
I11514
sS'ATAGTA'
p4053
I8449
sS'TACTGA'
p4054
I14378
sS'TACTGG'
p4055
I13240
sS'ATAGTG'
p4056
I10040
sS'CTATGG'
p4057
I10733
sS'CAGGCA'
p4058
I45253
sS'AGGAAG'
p4059
I51186
sS'CATCCG'
p4060
I5696
sS'AGGAAA'
p4061
I48482
sS'CATCCA'
p4062
I19889
sS'CAGGCG'
p4063
I21377
sS'CATCCC'
p4064
I24052
sS'TTATGA'
p4065
I12952
sS'TTATGC'
p4066
I9345
sS'CGGAGT'
p4067
I8250
sS'TTATGG'
p4068
I10725
sS'CATCCT'
p4069
I24460
sS'AGGAAT'
p4070
I25553
sS'CAGGCT'
p4071
I47749
sS'ACGGAT'
p4072
I3390
sS'CGGAGA'
p4073
I11717
sS'CGGAGC'
p4074
I18653
sS'TTATGT'
p4075
I15082
sS'CGGAGG'
p4076
I20932
sS'ATGGAA'
p4077
I23030
sS'ATGGAC'
p4078
I12199
sS'ATGGAG'
p4079
I24193
sS'CGCTTG'
p4080
I7566
sS'CGCTTA'
p4081
I3328
sS'CGCTTC'
p4082
I10235
sS'ATGGAT'
p4083
I12725
sS'TTTGCA'
p4084
I28680
sS'CGCTTT'
p4085
I7595
sS'GCCGTG'
p4086
I11569
sS'CAAGCC'
p4087
I22923
sS'TTTGCC'
p4088
I23308
sS'GAAAAG'
p4089
I34087
sS'GAAAAC'
p4090
I26302
sS'ATAGAT'
p4091
I10048
sS'GAAAAA'
p4092
I42477
sS'TAGGGC'
p4093
I12507
sS'AGACCT'
p4094
I20374
sS'CAAGCG'
p4095
I7691
sS'GAAAAT'
p4096
I28515
sS'CACGCA'
p4097
I9762
sS'ACAAGG'
p4098
I22042
sS'ACAAGA'
p4099
I19525
sS'ACAAGC'
p4100
I16434
sS'ACACGT'
p4101
I6757
sS'CTGCGT'
p4102
I9650
sS'GCGGAG'
p4103
I22175
sS'CATAAG'
p4104
I9950
sS'GCGGAA'
p4105
I8619
sS'CATAAA'
p4106
I17929
sS'GCGGAC'
p4107
I8460
sS'CATAAC'
p4108
I8818
sS'ACACGC'
p4109
I8493
sS'ACAAGT'
p4110
I15244
sS'ACACGA'
p4111
I4668
sS'ACACGG'
p4112
I8359
sS'CATAAT'
p4113
I11454
sS'GCGGAT'
p4114
I5517
sS'GCACAT'
p4115
I16166
sS'GTCCCC'
p4116
I28939
sS'ATCCCA'
p4117
I25411
sS'CTGCGA'
p4118
I8260
sS'CTGCGC'
p4119
I18223
sS'CGGCAA'
p4120
I5669
sS'CGGCAC'
p4121
I8596
sS'CGGCAG'
p4122
I17603
sS'GACGCG'
p4123
I7177
sS'CCTCCT'
p4124
I58573
sS'ATCAAA'
p4125
I18347
sS'AGCGCT'
p4126
I10274
sS'CGGCAT'
p4127
I4739
sS'CCTCCC'
p4128
I81458
sS'CCTCCA'
p4129
I41916
sS'CCTCCG'
p4130
I20940
sS'AGTCCT'
p4131
I22626
s.