(dp0
S'GGGCTT'
p1
I2281
sS'GAACGT'
p2
I423
sS'CTTCTT'
p3
I2524
sS'CACCCT'
p4
I7687
sS'GAACGG'
p5
I1094
sS'GAACGC'
p6
I1084
sS'GAACGA'
p7
I622
sS'CAACAT'
p8
I651
sS'CACCCA'
p9
I11641
sS'CTTCTA'
p10
I5660
sS'CACCCC'
p11
I13559
sS'CTTCTC'
p12
I9557
sS'CACCCG'
p13
I4376
sS'CTTCTG'
p14
I12777
sS'CGTGTG'
p15
I3731
sS'TAAGGT'
p16
I777
sS'CGTGTC'
p17
I1655
sS'CGTGTA'
p18
I1358
sS'AGGCAA'
p19
I3897
sS'GGAAAT'
p20
I1069
sS'TAAGGG'
p21
I2307
sS'CGTGTT'
p22
I519
sS'TAAGGC'
p23
I1614
sS'TAAGGA'
p24
I1766
sS'GTCAAA'
p25
I5709
sS'CCCGCT'
p26
I3493
sS'GTCAAG'
p27
I6146
sS'CTGTCC'
p28
I15293
sS'TCAGAG'
p29
I1757
sS'CTGTCA'
p30
I10888
sS'CTGTCG'
p31
I2307
sS'GTATCT'
p32
I2376
sS'TCAGAA'
p33
I1051
sS'TCATAA'
p34
I876
sS'GTCAAT'
p35
I2548
sS'GTATCA'
p36
I2416
sS'GTATCC'
p37
I2423
sS'GTATCG'
p38
I433
sS'CTGTCT'
p39
I10599
sS'GGTGTC'
p40
I3187
sS'GGTGTA'
p41
I2592
sS'GGTGTG'
p42
I7086
sS'TATCCT'
p43
I3340
sS'CCGGGG'
p44
I3197
sS'TTCTGT'
p45
I10794
sS'ATTCCT'
p46
I2634
sS'CCGGGC'
p47
I2522
sS'CCGGGA'
p48
I1770
sS'TATCCA'
p49
I4331
sS'TATCCC'
p50
I4047
sS'AGAGGT'
p51
I1146
sS'TATCCG'
p52
I912
sS'GGTGTT'
p53
I970
sS'ATTCCG'
p54
I762
sS'TTCTGG'
p55
I14257
sS'CCGGGT'
p56
I683
sS'ATTCCC'
p57
I3598
sS'TTCTGC'
p58
I12898
sS'ATTCCA'
p59
I4324
sS'TTCTGA'
p60
I11455
sS'CTTGGA'
p61
I3267
sS'CGTCAT'
p62
I545
sS'TGAACT'
p63
I3244
sS'CGCGGT'
p64
I1258
sS'CCCGCG'
p65
I5272
sS'CGCGGG'
p66
I7019
sS'CGCGGC'
p67
I6362
sS'CGCGGA'
p68
I2455
sS'ACAGGT'
p69
I630
sS'ACCTGT'
p70
I3516
sS'TCATGT'
p71
I1654
sS'CTCCGA'
p72
I2904
sS'TTACAG'
p73
I1938
sS'CTCCGC'
p74
I8964
sS'TTACAA'
p75
I1369
sS'TTACAC'
p76
I940
sS'CTCCGG'
p77
I7396
sS'TCATGC'
p78
I1439
sS'ACCTGG'
p79
I9084
sS'TCATGA'
p80
I1369
sS'GTAAGC'
p81
I1566
sS'TCATGG'
p82
I2033
sS'ACCTGC'
p83
I7564
sS'ACCTGA'
p84
I5231
sS'TCACTC'
p85
I1867
sS'TTACAT'
p86
I750
sS'CTCGAT'
p87
I402
sS'CTCCGT'
p88
I2065
sS'GAATTT'
p89
I960
sS'GCCTGA'
p90
I9217
sS'GCCTGC'
p91
I14539
sS'GCCTGG'
p92
I22241
sS'TAAAGG'
p93
I4850
sS'GCATTT'
p94
I1000
sS'TAAAGA'
p95
I4086
sS'TAAAGC'
p96
I3024
sS'GCCTGT'
p97
I7412
sS'TCCCCG'
p98
I5505
sS'TAAAGT'
p99
I2248
sS'CAAATA'
p100
I6007
sS'CAAATC'
p101
I1940
sS'CAAATG'
p102
I4991
sS'AATACT'
p103
I4666
sS'CGTCAC'
p104
I1927
sS'GGCATG'
p105
I8360
sS'GGCATA'
p106
I3361
sS'GGCATC'
p107
I4181
sS'AATACG'
p108
I1193
sS'AATACA'
p109
I7834
sS'AATACC'
p110
I4890
sS'GGCATT'
p111
I2078
sS'CGTCAG'
p112
I2106
sS'CTTGGT'
p113
I1542
sS'GAGCAC'
p114
I5722
sS'GAGCAA'
p115
I6582
sS'CATATC'
p116
I2617
sS'GAGCAG'
p117
I12428
sS'AGTAGT'
p118
I2061
sS'TCTCGC'
p119
I1796
sS'TCTCGA'
p120
I793
sS'TCTCGG'
p121
I2152
sS'AGTAGC'
p122
I3255
sS'AGTAGA'
p123
I3696
sS'AGTAGG'
p124
I4459
sS'GAGCAT'
p125
I2254
sS'AAGGTT'
p126
I1678
sS'TCTCGT'
p127
I488
sS'GTGTCG'
p128
I1916
sS'TCGAAC'
p129
I320
sS'TCGAAA'
p130
I311
sS'GTGTCC'
p131
I11002
sS'TCGAAG'
p132
I539
sS'GTGTCA'
p133
I8450
sS'CTTGCT'
p134
I3985
sS'AGACAC'
p135
I1213
sS'TCGGTC'
p136
I662
sS'GTGTCT'
p137
I7935
sS'TTGAAG'
p138
I4296
sS'TCGAAT'
p139
I171
sS'CTTGCG'
p140
I1581
sS'CTTGCA'
p141
I5032
sS'CTTGCC'
p142
I5903
sS'CGAAAG'
p143
I729
sS'CGAAAA'
p144
I310
sS'CGAAAC'
p145
I446
sS'AATCAT'
p146
I2697
sS'AAATGC'
p147
I2578
sS'CACGGC'
p148
I3170
sS'AAATGA'
p149
I3341
sS'ACAGTC'
p150
I1506
sS'CACGGG'
p151
I3636
sS'ACAGTA'
p152
I2183
sS'CGAAAT'
p153
I165
sS'ACAGTT'
p154
I642
sS'AATCAG'
p155
I6591
sS'AATCAA'
p156
I5135
sS'AAATGT'
p157
I2337
sS'AATCAC'
p158
I4781
sS'TTTGTA'
p159
I7445
sS'TCTAGT'
p160
I1504
sS'TTGCCG'
p161
I2039
sS'TTGCCA'
p162
I7738
sS'TTGCCC'
p163
I9368
sS'TTGCCT'
p164
I7493
sS'TCTAGG'
p165
I3669
sS'GGGTAA'
p166
I1673
sS'TCTAGA'
p167
I2411
sS'GGGTAG'
p168
I2239
sS'TCTAGC'
p169
I2185
sS'ATACGG'
p170
I256
sS'TGACTA'
p171
I1628
sS'AATTGG'
p172
I3717
sS'AGATGT'
p173
I1295
sS'TCGCCC'
p174
I2049
sS'TCGCCA'
p175
I962
sS'ATAGTC'
p176
I926
sS'TCGCCG'
p177
I844
sS'GGTAAT'
p178
I1223
sS'ACCCAT'
p179
I1203
sS'GTCAAC'
p180
I4514
sS'GTGTAT'
p181
I2079
sS'ACCCAC'
p182
I3840
sS'GGTAAC'
p183
I2248
sS'ACCCAA'
p184
I3034
sS'AGATGG'
p185
I2502
sS'ACCCAG'
p186
I6473
sS'GGTAAG'
p187
I3306
sS'TCGCCT'
p188
I995
sS'AGATGC'
p189
I1440
sS'TTTGAG'
p190
I5151
sS'CCCCAT'
p191
I2038
sS'TTGGGT'
p192
I1387
sS'CACTAG'
p193
I5984
sS'CACTAA'
p194
I5711
sS'CACTAC'
p195
I4570
sS'CCCCAA'
p196
I4195
sS'CCCCAC'
p197
I7077
sS'ATAAAG'
p198
I2635
sS'CCCCAG'
p199
I9335
sS'CACTAT'
p200
I2805
sS'CTATCG'
p201
I493
sS'CGCTAG'
p202
I2085
sS'TTGGGA'
p203
I3086
sS'TTGGGC'
p204
I2645
sS'ATAAAA'
p205
I2345
sS'TGCCTG'
p206
I19794
sS'TGCAGA'
p207
I10136
sS'TTTCTG'
p208
I12721
sS'TGCAGC'
p209
I12003
sS'TGCCTC'
p210
I13145
sS'TTTCTC'
p211
I9506
sS'TGCAGG'
p212
I15209
sS'ACGCCT'
p213
I866
sS'TCAGAC'
p214
I865
sS'TTTCTT'
p215
I3628
sS'TGCCTT'
p216
I4832
sS'TGCAGT'
p217
I8008
sS'ACAATT'
p218
I530
sS'TTGGGG'
p219
I4433
sS'AAGGAA'
p220
I6793
sS'AAGGAC'
p221
I4730
sS'AAGGAG'
p222
I7613
sS'ATATGC'
p223
I1266
sS'GTTCCA'
p224
I3950
sS'ATATGA'
p225
I1433
sS'TACGAA'
p226
I820
sS'ATATGG'
p227
I1457
sS'AAGGAT'
p228
I1580
sS'CTATCA'
p229
I2956
sS'TGGTTT'
p230
I2375
sS'ATATGT'
p231
I1394
sS'GGTCCC'
p232
I5640
sS'GCCCAG'
p233
I13231
sS'GGTCCA'
p234
I3403
sS'GCCCAA'
p235
I4200
sS'GGTCCG'
p236
I1780
sS'AGGTCT'
p237
I4974
sS'ATGGCG'
p238
I1532
sS'AGACCC'
p239
I1857
sS'ATTGTT'
p240
I1165
sS'TCTTGT'
p241
I2914
sS'CTTCGC'
p242
I1940
sS'CTTAGT'
p243
I1826
sS'TCCGGG'
p244
I5396
sS'AGGTCA'
p245
I9645
sS'AAAGTT'
p246
I971
sS'AGGTCG'
p247
I1806
sS'GGTCCT'
p248
I2570
sS'TCCGGA'
p249
I2090
sS'CTTAGC'
p250
I2939
sS'TCTTGA'
p251
I3224
sS'CTTAGA'
p252
I3088
sS'CCACTC'
p253
I1634
sS'CTTAGG'
p254
I3990
sS'ATTGTC'
p255
I2178
sS'TGTGTG'
p256
I18553
sS'CGCTAC'
p257
I1661
sS'ATTTTG'
p258
I6995
sS'TCCAGG'
p259
I14744
sS'ATTTTA'
p260
I8309
sS'TCCAGA'
p261
I7843
sS'ATTTTC'
p262
I5043
sS'GAGGTC'
p263
I6471
sS'TAGCAG'
p264
I4096
sS'GATACT'
p265
I3568
sS'TAGCAC'
p266
I2493
sS'TAGCAA'
p267
I3167
sS'GAGGTT'
p268
I2102
sS'ATTTTT'
p269
I2118
sS'GCCTTG'
p270
I16121
sS'GTGGGG'
p271
I9103
sS'GCCTTA'
p272
I7053
sS'TTGACA'
p273
I4998
sS'TAAATG'
p274
I5665
sS'GATACG'
p275
I1066
sS'TAGCAT'
p276
I1393
sS'GATACC'
p277
I3691
sS'GATACA'
p278
I5266
sS'TGAGCT'
p279
I2145
sS'ACGGAC'
p280
I388
sS'GATCAT'
p281
I2224
sS'AAGACA'
p282
I8875
sS'AAGACC'
p283
I6940
sS'GATTTA'
p284
I7903
sS'AAGACG'
p285
I1952
sS'ATGCAT'
p286
I1319
sS'TGAGCG'
p287
I926
sS'TGAGCA'
p288
I3298
sS'TGAGCC'
p289
I4503
sS'AAGACT'
p290
I5118
sS'GCGGTC'
p291
I1041
sS'GCGGTA'
p292
I838
sS'GCGGTG'
p293
I3172
sS'CGGTGT'
p294
I1127
sS'TCGTTA'
p295
I752
sS'TCGTTC'
p296
I903
sS'ATGTGG'
p297
I5333
sS'TCGTTG'
p298
I1075
sS'TTGGAG'
p299
I3419
sS'GAGTTT'
p300
I2964
sS'GCGGTT'
p301
I279
sS'ACTTGC'
p302
I2950
sS'ATGTGA'
p303
I4254
sS'ACTTGA'
p304
I2907
sS'CGGTGG'
p305
I3151
sS'ACTTGG'
p306
I4062
sS'CAGTTA'
p307
I5779
sS'CGGTGC'
p308
I2173
sS'TTCCTA'
p309
I9999
sS'TAGACT'
p310
I3305
sS'TTCCTC'
p311
I16409
sS'ACCACA'
p312
I8510
sS'TTCCTG'
p313
I23818
sS'TCCTTT'
p314
I7447
sS'CAGTTG'
p315
I6537
sS'ACGCTA'
p316
I640
sS'TAGACG'
p317
I1084
sS'TTCCTT'
p318
I6785
sS'TAGACC'
p319
I3743
sS'TAGACA'
p320
I5288
sS'TCCTTG'
p321
I14979
sS'TCCTTA'
p322
I9645
sS'TCCTTC'
p323
I15604
sS'ATCTCT'
p324
I8205
sS'ACCGTT'
p325
I399
sS'TGGCGC'
p326
I2154
sS'TGGCGA'
p327
I1088
sS'TGGCGG'
p328
I3204
sS'ATCTCG'
p329
I2180
sS'ATCTCA'
p330
I9417
sS'ATCTCC'
p331
I9548
sS'GGCCAA'
p332
I6073
sS'GTAAAT'
p333
I1480
sS'GGCCAC'
p334
I7289
sS'ACCGTG'
p335
I2507
sS'ACCGTA'
p336
I890
sS'GGCCAG'
p337
I12023
sS'ACCGTC'
p338
I1299
sS'ACCGAC'
p339
I879
sS'AGAATT'
p340
I908
sS'GGCAGT'
p341
I5721
sS'CCATAA'
p342
I702
sS'CAAAGG'
p343
I7150
sS'CCATAC'
p344
I578
sS'CAAAGA'
p345
I4654
sS'AGATTC'
p346
I1615
sS'CAAAGC'
p347
I4239
sS'CCATAG'
p348
I844
sS'GGCAGA'
p349
I10292
sS'GGCAGC'
p350
I13597
sS'TAAGTT'
p351
I652
sS'GGCAGG'
p352
I20765
sS'CAACGC'
p353
I550
sS'CAAAGT'
p354
I2675
sS'CAACGA'
p355
I320
sS'CTAACC'
p356
I3061
sS'CAACGG'
p357
I565
sS'GCACTG'
p358
I3318
sS'GGGGGT'
p359
I1367
sS'TACGCT'
p360
I1037
sS'AGATTG'
p361
I2174
sS'CGATCT'
p362
I361
sS'CTCTAG'
p363
I8615
sS'CTCTAA'
p364
I7325
sS'CTCTAC'
p365
I6936
sS'GGGGGG'
p366
I2696
sS'TACGCA'
p367
I1591
sS'TACGCC'
p368
I1604
sS'GGGGGC'
p369
I3525
sS'CGATCG'
p370
I136
sS'GGGGGA'
p371
I2794
sS'TACGCG'
p372
I831
sS'CTCTAT'
p373
I3724
sS'ACCGAA'
p374
I767
sS'CAGACC'
p375
I8255
sS'CAGACA'
p376
I9251
sS'CAGACG'
p377
I2440
sS'CGCTAA'
p378
I1501
sS'TAGTTG'
p379
I4082
sS'GCTAAT'
p380
I943
sS'TAGTTC'
p381
I3767
sS'TAGTTA'
p382
I4362
sS'CAGACT'
p383
I4856
sS'GCTAAG'
p384
I3038
sS'TAGTTT'
p385
I2313
sS'GCTAAC'
p386
I1770
sS'TCAGGG'
p387
I2158
sS'GCTAAA'
p388
I2389
sS'CGAGTA'
p389
I431
sS'TCTTGG'
p390
I5142
sS'GCGAAA'
p391
I484
sS'AACCCT'
p392
I6275
sS'AACCCC'
p393
I8505
sS'AACCCA'
p394
I8886
sS'AACCCG'
p395
I3129
sS'TGCATC'
p396
I4946
sS'AGATTT'
p397
I728
sS'AGTTTG'
p398
I9265
sS'AACTGG'
p399
I9291
sS'AGTTTC'
p400
I7235
sS'AACTGC'
p401
I8589
sS'CCCAGA'
p402
I9151
sS'CCCAGC'
p403
I15692
sS'CCCAGG'
p404
I19225
sS'AACTGT'
p405
I6518
sS'AGTTTT'
p406
I2609
sS'CTACAT'
p407
I505
sS'CGAGTC'
p408
I663
sS'CCCAGT'
p409
I5196
sS'TTGACG'
p410
I918
sS'TATAAT'
p411
I2458
sS'CGCATA'
p412
I907
sS'ATACTG'
p413
I2062
sS'CGCATC'
p414
I1681
sS'ATACTA'
p415
I1339
sS'ATACTC'
p416
I910
sS'CGCATG'
p417
I2664
sS'GCGCAA'
p418
I488
sS'GCGAAT'
p419
I181
sS'ATACTT'
p420
I511
sS'CTATCT'
p421
I2806
sS'GCGCAC'
p422
I1086
sS'GCTCCG'
p423
I3248
sS'TATTGT'
p424
I4631
sS'GCTCCC'
p425
I7185
sS'GCTCCA'
p426
I5120
sS'CCTACT'
p427
I2508
sS'TGTACT'
p428
I4163
sS'TTTAGT'
p429
I2297
sS'TATTGG'
p430
I4296
sS'GCTCCT'
p431
I3517
sS'TATTGC'
p432
I4148
sS'TATTGA'
p433
I5432
sS'TTTAGG'
p434
I3992
sS'TGTACG'
p435
I990
sS'CCTACG'
p436
I938
sS'TGTACA'
p437
I6060
sS'CCTACA'
p438
I2970
sS'TGTACC'
p439
I4008
sS'CCTACC'
p440
I4250
sS'ACGAGG'
p441
I1319
sS'TTCGCG'
p442
I1191
sS'TTCGCA'
p443
I1631
sS'TTCGCC'
p444
I2847
sS'CGTACA'
p445
I909
sS'GACTAA'
p446
I6057
sS'AGTATA'
p447
I2870
sS'GACTAC'
p448
I5117
sS'AGTATG'
p449
I3586
sS'TTTGGA'
p450
I3570
sS'GACTAG'
p451
I5606
sS'TTCGCT'
p452
I1728
sS'TTTGGT'
p453
I1678
sS'GACTAT'
p454
I3218
sS'AGTATT'
p455
I1346
sS'TTACTC'
p456
I2045
sS'TTACTA'
p457
I2176
sS'TTACTG'
p458
I3522
sS'ACCTTG'
p459
I11661
sS'ACCTTC'
p460
I7894
sS'ACCTTA'
p461
I5623
sS'CTAATA'
p462
I2429
sS'GTAAAC'
p463
I2852
sS'ACCTTT'
p464
I3786
sS'ACAGGG'
p465
I2139
sS'CTGGGA'
p466
I6605
sS'CTGGGC'
p467
I6910
sS'CGTACC'
p468
I1010
sS'TTATAT'
p469
I1042
sS'CTGGGG'
p470
I8830
sS'AGGACG'
p471
I2955
sS'GCAGCT'
p472
I2290
sS'CAGGAA'
p473
I5927
sS'TTTCAT'
p474
I2629
sS'CAGGAG'
p475
I8415
sS'AGGACA'
p476
I9462
sS'GCGCAT'
p477
I376
sS'TTATAC'
p478
I951
sS'TTATAA'
p479
I1453
sS'CTGGGT'
p480
I2536
sS'TTATAG'
p481
I1254
sS'TCGCTG'
p482
I2195
sS'GCAGCG'
p483
I1629
sS'AGGACT'
p484
I5751
sS'TCGCTC'
p485
I1516
sS'GCAGCC'
p486
I5528
sS'CAGGAT'
p487
I1423
sS'CCTCAG'
p488
I6158
sS'CCTCAA'
p489
I2776
sS'CCTCAC'
p490
I3999
sS'TATGTT'
p491
I2139
sS'ATGGGC'
p492
I1785
sS'TCTTTG'
p493
I13438
sS'ATGGGA'
p494
I2477
sS'TCTTTA'
p495
I8674
sS'ATGGGG'
p496
I3378
sS'TCTTTC'
p497
I9853
sS'CCTCAT'
p498
I1449
sS'TCTTTT'
p499
I3804
sS'TATGTG'
p500
I7367
sS'TATGTA'
p501
I6166
sS'ATGGGT'
p502
I838
sS'TATGTC'
p503
I3414
sS'GAAAGA'
p504
I7156
sS'ATCAAG'
p505
I4325
sS'CATGAT'
p506
I1525
sS'ATCAAC'
p507
I3020
sS'GAAAGG'
p508
I9847
sS'ATCAAA'
p509
I5717
sS'GTCAGG'
p510
I11502
sS'CATGAG'
p511
I5684
sS'ATCAAT'
p512
I1863
sS'TCAAAC'
p513
I1548
sS'GAAAGT'
p514
I2761
sS'CATGAA'
p515
I4331
sS'GTAGCG'
p516
I673
sS'CAAGTT'
p517
I657
sS'GCTTTG'
p518
I12338
sS'GCTTTA'
p519
I6528
sS'GCTTTC'
p520
I7514
sS'GCGGCG'
p521
I3340
sS'CAAGTG'
p522
I3500
sS'GTAGCT'
p523
I1676
sS'GCGGCC'
p524
I5903
sS'CAAGTC'
p525
I2010
sS'GCGGCA'
p526
I2282
sS'CAAGTA'
p527
I2195
sS'AACGGT'
p528
I783
sS'CCCTTT'
p529
I5725
sS'TAATCG'
p530
I405
sS'CTTGTG'
p531
I7205
sS'TAATCA'
p532
I3270
sS'TAATCC'
p533
I3587
sS'TGCGAA'
p534
I996
sS'CGGCCC'
p535
I7097
sS'CGACTA'
p536
I271
sS'CGGCCA'
p537
I3419
sS'CGCTAT'
p538
I679
sS'CGGCCG'
p539
I3450
sS'TCGTGA'
p540
I522
sS'CTTGTA'
p541
I4075
sS'GGTCTG'
p542
I7877
sS'GAGTTC'
p543
I6673
sS'AGTTTA'
p544
I7327
sS'GGTCTC'
p545
I5808
sS'CTGAAT'
p546
I1692
sS'TAGGGC'
p547
I2920
sS'AAAATG'
p548
I5271
sS'AAAATC'
p549
I1923
sS'CGGCCT'
p550
I3140
sS'TTCAGC'
p551
I8964
sS'ATCCCT'
p552
I4402
sS'TTCAGG'
p553
I11442
sS'GAACAT'
p554
I686
sS'TCGTCG'
p555
I422
sS'TTTAGC'
p556
I2898
sS'TGTTTT'
p557
I5919
sS'GAACAA'
p558
I2483
sS'ATCCCG'
p559
I2106
sS'GAACAC'
p560
I1732
sS'ATCCCC'
p561
I5989
sS'GAACAG'
p562
I2983
sS'TTCAGT'
p563
I6882
sS'AGGCCG'
p564
I4340
sS'ATTGCA'
p565
I3361
sS'CACCAC'
p566
I7782
sS'NNNCTG'
p567
I1
sS'CACCAA'
p568
I5516
sS'CACCAG'
p569
I9392
sS'TCCGTG'
p570
I3270
sS'ATTGCG'
p571
I713
sS'TCCGTC'
p572
I2225
sS'TCCGTA'
p573
I1241
sS'ACCAGA'
p574
I4828
sS'CACCAT'
p575
I2877
sS'AACATG'
p576
I9641
sS'AACATA'
p577
I7268
sS'AACATC'
p578
I5867
sS'CAGTCG'
p579
I1854
sS'GCACGG'
p580
I753
sS'GTCAGA'
p581
I7268
sS'GCACGA'
p582
I319
sS'CAGTCC'
p583
I9867
sS'GCACGC'
p584
I696
sS'CAGTCA'
p585
I8690
sS'AACAAC'
p586
I6784
sS'GCAAGC'
p587
I1706
sS'GCACGT'
p588
I351
sS'CAGTCT'
p589
I6364
sS'TCAGCT'
p590
I1761
sS'GTCAGT'
p591
I4835
sS'TATCTA'
p592
I5158
sS'GTATAC'
p593
I849
sS'TTCCGT'
p594
I1481
sS'GTATAA'
p595
I1119
sS'GTATAG'
p596
I989
sS'CCGGAA'
p597
I922
sS'CCGGAC'
p598
I701
sS'CCGGAG'
p599
I1465
sS'TATCAT'
p600
I2089
sS'CTCGTA'
p601
I1201
sS'TTCCGG'
p602
I5081
sS'TTCCGA'
p603
I1757
sS'TTCCGC'
p604
I3759
sS'GTATAT'
p605
I857
sS'CGTCTC'
p606
I3277
sS'CGTCTA'
p607
I1208
sS'TATCAG'
p608
I4916
sS'CCGGAT'
p609
I226
sS'CTCTTC'
p610
I19523
sS'TGTTAT'
p611
I2683
sS'CTCTTA'
p612
I11430
sS'CTCTTG'
p613
I17481
sS'CCCGAT'
p614
I361
sS'TACGTA'
p615
I1404
sS'TACGTC'
p616
I1144
sS'TCTGGT'
p617
I1361
sS'AACAAA'
p618
I17399
sS'CGCGAT'
p619
I413
sS'TACGTG'
p620
I2399
sS'TGTTAG'
p621
I4720
sS'GCTGTT'
p622
I1441
sS'TGTTAC'
p623
I3774
sS'CTCTTT'
p624
I9793
sS'TGTTAA'
p625
I5397
sS'CGCGAA'
p626
I975
sS'CGCGAC'
p627
I1551
sS'GATATT'
p628
I1676
sS'TCTGGC'
p629
I3507
sS'TACGTT'
p630
I580
sS'CGCGAG'
p631
I3278
sS'AGTCGT'
p632
I694
sS'TTACCT'
p633
I1408
sS'CTCCAT'
p634
I3567
sS'TTACCG'
p635
I348
sS'CTCCAC'
p636
I9243
sS'AGTCGG'
p637
I2250
sS'TTACCC'
p638
I1690
sS'CTCCAG'
p639
I15466
sS'TTACCA'
p640
I1791
sS'AGTCGC'
p641
I1797
sS'AATGCC'
p642
I6713
sS'GTACCG'
p643
I339
sS'CCGACT'
p644
I817
sS'GCCTAC'
p645
I3703
sS'AATGCA'
p646
I8423
sS'GCCTAG'
p647
I5933
sS'CCGACA'
p648
I852
sS'GATATC'
p649
I2216
sS'CCGACC'
p650
I1900
sS'CCGACG'
p651
I606
sS'AACTCA'
p652
I11286
sS'GCCTAT'
p653
I1946
sS'TGACGG'
p654
I481
sS'CCCGAG'
p655
I3767
sS'CTCGTT'
p656
I764
sS'TCGCTT'
p657
I396
sS'CTAAGT'
p658
I1361
sS'GCTGTC'
p659
I4490
sS'CGCACA'
p660
I3721
sS'ATACAC'
p661
I801
sS'CGCACC'
p662
I5098
sS'GGGTCG'
p663
I1960
sS'ACTGCT'
p664
I2433
sS'GGGTCA'
p665
I5908
sS'CGCACG'
p666
I2756
sS'GGGTCC'
p667
I7300
sS'GAGCGT'
p668
I1551
sS'CTCACT'
p669
I11486
sS'GGGTCT'
p670
I4268
sS'ACTGCA'
p671
I5694
sS'TTTGTC'
p672
I5297
sS'ACTGCC'
p673
I4631
sS'CGCACT'
p674
I2561
sS'TTTGTG'
p675
I9403
sS'ACTGCG'
p676
I1655
sS'CTCACC'
p677
I15451
sS'CTCACA'
p678
I12989
sS'CTCACG'
p679
I4204
sS'GTGGGT'
p680
I1991
sS'GTGAGG'
p681
I8302
sS'GATTTT'
p682
I3113
sS'TAGTGC'
p683
I2911
sS'GTGAGC'
p684
I5564
sS'TAGTGA'
p685
I3661
sS'GTGAGA'
p686
I4639
sS'TCGACG'
p687
I261
sS'TCGACA'
p688
I463
sS'TCGACC'
p689
I779
sS'GATTTG'
p690
I9392
sS'GTGAGT'
p691
I3388
sS'TAGTGT'
p692
I2904
sS'GTGGGA'
p693
I4821
sS'GTGGGC'
p694
I4078
sS'TCGACT'
p695
I373
sS'GTGGGN'
p696
I1
sS'ACGTAA'
p697
I411
sS'CTGGTT'
p698
I1505
sS'TTGAGT'
p699
I2301
sS'TCAAAA'
p700
I1677
sS'CGAACG'
p701
I336
sS'CGAACC'
p702
I910
sS'CGAACA'
p703
I670
sS'CTGGTG'
p704
I8354
sS'CTGGTA'
p705
I3798
sS'CTGGTC'
p706
I4188
sS'CGAACT'
p707
I457
sS'TTGCAT'
p708
I2125
sS'GACGAG'
p709
I3130
sS'NNGAAT'
p710
I1
sS'CGTCTT'
p711
I556
sS'TTGCAG'
p712
I5759
sS'ACTCCT'
p713
I2194
sS'CTTGAT'
p714
I1026
sS'TTGCAC'
p715
I3659
sS'TTGCAA'
p716
I3678
sS'AAGATC'
p717
I3186
sS'TCCATC'
p718
I5879
sS'TCGCAT'
p719
I136
sS'GTCGTG'
p720
I2161
sS'GTCGTA'
p721
I878
sS'GTCGTC'
p722
I1468
sS'CCGTTT'
p723
I477
sS'ACTGAT'
p724
I797
sS'ATATCG'
p725
I292
sS'GTCGTT'
p726
I453
sS'TCAGAT'
p727
I521
sS'TCGCAG'
p728
I779
sS'TCCATG'
p729
I8744
sS'TCGCAC'
p730
I370
sS'CAGCTA'
p731
I6328
sS'CCGTTG'
p732
I1303
sS'CCGTTA'
p733
I859
sS'CCGTTC'
p734
I1244
sS'AATGCT'
p735
I5151
sS'GGTACG'
p736
I729
sS'GGTACA'
p737
I2929
sS'GGTACC'
p738
I2350
sS'TATTTG'
p739
I14902
sS'CCAGTT'
p740
I637
sS'TATTTC'
p741
I9133
sS'TATTTA'
p742
I16534
sS'CCCCCT'
p743
I5176
sS'GGTACT'
p744
I1816
sS'AATGCG'
p745
I1659
sS'AATCTT'
p746
I1969
sS'TGCAAT'
p747
I3608
sS'GCCGTG'
p748
I4493
sS'CCCCCC'
p749
I4708
sS'CCCCCA'
p750
I8433
sS'TATTTT'
p751
I5823
sS'CCCCCG'
p752
I4451
sS'GAGCGA'
p753
I2965
sS'CTTGAG'
p754
I4107
sS'ATGATG'
p755
I4352
sS'CTTGAC'
p756
I2829
sS'CTTGAA'
p757
I3414
sS'TGCAAC'
p758
I5271
sS'TGCAAA'
p759
I9114
sS'TGCAAG'
p760
I7196
sS'GAAGTG'
p761
I6297
sS'ATGATT'
p762
I1097
sS'TATCAC'
p763
I3310
sS'CGAATC'
p764
I386
sS'TTGAGG'
p765
I4876
sS'GCCATT'
p766
I2213
sS'TTGAGC'
p767
I3465
sS'TTGAGA'
p768
I4008
sS'GAGAAT'
p769
I3278
sS'TGTCTT'
p770
I2763
sS'CGAATA'
p771
I376
sS'ACTGAG'
p772
I3900
sS'AAGGCC'
p773
I12291
sS'ATAACC'
p774
I2247
sS'AAGGCA'
p775
I11396
sS'ATAACA'
p776
I3133
sS'AAGGCG'
p777
I3582
sS'ATAACG'
p778
I491
sS'GAGGGT'
p779
I3693
sS'TTGACT'
p780
I3974
sS'TGTCTG'
p781
I12745
sS'GAGAAG'
p782
I12901
sS'GAGAAA'
p783
I10311
sS'TGTCTC'
p784
I9543
sS'GAGAAC'
p785
I6600
sS'TGTCTA'
p786
I5374
sS'TGTGGC'
p787
I4960
sS'TGTGGA'
p788
I4288
sS'TGTGGG'
p789
I6866
sS'ATAACT'
p790
I1616
sS'ACTGAC'
p791
I2326
sS'CTGTAA'
p792
I4111
sS'CAATTT'
p793
I484
sS'AACGGC'
p794
I1768
sS'GCCCCG'
p795
I9321
sS'ACCAAG'
p796
I4945
sS'GGTCAG'
p797
I5994
sS'GCCCCC'
p798
I11854
sS'ATCATC'
p799
I3857
sS'GCCCCA'
p800
I11537
sS'GGTCAC'
p801
I4133
sS'GGTCAT'
p802
I1359
sS'CGTGCC'
p803
I2640
sS'CGTGCA'
p804
I2150
sS'CGTGCG'
p805
I1720
sS'AGGTAC'
p806
I1719
sS'TTTTGC'
p807
I5408
sS'TCTTAC'
p808
I2377
sS'TTTTGA'
p809
I6019
sS'TCTTAA'
p810
I3227
sS'TTTTGG'
p811
I5389
sS'AAGCAC'
p812
I4829
sS'AATTGC'
p813
I3800
sS'TAGCCA'
p814
I4894
sS'TGGGGT'
p815
I1757
sS'CGCTCG'
p816
I3979
sS'GATAAT'
p817
I2509
sS'CGCTCA'
p818
I4855
sS'CGCTCC'
p819
I10573
sS'AATTGT'
p820
I3203
sS'CGATCC'
p821
I670
sS'GCCATC'
p822
I5176
sS'TCTTAT'
p823
I1690
sS'GTTATG'
p824
I3391
sS'CGCTCT'
p825
I4734
sS'TGGGGG'
p826
I5309
sS'GATAAC'
p827
I3593
sS'TAGCCT'
p828
I3434
sS'TGGGGC'
p829
I4352
sS'GATAAG'
p830
I5966
sS'GATCCT'
p831
I4549
sS'AAGAAT'
p832
I2884
sS'GGGGTG'
p833
I6707
sS'GTTATC'
p834
I2199
sS'AAGAAC'
p835
I4862
sS'GATCCA'
p836
I5584
sS'AAGAAA'
p837
I8930
sS'GATCCC'
p838
I6704
sS'AAGAAG'
p839
I7784
sS'GATCCG'
p840
I2292
sS'ATGCCG'
p841
I1388
sS'CAAGGG'
p842
I2963
sS'ATCGAG'
p843
I716
sS'CAAGGC'
p844
I2518
sS'GGTTCT'
p845
I4101
sS'CAAGGA'
p846
I1950
sS'GTGCGA'
p847
I959
sS'GGTTCA'
p848
I5724
sS'GGTTCC'
p849
I6593
sS'CAAGGT'
p850
I1090
sS'TGCATT'
p851
I3578
sS'AACCTT'
p852
I3489
sS'CTGTAT'
p853
I2100
sS'TAGTGG'
p854
I4557
sS'ATTATC'
p855
I1928
sS'TAGAAT'
p856
I1980
sS'CAAACG'
p857
I1045
sS'ATTATG'
p858
I2946
sS'AGTCTT'
p859
I1978
sS'TAGAAA'
p860
I4813
sS'TAGAAC'
p861
I2810
sS'ATTATT'
p862
I1177
sS'TAGAAG'
p863
I4719
sS'AGTCTA'
p864
I4204
sS'AGTCTC'
p865
I6628
sS'AGTCTG'
p866
I9031
sS'TAACTC'
p867
I1813
sS'TAACTA'
p868
I2106
sS'TAACTG'
p869
I3174
sS'ATCTAT'
p870
I1981
sS'AGGTAT'
p871
I1273
sS'TAACTT'
p872
I765
sS'ATCTAG'
p873
I3892
sS'ATCTAC'
p874
I3183
sS'ATCTAA'
p875
I4121
sS'CATAGC'
p876
I3437
sS'CCATGT'
p877
I1648
sS'ACCAAA'
p878
I4141
sS'TGGAGG'
p879
I9319
sS'TGGAGA'
p880
I5751
sS'TGGAGC'
p881
I5298
sS'CCATGC'
p882
I1521
sS'CCATGA'
p883
I1456
sS'CGTGCT'
p884
I1423
sS'TGGAGT'
p885
I3408
sS'ATTACG'
p886
I624
sS'TCAGTA'
p887
I1994
sS'TCAGTC'
p888
I1526
sS'CTCTCT'
p889
I19833
sS'GGGGAT'
p890
I829
sS'TCAGTG'
p891
I3834
sS'CGATAT'
p892
I62
sS'GGGGAA'
p893
I2809
sS'GGGGAC'
p894
I2803
sS'CTCTCC'
p895
I27834
sS'TCAGTT'
p896
I675
sS'CTCTCA'
p897
I16272
sS'CGATAG'
p898
I150
sS'CGATAA'
p899
I120
sS'TATCAA'
p900
I3512
sS'CTAAGG'
p901
I2841
sS'GTGTTT'
p902
I4636
sS'GCTACT'
p903
I2261
sS'GTGGTT'
p904
I1558
sS'GTGTTC'
p905
I6038
sS'GTGTTA'
p906
I5575
sS'GTGTTG'
p907
I8334
sS'ACCAAT'
p908
I2024
sS'GTGGTA'
p909
I3587
sS'GCTACA'
p910
I2810
sS'GTGGTC'
p911
I3371
sS'CTAAGC'
p912
I1943
sS'GTGGTG'
p913
I8826
sS'GCTACG'
p914
I965
sS'AGGTAG'
p915
I2693
sS'TTTCGT'
p916
I531
sS'TGCCCT'
p917
I9289
sS'AGCGTT'
p918
I904
sS'AGGTAA'
p919
I2682
sS'TGCCCC'
p920
I12433
sS'TGCCCA'
p921
I11065
sS'TGCCCG'
p922
I4497
sS'ACAGTG'
p923
I3740
sS'AGCGTA'
p924
I1227
sS'AGCGTC'
p925
I2737
sS'AGCGTG'
p926
I4141
sS'GGCCCC'
p927
I14030
sS'GGCCCA'
p928
I9375
sS'CACGTG'
p929
I7100
sS'GGCCCG'
p930
I6353
sS'CACGTA'
p931
I2093
sS'CACGTC'
p932
I2852
sS'ACGTGC'
p933
I1136
sS'ACGTGA'
p934
I1165
sS'GGGACT'
p935
I5040
sS'CTATAC'
p936
I859
sS'CACGTT'
p937
I1070
sS'TTCACG'
p938
I2584
sS'GGCCCT'
p939
I7179
sS'GGGACA'
p940
I7085
sS'AATTGA'
p941
I3723
sS'GGGACC'
p942
I7684
sS'AGGGAC'
p943
I3655
sS'TCGTGG'
p944
I1103
sS'ACGTGT'
p945
I812
sS'TCTTAG'
p946
I3242
sS'AGAGAG'
p947
I3455
sS'AGAGAA'
p948
I2342
sS'AGAGAC'
p949
I1988
sS'GTCTCG'
p950
I4448
sS'GTCTTT'
p951
I6297
sS'TCTATC'
p952
I1862
sS'TCTATG'
p953
I3530
sS'AGAGAT'
p954
I857
sS'TCGTGC'
p955
I760
sS'GTCTTG'
p956
I12043
sS'TCTATT'
p957
I1264
sS'GTCTTC'
p958
I10611
sS'GTCTTA'
p959
I7250
sS'GCAGAG'
p960
I2470
sS'GCTCAA'
p961
I2948
sS'GCTCAC'
p962
I3612
sS'GCAGAC'
p963
I947
sS'GCAGAA'
p964
I1207
sS'GCTCAG'
p965
I6527
sS'AGACGT'
p966
I292
sS'ATGCGT'
p967
I395
sS'TTGCTG'
p968
I12657
sS'TTGCTA'
p969
I6019
sS'TTGCTC'
p970
I8794
sS'GCAGAT'
p971
I487
sS'GCTCAT'
p972
I1148
sS'CGAATT'
p973
I121
sS'GTTTGC'
p974
I7206
sS'TTGCTT'
p975
I4734
sS'CGATTC'
p976
I399
sS'TAGCCG'
p977
I1346
sS'ATGCGC'
p978
I855
sS'ATGCGA'
p979
I441
sS'TGTAAG'
p980
I4649
sS'GGCTAG'
p981
I4987
sS'TGTAAC'
p982
I4019
sS'GGCTAC'
p983
I3945
sS'GACTGT'
p984
I8166
sS'GGCTAA'
p985
I4589
sS'ACTGTA'
p986
I4227
sS'TTGGTA'
p987
I3048
sS'ACTGTC'
p988
I3039
sS'TTGGTC'
p989
I2894
sS'TTCGAC'
p990
I735
sS'ACTGTG'
p991
I7374
sS'TTGGTG'
p992
I5459
sS'GACTGC'
p993
I10712
sS'GGCTAT'
p994
I1864
sS'GACTGA'
p995
I10490
sS'GACTGG'
p996
I13843
sS'TGTGGT'
p997
I2629
sS'TTGGTT'
p998
I1406
sS'ACTGTT'
p999
I1200
sS'GTTTCT'
p1000
I6490
sS'GAATGA'
p1001
I3879
sS'ATAATT'
p1002
I698
sS'CCTTTT'
p1003
I3205
sS'GTTTCG'
p1004
I1673
sS'CCGCTA'
p1005
I996
sS'GTTTCC'
p1006
I9753
sS'GTTTCA'
p1007
I8054
sS'ATAATG'
p1008
I2753
sS'CCTTTA'
p1009
I7909
sS'CCTTTC'
p1010
I10147
sS'ATAATC'
p1011
I1297
sS'ATAATA'
p1012
I2722
sS'CCTTTG'
p1013
I14573
sS'ACAGAA'
p1014
I1436
sS'ACAGAC'
p1015
I1102
sS'GCCCCT'
p1016
I7892
sS'ACAGAG'
p1017
I2260
sS'TTATCT'
p1018
I4182
sS'CTGGAC'
p1019
I3269
sS'CTGGAA'
p1020
I3586
sS'CTGGAG'
p1021
I6437
sS'ATATAA'
p1022
I1226
sS'CGATTT'
p1023
I130
sS'GTCGAT'
p1024
I266
sS'TGGGGA'
p1025
I3997
sS'TTATCA'
p1026
I3791
sS'CTGGAT'
p1027
I1030
sS'TTATCC'
p1028
I2969
sS'CCAATG'
p1029
I2911
sS'GGCGAG'
p1030
I4502
sS'ATTTGT'
p1031
I3968
sS'CCAATC'
p1032
I1919
sS'AAACCC'
p1033
I2750
sS'CCAATA'
p1034
I1791
sS'TGTCGG'
p1035
I1787
sS'GAGATC'
p1036
I4242
sS'CCCTAT'
p1037
I1754
sS'GAGATA'
p1038
I5798
sS'TGTCGC'
p1039
I1773
sS'GAGATG'
p1040
I9841
sS'AACGAC'
p1041
I1169
sS'ATTTGA'
p1042
I4172
sS'CCAATT'
p1043
I456
sS'ATTTGC'
p1044
I4664
sS'GGGTAT'
p1045
I794
sS'ATTTGG'
p1046
I3839
sS'CCCTAG'
p1047
I5283
sS'TGTCGT'
p1048
I704
sS'CCCTAC'
p1049
I4252
sS'GAGATT'
p1050
I1718
sS'CCCTAA'
p1051
I4200
sS'CATTAT'
p1052
I2655
sS'ATGCAA'
p1053
I2668
sS'ACTTCA'
p1054
I5988
sS'ATCACA'
p1055
I7615
sS'ATCACC'
p1056
I6181
sS'CATGCT'
p1057
I4556
sS'TGACAC'
p1058
I892
sS'ATCACG'
p1059
I1846
sS'TGGATA'
p1060
I2928
sS'CATTAG'
p1061
I4739
sS'CATTAA'
p1062
I5481
sS'TGGATG'
p1063
I5258
sS'CATGCA'
p1064
I7071
sS'TGACAT'
p1065
I686
sS'CATGCC'
p1066
I7281
sS'ATCACT'
p1067
I5288
sS'CATGCG'
p1068
I2096
sS'GTAGAA'
p1069
I1081
sS'GTAGAC'
p1070
I729
sS'GTAGAG'
p1071
I1573
sS'GATTGG'
p1072
I6993
sS'ACAACC'
p1073
I2243
sS'GCATGA'
p1074
I1403
sS'GATTGC'
p1075
I4813
sS'GATTGA'
p1076
I4326
sS'TAAATT'
p1077
I984
sS'ACTAAG'
p1078
I2405
sS'GTAGAT'
p1079
I417
sS'GGGTAC'
p1080
I1245
sS'ATGAGT'
p1081
I2009
sS'GATTGT'
p1082
I3839
sS'ACAACT'
p1083
I1460
sS'AGGATT'
p1084
I1551
sS'ATACGC'
p1085
I177
sS'TAATAG'
p1086
I1365
sS'GTCCGG'
p1087
I4100
sS'TAATAC'
p1088
I1138
sS'GTCCGA'
p1089
I1575
sS'TAATAA'
p1090
I1853
sS'GTCCGC'
p1091
I3689
sS'TGCCAT'
p1092
I2745
sS'ACTCTT'
p1093
I1315
sS'GTCCGT'
p1094
I1141
sS'TAATAT'
p1095
I912
sS'CGTAAC'
p1096
I726
sS'ATTCGC'
p1097
I535
sS'TTCTCC'
p1098
I20449
sS'ATTCGA'
p1099
I494
sS'TTCTCA'
p1100
I17013
sS'ATCCAT'
p1101
I1437
sS'TTCTCG'
p1102
I3846
sS'GAGCTA'
p1103
I6212
sS'TCGTAC'
p1104
I207
sS'TACCTT'
p1105
I3295
sS'TCGTAA'
p1106
I271
sS'TCGTAG'
p1107
I381
sS'TCGTCA'
p1108
I864
sS'GAACCT'
p1109
I1532
sS'ATCCAA'
p1110
I3040
sS'ATCCAC'
p1111
I3289
sS'TGAACC'
p1112
I3308
sS'TTCTCT'
p1113
I18387
sS'ATTCGT'
p1114
I301
sS'GAACCC'
p1115
I2659
sS'GAACCA'
p1116
I2545
sS'TACCTA'
p1117
I5272
sS'TACCTC'
p1118
I5982
sS'TCGTAT'
p1119
I165
sS'ATGTTA'
p1120
I5031
sS'ACCATA'
p1121
I3215
sS'ACCATG'
p1122
I6428
sS'ATGTTG'
p1123
I6198
sS'AGCTCT'
p1124
I13084
sS'GAGCTG'
p1125
I19819
sS'AGTGGT'
p1126
I1857
sS'AAACGA'
p1127
I621
sS'ATGAGC'
p1128
I2881
sS'ATGTTT'
p1129
I3070
sS'ATTTCG'
p1130
I899
sS'AGCTCG'
p1131
I4332
sS'AGTGGC'
p1132
I4289
sS'AGCTCC'
p1133
I19046
sS'AGTGGG'
p1134
I5977
sS'ATAGCC'
p1135
I1562
sS'CAGTAA'
p1136
I3600
sS'CAGTAC'
p1137
I2468
sS'CAGTAG'
p1138
I3606
sS'TTTCAC'
p1139
I4515
sS'CAGTAT'
p1140
I1651
sS'ATTGAA'
p1141
I1881
sS'TGCCAG'
p1142
I9064
sS'CCGGCT'
p1143
I1537
sS'GATCTA'
p1144
I3909
sS'GATCTC'
p1145
I6214
sS'ATTGAC'
p1146
I1783
sS'GATCTG'
p1147
I9157
sS'TGCCAA'
p1148
I5028
sS'CCGGCC'
p1149
I5468
sS'CCGGCA'
p1150
I1894
sS'ATTAGA'
p1151
I2264
sS'CACATT'
p1152
I3922
sS'ATTAGC'
p1153
I1944
sS'TCCCTC'
p1154
I14337
sS'GAGCTT'
p1155
I3255
sS'TCCCTA'
p1156
I6664
sS'TGCCAC'
p1157
I6537
sS'TCCCTG'
p1158
I18266
sS'GATCTT'
p1159
I2377
sS'CTAGAC'
p1160
I854
sS'ATAGAA'
p1161
I1000
sS'AAGTGA'
p1162
I6541
sS'AAGTGC'
p1163
I5619
sS'TGTTCT'
p1164
I8345
sS'AAGTGG'
p1165
I6856
sS'TGATTG'
p1166
I3046
sS'TGATTC'
p1167
I1790
sS'TGTATT'
p1168
I2101
sS'TGATTA'
p1169
I2242
sS'TGTTCA'
p1170
I9483
sS'CACAAG'
p1171
I8492
sS'TGTTCC'
p1172
I9518
sS'AAGTGT'
p1173
I3782
sS'CACAAC'
p1174
I5901
sS'TGTTCG'
p1175
I1576
sS'TCTGAA'
p1176
I3207
sS'TCTGAC'
p1177
I3130
sS'TCTGAG'
p1178
I4913
sS'CGCGCC'
p1179
I9097
sS'CGCGCA'
p1180
I4011
sS'GGTAAA'
p1181
I3622
sS'CGCGCG'
p1182
I5731
sS'CTCCCT'
p1183
I14979
sS'AGCGGG'
p1184
I5617
sS'AGCGGA'
p1185
I2583
sS'AGCGGC'
p1186
I4773
sS'AGATGA'
p1187
I2004
sS'CGCGCT'
p1188
I3329
sS'ACCTCC'
p1189
I12097
sS'GTGCGC'
p1190
I2353
sS'CTATTG'
p1191
I3864
sS'CTCCCA'
p1192
I19341
sS'CTCCCC'
p1193
I22412
sS'GCCTCT'
p1194
I12856
sS'TAAGCC'
p1195
I3218
sS'CGGGAG'
p1196
I3251
sS'CCCATG'
p1197
I7964
sS'CGGGAA'
p1198
I1359
sS'CCCATA'
p1199
I3955
sS'CGGGAC'
p1200
I1763
sS'CCCATC'
p1201
I6017
sS'CCGAGA'
p1202
I1070
sS'CCTGCT'
p1203
I4329
sS'CCGAAT'
p1204
I193
sS'CCCATT'
p1205
I2409
sS'CGGGAT'
p1206
I426
sS'GCCTCG'
p1207
I7229
sS'TAGCTT'
p1208
I1759
sS'TAAGCT'
p1209
I1765
sS'GCCTCC'
p1210
I26397
sS'CCGAAC'
p1211
I450
sS'CCTGCG'
p1212
I3274
sS'CCGAAA'
p1213
I414
sS'CCGAAG'
p1214
I892
sS'CCTGCC'
p1215
I10858
sS'CCTGCA'
p1216
I6712
sS'CGACAC'
p1217
I255
sS'CCATTC'
p1218
I2395
sS'TATAAG'
p1219
I3227
sS'CCATTG'
p1220
I3620
sS'TATAAC'
p1221
I2733
sS'TAACGA'
p1222
I324
sS'GGTTCG'
p1223
I1543
sS'GTACTC'
p1224
I1205
sS'GTCGAA'
p1225
I674
sS'CCATTT'
p1226
I1014
sS'TCTACA'
p1227
I3472
sS'TCTACC'
p1228
I3496
sS'TCTACG'
p1229
I756
sS'ATTATA'
p1230
I2791
sS'CGCAAC'
p1231
I1442
sS'TGCTTA'
p1232
I11040
sS'CGCAAA'
p1233
I1639
sS'ATACCG'
p1234
I189
sS'GACGCG'
p1235
I4049
sS'ATACCA'
p1236
I1226
sS'ATACCC'
p1237
I843
sS'TCTACT'
p1238
I2593
sS'AAATGG'
p1239
I3184
sS'CCGAGT'
p1240
I682
sS'ATACCT'
p1241
I779
sS'CGCAAT'
p1242
I671
sS'AAACTG'
p1243
I4117
sS'ATTTCT'
p1244
I4325
sS'TAGTAC'
p1245
I1626
sS'CTCAAG'
p1246
I8648
sS'CTCAAA'
p1247
I8978
sS'TAGTAG'
p1248
I2624
sS'CTCAAC'
p1249
I5542
sS'GTGTGC'
p1250
I6333
sS'GTGTGA'
p1251
I5851
sS'GTGTGG'
p1252
I9721
sS'CTCAAT'
p1253
I2798
sS'TAGTAT'
p1254
I1363
sS'GTTCTC'
p1255
I5416
sS'CTCCCG'
p1256
I8984
sS'GTGTGT'
p1257
I9163
sS'ATCTTT'
p1258
I4327
sS'GTTGGG'
p1259
I4134
sS'GTTGGA'
p1260
I2239
sS'GTTGGC'
p1261
I2396
sS'CCTTGG'
p1262
I7355
sS'CCTTGA'
p1263
I4622
sS'GCGTAT'
p1264
I185
sS'CCTTGC'
p1265
I5033
sS'GACCTA'
p1266
I5664
sS'GTTGGT'
p1267
I1159
sS'ATCTTG'
p1268
I8923
sS'ATCTTA'
p1269
I6738
sS'ATCTTC'
p1270
I7442
sS'CCTTGT'
p1271
I3255
sS'AGGATA'
p1272
I3404
sS'AGGATG'
p1273
I6814
sS'GACATG'
p1274
I9026
sS'TTGCGT'
p1275
I544
sS'GACATA'
p1276
I5512
sS'GATTTC'
p1277
I7327
sS'GAATAT'
p1278
I824
sS'GGTGCA'
p1279
I4130
sS'TCGGCC'
p1280
I2639
sS'TCGGCA'
p1281
I995
sS'TTGCGA'
p1282
I593
sS'GACATT'
p1283
I3949
sS'TTGCGG'
p1284
I1378
sS'GAATAG'
p1285
I1636
sS'TCGGCT'
p1286
I940
sS'ATCAGC'
p1287
I4847
sS'GAATAC'
p1288
I1274
sS'GAATAA'
p1289
I1909
sS'ACTTTT'
p1290
I1895
sS'ATACAA'
p1291
I1044
sS'GGACGA'
p1292
I335
sS'AAAATT'
p1293
I773
sS'TTTCTA'
p1294
I7617
sS'ACGTCG'
p1295
I464
sS'GAAATG'
p1296
I7397
sS'AATGAT'
p1297
I2112
sS'GAAATA'
p1298
I4921
sS'GAAATC'
p1299
I2776
sS'CGCATT'
p1300
I707
sS'ACCGGT'
p1301
I413
sS'GAAATT'
p1302
I912
sS'AATGAA'
p1303
I7145
sS'AATGAC'
p1304
I4956
sS'AATGAG'
p1305
I7342
sS'AGGAAA'
p1306
I7103
sS'TCAGCA'
p1307
I2937
sS'TGCACT'
p1308
I8824
sS'CTTGGC'
p1309
I3882
sS'GTCCTT'
p1310
I4210
sS'CTTGGG'
p1311
I5536
sS'ATACAG'
p1312
I1159
sS'AGCCCT'
p1313
I10079
sS'GCGTAA'
p1314
I318
sS'TTGAAT'
p1315
I1672
sS'GTCCTA'
p1316
I5415
sS'GTCCTC'
p1317
I10741
sS'TGCACG'
p1318
I3213
sS'TGCACA'
p1319
I12070
sS'GTCCTG'
p1320
I15341
sS'TGCACC'
p1321
I9561
sS'TTGAAA'
p1322
I4238
sS'AGCCCG'
p1323
I6225
sS'AGCCCA'
p1324
I13418
sS'AGCCCC'
p1325
I16093
sS'CTTATG'
p1326
I3659
sS'ATAAAT'
p1327
I1274
sS'TGGTCG'
p1328
I1170
sS'TGGTCA'
p1329
I5938
sS'TGGTCC'
p1330
I5881
sS'ACGATT'
p1331
I135
sS'GAGACT'
p1332
I7541
sS'ACGGGG'
p1333
I1312
sS'TGGTCT'
p1334
I5084
sS'TTTTGT'
p1335
I5680
sS'AGGAAC'
p1336
I4109
sS'TCAGCC'
p1337
I3698
sS'ATAAAC'
p1338
I2041
sS'GAGACG'
p1339
I4206
sS'ACGATG'
p1340
I775
sS'CTACAG'
p1341
I1582
sS'GAGACC'
p1342
I11091
sS'ACGATC'
p1343
I284
sS'GAGACA'
p1344
I12690
sS'ACGATA'
p1345
I327
sS'GGTTAC'
p1346
I2438
sS'ATGTGT'
p1347
I3631
sS'GGTTAA'
p1348
I3537
sS'ACCACT'
p1349
I4888
sS'GGTTAG'
p1350
I2956
sS'CTTCCT'
p1351
I6875
sS'GAGGAC'
p1352
I6596
sS'CGTGAA'
p1353
I997
sS'CCAACA'
p1354
I2661
sS'TCCGCT'
p1355
I2621
sS'CTTCCA'
p1356
I6759
sS'CTTCCC'
p1357
I11635
sS'ACCACC'
p1358
I7967
sS'CGTATG'
p1359
I853
sS'ATGTGC'
p1360
I3317
sS'GGTTAT'
p1361
I1333
sS'TCCGCC'
p1362
I7768
sS'TCCGCA'
p1363
I2842
sS'TCCGCG'
p1364
I2962
sS'AACGTC'
p1365
I1731
sS'CGTGAG'
p1366
I2395
sS'AACGTG'
p1367
I3385
sS'CGTGAC'
p1368
I1693
sS'GGTAGC'
p1369
I2192
sS'AGTGTG'
p1370
I8483
sS'TCTTCG'
p1371
I1816
sS'AGTGTA'
p1372
I4287
sS'TCTTCA'
p1373
I7541
sS'AGTGTC'
p1374
I4229
sS'TCTTCC'
p1375
I11303
sS'CGTGAT'
p1376
I499
sS'ACTCAA'
p1377
I2586
sS'TAAGTC'
p1378
I1772
sS'AACGTT'
p1379
I884
sS'GCTCGC'
p1380
I2555
sS'TCTTCT'
p1381
I6084
sS'AGTGTT'
p1382
I1979
sS'AACCGG'
p1383
I2431
sS'TTGGCA'
p1384
I5419
sS'AAAGGT'
p1385
I1515
sS'TTGGCC'
p1386
I7878
sS'AGTAAC'
p1387
I3391
sS'CTTATT'
p1388
I1430
sS'TTGGCG'
p1389
I1466
sS'GACTTC'
p1390
I12094
sS'CGCCGG'
p1391
I7175
sS'GACTTA'
p1392
I7990
sS'GACTTG'
p1393
I13595
sS'AAAGGG'
p1394
I5168
sS'AAAGGA'
p1395
I4133
sS'TTGGCT'
p1396
I4196
sS'AAAGGC'
p1397
I3634
sS'GAGTAC'
p1398
I2697
sS'GTATGG'
p1399
I1768
sS'GACTTT'
p1400
I7427
sS'TTCTTT'
p1401
I11887
sS'TGAAAA'
p1402
I2302
sS'CAAGAA'
p1403
I1434
sS'AGCGAG'
p1404
I4074
sS'CAAGAC'
p1405
I1262
sS'GATTCG'
p1406
I1817
sS'CAAGAG'
p1407
I2266
sS'CGTATT'
p1408
I315
sS'TTCTTG'
p1409
I15953
sS'TTCTTC'
p1410
I16718
sS'TTCTTA'
p1411
I13374
sS'CAAGAT'
p1412
I545
sS'AGGGCT'
p1413
I5599
sS'TACGGG'
p1414
I1467
sS'TACGGA'
p1415
I1028
sS'TACGGC'
p1416
I1153
sS'CTAACA'
p1417
I3391
sS'CCAACT'
p1418
I1595
sS'TAGAGT'
p1419
I2514
sS'TACGGT'
p1420
I637
sS'AGGGCG'
p1421
I4166
sS'AGGGCA'
p1422
I9559
sS'AGGGCC'
p1423
I10445
sS'TAGAGC'
p1424
I3561
sS'TAGAGA'
p1425
I5640
sS'TAGAGG'
p1426
I6243
sS'GGCGAA'
p1427
I1455
sS'GTGCTG'
p1428
I17005
sS'GTGCTA'
p1429
I5213
sS'ATCTGT'
p1430
I5174
sS'GTGCTC'
p1431
I8059
sS'TTGCGC'
p1432
I1111
sS'ATCTGA'
p1433
I6291
sS'GTGCTT'
p1434
I3943
sS'ATCTGC'
p1435
I6972
sS'TCGAGG'
p1436
I1165
sS'CGAATG'
p1437
I814
sS'ATCTGG'
p1438
I7513
sS'ATCATA'
p1439
I4098
sS'GATAGC'
p1440
I2530
sS'AAGCAG'
p1441
I8781
sS'GATAGA'
p1442
I3688
sS'AAGCAA'
p1443
I6529
sS'GATAGG'
p1444
I4357
sS'ATCATG'
p1445
I5813
sS'GGCTCA'
p1446
I14082
sS'CATTTC'
p1447
I11433
sS'CTAGGT'
p1448
I705
sS'CATTTA'
p1449
I12240
sS'CATTTG'
p1450
I12748
sS'GTTATA'
p1451
I2509
sS'CAAACA'
p1452
I10130
sS'AAGCAT'
p1453
I2183
sS'CAAACC'
p1454
I4372
sS'CTCGGG'
p1455
I5748
sS'ATCATT'
p1456
I2038
sS'GATAGT'
p1457
I2082
sS'ACGCAG'
p1458
I926
sS'CTAGGG'
p1459
I2147
sS'GTTATT'
p1460
I1226
sS'CTAGGC'
p1461
I1442
sS'CATTTT'
p1462
I4381
sS'CTAGGA'
p1463
I1542
sS'AAGTTT'
p1464
I2213
sS'TACAGT'
p1465
I6122
sS'CTCGAA'
p1466
I1137
sS'GTGGCG'
p1467
I3502
sS'CTAAGA'
p1468
I2044
sS'GGGGCT'
p1469
I4569
sS'TACAGG'
p1470
I11086
sS'AAGTTG'
p1471
I5554
sS'AAGTTA'
p1472
I5875
sS'TACAGC'
p1473
I6658
sS'AAGTTC'
p1474
I5281
sS'TACAGA'
p1475
I8889
sS'GGGGCC'
p1476
I10351
sS'GTATGA'
p1477
I1595
sS'GGGGCA'
p1478
I6079
sS'GGGGCG'
p1479
I5806
sS'CCATGG'
p1480
I2554
sS'TATATC'
p1481
I2332
sS'TATATA'
p1482
I6024
sS'TATATG'
p1483
I4286
sS'TCCGGT'
p1484
I1234
sS'CTATTC'
p1485
I2602
sS'TATATT'
p1486
I2146
sS'GCAAAT'
p1487
I921
sS'TGATGG'
p1488
I1728
sS'CTCGGT'
p1489
I1287
sS'TGATGC'
p1490
I1087
sS'GCCCAC'
p1491
I5821
sS'TGATGA'
p1492
I1514
sS'AGCATG'
p1493
I9462
sS'TGTTTA'
p1494
I14900
sS'CACATC'
p1495
I6910
sS'TGTTTC'
p1496
I10413
sS'CACATA'
p1497
I8038
sS'TTAATT'
p1498
I908
sS'CACATG'
p1499
I11681
sS'TGTTTG'
p1500
I18408
sS'ATGAGA'
p1501
I3324
sS'TGATGT'
p1502
I1395
sS'ATGAGG'
p1503
I4873
sS'TTAATA'
p1504
I3594
sS'ACTCTG'
p1505
I8467
sS'TTAATC'
p1506
I2011
sS'ACTCTA'
p1507
I3298
sS'TTTCAG'
p1508
I6737
sS'ACTCTC'
p1509
I3758
sS'TTAATG'
p1510
I3928
sS'TGTAAT'
p1511
I3028
sS'AAATTA'
p1512
I2770
sS'AAATTG'
p1513
I2416
sS'CCAGTA'
p1514
I1617
sS'TTCAAT'
p1515
I3359
sS'GTATTT'
p1516
I1874
sS'AAATTT'
p1517
I659
sS'GTCTAT'
p1518
I2323
sS'GGGAAC'
p1519
I3559
sS'GGTGCG'
p1520
I2121
sS'GGGAAA'
p1521
I4790
sS'GGGAAG'
p1522
I9009
sS'GGTGCC'
p1523
I4677
sS'TCGTCC'
p1524
I1666
sS'GCCCAT'
p1525
I1851
sS'AGAGCG'
p1526
I1585
sS'GCGACT'
p1527
I714
sS'AGCGAT'
p1528
I696
sS'AGAGCC'
p1529
I5394
sS'AGAGCA'
p1530
I4696
sS'GCGTAG'
p1531
I593
sS'GGTGCT'
p1532
I2623
sS'GCGTAC'
p1533
I381
sS'ACTGAA'
p1534
I2614
sS'GGGAAT'
p1535
I1583
sS'GCGACG'
p1536
I910
sS'AGAGCT'
p1537
I2630
sS'GCGACA'
p1538
I1098
sS'TATCGG'
p1539
I724
sS'GCGACC'
p1540
I1897
sS'TCCGGC'
p1541
I3505
sS'GCAGGA'
p1542
I2081
sS'GCAGGC'
p1543
I1938
sS'GCAGGG'
p1544
I3596
sS'GGCGAT'
p1545
I539
sS'GCTCGA'
p1546
I883
sS'GCTCGG'
p1547
I3493
sS'TATTCT'
p1548
I6802
sS'CCGTGG'
p1549
I1954
sS'CTTTAG'
p1550
I4717
sS'GCAGGT'
p1551
I816
sS'ATTGTG'
p1552
I4547
sS'ACGTCT'
p1553
I838
sS'TATTCC'
p1554
I6764
sS'CAATTG'
p1555
I1900
sS'TATTCA'
p1556
I8818
sS'CCGTGT'
p1557
I898
sS'TATTCG'
p1558
I1139
sS'GGCGAC'
p1559
I2559
sS'TGTAGA'
p1560
I3867
sS'CTCTCG'
p1561
I5557
sS'TGTAGC'
p1562
I3266
sS'GGCTCC'
p1563
I20163
sS'TTTACG'
p1564
I1038
sS'TGTAGG'
p1565
I4431
sS'GGCTCG'
p1566
I5355
sS'TTCGGA'
p1567
I1161
sS'TTCGGC'
p1568
I1633
sS'AAATAG'
p1569
I2259
sS'TTCAAG'
p1570
I8742
sS'TTCGGG'
p1571
I2346
sS'AACTTA'
p1572
I7689
sS'GGCTCT'
p1573
I10613
sS'AGCATC'
p1574
I5482
sS'TTTACT'
p1575
I5431
sS'AGCATA'
p1576
I5201
sS'ATTGTA'
p1577
I3132
sS'TTCGGT'
p1578
I677
sS'GTTTAT'
p1579
I3037
sS'GGGGAG'
p1580
I5861
sS'GCACTC'
p1581
I1481
sS'GCCTTT'
p1582
I5868
sS'TGCTTG'
p1583
I14509
sS'AGGCAT'
p1584
I2102
sS'GTTTAA'
p1585
I5058
sS'GAGGTG'
p1586
I13108
sS'CACGAA'
p1587
I1241
sS'CAATCT'
p1588
I1392
sS'GTTTAG'
p1589
I3628
sS'GAGGTA'
p1590
I5177
sS'CTGGCT'
p1591
I6382
sS'AGGCGG'
p1592
I6293
sS'AGGCGA'
p1593
I1771
sS'AGGCGC'
p1594
I3555
sS'AGGAGT'
p1595
I3527
sS'ACAGCC'
p1596
I3539
sS'GATAAA'
p1597
I6621
sS'ACAGCA'
p1598
I3300
sS'TCCAGC'
p1599
I11354
sS'ACAGCG'
p1600
I898
sS'AGGAGC'
p1601
I6858
sS'GTCGGA'
p1602
I1295
sS'AGGAGA'
p1603
I7427
sS'CTGGCG'
p1604
I3187
sS'AGGAGG'
p1605
I15390
sS'CTGGCA'
p1606
I8398
sS'CTGGCC'
p1607
I14340
sS'GCGCCC'
p1608
I4522
sS'CGATAC'
p1609
I123
sS'ACAGCT'
p1610
I1705
sS'GGAAAA'
p1611
I2318
sS'AACGCT'
p1612
I2015
sS'AATTTT'
p1613
I2416
sS'TGTCAA'
p1614
I4342
sS'TGTCAC'
p1615
I5841
sS'CCCTCT'
p1616
I11766
sS'GGAAAC'
p1617
I2266
sS'TGTCAG'
p1618
I6704
sS'AACGCG'
p1619
I1701
sS'AATTTA'
p1620
I7874
sS'AATTTC'
p1621
I5730
sS'ATTGGC'
p1622
I2505
sS'AACGCA'
p1623
I2529
sS'AATTTG'
p1624
I7516
sS'CCCTCA'
p1625
I12332
sS'ATTTAA'
p1626
I4626
sS'TGTCAT'
p1627
I2610
sS'CCCTCG'
p1628
I5508
sS'TCCAGT'
p1629
I4953
sS'CACGAT'
p1630
I526
sS'GGAAAG'
p1631
I3910
sS'TGACCA'
p1632
I1419
sS'TGACCC'
p1633
I1811
sS'TAAATC'
p1634
I2144
sS'TGACCG'
p1635
I320
sS'CATTCG'
p1636
I1880
sS'CATTCC'
p1637
I13237
sS'ACCACG'
p1638
I2790
sS'TCCATA'
p1639
I4694
sS'GCAATT'
p1640
I487
sS'ACGAAA'
p1641
I412
sS'GCCTTC'
p1642
I12909
sS'ACAAAT'
p1643
I1031
sS'GATTAA'
p1644
I5403
sS'GTAGGC'
p1645
I1048
sS'GATTAC'
p1646
I6131
sS'GTAGGA'
p1647
I1273
sS'GTAGGG'
p1648
I1865
sS'GATTAG'
p1649
I4436
sS'GCGGGT'
p1650
I696
sS'ACAAAC'
p1651
I2158
sS'TTTCAA'
p1652
I5435
sS'ACAAAA'
p1653
I2265
sS'ACAAAG'
p1654
I3543
sS'GCGGGC'
p1655
I2764
sS'GTCGGT'
p1656
I750
sS'GCGGGA'
p1657
I2147
sS'GCGGGG'
p1658
I6316
sS'GATTAT'
p1659
I2599
sS'GTAGGT'
p1660
I697
sS'AACCTG'
p1661
I10471
sS'TAATGA'
p1662
I2329
sS'GATGTT'
p1663
I2358
sS'TAATGC'
p1664
I1643
sS'GGAGAT'
p1665
I539
sS'GCCCTT'
p1666
I3644
sS'CAATAA'
p1667
I1235
sS'GCCCTC'
p1668
I12096
sS'GATGTG'
p1669
I8949
sS'GCCCTA'
p1670
I5295
sS'GATGTA'
p1671
I4477
sS'GCCCTG'
p1672
I19505
sS'GATGTC'
p1673
I4611
sS'AACCTC'
p1674
I7821
sS'TGAAAT'
p1675
I1315
sS'TTCTAG'
p1676
I7800
sS'TTCTAA'
p1677
I8674
sS'ATTTAT'
p1678
I2478
sS'TTCTAC'
p1679
I5821
sS'GAATGT'
p1680
I2620
sS'TTGGAT'
p1681
I795
sS'TGAAAC'
p1682
I2152
sS'TGAAAG'
p1683
I3594
sS'TTCTAT'
p1684
I4190
sS'ATCCGC'
p1685
I1668
sS'AGTAAT'
p1686
I1996
sS'ATCCGA'
p1687
I843
sS'ATCCGG'
p1688
I1887
sS'CGGATT'
p1689
I267
sS'TGGCTC'
p1690
I8155
sS'TGGCTA'
p1691
I4696
sS'GCTACC'
p1692
I2807
sS'TGGCTG'
p1693
I14015
sS'AGGCGT'
p1694
I1218
sS'GGAATA'
p1695
I1761
sS'AGTTGT'
p1696
I3246
sS'AGCTAT'
p1697
I3270
sS'CTTACG'
p1698
I995
sS'ATTAGT'
p1699
I1214
sS'GTCGGC'
p1700
I2255
sS'CGTCGA'
p1701
I442
sS'NNNNCA'
p1702
I1
sS'TGGCTT'
p1703
I3011
sS'AGTTGG'
p1704
I5138
sS'AGCTAA'
p1705
I6502
sS'AGCTAC'
p1706
I5811
sS'AGTTGC'
p1707
I4000
sS'AGTTGA'
p1708
I4094
sS'AGCTAG'
p1709
I6174
sS'CGTTGA'
p1710
I1121
sS'GCACCT'
p1711
I1054
sS'CAGTGT'
p1712
I5282
sS'TAACAA'
p1713
I1714
sS'TCAGGT'
p1714
I638
sS'TCAAGG'
p1715
I2957
sS'GTCGGG'
p1716
I3456
sS'TCAAGC'
p1717
I1355
sS'TCAAGA'
p1718
I1364
sS'GCACCA'
p1719
I1561
sS'CAGTGC'
p1720
I6715
sS'CTAATC'
p1721
I1664
sS'CAGTGA'
p1722
I7527
sS'CAGTGG'
p1723
I9602
sS'CTAATG'
p1724
I3249
sS'TCAAGT'
p1725
I1073
sS'CTGCAA'
p1726
I4429
sS'GAGCCC'
p1727
I15484
sS'TCAGGC'
p1728
I1326
sS'CGAGCT'
p1729
I662
sS'TCCTAA'
p1730
I5497
sS'GATCAG'
p1731
I6086
sS'AGTCAA'
p1732
I4348
sS'TTCCCT'
p1733
I11957
sS'CGTACG'
p1734
I438
sS'CGAGCG'
p1735
I791
sS'CGAGCA'
p1736
I922
sS'GAGCCG'
p1737
I6864
sS'CGAGCC'
p1738
I1854
sS'TTCCCA'
p1739
I15224
sS'TTCCCC'
p1740
I15448
sS'GTTCAC'
p1741
I2978
sS'GTTCAA'
p1742
I3542
sS'GATCAC'
p1743
I4907
sS'GGACCT'
p1744
I912
sS'ACCATT'
p1745
I1565
sS'CTTACT'
p1746
I3081
sS'TACATG'
p1747
I7221
sS'AAGTAC'
p1748
I2805
sS'CACACT'
p1749
I9698
sS'TACATC'
p1750
I4119
sS'AAGTAG'
p1751
I3334
sS'TACATA'
p1752
I7466
sS'GCACAC'
p1753
I950
sS'GGACCG'
p1754
I508
sS'ATTGGT'
p1755
I1139
sS'GGACCA'
p1756
I1026
sS'TCATCA'
p1757
I2905
sS'GGACCC'
p1758
I1432
sS'CACACG'
p1759
I4842
sS'TACATT'
p1760
I4013
sS'CACACC'
p1761
I13324
sS'GCACAA'
p1762
I876
sS'CACACA'
p1763
I27195
sS'TCTGCC'
p1764
I7640
sS'TCTGCA'
p1765
I6622
sS'TCTGCG'
p1766
I2214
sS'TTTCGA'
p1767
I801
sS'CCCGTC'
p1768
I2950
sS'TTAAGG'
p1769
I2547
sS'CCCGTA'
p1770
I1290
sS'TTAAGA'
p1771
I2186
sS'CCCGTG'
p1772
I3995
sS'TTAAGC'
p1773
I1839
sS'TTACGT'
p1774
I219
sS'TAGATC'
p1775
I1988
sS'AAACAG'
p1776
I3901
sS'TAGATA'
p1777
I3789
sS'TTTCGC'
p1778
I1192
sS'TAGATG'
p1779
I4565
sS'TCTGCT'
p1780
I3987
sS'TTACGC'
p1781
I283
sS'TTAAGT'
p1782
I1707
sS'TTACGA'
p1783
I222
sS'TTACGG'
p1784
I402
sS'CCCGTT'
p1785
I654
sS'AGTGAC'
p1786
I4868
sS'AGTGAA'
p1787
I4657
sS'AGTGAG'
p1788
I7896
sS'ACATTT'
p1789
I1102
sS'CGGGCG'
p1790
I3154
sS'AAACAC'
p1791
I2550
sS'TAAGAG'
p1792
I2276
sS'CGGGCC'
p1793
I5962
sS'TAAGAA'
p1794
I1698
sS'CGGGCA'
p1795
I2946
sS'TAAGAC'
p1796
I1185
sS'AAACAA'
p1797
I4387
sS'AGTGAT'
p1798
I1616
sS'TAAGAT'
p1799
I557
sS'CCTGAA'
p1800
I2643
sS'CCTGAC'
p1801
I3442
sS'CCTGAG'
p1802
I5266
sS'GTTAGG'
p1803
I3425
sS'GCCAAC'
p1804
I4153
sS'TCATCT'
p1805
I2474
sS'GTTAGC'
p1806
I2031
sS'GTTAGA'
p1807
I2473
sS'ACCCCC'
p1808
I5575
sS'TATACG'
p1809
I778
sS'GTTAGT'
p1810
I1513
sS'TATACC'
p1811
I3041
sS'TATACA'
p1812
I5423
sS'AACGCC'
p1813
I3359
sS'CGTATA'
p1814
I541
sS'CAATTA'
p1815
I2010
sS'ACTAGT'
p1816
I879
sS'TTTATT'
p1817
I2921
sS'GTAATA'
p1818
I2354
sS'ATTGGA'
p1819
I1668
sS'GTAATC'
p1820
I1865
sS'TCTAAC'
p1821
I2054
sS'CGTTCT'
p1822
I1880
sS'CCACCG'
p1823
I787
sS'GGTAGG'
p1824
I4124
sS'CCACCA'
p1825
I1952
sS'CCACCC'
p1826
I3088
sS'GTTCGT'
p1827
I411
sS'TTTATG'
p1828
I5681
sS'GTAATT'
p1829
I756
sS'TTTATC'
p1830
I4058
sS'ACTAGC'
p1831
I1322
sS'TTTATA'
p1832
I5581
sS'ACTAGA'
p1833
I1998
sS'CCACCT'
p1834
I1656
sS'CGTTCG'
p1835
I961
sS'ACTTGT'
p1836
I1962
sS'CGTTCA'
p1837
I2009
sS'CGTTCC'
p1838
I3289
sS'TCTAAT'
p1839
I1127
sS'CTTTGT'
p1840
I7365
sS'CCCTCC'
p1841
I28073
sS'ACTGGA'
p1842
I2357
sS'ACTGGC'
p1843
I2327
sS'TAGTCC'
p1844
I5249
sS'GTGACC'
p1845
I8285
sS'TAGTCA'
p1846
I5696
sS'GTGACA'
p1847
I7468
sS'TAGTCG'
p1848
I892
sS'GTGACG'
p1849
I2411
sS'ATTTAG'
p1850
I2967
sS'ACTGGT'
p1851
I917
sS'CTTTGG'
p1852
I9706
sS'CCTATG'
p1853
I2976
sS'CTTTGC'
p1854
I8629
sS'CTTTGA'
p1855
I9049
sS'GTGACT'
p1856
I6035
sS'TAGTCT'
p1857
I3973
sS'GTGCAC'
p1858
I3978
sS'GCGCTT'
p1859
I552
sS'GTGCAA'
p1860
I3746
sS'CGACGA'
p1861
I163
sS'GTGCAG'
p1862
I7632
sS'CGACGC'
p1863
I400
sS'ACCTAC'
p1864
I3016
sS'CCGCAG'
p1865
I1572
sS'CCGCAA'
p1866
I444
sS'CCGCAC'
p1867
I872
sS'ACGTGG'
p1868
I1889
sS'ACCTAT'
p1869
I1332
sS'GCGCTG'
p1870
I4473
sS'CGAAGA'
p1871
I685
sS'CCCCGT'
p1872
I1451
sS'CGAAGG'
p1873
I1379
sS'GCGCTC'
p1874
I2634
sS'GTGCAT'
p1875
I1880
sS'GCGCTA'
p1876
I1033
sS'CCGCAT'
p1877
I280
sS'GTTCGC'
p1878
I1065
sS'GAAGAT'
p1879
I872
sS'GGATCT'
p1880
I1034
sS'CTTCCG'
p1881
I3152
sS'TCGGAA'
p1882
I383
sS'TCGGAC'
p1883
I373
sS'GAATCT'
p1884
I2428
sS'CCTATA'
p1885
I1902
sS'TCGGAG'
p1886
I812
sS'GGATCG'
p1887
I435
sS'GAAGAG'
p1888
I5487
sS'GAAGAA'
p1889
I3235
sS'GGATCC'
p1890
I1954
sS'GAAGAC'
p1891
I2560
sS'GGATCA'
p1892
I1645
sS'GAATCA'
p1893
I4107
sS'GAATCC'
p1894
I3966
sS'TCGGAT'
p1895
I110
sS'GAATCG'
p1896
I899
sS'ATGGTC'
p1897
I1894
sS'CAGATG'
p1898
I8041
sS'ATGGTA'
p1899
I2512
sS'CATTCT'
p1900
I8782
sS'ATGGTG'
p1901
I4742
sS'CAGATC'
p1902
I3586
sS'CTATCC'
p1903
I2947
sS'CAGATA'
p1904
I4910
sS'CTCGAG'
p1905
I2189
sS'CAGATT'
p1906
I1242
sS'CTCGAC'
p1907
I1241
sS'ATGGTT'
p1908
I764
sS'TCGCAA'
p1909
I267
sS'AAATTC'
p1910
I2201
sS'GCTATT'
p1911
I874
sS'TGCGTC'
p1912
I2367
sS'CCTTAG'
p1913
I3196
sS'AATGGT'
p1914
I1989
sS'ATGATA'
p1915
I2619
sS'GGGACG'
p1916
I3271
sS'CCCCGC'
p1917
I10778
sS'AATGGA'
p1918
I4659
sS'AATGGG'
p1919
I5636
sS'CAATAC'
p1920
I823
sS'CCCCGA'
p1921
I2591
sS'CAACTC'
p1922
I1696
sS'ACAATA'
p1923
I2240
sS'CAACTA'
p1924
I1483
sS'ATTTAC'
p1925
I4158
sS'GTGAAT'
p1926
I1512
sS'TTGACC'
p1927
I5290
sS'GGAGGG'
p1928
I4697
sS'AAAAGT'
p1929
I2133
sS'GGAGGA'
p1930
I2708
sS'GGAGGC'
p1931
I2749
sS'TGGTAG'
p1932
I2196
sS'CGCCAT'
p1933
I1397
sS'GAGTGT'
p1934
I4743
sS'TGGTAC'
p1935
I1319
sS'TGGTAA'
p1936
I2102
sS'AAAAGG'
p1937
I6231
sS'GGAGGT'
p1938
I1065
sS'AGCCAT'
p1939
I3326
sS'AAAAGC'
p1940
I3943
sS'CATTCA'
p1941
I12192
sS'AAAAGA'
p1942
I5732
sS'TCTATA'
p1943
I2603
sS'GAGTGG'
p1944
I9855
sS'CGCCAG'
p1945
I5075
sS'TGGTAT'
p1946
I1323
sS'CGCCAA'
p1947
I1942
sS'GAGTGC'
p1948
I6512
sS'CGCCAC'
p1949
I4170
sS'GAGTGA'
p1950
I7802
sS'GCCAGG'
p1951
I17844
sS'GCCAGA'
p1952
I7874
sS'GCCAGC'
p1953
I10635
sS'GCCCGT'
p1954
I1507
sS'CAATCC'
p1955
I2611
sS'TACCGA'
p1956
I926
sS'TACCGC'
p1957
I1536
sS'TACCGG'
p1958
I1636
sS'GCCCGC'
p1959
I8626
sS'GCCAGT'
p1960
I4453
sS'GCCCGA'
p1961
I2816
sS'GCCCGG'
p1962
I9675
sS'TGCGAT'
p1963
I466
sS'CTTCAC'
p1964
I4135
sS'CTTCAA'
p1965
I4013
sS'CTTCAG'
p1966
I6568
sS'TCCGAG'
p1967
I2381
sS'TCCGAA'
p1968
I872
sS'TCCGAC'
p1969
I1198
sS'AATTCA'
p1970
I7788
sS'TATTAG'
p1971
I4138
sS'AATTCC'
p1972
I8323
sS'ATTAGG'
p1973
I2299
sS'AATTCG'
p1974
I1172
sS'TCCGAT'
p1975
I390
sS'ACATAC'
p1976
I891
sS'TAGCGG'
p1977
I1392
sS'AATTCT'
p1978
I6196
sS'TAGCGC'
p1979
I1071
sS'GTCATC'
p1980
I5912
sS'GTCATA'
p1981
I4782
sS'GTCATG'
p1982
I8125
sS'AGCAGG'
p1983
I18296
sS'CCAGGT'
p1984
I873
sS'TTGGAA'
p1985
I2638
sS'AGCAGC'
p1986
I15198
sS'AGCAGA'
p1987
I11773
sS'GTCATT'
p1988
I3203
sS'ACGACC'
p1989
I886
sS'CCAGGG'
p1990
I2879
sS'AGCAGT'
p1991
I6923
sS'CCAGGA'
p1992
I1996
sS'CCAGGC'
p1993
I2419
sS'AGCGCT'
p1994
I3353
sS'ATAGAG'
p1995
I1129
sS'CATCTG'
p1996
I11998
sS'ACGGTC'
p1997
I586
sS'CATCTA'
p1998
I5468
sS'GATCGA'
p1999
I932
sS'CATCTC'
p2000
I8343
sS'ACGGTG'
p2001
I1351
sS'GGGGTC'
p2002
I2512
sS'CAAGCC'
p2003
I4274
sS'CATCTT'
p2004
I2555
sS'CAAGCA'
p2005
I3836
sS'CAAGCG'
p2006
I1094
sS'ACTCGA'
p2007
I618
sS'GTTCTT'
p2008
I1855
sS'ACATGA'
p2009
I1500
sS'CGTAAT'
p2010
I352
sS'ACATGC'
p2011
I1407
sS'ACATGG'
p2012
I2000
sS'AGGGAT'
p2013
I1272
sS'GGCCAT'
p2014
I2213
sS'CGTAAG'
p2015
I968
sS'GTTCTG'
p2016
I8721
sS'ACATGT'
p2017
I1178
sS'GTTCTA'
p2018
I4082
sS'CGTAAA'
p2019
I871
sS'AGGGAG'
p2020
I8021
sS'ACGGAA'
p2021
I461
sS'GGATAC'
p2022
I427
sS'CCCGCC'
p2023
I18487
sS'CCCGCA'
p2024
I4646
sS'GAGTCG'
p2025
I2933
sS'AGCGCA'
p2026
I3689
sS'GTTGTT'
p2027
I1322
sS'ATCCTT'
p2028
I2169
sS'TTGTCG'
p2029
I1096
sS'TTGTCC'
p2030
I8482
sS'TTGTCA'
p2031
I7268
sS'ATCCTC'
p2032
I6399
sS'GTTGTA'
p2033
I3151
sS'ATCCTA'
p2034
I4230
sS'GTTGTC'
p2035
I2642
sS'ATCCTG'
p2036
I9320
sS'GTTGTG'
p2037
I5267
sS'TTGTCT'
p2038
I6940
sS'ACCTCA'
p2039
I9346
sS'CCACTG'
p2040
I3595
sS'TCTTGC'
p2041
I4321
sS'TGGGCC'
p2042
I8368
sS'TGACTC'
p2043
I2171
sS'TGGGCA'
p2044
I7114
sS'TGGGCG'
p2045
I3099
sS'TGACTG'
p2046
I2935
sS'AAGCCG'
p2047
I3079
sS'AAGCCC'
p2048
I9594
sS'AAGCCA'
p2049
I9702
sS'CAAAAT'
p2050
I996
sS'CTATGG'
p2051
I2549
sS'TGGGCT'
p2052
I4650
sS'CAAAAC'
p2053
I2647
sS'CAAAAA'
p2054
I2393
sS'AAGCCT'
p2055
I6015
sS'CAAAAG'
p2056
I3608
sS'TGATTT'
p2057
I844
sS'TCAATG'
p2058
I2586
sS'AAACTT'
p2059
I775
sS'TCAATC'
p2060
I1077
sS'TCAATA'
p2061
I2479
sS'CAGTTC'
p2062
I6152
sS'GACCCG'
p2063
I5454
sS'GACCCA'
p2064
I10767
sS'GACCCC'
p2065
I11938
sS'CTCTGT'
p2066
I13101
sS'TCAATT'
p2067
I526
sS'TGGCGT'
p2068
I812
sS'CTCTGC'
p2069
I22006
sS'GACCCT'
p2070
I8591
sS'CTCTGA'
p2071
I14740
sS'ACAATC'
p2072
I1086
sS'CTCTGG'
p2073
I21512
sS'CAGTTT'
p2074
I2539
sS'GCGAAG'
p2075
I1164
sS'CTACTC'
p2076
I1887
sS'TGCTGG'
p2077
I18612
sS'CGAGGT'
p2078
I373
sS'TGCTGA'
p2079
I11260
sS'GAGTCT'
p2080
I7511
sS'TGCTGC'
p2081
I15401
sS'TAGGGA'
p2082
I3517
sS'GCTGGT'
p2083
I1641
sS'GTGATT'
p2084
I1391
sS'CTACTA'
p2085
I1763
sS'TGCTGT'
p2086
I9589
sS'TCCCCA'
p2087
I11538
sS'TAATGG'
p2088
I2280
sS'TCGCTA'
p2089
I703
sS'ATGCGG'
p2090
I957
sS'GTGATG'
p2091
I6130
sS'GCTGGG'
p2092
I10516
sS'GTGATC'
p2093
I3094
sS'GCTGGC'
p2094
I4483
sS'GTGATA'
p2095
I3258
sS'GCTGGA'
p2096
I4540
sS'TGATAA'
p2097
I1052
sS'TGTAGT'
p2098
I3288
sS'TGATAC'
p2099
I530
sS'TGATAG'
p2100
I817
sS'CTTGTT'
p2101
I1874
sS'GACGGT'
p2102
I1427
sS'GCTAGG'
p2103
I3533
sS'GCTAGA'
p2104
I2120
sS'ATGAAT'
p2105
I1599
sS'GCTAGC'
p2106
I1691
sS'ATAGGG'
p2107
I1089
sS'TGATAT'
p2108
I491
sS'GCTAGT'
p2109
I1149
sS'ATGAAC'
p2110
I2400
sS'GACGGG'
p2111
I5434
sS'ATGAAA'
p2112
I3715
sS'GACGGA'
p2113
I2677
sS'ATGAAG'
p2114
I3783
sS'GACGGC'
p2115
I3737
sS'CTTGTC'
p2116
I4238
sS'CTAACT'
p2117
I2019
sS'CTACTT'
p2118
I742
sS'GNCCGC'
p2119
I1
sS'CAACGT'
p2120
I229
sS'GGTGAA'
p2121
I2921
sS'GGTGAC'
p2122
I4035
sS'GCGTCT'
p2123
I1473
sS'TGTAAA'
p2124
I6963
sS'GGTGAG'
p2125
I5799
sS'GGAATG'
p2126
I4447
sS'CGTCCT'
p2127
I1837
sS'GGAATC'
p2128
I1505
sS'TAATGT'
p2129
I1752
sS'GCGTCA'
p2130
I1663
sS'GCGTCC'
p2131
I3658
sS'GGTGAT'
p2132
I1100
sS'GCGTCG'
p2133
I1003
sS'CAAACT'
p2134
I2733
sS'CGTCCG'
p2135
I1495
sS'GGAATT'
p2136
I681
sS'CGTCCC'
p2137
I4052
sS'CGTCCA'
p2138
I1998
sS'CCGTAT'
p2139
I198
sS'GAAGTC'
p2140
I3270
sS'GAAGTA'
p2141
I3141
sS'GCCGTC'
p2142
I2675
sS'GCCGTA'
p2143
I1339
sS'CCGTAC'
p2144
I338
sS'CCGTAA'
p2145
I315
sS'TTCGAA'
p2146
I915
sS'GCACTA'
p2147
I1192
sS'CTAAAA'
p2148
I1887
sS'GAAGTT'
p2149
I925
sS'GGCGCG'
p2150
I6279
sS'ATGCCC'
p2151
I5525
sS'TTAGTT'
p2152
I646
sS'ATGCCA'
p2153
I5723
sS'GGCGCC'
p2154
I9519
sS'TATTAA'
p2155
I6104
sS'GGCGCA'
p2156
I4311
sS'TATTAC'
p2157
I3751
sS'ACTATG'
p2158
I2841
sS'CCATAT'
p2159
I517
sS'TTTAAG'
p2160
I5527
sS'ACTATC'
p2161
I1297
sS'TTTAAA'
p2162
I9743
sS'ACTATA'
p2163
I1973
sS'TTTAAC'
p2164
I4441
sS'TATTAT'
p2165
I3570
sS'TTAGTG'
p2166
I2570
sS'GGCGCT'
p2167
I3911
sS'TTAGTC'
p2168
I1447
sS'ATGCCT'
p2169
I4442
sS'TTAGTA'
p2170
I2111
sS'TTTAAT'
p2171
I2448
sS'CTAACG'
p2172
I729
sS'GGGCAT'
p2173
I1374
sS'TTTCCG'
p2174
I1923
sS'TTTCCA'
p2175
I7263
sS'TTTCCC'
p2176
I8760
sS'GTACGT'
p2177
I215
sS'TATCGA'
p2178
I514
sS'GTTTGT'
p2179
I6461
sS'TTTCCT'
p2180
I6053
sS'GGGCAG'
p2181
I7628
sS'CCTGGA'
p2182
I4050
sS'GGGCAA'
p2183
I2639
sS'ATCCGT'
p2184
I569
sS'GGGCAC'
p2185
I3266
sS'GTACGG'
p2186
I418
sS'GTTTGA'
p2187
I5405
sS'GTTTGG'
p2188
I6385
sS'GTACGA'
p2189
I204
sS'CCGCTC'
p2190
I2375
sS'GCATGT'
p2191
I1355
sS'TTCGAT'
p2192
I354
sS'CCGCTG'
p2193
I3474
sS'AGCATT'
p2194
I3556
sS'GCGCGG'
p2195
I3107
sS'GCGCGC'
p2196
I2632
sS'GCGCGA'
p2197
I844
sS'GCATGG'
p2198
I2045
sS'GCATGC'
p2199
I1615
sS'CCGCTT'
p2200
I557
sS'TGACCT'
p2201
I1641
sS'GTCGAC'
p2202
I720
sS'GCGCGT'
p2203
I639
sS'GTCGAG'
p2204
I1407
sS'AGACAT'
p2205
I654
sS'ACCGAG'
p2206
I1742
sS'TGCGCT'
p2207
I2465
sS'GAGCTC'
p2208
I10303
sS'ATTGAT'
p2209
I672
sS'TGTCCT'
p2210
I5635
sS'CAATAT'
p2211
I619
sS'AAACGC'
p2212
I807
sS'GTAACA'
p2213
I3293
sS'GTAGTA'
p2214
I1467
sS'AAACGG'
p2215
I956
sS'TGTCCC'
p2216
I8322
sS'TGCGCG'
p2217
I3116
sS'TGTCCA'
p2218
I6709
sS'TGTCCG'
p2219
I1920
sS'TGCGCC'
p2220
I5185
sS'ATTGAG'
p2221
I2068
sS'TGCGCA'
p2222
I3357
sS'CACGCA'
p2223
I4170
sS'AAACGT'
p2224
I434
sS'TGGGTT'
p2225
I1187
sS'TCTCAT'
p2226
I1591
sS'ATTTCA'
p2227
I7334
sS'ATTTCC'
p2228
I6943
sS'ATCAGT'
p2229
I3095
sS'ATCGGG'
p2230
I1037
sS'CATAGT'
p2231
I2417
sS'AAATCA'
p2232
I3709
sS'GCAGCA'
p2233
I3612
sS'ATCGGA'
p2234
I575
sS'TGGGTG'
p2235
I7018
sS'CGATCA'
p2236
I366
sS'TGGGTC'
p2237
I3112
sS'TTTCGG'
p2238
I1329
sS'TGGGTA'
p2239
I3352
sS'CATAGG'
p2240
I3803
sS'ATCGGT'
p2241
I288
sS'ATCAGG'
p2242
I5832
sS'ATCAGA'
p2243
I5185
sS'CATAGA'
p2244
I3676
sS'GGTCAA'
p2245
I3060
sS'ACGGGT'
p2246
I237
sS'GTCTGA'
p2247
I8162
sS'ATTCGG'
p2248
I758
sS'GATTCT'
p2249
I7077
sS'CTTTTG'
p2250
I12635
sS'TACTAG'
p2251
I4054
sS'CTTTTC'
p2252
I10845
sS'CAGCAA'
p2253
I4782
sS'CTTTTA'
p2254
I10623
sS'GATTCC'
p2255
I8756
sS'GATTCA'
p2256
I8418
sS'ACGGGA'
p2257
I777
sS'ACGGGC'
p2258
I777
sS'TACTAT'
p2259
I3211
sS'CTTTTT'
p2260
I3796
sS'ACCAAC'
p2261
I3266
sS'TCACGA'
p2262
I245
sS'TCACGC'
p2263
I492
sS'CGATTG'
p2264
I663
sS'TCACGG'
p2265
I561
sS'ACCGAT'
p2266
I218
sS'TCACGT'
p2267
I325
sS'AGTGGA'
p2268
I3656
sS'TTCCAC'
p2269
I6785
sS'TTCCAA'
p2270
I7172
sS'TTCCAG'
p2271
I11871
sS'ACCCTT'
p2272
I1882
sS'TGAAGT'
p2273
I1828
sS'CCACAT'
p2274
I621
sS'TTCCAT'
p2275
I3440
sS'ACCCTA'
p2276
I3693
sS'ACCCTC'
p2277
I6181
sS'TGAAGG'
p2278
I4008
sS'ACCCTG'
p2279
I10320
sS'CTGACT'
p2280
I5265
sS'CCCCTT'
p2281
I3308
sS'AGTTAT'
p2282
I1968
sS'ACATAT'
p2283
I648
sS'CTGACG'
p2284
I2039
sS'CTGACC'
p2285
I9547
sS'CTGACA'
p2286
I6500
sS'AGTTAA'
p2287
I4963
sS'CCCCTG'
p2288
I13416
sS'AGTTAC'
p2289
I3452
sS'CCCCTC'
p2290
I13408
sS'AGTTAG'
p2291
I3655
sS'CCCCTA'
p2292
I5410
sS'ACACAG'
p2293
I1942
sS'ACACAA'
p2294
I1246
sS'ACACAC'
p2295
I1866
sS'AATGTT'
p2296
I2771
sS'CTGCAG'
p2297
I11390
sS'CATGGG'
p2298
I5154
sS'CTGCAC'
p2299
I6180
sS'CATGGC'
p2300
I4209
sS'AATGTC'
p2301
I4888
sS'ACACAT'
p2302
I760
sS'AATGTA'
p2303
I6584
sS'AATGTG'
p2304
I9145
sS'CATGGT'
p2305
I2124
sS'CTGCAT'
p2306
I2508
sS'GCACAG'
p2307
I1668
sS'CCACAG'
p2308
I1534
sS'ATGTTC'
p2309
I3891
sS'CGAGAT'
p2310
I149
sS'ATTACT'
p2311
I2129
sS'CACAAT'
p2312
I3743
sS'ACATTG'
p2313
I2767
sS'ACATTA'
p2314
I2380
sS'ACATTC'
p2315
I2639
sS'ATTACA'
p2316
I4708
sS'CCACAC'
p2317
I1006
sS'ATTACC'
p2318
I2512
sS'CGAGAC'
p2319
I453
sS'GTTCGG'
p2320
I1342
sS'AAGTCT'
p2321
I5560
sS'CCACAA'
p2322
I810
sS'GGACAT'
p2323
I472
sS'CAGCGT'
p2324
I1223
sS'GCTATA'
p2325
I1866
sS'GCTATC'
p2326
I1409
sS'AAGTCG'
p2327
I1515
sS'AACCTA'
p2328
I5305
sS'AAGTCA'
p2329
I9086
sS'GCTATG'
p2330
I3413
sS'AAGTCC'
p2331
I9433
sS'GGACAG'
p2332
I1410
sS'GGACAC'
p2333
I904
sS'GGACAA'
p2334
I796
sS'CTAATT'
p2335
I793
sS'AGGGTT'
p2336
I1303
sS'GAGGCG'
p2337
I9223
sS'TGTTGG'
p2338
I6782
sS'GAGGCA'
p2339
I14956
sS'TGTTGA'
p2340
I6920
sS'GAGGCC'
p2341
I20783
sS'TGTTGC'
p2342
I6060
sS'CAATGT'
p2343
I1348
sS'TAAAAT'
p2344
I1823
sS'ACTCGC'
p2345
I1108
sS'ACTCGG'
p2346
I1642
sS'TGTTGT'
p2347
I4766
sS'GAGGCT'
p2348
I10896
sS'AGCGCC'
p2349
I7269
sS'AGGGTG'
p2350
I7249
sS'AGGGTA'
p2351
I3161
sS'AGCGCG'
p2352
I4351
sS'AGGGTC'
p2353
I3537
sS'TAAAAG'
p2354
I4186
sS'ACTCGT'
p2355
I387
sS'TAAAAC'
p2356
I2929
sS'TAAAAA'
p2357
I3602
sS'ACGTTC'
p2358
I918
sS'AGCTGC'
p2359
I15962
sS'ACGTTA'
p2360
I860
sS'AGCTGA'
p2361
I11667
sS'ACGTTG'
p2362
I1171
sS'AGCTGG'
p2363
I18486
sS'TAGGGG'
p2364
I4172
sS'AGTGCG'
p2365
I2017
sS'AGTGCA'
p2366
I6337
sS'AGAGTT'
p2367
I784
sS'AGTGCC'
p2368
I5796
sS'AAAACC'
p2369
I4903
sS'TAGGGT'
p2370
I1476
sS'AGCTGT'
p2371
I8904
sS'ACGTTT'
p2372
I416
sS'AGTGCT'
p2373
I4363
sS'AGAGTC'
p2374
I2194
sS'AGAGTA'
p2375
I2207
sS'AGAGTG'
p2376
I3857
sS'TTCGTA'
p2377
I1135
sS'GTTAAA'
p2378
I4322
sS'CCTGGC'
p2379
I5276
sS'GTTAAC'
p2380
I2603
sS'GTCTGT'
p2381
I7718
sS'CCTGGG'
p2382
I9102
sS'GTTAAG'
p2383
I3701
sS'TAACCA'
p2384
I2166
sS'GCACCC'
p2385
I1662
sS'GTCTGG'
p2386
I12534
sS'GTCTGC'
p2387
I9629
sS'GTTAAT'
p2388
I1774
sS'CCTGGT'
p2389
I1670
sS'ACCGCT'
p2390
I1349
sS'GGAAGG'
p2391
I6605
sS'ATGCTT'
p2392
I2146
sS'GGAAGC'
p2393
I3666
sS'GCACCG'
p2394
I680
sS'GGAAGA'
p2395
I3467
sS'GCGTTA'
p2396
I914
sS'TCCTCT'
p2397
I13596
sS'GCGTTC'
p2398
I1389
sS'CAATGC'
p2399
I1694
sS'AAACCG'
p2400
I595
sS'GCGTTG'
p2401
I1600
sS'CAATGG'
p2402
I2710
sS'ATGCTG'
p2403
I8726
sS'GGAAGT'
p2404
I2128
sS'ATGCTC'
p2405
I4483
sS'ATGCTA'
p2406
I3742
sS'AAACCA'
p2407
I3204
sS'TCCTCG'
p2408
I4755
sS'TGTATG'
p2409
I5056
sS'TCCTCA'
p2410
I14317
sS'TGTATA'
p2411
I4238
sS'TCCTCC'
p2412
I25466
sS'TGTATC'
p2413
I2688
sS'CGTTAG'
p2414
I1078
sS'TAACCG'
p2415
I399
sS'TCATAG'
p2416
I1046
sS'TTCGTG'
p2417
I2121
sS'CGTTAC'
p2418
I891
sS'TAACCC'
p2419
I1715
sS'CGTTAA'
p2420
I934
sS'TTCGTC'
p2421
I1350
sS'CCTGTG'
p2422
I10555
sS'TCGCGA'
p2423
I374
sS'TGCATG'
p2424
I9105
sS'TCAGGA'
p2425
I1368
sS'TTCGTT'
p2426
I660
sS'TACCCT'
p2427
I4565
sS'TAACCT'
p2428
I1353
sS'GTGAAG'
p2429
I5063
sS'GTGAAA'
p2430
I4009
sS'GTGAAC'
p2431
I2967
sS'CAATAG'
p2432
I1240
sS'TGCATA'
p2433
I5877
sS'ACCGCG'
p2434
I2069
sS'ACCGCA'
p2435
I2258
sS'AACGAG'
p2436
I1832
sS'ACCGCC'
p2437
I4278
sS'AGTTCC'
p2438
I8066
sS'CCGCCT'
p2439
I2468
sS'AGGCTT'
p2440
I2959
sS'CCTTCT'
p2441
I6277
sS'GTTGCA'
p2442
I4039
sS'AACGAA'
p2443
I1468
sS'GATCAA'
p2444
I4872
sS'GTGCCG'
p2445
I3258
sS'GTGCCA'
p2446
I8342
sS'GTTGCG'
p2447
I1141
sS'GTGCCC'
p2448
I11170
sS'CCGCCG'
p2449
I2420
sS'AGGCTA'
p2450
I4617
sS'CCTTCC'
p2451
I14549
sS'AGGCTC'
p2452
I7779
sS'CCGCCC'
p2453
I7619
sS'TGTCGA'
p2454
I703
sS'CCTTCG'
p2455
I2544
sS'AGGCTG'
p2456
I17853
sS'GTGCCT'
p2457
I8194
sS'GTTGCT'
p2458
I2700
sS'NNNGCG'
p2459
I1
sS'GCCGTT'
p2460
I636
sS'ATAGGT'
p2461
I455
sS'TCGGGT'
p2462
I352
sS'AAACCT'
p2463
I1489
sS'GCAGTT'
p2464
I562
sS'GAAGCT'
p2465
I3678
sS'TCGGGC'
p2466
I1010
sS'TCGGGA'
p2467
I798
sS'NNNNNG'
p2468
I2
sS'TCGGGG'
p2469
I1655
sS'GGATAG'
p2470
I527
sS'GAAGCG'
p2471
I2548
sS'GCAGTG'
p2472
I4461
sS'GAAGCC'
p2473
I8006
sS'GCAGTA'
p2474
I1710
sS'GAAGCA'
p2475
I6583
sS'GCAGTC'
p2476
I1533
sS'CGCCCG'
p2477
I6733
sS'GAGAGA'
p2478
I13348
sS'GTTCAT'
p2479
I1426
sS'GAGAGG'
p2480
I18929
sS'CGCCCA'
p2481
I6335
sS'CTACAA'
p2482
I1225
sS'GCATTG'
p2483
I2835
sS'NNNNNN'
p2484
I1
sS'GCATTC'
p2485
I2381
sS'ACGCAA'
p2486
I370
sS'CTCGCA'
p2487
I2929
sS'ACGTAC'
p2488
I318
sS'CTCGCG'
p2489
I3308
sS'AAACAT'
p2490
I1245
sS'ACGCAT'
p2491
I247
sS'AACTGA'
p2492
I8657
sS'GCCGGG'
p2493
I10182
sS'TACCCG'
p2494
I1808
sS'GCCGGC'
p2495
I5890
sS'CATGTT'
p2496
I2200
sS'GCCGGA'
p2497
I3158
sS'AGATCT'
p2498
I1481
sS'ACGTAG'
p2499
I481
sS'GCCACT'
p2500
I7713
sS'CATGTA'
p2501
I5187
sS'CATGTC'
p2502
I4551
sS'GCCGGT'
p2503
I1182
sS'CATGTG'
p2504
I9822
sS'AGTTCG'
p2505
I1709
sS'ATTAAC'
p2506
I2781
sS'TACCCC'
p2507
I4993
sS'GTTGCC'
p2508
I4166
sS'GGCCTG'
p2509
I17814
sS'GGCCTC'
p2510
I14370
sS'GGCCTA'
p2511
I4678
sS'TTTGTT'
p2512
I3559
sS'AATCGG'
p2513
I1357
sS'AATCGC'
p2514
I1359
sS'AATCGA'
p2515
I866
sS'GTTCAG'
p2516
I4928
sS'GGCCTT'
p2517
I3519
sS'TCACTA'
p2518
I1602
sS'CAGCGA'
p2519
I1903
sS'ATCGGC'
p2520
I761
sS'AATCGT'
p2521
I644
sS'TGGATT'
p2522
I1144
sS'AGCCGA'
p2523
I3223
sS'CCTTCA'
p2524
I7705
sS'AGCCGC'
p2525
I7213
sS'TAATTG'
p2526
I2508
sS'TAATTA'
p2527
I3270
sS'AGCCGG'
p2528
I7329
sS'GTTTTT'
p2529
I2855
sS'TGGTGA'
p2530
I4139
sS'GATGGA'
p2531
I5054
sS'TGGTGC'
p2532
I3866
sS'GATGGC'
p2533
I4748
sS'GGGCTG'
p2534
I14963
sS'TGGTGG'
p2535
I6767
sS'GATGGG'
p2536
I7739
sS'GTTTTC'
p2537
I7979
sS'GAGCGG'
p2538
I6626
sS'GTTTTG'
p2539
I10715
sS'AGCCGT'
p2540
I1708
sS'GAGCGC'
p2541
I5468
sS'TGACAG'
p2542
I1525
sS'CCAAGG'
p2543
I3218
sS'ACGTAT'
p2544
I192
sS'TCTCAG'
p2545
I5386
sS'GATGGT'
p2546
I2215
sS'TGGTGT'
p2547
I3567
sS'TCTCAC'
p2548
I3292
sS'AGAACT'
p2549
I2942
sS'GCGTTT'
p2550
I567
sS'CCGCCA'
p2551
I2347
sS'TACCAT'
p2552
I2239
sS'AGATAG'
p2553
I1107
sS'ACCCGG'
p2554
I3494
sS'ACCCGA'
p2555
I1357
sS'ATGTCT'
p2556
I4257
sS'ACCCGC'
p2557
I2989
sS'ACCAGT'
p2558
I2547
sS'TACCAC'
p2559
I4013
sS'AGAACG'
p2560
I1106
sS'GTAACG'
p2561
I684
sS'AGAACA'
p2562
I5773
sS'TACCAG'
p2563
I5267
sS'AGAACC'
p2564
I3917
sS'ATGTCA'
p2565
I6569
sS'CACTGG'
p2566
I14329
sS'ATGTCC'
p2567
I5857
sS'TGACAA'
p2568
I969
sS'ACCAGG'
p2569
I8277
sS'CACTGC'
p2570
I16195
sS'CCTATC'
p2571
I1808
sS'CACTGA'
p2572
I11544
sS'TCATTA'
p2573
I3128
sS'TAGGTT'
p2574
I1089
sS'GTTTAC'
p2575
I5274
sS'AATTAT'
p2576
I2463
sS'CTGTTG'
p2577
I10293
sS'TGCTAT'
p2578
I3360
sS'TGGATC'
p2579
I2280
sS'CGGGTT'
p2580
I426
sS'CTGTTA'
p2581
I7101
sS'AATTAC'
p2582
I3519
sS'AATTAA'
p2583
I4996
sS'CATGGA'
p2584
I3874
sS'AATTAG'
p2585
I3821
sS'TAGGTC'
p2586
I2546
sS'CGGGTC'
p2587
I1854
sS'CTGTTT'
p2588
I5185
sS'CGGGTA'
p2589
I1008
sS'CGGGTG'
p2590
I2915
sS'CTTCGG'
p2591
I2311
sS'AAGTAA'
p2592
I4352
sS'CATTAC'
p2593
I3802
sS'TTAGGG'
p2594
I1565
sS'ATATAT'
p2595
I994
sS'AGCAAC'
p2596
I6625
sS'TTAGGC'
p2597
I989
sS'AAAGCT'
p2598
I3086
sS'TTAGGA'
p2599
I1341
sS'AAAGCA'
p2600
I7256
sS'GGATAT'
p2601
I316
sS'AAAGCC'
p2602
I6162
sS'TTAGGT'
p2603
I657
sS'TCATTG'
p2604
I4020
sS'AGCAAT'
p2605
I4037
sS'AAAGCG'
p2606
I1454
sS'TACTTC'
p2607
I8276
sS'TACTTA'
p2608
I9295
sS'TACTTG'
p2609
I9413
sS'ATAGCG'
p2610
I377
sS'TGCTAA'
p2611
I6745
sS'ACGGCT'
p2612
I621
sS'ATAGCT'
p2613
I1188
sS'TACTTT'
p2614
I5885
sS'CTTCGA'
p2615
I956
sS'CGAGTT'
p2616
I172
sS'TCCAAT'
p2617
I2285
sS'CGTACT'
p2618
I657
sS'TCCCGT'
p2619
I1320
sS'TATGCT'
p2620
I3354
sS'CTTAAG'
p2621
I3285
sS'ACATAA'
p2622
I1037
sS'CTTAAA'
p2623
I4144
sS'AGGGGT'
p2624
I1908
sS'CTTAAC'
p2625
I2872
sS'TCCAAG'
p2626
I7016
sS'CGAGTG'
p2627
I1019
sS'TTGTTA'
p2628
I6960
sS'TCCAAC'
p2629
I4540
sS'TCCAAA'
p2630
I6548
sS'AGGGGA'
p2631
I4907
sS'CTTAAT'
p2632
I1356
sS'AGGGGC'
p2633
I5227
sS'TATGCA'
p2634
I5624
sS'AGGGGG'
p2635
I5847
sS'CGTTTG'
p2636
I3098
sS'CGACTT'
p2637
I145
sS'TGAATT'
p2638
I762
sS'TTGTAA'
p2639
I3227
sS'CACAAA'
p2640
I9958
sS'TTGTAC'
p2641
I2476
sS'GTACCT'
p2642
I1005
sS'TTGTAG'
p2643
I3153
sS'TGAATC'
p2644
I1831
sS'ACAACA'
p2645
I3048
sS'TGAATA'
p2646
I2985
sS'CGACTC'
p2647
I483
sS'TGAATG'
p2648
I4705
sS'AAGTAT'
p2649
I1708
sS'CGACTG'
p2650
I709
sS'TTGTAT'
p2651
I2083
sS'ATCGTG'
p2652
I1406
sS'GCTTCG'
p2653
I2244
sS'GCTTCA'
p2654
I6601
sS'GCTTCC'
p2655
I11275
sS'TGGGAG'
p2656
I5708
sS'TGGGAA'
p2657
I3247
sS'TGGGAC'
p2658
I2695
sS'GCTTCT'
p2659
I5432
sS'ATCGTT'
p2660
I308
sS'ACAACG'
p2661
I486
sS'TGGGAT'
p2662
I1217
sS'CTAGCC'
p2663
I2885
sS'GACCAT'
p2664
I2490
sS'CTAGCG'
p2665
I772
sS'CGGTGA'
p2666
I1385
sS'CGGTAG'
p2667
I766
sS'ACTTAG'
p2668
I2696
sS'TAGATT'
p2669
I1114
sS'ACTTAA'
p2670
I2856
sS'CGGTAC'
p2671
I478
sS'ACTTAC'
p2672
I1944
sS'CGGTAA'
p2673
I538
sS'GACCAG'
p2674
I9904
sS'GACCAC'
p2675
I6382
sS'CTAGCT'
p2676
I1681
sS'TTCGAG'
p2677
I1313
sS'TACACC'
p2678
I5429
sS'CGGTAT'
p2679
I258
sS'TACACA'
p2680
I12515
sS'TACACG'
p2681
I2091
sS'GCGAGA'
p2682
I1291
sS'GAGAGC'
p2683
I9570
sS'GCGAGC'
p2684
I1716
sS'GGCCGT'
p2685
I1832
sS'GCGAGG'
p2686
I3337
sS'CAGCCG'
p2687
I4134
sS'CAGCCA'
p2688
I10876
sS'GGTATT'
p2689
I859
sS'CAGCCC'
p2690
I14711
sS'GCGAGT'
p2691
I617
sS'CGCCCC'
p2692
I15713
sS'GAACTC'
p2693
I2745
sS'GAACTA'
p2694
I2419
sS'GGACTT'
p2695
I628
sS'CACCTA'
p2696
I6723
sS'AACTAT'
p2697
I3136
sS'CACCTC'
p2698
I12767
sS'CACCTG'
p2699
I16088
sS'TGATCC'
p2700
I2191
sS'AACACT'
p2701
I9156
sS'TGATCA'
p2702
I2053
sS'TGATCG'
p2703
I347
sS'AACTAG'
p2704
I5077
sS'GGACTG'
p2705
I2403
sS'CACCTT'
p2706
I3472
sS'GGACTA'
p2707
I1142
sS'AACTAA'
p2708
I6126
sS'AACGAT'
p2709
I503
sS'AACACG'
p2710
I3239
sS'AACACA'
p2711
I15765
sS'AACACC'
p2712
I9413
sS'TGATCT'
p2713
I1787
sS'AAAGAC'
p2714
I2583
sS'ACGCAC'
p2715
I615
sS'CAACAG'
p2716
I1860
sS'GACAGT'
p2717
I7141
sS'CAACAA'
p2718
I1452
sS'AAAGAA'
p2719
I4082
sS'CAACAC'
p2720
I1146
sS'GCTGAT'
p2721
I1040
sS'GCATTA'
p2722
I1946
sS'GACAGG'
p2723
I16915
sS'AAAGAG'
p2724
I4557
sS'GACAGC'
p2725
I12124
sS'GACAGA'
p2726
I14274
sS'GTATTA'
p2727
I2841
sS'GTATTC'
p2728
I2102
sS'GTAAGT'
p2729
I1283
sS'ATATCA'
p2730
I2319
sS'GTATTG'
p2731
I2932
sS'GGTGGC'
p2732
I4240
sS'TCCCCT'
p2733
I7313
sS'GGTGGA'
p2734
I3586
sS'TATCTT'
p2735
I2803
sS'GGTGGG'
p2736
I8168
sS'AGAGGC'
p2737
I2935
sS'GTAAGA'
p2738
I1936
sS'AGAGGA'
p2739
I2819
sS'CGCCCT'
p2740
I5330
sS'AGAGGG'
p2741
I4094
sS'GTAAGG'
p2742
I2492
sS'CGTCAA'
p2743
I786
sS'TATCTC'
p2744
I5817
sS'TCCCCC'
p2745
I9084
sS'GGTGGT'
p2746
I1590
sS'TATCTG'
p2747
I8163
sS'GTCGCG'
p2748
I1924
sS'GTCGCA'
p2749
I1803
sS'GTCGCC'
p2750
I4062
sS'CCGTCT'
p2751
I1363
sS'TCGGTA'
p2752
I528
sS'GAGAGT'
p2753
I4613
sS'TCGGTG'
p2754
I1329
sS'GTCGCT'
p2755
I1960
sS'GTAACT'
p2756
I2277
sS'CCGTCG'
p2757
I755
sS'CCGTCA'
p2758
I1366
sS'CCGTCC'
p2759
I3105
sS'GGCTGT'
p2760
I7747
sS'CGCGTG'
p2761
I2980
sS'ATACAT'
p2762
I526
sS'CGCGTC'
p2763
I2675
sS'CGCGTA'
p2764
I815
sS'GTTTTA'
p2765
I8485
sS'ATGCAG'
p2766
I3885
sS'CCACTA'
p2767
I1333
sS'ATGCAC'
p2768
I2379
sS'CGCGTT'
p2769
I527
sS'GGCTGG'
p2770
I21853
sS'GGCTGA'
p2771
I11007
sS'GGCTGC'
p2772
I17632
sS'CCACTT'
p2773
I668
sS'TTTAGA'
p2774
I4203
sS'ATGACG'
p2775
I1137
sS'GGAGTT'
p2776
I536
sS'ATGACA'
p2777
I5049
sS'ATGACC'
p2778
I4485
sS'CCTGAT'
p2779
I883
sS'GGGCCT'
p2780
I5766
sS'ATGACT'
p2781
I3745
sS'GGAGTA'
p2782
I1335
sS'CTACGC'
p2783
I453
sS'GGAGTC'
p2784
I1504
sS'GGAGTG'
p2785
I3027
sS'GGGCCG'
p2786
I4519
sS'GGGCCC'
p2787
I9642
sS'GGGCCA'
p2788
I6587
sS'CTGATC'
p2789
I2986
sS'ACGAGT'
p2790
I284
sS'AGGCCA'
p2791
I9669
sS'AGGCCC'
p2792
I11358
sS'GCGCAG'
p2793
I1955
sS'CAAATT'
p2794
I702
sS'AGTATC'
p2795
I2145
sS'ACGAGC'
p2796
I690
sS'ACGAGA'
p2797
I603
sS'GGCAAC'
p2798
I5116
sS'AGGCCT'
p2799
I7129
sS'AGACGG'
p2800
I818
sS'GGGTTG'
p2801
I5084
sS'TTTGGG'
p2802
I4469
sS'GGGTTA'
p2803
I3302
sS'GGGTTC'
p2804
I3392
sS'TTTGAT'
p2805
I1637
sS'ACTTAT'
p2806
I1090
sS'CTACGA'
p2807
I300
sS'ATTGCT'
p2808
I1907
sS'GGGTTT'
p2809
I1822
sS'TGCGAC'
p2810
I1302
sS'AGAAAT'
p2811
I1441
sS'TGCGAG'
p2812
I2273
sS'ATTGCC'
p2813
I2447
sS'AGACGC'
p2814
I780
sS'AACGGA'
p2815
I1556
sS'TTTGGC'
p2816
I2956
sS'AACGGG'
p2817
I2395
sS'TTTGAC'
p2818
I3104
sS'TTTGAA'
p2819
I5544
sS'CGGGCT'
p2820
I2334
sS'TGACGT'
p2821
I345
sS'CTCGTC'
p2822
I2342
sS'CCCTGG'
p2823
I16782
sS'CCCTGA'
p2824
I8805
sS'CTCGTG'
p2825
I3249
sS'CCCTGC'
p2826
I16233
sS'CCCTGT'
p2827
I6516
sS'AAGCTC'
p2828
I6601
sS'GATATA'
p2829
I3059
sS'AAGCTA'
p2830
I5177
sS'GATATG'
p2831
I4065
sS'AAGCTG'
p2832
I12155
sS'TGACGC'
p2833
I506
sS'TACTCT'
p2834
I7899
sS'CATCGT'
p2835
I752
sS'CAGGGT'
p2836
I2657
sS'CTACGG'
p2837
I590
sS'CCAGTC'
p2838
I1678
sS'TACGAT'
p2839
I367
sS'CCAGTG'
p2840
I3642
sS'TACTCG'
p2841
I1928
sS'CATCGA'
p2842
I924
sS'CATCGC'
p2843
I1681
sS'TACTCC'
p2844
I7676
sS'TACTCA'
p2845
I10315
sS'CATCGG'
p2846
I1440
sS'CAGGGG'
p2847
I8000
sS'AGGTGA'
p2848
I4959
sS'CAGGGA'
p2849
I6977
sS'CAGGGC'
p2850
I7897
sS'AATCTG'
p2851
I7487
sS'CGGACT'
p2852
I1392
sS'AATCTC'
p2853
I5093
sS'AATCTA'
p2854
I4465
sS'TGAACG'
p2855
I727
sS'TCACAC'
p2856
I899
sS'TCACAA'
p2857
I948
sS'TCACAG'
p2858
I1496
sS'GCCATA'
p2859
I3710
sS'CGGACG'
p2860
I1329
sS'TCCACC'
p2861
I12576
sS'CGGACA'
p2862
I1647
sS'CGGACC'
p2863
I2559
sS'GCCATG'
p2864
I9203
sS'CTTACC'
p2865
I3970
sS'TCACAT'
p2866
I657
sS'ACATCA'
p2867
I2630
sS'CACGGA'
p2868
I2186
sS'ATTAAA'
p2869
I4026
sS'ATTAAG'
p2870
I2809
sS'CTTACA'
p2871
I4055
sS'TCACTT'
p2872
I815
sS'TCCACG'
p2873
I3314
sS'GAACCG'
p2874
I819
sS'ATTAAT'
p2875
I1210
sS'TACCTG'
p2876
I8584
sS'GGTATG'
p2877
I2809
sS'GGTATA'
p2878
I1713
sS'GGTATC'
p2879
I1349
sS'CGAGAG'
p2880
I785
sS'CAATGA'
p2881
I2117
sS'ACGAAT'
p2882
I160
sS'CTGAAA'
p2883
I4024
sS'CTGAAC'
p2884
I3342
sS'CTGAAG'
p2885
I5806
sS'NNNNGC'
p2886
I1
sS'CCCGAA'
p2887
I1212
sS'TAGGTA'
p2888
I3401
sS'CATTGC'
p2889
I6202
sS'CCCGGC'
p2890
I7003
sS'CATTGA'
p2891
I5211
sS'CTAGTT'
p2892
I638
sS'CATTGG'
p2893
I6123
sS'TCAACT'
p2894
I1424
sS'ACCATC'
p2895
I3440
sS'ACACCG'
p2896
I420
sS'CTGCCA'
p2897
I13513
sS'CTGCCC'
p2898
I22085
sS'ACACCC'
p2899
I1532
sS'ACACCA'
p2900
I1444
sS'CTGCCG'
p2901
I6022
sS'CTAGTG'
p2902
I2702
sS'TCAACC'
p2903
I2059
sS'TCAACA'
p2904
I3428
sS'CTAGTC'
p2905
I1407
sS'TCAACG'
p2906
I441
sS'CTAGTA'
p2907
I1599
sS'CATTGT'
p2908
I5874
sS'TATGAC'
p2909
I2961
sS'GTAATG'
p2910
I2920
sS'ACACCT'
p2911
I865
sS'CTGCCT'
p2912
I14636
sS'CCTCGT'
p2913
I718
sS'TATGAA'
p2914
I3765
sS'AGACTG'
p2915
I3138
sS'TCACTG'
p2916
I4092
sS'AGACTA'
p2917
I1602
sS'CCTCGG'
p2918
I3657
sS'CCTCGC'
p2919
I3074
sS'CCCGAC'
p2920
I2160
sS'CCTCGA'
p2921
I1104
sS'CGAGGA'
p2922
I710
sS'CGAGGC'
p2923
I1128
sS'CGAGGG'
p2924
I1475
sS'CACCGT'
p2925
I1498
sS'ACTTTA'
p2926
I5944
sS'ACTTTG'
p2927
I10062
sS'GACCTG'
p2928
I14490
sS'GGACGT'
p2929
I296
sS'GACCTC'
p2930
I11140
sS'CACCGG'
p2931
I3919
sS'ACGCTG'
p2932
I2021
sS'CACCGA'
p2933
I2159
sS'CACCGC'
p2934
I5594
sS'GACCTT'
p2935
I5462
sS'GGACGC'
p2936
I829
sS'GGACGG'
p2937
I909
sS'CTATTA'
p2938
I3396
sS'CACAGC'
p2939
I14500
sS'CTTATC'
p2940
I3399
sS'CACAGA'
p2941
I13278
sS'CTTATA'
p2942
I2806
sS'CACAGG'
p2943
I16509
sS'TTAACT'
p2944
I2908
sS'ACTCAT'
p2945
I1345
sS'GAGGAG'
p2946
I15895
sS'GACGTA'
p2947
I1476
sS'CGTATC'
p2948
I554
sS'GACGTC'
p2949
I2938
sS'TAAACT'
p2950
I3253
sS'GAGGAA'
p2951
I9213
sS'GACGTG'
p2952
I4500
sS'TTAACA'
p2953
I4230
sS'ACTCAC'
p2954
I3102
sS'TTAACC'
p2955
I3468
sS'TTGTGA'
p2956
I4642
sS'ACTCAG'
p2957
I4921
sS'TTAACG'
p2958
I639
sS'CACAGT'
p2959
I8004
sS'AGCGAC'
p2960
I1919
sS'TAAACA'
p2961
I10348
sS'AGCGAA'
p2962
I1607
sS'TAAACC'
p2963
I3658
sS'GACGTT'
p2964
I1062
sS'TCTAAA'
p2965
I3085
sS'TAAACG'
p2966
I915
sS'CTGTGG'
p2967
I12083
sS'GTATGT'
p2968
I2012
sS'AGTTCA'
p2969
I9708
sS'TAATTT'
p2970
I1004
sS'CTGTGC'
p2971
I8361
sS'TAGCCC'
p2972
I4515
sS'CTGTGA'
p2973
I7501
sS'CGGGGT'
p2974
I1131
sS'TAGGAC'
p2975
I2358
sS'GCAAAG'
p2976
I2883
sS'TAGGAA'
p2977
I3593
sS'GCAAAA'
p2978
I1518
sS'TAGGAG'
p2979
I4227
sS'GCAAAC'
p2980
I2274
sS'CGGGGC'
p2981
I4441
sS'CGGGGA'
p2982
I2397
sS'CTGTGT'
p2983
I8078
sS'CGGGGG'
p2984
I3570
sS'GTATGC'
p2985
I1429
sS'AGTTCT'
p2986
I5917
sS'ACAGGC'
p2987
I1526
sS'CGAGAA'
p2988
I344
sS'TAGGAT'
p2989
I1027
sS'AAAAAT'
p2990
I1587
sS'AACGTA'
p2991
I1460
sS'CTATTT'
p2992
I1834
sS'TGCTTT'
p2993
I8296
sS'ACAGGA'
p2994
I1590
sS'ACTAGG'
p2995
I2437
sS'GTTACC'
p2996
I3212
sS'GTTACA'
p2997
I4054
sS'TAATTC'
p2998
I2020
sS'GTTACG'
p2999
I866
sS'TATCGC'
p3000
I725
sS'TATAGT'
p3001
I2303
sS'GTCTAA'
p3002
I4450
sS'CAGGAC'
p3003
I4702
sS'GTCTAC'
p3004
I3528
sS'TGCTTC'
p3005
I14173
sS'TTCAAA'
p3006
I11536
sS'TTCAAC'
p3007
I5748
sS'GGGCTC'
p3008
I7530
sS'TATAGC'
p3009
I2229
sS'TATCGT'
p3010
I449
sS'TATAGA'
p3011
I3274
sS'AGCTCA'
p3012
I16083
sS'TATAGG'
p3013
I3220
sS'TACCAA'
p3014
I3939
sS'GTTACT'
p3015
I2718
sS'GCTCTC'
p3016
I6440
sS'GCTCTA'
p3017
I4194
sS'GGGCTA'
p3018
I3429
sS'GCTCTG'
p3019
I13706
sS'CCACGT'
p3020
I381
sS'GGCGTT'
p3021
I806
sS'AGGACC'
p3022
I7208
sS'GAATGG'
p3023
I3886
sS'GGCTTT'
p3024
I5108
sS'ACTACT'
p3025
I1627
sS'GAATGC'
p3026
I3183
sS'CCACGA'
p3027
I334
sS'GGCGTC'
p3028
I3188
sS'CCACGC'
p3029
I738
sS'GGCGTA'
p3030
I1204
sS'GGCGTG'
p3031
I6006
sS'CCACGG'
p3032
I745
sS'GCTCTT'
p3033
I1814
sS'GGCTTA'
p3034
I7373
sS'ACTACC'
p3035
I2116
sS'GGCTTC'
p3036
I13161
sS'ACTACA'
p3037
I3400
sS'ACTACG'
p3038
I717
sS'GGCTTG'
p3039
I13057
sS'TCCTAG'
p3040
I6129
sS'AGTCAG'
p3041
I7464
sS'CGTTGC'
p3042
I1830
sS'TAACAC'
p3043
I1102
sS'TCCTAC'
p3044
I4442
sS'AGTCAC'
p3045
I6058
sS'CGTTGG'
p3046
I1942
sS'TAACAG'
p3047
I1880
sS'TCATCG'
p3048
I558
sS'AAGCGT'
p3049
I885
sS'TCATCC'
p3050
I3243
sS'AAAAAC'
p3051
I3063
sS'CTTTCT'
p3052
I9288
sS'AGTCAT'
p3053
I2700
sS'TCCTAT'
p3054
I2628
sS'TAACAT'
p3055
I752
sS'CGTTGT'
p3056
I994
sS'TAAATA'
p3057
I8076
sS'CTTTCC'
p3058
I14557
sS'CTTTCA'
p3059
I11068
sS'CTTTCG'
p3060
I2191
sS'AAAAAG'
p3061
I4739
sS'GTTGAT'
p3062
I872
sS'CGACCA'
p3063
I395
sS'CGACCC'
p3064
I763
sS'GCATAC'
p3065
I553
sS'CGACCG'
p3066
I250
sS'CCTTAT'
p3067
I1469
sS'GTTGAC'
p3068
I2649
sS'GTTGAA'
p3069
I2621
sS'ACTGGG'
p3070
I4061
sS'GTTGAG'
p3071
I3206
sS'CCTTAC'
p3072
I2145
sS'CCTTAA'
p3073
I2646
sS'ACTTTC'
p3074
I4850
sS'CGACCT'
p3075
I353
sS'AATAGA'
p3076
I4768
sS'AATAGC'
p3077
I3509
sS'CAACTG'
p3078
I2626
sS'AATAGG'
p3079
I4552
sS'AATATC'
p3080
I3094
sS'CCAAGC'
p3081
I1842
sS'GGGGTT'
p3082
I870
sS'GGATGT'
p3083
I906
sS'AATAGT'
p3084
I2672
sS'CCAAGA'
p3085
I1615
sS'CAACTT'
p3086
I490
sS'GGATGC'
p3087
I1001
sS'GGATGA'
p3088
I1171
sS'GGATGG'
p3089
I1822
sS'GGGGTA'
p3090
I1947
sS'TCTCCG'
p3091
I2069
sS'GAGTCC'
p3092
I11726
sS'GAGTCA'
p3093
I13559
sS'TCTCCC'
p3094
I7241
sS'AAACTA'
p3095
I2590
sS'TCTCCA'
p3096
I5662
sS'AAACTC'
p3097
I2266
sS'ACGCGA'
p3098
I419
sS'AGTACG'
p3099
I924
sS'ACGCGC'
p3100
I829
sS'AGTACC'
p3101
I3287
sS'ACGCGG'
p3102
I1014
sS'AGTACA'
p3103
I5132
sS'CCCTTA'
p3104
I7470
sS'CCCTTC'
p3105
I15349
sS'TCTCCT'
p3106
I3828
sS'CCCTTG'
p3107
I13248
sS'AGTACT'
p3108
I3069
sS'ACGCGT'
p3109
I209
sS'GCCGAA'
p3110
I1416
sS'GTGGAG'
p3111
I5563
sS'GCCGAC'
p3112
I2171
sS'GTGGAC'
p3113
I2709
sS'GCCGAG'
p3114
I5005
sS'GTGGAA'
p3115
I3089
sS'GTGGAT'
p3116
I923
sS'GCCGAT'
p3117
I420
sS'CCTATT'
p3118
I932
sS'CACTGT'
p3119
I9843
sS'GTAGTC'
p3120
I1375
sS'AAATCG'
p3121
I573
sS'CACGCG'
p3122
I2723
sS'TTATCG'
p3123
I484
sS'GTAGTG'
p3124
I2367
sS'AAATCC'
p3125
I3405
sS'CACGCC'
p3126
I6832
sS'AAAGTA'
p3127
I3704
sS'CTACGT'
p3128
I249
sS'AGATAC'
p3129
I769
sS'CACGCT'
p3130
I2649
sS'AAATCT'
p3131
I2063
sS'AAAGTC'
p3132
I3097
sS'GTAGTT'
p3133
I658
sS'AGATAA'
p3134
I1662
sS'CGTTAT'
p3135
I448
sS'GATGAT'
p3136
I2157
sS'GGAGCA'
p3137
I2860
sS'GGAGCC'
p3138
I4854
sS'AAAGTG'
p3139
I5215
sS'CCAAAT'
p3140
I648
sS'GGAGCG'
p3141
I1553
sS'AAAACT'
p3142
I3011
sS'GATGAC'
p3143
I5297
sS'GATGAA'
p3144
I6130
sS'GATGAG'
p3145
I7560
sS'CCAAAA'
p3146
I997
sS'ACTAAC'
p3147
I1550
sS'AAAACA'
p3148
I9719
sS'AAAACG'
p3149
I1176
sS'GGAGCT'
p3150
I1978
sS'CCAAAG'
p3151
I2259
sS'TCGCGG'
p3152
I1022
sS'CTAGAG'
p3153
I1764
sS'TCGCGC'
p3154
I796
sS'GGGAGT'
p3155
I3060
sS'GCCACA'
p3156
I11346
sS'AGATCA'
p3157
I2880
sS'GCCACC'
p3158
I14275
sS'AGATCC'
p3159
I2332
sS'CGACGG'
p3160
I400
sS'GCCACG'
p3161
I4770
sS'AGATCG'
p3162
I501
sS'ACCAGC'
p3163
I6053
sS'TCGCGT'
p3164
I251
sS'ACCTAG'
p3165
I3595
sS'ACCCGT'
p3166
I673
sS'AGAAAG'
p3167
I4966
sS'TCCCTT'
p3168
I4397
sS'AGAAAC'
p3169
I2915
sS'AGATAT'
p3170
I592
sS'AGAAAA'
p3171
I3754
sS'ACCTAA'
p3172
I3360
sS'ATGTAC'
p3173
I1766
sS'ACTTCG'
p3174
I1290
sS'ATGTAA'
p3175
I2795
sS'ATGTAG'
p3176
I2181
sS'GAGGAT'
p3177
I2246
sS'CGAAGT'
p3178
I443
sS'GTTCCG'
p3179
I1582
sS'GACGAC'
p3180
I1925
sS'ATGTCG'
p3181
I939
sS'CTATGA'
p3182
I2065
sS'ATGTAT'
p3183
I1424
sS'CCGGCG'
p3184
I1841
sS'GTTCCC'
p3185
I5302
sS'AGCACT'
p3186
I9807
sS'TTAGAA'
p3187
I1295
sS'CGGCTG'
p3188
I6030
sS'TTAGAC'
p3189
I879
sS'CGGCTC'
p3190
I4596
sS'TTAGAG'
p3191
I1501
sS'CGGCTA'
p3192
I1375
sS'AGCACC'
p3193
I12126
sS'AGCACA'
p3194
I13793
sS'AGCACG'
p3195
I3884
sS'CGGCTT'
p3196
I882
sS'TTAGAT'
p3197
I479
sS'CCAGCA'
p3198
I3640
sS'CGAAGC'
p3199
I921
sS'CCAGCC'
p3200
I6336
sS'ATATCC'
p3201
I2105
sS'AACTAC'
p3202
I4705
sS'CCAGCG'
p3203
I1355
sS'CGACGT'
p3204
I151
sS'TTATTT'
p3205
I2485
sS'TGTGAG'
p3206
I6829
sS'TGTGAA'
p3207
I4677
sS'CTACCT'
p3208
I1385
sS'TGTGAC'
p3209
I5144
sS'CTATGC'
p3210
I1811
sS'ATATCT'
p3211
I1779
sS'CCAGCT'
p3212
I2373
sS'CACGGT'
p3213
I1182
sS'AAAGAT'
p3214
I1015
sS'TGTGAT'
p3215
I1975
sS'TTATTG'
p3216
I4263
sS'TTATTA'
p3217
I4746
sS'GAAAGC'
p3218
I5432
sS'TTATTC'
p3219
I3025
sS'ACATCT'
p3220
I1618
sS'TTTTAT'
p3221
I3163
sS'GCGAAC'
p3222
I509
sS'TACAAG'
p3223
I6085
sS'TCCACT'
p3224
I7179
sS'TACAAA'
p3225
I9914
sS'AGACGA'
p3226
I403
sS'TACAAC'
p3227
I4397
sS'CCTCTG'
p3228
I14564
sS'AGGTGG'
p3229
I8282
sS'CCTCTC'
p3230
I9271
sS'AGGTGC'
p3231
I4155
sS'CCTCTA'
p3232
I5153
sS'CTGTTC'
p3233
I7801
sS'TACAAT'
p3234
I3705
sS'TCCACA'
p3235
I10731
sS'TTTTAG'
p3236
I4674
sS'ACATCG'
p3237
I392
sS'TTTTAA'
p3238
I8517
sS'CCAAAC'
p3239
I1337
sS'TTTTAC'
p3240
I3787
sS'ACATCC'
p3241
I2514
sS'AGGTGT'
p3242
I3095
sS'CCTCTT'
p3243
I2245
sS'CGTCGG'
p3244
I1607
sS'TATGAG'
p3245
I3869
sS'CCCGGA'
p3246
I3201
sS'NNCTGA'
p3247
I1
sS'CCCGGG'
p3248
I8190
sS'TTGTGT'
p3249
I5408
sS'TGGAAT'
p3250
I2378
sS'TAGGTG'
p3251
I4648
sS'TTGTGC'
p3252
I4362
sS'TATGAT'
p3253
I1431
sS'TTGTGG'
p3254
I6294
sS'CCCGGT'
p3255
I1056
sS'TGGAAG'
p3256
I5824
sS'TGGAAC'
p3257
I3072
sS'TGGAAA'
p3258
I4593
sS'TGAGGA'
p3259
I1679
sS'AAGAGG'
p3260
I11380
sS'TGAGGC'
p3261
I1947
sS'AAGAGA'
p3262
I8980
sS'AAGAGC'
p3263
I6671
sS'TGAGGG'
p3264
I2516
sS'GCTTAG'
p3265
I3341
sS'GCTTAC'
p3266
I1979
sS'GCTTAA'
p3267
I2816
sS'TCTGAT'
p3268
I1179
sS'AAGCGC'
p3269
I2401
sS'AAGAGT'
p3270
I3628
sS'AAGCGA'
p3271
I1672
sS'NGCGCC'
p3272
I1
sS'TGAGGT'
p3273
I983
sS'GCTTAT'
p3274
I1299
sS'CTGCTA'
p3275
I6718
sS'GCGTGT'
p3276
I1032
sS'CTGCTC'
p3277
I13995
sS'ACTTCT'
p3278
I3514
sS'GACCGT'
p3279
I1467
sS'CTGCTG'
p3280
I22969
sS'CGGTCA'
p3281
I1637
sS'GGTCGT'
p3282
I578
sS'CGGTCC'
p3283
I3137
sS'CTAGAA'
p3284
I1121
sS'CATGAC'
p3285
I4089
sS'GACCGA'
p3286
I2233
sS'GACCGC'
p3287
I4125
sS'ACTTCC'
p3288
I7673
sS'CTGCTT'
p3289
I5256
sS'GACCGG'
p3290
I4254
sS'CTAGAT'
p3291
I450
sS'GGTCGG'
p3292
I2548
sS'CGGTCT'
p3293
I1415
sS'GGTCGC'
p3294
I2128
sS'GGTCGA'
p3295
I845
sS'CGTCGC'
p3296
I1799
sS'GCGTGG'
p3297
I2593
sS'TGAAGC'
p3298
I2529
sS'GCGTGA'
p3299
I1176
sS'GCGTGC'
p3300
I1625
sS'TGCTCA'
p3301
I14586
sS'TTCATC'
p3302
I7614
sS'TGCTCC'
p3303
I16231
sS'TTCATA'
p3304
I7374
sS'TTCATG'
p3305
I10006
sS'TGCTCG'
p3306
I3485
sS'GTACAA'
p3307
I954
sS'CAGCAG'
p3308
I9700
sS'TACACT'
p3309
I6265
sS'GCGGCT'
p3310
I1731
sS'CAGCAC'
p3311
I5402
sS'CGTCGT'
p3312
I440
sS'GTACAC'
p3313
I957
sS'TGCTCT'
p3314
I13153
sS'TTCATT'
p3315
I5385
sS'GTAGCC'
p3316
I2358
sS'GCTGCC'
p3317
I8901
sS'GCTGCA'
p3318
I7183
sS'AACTCT'
p3319
I9511
sS'TGGCCC'
p3320
I9086
sS'TGGCCA'
p3321
I7951
sS'GTAGCA'
p3322
I2123
sS'AGCAAA'
p3323
I11692
sS'TGGCCT'
p3324
I6574
sS'AACTCC'
p3325
I13064
sS'GCTGCT'
p3326
I4400
sS'AACTCG'
p3327
I2637
sS'TGAAGA'
p3328
I2653
sS'AATATT'
p3329
I2803
sS'GTTCGA'
p3330
I650
sS'CAACCT'
p3331
I1087
sS'TGGCCG'
p3332
I3016
sS'GGCACG'
p3333
I3568
sS'GGCACA'
p3334
I9633
sS'GACAAT'
p3335
I3974
sS'GGCACC'
p3336
I10018
sS'CAACCG'
p3337
I482
sS'CAGAAA'
p3338
I5856
sS'AATATG'
p3339
I5122
sS'CGGTCG'
p3340
I921
sS'CAACCC'
p3341
I1925
sS'AGCAAG'
p3342
I10815
sS'CAACCA'
p3343
I1847
sS'CTTCGT'
p3344
I722
sS'GACAAA'
p3345
I11059
sS'GGCACT'
p3346
I6529
sS'GACAAC'
p3347
I5860
sS'ACGACA'
p3348
I641
sS'GACAAG'
p3349
I9912
sS'GCTGCG'
p3350
I3775
sS'GCTTTT'
p3351
I2681
sS'GCAATA'
p3352
I1748
sS'GCAATG'
p3353
I2924
sS'TTGAAC'
p3354
I3367
sS'CGATGG'
p3355
I502
sS'TCCCAT'
p3356
I2281
sS'CGATGC'
p3357
I338
sS'CAGCAT'
p3358
I1967
sS'CGATGA'
p3359
I288
sS'GAATTA'
p3360
I2889
sS'GAATTC'
p3361
I2856
sS'GAATTG'
p3362
I3205
sS'TCCCAA'
p3363
I5103
sS'CTACAC'
p3364
I852
sS'TCCCAC'
p3365
I6168
sS'GTAAAG'
p3366
I2518
sS'TCCCAG'
p3367
I11239
sS'GGATTT'
p3368
I514
sS'GTGCGT'
p3369
I982
sS'ACGCCG'
p3370
I789
sS'GGATTC'
p3371
I1209
sS'GGATTA'
p3372
I2263
sS'AGGTCC'
p3373
I7019
sS'ACCTCT'
p3374
I6856
sS'TCAAAT'
p3375
I811
sS'ACGCCA'
p3376
I1095
sS'ATATAG'
p3377
I899
sS'TCTGTG'
p3378
I11205
sS'TCTGTC'
p3379
I5889
sS'TCTGTA'
p3380
I5889
sS'GGCGGC'
p3381
I8296
sS'CTCCTT'
p3382
I5915
sS'GGCGGA'
p3383
I4319
sS'AACCGC'
p3384
I2377
sS'AACCGA'
p3385
I1557
sS'TACCCA'
p3386
I6313
sS'TCTGTT'
p3387
I1869
sS'ATATAC'
p3388
I918
sS'CTCCTG'
p3389
I25630
sS'AACCGT'
p3390
I993
sS'CTCCTA'
p3391
I9308
sS'CTCCTC'
p3392
I22110
sS'GGCGGT'
p3393
I1884
sS'GACGCA'
p3394
I3834
sS'GACGCC'
p3395
I6381
sS'GCACTT'
p3396
I594
sS'CCCACA'
p3397
I11014
sS'CCCACC'
p3398
I18752
sS'ATAGCA'
p3399
I2084
sS'AGCCTT'
p3400
I4773
sS'CCGATT'
p3401
I166
sS'CCCACT'
p3402
I7436
sS'GGTCTT'
p3403
I1334
sS'GACGCT'
p3404
I3407
sS'AGCGGT'
p3405
I1161
sS'CCGATA'
p3406
I333
sS'AGCCTG'
p3407
I21406
sS'AGCCTA'
p3408
I6290
sS'AGCCTC'
p3409
I15134
sS'GTACCC'
p3410
I1171
sS'GTACCA'
p3411
I1180
sS'TGGTTA'
p3412
I4571
sS'CGCCTT'
p3413
I2022
sS'TGGTTC'
p3414
I4182
sS'CAGAGT'
p3415
I4420
sS'GCATCT'
p3416
I1633
sS'ACCTCG'
p3417
I3164
sS'GAGTTG'
p3418
I7946
sS'CGCCTC'
p3419
I10359
sS'GCGCCA'
p3420
I2100
sS'CGCCTA'
p3421
I2458
sS'AGGCAG'
p3422
I9577
sS'CGCCTG'
p3423
I9682
sS'GAGTTA'
p3424
I5912
sS'CAGAGG'
p3425
I14248
sS'GCATCC'
p3426
I2683
sS'GTGCGG'
p3427
I2984
sS'CAGAGC'
p3428
I9282
sS'GCATCG'
p3429
I572
sS'CAGAGA'
p3430
I8865
sS'TAGCTA'
p3431
I3886
sS'CCGATC'
p3432
I396
sS'AGACTC'
p3433
I1735
sS'CCTAGA'
p3434
I2457
sS'CCTAGC'
p3435
I2304
sS'TTTGCT'
p3436
I5193
sS'TAGCTC'
p3437
I4382
sS'TGCGGT'
p3438
I1091
sS'CCTAGG'
p3439
I3780
sS'TAAGCA'
p3440
I3875
sS'GTCTAG'
p3441
I4842
sS'TTTGCA'
p3442
I7456
sS'TTTGCC'
p3443
I6027
sS'CCTAGT'
p3444
I1451
sS'TGCGGG'
p3445
I4587
sS'TTTGCG'
p3446
I1357
sS'TGAGTT'
p3447
I699
sS'TAGCTG'
p3448
I7479
sS'ATCGCT'
p3449
I1077
sS'TAATCT'
p3450
I2164
sS'ATCGCC'
p3451
I1662
sS'TGAGTG'
p3452
I3508
sS'ATCGCA'
p3453
I1118
sS'TGAGTA'
p3454
I2211
sS'ATCGCG'
p3455
I911
sS'TGAGTC'
p3456
I2478
sS'GGTCTA'
p3457
I2754
sS'AAGGTG'
p3458
I7533
sS'AAGGTC'
p3459
I5850
sS'CATCAT'
p3460
I2264
sS'AAGGTA'
p3461
I4799
sS'AAGCGG'
p3462
I3127
sS'ACGGCA'
p3463
I991
sS'CATCAC'
p3464
I4870
sS'ACGGCC'
p3465
I1841
sS'CATCAA'
p3466
I4373
sS'CATCAG'
p3467
I6571
sS'ACGGCG'
p3468
I799
sS'TCACCT'
p3469
I1363
sS'TCTAAG'
p3470
I3124
sS'TCGTTT'
p3471
I399
sS'CGGAAT'
p3472
I444
sS'CAATTC'
p3473
I1613
sS'ATCGAT'
p3474
I218
sS'TCACCG'
p3475
I548
sS'TCACCA'
p3476
I1709
sS'TCACCC'
p3477
I1932
sS'CGGAAG'
p3478
I3405
sS'AATATA'
p3479
I4936
sS'AAAATA'
p3480
I5144
sS'CGGAAC'
p3481
I1329
sS'CGGAAA'
p3482
I1296
sS'GCCTCA'
p3483
I13935
sS'ATCCAG'
p3484
I4785
sS'TGTGTC'
p3485
I6237
sS'TGTGTA'
p3486
I7989
sS'CCGTAG'
p3487
I532
sS'ATGGCC'
p3488
I5118
sS'ATGGCA'
p3489
I4859
sS'TTACTT'
p3490
I913
sS'TTCAGA'
p3491
I9439
sS'ATGGCT'
p3492
I2632
sS'TGTGTT'
p3493
I2679
sS'CCAAGT'
p3494
I1155
sS'AGATTA'
p3495
I2181
sS'GAAACG'
p3496
I1893
sS'GAAACA'
p3497
I8029
sS'GAAACC'
p3498
I6620
sS'CTATGT'
p3499
I2049
sS'CTGAGT'
p3500
I3486
sS'GAAACT'
p3501
I4235
sS'AGAATG'
p3502
I5140
sS'AGAATA'
p3503
I2941
sS'AGAATC'
p3504
I2026
sS'CTGAGC'
p3505
I6261
sS'CTGAGA'
p3506
I5399
sS'CTGAGG'
p3507
I9625
sS'CATACC'
p3508
I4240
sS'CATACA'
p3509
I5674
sS'CATACG'
p3510
I917
sS'GCAATC'
p3511
I1137
sS'TGCCTA'
p3512
I6705
sS'TTTACC'
p3513
I5133
sS'GTCCAT'
p3514
I2116
sS'ACATAG'
p3515
I998
sS'TCGGTT'
p3516
I203
sS'ACGCCC'
p3517
I2039
sS'AATGGC'
p3518
I4060
sS'GTCCAG'
p3519
I8828
sS'CAAGCT'
p3520
I1899
sS'TCAAAG'
p3521
I2793
sS'GTCCAC'
p3522
I5031
sS'GTCCAA'
p3523
I4849
sS'CGGCGG'
p3524
I4944
sS'TTGATG'
p3525
I4795
sS'CTCATT'
p3526
I4195
sS'CGGCGC'
p3527
I3449
sS'TTGATC'
p3528
I2778
sS'CGGCGA'
p3529
I1255
sS'TTGATA'
p3530
I3004
sS'TTGATT'
p3531
I1377
sS'CGGCGT'
p3532
I829
sS'GTACGC'
p3533
I318
sS'ATCGAC'
p3534
I472
sS'CCATTA'
p3535
I2257
sS'TGACTT'
p3536
I717
sS'TCGTCT'
p3537
I779
sS'CGGTTA'
p3538
I1001
sS'GGTTTA'
p3539
I5231
sS'CGGTTC'
p3540
I1520
sS'GGTTTC'
p3541
I6429
sS'TTTACA'
p3542
I7373
sS'CGGTTG'
p3543
I1610
sS'GGTTTG'
p3544
I7746
sS'TATAAA'
p3545
I5708
sS'ATCCCA'
p3546
I6542
sS'GCTGTG'
p3547
I11387
sS'GGTTTT'
p3548
I2030
sS'CGGTTT'
p3549
I508
sS'GCTGTA'
p3550
I4314
sS'TATGCG'
p3551
I924
sS'TCTCAA'
p3552
I3785
sS'AGGTTG'
p3553
I5888
sS'AGGTTC'
p3554
I3744
sS'AGGTTA'
p3555
I4614
sS'GAGGGA'
p3556
I11534
sS'TTTTTC'
p3557
I9030
sS'GAGGGC'
p3558
I9954
sS'TTTTTA'
p3559
I12352
sS'TTTTTG'
p3560
I10829
sS'GAGGGG'
p3561
I16995
sS'TTAAAT'
p3562
I1552
sS'AGGTTT'
p3563
I2047
sS'TAAGCG'
p3564
I706
sS'TATGCC'
p3565
I3746
sS'TTAAAC'
p3566
I2374
sS'ATACGT'
p3567
I159
sS'TTAAAA'
p3568
I3719
sS'ACTCCG'
p3569
I1362
sS'TTAAAG'
p3570
I3342
sS'ACTCCA'
p3571
I3940
sS'TTTTTT'
p3572
I5368
sS'ACTCCC'
p3573
I3965
sS'TAGGCT'
p3574
I3337
sS'GTCACG'
p3575
I3569
sS'CTGTAC'
p3576
I2976
sS'GCAACT'
p3577
I1395
sS'GTCACC'
p3578
I11639
sS'CTGTAG'
p3579
I4180
sS'GTCACA'
p3580
I11156
sS'GCAACG'
p3581
I759
sS'GTCACT'
p3582
I8816
sS'TAGGCG'
p3583
I1680
sS'GCAACC'
p3584
I2407
sS'TAGGCA'
p3585
I5829
sS'GCAACA'
p3586
I2812
sS'TAGGCC'
p3587
I5283
sS'CGATGT'
p3588
I233
sS'ATTCAT'
p3589
I1662
sS'GTAAAA'
p3590
I1969
sS'GCGATT'
p3591
I169
sS'TCGTGT'
p3592
I556
sS'TTCACT'
p3593
I9441
sS'ACAGAT'
p3594
I607
sS'GTCTCT'
p3595
I12479
sS'AACATT'
p3596
I4361
sS'ATTCAG'
p3597
I3805
sS'ATATTA'
p3598
I2936
sS'ATTCAA'
p3599
I2947
sS'ATTCAC'
p3600
I2440
sS'GTCTCC'
p3601
I16557
sS'GTCTCA'
p3602
I13365
sS'GCGATG'
p3603
I1159
sS'TTCACC'
p3604
I10278
sS'GCGATA'
p3605
I439
sS'TTCACA'
p3606
I12178
sS'GCGATC'
p3607
I555
sS'GAAGGC'
p3608
I4184
sS'GAAGGA'
p3609
I4676
sS'GAAGGG'
p3610
I7188
sS'CGATTA'
p3611
I357
sS'GGAACC'
p3612
I3313
sS'AGACTT'
p3613
I610
sS'GGAACA'
p3614
I3268
sS'GGAACG'
p3615
I1034
sS'TGACGA'
p3616
I260
sS'TACTGC'
p3617
I6921
sS'TCATAC'
p3618
I677
sS'GAAGGT'
p3619
I1601
sS'CTCGCT'
p3620
I3442
sS'CAATCG'
p3621
I646
sS'CAATCA'
p3622
I3267
sS'GGAACT'
p3623
I2063
sS'TCCTGA'
p3624
I10033
sS'AGTCCA'
p3625
I6864
sS'TCCTGC'
p3626
I15094
sS'AGTCCC'
p3627
I7634
sS'ACTAAA'
p3628
I2525
sS'TCCTGG'
p3629
I18288
sS'AGTCCG'
p3630
I1895
sS'TAACGC'
p3631
I402
sS'CAGCTG'
p3632
I15871
sS'TAACGG'
p3633
I529
sS'CAGCTC'
p3634
I9943
sS'ACTAAT'
p3635
I861
sS'AGTCCT'
p3636
I4345
sS'TCCTGT'
p3637
I8756
sS'CAGCTT'
p3638
I2539
sS'TTCCCG'
p3639
I5268
sS'TAACGT'
p3640
I273
sS'AGCCAG'
p3641
I14282
sS'GTACTT'
p3642
I617
sS'CGACAT'
p3643
I113
sS'TTGTTC'
p3644
I7319
sS'CGCAAG'
p3645
I2304
sS'CCGAGG'
p3646
I2819
sS'TTGTTG'
p3647
I8509
sS'CAGGCC'
p3648
I15214
sS'CCGAGC'
p3649
I1745
sS'CCGCGT'
p3650
I437
sS'GTACTG'
p3651
I2398
sS'CGACAA'
p3652
I139
sS'CGACAG'
p3653
I406
sS'GTACTA'
p3654
I1362
sS'CCGCGC'
p3655
I2151
sS'AGCCAC'
p3656
I10330
sS'CCGCGA'
p3657
I697
sS'CCGCGG'
p3658
I2395
sS'TTGTTT'
p3659
I5836
sS'GCATAT'
p3660
I520
sS'TCCGTT'
p3661
I664
sS'AGCCAA'
p3662
I8239
sS'AATAAC'
p3663
I4346
sS'AATAAA'
p3664
I10091
sS'AATAAG'
p3665
I5471
sS'AAGGCT'
p3666
I6452
sS'GGATTG'
p3667
I1945
sS'TACTAA'
p3668
I5721
sS'AATAAT'
p3669
I3269
sS'CCAACC'
p3670
I3232
sS'CTCAGT'
p3671
I7032
sS'TTATGC'
p3672
I1436
sS'CCAACG'
p3673
I642
sS'GGGATT'
p3674
I1281
sS'CGCCGC'
p3675
I12418
sS'AGTAAA'
p3676
I6136
sS'CGCCGA'
p3677
I2437
sS'GAGTAG'
p3678
I4448
sS'TCGAGT'
p3679
I317
sS'GAGTAA'
p3680
I4440
sS'AGTAAG'
p3681
I4497
sS'CTCAGG'
p3682
I16529
sS'CTCAGC'
p3683
I14424
sS'CTCAGA'
p3684
I10790
sS'GAGTAT'
p3685
I1681
sS'TCGAGA'
p3686
I475
sS'GTGTAG'
p3687
I3044
sS'TCGAGC'
p3688
I623
sS'GTGTAA'
p3689
I3276
sS'GTGTAC'
p3690
I2743
sS'CGCCGT'
p3691
I1601
sS'GTGGCA'
p3692
I8200
sS'GTGGCC'
p3693
I11293
sS'CTCGGA'
p3694
I2299
sS'CTCGGC'
p3695
I5226
sS'GCCGCC'
p3696
I13411
sS'GCCGCA'
p3697
I4672
sS'GCCGCG'
p3698
I6567
sS'ACACTT'
p3699
I596
sS'CATATG'
p3700
I4312
sS'GTGGCT'
p3701
I5980
sS'CATATA'
p3702
I3881
sS'GTCAGC'
p3703
I8045
sS'TACTAC'
p3704
I3606
sS'ACACTC'
p3705
I1321
sS'ACACTA'
p3706
I1299
sS'ACACTG'
p3707
I3203
sS'GCCGCT'
p3708
I4118
sS'ACCGGA'
p3709
I1280
sS'AAATAA'
p3710
I3268
sS'ACCGGC'
p3711
I1752
sS'AAATAC'
p3712
I2132
sS'CTTTAA'
p3713
I5882
sS'ACCGGG'
p3714
I2305
sS'CTTTAC'
p3715
I3933
sS'CACGAG'
p3716
I2214
sS'CAGGTA'
p3717
I4253
sS'AACTTC'
p3718
I9574
sS'CAGGTC'
p3719
I4571
sS'CACGAC'
p3720
I1450
sS'AACTTG'
p3721
I11129
sS'CAGGTG'
p3722
I8923
sS'CTTTAT'
p3723
I2768
sS'AATCCC'
p3724
I6521
sS'GCTCGT'
p3725
I556
sS'AATCCA'
p3726
I5791
sS'AAATAT'
p3727
I1650
sS'AATCCG'
p3728
I1432
sS'TCAGCG'
p3729
I828
sS'CAGGTT'
p3730
I1336
sS'AACTTT'
p3731
I4737
sS'GGGATA'
p3732
I2411
sS'GGGATC'
p3733
I2424
sS'GGGTGT'
p3734
I3017
sS'GGGATG'
p3735
I5752
sS'GATGCT'
p3736
I4605
sS'CGCAGT'
p3737
I2418
sS'ATTGGG'
p3738
I1847
sS'GAGCCT'
p3739
I8369
sS'GGAGAC'
p3740
I1442
sS'GGGTGA'
p3741
I4018
sS'GGAGAA'
p3742
I1470
sS'GGGTGC'
p3743
I3635
sS'GGAGAG'
p3744
I2622
sS'GGGTGG'
p3745
I8877
sS'GAGCCA'
p3746
I13663
sS'CGCAGG'
p3747
I7704
sS'GATGCG'
p3748
I2132
sS'CGCAGA'
p3749
I3449
sS'GATGCA'
p3750
I6385
sS'CGCAGC'
p3751
I7315
sS'GATGCC'
p3752
I6845
sS'ACGAAC'
p3753
I357
sS'GGTAGT'
p3754
I1294
sS'ACCCCT'
p3755
I3620
sS'GCCAAT'
p3756
I3179
sS'GGCGGG'
p3757
I14999
sS'AGAAGT'
p3758
I1984
sS'ACCCCA'
p3759
I6350
sS'GGTAGA'
p3760
I2784
sS'GCCAAA'
p3761
I5071
sS'CGGATG'
p3762
I1613
sS'GCCAAG'
p3763
I8275
sS'CGGATA'
p3764
I608
sS'ACCCCG'
p3765
I3063
sS'CGGATC'
p3766
I901
sS'AGAAGA'
p3767
I3759
sS'AGAAGC'
p3768
I3649
sS'GCAAGA'
p3769
I1895
sS'AGAAGG'
p3770
I5933
sS'CACTCC'
p3771
I17093
sS'CACTCA'
p3772
I14296
sS'CACTCG'
p3773
I3814
sS'TGCGTT'
p3774
I707
sS'GCAAGG'
p3775
I3131
sS'AGCTTT'
p3776
I6010
sS'CCCCGG'
p3777
I6706
sS'TGCGTA'
p3778
I1310
sS'TGCGTG'
p3779
I3923
sS'CACTCT'
p3780
I10834
sS'AGCTTC'
p3781
I13042
sS'AGCTTA'
p3782
I8169
sS'AGCTTG'
p3783
I12921
sS'ATACGA'
p3784
I171
sS'AGACCA'
p3785
I1723
sS'TTAGCT'
p3786
I1664
sS'TTAGCC'
p3787
I2327
sS'TTAGCA'
p3788
I2728
sS'CTAGCA'
p3789
I2525
sS'TTAGCG'
p3790
I508
sS'CTTCAT'
p3791
I1938
sS'TCATAT'
p3792
I641
sS'AAGGGG'
p3793
I8405
sS'ATAAGG'
p3794
I2175
sS'TGTGCT'
p3795
I4724
sS'AAGGGC'
p3796
I6229
sS'ATAAGC'
p3797
I1424
sS'AAGGGA'
p3798
I7134
sS'ATAAGA'
p3799
I1915
sS'CCAGAC'
p3800
I990
sS'CCAGAA'
p3801
I1073
sS'CCAGAG'
p3802
I2057
sS'GCAAGT'
p3803
I1084
sS'TGTGCG'
p3804
I2417
sS'ATAAGT'
p3805
I888
sS'AAGGGT'
p3806
I2336
sS'TGTGCC'
p3807
I6544
sS'ATAGGA'
p3808
I979
sS'TGTGCA'
p3809
I7654
sS'ATAGGC'
p3810
I769
sS'AGACCG'
p3811
I475
sS'CCAGAT'
p3812
I507
sS'AGACAA'
p3813
I1317
sS'AACAAG'
p3814
I9989
sS'CGTGGT'
p3815
I958
sS'TCCATT'
p3816
I2897
sS'AGACAG'
p3817
I2197
sS'TTTTCT'
p3818
I8925
sS'CGCTGT'
p3819
I3164
sS'CCCACG'
p3820
I4287
sS'CGTGGG'
p3821
I3086
sS'CTATAG'
p3822
I1204
sS'CGTGGC'
p3823
I2412
sS'CGTGGA'
p3824
I1453
sS'TTTTCG'
p3825
I1397
sS'CGCTGA'
p3826
I3815
sS'CGCTGC'
p3827
I9119
sS'TTTTCC'
p3828
I11662
sS'TTTTCA'
p3829
I9985
sS'CGCTGG'
p3830
I7946
sS'TATGGA'
p3831
I2640
sS'TATGGC'
p3832
I2230
sS'CGTAGG'
p3833
I1354
sS'ATCGTC'
p3834
I762
sS'CGTAGA'
p3835
I839
sS'TATGGG'
p3836
I3124
sS'CGTAGC'
p3837
I1037
sS'TACCGT'
p3838
I811
sS'TGGACT'
p3839
I5165
sS'CGTAGT'
p3840
I679
sS'TATGGT'
p3841
I1492
sS'TGGACA'
p3842
I6239
sS'TGGACC'
p3843
I5320
sS'TGGACG'
p3844
I1703
sS'CCGGTT'
p3845
I242
sS'GACCAA'
p3846
I6192
sS'GCTTGA'
p3847
I3412
sS'TGAGAC'
p3848
I1308
sS'GCTTGC'
p3849
I4083
sS'TGAGAA'
p3850
I1486
sS'TGAGAG'
p3851
I1913
sS'GCTTGG'
p3852
I5959
sS'CCTGTT'
p3853
I1489
sS'CCGGTG'
p3854
I1821
sS'CCGGTC'
p3855
I966
sS'CCGGTA'
p3856
I647
sS'CCTGTC'
p3857
I5034
sS'CCTGTA'
p3858
I4910
sS'CTCGCC'
p3859
I6780
sS'GCTTGT'
p3860
I2633
sS'TGAGAT'
p3861
I644
sS'ATCGTA'
p3862
I645
sS'GGTTGT'
p3863
I2325
sS'CGTCTG'
p3864
I3724
sS'TAGCGT'
p3865
I492
sS'GGTTGG'
p3866
I5453
sS'AACAAT'
p3867
I4981
sS'GGTTGA'
p3868
I3252
sS'GGTTGC'
p3869
I4086
sS'ACTATT'
p3870
I877
sS'TCCCGC'
p3871
I6030
sS'TCCCGA'
p3872
I2055
sS'TCCCGG'
p3873
I6294
sS'GTAACC'
p3874
I2779
sS'CGTTTT'
p3875
I990
sS'ATTCTC'
p3876
I3925
sS'AGGGAA'
p3877
I4348
sS'ATTCTA'
p3878
I3827
sS'ATTCTG'
p3879
I6195
sS'TCATTT'
p3880
I1397
sS'TGCTAC'
p3881
I4640
sS'CAGCGC'
p3882
I3946
sS'TATACT'
p3883
I3416
sS'TGCTAG'
p3884
I5839
sS'CAGCGG'
p3885
I4335
sS'AGGATC'
p3886
I3042
sS'TCATTC'
p3887
I3098
sS'AAGCTT'
p3888
I2525
sS'CGTTTA'
p3889
I2098
sS'ATTCTT'
p3890
I1587
sS'CGTTTC'
p3891
I2839
sS'TGGCAA'
p3892
I2829
sS'TGGCAC'
p3893
I2921
sS'TGGCAG'
p3894
I5728
sS'GCTGAG'
p3895
I7026
sS'GCTGAA'
p3896
I3152
sS'TCGGCG'
p3897
I878
sS'GCTGAC'
p3898
I3315
sS'TGGCAT'
p3899
I1601
sS'GGCCGG'
p3900
I9929
sS'CCGATG'
p3901
I794
sS'GGCCGC'
p3902
I9466
sS'GAACTT'
p3903
I880
sS'GGCCGA'
p3904
I3415
sS'GGCAAT'
p3905
I2336
sS'CTATAA'
p3906
I1259
sS'CTGATT'
p3907
I1551
sS'CCATCG'
p3908
I577
sS'CTAAAT'
p3909
I965
sS'CCATCC'
p3910
I3846
sS'CCATCA'
p3911
I2551
sS'GGCAAG'
p3912
I7919
sS'CTGATA'
p3913
I3911
sS'TGGTTG'
p3914
I5397
sS'CTGATG'
p3915
I6182
sS'GGCAAA'
p3916
I6998
sS'CTAAAG'
p3917
I2516
sS'CCATCT'
p3918
I2684
sS'CTAAAC'
p3919
I1550
sS'GACATC'
p3920
I6051
sS'GACACC'
p3921
I11549
sS'GACACA'
p3922
I15606
sS'GACACG'
p3923
I4284
sS'GCGCCT'
p3924
I1951
sS'TAGCGA'
p3925
I728
sS'TACGAG'
p3926
I1007
sS'TACGAC'
p3927
I688
sS'GACACT'
p3928
I9431
sS'CCGTGA'
p3929
I953
sS'TAGTAA'
p3930
I2861
sS'GCATAG'
p3931
I830
sS'GCATAA'
p3932
I689
sS'ACGCTC'
p3933
I1044
sS'TCGATG'
p3934
I632
sS'TCGATA'
p3935
I314
sS'TCGATC'
p3936
I329
sS'ACGCTT'
p3937
I305
sS'TCTGGG'
p3938
I6207
sS'GAACTG'
p3939
I4740
sS'TCGATT'
p3940
I142
sS'GGATAA'
p3941
I582
sS'CAGCCT'
p3942
I8599
sS'AGGCAC'
p3943
I4242
sS'ACAATG'
p3944
I3600
sS'AACCAA'
p3945
I6658
sS'TGCCGG'
p3946
I4456
sS'AACCAC'
p3947
I6357
sS'TGCCGC'
p3948
I4741
sS'AACCAG'
p3949
I8088
sS'TGCCGA'
p3950
I1664
sS'TTGGAC'
p3951
I2135
sS'CCGTGC'
p3952
I1422
sS'TCTGGA'
p3953
I3227
sS'ATGATC'
p3954
I1919
sS'GCGCCG'
p3955
I2177
sS'TGCCGT'
p3956
I1375
sS'AACCAT'
p3957
I2518
sS'AACAGA'
p3958
I11528
sS'CTACCG'
p3959
I540
sS'AACAGC'
p3960
I9485
sS'ACGTCC'
p3961
I1756
sS'AACAGG'
p3962
I11725
sS'ACGTCA'
p3963
I1572
sS'CCCAAG'
p3964
I7122
sS'GTCCCT'
p3965
I8466
sS'GACGAA'
p3966
I1620
sS'CCCAAC'
p3967
I5071
sS'CCCAAA'
p3968
I5021
sS'GGGAGG'
p3969
I18073
sS'GGGAGA'
p3970
I6613
sS'AACAGT'
p3971
I6456
sS'GGGAGC'
p3972
I6691
sS'ACGAAG'
p3973
I693
sS'CCCAAT'
p3974
I1750
sS'GACGAT'
p3975
I630
sS'GGGCGC'
p3976
I4140
sS'GGGCGA'
p3977
I2031
sS'GCATCA'
p3978
I2040
sS'GGGCGG'
p3979
I9828
sS'TCTCTT'
p3980
I2516
sS'GTACAG'
p3981
I1366
sS'CAGAAT'
p3982
I1918
sS'ACGACT'
p3983
I517
sS'TCTCTC'
p3984
I9311
sS'TCTCTA'
p3985
I6441
sS'TCTCTG'
p3986
I13629
sS'GGGCGT'
p3987
I1316
sS'GTACAT'
p3988
I518
sS'CAGAAC'
p3989
I4495
sS'ACGACG'
p3990
I393
sS'CAGAAG'
p3991
I7792
sS'TAAGTG'
p3992
I3362
sS'CACTTT'
p3993
I5724
sS'CATATT'
p3994
I1637
sS'CCTAAT'
p3995
I787
sS'CACTTG'
p3996
I13632
sS'CCTAAC'
p3997
I1874
sS'CTACCC'
p3998
I2102
sS'CCTAAA'
p3999
I2216
sS'CACTTC'
p4000
I13361
sS'CCTAAG'
p4001
I2748
sS'CACTTA'
p4002
I10062
sS'GCGGAT'
p4003
I171
sS'AATCCT'
p4004
I4381
sS'CTGCGG'
p4005
I4414
sS'AAGATT'
p4006
I1249
sS'CTCATG'
p4007
I10209
sS'GACTCG'
p4008
I4622
sS'CTCATC'
p4009
I7703
sS'GACTCC'
p4010
I15358
sS'CTCATA'
p4011
I5887
sS'GACTCA'
p4012
I17268
sS'AAGATA'
p4013
I4964
sS'CTCCAA'
p4014
I6981
sS'AAGATG'
p4015
I6695
sS'GACTCT'
p4016
I12187
sS'CTGCGC'
p4017
I3692
sS'ATCGAA'
p4018
I447
sS'AGTCGA'
p4019
I871
sS'ATATTT'
p4020
I1698
sS'ACGGTA'
p4021
I497
sS'GGACTC'
p4022
I1374
sS'ATAGTT'
p4023
I485
sS'CTACCA'
p4024
I1814
sS'TACTGT'
p4025
I6652
sS'ATATTC'
p4026
I1843
sS'GATCGG'
p4027
I1526
sS'ATATTG'
p4028
I2788
sS'ATAGTA'
p4029
I1478
sS'TACTGA'
p4030
I7398
sS'TACTGG'
p4031
I7339
sS'ATAGTG'
p4032
I1834
sS'ATAGAC'
p4033
I668
sS'CAGGCA'
p4034
I12814
sS'AGGAAG'
p4035
I11275
sS'CATCCG'
p4036
I1932
sS'ACGGAG'
p4037
I788
sS'CATCCA'
p4038
I6292
sS'CAGGCG'
p4039
I5191
sS'CATCCC'
p4040
I7616
sS'TTATGA'
p4041
I1848
sS'GATCGC'
p4042
I1769
sS'CGGAGT'
p4043
I1156
sS'TTATGG'
p4044
I1950
sS'CATCCT'
p4045
I4655
sS'AGGAAT'
p4046
I2643
sS'CAGGCT'
p4047
I7206
sS'ACGGAT'
p4048
I113
sS'CGGAGA'
p4049
I2120
sS'CGGAGC'
p4050
I3674
sS'TTATGT'
p4051
I2039
sS'CGGAGG'
p4052
I5195
sS'ATGGAA'
p4053
I2203
sS'ATGGAC'
p4054
I1548
sS'ATGGAG'
p4055
I2786
sS'CGCTTG'
p4056
I4740
sS'CGCTTA'
p4057
I2236
sS'CGCTTC'
p4058
I5725
sS'TGAACA'
p4059
I4006
sS'ATGGAT'
p4060
I611
sS'CTATAT'
p4061
I786
sS'TGCGGC'
p4062
I3481
sS'CGCTTT'
p4063
I1921
sS'GATCGT'
p4064
I668
sS'TGCGGA'
p4065
I1894
sS'GAAAAG'
p4066
I6498
sS'CATACT'
p4067
I3143
sS'GAAAAC'
p4068
I4252
sS'ATAGAT'
p4069
I376
sS'GAAAAA'
p4070
I4611
sS'GTTCCT'
p4071
I3102
sS'TAAGTA'
p4072
I2958
sS'AGACCT'
p4073
I1178
sS'ACGGTT'
p4074
I188
sS'GAAAAT'
p4075
I1678
sS'CTACTG'
p4076
I3206
sS'ACAAGG'
p4077
I2764
sS'GCCTAA'
p4078
I3864
sS'ACAAGA'
p4079
I1761
sS'AAAAAA'
p4080
I6853
sS'ACAAGC'
p4081
I1570
sS'ACACGT'
p4082
I294
sS'CTGCGT'
p4083
I1145
sS'GCGGAG'
p4084
I2369
sS'CATAAG'
p4085
I3581
sS'GCGGAA'
p4086
I861
sS'CATAAA'
p4087
I4888
sS'GCGGAC'
p4088
I822
sS'CATAAC'
p4089
I2968
sS'ACACGC'
p4090
I554
sS'ACAAGT'
p4091
I1137
sS'ACACGA'
p4092
I283
sS'ACACGG'
p4093
I549
sS'CATAAT'
p4094
I1759
sS'GTCCCA'
p4095
I9826
sS'GCACAT'
p4096
I502
sS'GTCCCC'
p4097
I12312
sS'CTGCGA'
p4098
I1472
sS'GTCCCG'
p4099
I5518
sS'CGGCAA'
p4100
I778
sS'CGGCAC'
p4101
I1294
sS'CGGCAG'
p4102
I2699
sS'CCTCCT'
p4103
I5321
sS'CGGCAT'
p4104
I459
sS'CCTCCC'
p4105
I13030
sS'CCTCCA'
p4106
I6003
sS'CCTCCG'
p4107
I3003
s.