(dp0
S'GAACGT'
p1
I366
sS'CGTCGT'
p2
I265
sS'CTTCTT'
p3
I1672
sS'CACCCT'
p4
I2377
sS'GAACGG'
p5
I919
sS'GAACGC'
p6
I985
sS'GAACGA'
p7
I581
sS'CACCCA'
p8
I6145
sS'CTTCTA'
p9
I5887
sS'CACCCC'
p10
I5754
sS'CTTCTC'
p11
I5810
sS'CACCCG'
p12
I2057
sS'CTTCTG'
p13
I13254
sS'CGTGTG'
p14
I3028
sS'TAAGGT'
p15
I857
sS'CGTGTC'
p16
I676
sS'CGTGTA'
p17
I993
sS'AGGCAA'
p18
I2670
sS'GGAAAT'
p19
I780
sS'TAAGGG'
p20
I2784
sS'CGTGTT'
p21
I226
sS'TAAGGC'
p22
I2238
sS'TAAGGA'
p23
I3631
sS'TCACTG'
p24
I3388
sS'GTCAAA'
p25
I5564
sS'GTCAAC'
p26
I4103
sS'GTCAAG'
p27
I5683
sS'CTGTCC'
p28
I5999
sS'TCAGAG'
p29
I1783
sS'CTGTCA'
p30
I5612
sS'CTGTCG'
p31
I1261
sS'GTATCT'
p32
I1404
sS'TCAGAA'
p33
I1797
sS'TCATAA'
p34
I1108
sS'GTCAAT'
p35
I1506
sS'GTATCA'
p36
I2208
sS'GTATCC'
p37
I1792
sS'GTATCG'
p38
I354
sS'CTGTCT'
p39
I4201
sS'GGTGTC'
p40
I1055
sS'TACCCT'
p41
I1626
sS'GGTGTA'
p42
I1892
sS'GGTGTG'
p43
I5192
sS'TATCCT'
p44
I1498
sS'CCGGGG'
p45
I1941
sS'TTCTGT'
p46
I12241
sS'GTATTG'
p47
I3619
sS'CCGGGC'
p48
I1409
sS'CCGGGA'
p49
I1269
sS'TATCCA'
p50
I3250
sS'TATCCC'
p51
I2256
sS'TATCCG'
p52
I555
sS'GGTGTT'
p53
I409
sS'ATTCCG'
p54
I541
sS'TTCTGG'
p55
I19751
sS'CCGGGT'
p56
I326
sS'ATTCCC'
p57
I1978
sS'TTCTGC'
p58
I18034
sS'ATTCCA'
p59
I3602
sS'TTCTGA'
p60
I18791
sS'CTTGGA'
p61
I5022
sS'GGNCCC'
p62
I1
sS'TATCTT'
p63
I2072
sS'GTTCTC'
p64
I3179
sS'AGGGAG'
p65
I5459
sS'CGCGGG'
p66
I5042
sS'CGCGGC'
p67
I4471
sS'CGCGGA'
p68
I1823
sS'ACAGGT'
p69
I687
sS'ACCTGT'
p70
I1645
sS'TCATGT'
p71
I1676
sS'CTCCGA'
p72
I2569
sS'TTACAG'
p73
I1636
sS'CTCCGC'
p74
I7572
sS'TTACAA'
p75
I1447
sS'CCGGCA'
p76
I829
sS'TTACAC'
p77
I867
sS'CTCCGG'
p78
I5766
sS'TCATGC'
p79
I2172
sS'ACCTGG'
p80
I6075
sS'CCGTGT'
p81
I474
sS'GTAAGC'
p82
I2073
sS'TCATGG'
p83
I2511
sS'CCCGCA'
p84
I2174
sS'ACCTGA'
p85
I4160
sS'TTACAT'
p86
I608
sS'CTCGAT'
p87
I218
sS'CTCCGT'
p88
I1400
sS'GAATTT'
p89
I724
sS'GCCTGA'
p90
I10631
sS'GCCTGC'
p91
I14878
sS'GCCTGG'
p92
I20202
sS'TAAAGG'
p93
I5205
sS'CAAATT'
p94
I427
sS'TAAAGA'
p95
I5387
sS'TAAAGC'
p96
I3828
sS'GCCTGT'
p97
I5986
sS'TATCTA'
p98
I6271
sS'TAAAGT'
p99
I2144
sS'CAAATA'
p100
I3668
sS'GCTTGT'
p101
I2266
sS'CAAATC'
p102
I1035
sS'CGTGCT'
p103
I444
sS'CAAATG'
p104
I4891
sS'AATACT'
p105
I2540
sS'TATCTC'
p106
I4682
sS'GGCATG'
p107
I7918
sS'GGCATA'
p108
I3313
sS'GGCATC'
p109
I2377
sS'AATACG'
p110
I929
sS'AATACA'
p111
I6318
sS'AATACC'
p112
I3051
sS'GGCATT'
p113
I1210
sS'TATCTG'
p114
I10631
sS'TGCACA'
p115
I8090
sS'GAGCAC'
p116
I4566
sS'GAGCAA'
p117
I5128
sS'CATATC'
p118
I2120
sS'GAGCAG'
p119
I9035
sS'AGTAGT'
p120
I2157
sS'TCTCGC'
p121
I1384
sS'TCTCGA'
p122
I681
sS'TCTCGG'
p123
I1750
sS'ACTGAG'
p124
I3794
sS'AGTAGA'
p125
I4422
sS'AGTAGG'
p126
I4395
sS'GAGCAT'
p127
I1383
sS'TTGAAC'
p128
I2134
sS'TTTGTT'
p129
I1587
sS'GTGTCG'
p130
I1057
sS'TCGAAC'
p131
I183
sS'TCGAAA'
p132
I216
sS'GTGTCC'
p133
I4661
sS'TCGAAG'
p134
I319
sS'GTGTCA'
p135
I5342
sS'CTTGCT'
p136
I2424
sS'TCGGTC'
p137
I168
sS'GTGTCT'
p138
I3496
sS'TTGAAG'
p139
I3277
sS'TCGAAT'
p140
I81
sS'CTTGCG'
p141
I1182
sS'CTTGCA'
p142
I4026
sS'CTTGCC'
p143
I3412
sS'CGAAAG'
p144
I450
sS'CGAAAA'
p145
I224
sS'CGAAAC'
p146
I320
sS'AAGGTT'
p147
I626
sS'CACGGA'
p148
I1954
sS'AAATGC'
p149
I3944
sS'CACGGC'
p150
I2667
sS'AAATGA'
p151
I5074
sS'ACAGTC'
p152
I599
sS'CACGGG'
p153
I2913
sS'ACAGTA'
p154
I1714
sS'CGAAAT'
p155
I92
sS'ACAGTT'
p156
I343
sS'AATCAG'
p157
I7712
sS'CACGGT'
p158
I726
sS'AAATGT'
p159
I2526
sS'AATCAC'
p160
I6703
sS'GGGTCT'
p161
I961
sS'TCTAGT'
p162
I1472
sS'TTGCCG'
p163
I1116
sS'TTGCCA'
p164
I4554
sS'GGGTAT'
p165
I405
sS'GGGTAC'
p166
I762
sS'TCTAGG'
p167
I3472
sS'GGGTAA'
p168
I1186
sS'TCTAGA'
p169
I3034
sS'GGGTAG'
p170
I1301
sS'TCTAGC'
p171
I2384
sS'ATACGG'
p172
I292
sS'ATACAT'
p173
I459
sS'AGATGT'
p174
I1412
sS'TCGCCC'
p175
I570
sS'TCGCCA'
p176
I316
sS'ATAGTC'
p177
I505
sS'TCGCCG'
p178
I269
sS'GGTAAT'
p179
I729
sS'ACCCAT'
p180
I557
sS'ACCCAC'
p181
I3324
sS'GGTAAC'
p182
I2010
sS'ACCCAA'
p183
I2417
sS'AGATGG'
p184
I2882
sS'ACCCAG'
p185
I4428
sS'GGTAAG'
p186
I2600
sS'TCGCCT'
p187
I216
sS'AGATGC'
p188
I2036
sS'GCTCAC'
p189
I2902
sS'CCCCAT'
p190
I859
sS'TTGGGT'
p191
I1124
sS'CACTAG'
p192
I6658
sS'CACTAA'
p193
I7709
sS'CACTAC'
p194
I5409
sS'CCCCAA'
p195
I3025
sS'CCCCAC'
p196
I5104
sS'CCCCAG'
p197
I5756
sS'CACTAT'
p198
I2567
sS'TTGGGG'
p199
I3830
sS'TCGGTT'
p200
I61
sS'TTGGGA'
p201
I3506
sS'TTGGGC'
p202
I2171
sS'TGCCTG'
p203
I18663
sS'TGCAGA'
p204
I11783
sS'TTTCTG'
p205
I15183
sS'TGCAGC'
p206
I13120
sS'TGCCTC'
p207
I8348
sS'TGCCTA'
p208
I6767
sS'TGCAGG'
p209
I13077
sS'ACGCCT'
p210
I220
sS'TCAGAC'
p211
I911
sS'TTTCTT'
p212
I2266
sS'ACGTGC'
p213
I939
sS'TGCCTT'
p214
I2883
sS'TGCAGT'
p215
I7053
sS'ACAATT'
p216
I322
sS'AAGGAA'
p217
I6852
sS'AAGGAC'
p218
I3654
sS'AAGGAG'
p219
I6834
sS'ATATGC'
p220
I2136
sS'ATATGA'
p221
I2715
sS'TACGAA'
p222
I814
sS'ATATGG'
p223
I2366
sS'AAGGAT'
p224
I1117
sS'AGGGCC'
p225
I3302
sS'ACATTT'
p226
I723
sS'TGGTTT'
p227
I1446
sS'ATATGT'
p228
I1856
sS'GGTCCC'
p229
I1608
sS'GCCCAG'
p230
I9030
sS'GGTCCA'
p231
I1254
sS'GCCCAA'
p232
I3198
sS'GGTCCG'
p233
I641
sS'AGGTCT'
p234
I1489
sS'TGTGTC'
p235
I3124
sS'AGACCC'
p236
I585
sS'TAGCGA'
p237
I592
sS'CTTCGG'
p238
I1975
sS'CTTCGA'
p239
I964
sS'CTTCGC'
p240
I1696
sS'CCACTA'
p241
I912
sS'TCCGGG'
p242
I3797
sS'AGGTCA'
p243
I3790
sS'AAAGTT'
p244
I429
sS'TCCGGC'
p245
I2599
sS'GGTCCT'
p246
I679
sS'TCCGGA'
p247
I1606
sS'CTTAGC'
p248
I3952
sS'ATTGTG'
p249
I4650
sS'CTTAGA'
p250
I4852
sS'TCTTGC'
p251
I5334
sS'CTTAGG'
p252
I4486
sS'ATTGTC'
p253
I898
sS'TCTTGG'
p254
I6963
sS'GCCTTT'
p255
I4308
sS'ATTTTG'
p256
I11165
sS'TCCAGG'
p257
I13330
sS'ATTTTA'
p258
I12294
sS'CGCTAG'
p259
I1614
sS'ATTTTC'
p260
I4605
sS'TCCAGC'
p261
I12060
sS'TAGCAG'
p262
I3604
sS'GATACT'
p263
I2064
sS'TAGCAC'
p264
I2367
sS'TAGCAA'
p265
I3038
sS'TAAATA'
p266
I6491
sS'ATTTTT'
p267
I1610
sS'GCCTTG'
p268
I16699
sS'GTGGGG'
p269
I7534
sS'GCCTTA'
p270
I8779
sS'TTGACA'
p271
I2438
sS'TAAATG'
p272
I6593
sS'GATACG'
p273
I897
sS'TAGCAT'
p274
I1051
sS'GATACC'
p275
I2168
sS'GATACA'
p276
I4599
sS'TGAGCT'
p277
I1095
sS'GATCAT'
p278
I1688
sS'AAGACA'
p279
I5909
sS'AAGACC'
p280
I2845
sS'GTGGGC'
p281
I3462
sS'AAGACG'
p282
I1348
sS'GATCAG'
p283
I5326
sS'TGAGCG'
p284
I592
sS'GATCAC'
p285
I4453
sS'TGAGCC'
p286
I1901
sS'AAGACT'
p287
I2131
sS'ACCACG'
p288
I2050
sS'GGCGTT'
p289
I321
sS'GCGGTA'
p290
I408
sS'GCGGTG'
p291
I1784
sS'CGGTGT'
p292
I573
sS'TCGTTA'
p293
I538
sS'TCGTTC'
p294
I382
sS'ATGTGG'
p295
I6725
sS'TCGTTG'
p296
I844
sS'TTGGAG'
p297
I2744
sS'GAGTTT'
p298
I1961
sS'GCGGTT'
p299
I84
sS'AGTAAA'
p300
I5877
sS'ATGTGA'
p301
I5701
sS'ACTTGA'
p302
I3990
sS'CGGTGG'
p303
I1966
sS'ACTTGG'
p304
I4860
sS'CGGTGA'
p305
I1149
sS'CGGTGC'
p306
I1482
sS'TTCCTA'
p307
I12623
sS'TAGACT'
p308
I1407
sS'TTCCTC'
p309
I13572
sS'ACTGAC'
p310
I2408
sS'CTTCCG'
p311
I1971
sS'TGGGTT'
p312
I369
sS'TTCCTG'
p313
I28114
sS'TCCTTT'
p314
I6504
sS'GACCCA'
p315
I5398
sS'TAGACG'
p316
I649
sS'TTCCTT'
p317
I5638
sS'TAGACC'
p318
I1760
sS'TAGACA'
p319
I3458
sS'TCCTTG'
p320
I20099
sS'TCCTTA'
p321
I14246
sS'TCCTTC'
p322
I14377
sS'ATCTCT'
p323
I4424
sS'ACCGTT'
p324
I165
sS'TGGCGC'
p325
I1310
sS'TTTACG'
p326
I846
sS'TGGCGA'
p327
I681
sS'GGCCAT'
p328
I969
sS'ATCTCG'
p329
I1750
sS'ATCTCA'
p330
I9462
sS'ATCTCC'
p331
I7017
sS'GGCCAA'
p332
I4814
sS'ACGGAG'
p333
I496
sS'GGCCAC'
p334
I5135
sS'AGGTAG'
p335
I1514
sS'ATGCAG'
p336
I3325
sS'GGCCAG'
p337
I7929
sS'ACCGTC'
p338
I579
sS'ACCGAC'
p339
I749
sS'AGAATT'
p340
I529
sS'GGCAGT'
p341
I4173
sS'TATGAT'
p342
I1495
sS'CAAAGG'
p343
I5095
sS'CCATAC'
p344
I474
sS'CAAAGA'
p345
I4721
sS'AGATTC'
p346
I1032
sS'CAAAGC'
p347
I3989
sS'CAACGT'
p348
I174
sS'GGCAGA'
p349
I9764
sS'GGCAGC'
p350
I12462
sS'CGTGAG'
p351
I1850
sS'GGCAGG'
p352
I15398
sS'CAACGC'
p353
I414
sS'CTAACA'
p354
I3061
sS'CAACGA'
p355
I328
sS'CTAACC'
p356
I1924
sS'CCATAT'
p357
I516
sS'CTAACG'
p358
I537
sS'GGGGGT'
p359
I724
sS'TACGCT'
p360
I473
sS'AGATTG'
p361
I2530
sS'CGATCT'
p362
I91
sS'CTCTAG'
p363
I8710
sS'CTCTAA'
p364
I9586
sS'CTCTAC'
p365
I6655
sS'GGGGGG'
p366
I1976
sS'CGATCC'
p367
I256
sS'TACGCC'
p368
I897
sS'GGGGGC'
p369
I2359
sS'CGATCG'
p370
I65
sS'GGGGGA'
p371
I2399
sS'TACGCG'
p372
I532
sS'CTCTAT'
p373
I3141
sS'ACCGAA'
p374
I561
sS'CAGACC'
p375
I3275
sS'CAGACA'
p376
I5121
sS'CAGACG'
p377
I1386
sS'CGCTAA'
p378
I1310
sS'TAGTTG'
p379
I5740
sS'ACTAGT'
p380
I829
sS'TAGTTC'
p381
I3208
sS'TTACTT'
p382
I478
sS'CAGACT'
p383
I1873
sS'GCTAAG'
p384
I2943
sS'TAGTTT'
p385
I1649
sS'GCTAAC'
p386
I1583
sS'TCAGGG'
p387
I2446
sS'GCTAAA'
p388
I2404
sS'TGCATT'
p389
I2687
sS'GCGAAA'
p390
I279
sS'AACCCT'
p391
I2243
sS'AACCCC'
p392
I4019
sS'TGCATG'
p393
I11736
sS'TGCATA'
p394
I7662
sS'TGCATC'
p395
I3966
sS'AGATTT'
p396
I445
sS'ACGTAA'
p397
I380
sS'CGCGGT'
p398
I667
sS'AACTGA'
p399
I13248
sS'AACTGC'
p400
I11639
sS'CCCAGA'
p401
I9042
sS'CCCAGC'
p402
I13653
sS'CCCAGG'
p403
I14435
sS'AACTGT'
p404
I6938
sS'AGTTTT'
p405
I2192
sS'CTACAT'
p406
I468
sS'CGAGTC'
p407
I219
sS'CCCAGT'
p408
I3996
sS'CGCATA'
p409
I862
sS'ATACTG'
p410
I2256
sS'CGCATC'
p411
I827
sS'ATACTA'
p412
I1297
sS'ATACTC'
p413
I565
sS'CGCATG'
p414
I2464
sS'GCGCAA'
p415
I270
sS'GCGAAT'
p416
I75
sS'ACTTGC'
p417
I3324
sS'ATACTT'
p418
I329
sS'CGCATT'
p419
I374
sS'GCGCAC'
p420
I577
sS'GCTCCG'
p421
I1576
sS'TATTGT'
p422
I4905
sS'GCTCCC'
p423
I2784
sS'GCTCCA'
p424
I2918
sS'CCTACT'
p425
I1144
sS'TGTACT'
p426
I1761
sS'TTTAGT'
p427
I3039
sS'TATTGG'
p428
I6010
sS'GCTCCT'
p429
I1482
sS'GCGCAG'
p430
I1037
sS'TATTGA'
p431
I6599
sS'TTTAGG'
p432
I5001
sS'TGTACG'
p433
I697
sS'CCTACG'
p434
I602
sS'TGTACA'
p435
I3918
sS'CCTACA'
p436
I2007
sS'ACAGTG'
p437
I3005
sS'TTTAGA'
p438
I6380
sS'TTCGCG'
p439
I765
sS'TTCGCA'
p440
I990
sS'TTCGCC'
p441
I1313
sS'AGTATC'
p442
I1425
sS'GACTAA'
p443
I11676
sS'AGTATA'
p444
I3640
sS'GACTAC'
p445
I6079
sS'AGTATG'
p446
I5180
sS'TTTGGA'
p447
I4998
sS'TTTGGC'
p448
I3567
sS'TTCGCT'
p449
I621
sS'CTTTTA'
p450
I14082
sS'GACTAT'
p451
I3002
sS'AGTATT'
p452
I934
sS'TTACTC'
p453
I1138
sS'TTACTA'
p454
I2058
sS'TTACTG'
p455
I3210
sS'ACCTTG'
p456
I10038
sS'GAGTAG'
p457
I4104
sS'ACCTTC'
p458
I5191
sS'ACCTTA'
p459
I6075
sS'TATATC'
p460
I2281
sS'CTAATA'
p461
I2876
sS'GTAAAC'
p462
I2159
sS'ACGCTT'
p463
I91
sS'ACCTTT'
p464
I1822
sS'ACAGGG'
p465
I2409
sS'CTGGGA'
p466
I8192
sS'CTGGGC'
p467
I5808
sS'ACAGGC'
p468
I1698
sS'ACAGGA'
p469
I3246
sS'CTGGGG'
p470
I7640
sS'AGGACG'
p471
I1393
sS'GCAGCT'
p472
I1983
sS'CAGGAA'
p473
I4925
sS'TTTCAT'
p474
I2012
sS'CAGGAG'
p475
I5352
sS'AGGACA'
p476
I3868
sS'GCGCAT'
p477
I113
sS'CGATTT'
p478
I49
sS'TTATAC'
p479
I1399
sS'TTATAA'
p480
I2353
sS'CTGGGT'
p481
I2408
sS'TTATAG'
p482
I1562
sS'TCGCTG'
p483
I1294
sS'GCAGCG'
p484
I1371
sS'AGGACT'
p485
I1654
sS'GCAGCA'
p486
I3854
sS'GCAGCC'
p487
I2897
sS'CAGGAT'
p488
I919
sS'CCTCAG'
p489
I4631
sS'CCTCAA'
p490
I2652
sS'CCTCAC'
p491
I2991
sS'TATGTT'
p492
I1696
sS'ATGGGC'
p493
I1771
sS'TCTTTG'
p494
I15780
sS'ATGGGA'
p495
I3307
sS'TCTTTA'
p496
I11594
sS'ATGGGG'
p497
I3156
sS'TCTTTC'
p498
I8117
sS'CCTCAT'
p499
I912
sS'TGCGAT'
p500
I296
sS'TATGTG'
p501
I11103
sS'TATGTA'
p502
I7914
sS'ATGGGT'
p503
I842
sS'TATGTC'
p504
I2603
sS'GAAAGA'
p505
I8774
sS'ATCAAG'
p506
I4951
sS'GAAAGC'
p507
I6291
sS'ATCAAC'
p508
I3762
sS'GAAAGG'
p509
I9518
sS'TCAAAA'
p510
I1381
sS'GGAACT'
p511
I747
sS'GTCGTT'
p512
I247
sS'CATGAG'
p513
I6690
sS'ATCAAT'
p514
I1166
sS'TCAAAC'
p515
I1121
sS'CATGAC'
p516
I5430
sS'ACCTGC'
p517
I5270
sS'TGACCT'
p518
I425
sS'GTAGCG'
p519
I505
sS'CAAGTT'
p520
I406
sS'GCTTTG'
p521
I13365
sS'GCTTTA'
p522
I7896
sS'GCTTTC'
p523
I5469
sS'TTTCTC'
p524
I6558
sS'AAAGTA'
p525
I3157
sS'GCGGCG'
p526
I1503
sS'TGCCAG'
p527
I7417
sS'GTAGCT'
p528
I1271
sS'GCGGCC'
p529
I1807
sS'CAAGTC'
p530
I996
sS'GCGGCA'
p531
I941
sS'CAAGTA'
p532
I2042
sS'AACGGT'
p533
I537
sS'CCCTTT'
p534
I3718
sS'GGGGAA'
p535
I1972
sS'TAATCG'
p536
I315
sS'ATGAAA'
p537
I3456
sS'TAATCA'
p538
I2590
sS'TAATCC'
p539
I2007
sS'GGGTTT'
p540
I769
sS'CGGCCC'
p541
I2106
sS'CGACTA'
p542
I142
sS'CGGCCA'
p543
I1230
sS'CGCTAT'
p544
I450
sS'CGGCCG'
p545
I1338
sS'TCGTGA'
p546
I534
sS'ATGAAG'
p547
I3420
sS'GGTCTG'
p548
I5693
sS'TAATCT'
p549
I986
sS'GGTCTC'
p550
I2162
sS'TAGGGC'
p551
I2557
sS'AAAATG'
p552
I6236
sS'AAAATC'
p553
I953
sS'AAAATA'
p554
I5124
sS'TTCAGC'
p555
I12216
sS'ATCCCT'
p556
I1677
sS'TTCAGG'
p557
I13049
sS'GAACAT'
p558
I498
sS'TCGTCG'
p559
I178
sS'TTTAGC'
p560
I4035
sS'TGTTTT'
p561
I4419
sS'GAACAA'
p562
I1780
sS'ATCCCG'
p563
I1285
sS'GAACAC'
p564
I1677
sS'ATCCCC'
p565
I3170
sS'GAACAG'
p566
I2295
sS'ATCCCA'
p567
I4109
sS'GCACTT'
p568
I236
sS'ATTGCA'
p569
I2655
sS'CGGCTT'
p570
I289
sS'CACCAC'
p571
I7054
sS'CACCAA'
p572
I5114
sS'CACCAG'
p573
I7415
sS'TCCGTG'
p574
I2900
sS'ATTGCG'
p575
I449
sS'TCCGTC'
p576
I1054
sS'TCCGTA'
p577
I1065
sS'ACCAGA'
p578
I5732
sS'CACCAT'
p579
I1802
sS'AACATG'
p580
I13582
sS'AACATA'
p581
I10402
sS'AACATC'
p582
I5270
sS'CAGTCG'
p583
I1073
sS'GCACGG'
p584
I578
sS'GTCAGA'
p585
I10129
sS'GCACGA'
p586
I341
sS'CAGTCC'
p587
I4657
sS'GCACGC'
p588
I556
sS'CAGTCA'
p589
I6078
sS'GCAAGC'
p590
I1618
sS'GCACGT'
p591
I240
sS'CAGTCT'
p592
I2564
sS'GCAAGG'
p593
I2643
sS'GTCAGT'
p594
I5174
sS'GTATAC'
p595
I1164
sS'TTCCGT'
p596
I1134
sS'GTATAA'
p597
I1618
sS'GTATAG'
p598
I966
sS'CCGGAA'
p599
I505
sS'CCGGAC'
p600
I417
sS'CCGGAG'
p601
I767
sS'TATCAT'
p602
I1863
sS'CTCGTA'
p603
I1102
sS'TTCCGG'
p604
I4403
sS'TTCCGA'
p605
I1698
sS'TTCCGC'
p606
I3417
sS'GTATAT'
p607
I977
sS'TATCAC'
p608
I3891
sS'CGTCTA'
p609
I961
sS'CGTCTG'
p610
I2792
sS'CCGGAT'
p611
I83
sS'CTCTTC'
p612
I17365
sS'TGTTAT'
p613
I2495
sS'CTCTTA'
p614
I15625
sS'CTCTTG'
p615
I22449
sS'AGGGCT'
p616
I1417
sS'TACGTA'
p617
I1765
sS'TACGTC'
p618
I904
sS'TCTGGT'
p619
I1159
sS'CGCGAT'
p620
I221
sS'TACGTG'
p621
I2753
sS'TGTTAG'
p622
I5666
sS'GCTGTT'
p623
I808
sS'TGTTAC'
p624
I4919
sS'CTCTTT'
p625
I8302
sS'TGTTAA'
p626
I6600
sS'TCTGGG'
p627
I5991
sS'CGCGAC'
p628
I1107
sS'GATATT'
p629
I1239
sS'TCTGGC'
p630
I3343
sS'TACGTT'
p631
I461
sS'CGCGAG'
p632
I2235
sS'AGTCGT'
p633
I471
sS'TTACCT'
p634
I624
sS'CTCCAT'
p635
I2304
sS'TACGGC'
p636
I1027
sS'ACTAGA'
p637
I2488
sS'TATGCC'
p638
I2210
sS'TTACCG'
p639
I301
sS'CTCCAC'
p640
I7878
sS'CTCCAA'
p641
I6677
sS'TTACCC'
p642
I864
sS'CTCCAG'
p643
I12114
sS'TTACCA'
p644
I1503
sS'AGTCGC'
p645
I1441
sS'GTACCG'
p646
I264
sS'CCGACT'
p647
I186
sS'GCCTAC'
p648
I3890
sS'GCCTAA'
p649
I4484
sS'GCCTAG'
p650
I5488
sS'CCGACA'
p651
I339
sS'GATATC'
p652
I1794
sS'CCGACC'
p653
I586
sS'CCGACG'
p654
I293
sS'AAGCTC'
p655
I3519
sS'GCCTAT'
p656
I1460
sS'TGACGG'
p657
I378
sS'ACGCGG'
p658
I628
sS'AGGGCG'
p659
I1829
sS'CTCGTT'
p660
I389
sS'CTAAGT'
p661
I1842
sS'CCCGAA'
p662
I879
sS'CGCACA'
p663
I2337
sS'ATACAC'
p664
I880
sS'CGCACC'
p665
I2098
sS'GGGTCG'
p666
I741
sS'ACTGCT'
p667
I1133
sS'GGGTCA'
p668
I2188
sS'CGCACG'
p669
I1759
sS'GGGTCC'
p670
I2023
sS'CTCACT'
p671
I6754
sS'TTTGTA'
p672
I6798
sS'ACTGCA'
p673
I3204
sS'TTTGTC'
p674
I2442
sS'ACTGCC'
p675
I2004
sS'CGCACT'
p676
I1038
sS'TTTGTG'
p677
I9938
sS'ACTGCG'
p678
I917
sS'CTCACC'
p679
I8704
sS'CTCACA'
p680
I11540
sS'CTCACG'
p681
I3170
sS'TAGTGG'
p682
I5082
sS'GTGAGG'
p683
I6720
sS'GATTTT'
p684
I2768
sS'TAGTGC'
p685
I3248
sS'GTGAGC'
p686
I4454
sS'TAGTGA'
p687
I5051
sS'GTGAGA'
p688
I4662
sS'TCGACG'
p689
I136
sS'TCGACA'
p690
I181
sS'TAGAGG'
p691
I5799
sS'ACAATA'
p692
I1667
sS'GTGAGT'
p693
I3640
sS'ACAATC'
p694
I469
sS'GTGGGA'
p695
I5706
sS'ACAATG'
p696
I2889
sS'TCGACT'
p697
I109
sS'CTGGTT'
p698
I730
sS'TTGAGT'
p699
I2331
sS'GTGGGT'
p700
I1934
sS'CGAACG'
p701
I178
sS'CGAACC'
p702
I322
sS'CGAACA'
p703
I395
sS'CTGGTG'
p704
I5954
sS'CTGGTA'
p705
I2609
sS'CTGGTC'
p706
I1490
sS'CTGCAA'
p707
I3640
sS'CGAACT'
p708
I161
sS'CGCTGA'
p709
I3804
sS'TTGCAT'
p710
I1259
sS'GACGAG'
p711
I2423
sS'NNGAAT'
p712
I1
sS'CGTCTT'
p713
I297
sS'TTGCAG'
p714
I3974
sS'ACTCCT'
p715
I865
sS'TTGCAC'
p716
I2376
sS'TTGCAA'
p717
I2906
sS'AAGATC'
p718
I1531
sS'ACGTAC'
p719
I265
sS'TCCATC'
p720
I3999
sS'TCGCAT'
p721
I42
sS'GTCGTG'
p722
I1820
sS'GTCGTA'
p723
I700
sS'GTCGTC'
p724
I748
sS'CCGTTT'
p725
I160
sS'ACTGAT'
p726
I558
sS'ATATCG'
p727
I249
sS'TGGCAC'
p728
I1720
sS'TCGCAG'
p729
I385
sS'GAGGGG'
p730
I12538
sS'CCAAGC'
p731
I1645
sS'TCGCAC'
p732
I196
sS'CCGTTG'
p733
I934
sS'CCGTTA'
p734
I611
sS'CCGTTC'
p735
I425
sS'AATGCT'
p736
I2440
sS'GGTACG'
p737
I317
sS'GGTACA'
p738
I1349
sS'GGTACC'
p739
I846
sS'TATTTG'
p740
I20164
sS'CCAGTT'
p741
I394
sS'TATTTC'
p742
I11431
sS'TATTTA'
p743
I22828
sS'CCCCCT'
p744
I1355
sS'GGTACT'
p745
I619
sS'AATGCG'
p746
I1253
sS'AATGCC'
p747
I3606
sS'AATGCA'
p748
I6618
sS'CCCCCC'
p749
I1843
sS'CCCCCA'
p750
I3790
sS'TATTTT'
p751
I6095
sS'CCCCCG'
p752
I2055
sS'GAGCGA'
p753
I2398
sS'CTTGAG'
p754
I4488
sS'ATGATG'
p755
I5723
sS'CTTGAC'
p756
I2619
sS'GCGTTA'
p757
I642
sS'ATGATC'
p758
I937
sS'TGCAAC'
p759
I5682
sS'TGCAAA'
p760
I9037
sS'TGCAAG'
p761
I7935
sS'GAAGTG'
p762
I6072
sS'ATGATT'
p763
I795
sS'CTTGAT'
p764
I802
sS'CGAATC'
p765
I142
sS'TTGAGG'
p766
I4560
sS'GCCATT'
p767
I1257
sS'TTGAGC'
p768
I2975
sS'TTGAGA'
p769
I4379
sS'GAGAAT'
p770
I2244
sS'TGTCTT'
p771
I1600
sS'CGAATA'
p772
I276
sS'TTCAGA'
p773
I13716
sS'AGTAGC'
p774
I3748
sS'AAGGCC'
p775
I4723
sS'ATAACC'
p776
I1389
sS'AAGGCA'
p777
I6466
sS'ATAACA'
p778
I2856
sS'AAGGCG'
p779
I1938
sS'ATAACG'
p780
I377
sS'TATGCT'
p781
I1728
sS'GAGGGT'
p782
I2128
sS'TGTCTG'
p783
I12932
sS'GAGAAG'
p784
I11372
sS'GAGAAA'
p785
I9991
sS'TGTCTC'
p786
I5335
sS'GAGAAC'
p787
I5994
sS'TGTCTA'
p788
I5176
sS'TGTGGC'
p789
I4820
sS'TGTGGA'
p790
I4601
sS'TGTGGG'
p791
I7129
sS'ATAACT'
p792
I1083
sS'AAGGCT'
p793
I2117
sS'CTGTAA'
p794
I3848
sS'CAATTT'
p795
I288
sS'GCCCCG'
p796
I4642
sS'ACCAAG'
p797
I4718
sS'GGTCAG'
p798
I3853
sS'GCCCCC'
p799
I4638
sS'GGTCAA'
p800
I1935
sS'ACCAAC'
p801
I3217
sS'GGTCAC'
p802
I2706
sS'TAACGA'
p803
I325
sS'GATCGC'
p804
I1444
sS'GGTCAT'
p805
I714
sS'ACCAAT'
p806
I1483
sS'CGTGCA'
p807
I1155
sS'GAACTG'
p808
I4067
sS'CGTGCG'
p809
I1058
sS'AGGTAC'
p810
I1012
sS'TTTTGC'
p811
I7755
sS'TCTTAC'
p812
I2870
sS'AATTGG'
p813
I5156
sS'TCTTAA'
p814
I4453
sS'AATTGA'
p815
I5589
sS'TCTTAG'
p816
I4121
sS'AATTGC'
p817
I6050
sS'TAGCCA'
p818
I2990
sS'TGGGGT'
p819
I950
sS'CGCTCG'
p820
I2702
sS'GATAAT'
p821
I1944
sS'CGCTCA'
p822
I3046
sS'CGCTCC'
p823
I5890
sS'AATTGT'
p824
I3508
sS'CGAGAG'
p825
I571
sS'GCCATC'
p826
I2814
sS'TCTTAT'
p827
I1329
sS'TTTTGT'
p828
I5479
sS'CGCTCT'
p829
I2104
sS'GATAAA'
p830
I7776
sS'GATAAC'
p831
I4122
sS'TAGCCT'
p832
I1125
sS'TGGGGC'
p833
I3013
sS'TGGGGA'
p834
I3312
sS'CTCTCA'
p835
I13726
sS'GATCCT'
p836
I1527
sS'AAGAAT'
p837
I2264
sS'GGGGCT'
p838
I1085
sS'GTTATC'
p839
I1364
sS'AAGAAC'
p840
I4900
sS'GATCCA'
p841
I3128
sS'AAGAAA'
p842
I9179
sS'GATCCC'
p843
I3006
sS'AAGAAG'
p844
I7684
sS'GATCCG'
p845
I1236
sS'GCCCCA'
p846
I5097
sS'TATTAA'
p847
I8728
sS'CAAGGG'
p848
I3723
sS'ATCGAG'
p849
I616
sS'CAAGGC'
p850
I3131
sS'GGTTCT'
p851
I1608
sS'CAAGGA'
p852
I4393
sS'TTGATA'
p853
I2701
sS'GGTTCA'
p854
I3028
sS'GGTTCC'
p855
I3285
sS'CAAGGT'
p856
I1430
sS'GGTTCG'
p857
I995
sS'CTGTAT'
p858
I1609
sS'ATTATA'
p859
I3508
sS'ATTATC'
p860
I1159
sS'TAGAAT'
p861
I1574
sS'GATAGT'
p862
I2119
sS'ATTATG'
p863
I4232
sS'AGTCTT'
p864
I1259
sS'TAGAAA'
p865
I4963
sS'TAGAAC'
p866
I3057
sS'ATTATT'
p867
I857
sS'TAGAAG'
p868
I4740
sS'AGTCTA'
p869
I4199
sS'AGTCTC'
p870
I3956
sS'TTTAAC'
p871
I4877
sS'GTTATT'
p872
I1070
sS'AGTCTG'
p873
I9571
sS'TAACTC'
p874
I941
sS'TAACTA'
p875
I1796
sS'TAACTG'
p876
I3134
sS'ATCTAT'
p877
I1811
sS'ACGCGT'
p878
I89
sS'AGGTAT'
p879
I698
sS'TAACTT'
p880
I321
sS'ATCTAG'
p881
I4753
sS'ATCTAC'
p882
I3882
sS'ATCTAA'
p883
I6342
sS'CCATGT'
p884
I1468
sS'ACCAAA'
p885
I4397
sS'TGGAGG'
p886
I7394
sS'TGGAGA'
p887
I5367
sS'TGGAGC'
p888
I4453
sS'CCATGC'
p889
I1550
sS'CCATGA'
p890
I1799
sS'CCATGG'
p891
I2305
sS'TGGAGT'
p892
I2435
sS'ATTACG'
p893
I568
sS'TCAGTA'
p894
I1691
sS'TCAGTC'
p895
I665
sS'CTCTCT'
p896
I11000
sS'GGGGAT'
p897
I332
sS'TCAGTG'
p898
I3372
sS'CGATAT'
p899
I44
sS'CTCTCG'
p900
I4326
sS'GGGGAC'
p901
I1476
sS'CTCTCC'
p902
I18411
sS'TCAGTT'
p903
I369
sS'GGGGAG'
p904
I3483
sS'CGATAG'
p905
I97
sS'CGATAA'
p906
I110
sS'CGATAC'
p907
I96
sS'GTGTTT'
p908
I2853
sS'GCTACT'
p909
I1038
sS'GTGGTT'
p910
I943
sS'CTAAGA'
p911
I3674
sS'GTGTTC'
p912
I3842
sS'GTGTTA'
p913
I5617
sS'GTGTTG'
p914
I8691
sS'CGTGCC'
p915
I1043
sS'GTGGTA'
p916
I2827
sS'GCTACA'
p917
I2047
sS'GTGGTC'
p918
I1427
sS'GCTACC'
p919
I1291
sS'GTGGTG'
p920
I6541
sS'GCTACG'
p921
I604
sS'GCCCCT'
p922
I2049
sS'TTTCGT'
p923
I495
sS'TGCCCT'
p924
I2297
sS'AGCGTT'
p925
I458
sS'AGGTAA'
p926
I1487
sS'TGCCCC'
p927
I4615
sS'TTTCGC'
p928
I984
sS'TGCCCG'
p929
I2112
sS'TTTCGG'
p930
I1197
sS'AGCGTA'
p931
I1032
sS'AGCGTC'
p932
I1405
sS'CGAGTT'
p933
I69
sS'AGCGTG'
p934
I3712
sS'GGCCCC'
p935
I4717
sS'GGCCCA'
p936
I3821
sS'CACGTG'
p937
I6287
sS'GGCCCG'
p938
I2753
sS'CACGTA'
p939
I2145
sS'CACGTC'
p940
I1720
sS'CTACGC'
p941
I432
sS'ACGTGA'
p942
I1075
sS'ACGTGG'
p943
I1614
sS'AAATGG'
p944
I3903
sS'CACGTT'
p945
I561
sS'TTCACG'
p946
I2131
sS'GNCCCA'
p947
I1
sS'GGCCCT'
p948
I1692
sS'GGGACA'
p949
I2283
sS'TTTTGG'
p950
I8087
sS'GGGACC'
p951
I2149
sS'AGGGAC'
p952
I2272
sS'TCGTGG'
p953
I963
sS'GGGACG'
p954
I1300
sS'TTTCCT'
p955
I3114
sS'AGAGAG'
p956
I3189
sS'AGAGAA'
p957
I3137
sS'AGAGAC'
p958
I1779
sS'TTCACC'
p959
I6107
sS'GTCTTT'
p960
I5437
sS'TCTATC'
p961
I1150
sS'TCTATG'
p962
I4097
sS'AGAGAT'
p963
I631
sS'TCGTGC'
p964
I575
sS'GTCTTG'
p965
I15458
sS'TCTATT'
p966
I782
sS'GTCTTC'
p967
I10298
sS'GTCTTA'
p968
I10689
sS'GCAGAG'
p969
I2757
sS'GCTCAA'
p970
I2484
sS'TAGCCC'
p971
I1966
sS'GCAGAC'
p972
I1061
sS'GCAGAA'
p973
I2515
sS'GCTCAG'
p974
I5074
sS'AGACGT'
p975
I206
sS'ATGCGT'
p976
I316
sS'TTGCTG'
p977
I12103
sS'TTGCTA'
p978
I5906
sS'TTGCTC'
p979
I5056
sS'GCAGAT'
p980
I597
sS'GCTCAT'
p981
I774
sS'CGAATT'
p982
I57
sS'GTACGG'
p983
I323
sS'TTGCTT'
p984
I2454
sS'ATGCGG'
p985
I787
sS'TAGCCG'
p986
I715
sS'ATGCGC'
p987
I709
sS'ATGCGA'
p988
I481
sS'TGTAAG'
p989
I5530
sS'GGCTAG'
p990
I4534
sS'TGTAAC'
p991
I4513
sS'GGCTAC'
p992
I3945
sS'GACTGT'
p993
I8302
sS'GGCTAA'
p994
I5053
sS'TTCGAG'
p995
I1122
sS'TTGGTA'
p996
I2356
sS'ACTGTC'
p997
I1186
sS'TTGGTC'
p998
I1144
sS'TTCGAC'
p999
I601
sS'ACTGTG'
p1000
I7315
sS'TTGGTG'
p1001
I4190
sS'GACTGC'
p1002
I13094
sS'GGCTAT'
p1003
I1481
sS'GACTGA'
p1004
I14010
sS'GACTGG'
p1005
I15296
sS'TGTGGT'
p1006
I2834
sS'TTGGTT'
p1007
I617
sS'ACTGTT'
p1008
I612
sS'GTTTCT'
p1009
I3720
sS'ATAATT'
p1010
I596
sS'CCTTTT'
p1011
I2013
sS'GTTTCG'
p1012
I1238
sS'GTTTCC'
p1013
I6789
sS'TGGGGG'
p1014
I3793
sS'ATAATG'
p1015
I3399
sS'CCTTTA'
p1016
I8172
sS'CCTTTC'
p1017
I6480
sS'ATAATC'
p1018
I763
sS'ATAATA'
p1019
I3120
sS'CCTTTG'
p1020
I12857
sS'ACAGAA'
p1021
I2373
sS'ACAGAC'
p1022
I1129
sS'ACAGAG'
p1023
I2034
sS'TTATCT'
p1024
I1794
sS'CTGGAC'
p1025
I2149
sS'CTGGAA'
p1026
I4006
sS'CTGGAG'
p1027
I4722
sS'GTAAAT'
p1028
I972
sS'ACAGAT'
p1029
I532
sS'GATAAG'
p1030
I5800
sS'TTATCA'
p1031
I2768
sS'CTGGAT'
p1032
I717
sS'TTATCC'
p1033
I2032
sS'CCAATG'
p1034
I2543
sS'AAACCG'
p1035
I355
sS'ATTTGT'
p1036
I3000
sS'CCAATC'
p1037
I838
sS'AAACCC'
p1038
I1205
sS'CCAATA'
p1039
I1293
sS'TGTCGG'
p1040
I1303
sS'GAGATC'
p1041
I2132
sS'CCCTAT'
p1042
I1158
sS'GAGATA'
p1043
I5194
sS'AACGAA'
p1044
I1258
sS'GAGATG'
p1045
I9933
sS'AACGAC'
p1046
I999
sS'ATTTGA'
p1047
I6005
sS'CCAATT'
p1048
I306
sS'ATTTGC'
p1049
I5100
sS'TTGCCC'
p1050
I3537
sS'ATTTGG'
p1051
I5778
sS'CCCTAG'
p1052
I4260
sS'TGTCGT'
p1053
I463
sS'CCCTAC'
p1054
I3490
sS'GAGATT'
p1055
I995
sS'CCCTAA'
p1056
I4074
sS'CATTAT'
p1057
I2604
sS'TGGATT'
p1058
I561
sS'ATCACA'
p1059
I6899
sS'ATCACC'
p1060
I4138
sS'CATGCT'
p1061
I2195
sS'TGACAC'
p1062
I653
sS'ATCACG'
p1063
I1568
sS'TGGATA'
p1064
I2559
sS'CATTAG'
p1065
I6293
sS'CATTAA'
p1066
I7226
sS'TGGATG'
p1067
I4765
sS'AGCATT'
p1068
I2764
sS'CATGCA'
p1069
I5564
sS'TGACAT'
p1070
I323
sS'CATGCC'
p1071
I3863
sS'ATCACT'
p1072
I3235
sS'CATGCG'
p1073
I1504
sS'GTAGAA'
p1074
I2240
sS'GTAGAC'
p1075
I910
sS'CCGCTT'
p1076
I147
sS'GTAGAG'
p1077
I1879
sS'ACAACA'
p1078
I1865
sS'ACAACC'
p1079
I962
sS'GATTGC'
p1080
I6396
sS'ACAACG'
p1081
I313
sS'TAAATT'
p1082
I678
sS'ACTAAG'
p1083
I3233
sS'GTAGAT'
p1084
I615
sS'TGCTAC'
p1085
I5676
sS'TTGCCT'
p1086
I2743
sS'TGATGC'
p1087
I1579
sS'GATTGT'
p1088
I3948
sS'ACAACT'
p1089
I641
sS'GTCGAA'
p1090
I542
sS'TAATAG'
p1091
I1753
sS'GTCCGG'
p1092
I3008
sS'TGAGGT'
p1093
I1029
sS'GTCCGA'
p1094
I1205
sS'TAATAA'
p1095
I2324
sS'GTCCGC'
p1096
I2987
sS'TGCCAT'
p1097
I1581
sS'ACTCTT'
p1098
I747
sS'GTCCGT'
p1099
I841
sS'TAATAT'
p1100
I859
sS'ATTCGC'
p1101
I587
sS'TTCTCC'
p1102
I16304
sS'ATTCGA'
p1103
I555
sS'TTCTCA'
p1104
I17914
sS'ATTCGG'
p1105
I724
sS'TTCTCG'
p1106
I3385
sS'TCGTAC'
p1107
I157
sS'TACCTT'
p1108
I1478
sS'TCGTAA'
p1109
I213
sS'TCGTAG'
p1110
I247
sS'GAACCT'
p1111
I596
sS'ATCCAA'
p1112
I3611
sS'ATCCAC'
p1113
I3423
sS'TGAACC'
p1114
I1211
sS'TTCTCT'
p1115
I11468
sS'TGAACA'
p1116
I2331
sS'GAACCC'
p1117
I1056
sS'TTATAT'
p1118
I1088
sS'GAACCA'
p1119
I1620
sS'TACCTA'
p1120
I4720
sS'TACCTC'
p1121
I4280
sS'TCGTAT'
p1122
I98
sS'ACCATC'
p1123
I2333
sS'ACCATA'
p1124
I4199
sS'ACCATG'
p1125
I7427
sS'ATGTTG'
p1126
I7618
sS'AGCTCT'
p1127
I6557
sS'TGTCCT'
p1128
I1381
sS'AGTGGT'
p1129
I1637
sS'CGTGGT'
p1130
I718
sS'ATGAGC'
p1131
I3099
sS'ATGTTT'
p1132
I1933
sS'ACCATT'
p1133
I987
sS'AACCTC'
p1134
I5809
sS'AGCTCG'
p1135
I3077
sS'AGTGGC'
p1136
I3618
sS'AGCTCC'
p1137
I11923
sS'AGCTCA'
p1138
I12620
sS'ATAGCC'
p1139
I1136
sS'CAGTAA'
p1140
I3727
sS'CAGTAC'
p1141
I2303
sS'CAGTAG'
p1142
I3104
sS'TTTCAC'
p1143
I4632
sS'CAGTAT'
p1144
I1241
sS'GTTCCT'
p1145
I1577
sS'AAAGTC'
p1146
I1101
sS'AAAGTG'
p1147
I4232
sS'GATCTA'
p1148
I4502
sS'GATCTC'
p1149
I4313
sS'ATTGAC'
p1150
I1425
sS'GATCTG'
p1151
I9940
sS'TTTCAG'
p1152
I6928
sS'CCGGCC'
p1153
I1669
sS'ATTGAA'
p1154
I2137
sS'GTTCCA'
p1155
I2546
sS'CACATT'
p1156
I3053
sS'GTTCCC'
p1157
I2515
sS'TCCCTC'
p1158
I8016
sS'TGTCCG'
p1159
I814
sS'TCCCTA'
p1160
I6086
sS'TTAATG'
p1161
I4274
sS'TCCCTG'
p1162
I15979
sS'GATCTT'
p1163
I1496
sS'CTAGAC'
p1164
I1156
sS'AAGTGA'
p1165
I8352
sS'AAGTGC'
p1166
I5392
sS'TGTTCT'
p1167
I3846
sS'AAGTGG'
p1168
I7210
sS'TGATTG'
p1169
I2794
sS'TGATTC'
p1170
I1597
sS'CGAGGT'
p1171
I324
sS'TGTTCA'
p1172
I7164
sS'CACAAG'
p1173
I9081
sS'TGTTCC'
p1174
I5790
sS'CACAAA'
p1175
I10130
sS'CACAAC'
p1176
I6368
sS'TGTTCG'
p1177
I1231
sS'TCTGAA'
p1178
I3085
sS'TCTGAC'
p1179
I3280
sS'AGACTA'
p1180
I1093
sS'GAAGTC'
p1181
I1549
sS'TCTGAG'
p1182
I4964
sS'CGCGCC'
p1183
I4018
sS'CGCGCA'
p1184
I2225
sS'GGTAAA'
p1185
I2543
sS'CGCGCG'
p1186
I3329
sS'CTCCCT'
p1187
I5680
sS'AGCGGG'
p1188
I4289
sS'AGCGGA'
p1189
I2125
sS'AGCGGC'
p1190
I3582
sS'AGATGA'
p1191
I2895
sS'CGCGCT'
p1192
I1039
sS'ACCTCC'
p1193
I6221
sS'ACCTCA'
p1194
I6844
sS'CTATTG'
p1195
I4428
sS'CTCCCA'
p1196
I10301
sS'CTCCCC'
p1197
I10602
sS'GCCTCT'
p1198
I5734
sS'TAAGCC'
p1199
I2053
sS'CGGGAG'
p1200
I1741
sS'CCCATG'
p1201
I7572
sS'CGGGAA'
p1202
I840
sS'CCCATA'
p1203
I3763
sS'CGGGAC'
p1204
I972
sS'CCCATC'
p1205
I3130
sS'CCGAGA'
p1206
I692
sS'CCTGCT'
p1207
I1733
sS'CCGAAT'
p1208
I76
sS'CCCATT'
p1209
I1304
sS'CGGGAT'
p1210
I160
sS'GCCTCG'
p1211
I4890
sS'GCCTCA'
p1212
I9817
sS'TAAGCT'
p1213
I1129
sS'GCCTCC'
p1214
I14392
sS'CCGAAC'
p1215
I305
sS'CCTGCG'
p1216
I1797
sS'CCGAAA'
p1217
I234
sS'CCGAAG'
p1218
I523
sS'CCTGCC'
p1219
I4181
sS'CCTGCA'
p1220
I3758
sS'CGACAC'
p1221
I125
sS'CCATTC'
p1222
I1402
sS'CCATTA'
p1223
I2029
sS'ATTTCC'
p1224
I5480
sS'TATAAA'
p1225
I9914
sS'TATAAC'
p1226
I3977
sS'GATTTG'
p1227
I14157
sS'TATAAT'
p1228
I2384
sS'GTTCTA'
p1229
I3745
sS'CCATTT'
p1230
I601
sS'TCTACA'
p1231
I2397
sS'TCTACC'
p1232
I1743
sS'TCTACG'
p1233
I537
sS'CACCGT'
p1234
I1043
sS'CGCAAC'
p1235
I1189
sS'ACTCCA'
p1236
I2239
sS'CGCAAA'
p1237
I1285
sS'ATACCG'
p1238
I189
sS'GACGCG'
p1239
I2476
sS'ATACCA'
p1240
I1223
sS'ATACCC'
p1241
I524
sS'TCTACT'
p1242
I1207
sS'CCGAGT'
p1243
I313
sS'ATACCT'
p1244
I495
sS'ACTTTG'
p1245
I10018
sS'TAGTAA'
p1246
I3692
sS'ATTTCT'
p1247
I2646
sS'TAGTAC'
p1248
I1987
sS'CTCAAG'
p1249
I9087
sS'CTCAAA'
p1250
I8929
sS'TAGTAG'
p1251
I2465
sS'CTCAAC'
p1252
I6063
sS'GTGTGC'
p1253
I5854
sS'GTGTGA'
p1254
I6394
sS'GTGTGG'
p1255
I9285
sS'TAACGG'
p1256
I443
sS'TTGCGT'
p1257
I368
sS'CTCAAT'
p1258
I2303
sS'TAGTAT'
p1259
I1272
sS'CTCCCG'
p1260
I5008
sS'GTGTGT'
p1261
I7629
sS'ATCTTT'
p1262
I4137
sS'GTTGGG'
p1263
I4098
sS'GTTGGA'
p1264
I3212
sS'GTTGGC'
p1265
I2607
sS'CCTTGG'
p1266
I6707
sS'CCTTGA'
p1267
I4560
sS'GCGTAT'
p1268
I90
sS'CCTTGC'
p1269
I4985
sS'GGACGT'
p1270
I138
sS'GTTGGT'
p1271
I1274
sS'ATCTTG'
p1272
I14860
sS'ATCTTA'
p1273
I11125
sS'ATCTTC'
p1274
I7978
sS'CCTTGT'
p1275
I2764
sS'AGGATA'
p1276
I3077
sS'AGGATG'
p1277
I7299
sS'GACATG'
p1278
I10609
sS'GACATC'
p1279
I4923
sS'GACATA'
p1280
I7169
sS'TCGGCG'
p1281
I356
sS'GAATAT'
p1282
I699
sS'TCGGCC'
p1283
I729
sS'CATAGC'
p1284
I4694
sS'TTGCGA'
p1285
I452
sS'GACATT'
p1286
I2636
sS'TTGCGG'
p1287
I969
sS'GAATAG'
p1288
I1637
sS'TCGGCT'
p1289
I204
sS'CATAGA'
p1290
I4772
sS'GAATAC'
p1291
I1562
sS'GAATAA'
p1292
I2378
sS'ACTTTT'
p1293
I1339
sS'ATACAA'
p1294
I1163
sS'GACCTT'
p1295
I2198
sS'TTTCTA'
p1296
I8719
sS'ACGTCG'
p1297
I259
sS'GAAATG'
p1298
I8780
sS'AATGAT'
p1299
I1825
sS'GAAATA'
p1300
I5191
sS'GAAATC'
p1301
I1586
sS'ACCGGT'
p1302
I192
sS'GAAATT'
p1303
I578
sS'AATGAA'
p1304
I8374
sS'ATGTCC'
p1305
I2703
sS'AATGAC'
p1306
I6871
sS'AATGAG'
p1307
I9014
sS'TCAGCA'
p1308
I3025
sS'TGCACT'
p1309
I3512
sS'CTTGGC'
p1310
I4661
sS'GTCCTT'
p1311
I2089
sS'CTTGGG'
p1312
I5919
sS'ATACAG'
p1313
I1172
sS'AGCCCT'
p1314
I3160
sS'GCGTAA'
p1315
I244
sS'TTGAAT'
p1316
I1210
sS'GTCCTA'
p1317
I4877
sS'GTCCTC'
p1318
I5982
sS'TGCACG'
p1319
I2201
sS'CTTGGT'
p1320
I1882
sS'GTCCTG'
p1321
I13030
sS'TGCACC'
p1322
I4063
sS'TTGAAA'
p1323
I3557
sS'CTTTTC'
p1324
I8832
sS'AGCCCG'
p1325
I3332
sS'AGCCCA'
p1326
I6866
sS'AGCCCC'
p1327
I6403
sS'TTAACT'
p1328
I1639
sS'ATAAAT'
p1329
I1071
sS'TGGTCG'
p1330
I601
sS'TGGTCA'
p1331
I3333
sS'TGGTCC'
p1332
I2380
sS'ACGATT'
p1333
I55
sS'GAGACT'
p1334
I2933
sS'GATTCA'
p1335
I11885
sS'TGGTCT'
p1336
I1544
sS'ATAAAG'
p1337
I2456
sS'ATAAAA'
p1338
I3075
sS'ATGGTG'
p1339
I3667
sS'ATAAAC'
p1340
I2798
sS'GAGACG'
p1341
I2398
sS'ACGATG'
p1342
I684
sS'GAGACC'
p1343
I4321
sS'ACGATC'
p1344
I107
sS'GAGACA'
p1345
I7343
sS'ACGATA'
p1346
I286
sS'GGTTAC'
p1347
I2546
sS'ATGTGT'
p1348
I3604
sS'GGTTAA'
p1349
I3534
sS'ACCACT'
p1350
I2201
sS'GGTTAG'
p1351
I2854
sS'CTTCCT'
p1352
I3948
sS'TAAACT'
p1353
I1650
sS'CTCAGT'
p1354
I7491
sS'TCCGCT'
p1355
I825
sS'CTTCCA'
p1356
I5168
sS'CTTCCC'
p1357
I6281
sS'ACCACC'
p1358
I3965
sS'CGTATG'
p1359
I867
sS'ACCACA'
p1360
I7976
sS'GGTTAT'
p1361
I897
sS'TCCGCC'
p1362
I3709
sS'TCCGCA'
p1363
I1447
sS'TCCGCG'
p1364
I1520
sS'AACGTC'
p1365
I1261
sS'AACGTA'
p1366
I1654
sS'AACGTG'
p1367
I3654
sS'CGTGAC'
p1368
I1585
sS'GGTAGC'
p1369
I1958
sS'AGTGTG'
p1370
I8904
sS'TCTTCG'
p1371
I1399
sS'AGTGTA'
p1372
I4340
sS'TCTTCA'
p1373
I5892
sS'AGTGTC'
p1374
I1962
sS'TCTTCC'
p1375
I6909
sS'TAAGTG'
p1376
I4072
sS'TAAGTC'
p1377
I1061
sS'AACGTT'
p1378
I554
sS'GGCGAT'
p1379
I301
sS'TCTTCT'
p1380
I3016
sS'AGTGTT'
p1381
I919
sS'AACCGG'
p1382
I2114
sS'GTGCGC'
p1383
I1836
sS'TTGGCA'
p1384
I3499
sS'AAAGGT'
p1385
I1079
sS'TTGGCC'
p1386
I3210
sS'GCTCGA'
p1387
I828
sS'CTTATT'
p1388
I1322
sS'TTGGCG'
p1389
I777
sS'GACTTC'
p1390
I12221
sS'TCGAGT'
p1391
I204
sS'GACTTA'
p1392
I11711
sS'GACTTG'
p1393
I17443
sS'ACGTAG'
p1394
I365
sS'AAAGGG'
p1395
I4949
sS'AAAGGA'
p1396
I6088
sS'TTGGCT'
p1397
I1762
sS'AAAGGC'
p1398
I3539
sS'AGTAAG'
p1399
I5745
sS'GTCGAT'
p1400
I148
sS'GACTTT'
p1401
I5671
sS'TTCTTT'
p1402
I12321
sS'CAAGAA'
p1403
I3322
sS'GACGTT'
p1404
I642
sS'CAAGAC'
p1405
I1594
sS'CAAGAG'
p1406
I2779
sS'CGTATT'
p1407
I177
sS'TTCTTG'
p1408
I26738
sS'TTCTTC'
p1409
I18982
sS'TTCTTA'
p1410
I23263
sS'CAAGAT'
p1411
I659
sS'AGTTCC'
p1412
I5195
sS'TACGGG'
p1413
I1212
sS'TACGGA'
p1414
I943
sS'TCAGCG'
p1415
I659
sS'CCAACT'
p1416
I719
sS'TAGAGT'
p1417
I2166
sS'TACGGT'
p1418
I435
sS'GAGTAT'
p1419
I1421
sS'CCCGAG'
p1420
I2341
sS'AGGGCA'
p1421
I3593
sS'CCCGAC'
p1422
I1445
sS'TCGAGA'
p1423
I415
sS'TAGAGC'
p1424
I3895
sS'TAGAGA'
p1425
I5995
sS'GGCGAG'
p1426
I3249
sS'CAATTA'
p1427
I1957
sS'GTGCTG'
p1428
I13864
sS'GTGCTA'
p1429
I4468
sS'ATCTGT'
p1430
I5792
sS'GTGCTC'
p1431
I4314
sS'GTGCGG'
p1432
I2029
sS'ATCTGA'
p1433
I9881
sS'GTGCTT'
p1434
I2147
sS'ATCTGC'
p1435
I9626
sS'TCGAGG'
p1436
I822
sS'CGAATG'
p1437
I574
sS'ATCTGG'
p1438
I11128
sS'ATCATA'
p1439
I6341
sS'GATAGC'
p1440
I3195
sS'ATCATC'
p1441
I3952
sS'GATAGA'
p1442
I4541
sS'AAGCAA'
p1443
I5492
sS'GATAGG'
p1444
I4373
sS'AAGCAC'
p1445
I4574
sS'TTTACC'
p1446
I2576
sS'CATTTC'
p1447
I12441
sS'CTAGGT'
p1448
I1242
sS'CATTTA'
p1449
I17245
sS'CATTTG'
p1450
I19407
sS'GTTATA'
p1451
I2997
sS'CAAACA'
p1452
I4229
sS'AAGCAT'
p1453
I1777
sS'CAAACC'
p1454
I2212
sS'TTTACA'
p1455
I6354
sS'ATCATT'
p1456
I1701
sS'CAAACG'
p1457
I642
sS'CTAGGG'
p1458
I2876
sS'AAAGAG'
p1459
I3919
sS'CTAGGC'
p1460
I2006
sS'CATTTT'
p1461
I4231
sS'CTAGGA'
p1462
I3405
sS'AAGTTT'
p1463
I1423
sS'TACAGT'
p1464
I7283
sS'CTAAGG'
p1465
I3395
sS'GTATGG'
p1466
I2158
sS'CTAAGC'
p1467
I2536
sS'TACAGG'
p1468
I11328
sS'AAGTTG'
p1469
I7452
sS'AAGTTA'
p1470
I7075
sS'TACAGC'
p1471
I9426
sS'AAGTTC'
p1472
I3335
sS'TACAGA'
p1473
I11966
sS'GGGGCC'
p1474
I3072
sS'CGGGGG'
p1475
I2389
sS'GGGGCA'
p1476
I2220
sS'GGGGCG'
p1477
I2652
sS'AGCGGT'
p1478
I694
sS'TATATA'
p1479
I8786
sS'TATATG'
p1480
I7050
sS'ACATCG'
p1481
I302
sS'AGTTCT'
p1482
I2999
sS'TCCGGT'
p1483
I729
sS'GCCCAT'
p1484
I849
sS'TATATT'
p1485
I1843
sS'CTGTAG'
p1486
I3240
sS'TGATGG'
p1487
I1882
sS'CATATG'
p1488
I7069
sS'ATGAGT'
p1489
I2690
sS'GCCCAC'
p1490
I4779
sS'TGATGA'
p1491
I2390
sS'AGCATG'
p1492
I12770
sS'TGTTTA'
p1493
I20871
sS'CACATC'
p1494
I5667
sS'TGTTTC'
p1495
I9953
sS'CACATA'
p1496
I10396
sS'TTAATT'
p1497
I804
sS'CACATG'
p1498
I14983
sS'TGTTTG'
p1499
I19584
sS'ATGAGA'
p1500
I4213
sS'TGATGT'
p1501
I1421
sS'ATGAGG'
p1502
I4874
sS'TTAATA'
p1503
I3786
sS'ACTCTG'
p1504
I7595
sS'TTTCAA'
p1505
I5939
sS'ACTCTA'
p1506
I3034
sS'TGCCAA'
p1507
I5421
sS'ACTCTC'
p1508
I2088
sS'TGCCAC'
p1509
I5243
sS'TGTAAT'
p1510
I2491
sS'ACCGTA'
p1511
I802
sS'AAATTA'
p1512
I3601
sS'AAATTG'
p1513
I3384
sS'TCCACT'
p1514
I3372
sS'TCTTGT'
p1515
I2675
sS'CGTACC'
p1516
I472
sS'TTAATC'
p1517
I1022
sS'AAATTT'
p1518
I390
sS'TTCGAA'
p1519
I738
sS'CTTAGT'
p1520
I2670
sS'GGGAAC'
p1521
I2543
sS'GGTGCG'
p1522
I942
sS'GGGAAA'
p1523
I3537
sS'GGGAAG'
p1524
I6225
sS'GGTGCC'
p1525
I1476
sS'GGTGCA'
p1526
I1780
sS'AGAGCG'
p1527
I929
sS'GCGACT'
p1528
I148
sS'AGCGAT'
p1529
I372
sS'AGAGCC'
p1530
I2348
sS'AGAGCA'
p1531
I3230
sS'GCGTAG'
p1532
I405
sS'GGTGCT'
p1533
I732
sS'GCGTAC'
p1534
I241
sS'TAATTT'
p1535
I722
sS'GGGAAT'
p1536
I973
sS'GCGACG'
p1537
I379
sS'AGAGCT'
p1538
I1339
sS'GCGACA'
p1539
I344
sS'TATCGG'
p1540
I594
sS'GCGACC'
p1541
I518
sS'AGGTCG'
p1542
I738
sS'GCAGGA'
p1543
I4325
sS'GCAGGC'
p1544
I2298
sS'GCAGGG'
p1545
I4332
sS'GCTCGC'
p1546
I2045
sS'GCACTA'
p1547
I795
sS'CCGTGC'
p1548
I964
sS'GCTCGG'
p1549
I2646
sS'TATTCT'
p1550
I4444
sS'CCGTGG'
p1551
I1434
sS'ACTTAC'
p1552
I2135
sS'AAATAC'
p1553
I2333
sS'GCAGGT'
p1554
I1140
sS'TCTTGA'
p1555
I4951
sS'ACGTCT'
p1556
I310
sS'TATTCC'
p1557
I5851
sS'CAATTG'
p1558
I2085
sS'TATTCA'
p1559
I10399
sS'GGCGAA'
p1560
I1101
sS'TATTCG'
p1561
I1177
sS'GGCGAC'
p1562
I1509
sS'TGTAGA'
p1563
I4486
sS'GGCTCA'
p1564
I8562
sS'TGTAGC'
p1565
I3884
sS'GGCTCC'
p1566
I10716
sS'AATCCT'
p1567
I1705
sS'TGTAGG'
p1568
I4439
sS'GGCTCG'
p1569
I3451
sS'TTCGGA'
p1570
I1011
sS'TTCGGC'
p1571
I1344
sS'AAATAG'
p1572
I2087
sS'TTCAAG'
p1573
I9950
sS'TTCGGG'
p1574
I1818
sS'AACTTA'
p1575
I12355
sS'GGCTCT'
p1576
I4470
sS'TGTAGT'
p1577
I2963
sS'TTTACT'
p1578
I2892
sS'AGCATA'
p1579
I7051
sS'AAATTC'
p1580
I1599
sS'ATTGTA'
p1581
I3167
sS'TTCGGT'
p1582
I457
sS'GTTTAT'
p1583
I3231
sS'TTCAAC'
p1584
I7068
sS'CGCTAC'
p1585
I1431
sS'GTTTAA'
p1586
I6344
sS'GAGGTG'
p1587
I8179
sS'CACGAA'
p1588
I1162
sS'CAATCT'
p1589
I600
sS'GTTTAG'
p1590
I4649
sS'CAGGTG'
p1591
I3072
sS'TCCAGA'
p1592
I9896
sS'CTGGCT'
p1593
I3049
sS'AGGCGG'
p1594
I4481
sS'AGGCGA'
p1595
I1230
sS'AGGCGC'
p1596
I2455
sS'AGGAGT'
p1597
I2509
sS'ACAGCC'
p1598
I1794
sS'ACAGCA'
p1599
I3130
sS'GAGGTC'
p1600
I2442
sS'ACAGCG'
p1601
I682
sS'AGGAGC'
p1602
I5810
sS'GTCGGA'
p1603
I1072
sS'AGGAGA'
p1604
I7019
sS'CTGGCG'
p1605
I1800
sS'AGGAGG'
p1606
I13182
sS'CTGGCA'
p1607
I5375
sS'GTCGGG'
p1608
I2511
sS'GCGCCC'
p1609
I1272
sS'GCATCG'
p1610
I367
sS'ACAGCT'
p1611
I1432
sS'GCTCTC'
p1612
I2982
sS'AACGCT'
p1613
I868
sS'AATTTT'
p1614
I2001
sS'TGTCAA'
p1615
I3200
sS'TGTCAC'
p1616
I4005
sS'CCCTCT'
p1617
I4645
sS'AACCTT'
p1618
I1896
sS'TGTCAG'
p1619
I5954
sS'ATTGGG'
p1620
I2131
sS'AATTTA'
p1621
I12385
sS'AATTTC'
p1622
I6257
sS'AACGCC'
p1623
I1693
sS'AACGCA'
p1624
I1665
sS'AATTTG'
p1625
I12915
sS'CCCTCA'
p1626
I7638
sS'CCCTCC'
p1627
I14452
sS'TGTCAT'
p1628
I1817
sS'CCCTCG'
p1629
I3483
sS'TCCAGT'
p1630
I4706
sS'CACGAT'
p1631
I384
sS'CAATAT'
p1632
I374
sS'TGACCA'
p1633
I799
sS'CATTCT'
p1634
I5741
sS'TAAATC'
p1635
I1346
sS'TGACCG'
p1636
I169
sS'ATGGTT'
p1637
I407
sS'GCGCCA'
p1638
I723
sS'NGATCC'
p1639
I1
sS'CATTCG'
p1640
I1838
sS'CATTCC'
p1641
I11615
sS'CATTCA'
p1642
I11147
sS'TCCATA'
p1643
I5649
sS'GCAATT'
p1644
I341
sS'ACGAAA'
p1645
I277
sS'GCCTTC'
p1646
I10182
sS'ACAAAT'
p1647
I610
sS'GATTAA'
p1648
I7044
sS'GTAGGC'
p1649
I1392
sS'GATTAC'
p1650
I6953
sS'GTAGGA'
p1651
I2715
sS'GTAGGG'
p1652
I2521
sS'GATTAG'
p1653
I5404
sS'GAATGA'
p1654
I5730
sS'ACAAAC'
p1655
I1462
sS'ACAAAA'
p1656
I1826
sS'ACAAAG'
p1657
I1997
sS'GCGGGC'
p1658
I1685
sS'GTCGGT'
p1659
I428
sS'GCGGGA'
p1660
I1752
sS'GCGGGG'
p1661
I4805
sS'GATTAT'
p1662
I2482
sS'GTAGGT'
p1663
I1146
sS'CGAAGT'
p1664
I270
sS'GGCGTC'
p1665
I1382
sS'TAATGA'
p1666
I3585
sS'GATGTT'
p1667
I1608
sS'TAATGC'
p1668
I2772
sS'GGAGAT'
p1669
I416
sS'TAATGG'
p1670
I3008
sS'GCGCCG'
p1671
I853
sS'CAATAA'
p1672
I1262
sS'GCCCTC'
p1673
I5760
sS'GATGTG'
p1674
I11380
sS'GCCCTA'
p1675
I4048
sS'GATGTA'
p1676
I6007
sS'GCCCTG'
p1677
I14955
sS'GATGTC'
p1678
I3319
sS'CAATAG'
p1679
I1010
sS'TGAAAT'
p1680
I972
sS'TTCTAG'
p1681
I10094
sS'TTCTAA'
p1682
I13654
sS'ATCCGT'
p1683
I486
sS'TTCTAC'
p1684
I7698
sS'GAATGT'
p1685
I2982
sS'TTGGAT'
p1686
I518
sS'TGAAAC'
p1687
I2095
sS'TGAAAG'
p1688
I2628
sS'TTCTAT'
p1689
I4327
sS'ATCCGC'
p1690
I1433
sS'AGTAAT'
p1691
I2103
sS'ATCCGA'
p1692
I844
sS'ATCCGG'
p1693
I1681
sS'TGGCTC'
p1694
I3749
sS'TGGCTA'
p1695
I3648
sS'TGGCTG'
p1696
I10797
sS'AGGCGT'
p1697
I624
sS'AGTTGT'
p1698
I3311
sS'AGCTAT'
p1699
I2984
sS'ATTAGT'
p1700
I1654
sS'GTCGGC'
p1701
I1713
sS'CGTCGA'
p1702
I399
sS'TGGCTT'
p1703
I1251
sS'AGTTGG'
p1704
I6082
sS'AGCTAA'
p1705
I8629
sS'AGCTAC'
p1706
I6178
sS'AGTTGC'
p1707
I5388
sS'AGTTGA'
p1708
I5855
sS'AGCTAG'
p1709
I6600
sS'CGTTGA'
p1710
I1173
sS'GCACCT'
p1711
I559
sS'CAGTGT'
p1712
I4189
sS'AGTCAG'
p1713
I9104
sS'TCAGGT'
p1714
I683
sS'TCAAGG'
p1715
I2264
sS'CTGGCC'
p1716
I5901
sS'TCAAGC'
p1717
I1400
sS'CATGGA'
p1718
I4770
sS'GCACCA'
p1719
I1071
sS'CAGTGC'
p1720
I6443
sS'GCACCC'
p1721
I695
sS'CAGTGA'
p1722
I8546
sS'CAGTGG'
p1723
I8472
sS'CTAATG'
p1724
I3872
sS'TCAAGT'
p1725
I1005
sS'GCACAT'
p1726
I321
sS'GAGCCC'
p1727
I6068
sS'TCAGGC'
p1728
I1424
sS'CGAGCT'
p1729
I297
sS'CGTTGG'
p1730
I1712
sS'CAACCA'
p1731
I1314
sS'TAACAG'
p1732
I1746
sS'TTCCCT'
p1733
I4791
sS'CGTACG'
p1734
I281
sS'CGAGCG'
p1735
I501
sS'CGAGCA'
p1736
I611
sS'GAGCCG'
p1737
I3368
sS'CGAGCC'
p1738
I773
sS'TTCCCA'
p1739
I10228
sS'TTCCCC'
p1740
I8379
sS'GTTCAC'
p1741
I2639
sS'TTCCCG'
p1742
I3226
sS'TGAGCA'
p1743
I2749
sS'GGACCT'
p1744
I309
sS'CTTACT'
p1745
I2510
sS'TACATG'
p1746
I11016
sS'AAGTAC'
p1747
I2901
sS'CACACT'
p1748
I5054
sS'TACATC'
p1749
I4509
sS'AAGTAG'
p1750
I3466
sS'TACATA'
p1751
I10841
sS'CATGGT'
p1752
I1882
sS'GGACCG'
p1753
I241
sS'ATTGGT'
p1754
I1055
sS'GGACCA'
p1755
I611
sS'TCATCA'
p1756
I2382
sS'GGACCC'
p1757
I450
sS'CACACG'
p1758
I3544
sS'TACATT'
p1759
I3708
sS'CACACC'
p1760
I6742
sS'CTGCAT'
p1761
I1544
sS'CACACA'
p1762
I20933
sS'TCTGCC'
p1763
I3191
sS'TCTGCA'
p1764
I4104
sS'TCTGCG'
p1765
I1304
sS'TTTCGA'
p1766
I816
sS'CCCGTC'
p1767
I1190
sS'TTAAGG'
p1768
I3462
sS'CCCGTA'
p1769
I993
sS'TTAAGA'
p1770
I4409
sS'CCCGTG'
p1771
I2955
sS'TTAAGC'
p1772
I2467
sS'TTACGT'
p1773
I271
sS'TAGATC'
p1774
I1101
sS'AAACAG'
p1775
I3300
sS'TAGATA'
p1776
I3504
sS'TGCCCA'
p1777
I5127
sS'TAGATG'
p1778
I5202
sS'TCTGCT'
p1779
I1615
sS'TTACGC'
p1780
I286
sS'TTAAGT'
p1781
I2244
sS'TTACGA'
p1782
I327
sS'TTACGG'
p1783
I362
sS'CCCGTT'
p1784
I240
sS'AGTGAC'
p1785
I5113
sS'AGTGAA'
p1786
I4637
sS'GCTAGT'
p1787
I1013
sS'AGTGAG'
p1788
I7267
sS'GCGGTC'
p1789
I285
sS'CGGGCG'
p1790
I1283
sS'AAACAC'
p1791
I2667
sS'TAAGAG'
p1792
I2600
sS'CGGGCC'
p1793
I1963
sS'TAAGAA'
p1794
I2969
sS'CGGGCA'
p1795
I1131
sS'TAAGAC'
p1796
I1693
sS'AAACAA'
p1797
I3255
sS'AGTGAT'
p1798
I1316
sS'TAAGAT'
p1799
I647
sS'CCTGAA'
p1800
I2213
sS'CCTGAC'
p1801
I2662
sS'CCTGAG'
p1802
I4037
sS'GTTAGG'
p1803
I3572
sS'ACCCCA'
p1804
I2694
sS'TATACT'
p1805
I2445
sS'GTTAGC'
p1806
I2526
sS'GTTAGA'
p1807
I3553
sS'ACCCCC'
p1808
I1978
sS'TATACG'
p1809
I692
sS'GTTAGT'
p1810
I1925
sS'TATACC'
p1811
I2111
sS'TATACA'
p1812
I5703
sS'ATTGGC'
p1813
I2687
sS'TCCACG'
p1814
I2359
sS'GTAATG'
p1815
I3831
sS'TTTATT'
p1816
I2247
sS'GTAATA'
p1817
I2842
sS'ATTGGA'
p1818
I2373
sS'GTAATC'
p1819
I1055
sS'GTACAG'
p1820
I1065
sS'TCTAAC'
p1821
I2155
sS'CGTTCT'
p1822
I815
sS'CCACCG'
p1823
I568
sS'CGGATC'
p1824
I276
sS'CCACCA'
p1825
I1686
sS'CCACCC'
p1826
I1435
sS'GTTCGT'
p1827
I388
sS'TTTATG'
p1828
I8192
sS'ACTAGG'
p1829
I2386
sS'TTTATC'
p1830
I2723
sS'ACTAGC'
p1831
I1589
sS'TTTATA'
p1832
I8464
sS'ACGGTG'
p1833
I759
sS'CCACCT'
p1834
I1029
sS'CGTTCG'
p1835
I606
sS'ACTTGT'
p1836
I1644
sS'CGTTCA'
p1837
I1306
sS'CGTTCC'
p1838
I1735
sS'TCTAAT'
p1839
I934
sS'TCGTCT'
p1840
I242
sS'CTTTGT'
p1841
I6194
sS'ATTTAA'
p1842
I6117
sS'ACTGGA'
p1843
I2925
sS'ACTGGC'
p1844
I2291
sS'TAGTCC'
p1845
I2926
sS'GTGACC'
p1846
I3022
sS'TAGTCA'
p1847
I7201
sS'GTGACA'
p1848
I3408
sS'TAGTCG'
p1849
I586
sS'GTGACG'
p1850
I1666
sS'ATTTAG'
p1851
I3847
sS'ACTGGT'
p1852
I764
sS'CTTTGG'
p1853
I10973
sS'GTATTT'
p1854
I1394
sS'CTTTGC'
p1855
I9690
sS'CTTTGA'
p1856
I9630
sS'ACATTA'
p1857
I2729
sS'GTGACT'
p1858
I3180
sS'TAGTCT'
p1859
I2019
sS'GTGCAC'
p1860
I2670
sS'CGACGG'
p1861
I232
sS'ACCTAG'
p1862
I2946
sS'CGACGA'
p1863
I112
sS'GTGCAG'
p1864
I4664
sS'CGACGC'
p1865
I254
sS'ACCTAC'
p1866
I2511
sS'CCGCAG'
p1867
I745
sS'CCGCAA'
p1868
I230
sS'CCGCAC'
p1869
I423
sS'GGGACT'
p1870
I1186
sS'ACCTAT'
p1871
I750
sS'GCGCTG'
p1872
I2415
sS'CGAAGA'
p1873
I581
sS'CCCCGT'
p1874
I743
sS'CGAAGG'
p1875
I1065
sS'GCGCTC'
p1876
I737
sS'GTGCAT'
p1877
I1110
sS'GCGCTA'
p1878
I506
sS'CCGCAT'
p1879
I72
sS'ATTACC'
p1880
I1435
sS'GAAGAT'
p1881
I805
sS'GGATCT'
p1882
I361
sS'TCATGA'
p1883
I2166
sS'TCGTTT'
p1884
I189
sS'TCGGAC'
p1885
I211
sS'GAATCT'
p1886
I1251
sS'CCTATA'
p1887
I1676
sS'TCGGAG'
p1888
I495
sS'GGATCG'
p1889
I196
sS'GAAGAG'
p1890
I5201
sS'GAAGAA'
p1891
I4899
sS'GGATCC'
p1892
I818
sS'GAAGAC'
p1893
I2762
sS'GGATCA'
p1894
I730
sS'GAATCA'
p1895
I4396
sS'GAATCC'
p1896
I2350
sS'TCGGAT'
p1897
I38
sS'GAATCG'
p1898
I607
sS'ATGGTC'
p1899
I680
sS'CAGATG'
p1900
I8739
sS'ATGGTA'
p1901
I2117
sS'TGACCC'
p1902
I562
sS'CTATCA'
p1903
I2248
sS'CAGATC'
p1904
I1453
sS'CTATCC'
p1905
I1977
sS'CAGATA'
p1906
I3787
sS'CTCGAG'
p1907
I1685
sS'CAGATT'
p1908
I646
sS'TGATTA'
p1909
I2392
sS'CTCGAC'
p1910
I957
sS'CTCGAA'
p1911
I804
sS'TCGCAA'
p1912
I148
sS'TTGCGC'
p1913
I791
sS'CCCCGG'
p1914
I4496
sS'AATGGT'
p1915
I1790
sS'ATGATA'
p1916
I2746
sS'ACGTGT'
p1917
I461
sS'TGCGTG'
p1918
I4150
sS'AATGGA'
p1919
I5938
sS'AATGGG'
p1920
I5494
sS'CAATAC'
p1921
I813
sS'GATCAA'
p1922
I3619
sS'CCCCGA'
p1923
I1844
sS'CAACTC'
p1924
I651
sS'AACGCG'
p1925
I1009
sS'CAACTA'
p1926
I1166
sS'ATTTAC'
p1927
I3475
sS'CGTTAG'
p1928
I1017
sS'AGCCAG'
p1929
I12056
sS'GGAGGG'
p1930
I5000
sS'AAAAGT'
p1931
I1767
sS'GGAGGA'
p1932
I4458
sS'GGAGGC'
p1933
I2704
sS'TGGTAG'
p1934
I1748
sS'CGCCAT'
p1935
I610
sS'GAGTGT'
p1936
I4099
sS'TGGTAC'
p1937
I1096
sS'GAGGTA'
p1938
I3658
sS'TGGTAA'
p1939
I1908
sS'AAAAGG'
p1940
I6451
sS'GGAGGT'
p1941
I1143
sS'AGCCAT'
p1942
I2257
sS'AAAAGC'
p1943
I4658
sS'AGCCAA'
p1944
I8348
sS'AAAAGA'
p1945
I6856
sS'TTGACT'
p1946
I1614
sS'GAGTGG'
p1947
I9842
sS'CGCCAG'
p1948
I3317
sS'TGGTAT'
p1949
I965
sS'CGCCAA'
p1950
I1458
sS'GAGTGC'
p1951
I6223
sS'CGCCAC'
p1952
I2843
sS'GAGTGA'
p1953
I9258
sS'GCCAGG'
p1954
I13875
sS'GCCAGA'
p1955
I8368
sS'GCCAGC'
p1956
I10009
sS'GCCCGT'
p1957
I853
sS'TACCGA'
p1958
I949
sS'TACCGC'
p1959
I1495
sS'TACCGG'
p1960
I1241
sS'GCCCGC'
p1961
I6731
sS'GCCAGT'
p1962
I3539
sS'GCCCGA'
p1963
I2189
sS'GCCCGG'
p1964
I7080
sS'CTTCAC'
p1965
I3911
sS'CTTCAA'
p1966
I4252
sS'CTTCAG'
p1967
I6296
sS'TCCGAG'
p1968
I1664
sS'TCCGAA'
p1969
I701
sS'TCCGAC'
p1970
I922
sS'AATTCA'
p1971
I8110
sS'GGACTG'
p1972
I1267
sS'AATTCC'
p1973
I7304
sS'AATTCG'
p1974
I1090
sS'TCCGAT'
p1975
I184
sS'GGACAA'
p1976
I463
sS'NNNGAT'
p1977
I1
sS'TAGCGG'
p1978
I1036
sS'AATTCT'
p1979
I3617
sS'TAGCGC'
p1980
I914
sS'GTCATC'
p1981
I5694
sS'GTCATA'
p1982
I7728
sS'GTCATG'
p1983
I11738
sS'AGCAGG'
p1984
I16862
sS'CCAGGT'
p1985
I1286
sS'TTGGAA'
p1986
I2524
sS'AGCAGC'
p1987
I17095
sS'AGCAGA'
p1988
I14039
sS'GGATGC'
p1989
I1176
sS'ACGACC'
p1990
I262
sS'CCAGGG'
p1991
I3971
sS'AGCAGT'
p1992
I6785
sS'CCAGGA'
p1993
I4492
sS'CCAGGC'
p1994
I2900
sS'AGCGCT'
p1995
I1161
sS'ATAGAG'
p1996
I1388
sS'CATCTG'
p1997
I16241
sS'GATCGG'
p1998
I1299
sS'CATCTA'
p1999
I6390
sS'GATCGA'
p2000
I748
sS'CATCTC'
p2001
I6204
sS'ATAGAA'
p2002
I2300
sS'ATTAGA'
p2003
I3293
sS'GGGGTC'
p2004
I495
sS'CAAGCC'
p2005
I2547
sS'CATCTT'
p2006
I1947
sS'CAAGCA'
p2007
I3915
sS'CAAGCG'
p2008
I913
sS'ACTCGA'
p2009
I605
sS'GTTCTT'
p2010
I1027
sS'ACATGA'
p2011
I1910
sS'CGTAAT'
p2012
I273
sS'ACATGC'
p2013
I1638
sS'ACATGG'
p2014
I2160
sS'CCCGCT'
p2015
I907
sS'TGGCGG'
p2016
I2000
sS'CGTAAG'
p2017
I937
sS'GTTCTG'
p2018
I8377
sS'ACATGT'
p2019
I1157
sS'CGTAAC'
p2020
I697
sS'CGTAAA'
p2021
I766
sS'CCCGCG'
p2022
I2669
sS'ACGGAA'
p2023
I348
sS'CCCGCC'
p2024
I8628
sS'AGGGAA'
p2025
I3161
sS'GAGTCG'
p2026
I2041
sS'TGTTGT'
p2027
I4702
sS'GTTGTT'
p2028
I823
sS'ATTAGC'
p2029
I2280
sS'ATCCTT'
p2030
I1665
sS'TTGTCG'
p2031
I636
sS'TTGTCC'
p2032
I3473
sS'TTGTCA'
p2033
I4151
sS'ATCCTC'
p2034
I4618
sS'GTTGTA'
p2035
I3212
sS'ATCCTA'
p2036
I5169
sS'GTTGTC'
p2037
I1272
sS'ATCCTG'
p2038
I10998
sS'GTTGTG'
p2039
I5500
sS'TTGTCT'
p2040
I2702
sS'CTATGC'
p2041
I2317
sS'TGACTA'
p2042
I1726
sS'TGGGCC'
p2043
I2539
sS'TGACTC'
p2044
I1380
sS'TGGGCA'
p2045
I2749
sS'TGGGCG'
p2046
I1255
sS'TGACTG'
p2047
I2306
sS'AAGCCG'
p2048
I1563
sS'AAGCCC'
p2049
I4206
sS'AAGCCA'
p2050
I5519
sS'CAAAAT'
p2051
I774
sS'TGACTT'
p2052
I285
sS'TGGGCT'
p2053
I1152
sS'CAAAAC'
p2054
I2507
sS'CAAAAA'
p2055
I2195
sS'AAGCCT'
p2056
I2029
sS'CAAAAG'
p2057
I2761
sS'TGATTT'
p2058
I454
sS'TCAATG'
p2059
I2285
sS'AAACTT'
p2060
I356
sS'ACCGTG'
p2061
I2146
sS'TCAATC'
p2062
I472
sS'TCAATA'
p2063
I1505
sS'CAGTTC'
p2064
I3926
sS'GACCCG'
p2065
I2662
sS'CAGTTG'
p2066
I7373
sS'GACCCC'
p2067
I4020
sS'CTCTGT'
p2068
I11964
sS'TCAATT'
p2069
I291
sS'TGGCGT'
p2070
I412
sS'CTCTGC'
p2071
I24039
sS'GACCCT'
p2072
I2050
sS'CTCTGA'
p2073
I19407
sS'CTCTGG'
p2074
I22711
sS'CAGTTT'
p2075
I1507
sS'GCGAAG'
p2076
I674
sS'ACGTTC'
p2077
I449
sS'TGCTGG'
p2078
I19688
sS'TGCTGA'
p2079
I16408
sS'GAGTCT'
p2080
I3415
sS'TGCTGC'
p2081
I18142
sS'TAGGGA'
p2082
I3328
sS'GCTGGT'
p2083
I1403
sS'GTGATT'
p2084
I1011
sS'ACGTTA'
p2085
I751
sS'TGCTGT'
p2086
I9863
sS'TCCCCA'
p2087
I5553
sS'GCCCTT'
p2088
I1619
sS'TGTACC'
p2089
I1664
sS'GTGATG'
p2090
I6545
sS'GCTGGG'
p2091
I9015
sS'GTGATC'
p2092
I1214
sS'GCTGGC'
p2093
I4170
sS'GTGATA'
p2094
I2670
sS'GCTGGA'
p2095
I4913
sS'TGATAA'
p2096
I991
sS'TGATAC'
p2097
I678
sS'TGATAG'
p2098
I714
sS'CTTGTT'
p2099
I1165
sS'GACGGT'
p2100
I936
sS'GCTAGG'
p2101
I3057
sS'GCTAGA'
p2102
I2438
sS'ATGAAT'
p2103
I1342
sS'GCTAGC'
p2104
I1802
sS'AAGGGT'
p2105
I1466
sS'TGATAT'
p2106
I415
sS'GAGGTT'
p2107
I872
sS'TTTGGT'
p2108
I1785
sS'ATGAAC'
p2109
I1984
sS'GACGGG'
p2110
I4113
sS'CTTGTG'
p2111
I7673
sS'GACGGA'
p2112
I2399
sS'CTTGTA'
p2113
I4227
sS'GACGGC'
p2114
I3278
sS'CTTGTC'
p2115
I2020
sS'CTAACT'
p2116
I1332
sS'CCATAG'
p2117
I668
sS'GGTGAA'
p2118
I2197
sS'GGTGAC'
p2119
I3279
sS'GCGTCT'
p2120
I435
sS'TGTAAA'
p2121
I7106
sS'GGTGAG'
p2122
I4396
sS'GGAATG'
p2123
I4550
sS'CGTCCT'
p2124
I465
sS'GGAATC'
p2125
I714
sS'GGAATA'
p2126
I1400
sS'GCGTCA'
p2127
I976
sS'GTTATG'
p2128
I4463
sS'GCGTCC'
p2129
I1323
sS'GGTGAT'
p2130
I682
sS'GCGTCG'
p2131
I454
sS'CAAACT'
p2132
I1156
sS'CGTCCG'
p2133
I707
sS'GGAATT'
p2134
I370
sS'CGTCCC'
p2135
I1400
sS'CGTCCA'
p2136
I808
sS'TACAAT'
p2137
I3234
sS'GCCGTG'
p2138
I3756
sS'GAAGTA'
p2139
I3053
sS'GCCGTC'
p2140
I1129
sS'GCCGTA'
p2141
I1036
sS'CCGTAC'
p2142
I222
sS'CCGTAA'
p2143
I206
sS'CCGTAG'
p2144
I321
sS'CAAAGT'
p2145
I1692
sS'GCCGTT'
p2146
I288
sS'GAAGTT'
p2147
I547
sS'GGCGCG'
p2148
I3137
sS'ATGCCC'
p2149
I2216
sS'TTAGTT'
p2150
I543
sS'GCACTC'
p2151
I470
sS'GGCGCC'
p2152
I3548
sS'ATGCCG'
p2153
I790
sS'GGCGCA'
p2154
I2111
sS'TATTAC'
p2155
I6224
sS'ACTATG'
p2156
I3382
sS'CAACGG'
p2157
I446
sS'TTTAAG'
p2158
I7116
sS'ACTATC'
p2159
I736
sS'TTTAAA'
p2160
I12473
sS'ACTATA'
p2161
I2095
sS'AGAGTG'
p2162
I3208
sS'TATTAT'
p2163
I3652
sS'TTAGTG'
p2164
I2915
sS'GGCGCT'
p2165
I1035
sS'TTAGTC'
p2166
I1110
sS'ATGCCT'
p2167
I1903
sS'TTAGTA'
p2168
I2189
sS'TTTAAT'
p2169
I2300
sS'ATGTGC'
p2170
I4032
sS'ACTATT'
p2171
I511
sS'GCCGAT'
p2172
I212
sS'GGGCAT'
p2173
I428
sS'TTTCCG'
p2174
I1092
sS'TTTCCA'
p2175
I5068
sS'TTTCCC'
p2176
I4814
sS'GTACGT'
p2177
I202
sS'TATCGA'
p2178
I518
sS'GTTTGT'
p2179
I4500
sS'GTAACG'
p2180
I498
sS'GGGCAG'
p2181
I3685
sS'GTCTGT'
p2182
I7333
sS'GGGCAA'
p2183
I1327
sS'GGGCAC'
p2184
I1608
sS'GTTTGC'
p2185
I6430
sS'GTTTGA'
p2186
I6634
sS'GTTTGG'
p2187
I7771
sS'GTACGA'
p2188
I230
sS'CCGCTC'
p2189
I583
sS'GCATGT'
p2190
I1327
sS'CCGCTA'
p2191
I485
sS'CCGCTG'
p2192
I1797
sS'TGAAAA'
p2193
I2060
sS'GCGCGG'
p2194
I1955
sS'GCGCGC'
p2195
I1797
sS'GCGCGA'
p2196
I576
sS'GCATGG'
p2197
I1959
sS'TGGATC'
p2198
I887
sS'GCATGC'
p2199
I1893
sS'TTAGGG'
p2200
I2344
sS'GCATGA'
p2201
I1927
sS'GTCGAC'
p2202
I581
sS'GCGCGT'
p2203
I229
sS'GTCGAG'
p2204
I966
sS'AGACAT'
p2205
I439
sS'GAGCTA'
p2206
I5509
sS'TGCGCT'
p2207
I760
sS'GAGCTC'
p2208
I5517
sS'ATTGAT'
p2209
I395
sS'GAGCTG'
p2210
I16889
sS'AAACGA'
p2211
I627
sS'AAACGC'
p2212
I860
sS'GTAACA'
p2213
I2843
sS'GTAGTA'
p2214
I1538
sS'AAACGG'
p2215
I785
sS'TGTCCC'
p2216
I2373
sS'TGCGCG'
p2217
I1897
sS'TGTCCA'
p2218
I3002
sS'GAGCTT'
p2219
I1561
sS'TGCGCC'
p2220
I2124
sS'ATTGAG'
p2221
I2220
sS'TGCGCA'
p2222
I1998
sS'GTAGTG'
p2223
I2306
sS'AAACGT'
p2224
I333
sS'ATTTCG'
p2225
I757
sS'ATTTCA'
p2226
I6621
sS'TACGCA'
p2227
I1174
sS'ATCAGT'
p2228
I3334
sS'ATCGGG'
p2229
I860
sS'CATAGT'
p2230
I2719
sS'ATCGGC'
p2231
I661
sS'ATCGGA'
p2232
I589
sS'TGGGTG'
p2233
I4564
sS'CGATCA'
p2234
I159
sS'TGGGTC'
p2235
I921
sS'TGGGTA'
p2236
I1946
sS'CATAGG'
p2237
I4190
sS'TATTAG'
p2238
I6035
sS'ATCAGG'
p2239
I6696
sS'ATCAGA'
p2240
I7454
sS'ATCAGC'
p2241
I6968
sS'ACGGGT'
p2242
I144
sS'CCTGGT'
p2243
I1244
sS'GATTCT'
p2244
I4182
sS'CTTTTG'
p2245
I16340
sS'TACTAG'
p2246
I5315
sS'TACTAA'
p2247
I8668
sS'TACTAC'
p2248
I5183
sS'GATTCC'
p2249
I7194
sS'ACGGGG'
p2250
I922
sS'GATTCG'
p2251
I1642
sS'ACGGGC'
p2252
I478
sS'TACTAT'
p2253
I3345
sS'CTTTTT'
p2254
I2884
sS'CGTAGA'
p2255
I792
sS'TCACGA'
p2256
I229
sS'TCACGC'
p2257
I361
sS'CGATTG'
p2258
I503
sS'TCACGG'
p2259
I470
sS'TCTCAT'
p2260
I1083
sS'TCACGT'
p2261
I250
sS'TTCCAC'
p2262
I7299
sS'TTCCAA'
p2263
I8110
sS'TTCCAG'
p2264
I11710
sS'CGAGGC'
p2265
I951
sS'GTTTCA'
p2266
I6864
sS'ACCCTT'
p2267
I913
sS'TGAAGT'
p2268
I1649
sS'CCACAT'
p2269
I386
sS'TTCCAT'
p2270
I2783
sS'TGAAGC'
p2271
I2504
sS'ACCCTC'
p2272
I3047
sS'TGAAGG'
p2273
I3556
sS'ACCCTG'
p2274
I7843
sS'CTGACT'
p2275
I2963
sS'TAGTGT'
p2276
I2909
sS'CCCCTT'
p2277
I1364
sS'AGTTAT'
p2278
I1812
sS'CTGACG'
p2279
I1415
sS'CTGACC'
p2280
I3610
sS'CTGACA'
p2281
I4065
sS'AGTTAA'
p2282
I5797
sS'CCCCTG'
p2283
I9339
sS'AGTTAC'
p2284
I4190
sS'CCCCTC'
p2285
I5578
sS'AGTTAG'
p2286
I4424
sS'CCCCTA'
p2287
I3708
sS'ACACAG'
p2288
I1369
sS'ACACAA'
p2289
I1051
sS'ACACAC'
p2290
I1493
sS'AATGTT'
p2291
I1828
sS'CTGCAG'
p2292
I7333
sS'CATGGG'
p2293
I5063
sS'CTGCAC'
p2294
I4097
sS'CATGGC'
p2295
I4452
sS'AATGTC'
p2296
I3168
sS'ACACAT'
p2297
I429
sS'AATGTA'
p2298
I9027
sS'AATGTG'
p2299
I12604
sS'GCACAC'
p2300
I704
sS'GCACAA'
p2301
I704
sS'TAGTTA'
p2302
I5702
sS'GCACAG'
p2303
I1140
sS'CGATTC'
p2304
I175
sS'CCACAG'
p2305
I1214
sS'ATGTTC'
p2306
I2902
sS'CGAGAT'
p2307
I101
sS'ATTACT'
p2308
I1632
sS'CACAAT'
p2309
I2925
sS'CCAGTA'
p2310
I1280
sS'ACATTG'
p2311
I3201
sS'ACGCTC'
p2312
I357
sS'ACATTC'
p2313
I1857
sS'ATTACA'
p2314
I4157
sS'CCACAC'
p2315
I724
sS'GTTCGC'
p2316
I932
sS'CGAGAC'
p2317
I343
sS'GTTCGG'
p2318
I1057
sS'AAGTCT'
p2319
I2499
sS'ACCCTA'
p2320
I3059
sS'GCTATT'
p2321
I534
sS'GGACAT'
p2322
I191
sS'CAGCGT'
p2323
I678
sS'GCTATA'
p2324
I1976
sS'GCTATC'
p2325
I665
sS'AAGTCG'
p2326
I1008
sS'AAGTCA'
p2327
I6599
sS'GCTATG'
p2328
I3766
sS'AAGTCC'
p2329
I4212
sS'GGACAG'
p2330
I676
sS'GGACAC'
p2331
I535
sS'CTATCG'
p2332
I367
sS'CTAATT'
p2333
I675
sS'AGGGTT'
p2334
I466
sS'GAGGCG'
p2335
I5036
sS'TGTTGG'
p2336
I7670
sS'GAGGCA'
p2337
I8309
sS'TGTTGA'
p2338
I8389
sS'GAGGCC'
p2339
I8474
sS'TGTTGC'
p2340
I7709
sS'CAATGT'
p2341
I1174
sS'TAAAAT'
p2342
I1584
sS'ACTCGC'
p2343
I959
sS'AAGCTT'
p2344
I1251
sS'ACTCGG'
p2345
I1316
sS'AGCGCA'
p2346
I2066
sS'GAGGCT'
p2347
I3454
sS'AGCGCC'
p2348
I3214
sS'AGGGTG'
p2349
I4652
sS'AGGGTA'
p2350
I1844
sS'AGCGCG'
p2351
I2505
sS'AGGGTC'
p2352
I836
sS'TAAAAG'
p2353
I4138
sS'ACTCGT'
p2354
I250
sS'TAAAAC'
p2355
I3441
sS'TAAAAA'
p2356
I3855
sS'CTACTC'
p2357
I961
sS'AGCTGC'
p2358
I19320
sS'CTACTA'
p2359
I1546
sS'AGCTGA'
p2360
I15984
sS'CTACTG'
p2361
I2876
sS'AGCTGG'
p2362
I20528
sS'TAGGGG'
p2363
I3256
sS'AGTGCG'
p2364
I1223
sS'AGTGCA'
p2365
I3291
sS'AGAGTT'
p2366
I331
sS'AGTGCC'
p2367
I2235
sS'CCAAAA'
p2368
I1102
sS'TAGGGT'
p2369
I915
sS'AGCTGT'
p2370
I9505
sS'CTACTT'
p2371
I430
sS'AGTGCT'
p2372
I1492
sS'AGAGTC'
p2373
I782
sS'TCAAGA'
p2374
I1962
sS'AAAACA'
p2375
I5758
sS'TTCGTA'
p2376
I1139
sS'GTTAAA'
p2377
I4574
sS'CCTGGC'
p2378
I4094
sS'GTTAAC'
p2379
I2752
sS'CCTGGA'
p2380
I4025
sS'CCTGGG'
p2381
I6630
sS'GTTAAG'
p2382
I3957
sS'TTCGTC'
p2383
I770
sS'CTAATC'
p2384
I991
sS'GTCTGG'
p2385
I13855
sS'GTCTGC'
p2386
I11246
sS'GTTAAT'
p2387
I1148
sS'GTCTGA'
p2388
I11031
sS'CGCAAT'
p2389
I437
sS'CCGGTC'
p2390
I219
sS'GGAAGG'
p2391
I5703
sS'ATGCTT'
p2392
I1392
sS'GGAAGC'
p2393
I3375
sS'GCACCG'
p2394
I417
sS'GGAAGA'
p2395
I3817
sS'TGTATT'
p2396
I1272
sS'CAATGA'
p2397
I2808
sS'GCGTTC'
p2398
I580
sS'CAATGC'
p2399
I1811
sS'GCGTTG'
p2400
I1189
sS'CAATGG'
p2401
I2394
sS'ATGCTG'
p2402
I9617
sS'GGAAGT'
p2403
I1691
sS'ATGCTC'
p2404
I2957
sS'CCACAA'
p2405
I960
sS'AAACCA'
p2406
I2105
sS'TCCTCG'
p2407
I3446
sS'TGTATG'
p2408
I6688
sS'TCCTCA'
p2409
I11548
sS'TGTATA'
p2410
I5328
sS'TCCTCC'
p2411
I16060
sS'TGTATC'
p2412
I2023
sS'GTGAAT'
p2413
I1205
sS'TAACCG'
p2414
I225
sS'TCATAG'
p2415
I1109
sS'TTCGTG'
p2416
I2356
sS'CGTTAC'
p2417
I836
sS'TAACCC'
p2418
I811
sS'CGTTAA'
p2419
I877
sS'TAACCA'
p2420
I1493
sS'ACCGCT'
p2421
I392
sS'TCGCGA'
p2422
I246
sS'AACCCA'
p2423
I5355
sS'TCAGGA'
p2424
I2799
sS'TTCGTT'
p2425
I361
sS'TCATAT'
p2426
I584
sS'TAACCT'
p2427
I432
sS'GTGAAG'
p2428
I3671
sS'GTGAAA'
p2429
I3143
sS'GTGAAC'
p2430
I2152
sS'AACCCG'
p2431
I1770
sS'ACCGCG'
p2432
I1037
sS'ACCGCA'
p2433
I1163
sS'AACGAG'
p2434
I1601
sS'ACCGCC'
p2435
I1909
sS'CCGCCT'
p2436
I602
sS'AGGCTT'
p2437
I1300
sS'CCTTCT'
p2438
I3042
sS'GTTGCA'
p2439
I2928
sS'TGTCGC'
p2440
I1126
sS'GTTGCC'
p2441
I2217
sS'GTGCCG'
p2442
I1800
sS'GTGCCA'
p2443
I3896
sS'GTTGCG'
p2444
I746
sS'GTGCCC'
p2445
I3938
sS'CCGCCG'
p2446
I940
sS'AGGCTA'
p2447
I3393
sS'CCTTCC'
p2448
I7805
sS'AGGCTC'
p2449
I3592
sS'CCGCCC'
p2450
I2445
sS'TGTCGA'
p2451
I678
sS'CCTTCG'
p2452
I1608
sS'AGGCTG'
p2453
I13421
sS'GTGCCT'
p2454
I2823
sS'GTTGCT'
p2455
I1524
sS'GGATAT'
p2456
I272
sS'ATAGGT'
p2457
I743
sS'TCGGGT'
p2458
I171
sS'AAACCT'
p2459
I600
sS'GCAGTT'
p2460
I482
sS'GAAGCT'
p2461
I2022
sS'TCGGGC'
p2462
I600
sS'ATGCCA'
p2463
I3165
sS'TCGGGA'
p2464
I622
sS'NNNNNG'
p2465
I1
sS'TCGGGG'
p2466
I1108
sS'GGATAG'
p2467
I438
sS'GAAGCG'
p2468
I1600
sS'GCAGTG'
p2469
I3561
sS'GAAGCC'
p2470
I4415
sS'GCAGTA'
p2471
I1343
sS'GAAGCA'
p2472
I5334
sS'GCAGTC'
p2473
I628
sS'CGCCCG'
p2474
I3167
sS'GAGAGA'
p2475
I14918
sS'GTTCAT'
p2476
I1130
sS'CGCCCC'
p2477
I6979
sS'CGCCCA'
p2478
I3267
sS'AGTTTG'
p2479
I12445
sS'ACGCAG'
p2480
I605
sS'CTATAC'
p2481
I945
sS'ACGCAA'
p2482
I281
sS'CTCGCA'
p2483
I1717
sS'AACTGG'
p2484
I11865
sS'CTCGCG'
p2485
I2093
sS'AAACAT'
p2486
I924
sS'ACGCAT'
p2487
I91
sS'AGTTTC'
p2488
I6420
sS'GCCGGG'
p2489
I7472
sS'AGCATC'
p2490
I4716
sS'GCCGGC'
p2491
I4513
sS'CTCCTT'
p2492
I3985
sS'GCCGGA'
p2493
I2547
sS'AGATCT'
p2494
I590
sS'AGTTTA'
p2495
I10787
sS'GCCACT'
p2496
I2669
sS'CATGTA'
p2497
I6360
sS'CATGTC'
p2498
I2691
sS'GCCGGT'
p2499
I650
sS'CATGTG'
p2500
I11825
sS'AGTTCG'
p2501
I1218
sS'GTACTC'
p2502
I576
sS'GGCCTG'
p2503
I13267
sS'GGCCTC'
p2504
I6035
sS'GGCCTA'
p2505
I3633
sS'AATCGG'
p2506
I1234
sS'AATCGC'
p2507
I1237
sS'AATCGA'
p2508
I822
sS'GTTCAG'
p2509
I3995
sS'GGCCTT'
p2510
I1328
sS'TCACTA'
p2511
I1239
sS'TCACTC'
p2512
I730
sS'AATCGT'
p2513
I535
sS'AGCCGA'
p2514
I2738
sS'GAGCGT'
p2515
I921
sS'AGCCGC'
p2516
I6298
sS'TAATTG'
p2517
I3603
sS'TAATTA'
p2518
I3232
sS'AGCCGG'
p2519
I5828
sS'TAATTC'
p2520
I1824
sS'TGGTGA'
p2521
I4510
sS'GATGGA'
p2522
I6090
sS'TGGTGC'
p2523
I3244
sS'CCAAGT'
p2524
I1116
sS'GGGCTG'
p2525
I9327
sS'TGGTGG'
p2526
I5652
sS'GATGGG'
p2527
I7354
sS'AAAAAA'
p2528
I4792
sS'GAGCGG'
p2529
I4914
sS'GGGCTC'
p2530
I2528
sS'GTTTTG'
p2531
I14634
sS'AGCCGT'
p2532
I1204
sS'AAAAAG'
p2533
I4031
sS'TGACAG'
p2534
I853
sS'CCAAGG'
p2535
I2756
sS'ACGTAT'
p2536
I124
sS'TCTCAG'
p2537
I5087
sS'TCTCAA'
p2538
I3324
sS'TGGTGT'
p2539
I2562
sS'CCAAGA'
p2540
I2247
sS'ATTCGT'
p2541
I279
sS'AGAACT'
p2542
I1129
sS'GCGTTT'
p2543
I196
sS'CCGCCA'
p2544
I804
sS'TACCAT'
p2545
I1766
sS'GATTTC'
p2546
I8208
sS'AGATAG'
p2547
I914
sS'ACCCGG'
p2548
I2511
sS'ACCCGA'
p2549
I1041
sS'ATGTCT'
p2550
I2130
sS'ACCCGC'
p2551
I2285
sS'ACCAGT'
p2552
I2348
sS'TACCAC'
p2553
I4812
sS'AGAACG'
p2554
I667
sS'TACCAA'
p2555
I4357
sS'ATTGCC'
p2556
I1411
sS'TACCAG'
p2557
I5089
sS'AGAACC'
p2558
I1785
sS'ACCAGC'
p2559
I6438
sS'CACTGG'
p2560
I15936
sS'CCTATG'
p2561
I2838
sS'TGACAA'
p2562
I654
sS'ACCAGG'
p2563
I7396
sS'CACTGC'
p2564
I17530
sS'CCTATC'
p2565
I882
sS'CACTGA'
p2566
I16097
sS'GAGTCA'
p2567
I16544
sS'TAGGTT'
p2568
I418
sS'GTTTAC'
p2569
I4748
sS'AATTAT'
p2570
I2144
sS'CTGTTG'
p2571
I10631
sS'GTAACC'
p2572
I1669
sS'CTGTTC'
p2573
I4636
sS'CGGGTT'
p2574
I110
sS'CTGTTA'
p2575
I7309
sS'AATTAC'
p2576
I5258
sS'AATTAA'
p2577
I6624
sS'AATTAG'
p2578
I4973
sS'TAGGTC'
p2579
I1113
sS'CGGGTC'
p2580
I337
sS'CTGTTT'
p2581
I2969
sS'CGGGTA'
p2582
I468
sS'CGGGTG'
p2583
I1445
sS'ATTGTT'
p2584
I613
sS'AAGTAA'
p2585
I4555
sS'CATTAC'
p2586
I5916
sS'AGCAAA'
p2587
I11263
sS'ATATAT'
p2588
I901
sS'AGCAAC'
p2589
I7775
sS'TTAGGC'
p2590
I1305
sS'AAAGCT'
p2591
I1461
sS'AGCAAG'
p2592
I11298
sS'ATGCTA'
p2593
I4169
sS'AAAGCA'
p2594
I5276
sS'AAAGCC'
p2595
I3085
sS'TTAGGT'
p2596
I1139
sS'TCATTG'
p2597
I4665
sS'AGCAAT'
p2598
I3566
sS'ATATAC'
p2599
I1379
sS'TACTTC'
p2600
I10092
sS'TACTTA'
p2601
I14307
sS'TACTTG'
p2602
I14804
sS'ATAGCG'
p2603
I354
sS'TCTCAC'
p2604
I2881
sS'TGCTAA'
p2605
I9318
sS'ACGGCT'
p2606
I165
sS'ATAGCT'
p2607
I1071
sS'TACTTT'
p2608
I6274
sS'GTTTTC'
p2609
I6695
sS'CCCGAT'
p2610
I163
sS'TCCAAT'
p2611
I1856
sS'CGTACT'
p2612
I307
sS'CAGCGG'
p2613
I2930
sS'ACATAC'
p2614
I958
sS'CTTAAG'
p2615
I4313
sS'ACATAA'
p2616
I1106
sS'CTTAAA'
p2617
I5435
sS'AGGGGT'
p2618
I913
sS'CTTAAC'
p2619
I3413
sS'CGCGTT'
p2620
I240
sS'TCCAAG'
p2621
I7636
sS'CGAGTG'
p2622
I704
sS'TTGTTA'
p2623
I7252
sS'TCCAAC'
p2624
I4608
sS'TCCAAA'
p2625
I6693
sS'AGGGGA'
p2626
I3928
sS'CTTAAT'
p2627
I1361
sS'AGGGGC'
p2628
I3511
sS'TATGCA'
p2629
I4930
sS'ACATAT'
p2630
I533
sS'TCATTA'
p2631
I3412
sS'CGACTT'
p2632
I40
sS'TGAATT'
p2633
I453
sS'TTGTAA'
p2634
I3261
sS'TTGTAC'
p2635
I1994
sS'GTACCT'
p2636
I527
sS'TTGTAG'
p2637
I2569
sS'TGAATC'
p2638
I1285
sS'GATTGG'
p2639
I7971
sS'TGAATA'
p2640
I2791
sS'GGATAC'
p2641
I448
sS'TGAATG'
p2642
I4536
sS'AAGTAT'
p2643
I1613
sS'CGACTG'
p2644
I392
sS'TTGTAT'
p2645
I1461
sS'ATCGTG'
p2646
I1476
sS'GCTTCG'
p2647
I1500
sS'ATCGTC'
p2648
I457
sS'GCTTCC'
p2649
I6285
sS'TGGGAG'
p2650
I3611
sS'TGGGAA'
p2651
I2636
sS'TGGGAC'
p2652
I1701
sS'GCTTCT'
p2653
I2665
sS'ATCGTT'
p2654
I159
sS'GATTGA'
p2655
I5549
sS'TGGGAT'
p2656
I652
sS'GGGCTA'
p2657
I1951
sS'CTAGCC'
p2658
I1851
sS'CTAGCA'
p2659
I2714
sS'CTAGCG'
p2660
I636
sS'CGGTAG'
p2661
I445
sS'ACTTAG'
p2662
I3273
sS'TAGATT'
p2663
I656
sS'ACTTAA'
p2664
I3628
sS'CGGTAC'
p2665
I331
sS'TACACT'
p2666
I4090
sS'CGGTAA'
p2667
I341
sS'GACCAG'
p2668
I7862
sS'GACCAC'
p2669
I6333
sS'GACCAA'
p2670
I5526
sS'TACACC'
p2671
I3458
sS'CGGTAT'
p2672
I131
sS'TACACA'
p2673
I10856
sS'TACACG'
p2674
I1722
sS'GCGAGA'
p2675
I832
sS'GAGAGC'
p2676
I9095
sS'GCGAGC'
p2677
I1183
sS'GGCCGT'
p2678
I1064
sS'GCGAGG'
p2679
I2221
sS'CAGCCG'
p2680
I1886
sS'CAGCCA'
p2681
I5418
sS'GGTATT'
p2682
I448
sS'CAGCCC'
p2683
I5464
sS'GCGAGT'
p2684
I304
sS'GAGAGG'
p2685
I16647
sS'GAACTC'
p2686
I1184
sS'GAACTA'
p2687
I2022
sS'GGACTT'
p2688
I153
sS'CACCTA'
p2689
I4717
sS'AACTAT'
p2690
I3058
sS'CACCTC'
p2691
I6054
sS'CACCTG'
p2692
I7947
sS'TGATCC'
p2693
I863
sS'AACACT'
p2694
I5237
sS'TGATCA'
p2695
I1008
sS'TGATCG'
p2696
I165
sS'AACTAG'
p2697
I6177
sS'GATTTA'
p2698
I11516
sS'CACCTT'
p2699
I1311
sS'GGACTA'
p2700
I582
sS'AACTAA'
p2701
I8953
sS'AACGAT'
p2702
I363
sS'AACACG'
p2703
I2413
sS'AACACA'
p2704
I12521
sS'CGTCTC'
p2705
I1480
sS'AACACC'
p2706
I5056
sS'TGATCT'
p2707
I577
sS'CCAGCA'
p2708
I3951
sS'ACGCAC'
p2709
I397
sS'CAACAG'
p2710
I1326
sS'GACAGT'
p2711
I6000
sS'CAACAA'
p2712
I1245
sS'CCAGCC'
p2713
I3374
sS'CAACAC'
p2714
I955
sS'GCTGAT'
p2715
I732
sS'GCATTA'
p2716
I2272
sS'GACAGG'
p2717
I14415
sS'CAACAT'
p2718
I371
sS'GACAGC'
p2719
I12963
sS'GACAGA'
p2720
I14903
sS'ATCGGT'
p2721
I207
sS'GTATTA'
p2722
I4121
sS'ACGAAT'
p2723
I95
sS'GTATTC'
p2724
I1906
sS'GTAAGT'
p2725
I1676
sS'ATATCA'
p2726
I2112
sS'AGAGGT'
p2727
I1123
sS'GGTGGC'
p2728
I2918
sS'TCCCCT'
p2729
I2096
sS'GGTGGA'
p2730
I3279
sS'CGTCAT'
p2731
I426
sS'GGTGGG'
p2732
I5971
sS'AGAGGC'
p2733
I2834
sS'GTAAGA'
p2734
I3454
sS'AGAGGA'
p2735
I4411
sS'CTCGCC'
p2736
I3281
sS'AGAGGG'
p2737
I4038
sS'GTAAGG'
p2738
I2840
sS'TCCCCG'
p2739
I2716
sS'CGTCAC'
p2740
I1800
sS'TCCCCC'
p2741
I3783
sS'GGTGGT'
p2742
I1147
sS'CGTCAG'
p2743
I1880
sS'GTCGCG'
p2744
I993
sS'GTCGCA'
p2745
I900
sS'GTCGCC'
p2746
I1770
sS'CCGTCT'
p2747
I356
sS'TAATAC'
p2748
I1747
sS'TCGGTA'
p2749
I283
sS'GAGAGT'
p2750
I3781
sS'TCGGTG'
p2751
I768
sS'GTCGCT'
p2752
I651
sS'ACCCGT'
p2753
I379
sS'ACTGGG'
p2754
I3755
sS'GTAACT'
p2755
I1370
sS'CCGTCG'
p2756
I331
sS'ATTTAT'
p2757
I1837
sS'CCGTCA'
p2758
I695
sS'CCGTCC'
p2759
I1080
sS'GGCTGT'
p2760
I6168
sS'CGCGTG'
p2761
I2589
sS'CTATAT'
p2762
I799
sS'CGCGTC'
p2763
I1144
sS'CGCGTA'
p2764
I626
sS'GTTTTA'
p2765
I11955
sS'CCACTG'
p2766
I2238
sS'ATGCAA'
p2767
I2613
sS'ATGCAC'
p2768
I2153
sS'TCTGGA'
p2769
I3607
sS'GGCTGG'
p2770
I19629
sS'GGCTGA'
p2771
I12386
sS'GGCTGC'
p2772
I17284
sS'ATGCAT'
p2773
I929
sS'CCTACC'
p2774
I1842
sS'TTGACC'
p2775
I1840
sS'ATGACG'
p2776
I931
sS'GGAGTT'
p2777
I254
sS'ATGACA'
p2778
I3302
sS'ATGACC'
p2779
I1984
sS'CCTGAT'
p2780
I498
sS'GGGCCT'
p2781
I1171
sS'ATGACT'
p2782
I2595
sS'GGAGTA'
p2783
I864
sS'GGAGTC'
p2784
I594
sS'GGAGTG'
p2785
I2251
sS'GGGCCG'
p2786
I1742
sS'GGGCCC'
p2787
I2573
sS'GGGCCA'
p2788
I2215
sS'CATGTT'
p2789
I1353
sS'CTGATC'
p2790
I1168
sS'ACGAGT'
p2791
I208
sS'AGGCCA'
p2792
I3664
sS'TTATTA'
p2793
I5934
sS'AGGCCC'
p2794
I3842
sS'AGGCCG'
p2795
I1728
sS'ACGAGG'
p2796
I949
sS'ACGAGC'
p2797
I495
sS'ACGAGA'
p2798
I520
sS'GGCAAC'
p2799
I4460
sS'AGGCCT'
p2800
I1694
sS'ACATCT'
p2801
I818
sS'GGGTTG'
p2802
I4347
sS'TTTGGG'
p2803
I5139
sS'GGGTTA'
p2804
I2620
sS'GGGTTC'
p2805
I1275
sS'TTTGAT'
p2806
I1000
sS'TGCAAT'
p2807
I2948
sS'TGAACT'
p2808
I956
sS'CTACGA'
p2809
I379
sS'ATTGCT'
p2810
I1189
sS'TGCGAA'
p2811
I841
sS'TGCGAC'
p2812
I864
sS'AGATCC'
p2813
I1029
sS'TGCGAG'
p2814
I1753
sS'AACGGC'
p2815
I1539
sS'TTTGAG'
p2816
I4946
sS'AACGGA'
p2817
I1479
sS'GACTAG'
p2818
I6627
sS'AACGGG'
p2819
I1993
sS'TTTGAC'
p2820
I2914
sS'TTTGAA'
p2821
I5142
sS'AAGCAG'
p2822
I7488
sS'CGGGCT'
p2823
I509
sS'TGACGT'
p2824
I228
sS'CTCGTC'
p2825
I1133
sS'CCCTGG'
p2826
I14001
sS'TCACAC'
p2827
I638
sS'CCCTGA'
p2828
I9053
sS'CTCGTG'
p2829
I2831
sS'CCCTGC'
p2830
I14218
sS'CCCTGT'
p2831
I4425
sS'TTGACG'
p2832
I610
sS'GATATA'
p2833
I4353
sS'AAGCTA'
p2834
I5016
sS'GATATG'
p2835
I5759
sS'AAGCTG'
p2836
I11855
sS'TGACGC'
p2837
I493
sS'TACTCT'
p2838
I5017
sS'CATCGT'
p2839
I647
sS'GTAGTC'
p2840
I739
sS'CAGGGT'
p2841
I1668
sS'GCTAAT'
p2842
I664
sS'CCAGTC'
p2843
I694
sS'TACGAT'
p2844
I267
sS'CCAGTG'
p2845
I3067
sS'TACTCG'
p2846
I1674
sS'CATCGA'
p2847
I920
sS'CATCGC'
p2848
I1696
sS'TACTCC'
p2849
I6424
sS'NGAATT'
p2850
I1
sS'TACTCA'
p2851
I13275
sS'CATCGG'
p2852
I1247
sS'CAGGGG'
p2853
I5525
sS'CAGGGA'
p2854
I6428
sS'CAGGGC'
p2855
I6058
sS'AATCTG'
p2856
I10686
sS'CGGACT'
p2857
I329
sS'AATCTC'
p2858
I4150
sS'AGTCGA'
p2859
I826
sS'AATCTA'
p2860
I5726
sS'TGAACG'
p2861
I426
sS'GGGCTT'
p2862
I714
sS'TCACAA'
p2863
I729
sS'TCACAG'
p2864
I1122
sS'GCCATA'
p2865
I3849
sS'CGGACG'
p2866
I569
sS'AATCTT'
p2867
I1513
sS'CGGACA'
p2868
I646
sS'CGGACC'
p2869
I796
sS'GCCATG'
p2870
I8609
sS'CTTACC'
p2871
I2505
sS'TCACAT'
p2872
I357
sS'ATTAAC'
p2873
I2422
sS'ATTAAA'
p2874
I4977
sS'ATTAAG'
p2875
I3531
sS'TTTTAC'
p2876
I4825
sS'TCACTT'
p2877
I309
sS'ATCCAG'
p2878
I4951
sS'CTATTA'
p2879
I4315
sS'ATTAAT'
p2880
I1006
sS'ATCATG'
p2881
I8920
sS'TACCTG'
p2882
I4872
sS'GGTATG'
p2883
I2927
sS'CCTCTT'
p2884
I1021
sS'GGTATA'
p2885
I1488
sS'GGTATC'
p2886
I655
sS'GAACCG'
p2887
I469
sS'ACTGAA'
p2888
I2646
sS'TCGCTT'
p2889
I102
sS'CTGAAA'
p2890
I3632
sS'CTGAAC'
p2891
I2510
sS'TCGACC'
p2892
I222
sS'CTGAAG'
p2893
I4235
sS'NNNNGA'
p2894
I3
sS'TAGGTA'
p2895
I1996
sS'CATTGC'
p2896
I8918
sS'TATGAG'
p2897
I5710
sS'CATTGA'
p2898
I6907
sS'CTAGTT'
p2899
I518
sS'CATTGG'
p2900
I7583
sS'TCAACT'
p2901
I653
sS'ATGTTA'
p2902
I6348
sS'ACACCG'
p2903
I276
sS'CTGCCA'
p2904
I7764
sS'CTGCCC'
p2905
I8685
sS'ACACCC'
p2906
I601
sS'ACACCA'
p2907
I1118
sS'CTGCCG'
p2908
I3164
sS'CTAGTG'
p2909
I2785
sS'TCAACC'
p2910
I1000
sS'TCAACA'
p2911
I1939
sS'CTAGTC'
p2912
I788
sS'TCAACG'
p2913
I291
sS'CTAGTA'
p2914
I1599
sS'CATTGT'
p2915
I5479
sS'CCCGGG'
p2916
I5503
sS'ACACCT'
p2917
I392
sS'CTGCCT'
p2918
I5664
sS'CCTCGT'
p2919
I495
sS'TATGAA'
p2920
I5253
sS'AGACTG'
p2921
I2446
sS'AGACTC'
p2922
I663
sS'GCACTG'
p2923
I2238
sS'CCTCGG'
p2924
I2710
sS'CCTCGC'
p2925
I2299
sS'CCTCGA'
p2926
I933
sS'CGAGGA'
p2927
I1018
sS'AGACTT'
p2928
I228
sS'CGAGGG'
p2929
I1362
sS'ACTTTC'
p2930
I4028
sS'ACTTTA'
p2931
I7405
sS'GTGGCC'
p2932
I4410
sS'GACCTG'
p2933
I11115
sS'GACCTA'
p2934
I5557
sS'GACCTC'
p2935
I6576
sS'CACCGG'
p2936
I2746
sS'GCATAG'
p2937
I713
sS'CACCGA'
p2938
I1791
sS'CACCGC'
p2939
I4408
sS'GGACGA'
p2940
I263
sS'GGACGC'
p2941
I458
sS'GGACGG'
p2942
I534
sS'ACGCTA'
p2943
I416
sS'CACAGC'
p2944
I16592
sS'CTTATC'
p2945
I1993
sS'CACAGA'
p2946
I16200
sS'CTTATA'
p2947
I3745
sS'CACAGG'
p2948
I15433
sS'CTTATG'
p2949
I4985
sS'ACTCAT'
p2950
I1331
sS'GAGGAG'
p2951
I12381
sS'GACGTA'
p2952
I1692
sS'CGTATC'
p2953
I303
sS'GACGTC'
p2954
I2247
sS'GAGGAC'
p2955
I4823
sS'GAGGAA'
p2956
I8149
sS'GACGTG'
p2957
I4495
sS'TTAACA'
p2958
I3671
sS'ACTCAC'
p2959
I4222
sS'TTAACC'
p2960
I1903
sS'ACTCAA'
p2961
I3134
sS'ACTCAG'
p2962
I6004
sS'TTAACG'
p2963
I473
sS'CACAGT'
p2964
I7632
sS'AGCGAC'
p2965
I1433
sS'TAAACA'
p2966
I6769
sS'AGCGAA'
p2967
I1249
sS'GAGGAT'
p2968
I1267
sS'AGCGAG'
p2969
I3163
sS'TCTAAA'
p2970
I3352
sS'TAAACG'
p2971
I668
sS'CTGTGG'
p2972
I12342
sS'GTATGT'
p2973
I2610
sS'AGTTCA'
p2974
I6214
sS'CTGTGC'
p2975
I7796
sS'CTGTGA'
p2976
I8577
sS'CGGGGT'
p2977
I445
sS'TAGGAC'
p2978
I1986
sS'GCAAAG'
p2979
I1900
sS'TAGGAA'
p2980
I3187
sS'GCAAAA'
p2981
I1402
sS'TAGGAG'
p2982
I3299
sS'GCAAAC'
p2983
I1227
sS'CGGGGC'
p2984
I2989
sS'CGGGGA'
p2985
I1717
sS'CTGTGT'
p2986
I6430
sS'GTATGA'
p2987
I2974
sS'GTATGC'
p2988
I2099
sS'AGTGGA'
p2989
I4172
sS'GCAAAT'
p2990
I565
sS'CGAGAA'
p2991
I432
sS'TAGGAT'
p2992
I679
sS'AAAAAT'
p2993
I1016
sS'TTCAAT'
p2994
I2900
sS'TGCTTT'
p2995
I7527
sS'GTCTAT'
p2996
I2034
sS'GTAATT'
p2997
I701
sS'GTTACC'
p2998
I1884
sS'GTTACA'
p2999
I3467
sS'GTTTTT'
p3000
I2155
sS'GTTACG'
p3001
I713
sS'TATCGC'
p3002
I687
sS'TATAGT'
p3003
I2807
sS'GTCTAA'
p3004
I5772
sS'TGCTTA'
p3005
I16335
sS'GTCTAC'
p3006
I3906
sS'TGCTTC'
p3007
I14334
sS'TTCAAA'
p3008
I12338
sS'GTCTAG'
p3009
I5041
sS'TGCTTG'
p3010
I19501
sS'TATAGC'
p3011
I3484
sS'TATCGT'
p3012
I411
sS'TATAGA'
p3013
I4724
sS'AGTGGG'
p3014
I5713
sS'TATAGG'
p3015
I3678
sS'GTGGCG'
p3016
I1799
sS'GTTACT'
p3017
I1930
sS'GGAAAA'
p3018
I2037
sS'GCTCTA'
p3019
I3257
sS'GATGGC'
p3020
I4788
sS'GCTCTG'
p3021
I11210
sS'CCACGT'
p3022
I280
sS'GGAAAG'
p3023
I2982
sS'AGGACC'
p3024
I2455
sS'GAATGG'
p3025
I4712
sS'GGCTTT'
p3026
I3602
sS'ACTACT'
p3027
I850
sS'GAATGC'
p3028
I4598
sS'CCACGA'
p3029
I357
sS'AACCTG'
p3030
I9171
sS'CCACGC'
p3031
I568
sS'GGCGTA'
p3032
I895
sS'GTTCCG'
p3033
I837
sS'GGCGTG'
p3034
I4525
sS'CCACGG'
p3035
I582
sS'AACCTA'
p3036
I5813
sS'GGCTTA'
p3037
I8919
sS'ACTACC'
p3038
I1048
sS'GGCTTC'
p3039
I10003
sS'ACTACA'
p3040
I2466
sS'ACTACG'
p3041
I474
sS'GGCTTG'
p3042
I14601
sS'TCCTAG'
p3043
I6084
sS'TAACAA'
p3044
I1527
sS'CGTTGC'
p3045
I1843
sS'TAACAC'
p3046
I1123
sS'TCCTAC'
p3047
I4950
sS'AGTCAC'
p3048
I8271
sS'TCCTAA'
p3049
I6764
sS'AGTCAA'
p3050
I4430
sS'TCATCG'
p3051
I482
sS'AAGCGT'
p3052
I634
sS'TCATCC'
p3053
I2157
sS'AAAAAC'
p3054
I3044
sS'CTTTCT'
p3055
I5627
sS'AGTCAT'
p3056
I3134
sS'TCCTAT'
p3057
I2143
sS'TAACAT'
p3058
I544
sS'CGTTGT'
p3059
I781
sS'CTTTCC'
p3060
I9950
sS'TCCCTT'
p3061
I2262
sS'CTTTCA'
p3062
I9038
sS'CTTTCG'
p3063
I1764
sS'GCGGGT'
p3064
I380
sS'GAGCGC'
p3065
I4357
sS'GTTGAT'
p3066
I701
sS'CGACCA'
p3067
I187
sS'CGACCC'
p3068
I206
sS'GCATAC'
p3069
I585
sS'CGACCG'
p3070
I113
sS'CCTTAT'
p3071
I1117
sS'GTTGAC'
p3072
I1964
sS'GTTGAA'
p3073
I2943
sS'CGTCAA'
p3074
I701
sS'GTTGAG'
p3075
I3335
sS'CCTTAC'
p3076
I2254
sS'TTCGAT'
p3077
I236
sS'CCTTAA'
p3078
I3112
sS'CCTTAG'
p3079
I3312
sS'CGACCT'
p3080
I116
sS'AATAGA'
p3081
I6442
sS'AATAGC'
p3082
I4939
sS'CAACTG'
p3083
I2050
sS'AATAGG'
p3084
I5003
sS'GATGGT'
p3085
I2138
sS'GGGGTT'
p3086
I291
sS'GGATGT'
p3087
I849
sS'AATAGT'
p3088
I2929
sS'TCGCTA'
p3089
I372
sS'CAACTT'
p3090
I208
sS'ACTGTA'
p3091
I4172
sS'GGGGTG'
p3092
I3828
sS'GGATGA'
p3093
I1550
sS'GGATGG'
p3094
I1717
sS'GGGGTA'
p3095
I982
sS'TCTCCG'
p3096
I986
sS'GAGTCC'
p3097
I5780
sS'AAACTG'
p3098
I4043
sS'TCTCCC'
p3099
I3017
sS'AAACTA'
p3100
I2358
sS'TCTCCA'
p3101
I3244
sS'AAACTC'
p3102
I1100
sS'ACGCGA'
p3103
I271
sS'AGTACG'
p3104
I579
sS'ACGCGC'
p3105
I547
sS'AGTACC'
p3106
I1539
sS'CTATGG'
p3107
I2911
sS'AGTACA'
p3108
I3288
sS'CCCTTA'
p3109
I8172
sS'CCCTTC'
p3110
I10172
sS'TCTCCT'
p3111
I1529
sS'CCCTTG'
p3112
I13475
sS'AGTACT'
p3113
I1467
sS'CTATGT'
p3114
I2329
sS'GCCGAA'
p3115
I914
sS'GTGGAG'
p3116
I3877
sS'GCCGAC'
p3117
I1661
sS'GTGGAC'
p3118
I1681
sS'GCCGAG'
p3119
I3664
sS'GTGGAA'
p3120
I3064
sS'GTGGAT'
p3121
I649
sS'ACGAAC'
p3122
I232
sS'CCTATT'
p3123
I543
sS'CACTGT'
p3124
I9250
sS'ACCGAG'
p3125
I1160
sS'AAATCG'
p3126
I357
sS'CACGCG'
p3127
I1688
sS'TTATCG'
p3128
I360
sS'CACGCA'
p3129
I2699
sS'AAATCC'
p3130
I1937
sS'CACGCC'
p3131
I3215
sS'AAATCA'
p3132
I2620
sS'CTACGT'
p3133
I252
sS'AGATAC'
p3134
I957
sS'CACGCT'
p3135
I1106
sS'AAATCT'
p3136
I975
sS'ACCGAT'
p3137
I112
sS'CTTGAA'
p3138
I3866
sS'GTAGTT'
p3139
I495
sS'AGATAA'
p3140
I1452
sS'CGTTAT'
p3141
I323
sS'GATGAT'
p3142
I2149
sS'GGAGCA'
p3143
I2266
sS'GGAGCC'
p3144
I2037
sS'CCGGCT'
p3145
I416
sS'CCAAAT'
p3146
I462
sS'GGAGCG'
p3147
I1013
sS'AAAACT'
p3148
I1278
sS'GATGAC'
p3149
I8117
sS'GATGAA'
p3150
I7070
sS'GCTCTT'
p3151
I863
sS'GATGAG'
p3152
I9499
sS'AAAACC'
p3153
I2591
sS'AGAACA'
p3154
I3225
sS'CCAAAC'
p3155
I1170
sS'AAAACG'
p3156
I721
sS'GGAGCT'
p3157
I1092
sS'CCAAAG'
p3158
I1455
sS'TCGCGG'
p3159
I599
sS'CGGTCC'
p3160
I1135
sS'TCGCGC'
p3161
I460
sS'GGGAGT'
p3162
I1893
sS'GCCACA'
p3163
I7200
sS'AGATCA'
p3164
I1482
sS'GCCACC'
p3165
I5501
sS'AGAAAT'
p3166
I1045
sS'GCGCTT'
p3167
I143
sS'GCCACG'
p3168
I3095
sS'AGATCG'
p3169
I269
sS'ATGTCA'
p3170
I4312
sS'TCGCGT'
p3171
I105
sS'GTGCAA'
p3172
I2477
sS'TCTTTT'
p3173
I2885
sS'AGAAAG'
p3174
I4331
sS'TACCCG'
p3175
I1060
sS'AGAAAC'
p3176
I2986
sS'TACCCA'
p3177
I4044
sS'AGAAAA'
p3178
I3477
sS'TACCCC'
p3179
I2331
sS'ATGTAC'
p3180
I1730
sS'GACCGA'
p3181
I1914
sS'ATGTAA'
p3182
I3318
sS'ATGTAG'
p3183
I2184
sS'GTTCGA'
p3184
I660
sS'CTACCA'
p3185
I1565
sS'ATTAGG'
p3186
I2796
sS'GACGAC'
p3187
I1634
sS'ATGTCG'
p3188
I606
sS'CTATGA'
p3189
I3741
sS'ATGTAT'
p3190
I1172
sS'CCGGCG'
p3191
I790
sS'GACCGG'
p3192
I3326
sS'ATCCAT'
p3193
I1049
sS'AGCACT'
p3194
I4800
sS'TTAGAA'
p3195
I2865
sS'CGGCTG'
p3196
I3710
sS'TTAGAC'
p3197
I986
sS'CGGCTC'
p3198
I1504
sS'TTAGAG'
p3199
I1937
sS'CGGCTA'
p3200
I740
sS'AGCACC'
p3201
I5868
sS'AGCACA'
p3202
I10180
sS'AGCACG'
p3203
I2762
sS'GCATAT'
p3204
I400
sS'CGCCCT'
p3205
I1551
sS'TTAGAT'
p3206
I598
sS'AAAGAC'
p3207
I2452
sS'CGAAGC'
p3208
I668
sS'AAAGAA'
p3209
I4965
sS'ATATCC'
p3210
I1579
sS'AACTAC'
p3211
I6205
sS'CCAGCG'
p3212
I1211
sS'CGACGT'
p3213
I61
sS'TTATTT'
p3214
I1699
sS'TGTGAG'
p3215
I7081
sS'TGTGAA'
p3216
I4685
sS'CTACCT'
p3217
I821
sS'TGTGAC'
p3218
I4958
sS'ATATCT'
p3219
I1043
sS'CCAGCT'
p3220
I2172
sS'AAAGAT'
p3221
I717
sS'TGTGAT'
p3222
I1402
sS'TTATTG'
p3223
I5309
sS'TCGTCA'
p3224
I521
sS'CATGAT'
p3225
I1319
sS'TTATTC'
p3226
I2414
sS'AGACGG'
p3227
I636
sS'TTTTAT'
p3228
I2798
sS'GCGAAC'
p3229
I312
sS'TACAAG'
p3230
I7488
sS'AGACGC'
p3231
I604
sS'TACAAA'
p3232
I10722
sS'AGACGA'
p3233
I331
sS'TACAAC'
p3234
I5762
sS'CCTCTG'
p3235
I10918
sS'AGGTGG'
p3236
I5255
sS'CCTCTC'
p3237
I3905
sS'AGGTGC'
p3238
I2551
sS'CCTCTA'
p3239
I3847
sS'AGGTGA'
p3240
I3201
sS'CTTACG'
p3241
I947
sS'TCCACA'
p3242
I7616
sS'TTTTAG'
p3243
I6056
sS'TCCACC'
p3244
I6205
sS'TTTTAA'
p3245
I11985
sS'ACATCA'
p3246
I1866
sS'CTTACA'
p3247
I4196
sS'ACATCC'
p3248
I1441
sS'AGGTGT'
p3249
I1517
sS'ATCAAA'
p3250
I5669
sS'GCGTGA'
p3251
I944
sS'CCCGGC'
p3252
I4829
sS'CCCGGA'
p3253
I2370
sS'CCCAAT'
p3254
I1067
sS'TATGAC'
p3255
I5185
sS'TTGTGT'
p3256
I4169
sS'TGGAAT'
p3257
I1608
sS'TAGGTG'
p3258
I2833
sS'TTGTGC'
p3259
I4200
sS'TTGTGA'
p3260
I5402
sS'TTGTGG'
p3261
I7481
sS'TTTTGA'
p3262
I8960
sS'TGGAAG'
p3263
I4781
sS'GGTTTT'
p3264
I1517
sS'TGGAAC'
p3265
I2394
sS'TGGAAA'
p3266
I3901
sS'TGAGGA'
p3267
I3119
sS'AAGAGG'
p3268
I10663
sS'TGAGGC'
p3269
I2170
sS'AAGAGA'
p3270
I9596
sS'AAGAGC'
p3271
I6550
sS'TGAGGG'
p3272
I2664
sS'GCTTAG'
p3273
I3457
sS'GCTTAC'
p3274
I2205
sS'GCTTAA'
p3275
I3210
sS'TCTGAT'
p3276
I773
sS'AAGCGC'
p3277
I1984
sS'AAGAGT'
p3278
I2986
sS'AAGCGA'
p3279
I1324
sS'AAGCGG'
p3280
I2361
sS'GCTTAT'
p3281
I995
sS'CTGCTA'
p3282
I6021
sS'GCGTGT'
p3283
I666
sS'CTGCTC'
p3284
I7193
sS'ACTTCT'
p3285
I1812
sS'GACCGT'
p3286
I990
sS'CTGCTG'
p3287
I19929
sS'CGGTCA'
p3288
I750
sS'GGTCGT'
p3289
I306
sS'CTAGAG'
p3290
I2248
sS'CTAGAA'
p3291
I2807
sS'GAAAGT'
p3292
I2602
sS'ACTTCG'
p3293
I911
sS'GACCGC'
p3294
I3397
sS'ACTTCC'
p3295
I4813
sS'CTGCTT'
p3296
I2988
sS'ACTTCA'
p3297
I4337
sS'TCGGAA'
p3298
I226
sS'CTAGAT'
p3299
I675
sS'GGTCGG'
p3300
I1664
sS'CATGAA'
p3301
I4780
sS'CGGTCT'
p3302
I324
sS'GGTCGC'
p3303
I1327
sS'GGTCGA'
p3304
I604
sS'CGTCGC'
p3305
I1325
sS'GCGTGG'
p3306
I2063
sS'ACGTTT'
p3307
I196
sS'CGTCGG'
p3308
I1150
sS'GCGTGC'
p3309
I1307
sS'TGCTCA'
p3310
I12192
sS'TTCATC'
p3311
I6664
sS'TGCTCC'
p3312
I10027
sS'TTCATA'
p3313
I11452
sS'TTCATG'
p3314
I15055
sS'TGCTCG'
p3315
I2643
sS'GTACAA'
p3316
I961
sS'CAGCAG'
p3317
I6978
sS'GCGGCT'
p3318
I487
sS'CAGCAC'
p3319
I4273
sS'CAGCAA'
p3320
I3859
sS'GTACAC'
p3321
I650
sS'TGCTCT'
p3322
I6526
sS'TTCATT'
p3323
I4532
sS'GTAGCC'
p3324
I1530
sS'GCTGCC'
p3325
I3771
sS'GCTGCA'
p3326
I4362
sS'AACTCT'
p3327
I5117
sS'TGGCCC'
p3328
I2930
sS'TGGCCA'
p3329
I3224
sS'GTAGCA'
p3330
I2306
sS'TCATCT'
p3331
I1258
sS'AACTCA'
p3332
I11133
sS'TGGCCT'
p3333
I1477
sS'AACTCC'
p3334
I8868
sS'GCTGCT'
p3335
I1991
sS'AACTCG'
p3336
I2233
sS'CTACAA'
p3337
I1349
sS'TGAAGA'
p3338
I3350
sS'AATATT'
p3339
I1501
sS'CAACCT'
p3340
I564
sS'CAGTTA'
p3341
I6500
sS'TGGCCG'
p3342
I1291
sS'GGCACG'
p3343
I2061
sS'GGCACA'
p3344
I4713
sS'GACAAT'
p3345
I2547
sS'GGCACC'
p3346
I3570
sS'CAACCG'
p3347
I288
sS'GTACAT'
p3348
I390
sS'AATATG'
p3349
I7716
sS'CGGTCG'
p3350
I416
sS'AATATA'
p3351
I6637
sS'TTAGGA'
p3352
I3126
sS'AATATC'
p3353
I2185
sS'CTTCGT'
p3354
I655
sS'GACAAA'
p3355
I9926
sS'GGCACT'
p3356
I2357
sS'GACAAC'
p3357
I5799
sS'ACGACA'
p3358
I333
sS'GACAAG'
p3359
I9198
sS'GCTGCG'
p3360
I2138
sS'ACGGGA'
p3361
I669
sS'GCAATA'
p3362
I1400
sS'GCAATG'
p3363
I2691
sS'CAAGTG'
p3364
I3242
sS'CGATGG'
p3365
I412
sS'TCCCAT'
p3366
I1282
sS'CGATGC'
p3367
I295
sS'CAGCAT'
p3368
I1252
sS'CGATGA'
p3369
I334
sS'GAATTA'
p3370
I3919
sS'GAATTC'
p3371
I2550
sS'GAATTG'
p3372
I4506
sS'TCCCAA'
p3373
I3970
sS'CTACAC'
p3374
I876
sS'GTAAAA'
p3375
I2367
sS'GTAAAG'
p3376
I2146
sS'TCCCAG'
p3377
I8312
sS'GGATTT'
p3378
I264
sS'GTGCGT'
p3379
I706
sS'ACGCCG'
p3380
I320
sS'GGATTC'
p3381
I618
sS'GGATTA'
p3382
I1768
sS'AGGTCC'
p3383
I2347
sS'ACCTCT'
p3384
I2467
sS'ACGCCA'
p3385
I407
sS'ATATAG'
p3386
I1010
sS'TCTGTG'
p3387
I11118
sS'TCTGTC'
p3388
I2388
sS'TCTGTA'
p3389
I5341
sS'GGCGGC'
p3390
I5933
sS'ATATAA'
p3391
I1802
sS'GGCGGA'
p3392
I3435
sS'GGCGGG'
p3393
I11907
sS'AACCGA'
p3394
I1524
sS'TCTGTT'
p3395
I946
sS'AAAGCG'
p3396
I948
sS'CTCCTG'
p3397
I21721
sS'AACCGT'
p3398
I801
sS'CTCCTA'
p3399
I8917
sS'CTCCTC'
p3400
I14081
sS'GGCGGT'
p3401
I1072
sS'AACAAG'
p3402
I10297
sS'GACGCC'
p3403
I3344
sS'AACAAC'
p3404
I7966
sS'CCCACC'
p3405
I8116
sS'ATAGCA'
p3406
I2528
sS'AGCCTT'
p3407
I2799
sS'CCGATT'
p3408
I59
sS'CCCACT'
p3409
I3217
sS'AACAAT'
p3410
I3628
sS'GACGCT'
p3411
I1380
sS'GTGCGA'
p3412
I747
sS'CCGATA'
p3413
I180
sS'AGCCTG'
p3414
I19421
sS'AGCCTA'
p3415
I6438
sS'AGCCTC'
p3416
I9164
sS'GTACCC'
p3417
I556
sS'TGGTTG'
p3418
I5927
sS'TGGTTA'
p3419
I5161
sS'CGCCTT'
p3420
I916
sS'GCGCCT'
p3421
I421
sS'CAGAGT'
p3422
I3065
sS'GCATCT'
p3423
I827
sS'ACCTCG'
p3424
I1924
sS'AGGCAC'
p3425
I2907
sS'CGCCTC'
p3426
I5155
sS'CTACAG'
p3427
I1404
sS'CGCCTA'
p3428
I1728
sS'AGGCAG'
p3429
I6290
sS'CGCCTG'
p3430
I6858
sS'GAGTTA'
p3431
I7038
sS'CAGAGG'
p3432
I11036
sS'GCATCC'
p3433
I1360
sS'GCATCA'
p3434
I1554
sS'CAGAGC'
p3435
I8393
sS'AAAATT'
p3436
I373
sS'CAGAGA'
p3437
I8712
sS'AATCAT'
p3438
I2833
sS'TAGCTA'
p3439
I3836
sS'CCTAGA'
p3440
I2489
sS'CCTAGC'
p3441
I2101
sS'TTTGCT'
p3442
I2195
sS'TAGCTC'
p3443
I2610
sS'TGCGGT'
p3444
I706
sS'CCTAGG'
p3445
I3007
sS'TAAGCA'
p3446
I3731
sS'ACGTTG'
p3447
I1159
sS'TGCGGC'
p3448
I2629
sS'TGCGGA'
p3449
I1435
sS'CCTAGT'
p3450
I1185
sS'TGCGGG'
p3451
I3255
sS'TTTGCG'
p3452
I893
sS'TGAGTT'
p3453
I294
sS'TAGCTG'
p3454
I7193
sS'ATCGCT'
p3455
I353
sS'TCTCGT'
p3456
I346
sS'ATCGCC'
p3457
I788
sS'TGAGTG'
p3458
I3092
sS'ATCGCA'
p3459
I685
sS'TGAGTA'
p3460
I2244
sS'ATCGCG'
p3461
I470
sS'TGAGTC'
p3462
I1633
sS'GGTCTA'
p3463
I1921
sS'AAGGTG'
p3464
I4032
sS'AAGGTC'
p3465
I1656
sS'CATCAT'
p3466
I2220
sS'AAGGTA'
p3467
I2582
sS'ACGGCA'
p3468
I526
sS'CATCAC'
p3469
I6323
sS'ACGGCC'
p3470
I614
sS'CATCAA'
p3471
I4660
sS'CATCAG'
p3472
I7079
sS'ACGGCG'
p3473
I355
sS'TCACCT'
p3474
I453
sS'TCTAAG'
p3475
I3331
sS'CGGAAT'
p3476
I200
sS'CAATTC'
p3477
I968
sS'ATCGAT'
p3478
I97
sS'TCACCG'
p3479
I347
sS'TCACCA'
p3480
I1310
sS'TCACCC'
p3481
I894
sS'CGGAAG'
p3482
I2006
sS'CAACCC'
p3483
I904
sS'CGGCCT'
p3484
I587
sS'CGGAAC'
p3485
I839
sS'CGGAAA'
p3486
I819
sS'TAGCTT'
p3487
I928
sS'ATGGCG'
p3488
I767
sS'TGTGTA'
p3489
I7350
sS'CCCGGT'
p3490
I515
sS'TGTGTG'
p3491
I20432
sS'ATGGCA'
p3492
I3088
sS'TCGTCC'
p3493
I616
sS'ATGGCT'
p3494
I1224
sS'TGTGTT'
p3495
I1253
sS'AGATTA'
p3496
I2253
sS'GAAACG'
p3497
I1228
sS'GAAACA'
p3498
I5619
sS'GAAACC'
p3499
I3574
sS'CTGAGT'
p3500
I3714
sS'GAAACT'
p3501
I1916
sS'AGAATG'
p3502
I5844
sS'AGAATA'
p3503
I2963
sS'AGAATC'
p3504
I1091
sS'CTGAGC'
p3505
I5568
sS'CTGAGA'
p3506
I5951
sS'CTGAGG'
p3507
I7757
sS'CATACC'
p3508
I2817
sS'CATACA'
p3509
I4898
sS'CATACG'
p3510
I811
sS'GCAATC'
p3511
I468
sS'TCAAAT'
p3512
I557
sS'GTCCAT'
p3513
I1156
sS'ACATAG'
p3514
I910
sS'CAGGAC'
p3515
I3149
sS'ACGCCC'
p3516
I687
sS'AATGGC'
p3517
I4060
sS'GTCCAG'
p3518
I6206
sS'CAAGCT'
p3519
I1651
sS'TCAAAG'
p3520
I1607
sS'GTCCAC'
p3521
I3638
sS'GTCCAA'
p3522
I3566
sS'CGGCGG'
p3523
I3075
sS'TTGATG'
p3524
I4319
sS'CTCATT'
p3525
I3748
sS'CGGCGC'
p3526
I2113
sS'TTGATC'
p3527
I843
sS'CGGCGA'
p3528
I713
sS'CGTACA'
p3529
I598
sS'CTATCT'
p3530
I1457
sS'TTGATT'
p3531
I702
sS'CGGCGT'
p3532
I389
sS'ATGGCC'
p3533
I2059
sS'GTACGC'
p3534
I281
sS'TATAAG'
p3535
I4907
sS'CGAGTA'
p3536
I265
sS'CGGTTA'
p3537
I676
sS'GGTTTA'
p3538
I6187
sS'CGGTTC'
p3539
I585
sS'GGTTTC'
p3540
I5025
sS'CGGTTG'
p3541
I1220
sS'GGTTTG'
p3542
I9363
sS'CCATTG'
p3543
I2955
sS'TTCAGT'
p3544
I7998
sS'GCTGTG'
p3545
I10265
sS'ACCTAA'
p3546
I3604
sS'GCTGTC'
p3547
I1874
sS'CGGTTT'
p3548
I201
sS'GCTGTA'
p3549
I3845
sS'CCATAA'
p3550
I715
sS'TATGCG'
p3551
I764
sS'AGGTTG'
p3552
I5036
sS'GCATTT'
p3553
I628
sS'AGGTTC'
p3554
I1831
sS'AGGTTA'
p3555
I3909
sS'GAGGGA'
p3556
I11272
sS'TTTTTC'
p3557
I7800
sS'GAGGGC'
p3558
I7737
sS'TTTTTA'
p3559
I17697
sS'TCCTCT'
p3560
I6499
sS'TTTTTG'
p3561
I15504
sS'TCCATG'
p3562
I10131
sS'TTAAAT'
p3563
I1478
sS'AGGTTT'
p3564
I1044
sS'TAAGCG'
p3565
I536
sS'AGGGGG'
p3566
I4222
sS'TTAAAC'
p3567
I2437
sS'ATACGT'
p3568
I192
sS'TTAAAA'
p3569
I4949
sS'ACTCCG'
p3570
I669
sS'TTAAAG'
p3571
I3415
sS'TCCATT'
p3572
I2100
sS'TTTTTT'
p3573
I3219
sS'ACTCCC'
p3574
I1677
sS'TAGGCT'
p3575
I1157
sS'GTCACG'
p3576
I2935
sS'CTGTAC'
p3577
I2488
sS'GCAACT'
p3578
I653
sS'GTCACC'
p3579
I6352
sS'CTTTAG'
p3580
I5609
sS'GTCACA'
p3581
I8556
sS'ACTTAT'
p3582
I913
sS'GCAACG'
p3583
I464
sS'GGTCTT'
p3584
I504
sS'GTCACT'
p3585
I4913
sS'TAGGCG'
p3586
I855
sS'GCAACC'
p3587
I1201
sS'TAGGCA'
p3588
I3458
sS'GCAACA'
p3589
I1734
sS'TAGGCC'
p3590
I2225
sS'CGATGT'
p3591
I166
sS'ATTCAT'
p3592
I1571
sS'TCCCAC'
p3593
I5343
sS'GCGATT'
p3594
I57
sS'TCGTGT'
p3595
I362
sS'TTCACT'
p3596
I6021
sS'GTCTCT'
p3597
I6342
sS'AACATT'
p3598
I3337
sS'ATTCAG'
p3599
I4568
sS'ATATTA'
p3600
I4040
sS'ATTCAA'
p3601
I3686
sS'ATTCAC'
p3602
I3297
sS'GTCTCC'
p3603
I10852
sS'GTCTCA'
p3604
I10809
sS'GCGATG'
p3605
I758
sS'GTCTCG'
p3606
I3021
sS'GCGATA'
p3607
I270
sS'TTCACA'
p3608
I11127
sS'GCGATC'
p3609
I146
sS'GAAGGC'
p3610
I4706
sS'GAAGGA'
p3611
I7392
sS'GAAGGG'
p3612
I7546
sS'CGATTA'
p3613
I204
sS'GGAACC'
p3614
I1333
sS'GGAACA'
p3615
I1827
sS'GGAACG'
p3616
I611
sS'TGACGA'
p3617
I236
sS'TACTGC'
p3618
I9945
sS'TCATAC'
p3619
I921
sS'GAAGGT'
p3620
I1496
sS'CTCGCT'
p3621
I1258
sS'CAATCG'
p3622
I414
sS'CAATCA'
p3623
I1840
sS'CAATCC'
p3624
I1354
sS'TCCTGA'
p3625
I11969
sS'AGTCCA'
p3626
I2787
sS'TCCTGC'
p3627
I15920
sS'AGTCCC'
p3628
I2777
sS'ACTAAA'
p3629
I2833
sS'TCCTGG'
p3630
I17802
sS'ACTAAC'
p3631
I1986
sS'TAACGC'
p3632
I371
sS'CAGCTG'
p3633
I15479
sS'CAGCTA'
p3634
I4735
sS'CAGCTC'
p3635
I4438
sS'ACTAAT'
p3636
I845
sS'CGACTC'
p3637
I142
sS'AGTCCT'
p3638
I1310
sS'TCCTGT'
p3639
I7808
sS'TAATGT'
p3640
I2076
sS'CAGCTT'
p3641
I1058
sS'TAACGT'
p3642
I235
sS'CAGGCA'
p3643
I6809
sS'GTACTT'
p3644
I326
sS'CGACAT'
p3645
I40
sS'TTGTTC'
p3646
I3786
sS'CGCAAG'
p3647
I1871
sS'CCGAGG'
p3648
I1767
sS'TTGTTG'
p3649
I8805
sS'AGGAAG'
p3650
I8936
sS'CCGAGC'
p3651
I1120
sS'CCGCGT'
p3652
I195
sS'GTACTG'
p3653
I2144
sS'CGACAA'
p3654
I89
sS'CGACAG'
p3655
I192
sS'GTACTA'
p3656
I1093
sS'CCGCGC'
p3657
I1165
sS'AGCCAC'
p3658
I9287
sS'CCGCGA'
p3659
I463
sS'CCGCGG'
p3660
I1300
sS'TTGTTT'
p3661
I2979
sS'TCCGTT'
p3662
I315
sS'AGGAAC'
p3663
I3451
sS'AATAAC'
p3664
I5875
sS'AATAAA'
p3665
I11880
sS'AATAAG'
p3666
I6947
sS'GGATTG'
p3667
I1790
sS'AATAAT'
p3668
I2566
sS'CCAACC'
p3669
I1310
sS'CCAACA'
p3670
I1783
sS'CCAACG'
p3671
I385
sS'GGGATT'
p3672
I495
sS'CGCCGC'
p3673
I9634
sS'GTGTAT'
p3674
I1614
sS'CGCCGA'
p3675
I1992
sS'AGTAAC'
p3676
I4523
sS'CGCCGG'
p3677
I5414
sS'GAGTAA'
p3678
I5782
sS'GAGTAC'
p3679
I2536
sS'CTCAGG'
p3680
I15871
sS'CTCAGC'
p3681
I16962
sS'CTCAGA'
p3682
I14444
sS'TATTGC'
p3683
I7025
sS'GCTTCA'
p3684
I4730
sS'GTGTAG'
p3685
I2539
sS'TCGAGC'
p3686
I421
sS'GTGTAA'
p3687
I2971
sS'GTGTAC'
p3688
I2068
sS'CGCCGT'
p3689
I883
sS'GTGGCA'
p3690
I4237
sS'CTCGGG'
p3691
I4463
sS'CTCGGA'
p3692
I1940
sS'CTCGGC'
p3693
I3937
sS'GCCGCC'
p3694
I5583
sS'GCCGCA'
p3695
I2399
sS'GCCGCG'
p3696
I3603
sS'ACACTT'
p3697
I230
sS'CTCGGT'
p3698
I847
sS'AGATAT'
p3699
I506
sS'TCGCTC'
p3700
I445
sS'GTGGCT'
p3701
I2353
sS'CATATA'
p3702
I5103
sS'GTCAGC'
p3703
I10148
sS'ACACTC'
p3704
I507
sS'ACACTA'
p3705
I984
sS'ACACTG'
p3706
I2471
sS'GCCGCT'
p3707
I1203
sS'ACCGGA'
p3708
I1061
sS'AAATAA'
p3709
I3236
sS'ACCGGC'
p3710
I1258
sS'TCAGCC'
p3711
I1983
sS'CTTTAA'
p3712
I8065
sS'ACCGGG'
p3713
I1599
sS'CTTTAC'
p3714
I4238
sS'CACGAG'
p3715
I1947
sS'CAGGTA'
p3716
I1195
sS'AACTTC'
p3717
I10220
sS'CAGGTC'
p3718
I1265
sS'CACGAC'
p3719
I1207
sS'AACTTG'
p3720
I16819
sS'GTCAGG'
p3721
I11285
sS'CTTTAT'
p3722
I2501
sS'AATCCC'
p3723
I3346
sS'GCTCGT'
p3724
I379
sS'AATCCA'
p3725
I3819
sS'AAATAT'
p3726
I1171
sS'AATCCG'
p3727
I886
sS'GCAAGT'
p3728
I998
sS'CAGGTT'
p3729
I383
sS'AACTTT'
p3730
I4257
sS'GGGATA'
p3731
I1655
sS'GGGATC'
p3732
I784
sS'GGGTGT'
p3733
I1739
sS'GGGATG'
p3734
I4604
sS'GATGCT'
p3735
I2478
sS'CGCAGT'
p3736
I1682
sS'GAGCCT'
p3737
I2639
sS'GGAGAC'
p3738
I1256
sS'GGGTGA'
p3739
I3395
sS'GGAGAA'
p3740
I2340
sS'GGGTGC'
p3741
I2504
sS'GGAGAG'
p3742
I2437
sS'AATCAA'
p3743
I5349
sS'GGGTGG'
p3744
I6556
sS'GAGCCA'
p3745
I6714
sS'CGCAGG'
p3746
I6046
sS'GATGCG'
p3747
I1575
sS'CGCAGA'
p3748
I3177
sS'GATGCA'
p3749
I5472
sS'CGCAGC'
p3750
I6006
sS'GATGCC'
p3751
I3679
sS'CGGATT'
p3752
I98
sS'GGTAGT'
p3753
I1051
sS'ACCCCT'
p3754
I872
sS'GCCAAT'
p3755
I2211
sS'AACCGC'
p3756
I2367
sS'AGAAGT'
p3757
I1913
sS'GCCAAC'
p3758
I3847
sS'GGTAGA'
p3759
I2433
sS'GCCAAA'
p3760
I5008
sS'CGGATG'
p3761
I1090
sS'GCCAAG'
p3762
I7585
sS'CGGATA'
p3763
I398
sS'ACCCCG'
p3764
I1379
sS'GGTAGG'
p3765
I3131
sS'AGAAGA'
p3766
I4467
sS'AGAAGC'
p3767
I3845
sS'GCAAGA'
p3768
I2304
sS'AGAAGG'
p3769
I5868
sS'CACTCC'
p3770
I10371
sS'CACTCA'
p3771
I12784
sS'CACTCG'
p3772
I2965
sS'TGCGTT'
p3773
I372
sS'TCAGCT'
p3774
I1241
sS'AGCTTT'
p3775
I5280
sS'TGCGTC'
p3776
I1404
sS'TGCGTA'
p3777
I1293
sS'CCCCGC'
p3778
I8350
sS'CACTCT'
p3779
I5811
sS'AGCTTC'
p3780
I12023
sS'AGCTTA'
p3781
I11299
sS'AGCTTG'
p3782
I16774
sS'ATACGA'
p3783
I241
sS'AGACCA'
p3784
I906
sS'CCACTT'
p3785
I252
sS'AGAGTA'
p3786
I1673
sS'TTAGCT'
p3787
I1374
sS'TTAGCC'
p3788
I1478
sS'TTAGCA'
p3789
I3027
sS'GACCAT'
p3790
I1613
sS'TTAGCG'
p3791
I483
sS'CTTCAT'
p3792
I1622
sS'AAGGGG'
p3793
I6657
sS'ATAAGG'
p3794
I2649
sS'TGTGCT'
p3795
I1660
sS'AAGGGC'
p3796
I4797
sS'ATAAGC'
p3797
I1914
sS'AAGGGA'
p3798
I6841
sS'ATAAGA'
p3799
I2967
sS'CCAGAC'
p3800
I1089
sS'CCAGAA'
p3801
I2437
sS'CCAGAG'
p3802
I2353
sS'TGTGCG'
p3803
I1502
sS'ATAAGT'
p3804
I1114
sS'ATAGGG'
p3805
I1541
sS'TGTGCC'
p3806
I2410
sS'ATAGGA'
p3807
I2228
sS'TGTGCA'
p3808
I4336
sS'ATAGGC'
p3809
I1115
sS'TAAGTT'
p3810
I392
sS'ATACGC'
p3811
I231
sS'AGACCG'
p3812
I252
sS'CCAGAT'
p3813
I550
sS'AGACAA'
p3814
I1028
sS'GACGCA'
p3815
I2707
sS'AGACAC'
p3816
I1079
sS'AGACAG'
p3817
I1636
sS'GCTTTT'
p3818
I1762
sS'TTTTCT'
p3819
I4887
sS'CGCTGT'
p3820
I2268
sS'CCCACG'
p3821
I3014
sS'CGTGGG'
p3822
I2721
sS'CTATAG'
p3823
I1147
sS'CGTGGC'
p3824
I2036
sS'CGTGGA'
p3825
I1342
sS'TTTTCG'
p3826
I1164
sS'CCCACA'
p3827
I7643
sS'CGCTGC'
p3828
I7787
sS'TTTTCC'
p3829
I8054
sS'TTTTCA'
p3830
I8625
sS'CGCTGG'
p3831
I6734
sS'TATGGA'
p3832
I3523
sS'TATGGC'
p3833
I2896
sS'CGTAGG'
p3834
I1095
sS'AACAAA'
p3835
I15721
sS'TATGGG'
p3836
I3535
sS'CGTAGC'
p3837
I970
sS'TACCGT'
p3838
I632
sS'AAGTGT'
p3839
I3386
sS'TGGACT'
p3840
I1229
sS'CGTAGT'
p3841
I556
sS'TATGGT'
p3842
I1514
sS'ATTCCT'
p3843
I1553
sS'TGGACA'
p3844
I2770
sS'TGGACC'
p3845
I1641
sS'TGGACG'
p3846
I744
sS'CCGGTT'
p3847
I64
sS'CTAGCT'
p3848
I1391
sS'GCTTGA'
p3849
I3974
sS'TGAGAC'
p3850
I1215
sS'GCTTGC'
p3851
I4402
sS'TGAGAA'
p3852
I2363
sS'TGAGAG'
p3853
I1831
sS'GCTTGG'
p3854
I6153
sS'CCTGTT'
p3855
I644
sS'CCGGTG'
p3856
I924
sS'CTACGG'
p3857
I500
sS'AGGATT'
p3858
I727
sS'CCGGTA'
p3859
I316
sS'CCTGTC'
p3860
I1676
sS'CCTGTA'
p3861
I3286
sS'CCTGTG'
p3862
I8142
sS'TATCAA'
p3863
I4092
sS'TGAGAT'
p3864
I522
sS'ATCGTA'
p3865
I702
sS'GGTTGT'
p3866
I2081
sS'AGGGAT'
p3867
I636
sS'TATCAG'
p3868
I5194
sS'TAGCGT'
p3869
I354
sS'GGTTGG'
p3870
I5184
sS'CTGAAT'
p3871
I1252
sS'GGTTGA'
p3872
I3727
sS'GGTTGC'
p3873
I4134
sS'GGAAAC'
p3874
I2108
sS'TCCCGC'
p3875
I4806
sS'TCCCGA'
p3876
I1639
sS'TCCCGG'
p3877
I4805
sS'TGCTAT'
p3878
I3457
sS'CGTTTT'
p3879
I594
sS'ATTCTC'
p3880
I2602
sS'ATTCTA'
p3881
I4374
sS'ATTCTG'
p3882
I7526
sS'TCATTT'
p3883
I926
sS'CAGCGA'
p3884
I1436
sS'CAGCGC'
p3885
I2958
sS'TGCTAG'
p3886
I6699
sS'TCCCGT'
p3887
I800
sS'AGGATC'
p3888
I1340
sS'TCATTC'
p3889
I2176
sS'CGTTTG'
p3890
I2997
sS'CGTTTA'
p3891
I2004
sS'ATTCTT'
p3892
I1068
sS'CGTTTC'
p3893
I1943
sS'CCACTC'
p3894
I558
sS'TGGCAA'
p3895
I1949
sS'CCGATC'
p3896
I124
sS'TGGCAG'
p3897
I3447
sS'GCTGAG'
p3898
I6277
sS'GCTGAA'
p3899
I3125
sS'GCTGAC'
p3900
I3517
sS'TGGCAT'
p3901
I694
sS'GGCCGG'
p3902
I7175
sS'GTTCAA'
p3903
I2937
sS'NNGATC'
p3904
I1
sS'CCGATG'
p3905
I547
sS'GGCCGC'
p3906
I7293
sS'GAACTT'
p3907
I304
sS'GGCCGA'
p3908
I2633
sS'GGCAAT'
p3909
I1433
sS'CTATAA'
p3910
I1783
sS'CTGATT'
p3911
I972
sS'NCCCAC'
p3912
I1
sS'CCATCG'
p3913
I350
sS'CTAAAT'
p3914
I978
sS'CCATCC'
p3915
I1765
sS'CCATCA'
p3916
I1532
sS'GGCAAG'
p3917
I6705
sS'CTGATA'
p3918
I2885
sS'GTACCA'
p3919
I1020
sS'CTGATG'
p3920
I6429
sS'GGCAAA'
p3921
I5425
sS'CTAAAG'
p3922
I2277
sS'CCATCT'
p3923
I1145
sS'CTAAAC'
p3924
I1864
sS'CTAAAA'
p3925
I2624
sS'GACACC'
p3926
I5831
sS'GACACA'
p3927
I11628
sS'GACACG'
p3928
I2924
sS'TGGTTC'
p3929
I2299
sS'CGTATA'
p3930
I543
sS'TACGAG'
p3931
I964
sS'TACGAC'
p3932
I788
sS'GACACT'
p3933
I4601
sS'CCGTGA'
p3934
I738
sS'AGTCCG'
p3935
I948
sS'ACGCTG'
p3936
I1428
sS'GCATAA'
p3937
I724
sS'CTATTC'
p3938
I2004
sS'TCGATG'
p3939
I443
sS'TCGATA'
p3940
I181
sS'TCGATC'
p3941
I78
sS'CTATTT'
p3942
I1416
sS'CGCGAA'
p3943
I653
sS'GCATTG'
p3944
I2936
sS'CAGCCT'
p3945
I2472
sS'TCGATT'
p3946
I56
sS'GGATAA'
p3947
I539
sS'TCGGCA'
p3948
I450
sS'GAGTTG'
p3949
I9384
sS'AACCAA'
p3950
I6812
sS'TGCCGG'
p3951
I3733
sS'AACCAC'
p3952
I8549
sS'TGCCGC'
p3953
I3860
sS'AACCAG'
p3954
I7589
sS'TGCCGA'
p3955
I1546
sS'TTGGAC'
p3956
I1392
sS'CGTGAA'
p3957
I806
sS'GAGTTC'
p3958
I4588
sS'TGCCGT'
p3959
I927
sS'AACCAT'
p3960
I1974
sS'AACAGA'
p3961
I14748
sS'CTACCG'
p3962
I419
sS'AACAGC'
p3963
I12722
sS'ACGTCC'
p3964
I679
sS'AACAGG'
p3965
I12009
sS'ACGTCA'
p3966
I1087
sS'CCCAAG'
p3967
I5815
sS'GCGGAA'
p3968
I559
sS'GACGAA'
p3969
I1378
sS'CCCAAC'
p3970
I4037
sS'CCCAAA'
p3971
I4209
sS'GGGAGG'
p3972
I13168
sS'GGGAGA'
p3973
I5511
sS'AACAGT'
p3974
I6541
sS'GGGAGC'
p3975
I5058
sS'ACGAAG'
p3976
I477
sS'TCAGAT'
p3977
I415
sS'GACGAT'
p3978
I435
sS'GGGCGC'
p3979
I2507
sS'GGGCGA'
p3980
I1236
sS'GGGCGG'
p3981
I6824
sS'TCTCTT'
p3982
I1226
sS'AGGCAT'
p3983
I1118
sS'CAGAAT'
p3984
I1300
sS'ACGACT'
p3985
I133
sS'TCTCTC'
p3986
I4850
sS'TCTCTA'
p3987
I5493
sS'TCTCTG'
p3988
I12448
sS'GGGCGT'
p3989
I591
sS'CAGAAA'
p3990
I5202
sS'CAGAAC'
p3991
I3962
sS'ACGACG'
p3992
I186
sS'CAGAAG'
p3993
I6432
sS'CCTTCA'
p3994
I5124
sS'CACTTT'
p3995
I4971
sS'CATATT'
p3996
I1292
sS'CCTAAT'
p3997
I580
sS'TCTATA'
p3998
I2704
sS'GCATTC'
p3999
I1584
sS'GTCATT'
p4000
I2740
sS'CACTTG'
p4001
I17182
sS'CCTAAC'
p4002
I1685
sS'CTACCC'
p4003
I1199
sS'CCTAAA'
p4004
I1936
sS'CACTTC'
p4005
I12913
sS'CCTAAG'
p4006
I2311
sS'CACTTA'
p4007
I14374
sS'GCGGAT'
p4008
I88
sS'CTGCGG'
p4009
I3077
sS'AAGATT'
p4010
I808
sS'CTCATG'
p4011
I14047
sS'GACTCG'
p4012
I4264
sS'CTCATC'
p4013
I6678
sS'GACTCC'
p4014
I11317
sS'CTCATA'
p4015
I9016
sS'GACTCA'
p4016
I27149
sS'AAGATA'
p4017
I4930
sS'AGTCGG'
p4018
I1714
sS'AAGATG'
p4019
I8060
sS'GACTCT'
p4020
I6965
sS'GTCCCG'
p4021
I2923
sS'ATCGAA'
p4022
I456
sS'ATCGAC'
p4023
I405
sS'ATATTT'
p4024
I1141
sS'ACGGTA'
p4025
I296
sS'GGACTC'
p4026
I377
sS'ATAGTT'
p4027
I417
sS'TACTGT'
p4028
I7789
sS'ATATTC'
p4029
I1564
sS'ACGGTC'
p4030
I157
sS'ATATTG'
p4031
I3737
sS'ATAGTA'
p4032
I1617
sS'TACTGA'
p4033
I11492
sS'TACTGG'
p4034
I9836
sS'ATAGTG'
p4035
I1983
sS'ATAGAC'
p4036
I811
sS'ACGGAC'
p4037
I233
sS'CAGGCC'
p4038
I5869
sS'CATCCG'
p4039
I1126
sS'AGGAAA'
p4040
I6071
sS'CATCCA'
p4041
I4100
sS'CAGGCG'
p4042
I2449
sS'CATCCC'
p4043
I3969
sS'TTATGA'
p4044
I3385
sS'TTATGC'
p4045
I2277
sS'CGGAGT'
p4046
I623
sS'TTATGG'
p4047
I2850
sS'CATCCT'
p4048
I2117
sS'AGGAAT'
p4049
I1817
sS'CAGGCT'
p4050
I2310
sS'ACGGAT'
p4051
I59
sS'CGGAGA'
p4052
I1526
sS'CGGAGC'
p4053
I2579
sS'TTATGT'
p4054
I2626
sS'CGGAGG'
p4055
I3410
sS'ATGGAA'
p4056
I2614
sS'ATGGAC'
p4057
I1083
sS'ATGGAG'
p4058
I2266
sS'CGCTTG'
p4059
I4167
sS'CGCTTA'
p4060
I2121
sS'CGCTTC'
p4061
I3938
sS'ATGGAT'
p4062
I441
sS'TTTGCA'
p4063
I4902
sS'CGCTTT'
p4064
I1187
sS'GATCGT'
p4065
I456
sS'TTTGCC'
p4066
I2841
sS'GAAAAG'
p4067
I6061
sS'TAAACC'
p4068
I2315
sS'CATACT'
p4069
I2234
sS'GAAAAC'
p4070
I4385
sS'ATAGAT'
p4071
I497
sS'GAAAAA'
p4072
I4249
sS'TAAGTA'
p4073
I3001
sS'CCGTAT'
p4074
I85
sS'AGACCT'
p4075
I378
sS'ACGGTT'
p4076
I58
sS'GAAAAT'
p4077
I1199
sS'ACAAGG'
p4078
I2323
sS'ACAAGA'
p4079
I2107
sS'ACAAGC'
p4080
I1528
sS'ACACGT'
p4081
I214
sS'CTGCGT'
p4082
I812
sS'GCGGAG'
p4083
I1425
sS'CATAAG'
p4084
I4617
sS'GTCCCT'
p4085
I2523
sS'CATAAA'
p4086
I6729
sS'GCGGAC'
p4087
I474
sS'CATAAC'
p4088
I4031
sS'ACACGC'
p4089
I399
sS'ACAAGT'
p4090
I872
sS'ACACGA'
p4091
I306
sS'ACACGG'
p4092
I410
sS'CATAAT'
p4093
I1708
sS'GTCCCA'
p4094
I4847
sS'GTCCCC'
p4095
I4693
sS'CTGCGA'
p4096
I1176
sS'CTGCGC'
p4097
I2624
sS'CGGCAA'
p4098
I416
sS'CGGCAC'
p4099
I753
sS'CGGCAG'
p4100
I1451
sS'CCTCCT'
p4101
I2287
sS'NNNGAA'
p4102
I2
sS'CGGCAT'
p4103
I150
sS'CCTCCC'
p4104
I4935
sS'CCTCCA'
p4105
I3415
sS'CCTCCG'
p4106
I1507
sS'CGTGAT'
p4107
I303
s.