(dp0
S'GAACGT'
p1
I8030
sS'ACATGA'
p2
I40740
sS'CTTCTT'
p3
I72580
sS'CACCCT'
p4
I54265
sS'ATTGAA'
p5
I37224
sS'GAACGG'
p6
I8721
sS'GNGTTG'
p7
I1
sS'GAACGC'
p8
I8399
sS'GAACGA'
p9
I7238
sS'CACCCA'
p10
I64994
sS'CTTCTA'
p11
I40300
sS'CACCCC'
p12
I63463
sS'CTTCTC'
p13
I75231
sS'CACCCG'
p14
I19753
sS'CTTCTG'
p15
I75681
sS'GTCTCG'
p16
I14855
sS'CGTGTG'
p17
I17485
sS'TAAGGT'
p18
I25745
sS'CGTGTC'
p19
I11150
sS'CGTGTA'
p20
I6905
sS'GCCTAT'
p21
I19940
sS'TAAGGG'
p22
I28986
sS'CGTGTT'
p23
I11664
sS'TAAGGC'
p24
I25829
sS'TAAGGA'
p25
I41054
sS'GTCAAA'
p26
I32797
sS'GTCAAC'
p27
I18325
sS'GTCAAG'
p28
I28806
sS'CTGTCC'
p29
I55987
sS'TCAGAG'
p30
I66502
sS'CTGTCA'
p31
I53933
sS'CTGTCG'
p32
I11883
sS'TCAGAC'
p33
I36379
sS'TCAGAA'
p34
I67119
sS'GTCAAT'
p35
I19684
sS'GTATCA'
p36
I20027
sS'GTATCC'
p37
I15410
sS'GTATCG'
p38
I2766
sS'CTGTCT'
p39
I75088
sS'GGTGTC'
p40
I30724
sS'GGTGTA'
p41
I18312
sS'GGTGTG'
p42
I50913
sS'TATCCT'
p43
I29869
sS'CCGGGG'
p44
I36737
sS'TTCTGT'
p45
I76425
sS'ATTCCT'
p46
I52935
sS'CCGGGC'
p47
I40610
sS'CCGGGA'
p48
I28637
sS'TATCCA'
p49
I28208
sS'TATCCC'
p50
I22270
sS'GTTCTG'
p51
I46948
sS'GGCGAG'
p52
I20055
sS'GGTGTT'
p53
I32589
sS'ATTCCG'
p54
I6839
sS'TTCTGG'
p55
I67833
sS'CCGGGT'
p56
I19574
sS'ATTCCC'
p57
I38060
sS'TTCTGC'
p58
I60791
sS'ATTCCA'
p59
I49389
sS'TTCTGA'
p60
I67078
sS'TGCACT'
p61
I45132
sS'CATCAA'
p62
I31362
sS'GGNCCG'
p63
I1
sS'CGTCAT'
p64
I7397
sS'GTTCTC'
p65
I39754
sS'CCCGCG'
p66
I25969
sS'CGCGGG'
p67
I25787
sS'NCCGCC'
p68
I1
sS'CGCGGC'
p69
I26335
sS'CGCGGA'
p70
I10910
sS'ACCTGT'
p71
I39723
sS'AGANAC'
p72
I1
sS'TCATGT'
p73
I40794
sS'CTCCGA'
p74
I12561
sS'TTACAG'
p75
I58959
sS'CTCCGC'
p76
I29152
sS'TTACAA'
p77
I44337
sS'CCGGCA'
p78
I15853
sS'TTACAC'
p79
I26458
sS'CTCCGG'
p80
I23354
sS'TCATGC'
p81
I34140
sS'TGCGAT'
p82
I6239
sS'TCATGA'
p83
I40268
sS'TCATGG'
p84
I39366
sS'ACCTGC'
p85
I43743
sS'ACCTGA'
p86
I40433
sS'GTATTT'
p87
I56854
sS'CTCGAT'
p88
I6317
sS'CTCCGT'
p89
I16426
sS'GCCTGA'
p90
I50286
sS'GCCTGC'
p91
I58909
sS'GCCTGG'
p92
I104257
sS'TAAAGG'
p93
I41679
sS'CAAATT'
p94
I51419
sS'TAAAGA'
p95
I56180
sS'TAAAGC'
p96
I35011
sS'GCCTGT'
p97
I59855
sS'CGTCAA'
p98
I5245
sS'TAAAGT'
p99
I43605
sS'CAAATA'
p100
I53997
sS'ACGTCC'
p101
I9120
sS'CAAATC'
p102
I37877
sS'CAAATG'
p103
I56051
sS'AATACT'
p104
I37326
sS'TGGNTT'
p105
I1
sS'TATCTC'
p106
I38411
sS'TCGATT'
p107
I5352
sS'CCGGCG'
p108
I20303
sS'GGCATG'
p109
I41381
sS'GTCCTC'
p110
I40828
sS'GGCATC'
p111
I26471
sS'AATACG'
p112
I6765
sS'AATACA'
p113
I53764
sS'AATACC'
p114
I25020
sS'GGCATT'
p115
I34260
sS'CGTCAG'
p116
I10684
sS'TGCACA'
p117
I48475
sS'GAGCAC'
p118
I33675
sS'GAGCAA'
p119
I43317
sS'CATATC'
p120
I23282
sS'GAGCAG'
p121
I66484
sS'AGTAGT'
p122
I25018
sS'TCTCGC'
p123
I14325
sS'TCTCGA'
p124
I10689
sS'TCTCGG'
p125
I17549
sS'ACTGAG'
p126
I55925
sS'AGTAGA'
p127
I37538
sS'AGTAGG'
p128
I30399
sS'ACTGAA'
p129
I55328
sS'ACGGCC'
p130
I12622
sS'TCTCGT'
p131
I9094
sS'GTGTCG'
p132
I6773
sS'TCGAAC'
p133
I7063
sS'TCGAAA'
p134
I6551
sS'GTGTCC'
p135
I36601
sS'TCGAAG'
p136
I7184
sS'GTGTCA'
p137
I35459
sS'CTTGCT'
p138
I56431
sS'TCGGTC'
p139
I7134
sS'CCACAA'
p140
I45133
sS'GTGTCT'
p141
I46012
sS'AGCCCC'
p142
I64582
sS'TCGAAT'
p143
I5550
sS'CTTGCG'
p144
I8292
sS'CTTGCA'
p145
I38876
sS'CTTGCC'
p146
I42928
sS'CGAAAG'
p147
I9268
sS'CGAAAA'
p148
I9310
sS'CGAAAC'
p149
I7718
sS'AATCAT'
p150
I40044
sS'AAATGC'
p151
I56053
sS'CACGGC'
p152
I16472
sS'AAATGA'
p153
I83713
sS'AAATGG'
p154
I62865
sS'CACGGG'
p155
I16466
sS'ACAGTA'
p156
I35805
sS'CGAAAT'
p157
I6919
sS'ACAGTT'
p158
I44642
sS'AATCAG'
p159
I44053
sS'CACGGT'
p160
I12837
sS'AAATGT'
p161
I79163
sS'AATCAC'
p162
I35667
sS'TTTGTA'
p163
I58713
sS'GCTCAA'
p164
I37118
sS'TCTAGT'
p165
I28290
sS'TTGCCG'
p166
I8568
sS'TTGCCA'
p167
I42782
sS'GGGTAT'
p168
I17742
sS'TTGCCT'
p169
I51546
sS'TCTAGG'
p170
I34207
sS'GGGTAA'
p171
I24632
sS'TCTAGA'
p172
I36110
sS'GGGTAG'
p173
I26403
sS'TCTAGC'
p174
I25521
sS'ATACGG'
p175
I4975
sS'TGACTA'
p176
I26428
sS'ATACAT'
p177
I39625
sS'TGGGCC'
p178
I52827
sS'AGATGT'
p179
I42177
sS'TCGCCC'
p180
I17846
sS'TCGCCA'
p181
I10504
sS'TCGCCG'
p182
I8470
sS'GGTAAT'
p183
I22223
sS'ACCCAT'
p184
I28498
sS'CTCACC'
p185
I52759
sS'ACCCAC'
p186
I42561
sS'GGTAAC'
p187
I18479
sS'ACCCAA'
p188
I37265
sS'AGATGG'
p189
I57971
sS'ACCCAG'
p190
I68901
sS'GGTAAG'
p191
I25006
sS'TCGCCT'
p192
I12979
sS'AGATGC'
p193
I34829
sS'CCCCAT'
p194
I48192
sS'TTGGGT'
p195
I36944
sS'CACTAG'
p196
I25144
sS'CACTAA'
p197
I28412
sS'CACTAC'
p198
I21042
sS'CCCCAA'
p199
I57535
sS'CCCCAC'
p200
I77220
sS'CCCCAG'
p201
I95361
sS'CACTAT'
p202
I25755
sS'TTGGGG'
p203
I57072
sS'CCGTCC'
p204
I15725
sS'TTGGGA'
p205
I61312
sS'TTGGGC'
p206
I35261
sS'TGCCTG'
p207
I81578
sS'TGCAGA'
p208
I62283
sS'TTTCTG'
p209
I94082
sS'TGCAGC'
p210
I60089
sS'TTTCTA'
p211
I64618
sS'TTTCTC'
p212
I92101
sS'TGCAGG'
p213
I63708
sS'ACGCCT'
p214
I17341
sS'GTATCT'
p215
I27527
sS'TTTCTT'
p216
I132318
sS'TGCCTT'
p217
I61712
sS'TGCAGT'
p218
I65129
sS'ACAATT'
p219
I38819
sS'GTGAGC'
p220
I51124
sS'AAGGAA'
p221
I94903
sS'AAGGAC'
p222
I39622
sS'AAGGAG'
p223
I73566
sS'ATATGC'
p224
I24702
sS'GTTCCA'
p225
I35757
sS'ATATGA'
p226
I33986
sS'TACGAA'
p227
I5490
sS'ATATGG'
p228
I27416
sS'AAGGAT'
p229
I40435
sS'CTATCA'
p230
I25129
sS'ATATGT'
p231
I39124
sS'GGTCCC'
p232
I40454
sS'GCCCAG'
p233
I96390
sS'ATGCAG'
p234
I45911
sS'GCCCAA'
p235
I35378
sS'GGTCCG'
p236
I10107
sS'AGGTCT'
p237
I40097
sS'ATGGCG'
p238
I12400
sS'AGACCC'
p239
I41353
sS'ATTGTT'
p240
I42673
sS'TCTTGT'
p241
I46646
sS'CTTCGC'
p242
I10392
sS'CCACTA'
p243
I27426
sS'AGGTCC'
p244
I32507
sS'AGGTCA'
p245
I52509
sS'AAAGTT'
p246
I57574
sS'TCCGGC'
p247
I15520
sS'GGTCCT'
p248
I34807
sS'TCCGGA'
p249
I11932
sS'CTTAGC'
p250
I27820
sS'TCTTGA'
p251
I46839
sS'CTTAGA'
p252
I34094
sS'TCTTGC'
p253
I44006
sS'CTTAGG'
p254
I30600
sS'TCAGAT'
p255
I44213
sS'TCTTGG'
p256
I54555
sS'GCCTTT'
p257
I52395
sS'ATTTTG'
p258
I69642
sS'GAGGTG'
p259
I61616
sS'ATTTTA'
p260
I93669
sS'TAAATT'
p261
I61161
sS'ATTTTC'
p262
I75273
sS'GAGGTC'
p263
I41284
sS'TAGCAG'
p264
I34422
sS'GATACT'
p265
I20722
sS'TAGCAC'
p266
I23810
sS'TAGCAA'
p267
I32453
sS'GAGGTT'
p268
I43204
sS'ATTTTT'
p269
I137373
sS'GCCTTG'
p270
I47173
sS'GTGGGG'
p271
I76984
sS'GCCTTA'
p272
I26017
sS'TTGACA'
p273
I34208
sS'GCCTTC'
p274
I49517
sS'GATACG'
p275
I4437
sS'TAGCAT'
p276
I27301
sS'GATACC'
p277
I14596
sS'GATTTC'
p278
I38491
sS'TGAGCT'
p279
I55441
sS'GATCAT'
p280
I25560
sS'TGGCAC'
p281
I37812
sS'AAGACA'
p282
I61980
sS'AAGACC'
p283
I37523
sS'GATTTA'
p284
I33367
sS'AAGACG'
p285
I11207
sS'GATCAG'
p286
I28363
sS'TGAGCG'
p287
I12476
sS'ACGCTG'
p288
I14869
sS'TGAGCA'
p289
I50864
sS'TGAGCC'
p290
I66527
sS'AAGACT'
p291
I45068
sS'GCGGTC'
p292
I10023
sS'GCGGTA'
p293
I5274
sS'CGTGCA'
p294
I11968
sS'GCGGTG'
p295
I22083
sS'CGGTGT'
p296
I9850
sS'TCGTTA'
p297
I5244
sS'TCGTTC'
p298
I7285
sS'CTTCCC'
p299
I87932
sS'ACTTGT'
p300
I34248
sS'TGTGTG'
p301
I118368
sS'GCGGTT'
p302
I8670
sS'ACTTGC'
p303
I31771
sS'ACCACC'
p304
I42134
sS'ACTTGA'
p305
I41379
sS'CGGTGG'
p306
I22705
sS'TCGTTT'
p307
I11559
sS'CGGTGA'
p308
I12752
sS'CGGTGC'
p309
I13639
sS'TTCCTA'
p310
I46745
sS'TAGACT'
p311
I24221
sS'TTCCTC'
p312
I82421
sS'ACTGAC'
p313
I32936
sS'CTTCCG'
p314
I16876
sS'TTCCTG'
p315
I88650
sS'TCCTTT'
p316
I81118
sS'GACCCA'
p317
I36605
sS'ACGCTA'
p318
I4974
sS'TAGACG'
p319
I5015
sS'TTCCTT'
p320
I95788
sS'TAGACC'
p321
I16458
sS'TAGACA'
p322
I29927
sS'AAGNTG'
p323
I1
sS'TCCTTG'
p324
I53488
sS'TCCTTA'
p325
I40917
sS'TCCTTC'
p326
I72830
sS'ATCTCT'
p327
I57137
sS'TCCGCA'
p328
I11073
sS'ACCGTT'
p329
I6467
sS'TGGCGC'
p330
I18520
sS'TGGCGA'
p331
I10451
sS'GGCCAT'
p332
I33759
sS'ATCTCG'
p333
I10788
sS'ATCTCA'
p334
I52637
sS'ATCTCC'
p335
I43502
sS'GGCCAA'
p336
I45626
sS'GGCCAC'
p337
I49886
sS'ACCGTG'
p338
I12776
sS'ACCGTA'
p339
I4960
sS'GGCCAG'
p340
I77569
sS'ACCGTC'
p341
I7469
sS'ACCGAC'
p342
I5727
sS'AGAATT'
p343
I58166
sS'GGCAGT'
p344
I43894
sS'NGTTGA'
p345
I1
sS'CCATAA'
p346
I28666
sS'CAAAGG'
p347
I56136
sS'CCATAC'
p348
I17830
sS'CAAAGA'
p349
I64379
sS'AGATTC'
p350
I35320
sS'CAAAGC'
p351
I50463
sS'CCATAG'
p352
I22443
sS'GGCAGA'
p353
I70233
sS'GGCAGC'
p354
I65341
sS'AACGTA'
p355
I6807
sS'GGCAGG'
p356
I93467
sS'CAACGC'
p357
I7583
sS'CAAAGT'
p358
I58614
sS'CAACGA'
p359
I6365
sS'GCACTC'
p360
I36847
sS'CCATAT'
p361
I27302
sS'GCACTG'
p362
I45561
sS'GGGGGT'
p363
I42493
sS'TACGCT'
p364
I4444
sS'GAAACC'
p365
I45762
sS'CGATCT'
p366
I9402
sS'NNNNNC'
p367
I1
sS'CTCTAG'
p368
I35871
sS'CTCTAA'
p369
I38119
sS'CTCTAC'
p370
I34433
sS'GGGGGG'
p371
I40851
sS'CGATCC'
p372
I7113
sS'TACGCC'
p373
I4603
sS'GGGGGC'
p374
I62324
sS'CGATCG'
p375
I1905
sS'GGGGGA'
p376
I58449
sS'TACGCG'
p377
I2031
sS'CTCTAT'
p378
I30394
sS'CAGACC'
p379
I40899
sS'CAGACA'
p380
I60710
sS'CAGACG'
p381
I13665
sS'CGCTAA'
p382
I5459
sS'TAGTTG'
p383
I22179
sS'GCTAAT'
p384
I28645
sS'TAGTTC'
p385
I24492
sS'TAGTTA'
p386
I24609
sS'CAGACT'
p387
I45996
sS'GCTAAG'
p388
I27762
sS'TAGTTT'
p389
I43544
sS'GCTAAC'
p390
I17350
sS'GCTAAA'
p391
I31158
sS'TGCATT'
p392
I48502
sS'GCGAAA'
p393
I7934
sS'AACCCT'
p394
I39997
sS'GTCCAC'
p395
I26210
sS'AACCCC'
p396
I39035
sS'TGCATG'
p397
I40356
sS'TGCATA'
p398
I29773
sS'ATGCAC'
p399
I27628
sS'TGCATC'
p400
I28806
sS'AGAATA'
p401
I47209
sS'CTACAA'
p402
I32929
sS'ACGTAC'
p403
I4717
sS'AGTTTC'
p404
I54216
sS'CTACAG'
p405
I39079
sS'CCCAGA'
p406
I76489
sS'CCCAGC'
p407
I113562
sS'AGAATC'
p408
I41351
sS'CCCAGG'
p409
I118271
sS'AACTGT'
p410
I45320
sS'AGTTTT'
p411
I69660
sS'CTACAT'
p412
I27057
sS'CGAGTC'
p413
I9353
sS'CCCAGT'
p414
I54387
sS'TTGACG'
p415
I5377
sS'CGCATA'
p416
I3779
sS'ATACTG'
p417
I30156
sS'GTGTAT'
p418
I28739
sS'ATACTA'
p419
I22207
sS'ATACTC'
p420
I20200
sS'CGCATG'
p421
I9113
sS'GCGCAA'
p422
I6794
sS'GCGAAT'
p423
I4866
sS'ATACTT'
p424
I35378
sS'CGCATT'
p425
I6794
sS'AGGCCC'
p426
I58031
sS'GCTCCG'
p427
I23489
sS'TATTGT'
p428
I34080
sS'GCTCCC'
p429
I59738
sS'GCTCCA'
p430
I50802
sS'CCTACT'
p431
I30374
sS'TGTACT'
p432
I29580
sS'TTTAGT'
p433
I43743
sS'TATTGG'
p434
I23489
sS'GCTCCT'
p435
I58732
sS'TATTGC'
p436
I23337
sS'TATTGA'
p437
I30247
sS'TTTAGG'
p438
I39293
sS'TGTACG'
p439
I4988
sS'CCTACG'
p440
I6343
sS'TGTACA'
p441
I33942
sS'CCTACA'
p442
I28691
sS'TGTACC'
p443
I20553
sS'CCTACC'
p444
I29169
sS'TTCGCG'
p445
I3785
sS'TTCGCA'
p446
I6275
sS'TTCGCC'
p447
I9031
sS'CGTACA'
p448
I4970
sS'GACTAA'
p449
I22624
sS'AGTATA'
p450
I25480
sS'TTTGGG'
p451
I68622
sS'AGTATG'
p452
I24684
sS'TTTGGA'
p453
I58034
sS'TTTGGC'
p454
I41409
sS'TTCGCT'
p455
I9068
sS'GATCNN'
p456
I1
sS'TTTGGT'
p457
I47356
sS'GACTAT'
p458
I17983
sS'AGTATT'
p459
I36927
sS'TTACTC'
p460
I29846
sS'TTACTA'
p461
I29120
sS'TTACTG'
p462
I40582
sS'ACCTTG'
p463
I40015
sS'ACCTTC'
p464
I39397
sS'ACCTTA'
p465
I25777
sS'CTAATA'
p466
I25499
sS'GTAAAC'
p467
I26020
sS'ACCTTT'
p468
I44167
sS'GAGANA'
p469
I1
sS'ACAGGG'
p470
I57603
sS'CTGGGA'
p471
I101659
sS'CTGGGC'
p472
I95598
sS'ACAGGC'
p473
I60848
sS'TTATAT'
p474
I44993
sS'CTGGGG'
p475
I94611
sS'AGGACG'
p476
I14159
sS'GCAGCT'
p477
I61782
sS'CAGGAA'
p478
I89823
sS'TCGCTT'
p479
I12258
sS'CAGGAG'
p480
I102791
sS'AGGACA'
p481
I56397
sS'GCGCAT'
p482
I7368
sS'TTATAC'
p483
I22901
sS'ACAGGT'
p484
I39591
sS'CTGGGT'
p485
I68334
sS'TTATAG'
p486
I30116
sS'TCGCTG'
p487
I14534
sS'GAGTTG'
p488
I33294
sS'GCAGCG'
p489
I25191
sS'AGGACT'
p490
I44244
sS'TCGCTC'
p491
I14171
sS'GCAGCC'
p492
I71829
sS'CAGGAT'
p493
I45684
sS'CCTCAG'
p494
I86621
sS'CCTCAA'
p495
I47647
sS'CCTCAC'
p496
I54524
sS'TATGTT'
p497
I40900
sS'ATGGGC'
p498
I29653
sS'TCTTTG'
p499
I63451
sS'ATGGGA'
p500
I45495
sS'TCTTTA'
p501
I56020
sS'ATGGGG'
p502
I48673
sS'TCTTTC'
p503
I80530
sS'CCTCAT'
p504
I48149
sS'NNNAGC'
p505
I1
sS'TCTTTT'
p506
I107196
sS'TATGTG'
p507
I38645
sS'TATGTA'
p508
I36227
sS'ATGGGT'
p509
I28503
sS'TATGTC'
p510
I23643
sS'ACCTGG'
p511
I55625
sS'GAAAGA'
p512
I80884
sS'ATCAAG'
p513
I31654
sS'CATGAT'
p514
I33612
sS'ATCAAC'
p515
I22582
sS'GAAAGG'
p516
I67938
sS'ATCAAA'
p517
I43181
sS'GTCAGG'
p518
I48742
sS'ACGTGG'
p519
I17852
sS'CATGAG'
p520
I45130
sS'ATCAAT'
p521
I26452
sS'GTCCAA'
p522
I25613
sS'CATGAC'
p523
I31104
sS'CATGAA'
p524
I45235
sS'GTAGCG'
p525
I5280
sS'CAAGTT'
p526
I40159
sS'GCGGCT'
p527
I21974
sS'GTAGCC'
p528
I20099
sS'GCTTTC'
p529
I48115
sS'ACGTGT'
p530
I12542
sS'AAAGTA'
p531
I52094
sS'CAATCT'
p532
I31687
sS'GCGGCG'
p533
I35816
sS'CAAGTG'
p534
I45020
sS'GTAGCT'
p535
I32461
sS'GCGGCC'
p536
I34132
sS'CAAGTC'
p537
I34667
sS'GCGGCA'
p538
I16238
sS'TTACAT'
p539
I43296
sS'AACGGT'
p540
I6481
sS'TAATCG'
p541
I4040
sS'ATGAAA'
p542
I70195
sS'TAATCA'
p543
I32893
sS'TAATCC'
p544
I38900
sS'TGCGAA'
p545
I6242
sS'CGGCCC'
p546
I34171
sS'CGACTA'
p547
I3355
sS'CGGCCA'
p548
I19933
sS'CGCTAT'
p549
I4706
sS'CGGCCG'
p550
I24294
sS'TCGTGA'
p551
I8894
sS'CTTGTA'
p552
I29102
sS'GGTCTG'
p553
I40747
sS'GAGTTC'
p554
I38174
sS'AGTTTA'
p555
I42832
sS'TGCGAC'
p556
I5731
sS'GGTCTC'
p557
I45653
sS'CTGAAT'
p558
I48217
sS'GGTCTA'
p559
I16700
sS'AAAATG'
p560
I99854
sS'AAAATC'
p561
I58288
sS'CGGCCT'
p562
I27136
sS'TTCAGC'
p563
I48471
sS'CTAACC'
p564
I20806
sS'TTCAGA'
p565
I62936
sS'TTCAGG'
p566
I54576
sS'GAACAT'
p567
I34309
sS'TCGTCG'
p568
I2661
sS'GAACAA'
p569
I41478
sS'ATCCCG'
p570
I9891
sS'GAACAC'
p571
I31906
sS'ATCCCC'
p572
I34369
sS'GAACAG'
p573
I47136
sS'TTCAGT'
p574
I55261
sS'ATTGCA'
p575
I35252
sS'CACCAC'
p576
I57187
sS'NNNCTG'
p577
I1
sS'CACCAA'
p578
I40715
sS'CACCAG'
p579
I55601
sS'TCCGTG'
p580
I13153
sS'ATTGCG'
p581
I5059
sS'TCCGTC'
p582
I12062
sS'GAGTTA'
p583
I26935
sS'TCCGTA'
p584
I5342
sS'ACCAGA'
p585
I43994
sS'CGGCGT'
p586
I7451
sS'ACGCGA'
p587
I3278
sS'CACCAT'
p588
I45147
sS'TCCGTT'
p589
I9051
sS'AACATA'
p590
I40757
sS'AACATC'
p591
I33545
sS'TCAGCA'
p592
I58886
sS'GCACGG'
p593
I14241
sS'GTCAGA'
p594
I40301
sS'GCACGA'
p595
I8039
sS'CAGTCC'
p596
I41948
sS'GCACGC'
p597
I13051
sS'GCAAGT'
p598
I31635
sS'GCAAGC'
p599
I29604
sS'GCACGT'
p600
I11965
sS'CAGTCT'
p601
I49944
sS'TCAGCT'
p602
I59123
sS'GTCAGT'
p603
I31925
sS'TATCTA'
p604
I29412
sS'GTATAC'
p605
I14007
sS'TTCCGT'
p606
I10341
sS'GTATAA'
p607
I23364
sS'GTATAG'
p608
I14899
sS'CCGGAA'
p609
I14087
sS'CCGGAC'
p610
I11516
sS'CCGGAG'
p611
I23470
sS'TATCAT'
p612
I30587
sS'CTCGTA'
p613
I4566
sS'TTCCGG'
p614
I14333
sS'TTCCGA'
p615
I8123
sS'TTCCGC'
p616
I11703
sS'GTATAT'
p617
I27284
sS'CGTCTC'
p618
I18728
sS'CGTCTA'
p619
I5093
sS'CGTCTG'
p620
I13579
sS'CCGGAT'
p621
I7700
sS'CTCTTC'
p622
I69604
sS'TGTTAT'
p623
I39562
sS'CTCTTA'
p624
I38812
sS'CTCTTG'
p625
I52189
sS'CCCGAT'
p626
I6493
sS'TACGTA'
p627
I5798
sS'TACGTC'
p628
I4346
sS'TCTGGT'
p629
I43566
sS'CGCGAT'
p630
I4505
sS'TACGTG'
p631
I8320
sS'TGTTAG'
p632
I30737
sS'GGTTTC'
p633
I45293
sS'CTCGTG'
p634
I12939
sS'CTCTTT'
p635
I77939
sS'TGTTAA'
p636
I43351
sS'TCTGGG'
p637
I75988
sS'CGCGAC'
p638
I5391
sS'GATATT'
p639
I31202
sS'TCTGGC'
p640
I52796
sS'TACGTT'
p641
I6860
sS'TCTGGA'
p642
I60763
sS'AGTCGT'
p643
I6058
sS'TTACCT'
p644
I34382
sS'CTCCAT'
p645
I50973
sS'TATGCC'
p646
I20169
sS'TTACCG'
p647
I5656
sS'CTCCAC'
p648
I59245
sS'CTCCAA'
p649
I53073
sS'TTACCC'
p650
I24594
sS'CTCCAG'
p651
I94192
sS'TTACCA'
p652
I32714
sS'AGTCGC'
p653
I7529
sS'AATGCC'
p654
I34647
sS'GTACCG'
p655
I3873
sS'CCGACT'
p656
I9185
sS'GCCTAC'
p657
I18628
sS'GCCTAA'
p658
I23273
sS'CCGAGG'
p659
I28598
sS'GCCTAG'
p660
I28590
sS'CCGACA'
p661
I8035
sS'CCCTGT'
p662
I57241
sS'CCGACC'
p663
I12025
sS'CCGACG'
p664
I5379
sS'CGTCGT'
p665
I2973
sS'TGACGG'
p666
I9024
sS'CCCGAG'
p667
I24829
sS'AAGCTG'
p668
I59800
sS'TCAGCG'
p669
I13877
sS'GCTGTC'
p670
I42126
sS'CGCACA'
p671
I12953
sS'ATACAC'
p672
I28639
sS'CGCACC'
p673
I14782
sS'GGGTCG'
p674
I11752
sS'ACTGCT'
p675
I48707
sS'GGGTCA'
p676
I35701
sS'CGCACG'
p677
I7902
sS'GGGTCC'
p678
I36824
sS'GAGCGT'
p679
I9262
sS'CTCACT'
p680
I68860
sS'GGCATA'
p681
I20130
sS'GGGTCT'
p682
I41573
sS'ACTGCA'
p683
I66189
sS'TTTGTC'
p684
I46310
sS'ACTGCC'
p685
I43731
sS'CGCACT'
p686
I9452
sS'TTTGTG'
p687
I61092
sS'ACTGCG'
p688
I12618
sS'CTTGAC'
p689
I28752
sS'CTCACA'
p690
I57557
sS'CTCACG'
p691
I18414
sS'GTGGGT'
p692
I41988
sS'GTGAGG'
p693
I54115
sS'GATTTT'
p694
I58047
sS'TAGTGC'
p695
I18155
sS'CTTGAA'
p696
I54302
sS'TAGTGA'
p697
I30022
sS'GTGAGA'
p698
I50738
sS'TCGACG'
p699
I2000
sS'TCGACA'
p700
I4557
sS'TCGACC'
p701
I5329
sS'ACAATA'
p702
I34439
sS'GTGAGT'
p703
I39983
sS'TAGTGT'
p704
I24876
sS'GTGGGA'
p705
I59274
sS'GTGGGC'
p706
I44319
sS'TCGACT'
p707
I5171
sS'GTGGGN'
p708
I1
sS'ACGTAA'
p709
I7251
sS'CTGGTT'
p710
I45219
sS'TGCAAA'
p711
I58295
sS'CGAACG'
p712
I2756
sS'TAAGNT'
p713
I1
sS'CGAACC'
p714
I6152
sS'CGAACA'
p715
I6175
sS'TTGGNT'
p716
I1
sS'CTGGTG'
p717
I55528
sS'CTGGTA'
p718
I27632
sS'CTGGTC'
p719
I44748
sS'CTGCAA'
p720
I54513
sS'CGAACT'
p721
I8722
sS'TTGCAT'
p722
I38617
sS'GACGAG'
p723
I9726
sS'NNGAAT'
p724
I2
sS'CGTCTT'
p725
I11111
sS'TTGCAG'
p726
I54588
sS'TCCATA'
p727
I27639
sS'TTGCAC'
p728
I29170
sS'TTGCAA'
p729
I40575
sS'TCCATC'
p730
I40966
sS'TCGCAT'
p731
I5011
sS'GAGCGG'
p732
I20915
sS'GTCGTG'
p733
I7109
sS'TGACNN'
p734
I1
sS'GTCGTA'
p735
I3115
sS'GTCGTC'
p736
I5843
sS'GGNAGA'
p737
I1
sS'CCGTTT'
p738
I12091
sS'ACTGAT'
p739
I33562
sS'GTCGTT'
p740
I5710
sS'TCGCAG'
p741
I11456
sS'TCCATG'
p742
I40892
sS'CCAAGC'
p743
I42116
sS'TCGCAC'
p744
I6722
sS'CCGTTG'
p745
I7179
sS'CCGTTA'
p746
I5115
sS'CCGTTC'
p747
I9065
sS'GATCGG'
p748
I5105
sS'AATGCT'
p749
I45445
sS'GGTACG'
p750
I4006
sS'GGTACA'
p751
I20545
sS'GGTACC'
p752
I14213
sS'TATTTG'
p753
I53644
sS'CCAGTT'
p754
I43422
sS'TATTTC'
p755
I58877
sS'TATTTA'
p756
I70061
sS'CCCCCT'
p757
I54731
sS'GGTACT'
p758
I18134
sS'AATGCG'
p759
I6700
sS'AATCTT'
p760
I45209
sS'TGCAAT'
p761
I35572
sS'AATGCA'
p762
I48978
sS'CCCCCC'
p763
I40613
sS'CCCCCA'
p764
I75050
sS'TATTTT'
p765
I121871
sS'CCCCCG'
p766
I33649
sS'CTTGAG'
p767
I51965
sS'ATGATG'
p768
I36224
sS'ATGATA'
p769
I30672
sS'GCGTTA'
p770
I4531
sS'AGACGC'
p771
I11877
sS'CGGACT'
p772
I8325
sS'TGCAAC'
p773
I30570
sS'TTGAGT'
p774
I37830
sS'TGCAAG'
p775
I39091
sS'GCCGTC'
p776
I11429
sS'ATGATT'
p777
I39749
sS'CTTGAT'
p778
I31656
sS'ACGGGA'
p779
I11921
sS'CGAATC'
p780
I5297
sS'TTGAGG'
p781
I47407
sS'AATCTC'
p782
I39720
sS'TTGAGC'
p783
I36793
sS'TTGAGA'
p784
I60650
sS'GAGAAT'
p785
I49816
sS'TGTCTT'
p786
I61885
sS'CGAATA'
p787
I4585
sS'AGTAGC'
p788
I31499
sS'AAGGCC'
p789
I46591
sS'TATCGA'
p790
I3284
sS'AAGGCA'
p791
I62095
sS'ATAACA'
p792
I39739
sS'AAGGCG'
p793
I15319
sS'ATAACG'
p794
I5773
sS'TGTGGT'
p795
I52850
sS'TGTCTG'
p796
I59908
sS'GAGAAG'
p797
I75181
sS'GAGAAA'
p798
I92714
sS'TGTCTC'
p799
I62717
sS'GAGAAC'
p800
I40216
sS'TGTCTA'
p801
I29859
sS'TGTGGC'
p802
I52869
sS'TGTGGA'
p803
I50255
sS'TGTGGG'
p804
I61133
sS'ATAACT'
p805
I32585
sS'AAGGCT'
p806
I51482
sS'CTGTAA'
p807
I59430
sS'AACGGC'
p808
I7997
sS'GCCCCG'
p809
I44610
sS'ACCAAG'
p810
I40069
sS'GGTCAG'
p811
I48835
sS'GCCCCC'
p812
I62485
sS'GGTCAA'
p813
I24929
sS'CGTGCT'
p814
I12503
sS'GGTCAC'
p815
I33953
sS'TAACGA'
p816
I5336
sS'GATCGC'
p817
I8513
sS'GGTCAT'
p818
I27201
sS'ACCAAT'
p819
I25803
sS'AGGTAG'
p820
I31832
sS'AGGTAA'
p821
I34932
sS'CAAACT'
p822
I49285
sS'TTTTGC'
p823
I54314
sS'TCTTAC'
p824
I30270
sS'TTTTGA'
p825
I74175
sS'TCTTAA'
p826
I47566
sS'AATTGA'
p827
I34092
sS'TCTTAG'
p828
I35345
sS'AATTGC'
p829
I29382
sS'TAGCCA'
p830
I33840
sS'TGGGGT'
p831
I55539
sS'TAGCCC'
p832
I22417
sS'GATAAT'
p833
I31458
sS'CGCTCA'
p834
I12690
sS'TAGCCG'
p835
I7579
sS'AATTGT'
p836
I38612
sS'GCCATC'
p837
I32638
sS'TCTTAT'
p838
I41066
sS'TTTTGT'
p839
I98065
sS'CGCTCT'
p840
I17288
sS'GATAAA'
p841
I46347
sS'GATAAC'
p842
I21840
sS'TAGCCT'
p843
I29905
sS'TGGGGC'
p844
I64795
sS'GATAAG'
p845
I35188
sS'GATCCT'
p846
I32296
sS'AAGAAT'
p847
I59967
sS'CGAAGT'
p848
I8108
sS'GTTATC'
p849
I21823
sS'AAGAAC'
p850
I45724
sS'GATCCA'
p851
I27210
sS'AAGAAA'
p852
I133390
sS'ATGCCA'
p853
I38472
sS'AAGAAG'
p854
I73049
sS'GATCCG'
p855
I8796
sS'GCCCCA'
p856
I65254
sS'ATGCCG'
p857
I7319
sS'GCAACG'
p858
I7765
sS'CAAGGG'
p859
I44843
sS'CAAGGC'
p860
I47218
sS'GGTTCT'
p861
I37591
sS'CAAGGA'
p862
I53516
sS'GGTTCA'
p863
I33400
sS'GGTTCC'
p864
I32734
sS'CAAGGT'
p865
I40610
sS'GGTTCG'
p866
I6193
sS'CTGTAT'
p867
I36601
sS'ATTATA'
p868
I41033
sS'ATTATC'
p869
I31718
sS'TAGAAT'
p870
I39180
sS'CAAACG'
p871
I10420
sS'ATTATG'
p872
I32533
sS'AGTCTT'
p873
I44454
sS'TAGAAA'
p874
I65416
sS'TAGAAC'
p875
I26292
sS'ATTATT'
p876
I61748
sS'TAGAAG'
p877
I40227
sS'AGTCTA'
p878
I24326
sS'AGTCTC'
p879
I46084
sS'AGTCTG'
p880
I46078
sS'TAACTC'
p881
I27076
sS'TAACTA'
p882
I24691
sS'TAACTG'
p883
I34950
sS'ATCTAT'
p884
I28063
sS'ACGCGT'
p885
I3265
sS'AGGTAT'
p886
I25682
sS'TAACTT'
p887
I40975
sS'ATCTAG'
p888
I25113
sS'ATCTAC'
p889
I22064
sS'ATCTAA'
p890
I30545
sS'CCATGT'
p891
I44986
sS'ACCAAA'
p892
I47319
sS'TGGAGG'
p893
I76916
sS'TGGAGA'
p894
I72351
sS'TGGAGC'
p895
I50115
sS'CCATGC'
p896
I35919
sS'TCCAGA'
p897
I61257
sS'CCATGA'
p898
I39374
sS'CCATGG'
p899
I42977
sS'TGGAGT'
p900
I56607
sS'ATTACG'
p901
I4947
sS'TCAGTA'
p902
I34363
sS'TCAGTC'
p903
I37662
sS'CTCTCT'
p904
I98643
sS'GGGGAT'
p905
I34491
sS'TCAGTG'
p906
I52774
sS'CGATAT'
p907
I3520
sS'GGGGAA'
p908
I67963
sS'GGGGAC'
p909
I45077
sS'CTCTCC'
p910
I83336
sS'TCAGTT'
p911
I51710
sS'GGGGAG'
p912
I92659
sS'CGATAG'
p913
I3362
sS'CGATAA'
p914
I4841
sS'TATCAA'
p915
I28924
sS'CTAAGG'
p916
I30416
sS'GTGTTT'
p917
I55906
sS'ATAACC'
p918
I22200
sS'GCTACT'
p919
I31652
sS'GTGGTT'
p920
I39769
sS'TGGNAG'
p921
I1
sS'GTGTTC'
p922
I32363
sS'GTGTTA'
p923
I27278
sS'GTGTTG'
p924
I34482
sS'CGTGCC'
p925
I15212
sS'GTGGTA'
p926
I24699
sS'GCTACA'
p927
I25719
sS'GTGGTC'
p928
I29063
sS'CTAAGC'
p929
I25378
sS'GTGGTG'
p930
I57370
sS'GCTACG'
p931
I5648
sS'GCCCCT'
p932
I60014
sS'TTTCGT'
p933
I9477
sS'TGCCCT'
p934
I59199
sS'CCACTC'
p935
I47218
sS'AGCGTT'
p936
I8996
sS'CGTGCG'
p937
I7550
sS'CACGGA'
p938
I13174
sS'TGCCCA'
p939
I62652
sS'TGCCCG'
p940
I19123
sS'ACAGTG'
p941
I57008
sS'AGCGTA'
p942
I4885
sS'AGCGTC'
p943
I10330
sS'AGCGTG'
p944
I13693
sS'GGCCCC'
p945
I65156
sS'TAGGNG'
p946
I1
sS'GGCCCA'
p947
I53119
sS'CACGTG'
p948
I22876
sS'GGCCCG'
p949
I29713
sS'CACGTA'
p950
I8340
sS'CACGTC'
p951
I11386
sS'ACGTGC'
p952
I11884
sS'ACGTGA'
p953
I12733
sS'CTACGG'
p954
I5980
sS'ACAGTC'
p955
I34066
sS'CACGTT'
p956
I12586
sS'CTAAGT'
p957
I29200
sS'GGCCCT'
p958
I54785
sS'GGGACA'
p959
I49024
sS'TTTTGG'
p960
I61691
sS'GGGACC'
p961
I39890
sS'AGGGAC'
p962
I45515
sS'GTCTCA'
p963
I52635
sS'CTACGT'
p964
I6593
sS'AGAGAG'
p965
I98017
sS'AGAGAA'
p966
I96185
sS'AGAGAC'
p967
I56977
sS'TCTATA'
p968
I27194
sS'GTCTTT'
p969
I49785
sS'TCTATC'
p970
I24506
sS'TCTATG'
p971
I27678
sS'AGAGAT'
p972
I56706
sS'GGNTTA'
p973
I1
sS'TTCACA'
p974
I56323
sS'GTCTTG'
p975
I39083
sS'TCTATT'
p976
I40079
sS'GTCTTC'
p977
I39493
sS'GTCTTA'
p978
I26295
sS'GCAGAG'
p979
I81094
sS'TGCCCC'
p980
I53604
sS'GCTCAC'
p981
I51268
sS'GCAGAC'
p982
I34919
sS'GCAGAA'
p983
I60604
sS'GCTCAG'
p984
I63252
sS'AGACGT'
p985
I9913
sS'ATGCGT'
p986
I6515
sS'TTGCTG'
p987
I58698
sS'TTGCTA'
p988
I32161
sS'TTGCTC'
p989
I43632
sS'GCAGAT'
p990
I40610
sS'GCTCAT'
p991
I34057
sS'GTTTGC'
p992
I32451
sS'TTGCTT'
p993
I62197
sS'ATGCGG'
p994
I7935
sS'CGCTCC'
p995
I23308
sS'ATGCGC'
p996
I7185
sS'ATGCGA'
p997
I4793
sS'TGTAAG'
p998
I34146
sS'GGCTAG'
p999
I24659
sS'GTTTGA'
p1000
I38771
sS'TGTAAC'
p1001
I28425
sS'GGCTAC'
p1002
I20497
sS'TGTAAA'
p1003
I57912
sS'CTGAAA'
p1004
I73131
sS'ACTGTA'
p1005
I37225
sS'TTGGTA'
p1006
I26647
sS'ACTGTC'
p1007
I36250
sS'TTGGTC'
p1008
I27953
sS'TTCGAC'
p1009
I4012
sS'ACTGTG'
p1010
I55878
sS'TTGGTG'
p1011
I40284
sS'GACTGC'
p1012
I32465
sS'GGCTAT'
p1013
I19919
sS'TGTAAT'
p1014
I52656
sS'GACTGG'
p1015
I41565
sS'TTCGAT'
p1016
I4887
sS'TTGGTT'
p1017
I44111
sS'ACTGTT'
p1018
I42794
sS'GTTTCT'
p1019
I65986
sS'GAATGA'
p1020
I49933
sS'ATAATT'
p1021
I52999
sS'CCTTTT'
p1022
I74757
sS'GTTTCG'
p1023
I7798
sS'GTTTCC'
p1024
I52366
sS'GTTTCA'
p1025
I49676
sS'ATAATG'
p1026
I37726
sS'CCTTTA'
p1027
I41380
sS'CCTTTC'
p1028
I67511
sS'ATAATC'
p1029
I29121
sS'NNNNGA'
p1030
I2
sS'ATAATA'
p1031
I47665
sS'CCTTTG'
p1032
I55787
sS'ACAGAA'
p1033
I77323
sS'CTCTCG'
p1034
I14502
sS'ACAGAC'
p1035
I44481
sS'ACAGAG'
p1036
I82540
sS'TTATCT'
p1037
I60562
sS'CTGGAC'
p1038
I42629
sS'CTGGAA'
p1039
I74883
sS'CTGGAG'
p1040
I94314
sS'ACAGAT'
p1041
I48983
sS'TTATCG'
p1042
I4863
sS'TTATCA'
p1043
I42595
sS'CTGGAT'
p1044
I41750
sS'TTATCC'
p1045
I27011
sS'CCAATG'
p1046
I27845
sS'AAACCG'
p1047
I10361
sS'AAACCA'
p1048
I61669
sS'CCAATC'
p1049
I26101
sS'AAACCC'
p1050
I47802
sS'CCAATA'
p1051
I24222
sS'TGTCGG'
p1052
I8008
sS'GAGATC'
p1053
I32630
sS'AACGAG'
p1054
I8858
sS'GAGATA'
p1055
I38225
sS'TGTCGC'
p1056
I9871
sS'GAGATG'
p1057
I53921
sS'TGTCGA'
p1058
I4521
sS'ATTTGA'
p1059
I51744
sS'CCAATT'
p1060
I29377
sS'ATTTGC'
p1061
I40717
sS'TTGCCC'
p1062
I42271
sS'ATTTGG'
p1063
I48577
sS'CCCTAG'
p1064
I30980
sS'TGTCGT'
p1065
I6867
sS'CCCTAC'
p1066
I25789
sS'GAGATT'
p1067
I39688
sS'CCCTAA'
p1068
I31184
sS'TACAAC'
p1069
I21883
sS'CATTAT'
p1070
I37669
sS'TGGATT'
p1071
I40406
sS'ATCACA'
p1072
I43944
sS'ATCACC'
p1073
I32623
sS'CATGCT'
p1074
I41153
sS'TGACAC'
p1075
I34961
sS'TGACAA'
p1076
I41197
sS'TGGATA'
p1077
I27702
sS'AGGAAC'
p1078
I46386
sS'CATTAG'
p1079
I26496
sS'CATTAA'
p1080
I38001
sS'TGGATG'
p1081
I39777
sS'CATGCA'
p1082
I40415
sS'TGACAT'
p1083
I41109
sS'CATGCC'
p1084
I41551
sS'ATCACT'
p1085
I41651
sS'AATTAG'
p1086
I40450
sS'GTAGAA'
p1087
I32721
sS'GTAGAC'
p1088
I15859
sS'GTAGAG'
p1089
I34165
sS'GATTGG'
p1090
I25696
sS'ACAACC'
p1091
I26922
sS'GATTGC'
p1092
I21862
sS'GATTGA'
p1093
I21557
sS'ACTAAG'
p1094
I27541
sS'GTAGAT'
p1095
I21784
sS'TGCTAC'
p1096
I23905
sS'GGGTAC'
p1097
I14954
sS'ATGAGT'
p1098
I37167
sS'GATTGT'
p1099
I24872
sS'ACAACT'
p1100
I34622
sS'GCGCGT'
p1101
I8001
sS'TAATAG'
p1102
I26643
sS'GTCCGG'
p1103
I11650
sS'TAATAC'
p1104
I24804
sS'GTCCGA'
p1105
I5707
sS'TAATAA'
p1106
I52387
sS'GTCCGC'
p1107
I10322
sS'TGTTTA'
p1108
I55527
sS'GATCCC'
p1109
I25788
sS'CACATC'
p1110
I37111
sS'GTCCGT'
p1111
I6954
sS'TAATAT'
p1112
I39543
sS'GGGNCC'
p1113
I1
sS'ATTCGC'
p1114
I4755
sS'TTCTCC'
p1115
I77266
sS'TGAACT'
p1116
I45327
sS'TTCTCA'
p1117
I72782
sS'ATTCGG'
p1118
I6300
sS'TTCTCG'
p1119
I11527
sS'TCGTAC'
p1120
I3044
sS'TACCTT'
p1121
I31399
sS'TCGTAA'
p1122
I4965
sS'TCGTAG'
p1123
I4768
sS'TCGTCA'
p1124
I6367
sS'GAACCT'
p1125
I32239
sS'ATCCAA'
p1126
I32811
sS'ATCCAC'
p1127
I30950
sS'TGTTTG'
p1128
I60943
sS'TTCTCT'
p1129
I95234
sS'TGAACA'
p1130
I45382
sS'GAACCC'
p1131
I33554
sS'TACCTG'
p1132
I31675
sS'TACCTA'
p1133
I21875
sS'TACCTC'
p1134
I28110
sS'TCGTAT'
p1135
I4636
sS'ATGTTA'
p1136
I37350
sS'ACCATA'
p1137
I24336
sS'ACCATG'
p1138
I40135
sS'ATGTTG'
p1139
I41739
sS'AGCTCT'
p1140
I57759
sS'TGTCCT'
p1141
I55857
sS'AGTGGT'
p1142
I40296
sS'CGTGGT'
p1143
I15836
sS'ATGAGC'
p1144
I34270
sS'ATGTTT'
p1145
I63219
sS'ACCATT'
p1146
I33580
sS'AGTGGA'
p1147
I45189
sS'AGTGGC'
p1148
I51887
sS'AGCTCC'
p1149
I57525
sS'AGCTCA'
p1150
I55186
sS'CAGTAA'
p1151
I40718
sS'CAGTAC'
p1152
I21853
sS'CAGTAG'
p1153
I33340
sS'CGCGGT'
p1154
I10410
sS'TTTCAC'
p1155
I56371
sS'CAGTAT'
p1156
I30187
sS'ATGGNA'
p1157
I1
sS'GTTCCT'
p1158
I45702
sS'GATGGN'
p1159
I1
sS'AAAGTC'
p1160
I43512
sS'CCGGCT'
p1161
I24240
sS'GATCTA'
p1162
I16742
sS'GATCTC'
p1163
I32406
sS'ATTGAC'
p1164
I19390
sS'GATCTG'
p1165
I35277
sS'TGTTTT'
p1166
I110856
sS'CCGGCC'
p1167
I39304
sS'ATTAGG'
p1168
I26544
sS'AACCTA'
p1169
I25998
sS'ACTCTC'
p1170
I38220
sS'ATTAGC'
p1171
I28453
sS'TCCCTC'
p1172
I78123
sS'TGTCCG'
p1173
I9317
sS'TCCCTA'
p1174
I34869
sS'TGCCAC'
p1175
I47156
sS'TCCCTG'
p1176
I80869
sS'GATCTT'
p1177
I31360
sS'CTAGAC'
p1178
I20398
sS'AAGTGA'
p1179
I61219
sS'AAGTGC'
p1180
I45231
sS'TGTTCT'
p1181
I59316
sS'AAGTGG'
p1182
I49005
sS'TGATTG'
p1183
I32204
sS'TGCGCA'
p1184
I10960
sS'TCTGAT'
p1185
I43564
sS'TGATTA'
p1186
I32633
sS'TGTTCA'
p1187
I45136
sS'CACAAG'
p1188
I43058
sS'TGTTCC'
p1189
I43514
sS'AAGTGT'
p1190
I43690
sS'CACAAC'
p1191
I30872
sS'TGTTCG'
p1192
I6231
sS'TCTGAA'
p1193
I63322
sS'TCTGAC'
p1194
I40582
sS'TCTGAG'
p1195
I67295
sS'CGCGCC'
p1196
I28646
sS'CGCGCA'
p1197
I10801
sS'GGTAAA'
p1198
I32160
sS'CGCGCG'
p1199
I21455
sS'GCNCCA'
p1200
I1
sS'CTCCCT'
p1201
I96641
sS'AGCGGG'
p1202
I21788
sS'AGCGGA'
p1203
I12360
sS'ACCTCT'
p1204
I50723
sS'AGATGA'
p1205
I56141
sS'CGCGCT'
p1206
I12497
sS'GTGCGA'
p1207
I6860
sS'ACCTCA'
p1208
I51776
sS'CTCCCA'
p1209
I98021
sS'GTGCGG'
p1210
I14902
sS'GCCTCT'
p1211
I65445
sS'TAAGCC'
p1212
I27422
sS'TAGCTC'
p1213
I27318
sS'CCCATG'
p1214
I40346
sS'CGGGAA'
p1215
I18477
sS'TAATTT'
p1216
I77340
sS'TAGCTG'
p1217
I42949
sS'CCCATC'
p1218
I45691
sS'CCGAGA'
p1219
I17370
sS'CCTGCT'
p1220
I73744
sS'CCGAAT'
p1221
I6330
sS'CCCATT'
p1222
I42571
sS'CGGGAT'
p1223
I9855
sS'GCCTCG'
p1224
I24153
sS'TAGCTT'
p1225
I30709
sS'TAAGCT'
p1226
I28388
sS'GCCTCC'
p1227
I95182
sS'CCGAAC'
p1228
I6323
sS'CCTGCG'
p1229
I23387
sS'CCGAAA'
p1230
I9171
sS'CCGAAG'
p1231
I12084
sS'CCTGCC'
p1232
I93702
sS'CCTGCA'
p1233
I63375
sS'GTACTG'
p1234
I21753
sS'CCATTC'
p1235
I40351
sS'TATAAG'
p1236
I25626
sS'CCATTG'
p1237
I30898
sS'TATAAC'
p1238
I21393
sS'GATTTG'
p1239
I37535
sS'CATTTC'
p1240
I67309
sS'TATAAT'
p1241
I41303
sS'GTTCTA'
p1242
I26054
sS'TGTGNN'
p1243
I1
sS'CCATTT'
p1244
I63167
sS'TCTACA'
p1245
I34605
sS'TCTACC'
p1246
I27358
sS'CTAACT'
p1247
I27387
sS'TCTACG'
p1248
I5560
sS'CACCGT'
p1249
I13145
sS'CGCAAC'
p1250
I5894
sS'ACTCCA'
p1251
I57167
sS'CGCAAA'
p1252
I8185
sS'ATACCG'
p1253
I3957
sS'GACGCG'
p1254
I8406
sS'ATACCA'
p1255
I27109
sS'ATACCC'
p1256
I17728
sS'TCTACT'
p1257
I37344
sS'CCGAGT'
p1258
I13362
sS'ATACCT'
p1259
I25884
sS'CGCAAT'
p1260
I5053
sS'TAGTAA'
p1261
I28829
sS'TGGGTG'
p1262
I64341
sS'TAGTAC'
p1263
I14059
sS'CTCAAG'
p1264
I52159
sS'CTCAAA'
p1265
I68975
sS'TAGTAG'
p1266
I23846
sS'CTCAAC'
p1267
I31341
sS'GTGTGC'
p1268
I37364
sS'GTGTGA'
p1269
I45315
sS'GTGTGG'
p1270
I53381
sS'TAACGG'
p1271
I5271
sS'CTCAAT'
p1272
I31065
sS'TAGTAT'
p1273
I21907
sS'CTCCCG'
p1274
I35651
sS'GTGTGT'
p1275
I98998
sS'ATCTTT'
p1276
I58208
sS'GTTGGG'
p1277
I38440
sS'GTTGGA'
p1278
I30386
sS'GTTGGC'
p1279
I27192
sS'CCTTGG'
p1280
I57454
sS'CCTTGA'
p1281
I43109
sS'GCGTAT'
p1282
I3887
sS'AGGATT'
p1283
I43669
sS'GGACGT'
p1284
I9326
sS'GTTGGT'
p1285
I26071
sS'ATCTTG'
p1286
I42006
sS'ATCTTA'
p1287
I33550
sS'ATCTTC'
p1288
I41313
sS'CCTTGT'
p1289
I43032
sS'AGGATA'
p1290
I30298
sS'AGGATG'
p1291
I48491
sS'GACATG'
p1292
I32136
sS'TTGCGT'
p1293
I6607
sS'GACATA'
p1294
I23523
sS'TCGGCG'
p1295
I7972
sS'GAATAT'
p1296
I35103
sS'GGTGCA'
p1297
I33639
sS'TCGGCC'
p1298
I19437
sS'ATCAGA'
p1299
I43957
sS'TTGCGA'
p1300
I4792
sS'GACATT'
p1301
I37660
sS'TTGCGG'
p1302
I8730
sS'GAATAG'
p1303
I26108
sS'TCGGCT'
p1304
I14828
sS'ATCAGC'
p1305
I34178
sS'GAATAC'
p1306
I21524
sS'GAATAA'
p1307
I42991
sS'ACTTTT'
p1308
I69723
sS'ATACAA'
p1309
I42199
sS'GGACGA'
p1310
I8647
sS'TGCCTC'
p1311
I68417
sS'ACGTCG'
p1312
I2861
sS'TTATAA'
p1313
I49673
sS'GAAATG'
p1314
I67394
sS'AATGAT'
p1315
I41166
sS'GAAATA'
p1316
I58740
sS'GAAATC'
p1317
I38189
sS'ACCGGT'
p1318
I5136
sS'GAAATT'
p1319
I54052
sS'AATGAA'
p1320
I73674
sS'ATGTCC'
p1321
I30079
sS'AATGAC'
p1322
I38523
sS'AATGAG'
p1323
I55701
sS'AGGAAA'
p1324
I108303
sS'CTTGGA'
p1325
I47872
sS'CTTGGC'
p1326
I51624
sS'GTATTG'
p1327
I19281
sS'GTCCTT'
p1328
I39137
sS'CTTGGG'
p1329
I57553
sS'ATACAG'
p1330
I36462
sS'AGCCCT'
p1331
I60771
sS'GCGTAA'
p1332
I4163
sS'TTGAAT'
p1333
I45702
sS'ACCCCA'
p1334
I55562
sS'GTCCTA'
p1335
I21011
sS'CAAGCT'
p1336
I40063
sS'TGCACG'
p1337
I11950
sS'CTTGGT'
p1338
I39816
sS'GTCCTG'
p1339
I48447
sS'TGCACC'
p1340
I33696
sS'TTGAAA'
p1341
I67553
sS'TTGAAC'
p1342
I36704
sS'AGCCCA'
p1343
I63149
sS'TTGAAG'
p1344
I46109
sS'TTAACT'
p1345
I39952
sS'ATAAAT'
p1346
I73205
sS'TGGTCG'
p1347
I6744
sS'TGGTCA'
p1348
I38467
sS'TGGTCC'
p1349
I30790
sS'ACGATT'
p1350
I6111
sS'GAGACT'
p1351
I46214
sS'ACGGGG'
p1352
I17977
sS'TGGTCT'
p1353
I48897
sS'ATAAAG'
p1354
I52179
sS'ATAAAA'
p1355
I94600
sS'ATAAAC'
p1356
I42069
sS'GAGACG'
p1357
I18799
sS'ACGATG'
p1358
I7482
sS'GAGACC'
p1359
I45571
sS'ACGATC'
p1360
I5343
sS'GAGACA'
p1361
I62574
sS'ACGATA'
p1362
I4215
sS'GGTTAC'
p1363
I17587
sS'ATGTGT'
p1364
I49993
sS'GGTTAA'
p1365
I26348
sS'GACGTC'
p1366
I8254
sS'GGTTAG'
p1367
I21173
sS'CTTCCT'
p1368
I107289
sS'GAATGT'
p1369
I40063
sS'GAGGAC'
p1370
I41050
sS'CTCAGT'
p1371
I55484
sS'TCCGCT'
p1372
I12185
sS'CTTCCA'
p1373
I66762
sS'ATGTGG'
p1374
I45444
sS'ATGTGA'
p1375
I47271
sS'CGTATG'
p1376
I4876
sS'ATGTGC'
p1377
I34331
sS'GGTTAT'
p1378
I22005
sS'TCCGCC'
p1379
I25930
sS'GACGTG'
p1380
I11648
sS'TCCGCG'
p1381
I11080
sS'AACGTC'
p1382
I7623
sS'TAAGTT'
p1383
I33959
sS'CGTGAA'
p1384
I10753
sS'CGTGAC'
p1385
I10473
sS'GGTAGC'
p1386
I18829
sS'AGTGTG'
p1387
I48279
sS'TCTTCG'
p1388
I9430
sS'AGTGTA'
p1389
I27215
sS'TCTTCA'
p1390
I60742
sS'AGTGTC'
p1391
I34618
sS'TCTTCC'
p1392
I76761
sS'TAAGTG'
p1393
I36083
sS'ACTCAA'
p1394
I38173
sS'TAAGTC'
p1395
I23901
sS'AACGTT'
p1396
I10083
sS'CCGTGA'
p1397
I11706
sS'TCTTCT'
p1398
I77619
sS'AGTGTT'
p1399
I44646
sS'AACCGG'
p1400
I8163
sS'GTGCGC'
p1401
I12632
sS'TTGGCA'
p1402
I39524
sS'AAAGGT'
p1403
I43988
sS'TTGGCC'
p1404
I45389
sS'AGTAAC'
p1405
I27405
sS'TTAACG'
p1406
I6116
sS'TTGGCG'
p1407
I9144
sS'GACTTC'
p1408
I36825
sS'TCGAGT'
p1409
I6343
sS'GACTTA'
p1410
I23833
sS'GACTTG'
p1411
I34701
sS'AAAGGG'
p1412
I62416
sS'AAAGGA'
p1413
I81496
sS'TTGGCT'
p1414
I51235
sS'AAAGGC'
p1415
I53064
sS'GAGTAC'
p1416
I15845
sS'GTATGG'
p1417
I17690
sS'GTCGAT'
p1418
I3136
sS'GACTTT'
p1419
I43351
sS'TTCTTT'
p1420
I121306
sS'CAAGAA'
p1421
I59478
sS'AGCGAG'
p1422
I18025
sS'CAAGAC'
p1423
I39210
sS'CAAGAG'
p1424
I52841
sS'CGTATT'
p1425
I6756
sS'TTCTTG'
p1426
I58839
sS'TTCTTC'
p1427
I74187
sS'TTCTTA'
p1428
I55560
sS'CAAGAT'
p1429
I41560
sS'AGGGCT'
p1430
I60569
sS'TACGGG'
p1431
I5614
sS'TACGGA'
p1432
I5498
sS'TACGGC'
p1433
I4643
sS'CCAACT'
p1434
I35770
sS'TAGAGT'
p1435
I27590
sS'TACGGT'
p1436
I5034
sS'AGGGCG'
p1437
I24254
sS'AGGGCA'
p1438
I59639
sS'AGGGCC'
p1439
I54421
sS'TCGAGA'
p1440
I10534
sS'TAGAGC'
p1441
I24940
sS'TAGAGA'
p1442
I50406
sS'TAGAGG'
p1443
I35528
sS'GCATCG'
p1444
I6184
sS'GTGTAA'
p1445
I26679
sS'GTGCTG'
p1446
I62610
sS'GTGCTA'
p1447
I23948
sS'ATCTGT'
p1448
I49240
sS'GTGCTC'
p1449
I33359
sS'GGCGAC'
p1450
I13214
sS'ATCTGA'
p1451
I44661
sS'GTGCTT'
p1452
I39798
sS'ATCTGC'
p1453
I40839
sS'CGCCGT'
p1454
I7361
sS'CGAATG'
p1455
I7107
sS'ATCTGG'
p1456
I42736
sS'ATCATA'
p1457
I28181
sS'GATAGC'
p1458
I15886
sS'AAGCAG'
p1459
I69973
sS'GATAGA'
p1460
I24399
sS'AAGCAA'
p1461
I63227
sS'GATAGG'
p1462
I21356
sS'ATCATG'
p1463
I33350
sS'TTTACC'
p1464
I32026
sS'GTTATG'
p1465
I21292
sS'CTAGGT'
p1466
I25434
sS'CATTTA'
p1467
I58433
sS'ACGCAT'
p1468
I6659
sS'CATTTG'
p1469
I55788
sS'GTTATA'
p1470
I21228
sS'CAAACA'
p1471
I61401
sS'AAGCAT'
p1472
I41452
sS'CAAACC'
p1473
I38587
sS'CTCGGG'
p1474
I24602
sS'ATCATT'
p1475
I41229
sS'GATAGT'
p1476
I18038
sS'ACGCAG'
p1477
I14657
sS'CTAGGG'
p1478
I30885
sS'GTTATT'
p1479
I35557
sS'CTAGGC'
p1480
I28619
sS'CATTTT'
p1481
I100149
sS'CTAGGA'
p1482
I36101
sS'AAGTTT'
p1483
I58499
sS'TACAGT'
p1484
I36723
sS'CTCGAA'
p1485
I10739
sS'CTAACG'
p1486
I5684
sS'GCGCCT'
p1487
I22137
sS'CTAAGA'
p1488
I35878
sS'GGGGCT'
p1489
I64362
sS'TACAGG'
p1490
I47639
sS'AAGTTG'
p1491
I37360
sS'GGATGC'
p1492
I26558
sS'AAGTTA'
p1493
I40788
sS'CAGTTA'
p1494
I34978
sS'AAGTTC'
p1495
I38302
sS'TACAGA'
p1496
I46961
sS'GGGGCC'
p1497
I64689
sS'GTATGA'
p1498
I20750
sS'GGGGCA'
p1499
I53738
sS'GGGGCG'
p1500
I48612
sS'TATATC'
p1501
I21672
sS'TATATA'
p1502
I55041
sS'TGTATA'
p1503
I33841
sS'TATATG'
p1504
I32339
sS'TCCGGT'
p1505
I8187
sS'GGTCCA'
p1506
I26524
sS'TATATT'
p1507
I49786
sS'TGATGG'
p1508
I38538
sS'CTCGGT'
p1509
I11818
sS'TGATGC'
p1510
I26721
sS'GCCCAC'
p1511
I44135
sS'TGATGA'
p1512
I42132
sS'AGCATG'
p1513
I41159
sS'TGCCAT'
p1514
I42452
sS'ACTCTT'
p1515
I44046
sS'TGTTTC'
p1516
I63102
sS'CACATA'
p1517
I39042
sS'TTAATT'
p1518
I59232
sS'CACATG'
p1519
I50493
sS'TTTCAT'
p1520
I69908
sS'ATGAGA'
p1521
I52077
sS'TGATGT'
p1522
I37587
sS'ATGAGG'
p1523
I47961
sS'TTAATA'
p1524
I45053
sS'ACTCTG'
p1525
I57958
sS'TGCCAG'
p1526
I55680
sS'ACTCTA'
p1527
I27556
sS'TGCCAA'
p1528
I39733
sS'CACATT'
p1529
I50708
sS'TTAATG'
p1530
I38034
sS'AAATTC'
p1531
I54415
sS'GACTGA'
p1532
I37926
sS'AAATTA'
p1533
I77589
sS'AAATTG'
p1534
I48233
sS'CCAGTA'
p1535
I28758
sS'TTCAAT'
p1536
I37149
sS'CTTCGA'
p1537
I7178
sS'TTAATC'
p1538
I29854
sS'AAATTT'
p1539
I81546
sS'CTTAGT'
p1540
I27320
sS'CNCCAA'
p1541
I1
sS'GGGAAC'
p1542
I38115
sS'GGTGCG'
p1543
I14442
sS'GGGAAA'
p1544
I76736
sS'GGGAAG'
p1545
I87799
sS'GGTGCC'
p1546
I35265
sS'GCCCAT'
p1547
I29607
sS'AGAGCG'
p1548
I17516
sS'GCGACT'
p1549
I7374
sS'AGAGCC'
p1550
I54754
sS'AGAGCA'
p1551
I61541
sS'GCGTAG'
p1552
I5298
sS'GGTGCT'
p1553
I40051
sS'NTGCNC'
p1554
I1
sS'GCGTAC'
p1555
I3152
sS'GGGAAT'
p1556
I37424
sS'GCGACG'
p1557
I5953
sS'AGAGCT'
p1558
I57717
sS'GCGACA'
p1559
I9970
sS'TATCGG'
p1560
I3471
sS'GCGACC'
p1561
I9492
sS'AGGTCG'
p1562
I9567
sS'GCAGGA'
p1563
I71926
sS'GCAGGC'
p1564
I59118
sS'AGNTGC'
p1565
I1
sS'GCAGGG'
p1566
I79591
sS'GGCGAT'
p1567
I7390
sS'GCACTA'
p1568
I17997
sS'CCGTGC'
p1569
I14219
sS'GCTCGG'
p1570
I18266
sS'TATTCT'
p1571
I47079
sS'CCGTGG'
p1572
I19130
sS'AAATAC'
p1573
I57265
sS'GCAGGT'
p1574
I43645
sS'ATTGTG'
p1575
I35683
sS'TATTCC'
p1576
I31110
sS'CAATTG'
p1577
I20698
sS'TATTCA'
p1578
I42289
sS'CAATTA'
p1579
I30341
sS'TATTCG'
p1580
I4642
sS'GCTCGT'
p1581
I7119
sS'TGTAGA'
p1582
I34301
sS'GGCTCA'
p1583
I66554
sS'AGCATT'
p1584
I45482
sS'GGCTCC'
p1585
I61645
sS'TTTACG'
p1586
I6694
sS'TGTAGG'
p1587
I28737
sS'GGCTCG'
p1588
I15540
sS'TTCGGA'
p1589
I7439
sS'TTCGGC'
p1590
I8178
sS'CTTTAC'
p1591
I32676
sS'TTCAAG'
p1592
I54667
sS'TTCGGG'
p1593
I11121
sS'ATTGTC'
p1594
I25682
sS'CACGAG'
p1595
I12761
sS'GGCTCT'
p1596
I54623
sS'AGCATC'
p1597
I32536
sS'TTTACT'
p1598
I52649
sS'AGCATA'
p1599
I27673
sS'AGACCT'
p1600
I40572
sS'TTCGGT'
p1601
I7176
sS'GAGCAT'
p1602
I29195
sS'GTTTAT'
p1603
I41565
sS'CTCTCA'
p1604
I57854
sS'CTTTAG'
p1605
I35731
sS'CGCTAC'
p1606
I5276
sS'TGCTTG'
p1607
I45676
sS'GTTTAA'
p1608
I40355
sS'TCCAGG'
p1609
I75022
sS'CACGAA'
p1610
I9238
sS'CGAATT'
p1611
I6227
sS'GTTTAG'
p1612
I26875
sS'GAGGTA'
p1613
I27877
sS'CTGGCT'
p1614
I78582
sS'AGGCGG'
p1615
I35662
sS'AGGCGA'
p1616
I13030
sS'AGGCGC'
p1617
I22034
sS'AGGAGT'
p1618
I54730
sS'ACAGCC'
p1619
I54161
sS'ACAGCA'
p1620
I63255
sS'TCCAGC'
p1621
I71554
sS'ACAGCG'
p1622
I15125
sS'AGGAGC'
p1623
I58789
sS'AGGCGT'
p1624
I17460
sS'AGGAGA'
p1625
I85882
sS'CTGGCG'
p1626
I20054
sS'AGGAGG'
p1627
I107083
sS'CTGGCA'
p1628
I55686
sS'CTGGCC'
p1629
I78297
sS'GCGCCC'
p1630
I35109
sS'GTCACC'
p1631
I38543
sS'CGATAC'
p1632
I2798
sS'ACAGCT'
p1633
I55981
sS'GCTCTC'
p1634
I46257
sS'ATTGGT'
p1635
I25794
sS'AATTTT'
p1636
I96065
sS'AAACAG'
p1637
I74499
sS'TGTCAC'
p1638
I45415
sS'CCCTCT'
p1639
I74437
sS'AACCTT'
p1640
I37280
sS'TGTCAG'
p1641
I47159
sS'ATTGGG'
p1642
I26106
sS'AATTTA'
p1643
I61005
sS'AATTTC'
p1644
I53612
sS'ATTGGC'
p1645
I25099
sS'AACGCA'
p1646
I8906
sS'AATTTG'
p1647
I51046
sS'CCCTCA'
p1648
I56854
sS'ATTTAA'
p1649
I70630
sS'TGTCAT'
p1650
I44107
sS'CCCTCG'
p1651
I20501
sS'TAAATA'
p1652
I70208
sS'CAATAT'
p1653
I30918
sS'TGACCA'
p1654
I38489
sS'TGACCC'
p1655
I35847
sS'TAAATC'
p1656
I33025
sS'TGACCG'
p1657
I8330
sS'ACCACG'
p1658
I16218
sS'CATTCG'
p1659
I6968
sS'TGACCT'
p1660
I52435
sS'CATTCA'
p1661
I51159
sS'TAAATG'
p1662
I58505
sS'ACAAAT'
p1663
I57585
sS'GATTAA'
p1664
I29759
sS'GTAGGC'
p1665
I18539
sS'GATTAC'
p1666
I31146
sS'GTAGGA'
p1667
I27507
sS'GTAGGG'
p1668
I26205
sS'GATTAG'
p1669
I22169
sS'GCGGGT'
p1670
I16102
sS'ACAAAC'
p1671
I47372
sS'TTTCAA'
p1672
I67086
sS'ACAAAA'
p1673
I98728
sS'ACAAAG'
p1674
I61705
sS'GCGGGC'
p1675
I33531
sS'GTCGGT'
p1676
I5711
sS'GCGGGA'
p1677
I25566
sS'GCGGGG'
p1678
I53661
sS'GATTAT'
p1679
I28932
sS'GTAGGT'
p1680
I21971
sS'GGCGTC'
p1681
I13070
sS'TAATGA'
p1682
I38647
sS'GATGTT'
p1683
I33242
sS'TAATGC'
p1684
I24022
sS'GGAGAT'
p1685
I44207
sS'TAATGG'
p1686
I27552
sS'CAATAA'
p1687
I39468
sS'GCCCTC'
p1688
I56452
sS'GATGTG'
p1689
I36956
sS'GCCCTA'
p1690
I23465
sS'GATGTA'
p1691
I21119
sS'TAATGT'
p1692
I35473
sS'GATGTC'
p1693
I25292
sS'GGAAAT'
p1694
I60039
sS'TGAAAT'
p1695
I68568
sS'TTCTAG'
p1696
I42494
sS'TTTCAG'
p1697
I72950
sS'ATCCGT'
p1698
I5888
sS'TTCTAC'
p1699
I32558
sS'TGAAAA'
p1700
I87263
sS'TGAAAC'
p1701
I49765
sS'TGAAAG'
p1702
I62027
sS'TTCTAT'
p1703
I42243
sS'ATCCGC'
p1704
I9102
sS'ATCCGA'
p1705
I5438
sS'ATCCGG'
p1706
I7506
sS'TGGCTC'
p1707
I65565
sS'TGGCTA'
p1708
I34044
sS'GCTACC'
p1709
I18928
sS'TGGCTG'
p1710
I76780
sS'GACCGG'
p1711
I10324
sS'GTCGGA'
p1712
I6169
sS'GGAATA'
p1713
I31109
sS'AGTTGT'
p1714
I33885
sS'AGCTAT'
p1715
I29069
sS'CCCGCA'
p1716
I20292
sS'GTCGGC'
p1717
I9168
sS'CGTCGA'
p1718
I1857
sS'TGGCTT'
p1719
I62036
sS'AGTTGG'
p1720
I35084
sS'GGAGAG'
p1721
I82721
sS'ACGCCG'
p1722
I7449
sS'AGCTAC'
p1723
I32273
sS'AGTTGC'
p1724
I27482
sS'AGTTGA'
p1725
I32786
sS'AGCTAG'
p1726
I28677
sS'CGTTGA'
p1727
I5985
sS'TCCAGT'
p1728
I46347
sS'GCACCT'
p1729
I37307
sS'CAGTGT'
p1730
I51842
sS'TAACAA'
p1731
I41279
sS'TCAGGT'
p1732
I40258
sS'TCAAGG'
p1733
I43518
sS'GTCGGG'
p1734
I13467
sS'TCAAGC'
p1735
I35492
sS'TCAAGA'
p1736
I46955
sS'GCACCA'
p1737
I37275
sS'CAGTGC'
p1738
I45648
sS'CTAATC'
p1739
I22595
sS'CAGTGA'
p1740
I67744
sS'CAGTGG'
p1741
I69898
sS'GCACCG'
p1742
I13834
sS'TCAAGT'
p1743
I41312
sS'TCAGGG'
p1744
I57629
sS'GAGCCC'
p1745
I56889
sS'TCAGGC'
p1746
I49778
sS'CGAGCT'
p1747
I11357
sS'CGTTGG'
p1748
I8409
sS'AGTCAA'
p1749
I34958
sS'TTCCCT'
p1750
I79542
sS'ACCACA'
p1751
I53048
sS'CGAGCA'
p1752
I9742
sS'GAGCCG'
p1753
I25227
sS'CGAGCC'
p1754
I15766
sS'TTCCCA'
p1755
I74796
sS'TTCCCC'
p1756
I67888
sS'GTTCAC'
p1757
I27003
sS'TTCCCG'
p1758
I18438
sS'GATCAC'
p1759
I31136
sS'GGACCT'
p1760
I32192
sS'TACATG'
p1761
I31883
sS'AAGTAC'
p1762
I26449
sS'AAGTAA'
p1763
I49052
sS'TACATC'
p1764
I21216
sS'AAGTAG'
p1765
I36690
sS'TACATA'
p1766
I36285
sS'GCACAC'
p1767
I37309
sS'GGACCG'
p1768
I11629
sS'AACGCT'
p1769
I8965
sS'GGACCA'
p1770
I30981
sS'TCATCA'
p1771
I42223
sS'GGACCC'
p1772
I36819
sS'CACACG'
p1773
I17511
sS'TACATT'
p1774
I43427
sS'CACACC'
p1775
I50874
sS'CTGCAT'
p1776
I45876
sS'CACACA'
p1777
I118946
sS'TCTGCC'
p1778
I69904
sS'TCTGCA'
p1779
I62324
sS'TTAAGN'
p1780
I1
sS'TCTGCG'
p1781
I15101
sS'TAGATT'
p1782
I30716
sS'CCCGTC'
p1783
I16796
sS'TTAAGG'
p1784
I34428
sS'CCCGTA'
p1785
I5568
sS'TTAAGA'
p1786
I47829
sS'CCCGTG'
p1787
I16204
sS'TTAAGC'
p1788
I28107
sS'TTACGT'
p1789
I7165
sS'TAGATC'
p1790
I16863
sS'TGTCAA'
p1791
I34487
sS'TAGATA'
p1792
I28774
sS'TTTCGC'
p1793
I7906
sS'TAGATG'
p1794
I28931
sS'TCTGCT'
p1795
I69519
sS'TTACGC'
p1796
I4085
sS'TTAAGT'
p1797
I41016
sS'TTACGA'
p1798
I4794
sS'TTACGG'
p1799
I5860
sS'CCCGTT'
p1800
I10025
sS'AGTGAC'
p1801
I42048
sS'AGTGAA'
p1802
I54499
sS'AGTGAG'
p1803
I68340
sS'ACATTT'
p1804
I78937
sS'CGGGCG'
p1805
I28217
sS'AAACAC'
p1806
I56237
sS'TAAGAG'
p1807
I39348
sS'CCTGAT'
p1808
I35169
sS'TAAGAA'
p1809
I56058
sS'CGGGCA'
p1810
I19324
sS'TAAGAC'
p1811
I26364
sS'ATTTAT'
p1812
I72972
sS'AGTGAT'
p1813
I41258
sS'CTTTCC'
p1814
I76516
sS'TAAGAT'
p1815
I33666
sS'CCTGAA'
p1816
I54945
sS'CGGGCT'
p1817
I22150
sS'CCTGAG'
p1818
I75502
sS'GTTAGG'
p1819
I23772
sS'AACGCG'
p1820
I4281
sS'TCATCT'
p1821
I55911
sS'GTTAGC'
p1822
I17277
sS'GTTAGA'
p1823
I24655
sS'TGTAGC'
p1824
I25411
sS'ACCCCC'
p1825
I42948
sS'GACATC'
p1826
I25442
sS'TATACG'
p1827
I3968
sS'GTTAGT'
p1828
I18856
sS'TATACC'
p1829
I16210
sS'TATACA'
p1830
I33611
sS'AACGCC'
p1831
I9205
sS'CGTATA'
p1832
I3972
sS'TCCACG'
p1833
I14310
sS'ACTAGT'
p1834
I17610
sS'TTTATT'
p1835
I106523
sS'GTAATA'
p1836
I25048
sS'ATTGGA'
p1837
I28876
sS'GTAATC'
p1838
I30971
sS'TCTAAC'
p1839
I24596
sS'CGTTCT'
p1840
I10906
sS'CCACCG'
p1841
I22437
sS'GGTAGG'
p1842
I28725
sS'CCACCA'
p1843
I67871
sS'CCACCC'
p1844
I78738
sS'GTTCGT'
p1845
I5296
sS'TTTATG'
p1846
I48390
sS'GTAATT'
p1847
I33907
sS'GTAACG'
p1848
I4594
sS'CTACTG'
p1849
I33113
sS'ACTAGC'
p1850
I17474
sS'TTTATA'
p1851
I59753
sS'ACTAGA'
p1852
I28494
sS'CCACCT'
p1853
I69460
sS'CGTTCG'
p1854
I2781
sS'TCGTTG'
p1855
I6329
sS'CGTTCA'
p1856
I8231
sS'CGTTCC'
p1857
I11025
sS'TCTAAT'
p1858
I33496
sS'TCGTCT'
p1859
I8853
sS'CTTTGT'
p1860
I60783
sS'ACTGGG'
p1861
I54250
sS'GTGACN'
p1862
I1
sS'ACTGGA'
p1863
I45996
sS'CTCGCA'
p1864
I9907
sS'ACTGGC'
p1865
I37645
sS'TAGTCC'
p1866
I22328
sS'GTGACC'
p1867
I34022
sS'TAGTCA'
p1868
I26291
sS'GTGACA'
p1869
I45261
sS'TAGTCG'
p1870
I3307
sS'GTGACG'
p1871
I9853
sS'ATTTAG'
p1872
I39824
sS'ACTGGT'
p1873
I30730
sS'CTTTGG'
p1874
I63992
sS'CTTTGC'
p1875
I50484
sS'CTTTGA'
p1876
I51611
sS'GTGACT'
p1877
I44447
sS'TAGTCT'
p1878
I25775
sS'GTGCAC'
p1879
I27029
sS'GCGCTT'
p1880
I10970
sS'GTGCAA'
p1881
I29298
sS'CGACGA'
p1882
I2740
sS'ACCTAA'
p1883
I27220
sS'CGACGC'
p1884
I5648
sS'ACCTAC'
p1885
I22038
sS'CCGCAG'
p1886
I26628
sS'CCGCAA'
p1887
I8846
sS'CCGCAC'
p1888
I15445
sS'GGGACT'
p1889
I43576
sS'ACCTAT'
p1890
I20479
sS'GCGCTG'
p1891
I23991
sS'CGAAGA'
p1892
I9350
sS'CACTCA'
p1893
I48402
sS'CGAAGG'
p1894
I11694
sS'GCGCTC'
p1895
I18596
sS'GTGCAT'
p1896
I28083
sS'GCGCTA'
p1897
I5401
sS'NCTGAC'
p1898
I1
sS'CCGCAT'
p1899
I8123
sS'ATTACC'
p1900
I22024
sS'GAAGAT'
p1901
I40773
sS'GGATCT'
p1902
I28780
sS'ACTTGG'
p1903
I43181
sS'TCGGAC'
p1904
I5721
sS'GAATCT'
p1905
I35216
sS'CCTATA'
p1906
I20152
sS'TCGGAG'
p1907
I12396
sS'GGATCG'
p1908
I7052
sS'GAAGAG'
p1909
I69265
sS'GAAGAA'
p1910
I74392
sS'GGATCC'
p1911
I26619
sS'GAAGAC'
p1912
I39771
sS'GGATCA'
p1913
I31274
sS'GGATCN'
p1914
I1
sS'GAATCA'
p1915
I36293
sS'GAATCC'
p1916
I28599
sS'TCGGAT'
p1917
I5225
sS'GAATCG'
p1918
I7904
sS'ATGGTC'
p1919
I23108
sS'CAGATG'
p1920
I56783
sS'CTATCG'
p1921
I3537
sS'CATTCT'
p1922
I58045
sS'ACGCCA'
p1923
I11902
sS'CAGATC'
p1924
I35091
sS'ACGCCC'
p1925
I17954
sS'TGCGTG'
p1926
I14781
sS'NCCAAG'
p1927
I1
sS'CTCGAG'
p1928
I11006
sS'CAGATT'
p1929
I43527
sS'CTCGAC'
p1930
I6689
sS'ATGGTT'
p1931
I33105
sS'TCGCAA'
p1932
I5101
sS'TTGCGC'
p1933
I6966
sS'TGCGTC'
p1934
I9022
sS'GCGTGG'
p1935
I22790
sS'TTGTAG'
p1936
I32574
sS'AATGGT'
p1937
I33105
sS'GGGACG'
p1938
I17616
sS'AATGGC'
p1939
I36793
sS'AATGGA'
p1940
I49109
sS'AATGGG'
p1941
I42537
sS'CAATAC'
p1942
I19337
sS'GATCAA'
p1943
I22315
sS'CCCCGA'
p1944
I18974
sS'AATAGA'
p1945
I40089
sS'AATAGC'
p1946
I27943
sS'ATTTAC'
p1947
I39373
sS'CGTTAG'
p1948
I5368
sS'TTGACC'
p1949
I24881
sS'GGAGGG'
p1950
I102936
sS'AAAAGT'
p1951
I69155
sS'GGAGGA'
p1952
I96307
sS'GGAGGC'
p1953
I94650
sS'TGGTAG'
p1954
I28360
sS'CGCCAT'
p1955
I12643
sS'GAGTGT'
p1956
I34374
sS'TGGTAC'
p1957
I17616
sS'TGGTAA'
p1958
I32476
sS'AAAAGG'
p1959
I75247
sS'GGAGGT'
p1960
I57205
sS'AGCCAT'
p1961
I42957
sS'AAAAGC'
p1962
I61399
sS'AAAAGA'
p1963
I107347
sS'TTGACT'
p1964
I34882
sS'GAGTGG'
p1965
I46186
sS'CGCCAG'
p1966
I20433
sS'TGGTAT'
p1967
I26840
sS'CGCCAA'
p1968
I9251
sS'GAGTGC'
p1969
I36460
sS'CGCCAC'
p1970
I21047
sS'GAGTGA'
p1971
I47116
sS'GCCAGG'
p1972
I87235
sS'AGAGAN'
p1973
I1
sS'GCCAGA'
p1974
I52628
sS'GCCAGC'
p1975
I55388
sS'GCCCGT'
p1976
I11305
sS'CAATCC'
p1977
I26010
sS'TACCGA'
p1978
I4329
sS'TACCGC'
p1979
I5309
sS'TACTGA'
p1980
I34371
sS'CTTCAT'
p1981
I49910
sS'GCCCGC'
p1982
I33505
sS'GCCAGT'
p1983
I37160
sS'GCCCGA'
p1984
I13612
sS'GCCCGG'
p1985
I40704
sS'CTTCAC'
p1986
I44071
sS'GGNGTT'
p1987
I1
sS'CTTCAA'
p1988
I46596
sS'CTTCAG'
p1989
I63194
sS'TCCGAG'
p1990
I13049
sS'TCCGAA'
p1991
I7628
sS'TCCGAC'
p1992
I6231
sS'AATTCA'
p1993
I52820
sS'AATTCC'
p1994
I42095
sS'AATTCG'
p1995
I6131
sS'TCCGAT'
p1996
I4920
sS'TAGCGG'
p1997
I6307
sS'AATTCT'
p1998
I58000
sS'TAGCGC'
p1999
I5500
sS'GTCATC'
p2000
I28803
sS'GTCATA'
p2001
I22313
sS'GTCATG'
p2002
I30809
sS'AGCAGG'
p2003
I73651
sS'CCAGGT'
p2004
I55311
sS'TTGGAA'
p2005
I55704
sS'AGCAGC'
p2006
I70372
sS'AGCAGA'
p2007
I69748
sS'GTCATT'
p2008
I38830
sS'ACGACC'
p2009
I5964
sS'CCAGGG'
p2010
I83218
sS'AGCAGT'
p2011
I48945
sS'CCAGGA'
p2012
I87748
sS'CCAGGC'
p2013
I104319
sS'TTGGAT'
p2014
I32162
sS'ACGGTA'
p2015
I5091
sS'CATCTG'
p2016
I57166
sS'ACGGTC'
p2017
I6615
sS'CATCTA'
p2018
I28668
sS'ATAGAC'
p2019
I18832
sS'CATCTC'
p2020
I53613
sS'ATAGAA'
p2021
I42454
sS'GGATGG'
p2022
I44219
sS'CAAGCC'
p2023
I40431
sS'CATCTT'
p2024
I52201
sS'CAAGCA'
p2025
I46342
sS'CAAGCG'
p2026
I12557
sS'ACTCGA'
p2027
I6382
sS'GTTCTT'
p2028
I45684
sS'ACCTCC'
p2029
I57124
sS'CGTAAT'
p2030
I4959
sS'ACATGC'
p2031
I34021
sS'ACATGG'
p2032
I45311
sS'CCCGCT'
p2033
I21885
sS'TGGCGG'
p2034
I22093
sS'CGTAAG'
p2035
I6067
sS'GAGTCA'
p2036
I47669
sS'ACATGT'
p2037
I41593
sS'CGTAAC'
p2038
I4349
sS'CGTAAA'
p2039
I6819
sS'AGGGAG'
p2040
I95726
sS'ACGGAA'
p2041
I10350
sS'CTCGTT'
p2042
I8868
sS'CCCGCC'
p2043
I61851
sS'AGGGAA'
p2044
I79669
sS'AAACTA'
p2045
I43610
sS'AGCGCA'
p2046
I11555
sS'GTTGTT'
p2047
I37955
sS'ATCCTT'
p2048
I40223
sS'TTGTCG'
p2049
I5501
sS'TTGTCC'
p2050
I34948
sS'TTGTCA'
p2051
I40674
sS'ATCCTC'
p2052
I42927
sS'GTTGTA'
p2053
I21792
sS'ATCCTA'
p2054
I26479
sS'GTTGTC'
p2055
I22538
sS'ATCCTG'
p2056
I45782
sS'GTTGTG'
p2057
I30128
sS'TTGTCT'
p2058
I50459
sS'CTATGC'
p2059
I19376
sS'CTGTGG'
p2060
I73622
sS'AAGGGG'
p2061
I55533
sS'TGACTC'
p2062
I47734
sS'TGGGCA'
p2063
I62149
sS'TGGGCG'
p2064
I26848
sS'TGACTG'
p2065
I45873
sS'AAGCCG'
p2066
I13368
sS'NNNNGC'
p2067
I1
sS'AAGCCC'
p2068
I46012
sS'AAGCCA'
p2069
I62073
sS'CAAAAT'
p2070
I70136
sS'TGACTT'
p2071
I51820
sS'TGGGCT'
p2072
I63051
sS'CAAAAC'
p2073
I58233
sS'CAAAAA'
p2074
I100405
sS'AAGCCT'
p2075
I49828
sS'CAAAAG'
p2076
I60678
sS'TGATTT'
p2077
I59549
sS'TCAATG'
p2078
I28648
sS'CCCTTA'
p2079
I29157
sS'TCAATC'
p2080
I21588
sS'TCAATA'
p2081
I29976
sS'CAGTTC'
p2082
I44099
sS'GACCCG'
p2083
I13908
sS'CAGTTG'
p2084
I36410
sS'GACCCC'
p2085
I37700
sS'CTCTGT'
p2086
I81262
sS'TCAATT'
p2087
I34155
sS'TGGCGT'
p2088
I11591
sS'CTCTGC'
p2089
I80435
sS'GACCCT'
p2090
I37820
sS'CTCTGA'
p2091
I66937
sS'ACAATC'
p2092
I25183
sS'CTCTGG'
p2093
I77081
sS'CAGTTT'
p2094
I64328
sS'GCGAAG'
p2095
I10150
sS'ACGTTC'
p2096
I8330
sS'TGCTGG'
p2097
I78560
sS'CGAGGT'
p2098
I14016
sS'TGCTGA'
p2099
I59289
sS'CCCTTG'
p2100
I44549
sS'TGCTGC'
p2101
I61948
sS'AGCTGC'
p2102
I61419
sS'GCTGGT'
p2103
I48828
sS'GTGATT'
p2104
I35676
sS'CTACTA'
p2105
I23895
sS'TGCTGT'
p2106
I62976
sS'TCCCCA'
p2107
I82356
sS'GCCCTT'
p2108
I44051
sS'TCGCTA'
p2109
I4720
sS'GTGATG'
p2110
I35446
sS'GCTGGG'
p2111
I112430
sS'GTGATC'
p2112
I31383
sS'GCTGGC'
p2113
I54797
sS'GTGATA'
p2114
I25533
sS'GCTGGA'
p2115
I71623
sS'TGATAA'
p2116
I42406
sS'TGTAGT'
p2117
I32714
sS'TGATAC'
p2118
I19836
sS'TGATAG'
p2119
I25032
sS'CTTGTT'
p2120
I46753
sS'GACGGT'
p2121
I7473
sS'GCTAGG'
p2122
I27236
sS'GCTAGA'
p2123
I25645
sS'ATGAAT'
p2124
I49862
sS'GCTAGC'
p2125
I15891
sS'ATAGGG'
p2126
I22904
sS'TGATAT'
p2127
I30147
sS'GCTAGT'
p2128
I17696
sS'ATGAAC'
p2129
I31156
sS'GACGGG'
p2130
I16715
sS'CTTGTG'
p2131
I42735
sS'GACGGA'
p2132
I12167
sS'ATGAAG'
p2133
I49541
sS'GACGGC'
p2134
I11153
sS'CTTGTC'
p2135
I37100
sS'GCACTT'
p2136
I45175
sS'CTACTT'
p2137
I36849
sS'NNNGAA'
p2138
I2
sS'GANACA'
p2139
I1
sS'GNCCGC'
p2140
I1
sS'CAACGT'
p2141
I8542
sS'GGTGAA'
p2142
I40668
sS'GGTGAC'
p2143
I38453
sS'GCGTCT'
p2144
I11846
sS'GACTGT'
p2145
I34304
sS'GGTGAG'
p2146
I52430
sS'GGAATG'
p2147
I44266
sS'CGTCCT'
p2148
I14188
sS'GGCTAA'
p2149
I28972
sS'GGAATC'
p2150
I29025
sS'GCCCTG'
p2151
I75274
sS'GCGTCA'
p2152
I8176
sS'GCGTCC'
p2153
I15216
sS'GGTGAT'
p2154
I32655
sS'GCGTCG'
p2155
I5456
sS'CGTCCG'
p2156
I6674
sS'GGAATT'
p2157
I41460
sS'CGTCCC'
p2158
I17712
sS'CGTCCA'
p2159
I10297
sS'TTTCGA'
p2160
I6763
sS'AGCTGT'
p2161
I56270
sS'CCGTAT'
p2162
I4960
sS'GAAGTC'
p2163
I37039
sS'GAAGTA'
p2164
I32598
sS'GAAGTG'
p2165
I50840
sS'GCCGTA'
p2166
I4693
sS'CCGTAC'
p2167
I3863
sS'CCGTAA'
p2168
I5807
sS'TTCGAA'
p2169
I6994
sS'CTAACA'
p2170
I30484
sS'GCCGTT'
p2171
I7911
sS'CCCTCC'
p2172
I103332
sS'GAAGTT'
p2173
I43303
sS'GGCGCG'
p2174
I28609
sS'ATGCCC'
p2175
I31173
sS'TTAGTT'
p2176
I35715
sS'TATTAG'
p2177
I25593
sS'GGCGCC'
p2178
I33033
sS'TATTAA'
p2179
I45214
sS'GGCGCA'
p2180
I16862
sS'TATTAC'
p2181
I25116
sS'ACTATG'
p2182
I25385
sS'CAACGG'
p2183
I7245
sS'TTTAAG'
p2184
I56072
sS'ACTATC'
p2185
I18435
sS'TTTAAA'
p2186
I126351
sS'ACTATA'
p2187
I23626
sS'TTTAAC'
p2188
I40473
sS'TATTAT'
p2189
I47507
sS'TTAGTG'
p2190
I28417
sS'GGCGCT'
p2191
I20647
sS'TCAACA'
p2192
I40036
sS'TTAGTC'
p2193
I22348
sS'ATGCCT'
p2194
I45836
sS'TTAGTA'
p2195
I29683
sS'TTTAAT'
p2196
I67399
sS'ACTATT'
p2197
I30706
sS'GCCGAT'
p2198
I5151
sS'GGGCAT'
p2199
I30657
sS'TTTCCG'
p2200
I12449
sS'TTTCCA'
p2201
I79657
sS'TTTCCC'
p2202
I76968
sS'GTACGT'
p2203
I4862
sS'AGGNGT'
p2204
I1
sS'GTTTGT'
p2205
I46934
sS'TTCTAA'
p2206
I53110
sS'TTTCCT'
p2207
I107729
sS'GGGCAG'
p2208
I83996
sS'CCTGGA'
p2209
I75204
sS'GGGCAA'
p2210
I42666
sS'GGGCAC'
p2211
I37545
sS'GTACGG'
p2212
I3968
sS'ACGTAG'
p2213
I6605
sS'GTTTGG'
p2214
I41352
sS'GTACGA'
p2215
I2975
sS'CCGCTC'
p2216
I20707
sS'GCATGT'
p2217
I33677
sS'CCGCTA'
p2218
I6330
sS'CCGCTG'
p2219
I23653
sS'GCGCGG'
p2220
I29532
sS'GCGCGC'
p2221
I27025
sS'GCGCGA'
p2222
I8648
sS'GCATGG'
p2223
I35805
sS'TGGATC'
p2224
I27131
sS'GCATGC'
p2225
I27892
sS'CCGCTT'
p2226
I13018
sS'GCATGA'
p2227
I34648
sS'GTCGAC'
p2228
I3071
sS'GTCGAA'
p2229
I3882
sS'GTCGAG'
p2230
I6508
sS'AGACAT'
p2231
I42504
sS'GAGCTA'
p2232
I26887
sS'TGCGCT'
p2233
I11466
sS'GAGCTC'
p2234
I45265
sS'ATTGAT'
p2235
I26441
sS'GAGCTG'
p2236
I70010
sS'AAACGA'
p2237
I11701
sS'AAACGC'
p2238
I10583
sS'GTAACA'
p2239
I29123
sS'CACGCG'
p2240
I8630
sS'AAACGG'
p2241
I12366
sS'TGTCCC'
p2242
I48655
sS'TGCGCG'
p2243
I10540
sS'TGTCCA'
p2244
I43849
sS'GAGCTT'
p2245
I39356
sS'TGCGCC'
p2246
I17010
sS'ATTGAG'
p2247
I31146
sS'CGCTGA'
p2248
I13672
sS'TAGTGG'
p2249
I27427
sS'GCGCAG'
p2250
I23200
sS'AAACGT'
p2251
I13377
sS'TGGGTT'
p2252
I45454
sS'ATTTCA'
p2253
I68641
sS'ATTTCC'
p2254
I60278
sS'ATCAGT'
p2255
I33857
sS'ATCGGG'
p2256
I6609
sS'CATAGT'
p2257
I24921
sS'GCAGCA'
p2258
I61996
sS'CCGTGT'
p2259
I13341
sS'ATCGGA'
p2260
I4815
sS'ATTTCT'
p2261
I82429
sS'CGATCA'
p2262
I5011
sS'TGGGTC'
p2263
I36296
sS'TTTCGG'
p2264
I9110
sS'TGGGTA'
p2265
I29704
sS'CATAGG'
p2266
I22898
sS'ATCGGT'
p2267
I4231
sS'ATCAGG'
p2268
I35254
sS'CATAGC'
p2269
I24131
sS'CATAGA'
p2270
I27772
sS'ACGGGT'
p2271
I7430
sS'GTCTGA'
p2272
I36093
sS'GATTCT'
p2273
I41124
sS'CTTTTG'
p2274
I60745
sS'TACTAG'
p2275
I17296
sS'CTTTTC'
p2276
I79493
sS'CTTTTA'
p2277
I62843
sS'GATTCC'
p2278
I29317
sS'AGCCAG'
p2279
I78732
sS'GATTCA'
p2280
I31983
sS'NNNNCT'
p2281
I1
sS'GATTCG'
p2282
I5340
sS'ACGGGC'
p2283
I11439
sS'TACTAT'
p2284
I25135
sS'CTTTTT'
p2285
I109614
sS'ACCAAC'
p2286
I26489
sS'CGTAGA'
p2287
I5432
sS'TCACGA'
p2288
I8974
sS'TCACGC'
p2289
I16132
sS'CGATTG'
p2290
I4757
sS'TCACGG'
p2291
I11991
sS'TCACGT'
p2292
I12738
sS'TTCCAC'
p2293
I47434
sS'TTCCAA'
p2294
I56348
sS'TTCCAG'
p2295
I75128
sS'CGAGGC'
p2296
I24143
sS'ACCCTT'
p2297
I35271
sS'TGAAGT'
p2298
I46697
sS'AAACAA'
p2299
I98818
sS'CCACAT'
p2300
I45958
sS'AGGCAC'
p2301
I46561
sS'TTCCAT'
p2302
I52685
sS'ACCCTA'
p2303
I24063
sS'TGAAGA'
p2304
I60699
sS'TGAAGG'
p2305
I53324
sS'ACCCTG'
p2306
I56098
sS'CTGACT'
p2307
I50234
sS'CCAGCA'
p2308
I78499
sS'CCCCTT'
p2309
I55525
sS'AGTTAT'
p2310
I32543
sS'CTGACG'
p2311
I10759
sS'CTGACC'
p2312
I48758
sS'CTGACA'
p2313
I47839
sS'AGTTAA'
p2314
I40013
sS'CCCCTG'
p2315
I65460
sS'AGTTAC'
p2316
I27456
sS'CCCCTC'
p2317
I77786
sS'AGTTAG'
p2318
I27295
sS'CCCCTA'
p2319
I28463
sS'ACACAG'
p2320
I72324
sS'ACACAA'
p2321
I50442
sS'ACACAC'
p2322
I99074
sS'AATGTT'
p2323
I55407
sS'CTGCAG'
p2324
I95814
sS'CATGGG'
p2325
I40404
sS'CTGCAC'
p2326
I55377
sS'CATGGC'
p2327
I41797
sS'AATGTC'
p2328
I37935
sS'ACACAT'
p2329
I50127
sS'AATGTA'
p2330
I43430
sS'AATGTG'
p2331
I50917
sS'AGCTAA'
p2332
I35300
sS'CATGGT'
p2333
I40349
sS'GCACAA'
p2334
I32077
sS'GCACAG'
p2335
I57359
sS'CGATTC'
p2336
I7918
sS'CCACAG'
p2337
I74175
sS'CGAGAT'
p2338
I10797
sS'ATTACT'
p2339
I34466
sS'ACATTG'
p2340
I32488
sS'GTACCA'
p2341
I17853
sS'ACATTA'
p2342
I35349
sS'ACATTC'
p2343
I40676
sS'ATTACA'
p2344
I52805
sS'ATGCTC'
p2345
I29341
sS'GTTCGC'
p2346
I5114
sS'CGAGAC'
p2347
I14795
sS'GTTCGG'
p2348
I6417
sS'AAGTCT'
p2349
I43443
sS'GCTATT'
p2350
I27711
sS'GGACAT'
p2351
I30000
sS'GCTATA'
p2352
I17761
sS'GCTATC'
p2353
I15749
sS'AAGTCG'
p2354
I7244
sS'AAGTCA'
p2355
I51717
sS'GCTATG'
p2356
I24199
sS'AAGTCC'
p2357
I36680
sS'GGACAG'
p2358
I56061
sS'GGACAC'
p2359
I37405
sS'GGACAA'
p2360
I35144
sS'CTAATT'
p2361
I40163
sS'AGGGTT'
p2362
I40032
sS'GAGGCG'
p2363
I33145
sS'TGTTGG'
p2364
I43618
sS'GAGGCA'
p2365
I68806
sS'TGTTGA'
p2366
I40117
sS'GAGGCC'
p2367
I71861
sS'TGTTGC'
p2368
I38626
sS'TCCTCA'
p2369
I64976
sS'TAAAAT'
p2370
I92750
sS'ACTCGC'
p2371
I8326
sS'ACTCGG'
p2372
I13241
sS'TGTTGT'
p2373
I44672
sS'GAGGCT'
p2374
I75061
sS'AGCGCC'
p2375
I20659
sS'AGGGTG'
p2376
I54317
sS'AGGGTA'
p2377
I26193
sS'AGCGCG'
p2378
I12610
sS'AGGGTC'
p2379
I37761
sS'TAAAAG'
p2380
I62805
sS'ACTCGT'
p2381
I6189
sS'TAAAAC'
p2382
I54701
sS'TAAAAA'
p2383
I121107
sS'ACCCTC'
p2384
I42739
sS'TAGGGA'
p2385
I34890
sS'ACGTTA'
p2386
I6871
sS'AGCTGA'
p2387
I59645
sS'ACGTTG'
p2388
I8379
sS'AGCTGG'
p2389
I80827
sS'TAGGGG'
p2390
I28406
sS'AGTGCG'
p2391
I9347
sS'AGTGCA'
p2392
I45066
sS'AGAGTT'
p2393
I45912
sS'AGTGCC'
p2394
I36767
sS'CCAAAA'
p2395
I62039
sS'TAGGGT'
p2396
I24115
sS'GTAACT'
p2397
I27719
sS'ACGTTT'
p2398
I13488
sS'AGTGCT'
p2399
I54292
sS'AGAGTC'
p2400
I38524
sS'AGAGTA'
p2401
I32290
sS'AGAGTG'
p2402
I50395
sS'TTCGTA'
p2403
I5534
sS'GTTAAA'
p2404
I40670
sS'CCTGGC'
p2405
I87406
sS'GTTAAC'
p2406
I19675
sS'GTCTGT'
p2407
I43895
sS'CCTGGG'
p2408
I117545
sS'GTTAAG'
p2409
I27513
sS'AGCCCG'
p2410
I21832
sS'TAACCA'
p2411
I30769
sS'GCACCC'
p2412
I36245
sS'GTCTGG'
p2413
I45473
sS'NNNNNA'
p2414
I1
sS'GTCTGC'
p2415
I34822
sS'GTTAAT'
p2416
I27907
sS'CCTGGT'
p2417
I50018
sS'CCGGTC'
p2418
I10358
sS'GGAAGG'
p2419
I88171
sS'ATGCTT'
p2420
I41000
sS'GGAAGC'
p2421
I59090
sS'CTAATG'
p2422
I26514
sS'GGAAGA'
p2423
I77035
sS'TGTATT'
p2424
I53704
sS'TCCTCT'
p2425
I80457
sS'GCGTTC'
p2426
I8248
sS'CAATGC'
p2427
I25590
sS'GCGTTG'
p2428
I7382
sS'CAATGG'
p2429
I31245
sS'ATGCTG'
p2430
I49241
sS'GGAAGT'
p2431
I54113
sS'CCACAC'
p2432
I53872
sS'ATGCTA'
p2433
I27336
sS'ATTTGT'
p2434
I56943
sS'TCCTCG'
p2435
I16080
sS'TGTATG'
p2436
I34065
sS'CAATGT'
p2437
I33081
sS'GCGTTT'
p2438
I10908
sS'TCCTCC'
p2439
I96474
sS'TGTATC'
p2440
I25807
sS'GTGAAT'
p2441
I34879
sS'TAACCG'
p2442
I4810
sS'TCATAG'
p2443
I27975
sS'TTCGTG'
p2444
I9123
sS'TCATAA'
p2445
I36158
sS'TAACCC'
p2446
I21817
sS'TCATAC'
p2447
I21029
sS'TTCGTC'
p2448
I6330
sS'ACCGCT'
p2449
I9201
sS'AACCCA'
p2450
I45889
sS'TCAGGA'
p2451
I66233
sS'TTCGTT'
p2452
I9647
sS'TCATAT'
p2453
I33981
sS'TAACCT'
p2454
I28858
sS'GTGAAG'
p2455
I43897
sS'GTGAAA'
p2456
I56621
sS'GTGAAC'
p2457
I26990
sS'CAATAG'
p2458
I22686
sS'AACCCG'
p2459
I11913
sS'ACCGCG'
p2460
I10386
sS'ACCGCA'
p2461
I11375
sS'CCCTAT'
p2462
I22954
sS'ACCGCC'
p2463
I15438
sS'AGAAAT'
p2464
I82904
sS'AGGCTT'
p2465
I50046
sS'CCTTCT'
p2466
I73741
sS'GTTGCA'
p2467
I30445
sS'AACGAA'
p2468
I9943
sS'GTTGCC'
p2469
I30677
sS'GTGCCG'
p2470
I11427
sS'GTGCCA'
p2471
I37866
sS'GTTGCG'
p2472
I5676
sS'GTGCCC'
p2473
I37635
sS'CCTTCA'
p2474
I53521
sS'AGGCTA'
p2475
I29909
sS'CCTTCC'
p2476
I88559
sS'AGGCTC'
p2477
I50663
sS'CCGCCC'
p2478
I57593
sS'AATTGG'
p2479
I29355
sS'CCGCCA'
p2480
I22295
sS'AGGCTG'
p2481
I111528
sS'GTGCCT'
p2482
I45989
sS'GGCGAA'
p2483
I8903
sS'GTTGCT'
p2484
I34466
sS'NNNGCG'
p2485
I1
sS'GGATAT'
p2486
I22916
sS'TCGGGT'
p2487
I8881
sS'AAACCT'
p2488
I49247
sS'GCAGTT'
p2489
I40071
sS'GAAGCT'
p2490
I49438
sS'GGATAA'
p2491
I27085
sS'TCGGGA'
p2492
I14199
sS'NNNNNG'
p2493
I3
sS'TCGGGG'
p2494
I19234
sS'GGATAG'
p2495
I18954
sS'GAAGCG'
p2496
I14328
sS'CCGCCT'
p2497
I35965
sS'GCAGTG'
p2498
I71037
sS'GAAGCC'
p2499
I51061
sS'GCAGTA'
p2500
I27135
sS'GAAGCA'
p2501
I55000
sS'GCAGTC'
p2502
I32193
sS'CGCCCG'
p2503
I28439
sS'GAGAGA'
p2504
I89277
sS'GTTCAT'
p2505
I30805
sS'GAGAGG'
p2506
I79784
sS'CGCCCA'
p2507
I26539
sS'AGTTTG'
p2508
I49241
sS'CTATAG'
p2509
I18850
sS'NNNNNN'
p2510
I459
sS'GCATTC'
p2511
I29769
sS'CTATAA'
p2512
I30179
sS'AACTCA'
p2513
I45566
sS'CTCGCC'
p2514
I20302
sS'CTCGCG'
p2515
I9819
sS'AAACAT'
p2516
I63755
sS'CTATAT'
p2517
I24891
sS'AACTGA'
p2518
I52568
sS'GCCGGG'
p2519
I44926
sS'TACCCG'
p2520
I6097
sS'GCCGGC'
p2521
I28391
sS'CATGTT'
p2522
I46884
sS'GCCGGA'
p2523
I15654
sS'AGATCT'
p2524
I37848
sS'AACTGC'
p2525
I40775
sS'CGAGCG'
p2526
I9300
sS'TACCCA'
p2527
I29715
sS'CATGTA'
p2528
I31616
sS'NNAGCG'
p2529
I1
sS'CATGTC'
p2530
I32040
sS'GCCGGT'
p2531
I10897
sS'CATGTG'
p2532
I50542
sS'AGTTCG'
p2533
I8651
sS'GTACTC'
p2534
I15665
sS'GGCCTG'
p2535
I72324
sS'GGCCTC'
p2536
I71179
sS'NNGCGC'
p2537
I1
sS'GGCCTA'
p2538
I22428
sS'TTTGTT'
p2539
I96519
sS'AATCGG'
p2540
I5913
sS'AATCGC'
p2541
I7686
sS'AATCGA'
p2542
I5399
sS'GTTCAG'
p2543
I37350
sS'GGCCTT'
p2544
I46201
sS'TCACTA'
p2545
I29949
sS'TCACTC'
p2546
I47577
sS'ATCGGC'
p2547
I5362
sS'AATCGT'
p2548
I6001
sS'AGCCGA'
p2549
I14717
sS'CCGCCG'
p2550
I32579
sS'AGCCGC'
p2551
I21898
sS'TAATTG'
p2552
I30170
sS'AAAAAT'
p2553
I137515
sS'AGCCGG'
p2554
I24231
sS'GTTTTT'
p2555
I81777
sS'TGGTGA'
p2556
I51017
sS'GATGGA'
p2557
I41055
sS'TGGTGC'
p2558
I36841
sS'GATGGC'
p2559
I32042
sS'GGGCTG'
p2560
I84817
sS'TGGTGG'
p2561
I67956
sS'GATGGG'
p2562
I45642
sS'AAAAAA'
p2563
I355020
sS'GTTTTA'
p2564
I54251
sS'GGGCTC'
p2565
I56823
sS'GTTTTG'
p2566
I57792
sS'GTTCAA'
p2567
I36953
sS'AAAAAG'
p2568
I109694
sS'TGACAG'
p2569
I54193
sS'CCAAGG'
p2570
I57933
sS'ACGTAT'
p2571
I6624
sS'TCTCAG'
p2572
I71797
sS'GATGGT'
p2573
I30042
sS'TGGTGT'
p2574
I42448
sS'CCAAGA'
p2575
I54110
sS'ATTCGT'
p2576
I6436
sS'AGAACT'
p2577
I50985
sS'GCATTA'
p2578
I23908
sS'CCTTCG'
p2579
I11959
sS'TACCAT'
p2580
I26788
sS'AGATAG'
p2581
I32357
sS'ACCCGG'
p2582
I19476
sS'ACCCGA'
p2583
I8784
sS'AGATAC'
p2584
I27216
sS'ACCCGC'
p2585
I15996
sS'ACCAGT'
p2586
I30638
sS'TACCAC'
p2587
I25062
sS'AGAACG'
p2588
I10911
sS'TACCAA'
p2589
I26584
sS'AGAACA'
p2590
I59520
sS'TACCAG'
p2591
I27852
sS'AGAACC'
p2592
I37504
sS'ATGTCA'
p2593
I41020
sS'CACTGG'
p2594
I54569
sS'CCTATG'
p2595
I23360
sS'ATCACG'
p2596
I10056
sS'ACCAGG'
p2597
I50086
sS'CACTGC'
p2598
I71155
sS'CCTATC'
p2599
I21358
sS'CAGCGT'
p2600
I15267
sS'TAGGTT'
p2601
I25903
sS'GTTTAC'
p2602
I25746
sS'AATTAT'
p2603
I52981
sS'CTGTTG'
p2604
I46329
sS'GTAACC'
p2605
I17209
sS'CTGTTC'
p2606
I46658
sS'CGGGTT'
p2607
I11903
sS'CTGTTA'
p2608
I36631
sS'AATTAC'
p2609
I34282
sS'AATTAA'
p2610
I58726
sS'CATGGA'
p2611
I40898
sS'TAGGTA'
p2612
I21993
sS'TAGGTC'
p2613
I18490
sS'CGGGTC'
p2614
I13970
sS'CTGTTT'
p2615
I73740
sS'CGGGTA'
p2616
I6360
sS'CGGGTG'
p2617
I19743
sS'TTAGGN'
p2618
I1
sS'CTTCGG'
p2619
I12090
sS'CACACT'
p2620
I48571
sS'CATTAC'
p2621
I23674
sS'GCAATG'
p2622
I31914
sS'TTAGGG'
p2623
I31091
sS'ATATAT'
p2624
I61667
sS'AGCAAC'
p2625
I34910
sS'TTAGGC'
p2626
I23248
sS'AAAGCT'
p2627
I55259
sS'TTAGGA'
p2628
I38451
sS'AAAGCA'
p2629
I75760
sS'ATATAG'
p2630
I24619
sS'TTAGGT'
p2631
I27368
sS'ATATAA'
p2632
I45039
sS'AGCAAT'
p2633
I40455
sS'ATATAC'
p2634
I27327
sS'ATAGCA'
p2635
I31954
sS'ATAGCC'
p2636
I20171
sS'TACTTG'
p2637
I31051
sS'ATAGCG'
p2638
I4758
sS'TCTCAC'
p2639
I51653
sS'CAGCGC'
p2640
I24418
sS'ACGGCT'
p2641
I10450
sS'ATAGCT'
p2642
I28830
sS'TACTTT'
p2643
I51897
sS'CATGCG'
p2644
I8850
sS'GTTTTC'
p2645
I58810
sS'CGAGTT'
p2646
I8029
sS'TCCAAT'
p2647
I29756
sS'CGCATC'
p2648
I7487
sS'CGTACT'
p2649
I4240
sS'TCCCGT'
p2650
I11997
sS'TATGCT'
p2651
I27834
sS'CTTAAG'
p2652
I33291
sS'ACATAA'
p2653
I40656
sS'CTTAAA'
p2654
I55771
sS'AGGGGT'
p2655
I42824
sS'CTTAAC'
p2656
I27415
sS'TCCAAG'
p2657
I48454
sS'CGTACC'
p2658
I4022
sS'CGAGTA'
p2659
I6307
sS'TCCAAA'
p2660
I58636
sS'AGGGGA'
p2661
I70561
sS'CTTAAT'
p2662
I34555
sS'TATGCG'
p2663
I3759
sS'TATGCA'
p2664
I29786
sS'AGGGGG'
p2665
I54923
sS'TCATTA'
p2666
I38727
sS'CGACTT'
p2667
I7405
sS'TGAATT'
p2668
I52812
sS'TTGTAA'
p2669
I44071
sS'CACAAA'
p2670
I62278
sS'TTGTAC'
p2671
I22335
sS'TCATTG'
p2672
I36538
sS'TGAATC'
p2673
I32330
sS'ACAACA'
p2674
I45620
sS'TGAATA'
p2675
I42780
sS'GGATAC'
p2676
I15449
sS'TGAATG'
p2677
I50793
sS'AAGTAT'
p2678
I35376
sS'CGACTG'
p2679
I8368
sS'TTGTAT'
p2680
I41962
sS'ATCGTG'
p2681
I7916
sS'GCTTCG'
p2682
I9946
sS'ATCGTC'
p2683
I4933
sS'GCTTCC'
p2684
I58908
sS'TGGGAG'
p2685
I97493
sS'TGGGAA'
p2686
I73960
sS'TGGGAC'
p2687
I43035
sS'GCTTCT'
p2688
I57997
sS'ATCGTT'
p2689
I6199
sS'ACAACG'
p2690
I7322
sS'TGGGAT'
p2691
I53351
sS'CTAGCC'
p2692
I24458
sS'GACCAT'
p2693
I23135
sS'CTAGCG'
p2694
I6152
sS'CGGTAG'
p2695
I6051
sS'ACTTAG'
p2696
I28732
sS'ACTTAA'
p2697
I41044
sS'CGGTAC'
p2698
I3937
sS'ACTTAC'
p2699
I26766
sS'CGGTAA'
p2700
I5796
sS'GACCAG'
p2701
I44642
sS'GACCAC'
p2702
I29171
sS'GACCAA'
p2703
I28080
sS'TTCGAG'
p2704
I10629
sS'ACTTAT'
p2705
I28389
sS'CGGTAT'
p2706
I4045
sS'TACACA'
p2707
I42888
sS'TACACG'
p2708
I6937
sS'GCGAGA'
p2709
I14211
sS'GAGAGC'
p2710
I45771
sS'GCGAGC'
p2711
I14065
sS'GGCCGT'
p2712
I12579
sS'GCGAGG'
p2713
I21500
sS'CAGCCG'
p2714
I25018
sS'CAGCCA'
p2715
I76989
sS'CAGCCC'
p2716
I85026
sS'GCCACT'
p2717
I51813
sS'TCCGGG'
p2718
I21208
sS'GCGAGT'
p2719
I8149
sS'GAACTG'
p2720
I44899
sS'GAACTC'
p2721
I38225
sS'GAACTA'
p2722
I24832
sS'GGACTT'
p2723
I36382
sS'CACCTA'
p2724
I28535
sS'AACTAT'
p2725
I29295
sS'CACCTC'
p2726
I61561
sS'NAGCGA'
p2727
I1
sS'CACCTG'
p2728
I63982
sS'TGATCC'
p2729
I31357
sS'AACACT'
p2730
I44578
sS'TGATCA'
p2731
I30994
sS'TGATCG'
p2732
I5059
sS'NAGAAA'
p2733
I1
sS'AACTAG'
p2734
I26066
sS'GGACTG'
p2735
I41569
sS'CACCTT'
p2736
I45933
sS'GGACTA'
p2737
I22199
sS'GGACTC'
p2738
I33868
sS'AACGAT'
p2739
I6168
sS'AACACG'
p2740
I11592
sS'AACACA'
p2741
I61437
sS'AACACC'
p2742
I32822
sS'TGATCT'
p2743
I39799
sS'AAAGAC'
p2744
I50477
sS'ACGCAC'
p2745
I10105
sS'CAACAG'
p2746
I46879
sS'GACAGT'
p2747
I36154
sS'CAACAA'
p2748
I44659
sS'AAAGAA'
p2749
I122121
sS'CAACAC'
p2750
I35010
sS'GCTGAT'
p2751
I34525
sS'ACGCAA'
p2752
I6858
sS'GACAGG'
p2753
I54641
sS'CAACAT'
p2754
I41974
sS'GACAGC'
p2755
I42055
sS'GACAGA'
p2756
I64964
sS'GTATTA'
p2757
I24375
sS'GTATTC'
p2758
I21501
sS'GTAAGT'
p2759
I26622
sS'CCAGCG'
p2760
I23535
sS'AGAGGT'
p2761
I50946
sS'GGTGGC'
p2762
I59844
sS'TCCCCT'
p2763
I70100
sS'GGTGGA'
p2764
I52483
sS'TATCTT'
p2765
I46409
sS'GGTGGG'
p2766
I84422
sS'ATCCCT'
p2767
I38483
sS'AGAGGC'
p2768
I66374
sS'GTAAGA'
p2769
I30350
sS'AGAGGA'
p2770
I80133
sS'GTAAGC'
p2771
I18800
sS'AGAGGG'
p2772
I74006
sS'ACCGAG'
p2773
I11986
sS'GTAAGG'
p2774
I23931
sS'TCCCCG'
p2775
I29478
sS'CGTCAC'
p2776
I9920
sS'TCCCCC'
p2777
I57966
sS'GGTGGT'
p2778
I41980
sS'TATCTG'
p2779
I41617
sS'GTCGCG'
p2780
I5613
sS'GTCGCA'
p2781
I5679
sS'GTCGCC'
p2782
I13119
sS'CCGTCT'
p2783
I17912
sS'TCGGTA'
p2784
I4328
sS'GAGAGT'
p2785
I37750
sS'TCGGTG'
p2786
I10100
sS'GTCGCT'
p2787
I8412
sS'CCGTCG'
p2788
I5163
sS'CCGTCA'
p2789
I8966
sS'TCGGTT'
p2790
I7377
sS'GGCTGT'
p2791
I54163
sS'CGCGTG'
p2792
I8612
sS'GCATTT'
p2793
I56004
sS'CGCGTC'
p2794
I8276
sS'CGCGTA'
p2795
I2010
sS'CCACTG'
p2796
I69958
sS'ATGCAA'
p2797
I39080
sS'TTTAGC'
p2798
I31000
sS'CGCGTT'
p2799
I4259
sS'GGCTGG'
p2800
I105119
sS'GGCTGA'
p2801
I66987
sS'GGCTGC'
p2802
I71603
sS'ATGCAT'
p2803
I34766
sS'TTTAGA'
p2804
I49791
sS'ATGACG'
p2805
I7361
sS'GGAGTT'
p2806
I48906
sS'ATGACA'
p2807
I44055
sS'ATGACC'
p2808
I27398
sS'CGGGCC'
p2809
I29357
sS'GGGCCT'
p2810
I57655
sS'TTTGGN'
p2811
I1
sS'ATGACT'
p2812
I42231
sS'GGAGTA'
p2813
I24506
sS'TATCCG'
p2814
I4013
sS'GGAGTC'
p2815
I39331
sS'GGAGTG'
p2816
I56075
sS'GGGCCG'
p2817
I33700
sS'GGGCCC'
p2818
I57464
sS'GGGCCA'
p2819
I52467
sS'CTGATC'
p2820
I28107
sS'ACGAGT'
p2821
I6025
sS'AGGCCA'
p2822
I66746
sS'GCGCAC'
p2823
I12806
sS'AGGCCG'
p2824
I27141
sS'ACGAGG'
p2825
I13657
sS'AGTATC'
p2826
I20831
sS'ACGAGC'
p2827
I7093
sS'ACGAGA'
p2828
I9134
sS'CTGATG'
p2829
I41858
sS'AGGCCT'
p2830
I61068
sS'GCTCTA'
p2831
I25112
sS'AGACGG'
p2832
I17812
sS'GGGTTG'
p2833
I33518
sS'GACTAC'
p2834
I18311
sS'GGGTTA'
p2835
I22277
sS'GGGTTC'
p2836
I33357
sS'TTTGAT'
p2837
I42628
sS'ATTCGA'
p2838
I5588
sS'CTACGA'
p2839
I4840
sS'ATTGCT'
p2840
I40209
sS'GGGTTT'
p2841
I47420
sS'TACAAG'
p2842
I29592
sS'TGCGAG'
p2843
I9906
sS'ATTGCC'
p2844
I25776
sS'TTTGAG'
p2845
I68807
sS'AACGGA'
p2846
I9148
sS'GACTAG'
p2847
I19227
sS'AACGGG'
p2848
I9974
sS'TTTGAC'
p2849
I32930
sS'TTTGAA'
p2850
I71830
sS'ATCATC'
p2851
I29763
sS'CCTGAC'
p2852
I48507
sS'TGACGT'
p2853
I9597
sS'AGTCGG'
p2854
I9302
sS'CTCGTC'
p2855
I9582
sS'CCCTGG'
p2856
I82955
sS'CCCTGA'
p2857
I57815
sS'AAGCTT'
p2858
I42295
sS'CCCTGC'
p2859
I79756
sS'GATATC'
p2860
I15842
sS'AAGCTC'
p2861
I39501
sS'GATATA'
p2862
I21638
sS'AAGCTA'
p2863
I31543
sS'GATATG'
p2864
I23102
sS'TGACGA'
p2865
I6429
sS'TGACGC'
p2866
I8318
sS'CTCGGA'
p2867
I13067
sS'TACTCT'
p2868
I32106
sS'CATCGT'
p2869
I7632
sS'CAGGGT'
p2870
I55904
sS'CCAGTC'
p2871
I42050
sS'TACGAT'
p2872
I4143
sS'CCAGTG'
p2873
I54313
sS'TACTCG'
p2874
I6225
sS'CATCGA'
p2875
I5235
sS'CATCGC'
p2876
I8217
sS'TACTCC'
p2877
I24690
sS'NGAATT'
p2878
I2
sS'TACTCA'
p2879
I33252
sS'CATCGG'
p2880
I6532
sS'TGCNCC'
p2881
I1
sS'CAGGGG'
p2882
I66216
sS'CAGGGA'
p2883
I81065
sS'CAGGGC'
p2884
I74924
sS'AATCTG'
p2885
I43437
sS'TACAAT'
p2886
I31888
sS'TCCTGA'
p2887
I65540
sS'GCCATT'
p2888
I36686
sS'AGTCGA'
p2889
I4979
sS'AATCTA'
p2890
I30962
sS'TGAACG'
p2891
I8098
sS'TCACAC'
p2892
I45607
sS'CCCATA'
p2893
I23545
sS'TCACAA'
p2894
I44582
sS'TCACAG'
p2895
I63609
sS'GCCATA'
p2896
I20710
sS'CGGACG'
p2897
I6707
sS'ACATCG'
p2898
I5960
sS'CGGACA'
p2899
I9499
sS'CGGACC'
p2900
I10135
sS'GCCATG'
p2901
I41793
sS'CTTACC'
p2902
I24933
sS'CTCGGC'
p2903
I27962
sS'TCACAT'
p2904
I46940
sS'TGAACC'
p2905
I33527
sS'ATTAAC'
p2906
I27823
sS'ATTAAA'
p2907
I66884
sS'AACCGA'
p2908
I7320
sS'ATTAAG'
p2909
I34575
sS'CTTACA'
p2910
I34092
sS'TCACTT'
p2911
I61007
sS'ATCCAG'
p2912
I42013
sS'GTGCAG'
p2913
I54795
sS'GAACCG'
p2914
I8754
sS'ATTAAT'
p2915
I42382
sS'AAGCAC'
p2916
I40253
sS'GAACCA'
p2917
I35509
sS'GGTATG'
p2918
I18782
sS'GGTATA'
p2919
I16256
sS'GGTATC'
p2920
I14598
sS'AGTACA'
p2921
I29974
sS'CGAGAG'
p2922
I14290
sS'CAATGA'
p2923
I36788
sS'ACGAAT'
p2924
I6458
sS'GGTATT'
p2925
I24674
sS'CTGAAC'
p2926
I37393
sS'CTGAAG'
p2927
I63915
sS'ATTGTA'
p2928
I31322
sS'CCCGAA'
p2929
I10871
sS'CATTGC'
p2930
I31719
sS'TATGAG'
p2931
I28352
sS'CATTGA'
p2932
I28335
sS'CTAGTT'
p2933
I25729
sS'CATTGG'
p2934
I27370
sS'TCAACT'
p2935
I33431
sS'ACCATC'
p2936
I29995
sS'ACACCG'
p2937
I9915
sS'CTGCCA'
p2938
I65785
sS'CTGCCC'
p2939
I83472
sS'ACACCC'
p2940
I40122
sS'ACACCA'
p2941
I42454
sS'CTGCCG'
p2942
I23075
sS'CTAGTG'
p2943
I25229
sS'TCAACC'
p2944
I25087
sS'ATGTTC'
p2945
I34090
sS'CTAGTC'
p2946
I19142
sS'TCAACG'
p2947
I6128
sS'CTAGTA'
p2948
I17431
sS'CATTGT'
p2949
I37846
sS'TATGAC'
p2950
I22513
sS'ACACCT'
p2951
I40068
sS'CTGCCT'
p2952
I100409
sS'CCTCGT'
p2953
I13558
sS'TATGAA'
p2954
I40070
sS'AGACTG'
p2955
I50451
sS'TCACTG'
p2956
I68195
sS'AGACTA'
p2957
I26155
sS'CCTCGG'
p2958
I28395
sS'CCTCGC'
p2959
I21745
sS'CCCGAC'
p2960
I13492
sS'CCTCGA'
p2961
I11039
sS'CGAGGA'
p2962
I16021
sS'AGACTT'
p2963
I43137
sS'NNNNAG'
p2964
I1
sS'CGAGGG'
p2965
I20416
sS'ACTTTC'
p2966
I48623
sS'ACTTTA'
p2967
I43490
sS'ACTTTG'
p2968
I57693
sS'GACCTG'
p2969
I40439
sS'GTAATG'
p2970
I23411
sS'GACCTC'
p2971
I41083
sS'CACCGG'
p2972
I13467
sS'GCATAG'
p2973
I19303
sS'CACCGA'
p2974
I10202
sS'CACCGC'
p2975
I22382
sS'GACCTT'
p2976
I34768
sS'GGACGC'
p2977
I15106
sS'GGACGG'
p2978
I15580
sS'GCATAA'
p2979
I23024
sS'CACAGC'
p2980
I69515
sS'CTTATC'
p2981
I35323
sS'CACAGA'
p2982
I74919
sS'CTTATA'
p2983
I25660
sS'CACAGG'
p2984
I67569
sS'CTTATG'
p2985
I25607
sS'ACTCAT'
p2986
I37436
sS'GAGGAG'
p2987
I91421
sS'GACGTA'
p2988
I4260
sS'CGTATC'
p2989
I4501
sS'ACGCTC'
p2990
I9128
sS'TAAACT'
p2991
I43015
sS'GAGGAA'
p2992
I82519
sS'AGCGAT'
p2993
I9856
sS'TTAACA'
p2994
I43239
sS'ACTCAC'
p2995
I40291
sS'TTAACC'
p2996
I26017
sS'TTGTGA'
p2997
I43605
sS'ACTCAG'
p2998
I56502
sS'CTTATT'
p2999
I43019
sS'CACAGT'
p3000
I55537
sS'AGCGAC'
p3001
I8439
sS'TAAACA'
p3002
I56047
sS'AGCGAA'
p3003
I8894
sS'TAAACC'
p3004
I28205
sS'GACGTT'
p3005
I7557
sS'TCTAAA'
p3006
I49837
sS'TAAACG'
p3007
I8183
sS'AGTTCC'
p3008
I40299
sS'GTATGT'
p3009
I29579
sS'AGTTCA'
p3010
I45377
sS'TACTTA'
p3011
I31624
sS'CTGTGC'
p3012
I56820
sS'CTGTGA'
p3013
I63903
sS'CGGGGT'
p3014
I20949
sS'TAGGAC'
p3015
I20806
sS'GCAAAG'
p3016
I50560
sS'TAGGAA'
p3017
I46560
sS'GCAAAA'
p3018
I54402
sS'TAGGAG'
p3019
I38708
sS'GCAAAC'
p3020
I32474
sS'CGGGGC'
p3021
I44224
sS'CGGGGA'
p3022
I29210
sS'CTGTGT'
p3023
I71872
sS'CGGGGG'
p3024
I33242
sS'GTATGC'
p3025
I14394
sS'AGTTCT'
p3026
I50664
sS'GCAAAT'
p3027
I40853
sS'CGAGAA'
p3028
I11429
sS'TAGGAT'
p3029
I26274
sS'TAATTA'
p3030
I43099
sS'CTATTT'
p3031
I51916
sS'TGCTTT'
p3032
I74800
sS'GTCTAT'
p3033
I18741
sS'TGGGNC'
p3034
I1
sS'ACTAGG'
p3035
I24147
sS'GTTACC'
p3036
I18382
sS'GTTACA'
p3037
I28387
sS'TAATTC'
p3038
I35754
sS'GTTACG'
p3039
I4299
sS'TATCGC'
p3040
I3697
sS'TATAGT'
p3041
I23577
sS'GTCTAA'
p3042
I20789
sS'TGCTTA'
p3043
I37614
sS'GTCTAC'
p3044
I15797
sS'TGCTTC'
p3045
I54326
sS'TTCAAA'
p3046
I71631
sS'TTCAAC'
p3047
I32474
sS'TCTCAT'
p3048
I52091
sS'TATAGC'
p3049
I17760
sS'TATCGT'
p3050
I4238
sS'TATAGA'
p3051
I27080
sS'AGTGGG'
p3052
I55062
sS'TATAGG'
p3053
I20085
sS'GTTACT'
p3054
I26944
sS'GGAAAA'
p3055
I88150
sS'GGAAAC'
p3056
I52332
sS'GGGCTA'
p3057
I22403
sS'GCTCTG'
p3058
I73421
sS'CCACGT'
p3059
I18073
sS'GGCGTT'
p3060
I9176
sS'AGGACC'
p3061
I35369
sS'GAATGG'
p3062
I39917
sS'GNTGCN'
p3063
I1
sS'GGCTTT'
p3064
I52857
sS'ACTACT'
p3065
I25043
sS'GAATGC'
p3066
I30169
sS'CCACGA'
p3067
I11602
sS'AACCTG'
p3068
I43465
sS'CCACGC'
p3069
I23115
sS'GGCGTA'
p3070
I4597
sS'AACCTC'
p3071
I42868
sS'CCACGG'
p3072
I19183
sS'GCTCTT'
p3073
I46185
sS'GGCTTA'
p3074
I27321
sS'ACTACC'
p3075
I17857
sS'GGCTTC'
p3076
I51461
sS'ACTACA'
p3077
I32942
sS'ACTACG'
p3078
I5091
sS'GGCTTG'
p3079
I40166
sS'TCCTAG'
p3080
I36128
sS'AGTCAG'
p3081
I50011
sS'CGTTGC'
p3082
I7689
sS'TAACAC'
p3083
I27279
sS'TCCTAC'
p3084
I28122
sS'AGTCAC'
p3085
I44281
sS'TCCTAA'
p3086
I38426
sS'TAACAG'
p3087
I36925
sS'TCATCG'
p3088
I7239
sS'AAGCGT'
p3089
I8439
sS'TCATCC'
p3090
I37851
sS'AAAAAC'
p3091
I83185
sS'CTTTCT'
p3092
I97809
sS'AGTCAT'
p3093
I42047
sS'TCCTAT'
p3094
I30117
sS'TAACAT'
p3095
I37174
sS'CGTTGT'
p3096
I7196
sS'GAGCGA'
p3097
I13859
sS'TACCCT'
p3098
I26082
sS'CTTTCA'
p3099
I61191
sS'CTTTCG'
p3100
I9194
sS'AGCCGT'
p3101
I10369
sS'GAGCGC'
p3102
I18463
sS'GTTGAT'
p3103
I22070
sS'CGACCA'
p3104
I6733
sS'CGACCC'
p3105
I12034
sS'GCATAC'
p3106
I14261
sS'CGACCG'
p3107
I4455
sS'CCTTAT'
p3108
I33388
sS'GTTGAC'
p3109
I18301
sS'GTTGAA'
p3110
I32676
sS'GTTGAG'
p3111
I30848
sS'CCTTAC'
p3112
I23671
sS'CCTTAA'
p3113
I34587
sS'CCTTAG'
p3114
I30238
sS'CGACCT'
p3115
I9606
sS'CAACTC'
p3116
I34062
sS'CAACTA'
p3117
I22597
sS'CAACTG'
p3118
I37035
sS'AATAGG'
p3119
I28735
sS'AATATC'
p3120
I31436
sS'TCTCAA'
p3121
I60456
sS'GGGGTT'
p3122
I39185
sS'GTCCCT'
p3123
I45824
sS'GGATGT'
p3124
I30775
sS'AATAGT'
p3125
I30686
sS'GGGCTT'
p3126
I46093
sS'CAACTT'
p3127
I38070
sS'GGGGTG'
p3128
I63337
sS'GGATGA'
p3129
I37539
sS'GGGGTC'
p3130
I37835
sS'GGGGTA'
p3131
I21432
sS'TCTCCG'
p3132
I16430
sS'GAGTCC'
p3133
I34257
sS'AAACTG'
p3134
I65694
sS'TCTCCC'
p3135
I78729
sS'CCCTTT'
p3136
I61772
sS'TCTCCA'
p3137
I72393
sS'AAACTC'
p3138
I49724
sS'CTATGA'
p3139
I28048
sS'AGTACG'
p3140
I4323
sS'ACGCGC'
p3141
I8010
sS'AGTACC'
p3142
I18007
sS'ACGCGG'
p3143
I8795
sS'TGCCGC'
p3144
I16167
sS'AAACTT'
p3145
I57880
sS'CCCTTC'
p3146
I66043
sS'TCTCCT'
p3147
I85425
sS'GAGTCT'
p3148
I41791
sS'AGTACT'
p3149
I25905
sS'CTATGT'
p3150
I30202
sS'GCCGAA'
p3151
I8329
sS'GTGGAG'
p3152
I58433
sS'GCCGAC'
p3153
I9164
sS'GTGGAC'
p3154
I25778
sS'GCCGAG'
p3155
I27894
sS'GTGGAA'
p3156
I47570
sS'CGCCCC'
p3157
I49029
sS'GTGGAT'
p3158
I30561
sS'ACGAAC'
p3159
I5410
sS'CCTATT'
p3160
I28626
sS'CACTGT'
p3161
I56764
sS'GTAGTC'
p3162
I18235
sS'AAATCG'
p3163
I8266
sS'GTAGTA'
p3164
I17044
sS'GTAGTG'
p3165
I21224
sS'AAATCC'
p3166
I43925
sS'ACCGAA'
p3167
I7074
sS'AAATCA'
p3168
I59431
sS'ATGTCT'
p3169
I42703
sS'CACGCT'
p3170
I13758
sS'AAATCT'
p3171
I55768
sS'ACCGAT'
p3172
I4193
sS'GTAGTT'
p3173
I24240
sS'AGATAA'
p3174
I60485
sS'CGTTAT'
p3175
I5798
sS'GATGAT'
p3176
I29764
sS'GGAGCA'
p3177
I50511
sS'GGAGCC'
p3178
I61273
sS'AAAGTG'
p3179
I67163
sS'GNTTAG'
p3180
I1
sS'CCAAAT'
p3181
I49164
sS'GGAGCG'
p3182
I23202
sS'AAAACT'
p3183
I70595
sS'GATGAC'
p3184
I28930
sS'GATGAA'
p3185
I41790
sS'GATGAG'
p3186
I42331
sS'CAATTT'
p3187
I48304
sS'ACTAAC'
p3188
I18978
sS'CCAAAC'
p3189
I40960
sS'AAAACG'
p3190
I16256
sS'GGAGCT'
p3191
I56996
sS'CCAAAG'
p3192
I65005
sS'TCGCGG'
p3193
I8541
sS'CGGTCC'
p3194
I11765
sS'TCGCGC'
p3195
I8688
sS'TCGCGA'
p3196
I3280
sS'GCCACA'
p3197
I52698
sS'AGATCA'
p3198
I40114
sS'GCCACC'
p3199
I59672
sS'AGATCC'
p3200
I28971
sS'AACGTG'
p3201
I12190
sS'CGACGG'
p3202
I5093
sS'GCCACG'
p3203
I19145
sS'AGATCG'
p3204
I9289
sS'ACCAGC'
p3205
I49036
sS'TCGCGT'
p3206
I3237
sS'ACCTAG'
p3207
I25218
sS'ACCCGT'
p3208
I7442
sS'AGAAAG'
p3209
I99146
sS'TCCCTT'
p3210
I66673
sS'AGAAAC'
p3211
I66741
sS'AGATAT'
p3212
I35228
sS'AGAAAA'
p3213
I138065
sS'TACCCC'
p3214
I21249
sS'ATGTAC'
p3215
I22465
sS'ACTTCG'
p3216
I7768
sS'ATGTAA'
p3217
I42916
sS'ACCACT'
p3218
I40214
sS'ATGTAG'
p3219
I26957
sS'GAGGAT'
p3220
I42061
sS'CTACCA'
p3221
I28551
sS'GTTCCG'
p3222
I8338
sS'GACGAC'
p3223
I5977
sS'ATGTCG'
p3224
I5105
sS'ATGTAT'
p3225
I40051
sS'GGTCGT'
p3226
I5877
sS'ATTAGA'
p3227
I33395
sS'CACTGA'
p3228
I52909
sS'GTTCCC'
p3229
I37763
sS'ATCCAT'
p3230
I30915
sS'AGCACT'
p3231
I54404
sS'TTAGAA'
p3232
I52858
sS'CGGCTG'
p3233
I24782
sS'TTAGAC'
p3234
I20539
sS'CGGCTC'
p3235
I25396
sS'TTAGAG'
p3236
I38257
sS'CGGCTA'
p3237
I7676
sS'AGCACC'
p3238
I40267
sS'AGCACA'
p3239
I53709
sS'AGCACG'
p3240
I12421
sS'CGGCTT'
p3241
I13641
sS'CGCCCT'
p3242
I24518
sS'TTAGAT'
p3243
I30271
sS'ATATCG'
p3244
I3519
sS'CGAAGC'
p3245
I9986
sS'CCAGCC'
p3246
I106454
sS'AAAGAG'
p3247
I77695
sS'AACTAC'
p3248
I24565
sS'ATATCA'
p3249
I30409
sS'CGACGT'
p3250
I2887
sS'TTATTT'
p3251
I112528
sS'TGTGAG'
p3252
I57046
sS'TGTGAA'
p3253
I56467
sS'GGGAGG'
p3254
I138809
sS'TGTGAC'
p3255
I42645
sS'ATATCT'
p3256
I35429
sS'CCAGCT'
p3257
I81081
sS'AAAGAT'
p3258
I58634
sS'TGTGAT'
p3259
I44003
sS'TTATTG'
p3260
I39093
sS'TTATTA'
p3261
I52035
sS'GAAAGC'
p3262
I48640
sS'TTATTC'
p3263
I42997
sS'ACATCT'
p3264
I42772
sS'TTTTAT'
p3265
I94407
sS'GCGAAC'
p3266
I4971
sS'CTTACT'
p3267
I34422
sS'TCCACT'
p3268
I46105
sS'TACAAA'
p3269
I58747
sS'AGACGA'
p3270
I9078
sS'CACAAT'
p3271
I36129
sS'CCTCTG'
p3272
I87108
sS'AGGTGG'
p3273
I69929
sS'ATTAGT'
p3274
I26279
sS'CCTCTC'
p3275
I80014
sS'AGGTGC'
p3276
I36963
sS'CCTCTA'
p3277
I35416
sS'AGGTGA'
p3278
I53157
sS'CTTACG'
p3279
I5967
sS'TCCACA'
p3280
I50953
sS'TTTTAG'
p3281
I61432
sS'TCCACC'
p3282
I52495
sS'TTTTAA'
p3283
I123730
sS'ACATCA'
p3284
I37409
sS'TTTTAC'
p3285
I51328
sS'ACATCC'
p3286
I31149
sS'AGGTGT'
p3287
I39981
sS'CCTCTT'
p3288
I68510
sS'CGTCGG'
p3289
I5340
sS'CCCGGC'
p3290
I44955
sS'CCCGGA'
p3291
I21059
sS'NNCTGA'
p3292
I1
sS'CCCGGG'
p3293
I46484
sS'TTGTGT'
p3294
I49917
sS'TGGAAT'
p3295
I48961
sS'TAGGTG'
p3296
I28492
sS'TTGTGC'
p3297
I31413
sS'TATGAT'
p3298
I28015
sS'TTGTGG'
p3299
I44668
sS'CCCGGT'
p3300
I12935
sS'GGCGTG'
p3301
I27409
sS'TGGAAG'
p3302
I66875
sS'TATCAC'
p3303
I25910
sS'TGGAAA'
p3304
I79134
sS'TGAGGA'
p3305
I64570
sS'AAGAGG'
p3306
I68412
sS'TGAGGC'
p3307
I63765
sS'AAGAGA'
p3308
I80262
sS'AAGAGC'
p3309
I46759
sS'TGAGGG'
p3310
I56799
sS'GCTTAG'
p3311
I25532
sS'GCTTAC'
p3312
I18735
sS'GCTTAA'
p3313
I27802
sS'TGATTC'
p3314
I36286
sS'AAGCGC'
p3315
I10798
sS'AAGAGT'
p3316
I43742
sS'AAGCGA'
p3317
I12197
sS'NGCGCC'
p3318
I1
sS'TGAGGT'
p3319
I51880
sS'GCTTAT'
p3320
I26756
sS'CTGCTA'
p3321
I34454
sS'GCGTGT'
p3322
I12695
sS'CTGCTC'
p3323
I66425
sS'ACTTCT'
p3324
I54498
sS'GACCGT'
p3325
I6592
sS'CTGCTG'
p3326
I92131
sS'CGGTCA'
p3327
I8249
sS'CTATGG'
p3328
I22955
sS'CTAGAG'
p3329
I36100
sS'CTAGAA'
p3330
I43034
sS'GAAAGT'
p3331
I48949
sS'GACCGA'
p3332
I7122
sS'GACCGC'
p3333
I10058
sS'ACTTCC'
p3334
I54691
sS'CTGCTT'
p3335
I69430
sS'ACTTCA'
p3336
I47004
sS'TCGGAA'
p3337
I8143
sS'CTAGAT'
p3338
I25104
sS'GGTCGG'
p3339
I11870
sS'CGGTCT'
p3340
I9719
sS'GGTCGC'
p3341
I9472
sS'GGTCGA'
p3342
I5244
sS'CGTCGC'
p3343
I5972
sS'CAGCAT'
p3344
I48888
sS'TGAAGC'
p3345
I42803
sS'GCGTGA'
p3346
I16015
sS'GCGTGC'
p3347
I13002
sS'TGCTCA'
p3348
I51300
sS'TTCATC'
p3349
I41949
sS'TGCTCC'
p3350
I50283
sS'TTCATA'
p3351
I40063
sS'TTCATG'
p3352
I45415
sS'TGCTCG'
p3353
I9817
sS'GTACAA'
p3354
I22573
sS'CAGCAG'
p3355
I91861
sS'TACACT'
p3356
I27163
sS'GCTTTG'
p3357
I50041
sS'CAGCAC'
p3358
I63112
sS'CAGCAA'
p3359
I58812
sS'ATATCC'
p3360
I22850
sS'ACGACT'
p3361
I6108
sS'TGCTCT'
p3362
I61346
sS'TTCATT'
p3363
I73373
sS'GCTTTA'
p3364
I35075
sS'GCTGCC'
p3365
I65423
sS'GCTGCA'
p3366
I59666
sS'AACTCT'
p3367
I46217
sS'TGGCCC'
p3368
I53121
sS'TGGCCA'
p3369
I67654
sS'GTAGCA'
p3370
I23513
sS'AGCAAA'
p3371
I65925
sS'TGGCCT'
p3372
I66227
sS'AACTCC'
p3373
I49227
sS'GCTGCT'
p3374
I70454
sS'AACTCG'
p3375
I8096
sS'CAGTCG'
p3376
I8469
sS'AATATT'
p3377
I66470
sS'GTTCGA'
p3378
I7013
sS'CAACCT'
p3379
I39273
sS'TGGCCG'
p3380
I19871
sS'GGCACG'
p3381
I15012
sS'GGCACA'
p3382
I45890
sS'GACAAT'
p3383
I25693
sS'GGCACC'
p3384
I35898
sS'CAACCG'
p3385
I7121
sS'GTACAT'
p3386
I22789
sS'AATATG'
p3387
I40575
sS'CGGTCG'
p3388
I4396
sS'AATATA'
p3389
I49739
sS'AGCAAG'
p3390
I56556
sS'CAACCA'
p3391
I35165
sS'CTTCGT'
p3392
I9448
sS'GACAAA'
p3393
I47015
sS'GGCACT'
p3394
I36555
sS'GACAAC'
p3395
I23155
sS'ACGACA'
p3396
I6687
sS'GACAAG'
p3397
I36828
sS'GCTGCG'
p3398
I24737
sS'GCAATC'
p3399
I21979
sS'GCAATA'
p3400
I23711
sS'GAATTT'
p3401
I54590
sS'CGATGG'
p3402
I8101
sS'GNAGAA'
p3403
I1
sS'TCCCAT'
p3404
I45811
sS'CGATGC'
p3405
I6165
sS'GTAAAT'
p3406
I39494
sS'CGATGA'
p3407
I6984
sS'GAATTA'
p3408
I35435
sS'GAATTC'
p3409
I36264
sS'GAATTG'
p3410
I32360
sS'TCCCAA'
p3411
I61633
sS'CTACAC'
p3412
I22904
sS'GTAAAA'
p3413
I51339
sS'GTAAAG'
p3414
I32669
sS'TCCCAG'
p3415
I102013
sS'GGATTT'
p3416
I43967
sS'GTGCGT'
p3417
I9775
sS'CAAGTA'
p3418
I31176
sS'ATGGTA'
p3419
I26283
sS'GGATTC'
p3420
I28278
sS'GGATTA'
p3421
I38729
sS'GGATTG'
p3422
I25613
sS'AGCGGC'
p3423
I20616
sS'ATGGTG'
p3424
I45085
sS'AAAGCC'
p3425
I52421
sS'TCTGTG'
p3426
I74207
sS'TCTGTC'
p3427
I64245
sS'GTCCCG'
p3428
I16513
sS'TCTGTA'
p3429
I46876
sS'GGCGGC'
p3430
I45064
sS'CTCCTT'
p3431
I73207
sS'GGCGGA'
p3432
I25511
sS'CAGATA'
p3433
I41898
sS'GGCGGG'
p3434
I61477
sS'ACTCCT'
p3435
I54945
sS'CTATCC'
p3436
I19070
sS'TCTGTT'
p3437
I65456
sS'AAAGCG'
p3438
I12039
sS'CTCCTG'
p3439
I102409
sS'AACCGT'
p3440
I6911
sS'CTCCTA'
p3441
I38518
sS'CTCCTC'
p3442
I91851
sS'GGCGGT'
p3443
I15365
sS'GACGCA'
p3444
I9161
sS'CCCACG'
p3445
I22276
sS'AACAAC'
p3446
I38586
sS'CCCACC'
p3447
I84178
sS'TACTTC'
p3448
I32673
sS'AGCCTT'
p3449
I51771
sS'AACGAC'
p3450
I5668
sS'CCGATT'
p3451
I5918
sS'CCCACT'
p3452
I55162
sS'GGTCTT'
p3453
I37242
sS'GACGCT'
p3454
I10165
sS'AGCGGT'
p3455
I9248
sS'CCGATA'
p3456
I3386
sS'AGCCTG'
p3457
I87087
sS'AGCCTA'
p3458
I28539
sS'AGCCTC'
p3459
I75022
sS'GTACCC'
p3460
I14552
sS'GAGTTT'
p3461
I49642
sS'TGGTTA'
p3462
I30705
sS'CGCCTT'
p3463
I15404
sS'TGGTTC'
p3464
I35675
sS'TCNNNN'
p3465
I1
sS'CAGAGT'
p3466
I58078
sS'CAGTCA'
p3467
I45615
sS'ACCTCG'
p3468
I13976
sS'TGGTTT'
p3469
I61193
sS'CGCCTC'
p3470
I33416
sS'AGGCAA'
p3471
I52237
sS'CGCCTA'
p3472
I7288
sS'GCGCCG'
p3473
I23498
sS'CGCCTG'
p3474
I32310
sS'GTACCT'
p3475
I20499
sS'CAGAGG'
p3476
I87746
sS'GCATCC'
p3477
I26857
sS'CTCCCC'
p3478
I92433
sS'CAGAGC'
p3479
I74055
sS'AAAATT'
p3480
I95212
sS'CAGAGA'
p3481
I87877
sS'TAGCTA'
p3482
I23492
sS'AGACTC'
p3483
I41814
sS'CCTAGA'
p3484
I34355
sS'CCTAGC'
p3485
I27140
sS'TTTGCT'
p3486
I65630
sS'CGGGAG'
p3487
I35516
sS'TGCGGT'
p3488
I11042
sS'CCTAGG'
p3489
I35468
sS'TAAGCA'
p3490
I37803
sS'GTCTAG'
p3491
I20667
sS'TGCGGC'
p3492
I16153
sS'TTTGCC'
p3493
I45848
sS'CCTAGT'
p3494
I23954
sS'TGCGGG'
p3495
I19838
sS'TTTGCG'
p3496
I8061
sS'TGAGTT'
p3497
I45261
sS'CGGGAC'
p3498
I16502
sS'ATCGCT'
p3499
I9813
sS'TAATCT'
p3500
I36670
sS'ATCGCC'
p3501
I7360
sS'TGAGTG'
p3502
I47538
sS'ATCGCA'
p3503
I6418
sS'TGAGTA'
p3504
I33298
sS'ATCGCG'
p3505
I4528
sS'TGAGTC'
p3506
I45414
sS'AAGGTG'
p3507
I46046
sS'AAGGTC'
p3508
I34718
sS'CATCAT'
p3509
I36357
sS'AAGGTA'
p3510
I31506
sS'ATTTCG'
p3511
I6860
sS'AAGCGG'
p3512
I13152
sS'ACGGCA'
p3513
I9727
sS'CATCAC'
p3514
I35649
sS'AAGGTT'
p3515
I37332
sS'TACACC'
p3516
I18147
sS'CATCAG'
p3517
I42073
sS'ACGGCG'
p3518
I7464
sS'TCACCT'
p3519
I53115
sS'TCTAAG'
p3520
I34696
sS'CGGAAT'
p3521
I6822
sS'CAATTC'
p3522
I32673
sS'ATCGAT'
p3523
I3989
sS'TCACCG'
p3524
I12983
sS'TCACCA'
p3525
I50932
sS'TCACCC'
p3526
I47379
sS'CGGAAG'
p3527
I17179
sS'CAACCC'
p3528
I33674
sS'AACTGG'
p3529
I43906
sS'AAAATA'
p3530
I122214
sS'CGGAAC'
p3531
I8112
sS'AGCTCG'
p3532
I11388
sS'CGGAAA'
p3533
I12204
sS'GCCTCA'
p3534
I63247
sS'TGTGTC'
p3535
I48377
sS'TGTGTA'
p3536
I42875
sS'CCGTAG'
p3537
I5939
sS'ATGGCC'
p3538
I33226
sS'ATGGCA'
p3539
I42257
sS'TTACTT'
p3540
I48902
sS'TCGTCC'
p3541
I8804
sS'ATGGCT'
p3542
I43284
sS'TGTGTT'
p3543
I61142
sS'AGATTA'
p3544
I36510
sS'GAAACG'
p3545
I13163
sS'GAAACA'
p3546
I63614
sS'AGATTG'
p3547
I31429
sS'CTGAGT'
p3548
I56480
sS'AGGTAC'
p3549
I20383
sS'GAAACT'
p3550
I53984
sS'AGAATG'
p3551
I57938
sS'AGATTT'
p3552
I55747
sS'ACATAC'
p3553
I29404
sS'CTGAGC'
p3554
I62959
sS'CTGAGA'
p3555
I72219
sS'CTGAGG'
p3556
I87444
sS'CATACC'
p3557
I18874
sS'CATACA'
p3558
I34041
sS'CATACG'
p3559
I4957
sS'TCAAAT'
p3560
I51693
sS'GTCCAT'
p3561
I24216
sS'ACATAG'
p3562
I30017
sS'CAGGAC'
p3563
I48725
sS'CATACT'
p3564
I24647
sS'GTCCAG'
p3565
I42776
sS'TCAAAG'
p3566
I52200
sS'TCAAAA'
p3567
I73987
sS'TCAAAC'
p3568
I38863
sS'CGGCGG'
p3569
I32263
sS'TTGATG'
p3570
I31439
sS'ATCGAG'
p3571
I6221
sS'CGGCGC'
p3572
I23389
sS'TTGATC'
p3573
I21764
sS'CGGCGA'
p3574
I8451
sS'TTGATA'
p3575
I28393
sS'CTATCT'
p3576
I32294
sS'TTGATT'
p3577
I41147
sS'CGAGTG'
p3578
I10201
sS'GTACGC'
p3579
I3051
sS'CTACGC'
p3580
I5223
sS'CCATTA'
p3581
I27789
sS'TCCAAC'
p3582
I31095
sS'CGGTTA'
p3583
I4747
sS'GGTTTA'
p3584
I28048
sS'CGGTTC'
p3585
I8966
sS'GCTGTT'
p3586
I46810
sS'TTTACA'
p3587
I57732
sS'CGGTTG'
p3588
I7052
sS'GGTTTG'
p3589
I38838
sS'TATAAA'
p3590
I60032
sS'CGTACG'
p3591
I1545
sS'GCTGTG'
p3592
I68978
sS'GGTTTT'
p3593
I56115
sS'CGGTTT'
p3594
I10266
sS'GCTGTA'
p3595
I30290
sS'AGGGGC'
p3596
I60063
sS'AGGTTG'
p3597
I38912
sS'AGGTTC'
p3598
I31963
sS'AGGTTA'
p3599
I29358
sS'CNNNNN'
p3600
I1
sS'GAGGGA'
p3601
I77082
sS'TTTTTC'
p3602
I107448
sS'GAGGGC'
p3603
I56053
sS'TTTTTA'
p3604
I120145
sS'TTTTTG'
p3605
I100281
sS'GAGGGG'
p3606
I78233
sS'TTAAAT'
p3607
I70176
sS'AGGTTT'
p3608
I49421
sS'TAAGCG'
p3609
I5675
sS'ACATAT'
p3610
I39535
sS'ANACAG'
p3611
I1
sS'TTAAAC'
p3612
I39931
sS'ATACGT'
p3613
I6707
sS'TTAAAA'
p3614
I124232
sS'ACTCCG'
p3615
I13275
sS'TTAAAG'
p3616
I55308
sS'GAGGGT'
p3617
I42750
sS'TTTTTT'
p3618
I354301
sS'ACTCCC'
p3619
I44566
sS'TAGGCT'
p3620
I28336
sS'GTCACG'
p3621
I10471
sS'CTGTAC'
p3622
I27031
sS'GCAACT'
p3623
I27909
sS'GCAATT'
p3624
I29690
sS'CTGTAG'
p3625
I38927
sS'GTCACA'
p3626
I42850
sS'AGGGAT'
p3627
I38803
sS'GTCACT'
p3628
I41667
sS'TAGGCG'
p3629
I7305
sS'GCAACC'
p3630
I27541
sS'TAGGCA'
p3631
I32368
sS'GCAACA'
p3632
I38865
sS'TAGGCC'
p3633
I22240
sS'AAAACC'
p3634
I56537
sS'CGATGT'
p3635
I6091
sS'ATTCAT'
p3636
I50191
sS'TCCCAC'
p3637
I60016
sS'GCGATT'
p3638
I7560
sS'TCGTGT'
p3639
I8611
sS'TTCACT'
p3640
I54615
sS'GTCTCT'
p3641
I56731
sS'AACATT'
p3642
I55679
sS'ATTCAG'
p3643
I47795
sS'ATTCAA'
p3644
I45280
sS'ATTCAC'
p3645
I34944
sS'GTCTCC'
p3646
I48903
sS'TCGTGG'
p3647
I11471
sS'GCGATG'
p3648
I8176
sS'TTCACC'
p3649
I40514
sS'GCGATA'
p3650
I3642
sS'TCGTGC'
p3651
I8112
sS'GCGATC'
p3652
I8593
sS'GAAGGC'
p3653
I49383
sS'GAAGGA'
p3654
I72450
sS'GAAGGG'
p3655
I65803
sS'CGATTA'
p3656
I4072
sS'GGAACC'
p3657
I32851
sS'GGAACA'
p3658
I43758
sS'GGAACG'
p3659
I10614
sS'TACTGC'
p3660
I26897
sS'CGATTT'
p3661
I8196
sS'AAAACA'
p3662
I112145
sS'GAAGGT'
p3663
I39313
sS'CTCGCT'
p3664
I18407
sS'CAATCG'
p3665
I4781
sS'CAATCA'
p3666
I32384
sS'GGAACT'
p3667
I41043
sS'CCAAGT'
p3668
I43402
sS'AGTCCA'
p3669
I38155
sS'TCCTGC'
p3670
I71793
sS'AGTCCC'
p3671
I43925
sS'ACTAAA'
p3672
I44235
sS'TCCTGG'
p3673
I87314
sS'AGTCCG'
p3674
I8534
sS'TAACGC'
p3675
I4801
sS'CAGCTG'
p3676
I85422
sS'CAGCTA'
p3677
I43370
sS'CAGCTC'
p3678
I69781
sS'ACTAAT'
p3679
I26167
sS'CGACTC'
p3680
I8707
sS'AGTCCT'
p3681
I44590
sS'TCCTGT'
p3682
I60668
sS'CAGCTT'
p3683
I59414
sS'TAACGT'
p3684
I6769
sS'CAGGCA'
p3685
I81994
sS'GTACTT'
p3686
I26129
sS'CGACAT'
p3687
I5145
sS'TTGTTC'
p3688
I41048
sS'CGCAAG'
p3689
I8475
sS'TTGTTA'
p3690
I40748
sS'TTGTTG'
p3691
I44411
sS'CAGGCC'
p3692
I72368
sS'CCGAGC'
p3693
I18401
sS'CCGCGT'
p3694
I8648
sS'CGACAC'
p3695
I6779
sS'CGACAA'
p3696
I5468
sS'CGACAG'
p3697
I11895
sS'GTACTA'
p3698
I14297
sS'CCGCGC'
p3699
I29643
sS'AGCCAC'
p3700
I65195
sS'CCGCGA'
p3701
I8505
sS'TACGCA'
p3702
I5106
sS'CCGCGG'
p3703
I26592
sS'TTGTTT'
p3704
I97554
sS'GCATAT'
p3705
I24787
sS'AACATG'
p3706
I47209
sS'AGCCAA'
p3707
I51864
sS'AATAAC'
p3708
I35754
sS'AATAAA'
p3709
I106672
sS'AATAAG'
p3710
I43505
sS'CATTCC'
p3711
I44744
sS'TACTAA'
p3712
I30098
sS'AATAAT'
p3713
I62206
sS'ACGGTG'
p3714
I13255
sS'CCAACC'
p3715
I35692
sS'CCAACA'
p3716
I43951
sS'CCAACG'
p3717
I8519
sS'CGCCGC'
p3718
I36026
sS'AGTAAA'
p3719
I52671
sS'CGCCGA'
p3720
I8197
sS'GAGTAG'
p3721
I30560
sS'CGCCGG'
p3722
I20420
sS'GAGTAA'
p3723
I29524
sS'AGTAAG'
p3724
I34493
sS'CTCAGG'
p3725
I75364
sS'CTCAGC'
p3726
I80335
sS'CTCAGA'
p3727
I66998
sS'GAGTAT'
p3728
I20469
sS'GCTTCA'
p3729
I42492
sS'GTGTAG'
p3730
I22690
sS'TCGAGC'
p3731
I6618
sS'AGTAAT'
p3732
I33551
sS'GTGTAC'
p3733
I17215
sS'TCGAGG'
p3734
I10845
sS'GTGGCA'
p3735
I47143
sS'GTGGCC'
p3736
I49915
sS'ATCGTA'
p3737
I4194
sS'GTGGCG'
p3738
I21060
sS'GCCGCC'
p3739
I45205
sS'GCCGCA'
p3740
I16299
sS'GCCGCG'
p3741
I25945
sS'ACACTT'
p3742
I43324
sS'CATATG'
p3743
I29266
sS'GTGGCT'
p3744
I65350
sS'CATATA'
p3745
I32274
sS'GTCAGC'
p3746
I35682
sS'TACTAC'
p3747
I17030
sS'ACACTC'
p3748
I35004
sS'ACACTA'
p3749
I24926
sS'ACACTG'
p3750
I51611
sS'GCCGCT'
p3751
I20426
sS'ACCGGA'
p3752
I8133
sS'AAATAA'
p3753
I113234
sS'ACCGGC'
p3754
I10827
sS'TCAGCC'
p3755
I66776
sS'CTTTAA'
p3756
I55588
sS'AATCCT'
p3757
I44053
sS'AAATAG'
p3758
I52048
sS'AACTTA'
p3759
I33893
sS'CAGGTA'
p3760
I31421
sS'AACTTC'
p3761
I43534
sS'CAGGTC'
p3762
I40231
sS'CACGAC'
p3763
I7112
sS'AACTTG'
p3764
I40135
sS'CAGGTG'
p3765
I63896
sS'CTTTAT'
p3766
I51998
sS'AATCCC'
p3767
I45515
sS'TTTATC'
p3768
I46187
sS'AATCCA'
p3769
I41158
sS'AAATAT'
p3770
I82676
sS'AATCCG'
p3771
I6590
sS'GATACA'
p3772
I25519
sS'CACGAT'
p3773
I8108
sS'CAGGTT'
p3774
I43230
sS'AACTTT'
p3775
I57430
sS'GTGTGN'
p3776
I1
sS'GGGATA'
p3777
I22422
sS'GGGATC'
p3778
I25998
sS'GGGTGT'
p3779
I40262
sS'GGGATG'
p3780
I42170
sS'GATGCT'
p3781
I32500
sS'CGCAGT'
p3782
I12514
sS'GAGTCG'
p3783
I8843
sS'GAGCCT'
p3784
I50484
sS'GGAGAC'
p3785
I48538
sS'GGGTGA'
p3786
I47260
sS'GGAGAA'
p3787
I77733
sS'GGGTGC'
p3788
I35974
sS'GGGATT'
p3789
I45989
sS'TGGAAC'
p3790
I35667
sS'AATCAA'
p3791
I41253
sS'GGGTGG'
p3792
I78255
sS'GAGCCA'
p3793
I65756
sS'CGCAGG'
p3794
I23505
sS'GATGCG'
p3795
I7125
sS'CGCAGA'
p3796
I14912
sS'GATGCA'
p3797
I28202
sS'CGCAGC'
p3798
I25031
sS'GATGCC'
p3799
I26421
sS'CGGATT'
p3800
I6480
sS'GGTAGT'
p3801
I17859
sS'ACCCCT'
p3802
I42337
sS'GCCAAT'
p3803
I25494
sS'AACCGC'
p3804
I8642
sS'AGAAGT'
p3805
I54867
sS'GCCAAC'
p3806
I27391
sS'GGTAGA'
p3807
I27251
sS'GCCAAA'
p3808
I41747
sS'CGGATG'
p3809
I8628
sS'GCCAAG'
p3810
I51866
sS'CGGATA'
p3811
I3978
sS'ACCCCG'
p3812
I20588
sS'CGGATC'
p3813
I8629
sS'AGAAGA'
p3814
I77104
sS'AGAAGC'
p3815
I57974
sS'GCAAGA'
p3816
I44609
sS'AGAAGG'
p3817
I73776
sS'CACTCC'
p3818
I56775
sS'CCCCGT'
p3819
I17843
sS'CACTCG'
p3820
I10426
sS'TGCGTT'
p3821
I8651
sS'GCAAGG'
p3822
I41949
sS'AGCTTT'
p3823
I54536
sS'CCCCGG'
p3824
I36710
sS'TGCGTA'
p3825
I5002
sS'NACAGC'
p3826
I1
sS'CCCCGC'
p3827
I54792
sS'CACTCT'
p3828
I51103
sS'AGCTTC'
p3829
I49202
sS'AGCTTA'
p3830
I28240
sS'AGCTTG'
p3831
I39753
sS'ATACGA'
p3832
I4622
sS'AGACCA'
p3833
I48824
sS'CCACTT'
p3834
I48806
sS'TTAGCT'
p3835
I34963
sS'TTAGCC'
p3836
I29009
sS'TTAGCA'
p3837
I35280
sS'CTAGCA'
p3838
I27209
sS'TTAGCG'
p3839
I5266
sS'TACCGG'
p3840
I5120
sS'ATAGGT'
p3841
I20121
sS'ATAAGG'
p3842
I32828
sS'TGTGCT'
p3843
I52842
sS'AAGGGC'
p3844
I44243
sS'ATAAGC'
p3845
I26992
sS'AAGGGA'
p3846
I66649
sS'ATAAGA'
p3847
I41301
sS'CCAGAC'
p3848
I45500
sS'CTACTC'
p3849
I30523
sS'CCAGAA'
p3850
I67862
sS'CCAGAG'
p3851
I77558
sS'TGTGCG'
p3852
I12838
sS'CTACCT'
p3853
I32236
sS'ATAAGT'
p3854
I28741
sS'AAGGGT'
p3855
I35583
sS'TGTGCC'
p3856
I45675
sS'ATAGGA'
p3857
I30205
sS'TGTGCA'
p3858
I48597
sS'ATAGGC'
p3859
I19823
sS'GCTCGC'
p3860
I14060
sS'ATACGC'
p3861
I3822
sS'AGACCG'
p3862
I9678
sS'CCAGAT'
p3863
I43486
sS'AGACAA'
p3864
I50879
sS'AACAAG'
p3865
I47422
sS'AGACAC'
p3866
I46161
sS'TCCATT'
p3867
I49318
sS'AGACAG'
p3868
I75620
sS'GCTTTT'
p3869
I61141
sS'TTTTCT'
p3870
I137014
sS'CGCTGT'
p3871
I14814
sS'GACGCC'
p3872
I13209
sS'CGTGGG'
p3873
I22003
sS'CGTGGC'
p3874
I18994
sS'CGTGGA'
p3875
I14422
sS'TTTTCG'
p3876
I9410
sS'CCCACA'
p3877
I62371
sS'CGCTGC'
p3878
I25342
sS'TTTTCC'
p3879
I87669
sS'TTTTCA'
p3880
I86821
sS'CGCTGG'
p3881
I23234
sS'TATGGA'
p3882
I27568
sS'TATGGC'
p3883
I20610
sS'CGTAGG'
p3884
I6394
sS'AACAAA'
p3885
I97307
sS'TATGGG'
p3886
I23786
sS'CGTAGC'
p3887
I5624
sS'TACCGT'
p3888
I5018
sS'TGGACT'
p3889
I37865
sS'CGTAGT'
p3890
I5164
sS'GCTCGA'
p3891
I6609
sS'TATGGT'
p3892
I24134
sS'TGGACA'
p3893
I43699
sS'TGGACC'
p3894
I26239
sS'TGGACG'
p3895
I10175
sS'CGTTAC'
p3896
I4532
sS'CCGGTT'
p3897
I8139
sS'CTAGCT'
p3898
I28208
sS'GCTTGA'
p3899
I35342
sS'TGAGAC'
p3900
I52922
sS'GCTTGC'
p3901
I29146
sS'TGAGAA'
p3902
I72544
sS'TGAGAG'
p3903
I57542
sS'GCTTGG'
p3904
I41714
sS'CCTGTT'
p3905
I48320
sS'CCGGTG'
p3906
I13530
sS'CCTTGC'
p3907
I41638
sS'CCGGTA'
p3908
I5131
sS'CCTGTC'
p3909
I54298
sS'CCTGTA'
p3910
I47601
sS'CCTGTG'
p3911
I67190
sS'GCTTGT'
p3912
I31803
sS'TGAGAT'
p3913
I52752
sS'GGTTGT'
p3914
I26672
sS'TATCAG'
p3915
I32779
sS'TAGCGT'
p3916
I4928
sS'GGTTGG'
p3917
I34994
sS'AACAAT'
p3918
I43033
sS'GGTTGA'
p3919
I25036
sS'TTCACG'
p3920
I10914
sS'GGTTGC'
p3921
I27460
sS'TCCCGC'
p3922
I25682
sS'TCCCGA'
p3923
I14292
sS'TCCCGG'
p3924
I28513
sS'TGCTAT'
p3925
I31733
sS'CGTTTT'
p3926
I16117
sS'ATTCTC'
p3927
I49821
sS'CTATAC'
p3928
I14820
sS'ATTCTA'
p3929
I39458
sS'ATTCTG'
p3930
I55464
sS'TCATTT'
p3931
I83510
sS'CAGCGA'
p3932
I14419
sS'TGCTAA'
p3933
I35171
sS'TATACT'
p3934
I25270
sS'TGCTAG'
p3935
I27150
sS'CAGCGG'
p3936
I23640
sS'AGGATC'
p3937
I31996
sS'TCATTC'
p3938
I50115
sS'CGTTTG'
p3939
I10521
sS'CGTTTA'
p3940
I8137
sS'ATTCTT'
p3941
I59461
sS'CGTTTC'
p3942
I13267
sS'ACCGGG'
p3943
I12965
sS'TGGCAA'
p3944
I43098
sS'CCGATC'
p3945
I5094
sS'TGGCAG'
p3946
I65334
sS'GCTGAG'
p3947
I80433
sS'GCTGAA'
p3948
I49038
sS'GCTGAC'
p3949
I35574
sS'TGGCAT'
p3950
I38413
sS'GGCCGG'
p3951
I39264
sS'CCGATG'
p3952
I6358
sS'GGCCGC'
p3953
I33773
sS'GAACTT'
p3954
I38106
sS'GGCCGA'
p3955
I19359
sS'GGCAAT'
p3956
I26253
sS'GACCTA'
p3957
I18543
sS'CGCTCG'
p3958
I9312
sS'ATCNNN'
p3959
I1
sS'CTGATT'
p3960
I44070
sS'CCATCG'
p3961
I8226
sS'CTAAAT'
p3962
I39930
sS'CCATCC'
p3963
I44611
sS'CCATCA'
p3964
I38613
sS'GGCAAG'
p3965
I43655
sS'CTGATA'
p3966
I32768
sS'TGGTTG'
p3967
I34644
sS'GGCAAC'
p3968
I30753
sS'GGCAAA'
p3969
I45873
sS'CTAAAG'
p3970
I36280
sS'CCATCT'
p3971
I57859
sS'CTAAAC'
p3972
I27398
sS'CTAAAA'
p3973
I61045
sS'GACACC'
p3974
I30709
sS'GACACA'
p3975
I48658
sS'GACACG'
p3976
I11387
sS'AGGCAT'
p3977
I45947
sS'TAGCGA'
p3978
I4722
sS'TACGAG'
p3979
I4572
sS'TACGAC'
p3980
I3031
sS'GGAAAG'
p3981
I75933
sS'GACACT'
p3982
I34558
sS'CGTGAG'
p3983
I18082
sS'TGTTAC'
p3984
I28457
sS'CTATTG'
p3985
I22405
sS'CTATTA'
p3986
I26791
sS'CTATTC'
p3987
I26001
sS'TCGATG'
p3988
I5313
sS'TCGATA'
p3989
I3270
sS'TCGATC'
p3990
I4397
sS'ACGCTT'
p3991
I8366
sS'CGCGAA'
p3992
I3881
sS'GCATTG'
p3993
I25326
sS'GCATCT'
p3994
I35081
sS'CAGCCT'
p3995
I112183
sS'TGCCTA'
p3996
I32151
sS'CTACCG'
p3997
I6289
sS'TCGGCA'
p3998
I8433
sS'ACGAAA'
p3999
I9538
sS'ACAATG'
p4000
I38268
sS'AACCAA'
p4001
I44285
sS'TGCCGG'
p4002
I15993
sS'AACCAC'
p4003
I40203
sS'GCGCCA'
p4004
I18615
sS'AACCAG'
p4005
I45681
sS'TGCCGA'
p4006
I8251
sS'TTGGAC'
p4007
I25191
sS'TCGGGC'
p4008
I13491
sS'NTTAGG'
p4009
I1
sS'CGCGAG'
p4010
I9929
sS'ATGATC'
p4011
I25900
sS'AGGCAG'
p4012
I100571
sS'TGCCGT'
p4013
I9984
sS'AACCAT'
p4014
I32972
sS'AACAGA'
p4015
I66441
sS'GGGAGT'
p4016
I44289
sS'AACAGC'
p4017
I46836
sS'CTACCC'
p4018
I26233
sS'AACAGG'
p4019
I49066
sS'ACGTCA'
p4020
I9726
sS'CCCAAG'
p4021
I57159
sS'TTGGAG'
p4022
I52065
sS'GACGAA'
p4023
I6450
sS'CCCAAC'
p4024
I39002
sS'CCCAAA'
p4025
I69338
sS'ACGTCT'
p4026
I9890
sS'GGGAGA'
p4027
I78516
sS'AACAGT'
p4028
I43108
sS'GGGAGC'
p4029
I59765
sS'ACGAAG'
p4030
I9716
sS'CCCAAT'
p4031
I26477
sS'GACGAT'
p4032
I4743
sS'GGGCGC'
p4033
I35220
sS'GGGCGA'
p4034
I17614
sS'GCATCA'
p4035
I27164
sS'GGGCGG'
p4036
I57398
sS'TCTCTT'
p4037
I79833
sS'TGGGGG'
p4038
I75100
sS'GTACAG'
p4039
I26924
sS'CGTTAA'
p4040
I6055
sS'CAGAAT'
p4041
I55688
sS'GTACAC'
p4042
I17126
sS'TCTCTC'
p4043
I89882
sS'TCTCTA'
p4044
I50743
sS'TCTCTG'
p4045
I87251
sS'GGGCGT'
p4046
I17702
sS'CAGAAA'
p4047
I95259
sS'CAGAAC'
p4048
I46720
sS'ACGACG'
p4049
I3029
sS'CAGAAG'
p4050
I75283
sS'CACTTT'
p4051
I67000
sS'CATATT'
p4052
I40813
sS'CCTAAT'
p4053
I26456
sS'CGCTAG'
p4054
I5990
sS'CACTTG'
p4055
I44718
sS'CCTAAC'
p4056
I23453
sS'CCTAAA'
p4057
I39394
sS'CACTTC'
p4058
I50953
sS'CCTAAG'
p4059
I30868
sS'CACTTA'
p4060
I35575
sS'GTCCCA'
p4061
I43177
sS'ACAGGA'
p4062
I60979
sS'CTGCGG'
p4063
I26440
sS'AAGATT'
p4064
I45078
sS'CTCATG'
p4065
I44969
sS'GACTCG'
p4066
I9387
sS'CTCATC'
p4067
I42735
sS'GACTCC'
p4068
I39174
sS'CTCATA'
p4069
I28549
sS'GACTCA'
p4070
I45170
sS'AAGATA'
p4071
I46370
sS'AAGATC'
p4072
I31668
sS'AAGATG'
p4073
I51518
sS'GACTCT'
p4074
I38404
sS'CTCATT'
p4075
I55480
sS'ATCGAA'
p4076
I4720
sS'ATCGAC'
p4077
I3298
sS'ATATTT'
p4078
I83127
sS'ATAGAG'
p4079
I29904
sS'AACTAA'
p4080
I35807
sS'ATAGTT'
p4081
I29141
sS'TACTGT'
p4082
I35789
sS'ATATTC'
p4083
I34607
sS'ATATTA'
p4084
I40150
sS'ATATTG'
p4085
I30336
sS'ATAGTA'
p4086
I24460
sS'ATAGTC'
p4087
I17958
sS'TACTGG'
p4088
I28604
sS'ATAGTG'
p4089
I25607
sS'GATCGA'
p4090
I4323
sS'ACGGAC'
p4091
I7144
sS'AGGAAG'
p4092
I106509
sS'CATCCG'
p4093
I8516
sS'ACGGAG'
p4094
I16513
sS'CATCCA'
p4095
I40085
sS'CAGGCG'
p4096
I32403
sS'CATCCC'
p4097
I42631
sS'TTATGA'
p4098
I36128
sS'TTATGC'
p4099
I23096
sS'CGGAGT'
p4100
I13307
sS'TTATGG'
p4101
I28041
sS'CATCCT'
p4102
I49239
sS'AGGAAT'
p4103
I52657
sS'TACAGC'
p4104
I30159
sS'CAGGCT'
p4105
I87246
sS'ACGGAT'
p4106
I5971
sS'CGGAGA'
p4107
I16403
sS'CGGAGC'
p4108
I23312
sS'TTATGT'
p4109
I40528
sS'CGGAGG'
p4110
I28291
sS'ATGGAA'
p4111
I52436
sS'ATGGAC'
p4112
I24400
sS'ATGGAG'
p4113
I51194
sS'CGCTTG'
p4114
I12392
sS'CGCTTA'
p4115
I5639
sS'CGCTTC'
p4116
I14374
sS'ATGGAT'
p4117
I30544
sS'TTTGCA'
p4118
I58346
sS'CGCTTT'
p4119
I12219
sS'GCCGTG'
p4120
I16259
sS'TGGGGA'
p4121
I81939
sS'GATCGT'
p4122
I5370
sS'TGCGGA'
p4123
I10976
sS'GAAAAG'
p4124
I79946
sS'GAAAAC'
p4125
I59426
sS'ATAGAT'
p4126
I28143
sS'GAAAAA'
p4127
I108287
sS'TAAGTA'
p4128
I31683
sS'TAGGGC'
p4129
I23686
sS'ACGGTT'
p4130
I6848
sS'GAAAAT'
p4131
I75236
sS'CACGCA'
p4132
I15108
sS'ACAAGG'
p4133
I42791
sS'ACAAGA'
p4134
I47293
sS'ACAAGC'
p4135
I32199
sS'ACACGT'
p4136
I12421
sS'CTGCGT'
p4137
I14551
sS'GCGGAG'
p4138
I28928
sS'CATAAG'
p4139
I25568
sS'GCGGAA'
p4140
I11724
sS'CATAAA'
p4141
I49015
sS'GCGGAC'
p4142
I10277
sS'CATAAC'
p4143
I21352
sS'ACACGC'
p4144
I12878
sS'ACAAGT'
p4145
I34614
sS'ACACGA'
p4146
I8597
sS'ACACGG'
p4147
I13539
sS'CATAAT'
p4148
I32610
sS'GCGGAT'
p4149
I8824
sS'GCACAT'
p4150
I34291
sS'GTCCCC'
p4151
I45200
sS'ATCCCA'
p4152
I53372
sS'CTGCGA'
p4153
I11679
sS'CTGCGC'
p4154
I23183
sS'CGGCAA'
p4155
I8525
sS'CGGCAC'
p4156
I11463
sS'CGGCAG'
p4157
I23050
sS'CCTCCT'
p4158
I106936
sS'AGCGCT'
p4159
I14350
sS'CGGCAT'
p4160
I7221
sS'CCTCCC'
p4161
I139779
sS'CCTCCA'
p4162
I77071
sS'CACGCC'
p4163
I27631
sS'CCTCCG'
p4164
I28276
sS'CGTGAT'
p4165
I10090
s.