(dp0
S'GGGCTT'
p1
I6172
sS'GAACGT'
p2
I978
sS'CGTCGT'
p3
I821
sS'CTTCTT'
p4
I9482
sS'CACCCT'
p5
I16861
sS'ATTGAA'
p6
I4573
sS'GAACGG'
p7
I2164
sS'GAACGC'
p8
I2101
sS'GAACGA'
p9
I1363
sS'CAACAT'
p10
I1592
sS'CACCCA'
p11
I26394
sS'CTTCTA'
p12
I16789
sS'CACCCC'
p13
I29449
sS'CTTCTC'
p14
I24859
sS'CACCCG'
p15
I9036
sS'CTTCTG'
p16
I31532
sS'CGTGTG'
p17
I7351
sS'TAAGGT'
p18
I2082
sS'ACATGG'
p19
I4824
sS'CGTGTC'
p20
I3693
sS'CGTGTA'
p21
I2951
sS'AGGCAA'
p22
I9200
sS'GGAAAT'
p23
I2918
sS'TAAGGG'
p24
I6020
sS'CGTGTT'
p25
I1353
sS'TAAGGC'
p26
I4499
sS'TAAGGA'
p27
I6062
sS'GTCAAA'
p28
I13197
sS'GTCAAC'
p29
I8541
sS'GTCAAG'
p30
I14229
sS'CTGTCC'
p31
I29280
sS'TCAGAG'
p32
I3929
sS'CTGTCA'
p33
I25426
sS'CTGTCG'
p34
I5116
sS'TCAGAC'
p35
I2032
sS'CTGTGC'
p36
I18193
sS'TCAGAA'
p37
I2658
sS'GTCAAT'
p38
I4735
sS'GTATCA'
p39
I7257
sS'GTATCC'
p40
I5955
sS'GTATCG'
p41
I1131
sS'CTGTCT'
p42
I25818
sS'GGTGTC'
p43
I7738
sS'GGTGTA'
p44
I6442
sS'GGTGTG'
p45
I16765
sS'TATCCT'
p46
I9222
sS'CCGGGG'
p47
I6082
sS'TTCTGT'
p48
I26549
sS'GTATTG'
p49
I7251
sS'CCGGGC'
p50
I4862
sS'CCGGGA'
p51
I3418
sS'TATCCA'
p52
I12219
sS'TATCCC'
p53
I10078
sS'TATCCG'
p54
I2164
sS'GGTGTT'
p55
I2636
sS'ATTCCG'
p56
I1734
sS'TTCTGG'
p57
I32928
sS'CCGGGT'
p58
I1244
sS'ATTCCC'
p59
I7019
sS'TTCTGC'
p60
I31978
sS'ATTCCA'
p61
I8637
sS'TTCTGA'
p62
I30761
sS'CTTGGA'
p63
I7682
sS'GGNCCG'
p64
I1
sS'CGTCAT'
p65
I1295
sS'CGCGGT'
p66
I2351
sS'CCCGCG'
p67
I10519
sS'CGCGGG'
p68
I12060
sS'NCCGCC'
p69
I1
sS'CGCGGC'
p70
I11282
sS'CGCGGA'
p71
I4455
sS'ACAGGT'
p72
I1101
sS'ACCTGT'
p73
I7130
sS'ATACTA'
p74
I4263
sS'TCATGT'
p75
I3905
sS'CTCCGA'
p76
I5319
sS'TTACAG'
p77
I5374
sS'CTCCGC'
p78
I15034
sS'TTACAA'
p79
I3797
sS'TTACAC'
p80
I2117
sS'CTCCGG'
p81
I11607
sS'TCATGC'
p82
I3841
sS'ACCTGG'
p83
I16665
sS'GGCGAA'
p84
I2761
sS'TCATGG'
p85
I4931
sS'ACCTGC'
p86
I14636
sS'ACCTGA'
p87
I11531
sS'TTACAT'
p88
I2545
sS'CTCGAT'
p89
I988
sS'CTCCGT'
p90
I4336
sS'GAATTT'
p91
I3851
sS'GCCTGA'
p92
I19439
sS'GCCTGC'
p93
I26659
sS'GCCTGG'
p94
I39688
sS'TAAAGG'
p95
I12537
sS'CAAATT'
p96
I2571
sS'TAAAGA'
p97
I12995
sS'GCATAA'
p98
I1840
sS'TAAAGC'
p99
I8440
sS'GCCTGT'
p100
I14944
sS'TCCCCG'
p101
I11607
sS'TAAAGT'
p102
I6472
sS'CAAATA'
p103
I11189
sS'ACGTCC'
p104
I3036
sS'CAAATC'
p105
I5334
sS'CGTGCT'
p106
I2636
sS'CAAATG'
p107
I12215
sS'AATACT'
p108
I13009
sS'TATCTC'
p109
I19956
sS'CGTCAA'
p110
I1735
sS'ATCCTT'
p111
I6967
sS'GGCATA'
p112
I8461
sS'GGCATC'
p113
I8777
sS'AATACG'
p114
I3127
sS'AATACA'
p115
I22737
sS'AATACC'
p116
I12073
sS'GGCATT'
p117
I4784
sS'TCCCCA'
p118
I26764
sS'CTTGGT'
p119
I3546
sS'GAGCAC'
p120
I11704
sS'GAGCAA'
p121
I13790
sS'GAGCAG'
p122
I25196
sS'AGTAGT'
p123
I5547
sS'TCTCGC'
p124
I3624
sS'TCTCGA'
p125
I2038
sS'TCTCGG'
p126
I4081
sS'AGTAGC'
p127
I9328
sS'AGTAGA'
p128
I10851
sS'TTTGGT'
p129
I3863
sS'AGTAGG'
p130
I10679
sS'GAGCAT'
p131
I5109
sS'AGCCCG'
p132
I11282
sS'TCTCGT'
p133
I1178
sS'GTGTCG'
p134
I3922
sS'TCGAAC'
p135
I842
sS'TCGAAA'
p136
I747
sS'GTGTCC'
p137
I21629
sS'TCGAAG'
p138
I1220
sS'GTGTCA'
p139
I19846
sS'CTTGCT'
p140
I8841
sS'TCGGTC'
p141
I1435
sS'GTGTCT'
p142
I19343
sS'TTGAAG'
p143
I10870
sS'TCGAAT'
p144
I335
sS'CTTGCG'
p145
I3315
sS'CTTGCA'
p146
I11523
sS'CTTGCC'
p147
I12504
sS'CGAAAG'
p148
I1439
sS'CGAAAA'
p149
I824
sS'CGAAAC'
p150
I951
sS'AAGGTT'
p151
I4151
sS'CACGGA'
p152
I4272
sS'ACAGTG'
p153
I8110
sS'CACGGC'
p154
I6235
sS'AAATGA'
p155
I10282
sS'AAATGG'
p156
I8639
sS'CACGGG'
p157
I6473
sS'ACAGTA'
p158
I4902
sS'CGAAAT'
p159
I371
sS'ACAGTT'
p160
I1725
sS'AATCAG'
p161
I15891
sS'AATCAA'
p162
I13302
sS'AAATGT'
p163
I6802
sS'AATCAC'
p164
I11628
sS'TTTGTA'
p165
I18408
sS'TCTAGT'
p166
I3693
sS'TTGCCG'
p167
I4230
sS'TTGCCA'
p168
I17402
sS'TTGCCC'
p169
I18073
sS'ACTGCC'
p170
I9376
sS'TTGCCT'
p171
I17116
sS'TCTAGG'
p172
I8707
sS'GGGTAA'
p173
I3833
sS'TCTAGA'
p174
I7058
sS'GGGTAG'
p175
I4869
sS'TCTAGC'
p176
I5593
sS'ATACGG'
p177
I632
sS'ATACAT'
p178
I1982
sS'AGATGT'
p179
I3685
sS'TCGCCC'
p180
I4038
sS'TCGCCA'
p181
I2070
sS'ATAGTC'
p182
I2430
sS'TCGCCG'
p183
I1828
sS'GGTAAT'
p184
I2865
sS'ACCCAT'
p185
I2605
sS'ACCCAC'
p186
I8225
sS'GGTAAC'
p187
I5406
sS'ACCCAA'
p188
I7179
sS'AGATGG'
p189
I6818
sS'ACCCAG'
p190
I13217
sS'GGTAAG'
p191
I7855
sS'TCGCCT'
p192
I1960
sS'AGATGC'
p193
I3886
sS'TTTGAG'
p194
I12868
sS'CCCCAT'
p195
I4170
sS'TTGGGT'
p196
I3314
sS'CACTAG'
p197
I14024
sS'CACTAA'
p198
I15711
sS'CACTAC'
p199
I11370
sS'CCCCAA'
p200
I10510
sS'CCCCAC'
p201
I15505
sS'CCCCAG'
p202
I18584
sS'CACTAT'
p203
I7897
sS'TTGGGG'
p204
I10831
sS'TCGGTT'
p205
I493
sS'TTGGGA'
p206
I7375
sS'TTGGGC'
p207
I6088
sS'TGCCTG'
p208
I40332
sS'TAGTGG'
p209
I11276
sS'TTTCTG'
p210
I32651
sS'TGCAGC'
p211
I25745
sS'TTTCTA'
p212
I22677
sS'TTTCTC'
p213
I26269
sS'TGCAGG'
p214
I28564
sS'GGGTCA'
p215
I11797
sS'GTATCT'
p216
I7477
sS'TTTCTT'
p217
I15465
sS'TGCCTT'
p218
I13094
sS'TGCAGT'
p219
I18837
sS'ACAATT'
p220
I1940
sS'AAGGAA'
p221
I19138
sS'AAGGAC'
p222
I10312
sS'AAGGAG'
p223
I20553
sS'AAATTC'
p224
I5853
sS'GTTCCA'
p225
I9289
sS'ATATGA'
p226
I5128
sS'TACGAA'
p227
I2062
sS'ATATGG'
p228
I4874
sS'TGTCGA'
p229
I1493
sS'AAGGAT'
p230
I3770
sS'CTATCA'
p231
I8891
sS'ACATTT'
p232
I4659
sS'GGCTCG'
p233
I9374
sS'TGACTT'
p234
I3577
sS'ACTATT'
p235
I2268
sS'GGTCCC'
p236
I11670
sS'GCCCAG'
p237
I23794
sS'GGTCCA'
p238
I6779
sS'GCCCAA'
p239
I8781
sS'GGTCCG'
p240
I3461
sS'AGGTCT'
p241
I11116
sS'ATGGCG'
p242
I3760
sS'AGACCC'
p243
I4445
sS'CTTCGG'
p244
I4082
sS'AGACCG'
p245
I1303
sS'CTTCGC'
p246
I3612
sS'CCACTA'
p247
I3550
sS'AGGTCC'
p248
I13592
sS'AGGTCA'
p249
I18981
sS'AAAGTT'
p250
I2730
sS'AGGTCG'
p251
I3629
sS'GGTCCT'
p252
I5911
sS'TCCGGA'
p253
I3597
sS'CTTAGC'
p254
I7917
sS'ATTGTG'
p255
I9582
sS'CTTAGA'
p256
I9286
sS'TCTTGC'
p257
I11756
sS'CTTAGG'
p258
I9757
sS'ATTGTC'
p259
I4826
sS'TCTTGG'
p260
I14007
sS'CGCTAC'
p261
I2872
sS'ATTTTG'
p262
I21301
sS'GAGGTG'
p263
I28405
sS'ATTTTA'
p264
I30128
sS'TAAATT'
p265
I4386
sS'ATTTTC'
p266
I15288
sS'GAGGTC'
p267
I14262
sS'TAGCAG'
p268
I9901
sS'GATACT'
p269
I9931
sS'TAGCAC'
p270
I6676
sS'TAGCAA'
p271
I8081
sS'TAAATA'
p272
I19325
sS'CGCTAA'
p273
I2962
sS'GCCTTG'
p274
I30412
sS'TAGTGT'
p275
I7775
sS'GCCTTA'
p276
I17762
sS'GCCTTC'
p277
I27101
sS'GATACG'
p278
I2729
sS'TAGCAT'
p279
I3837
sS'GATACC'
p280
I9285
sS'GATACA'
p281
I14942
sS'TGAGCT'
p282
I4547
sS'ACGGAC'
p283
I824
sS'GATCAT'
p284
I5961
sS'AAGACA'
p285
I26613
sS'AAGACC'
p286
I17205
sS'GATTTA'
p287
I22282
sS'AAGACG'
p288
I5293
sS'ACCTAT'
p289
I3042
sS'GATCAG'
p290
I13364
sS'TGAGCG'
p291
I2186
sS'GATCAC'
p292
I12235
sS'TGAGCC'
p293
I10604
sS'GGACTA'
p294
I2923
sS'AAGACT'
p295
I14604
sS'CTTCCA'
p296
I16924
sS'GCGGTA'
p297
I1662
sS'CGTGCA'
p298
I4138
sS'GCGGTG'
p299
I6245
sS'CGGTGT'
p300
I2135
sS'TCGTTA'
p301
I1883
sS'TCGTTC'
p302
I1881
sS'ATGTGG'
p303
I12464
sS'TCGTTG'
p304
I2126
sS'GAGTTT'
p305
I8998
sS'GCGGTT'
p306
I712
sS'ACTTGC'
p307
I7445
sS'ACCACC'
p308
I17424
sS'ACTTGA'
p309
I8816
sS'CGGTGG'
p310
I5824
sS'ACTTGG'
p311
I9410
sS'CGGTGA'
p312
I3085
sS'CGGTGC'
p313
I4013
sS'TTCCTA'
p314
I25872
sS'TAGACT'
p315
I8487
sS'TTCCTC'
p316
I41408
sS'ACTGAC'
p317
I5276
sS'ACCACA'
p318
I20813
sS'TTCCTG'
p319
I48763
sS'TCCTTT'
p320
I20743
sS'CAGTTG'
p321
I15060
sS'TAGACG'
p322
I2489
sS'TTCCTT'
p323
I22768
sS'TTCAAC'
p324
I13963
sS'TAGACA'
p325
I13834
sS'TCCTTG'
p326
I35762
sS'TCCTTA'
p327
I28998
sS'TCCTTC'
p328
I40169
sS'ATCTCT'
p329
I21060
sS'ACCGTT'
p330
I967
sS'TGGCGC'
p331
I4387
sS'TGGCGA'
p332
I2257
sS'TGGCGG'
p333
I6289
sS'ATCTCG'
p334
I5424
sS'ATCTCA'
p335
I27306
sS'ATCTCC'
p336
I23801
sS'GGCCAA'
p337
I12668
sS'ACGGAG'
p338
I1744
sS'GGCCAC'
p339
I14800
sS'ACCGTG'
p340
I4967
sS'ACCGTA'
p341
I1984
sS'GGCCAG'
p342
I22302
sS'ACCGTC'
p343
I2539
sS'ACCGAC'
p344
I1601
sS'AGATTA'
p345
I7116
sS'GGCAGT'
p346
I11782
sS'CCATAA'
p347
I1960
sS'CAAAGG'
p348
I11919
sS'CCATAC'
p349
I1392
sS'CTAACT'
p350
I5468
sS'AGATTC'
p351
I4135
sS'CAAAGC'
p352
I8831
sS'CCATAG'
p353
I1870
sS'GGCAGA'
p354
I22468
sS'GGCAGC'
p355
I25904
sS'AACGTA'
p356
I3693
sS'GGCAGG'
p357
I37089
sS'CAACGC'
p358
I1203
sS'CTAACA'
p359
I8528
sS'CAACGA'
p360
I804
sS'GCACTC'
p361
I4065
sS'CAACGG'
p362
I1133
sS'GCACTG'
p363
I7278
sS'GGGGGT'
p364
I2790
sS'TACGCT'
p365
I2078
sS'GAAACC'
p366
I16054
sS'CGATCT'
p367
I900
sS'NNNNNC'
p368
I1
sS'CTCTAG'
p369
I19521
sS'CTCTAA'
p370
I20209
sS'CTCTAC'
p371
I16873
sS'GGGGGG'
p372
I6749
sS'CGATCC'
p373
I1258
sS'TACGCC'
p374
I2938
sS'GGGGGC'
p375
I7577
sS'CGATCG'
p376
I368
sS'GGGGGA'
p377
I7141
sS'TACGCG'
p378
I1432
sS'CTCTAT'
p379
I9189
sS'GCGCAG'
p380
I4226
sS'ACCGAA'
p381
I1486
sS'CAGACC'
p382
I16769
sS'CAGACA'
p383
I21335
sS'CAGACG'
p384
I5342
sS'TAGTTG'
p385
I10846
sS'GCTAAT'
p386
I2338
sS'TAGTTC'
p387
I10204
sS'TAGTTA'
p388
I12743
sS'CAGACT'
p389
I10914
sS'GCTAAG'
p390
I7231
sS'TAGTTT'
p391
I7356
sS'GCTAAC'
p392
I3746
sS'TCAGGG'
p393
I4403
sS'GCTAAA'
p394
I6097
sS'TGCATT'
p395
I9005
sS'GCGAAA'
p396
I1089
sS'AACCCT'
p397
I14357
sS'CTTGAC'
p398
I6501
sS'AACCCA'
p399
I21352
sS'TGCATA'
p400
I15768
sS'TGCATC'
p401
I11993
sS'AGATTT'
p402
I3173
sS'AGTTTG'
p403
I23230
sS'ACGTAC'
p404
I641
sS'AGTTTC'
p405
I19566
sS'AACTGC'
p406
I21432
sS'CCCAGA'
p407
I19300
sS'CCCAGC'
p408
I31263
sS'AGAATC'
p409
I5439
sS'CCCAGG'
p410
I34936
sS'AACTGT'
p411
I16778
sS'AGTTTT'
p412
I9365
sS'ACGTAT'
p413
I483
sS'CGAGTC'
p414
I1461
sS'CCCAGT'
p415
I10064
sS'CGCATA'
p416
I2003
sS'ATACTG'
p417
I5815
sS'CGCATC'
p418
I3390
sS'CTTGAA'
p419
I9164
sS'ATACTC'
p420
I2845
sS'CGCATG'
p421
I5011
sS'GCGCAA'
p422
I982
sS'GCGAAT'
p423
I342
sS'ATACTT'
p424
I2754
sS'CTATCT'
p425
I8611
sS'GCGCAC'
p426
I2032
sS'GCTCCG'
p427
I6806
sS'TATTGT'
p428
I12504
sS'GCTCCC'
p429
I14416
sS'GCTCCA'
p430
I10946
sS'CCTACT'
p431
I5607
sS'TGTACT'
p432
I9145
sS'TTTAGT'
p433
I6647
sS'TATTGG'
p434
I11169
sS'GCTCCT'
p435
I7830
sS'TATTGC'
p436
I11785
sS'TATTGA'
p437
I14114
sS'TTTAGG'
p438
I10994
sS'TGTACG'
p439
I2348
sS'CCTACG'
p440
I2018
sS'TGTACA'
p441
I14050
sS'CCTACA'
p442
I7068
sS'TGTACC'
p443
I8817
sS'CCTACC'
p444
I9107
sS'TTCGCG'
p445
I2122
sS'TTCGCA'
p446
I3111
sS'TTCGCC'
p447
I4797
sS'AGTATC'
p448
I6425
sS'GACTAA'
p449
I16302
sS'AGTATA'
p450
I9927
sS'TTTGGG'
p451
I11410
sS'AGTATG'
p452
I9872
sS'TTTGGA'
p453
I8143
sS'TTTGGC'
p454
I6802
sS'TTCGCT'
p455
I3211
sS'GTGTAT'
p456
I5005
sS'GACTAT'
p457
I8126
sS'AGTATT'
p458
I4493
sS'TTACTC'
p459
I4809
sS'TTACTA'
p460
I6310
sS'TTACTG'
p461
I9157
sS'ACCTTG'
p462
I22691
sS'ACCTTC'
p463
I17792
sS'ACCTTA'
p464
I15723
sS'CTAATA'
p465
I6896
sS'GTAAAC'
p466
I4284
sS'ACCTTT'
p467
I8322
sS'GAGANA'
p468
I1
sS'ACAGGG'
p469
I4201
sS'CTGGGA'
p470
I14451
sS'CTGGGC'
p471
I14519
sS'ACAGGC'
p472
I3379
sS'ACAGGA'
p473
I3358
sS'CTGGGG'
p474
I18729
sS'AGGACG'
p475
I5876
sS'GCAGCT'
p476
I4545
sS'CAGGAA'
p477
I12906
sS'TCGCTT'
p478
I1121
sS'CAGGAG'
p479
I18104
sS'AGGACA'
p480
I20229
sS'GCGCAT'
p481
I538
sS'TTATAC'
p482
I2896
sS'TTATAA'
p483
I5643
sS'CTGGGT'
p484
I5424
sS'TTATAG'
p485
I3893
sS'TCGCTG'
p486
I4345
sS'GAGTTG'
p487
I17888
sS'GCAGCG'
p488
I3505
sS'AGGACT'
p489
I11587
sS'TCGCTC'
p490
I3234
sS'GGAGGG'
p491
I11159
sS'GCAGCC'
p492
I11283
sS'CAGGAT'
p493
I2834
sS'CCTCAG'
p494
I14278
sS'CCTCAA'
p495
I7419
sS'CCTCAC'
p496
I8431
sS'TATGTT'
p497
I6777
sS'ATGGGC'
p498
I4000
sS'TCTTTG'
p499
I29096
sS'ATGGGA'
p500
I5568
sS'TCTTTA'
p501
I27015
sS'ATGGGG'
p502
I8034
sS'TCTTTC'
p503
I26757
sS'CCTCAT'
p504
I3665
sS'TCTTTT'
p505
I13211
sS'TATGTG'
p506
I19668
sS'TATGTA'
p507
I19335
sS'ATGGGT'
p508
I1865
sS'TATGTC'
p509
I9827
sS'GAAAGA'
p510
I20443
sS'ATCAAG'
p511
I11727
sS'CATGAT'
p512
I3961
sS'TCATGA'
p513
I4216
sS'GAAAGG'
p514
I21765
sS'ATCAAA'
p515
I12882
sS'GGAACT'
p516
I5430
sS'CGCTAG'
p517
I3414
sS'CTATTC'
p518
I6702
sS'GGAGGA'
p519
I6745
sS'ATCAAT'
p520
I4050
sS'GTCCAA'
p521
I9310
sS'CATGAC'
p522
I10072
sS'CATGAA'
p523
I10572
sS'GTAGCG'
p524
I1464
sS'CAAGTT'
p525
I1939
sS'GCTTTG'
p526
I24008
sS'GCTTTA'
p527
I17259
sS'GCTTTC'
p528
I17054
sS'AGCGGT'
p529
I2205
sS'AAAGTA'
p530
I9649
sS'GCTTTT'
p531
I7737
sS'CAAGTG'
p532
I9113
sS'GTAGCT'
p533
I3846
sS'GCGGCC'
p534
I11279
sS'CAAGTC'
p535
I5230
sS'GCGGCA'
p536
I4559
sS'CAAGTA'
p537
I6179
sS'AACGGT'
p538
I1742
sS'ACCCTC'
p539
I13517
sS'GGGGAA'
p540
I7129
sS'TAATCG'
p541
I1141
sS'GGTCTT'
p542
I4438
sS'TAATCA'
p543
I9049
sS'TAATCC'
p544
I9923
sS'TGCGAA'
p545
I1943
sS'CGGCCC'
p546
I13347
sS'CGACTA'
p547
I600
sS'CGGCCA'
p548
I6433
sS'CGCTAT'
p549
I1362
sS'CGGCCG'
p550
I7425
sS'TCGTGA'
p551
I1386
sS'ATGAAG'
p552
I9901
sS'GGTCTG'
p553
I16007
sS'TAATCT'
p554
I7034
sS'TGCGAC'
p555
I2298
sS'GGTCTC'
p556
I13801
sS'GGTCTA'
p557
I6673
sS'AAAATG'
p558
I16392
sS'AAAATC'
p559
I5808
sS'CGGCCT'
p560
I5797
sS'TTCAGC'
p561
I21230
sS'CTAACC'
p562
I7055
sS'TTCAGA'
p563
I24505
sS'TTCAGG'
p564
I24764
sS'GAACAT'
p565
I2180
sS'TCGTCG'
p566
I854
sS'TTTAGC'
p567
I8013
sS'TGCCAA'
p568
I10972
sS'GAACAA'
p569
I5274
sS'ATCCCG'
p570
I4102
sS'GAACAC'
p571
I3979
sS'ATCCCC'
p572
I13247
sS'GAACAG'
p573
I6865
sS'ATCCCA'
p574
I14992
sS'GCACTT'
p575
I2318
sS'ATTGCA'
p576
I7526
sS'AGTCAT'
p577
I7137
sS'CACCAC'
p578
I18326
sS'NNNCTG'
p579
I1
sS'CACCAA'
p580
I13474
sS'CACCAG'
p581
I19242
sS'TCCGTG'
p582
I6093
sS'ATTGCG'
p583
I1527
sS'TCCGTC'
p584
I4913
sS'TCCGTA'
p585
I2519
sS'ACCAGA'
p586
I11574
sS'AAATGC'
p587
I7354
sS'CACCAT'
p588
I6951
sS'AACATG'
p589
I24807
sS'AACATA'
p590
I21865
sS'AACATC'
p591
I14913
sS'GTCAGC'
p592
I17622
sS'GCACGG'
p593
I1455
sS'GTCAGA'
p594
I17617
sS'GCACGA'
p595
I660
sS'CAGTCC'
p596
I20095
sS'GCACGC'
p597
I1500
sS'CAGTCA'
p598
I19873
sS'AACAAC'
p599
I17016
sS'GCAAGC'
p600
I3824
sS'GCACGT'
p601
I687
sS'CAGTCT'
p602
I14873
sS'TCAGCT'
p603
I3909
sS'GTCAGT'
p604
I10542
sS'GTATAC'
p605
I2394
sS'TTCCGT'
p606
I2973
sS'GTATAA'
p607
I3565
sS'GTATAG'
p608
I2749
sS'CCGGAA'
p609
I1913
sS'CCGGAC'
p610
I1367
sS'CCGGAG'
p611
I2991
sS'CGTCTT'
p612
I1988
sS'TGACGT'
p613
I813
sS'TTCCGG'
p614
I7694
sS'TTCCGA'
p615
I3269
sS'TTCCGC'
p616
I6157
sS'GTATAT'
p617
I2904
sS'TATCAC'
p618
I10723
sS'CGTCTA'
p619
I2591
sS'TATCAG'
p620
I14953
sS'CCGGAT'
p621
I399
sS'CTCTTC'
p622
I46373
sS'TGTTAT'
p623
I7758
sS'CTCTTA'
p624
I31389
sS'CTCTTG'
p625
I39588
sS'CCCGAT'
p626
I699
sS'TACGTA'
p627
I3631
sS'TACGTC'
p628
I2452
sS'TCTGGT'
p629
I3113
sS'CGCGAT'
p630
I848
sS'TACGTG'
p631
I5115
sS'TGTTAG'
p632
I11725
sS'GCTGTT'
p633
I3637
sS'TGTTAC'
p634
I9793
sS'CTCTTT'
p635
I26369
sS'TGTTAA'
p636
I15373
sS'TCTGGG'
p637
I13083
sS'CGCGAC'
p638
I2577
sS'CCCTGC'
p639
I30640
sS'TCTGGC'
p640
I7855
sS'TACGTT'
p641
I1710
sS'CGCGAG'
p642
I5226
sS'AGTCGT'
p643
I1476
sS'TTACCT'
p644
I3812
sS'CTCCAT'
p645
I8315
sS'AATGCG'
p646
I3279
sS'TTACCG'
p647
I992
sS'CTCCAC'
p648
I20470
sS'AGTCGG'
p649
I3790
sS'TTACCC'
p650
I4064
sS'CTCCAG'
p651
I32513
sS'TTACCA'
p652
I4831
sS'AGTCGC'
p653
I3221
sS'GTACCG'
p654
I825
sS'CCGACT'
p655
I1433
sS'GCCTAC'
p656
I7739
sS'AATGCA'
p657
I19487
sS'CCGAGG'
p658
I5216
sS'GCCTAG'
p659
I12122
sS'CCGACA'
p660
I1727
sS'GATATC'
p661
I7353
sS'CCGACC'
p662
I3527
sS'CCGACG'
p663
I1310
sS'GCCTAT'
p664
I4262
sS'AAGCTA'
p665
I13737
sS'CCCGAG'
p666
I6772
sS'CTCGTT'
p667
I1702
sS'CTAAGT'
p668
I3690
sS'GCTGTC'
p669
I10259
sS'CGCACA'
p670
I6831
sS'ATACAC'
p671
I1879
sS'CGCACC'
p672
I8711
sS'GGGTCG'
p673
I3743
sS'ACTGCT'
p674
I5345
sS'TTTGTT'
p675
I7522
sS'CGCACG'
p676
I4620
sS'GGGTCC'
p677
I13381
sS'GAGCGT'
p678
I2920
sS'CTCACT'
p679
I26968
sS'GGGTCT'
p680
I9140
sS'ACTGCA'
p681
I13430
sS'TTTGTC'
p682
I11254
sS'TATCTG'
p683
I24723
sS'CGCACT'
p684
I4412
sS'TTTGTG'
p685
I19750
sS'ACTGCG'
p686
I3851
sS'CTCACC'
p687
I30543
sS'CTCACA'
p688
I29734
sS'GTCAGG'
p689
I22932
sS'CTCACG'
p690
I9132
sS'GTGGGT'
p691
I4502
sS'GTGAGG'
p692
I17681
sS'GATTTT'
p693
I10959
sS'TAGTGC'
p694
I7467
sS'GTGAGC'
p695
I13574
sS'TAGTGA'
p696
I10457
sS'GTGAGA'
p697
I12622
sS'TCGACG'
p698
I562
sS'TCGACA'
p699
I942
sS'TCGACC'
p700
I1440
sS'GATTTG'
p701
I24068
sS'GTGAGT'
p702
I7591
sS'GTGGGG'
p703
I20544
sS'GTGGGA'
p704
I11320
sS'GTGGGC'
p705
I8578
sS'TCGACT'
p706
I808
sS'GTGGGN'
p707
I1
sS'ACGTAA'
p708
I898
sS'CTGGTT'
p709
I4033
sS'TTGAGT'
p710
I5719
sS'TCAAAA'
p711
I5401
sS'CGAACG'
p712
I698
sS'CGAACC'
p713
I1751
sS'CGAACA'
p714
I1392
sS'CTGGTG'
p715
I17959
sS'CTGGTA'
p716
I8583
sS'CTGGTC'
p717
I10552
sS'CGAACT'
p718
I1166
sS'TTGCAT'
p719
I5085
sS'GACGAG'
p720
I5587
sS'NNGAAT'
p721
I1
sS'TTGCAG'
p722
I13491
sS'TCCATA'
p723
I12458
sS'TTGCAC'
p724
I7019
sS'TTGCAA'
p725
I8190
sS'AAGATC'
p726
I8770
sS'TCCATC'
p727
I14533
sS'TCGCAT'
p728
I324
sS'GAGCGG'
p729
I10619
sS'GTCGTG'
p730
I4037
sS'GTCGTA'
p731
I1780
sS'GTCGTC'
p732
I2865
sS'CCGTTT'
p733
I1258
sS'ACTGAT'
p734
I1910
sS'ATATCG'
p735
I934
sS'GTCGTT'
p736
I1136
sS'TCAGAT'
p737
I1149
sS'TCGCAG'
p738
I1604
sS'TCCATG'
p739
I18810
sS'CCAAGC'
p740
I4102
sS'TCGCAC'
p741
I780
sS'CCGTTG'
p742
I2656
sS'CCGTTA'
p743
I1918
sS'CCGTTC'
p744
I2474
sS'AATGCT'
p745
I11582
sS'GGTACG'
p746
I1531
sS'GGTACA'
p747
I6361
sS'GGTACC'
p748
I4930
sS'TATTTG'
p749
I34019
sS'CCAGTT'
p750
I1715
sS'TATTTC'
p751
I28886
sS'TATTTA'
p752
I45560
sS'CCCCCT'
p753
I10690
sS'GGTACT'
p754
I4207
sS'AAGGGG'
p755
I18287
sS'AATGCC'
p756
I13222
sS'GCCGTG'
p757
I7848
sS'CCCCCC'
p758
I11262
sS'CCCCCA'
p759
I19952
sS'TATTTT'
p760
I23805
sS'CCCCCG'
p761
I10172
sS'CTTGAG'
p762
I11463
sS'ATGATG'
p763
I11055
sS'ATGATA'
p764
I9142
sS'CAGGGT'
p765
I5351
sS'CGGACT'
p766
I2267
sS'TGCAAC'
p767
I11639
sS'TGCAAA'
p768
I19788
sS'TGCAAG'
p769
I16663
sS'GCCGTC'
p770
I4950
sS'ATGATT'
p771
I3115
sS'CTTGAT'
p772
I2444
sS'CGAATC'
p773
I885
sS'TTGAGG'
p774
I12854
sS'AATCTC'
p775
I14082
sS'TTGAGC'
p776
I8528
sS'TTGAGA'
p777
I11962
sS'GAGAAT'
p778
I8166
sS'TGTCTT'
p779
I10233
sS'CGAATA'
p780
I877
sS'ACTGAG'
p781
I8439
sS'AAGGCC'
p782
I22882
sS'ATAACC'
p783
I5617
sS'AAGGCA'
p784
I26639
sS'ATAACA'
p785
I9061
sS'AAGGCG'
p786
I7452
sS'TCCAGA'
p787
I17876
sS'ACTCCA'
p788
I9808
sS'TGTCTG'
p789
I28429
sS'GAGAAG'
p790
I31400
sS'GAGAAA'
p791
I27496
sS'TGTCTC'
p792
I25077
sS'GAGAAC'
p793
I15062
sS'TGTCTA'
p794
I14264
sS'TGTGGC'
p795
I11686
sS'TGTGGA'
p796
I9392
sS'TGTGGG'
p797
I15161
sS'ATAACT'
p798
I4806
sS'AAGGCT'
p799
I14059
sS'TAGGCT'
p800
I7919
sS'AACGGC'
p801
I3371
sS'GCCCCG'
p802
I18748
sS'ACCAAG'
p803
I11414
sS'GGTCAG'
p804
I12066
sS'GCCCCC'
p805
I23406
sS'GGTCAA'
p806
I6064
sS'GCCCCA'
p807
I22624
sS'GGTCAC'
p808
I8469
sS'GGTCAT'
p809
I3183
sS'CGTGCC'
p810
I4752
sS'GCCCCT'
p811
I14467
sS'CGTGCG'
p812
I3413
sS'CAAACT'
p813
I6532
sS'TTTTGC'
p814
I14516
sS'TCTTAC'
p815
I6848
sS'TTTTGA'
p816
I17867
sS'TCTTAA'
p817
I11596
sS'TTTTGG'
p818
I15254
sS'ATCATG'
p819
I15898
sS'AATTGC'
p820
I10651
sS'TAGCCA'
p821
I12728
sS'TGGGGT'
p822
I4079
sS'CGCTCG'
p823
I6374
sS'GATAAT'
p824
I8360
sS'CGCTCA'
p825
I8162
sS'CGCTCC'
p826
I16241
sS'AATTGT'
p827
I9311
sS'AATCTT'
p828
I7741
sS'TCTTAT'
p829
I5206
sS'GTTATG'
p830
I8549
sS'CGCTCT'
p831
I7890
sS'GATAAA'
p832
I21151
sS'GATAAC'
p833
I11402
sS'TAGCCT'
p834
I8372
sS'TGGGGC'
p835
I10111
sS'GATAAG'
p836
I21097
sS'GATCCT'
p837
I10899
sS'AAGAAT'
p838
I7192
sS'CGAAGT'
p839
I901
sS'CATTTG'
p840
I33176
sS'AAGAAC'
p841
I12987
sS'GATCCA'
p842
I13177
sS'AAGAAA'
p843
I29466
sS'GATCCC'
p844
I13371
sS'AAGAAG'
p845
I23593
sS'GATCCG'
p846
I4916
sS'ATGCCG'
p847
I2921
sS'CAAGGG'
p848
I6141
sS'ATCGAG'
p849
I1612
sS'CAAGGC'
p850
I5294
sS'GGTTCT'
p851
I9808
sS'CAAGGA'
p852
I4989
sS'GGTTCA'
p853
I12911
sS'GCAACC'
p854
I5180
sS'GGTTCC'
p855
I14188
sS'CAAGGT'
p856
I1939
sS'GGTTCG'
p857
I3259
sS'CTGTAT'
p858
I5503
sS'ATTATA'
p859
I10707
sS'ATTATC'
p860
I6436
sS'TAGAAT'
p861
I5372
sS'CAAACG'
p862
I2310
sS'ATTATG'
p863
I8810
sS'AGTCTT'
p864
I7101
sS'TAGAAA'
p865
I14525
sS'TAGAAC'
p866
I7758
sS'ATTATT'
p867
I4105
sS'TAGAAG'
p868
I13681
sS'AGTCTA'
p869
I11012
sS'AGTCTC'
p870
I16848
sS'AGTCTG'
p871
I20582
sS'TAACTC'
p872
I4864
sS'TAACTA'
p873
I5908
sS'TAACTG'
p874
I8596
sS'ATCTAT'
p875
I5680
sS'AGGTAT'
p876
I2769
sS'TAACTT'
p877
I3330
sS'ATCTAG'
p878
I10569
sS'ATCTAC'
p879
I8796
sS'ATCTAA'
p880
I12777
sS'CATAGC'
p881
I8679
sS'CCATGT'
p882
I3919
sS'ACCAAA'
p883
I10226
sS'TGGAGG'
p884
I21254
sS'TGGAGA'
p885
I14566
sS'TGGAGC'
p886
I11774
sS'CCATGC'
p887
I3656
sS'CCATGA'
p888
I3760
sS'CCATGG'
p889
I5135
sS'TGGAGT'
p890
I7797
sS'ATTACG'
p891
I1518
sS'TCAGTA'
p892
I4968
sS'TCAGTC'
p893
I3809
sS'CTCTCT'
p894
I44760
sS'GGGGAT'
p895
I1698
sS'TCAGTG'
p896
I8176
sS'CGATAT'
p897
I211
sS'CTCTCG'
p898
I10114
sS'GGGGAC'
p899
I5937
sS'CTCTCC'
p900
I55510
sS'TCAGTT'
p901
I2045
sS'GGGGAG'
p902
I14121
sS'CGATAG'
p903
I363
sS'CGATAA'
p904
I425
sS'TATCAA'
p905
I11813
sS'CTAAGG'
p906
I7313
sS'GTGTTT'
p907
I11215
sS'GCTACT'
p908
I5543
sS'GTGGTT'
p909
I4498
sS'CTAAGA'
p910
I6718
sS'GTGTTC'
p911
I14367
sS'GTGTTA'
p912
I15170
sS'GTGTTG'
p913
I18625
sS'ACCAAT'
p914
I4079
sS'GTGGTA'
p915
I9167
sS'GCTACA'
p916
I6785
sS'GTGGTC'
p917
I8068
sS'CTAAGC'
p918
I5056
sS'GTGGTG'
p919
I20474
sS'GCTACG'
p920
I1998
sS'AGGTAG'
p921
I6144
sS'TTTCGT'
p922
I1420
sS'TGCCCT'
p923
I16518
sS'AGCGTT'
p924
I1976
sS'AGGTAA'
p925
I5874
sS'TGCCCC'
p926
I23275
sS'TGCCCA'
p927
I21723
sS'TGCCCG'
p928
I8156
sS'TTTCGG'
p929
I2601
sS'AGCGTA'
p930
I2584
sS'AGCGTC'
p931
I5106
sS'AGCGTG'
p932
I7397
sS'GGCCCC'
p933
I26824
sS'TAGGNG'
p934
I1
sS'GGCCCA'
p935
I18335
sS'CACGTG'
p936
I13378
sS'GGCCCG'
p937
I12388
sS'CACGTA'
p938
I4653
sS'CACGTC'
p939
I5469
sS'ACGTGC'
p940
I2260
sS'ACGTGA'
p941
I2518
sS'GGGACT'
p942
I9753
sS'ACAGTC'
p943
I3370
sS'CACGTT'
p944
I2596
sS'TTCACG'
p945
I5997
sS'GGCCCT'
p946
I13732
sS'GGGACA'
p947
I15170
sS'AATTGA'
p948
I11739
sS'GGGACC'
p949
I14855
sS'GTCTCA'
p950
I35947
sS'GGGACG'
p951
I6577
sS'TCTTAG'
p952
I9421
sS'AGAGAG'
p953
I8639
sS'AGAGAA'
p954
I5925
sS'AGAGAC'
p955
I4556
sS'GTCTCG'
p956
I10072
sS'GTCTTT'
p957
I17563
sS'TCTATC'
p958
I5603
sS'TCTATG'
p959
I8948
sS'AGAGAT'
p960
I2090
sS'TCGTGC'
p961
I1641
sS'GTCTTG'
p962
I30286
sS'TCTATT'
p963
I3580
sS'GTCTTC'
p964
I27527
sS'GTCTTA'
p965
I21736
sS'GCAGAG'
p966
I5406
sS'CGATTG'
p967
I1310
sS'GCTCAC'
p968
I7708
sS'GCAGAC'
p969
I2103
sS'GCAGAA'
p970
I2752
sS'GCTCAG'
p971
I13476
sS'AGACGT'
p972
I736
sS'ATGCGT'
p973
I858
sS'TTGCTG'
p974
I28843
sS'TTGCTA'
p975
I14942
sS'TTGCTC'
p976
I18724
sS'GCAGAT'
p977
I1124
sS'GCTCAT'
p978
I2664
sS'CGAATT'
p979
I388
sS'GTTTGC'
p980
I11303
sS'TTGCTT'
p981
I12635
sS'CGATTC'
p982
I965
sS'TAGCCG'
p983
I2926
sS'ATGCGC'
p984
I1945
sS'ATGCGA'
p985
I978
sS'TGTAAG'
p986
I12715
sS'GGCTAG'
p987
I10821
sS'TGTAAC'
p988
I9985
sS'GGCTAC'
p989
I8765
sS'GACTGT'
p990
I18155
sS'GGCTAA'
p991
I11716
sS'TTCGAG'
p992
I3108
sS'TTGGTA'
p993
I7977
sS'ACTGTC'
p994
I7257
sS'TTGGTC'
p995
I6865
sS'TTCGAC'
p996
I1479
sS'ACTGTG'
p997
I16088
sS'TTGGTG'
p998
I12670
sS'GACTGC'
p999
I22714
sS'GGCTAT'
p1000
I4370
sS'GACTGA'
p1001
I24804
sS'GACTGG'
p1002
I27153
sS'TGTGGT'
p1003
I6385
sS'TTGGTT'
p1004
I3827
sS'ACTGTT'
p1005
I2915
sS'GTTTCT'
p1006
I16555
sS'TTTTGT'
p1007
I15114
sS'CCTTTT'
p1008
I9741
sS'GTTTCG'
p1009
I3849
sS'GTTTCC'
p1010
I21522
sS'GTTTCA'
p1011
I20577
sS'ATAATG'
p1012
I8317
sS'CCTTTA'
p1013
I20383
sS'CCTTTC'
p1014
I23301
sS'ATAATC'
p1015
I3907
sS'NNNNGA'
p1016
I1
sS'ATAATA'
p1017
I9618
sS'CCTTTG'
p1018
I26257
sS'ACAGAA'
p1019
I3303
sS'ACAGAC'
p1020
I2447
sS'ACAGAG'
p1021
I4910
sS'TTATCT'
p1022
I14762
sS'CTGGAC'
p1023
I6299
sS'CTGGAA'
p1024
I7783
sS'CTGGAG'
p1025
I14159
sS'ATATAA'
p1026
I4591
sS'CGATTT'
p1027
I496
sS'ACAGAT'
p1028
I1412
sS'CAAAGT'
p1029
I4994
sS'TGGGGA'
p1030
I10039
sS'TTATCA'
p1031
I13052
sS'CTGGAT'
p1032
I2294
sS'TTATCC'
p1033
I7993
sS'CCAATG'
p1034
I5832
sS'AAACCG'
p1035
I1648
sS'AAACCA'
p1036
I9002
sS'CCAATC'
p1037
I3937
sS'AAACCC'
p1038
I6926
sS'CCAATA'
p1039
I4298
sS'TGTCGG'
p1040
I3079
sS'GAGATC'
p1041
I11265
sS'AACGAG'
p1042
I3781
sS'GAGATA'
p1043
I19489
sS'TGTCGC'
p1044
I3503
sS'GAGATG'
p1045
I24764
sS'AACGAC'
p1046
I2390
sS'ATTTGA'
p1047
I11340
sS'CCAATT'
p1048
I1508
sS'ATTTGC'
p1049
I9210
sS'GTCGAT'
p1050
I533
sS'ATTTGG'
p1051
I9797
sS'CCCTAG'
p1052
I11144
sS'TGTCGT'
p1053
I1596
sS'CCCTAC'
p1054
I8915
sS'GAGATT'
p1055
I5394
sS'CCCTAA'
p1056
I10680
sS'TACAAC'
p1057
I11502
sS'CATTAT'
p1058
I8259
sS'TGGATT'
p1059
I3410
sS'ATCACA'
p1060
I19120
sS'ATCACC'
p1061
I15021
sS'CATGCT'
p1062
I10229
sS'TGACAC'
p1063
I2145
sS'ATCACG'
p1064
I4585
sS'TGGATA'
p1065
I8100
sS'AGGAAC'
p1066
I10636
sS'CATTAG'
p1067
I11987
sS'CATTAA'
p1068
I15681
sS'TGGATG'
p1069
I12137
sS'CATGCA'
p1070
I16465
sS'TGACAT'
p1071
I2092
sS'CATGCC'
p1072
I15156
sS'ATCACT'
p1073
I12969
sS'CATGCG'
p1074
I4444
sS'GTAGAA'
p1075
I2697
sS'GTAGAC'
p1076
I1759
sS'GTAGAG'
p1077
I3735
sS'GATTGG'
p1078
I14444
sS'ACAACC'
p1079
I4799
sS'GATTGC'
p1080
I11390
sS'GATTGA'
p1081
I11242
sS'ACTAAG'
p1082
I6352
sS'GTAGAT'
p1083
I1001
sS'TGCTAC'
p1084
I11454
sS'GGGTAC'
p1085
I2423
sS'TGATGC'
p1086
I2841
sS'GATTGT'
p1087
I9239
sS'TTCAGT'
p1088
I16927
sS'ACAACT'
p1089
I3705
sS'AGGATT'
p1090
I4246
sS'GCGCGT'
p1091
I1068
sS'TAATAG'
p1092
I3942
sS'GTCCGG'
p1093
I6191
sS'TAATAC'
p1094
I3500
sS'GTCCGA'
p1095
I2716
sS'TAATAA'
p1096
I6265
sS'GTCCGC'
p1097
I5789
sS'TGCCAT'
p1098
I6110
sS'TCAACA'
p1099
I6434
sS'ACTCTT'
p1100
I4279
sS'GTCCGT'
p1101
I2225
sS'TAATAT'
p1102
I3153
sS'CGTAAC'
p1103
I1507
sS'GGGNCC'
p1104
I1
sS'ATTCGC'
p1105
I1166
sS'TTCTCC'
p1106
I47935
sS'ATTCGA'
p1107
I1204
sS'TTCTCA'
p1108
I45546
sS'ATTCGG'
p1109
I1549
sS'TTCTCG'
p1110
I7896
sS'GAGCTA'
p1111
I14638
sS'TCGTAC'
p1112
I450
sS'TACCTT'
p1113
I8847
sS'TCGTAA'
p1114
I638
sS'TCGTAG'
p1115
I774
sS'TCGTCA'
p1116
I1887
sS'GAACCT'
p1117
I4195
sS'ATCCAA'
p1118
I7939
sS'ATCCAC'
p1119
I7638
sS'TGTTTG'
p1120
I32271
sS'TTCTCT'
p1121
I45169
sS'ATCCAG'
p1122
I10508
sS'GAACCC'
p1123
I6623
sS'TTATAT'
p1124
I3751
sS'GAACCA'
p1125
I6900
sS'TACCTA'
p1126
I13937
sS'TACCTC'
p1127
I15488
sS'TCGTAT'
p1128
I390
sS'ATGTTA'
p1129
I15058
sS'ACCATA'
p1130
I9528
sS'ACCATG'
p1131
I15750
sS'ATGTTG'
p1132
I15252
sS'AGCTCT'
p1133
I26662
sS'TGTCCT'
p1134
I12085
sS'AGTGGT'
p1135
I4434
sS'CGTGGT'
p1136
I2078
sS'TGATGT'
p1137
I3372
sS'ATGTTT'
p1138
I7810
sS'ACCATT'
p1139
I4218
sS'AGTGGA'
p1140
I8614
sS'AGTGGC'
p1141
I10075
sS'AGCTCC'
p1142
I36780
sS'AGCTCA'
p1143
I33360
sS'ATAGCC'
p1144
I3759
sS'CAGTAA'
p1145
I9083
sS'CAGTAC'
p1146
I5734
sS'CAGTAG'
p1147
I8402
sS'GTTAAT'
p1148
I3534
sS'AACGTT'
p1149
I2279
sS'TTTCAC'
p1150
I11455
sS'CAGTAT'
p1151
I4175
sS'GTTCCT'
p1152
I8052
sS'TTAATC'
p1153
I5459
sS'CCGGCT'
p1154
I3005
sS'GATCTA'
p1155
I10435
sS'GATCTC'
p1156
I15915
sS'ATTGAC'
p1157
I3131
sS'GATCTG'
p1158
I21409
sS'TCCCTT'
p1159
I12350
sS'CCGGCC'
p1160
I10769
sS'ATTAGG'
p1161
I6224
sS'CCGGCG'
p1162
I4154
sS'ACTCTC'
p1163
I9019
sS'ATTAGC'
p1164
I5267
sS'TCCCTC'
p1165
I31544
sS'TGTCCG'
p1166
I3890
sS'TCCCTA'
p1167
I16092
sS'TGCCAC'
p1168
I13785
sS'TCCCTG'
p1169
I35662
sS'GATCTT'
p1170
I7712
sS'CTAGAC'
p1171
I2203
sS'CACAAT'
p1172
I7921
sS'AAGTGC'
p1173
I14377
sS'TGTTCT'
p1174
I19342
sS'AAGTGG'
p1175
I16570
sS'TGATTG'
p1176
I6792
sS'TGATTC'
p1177
I4473
sS'TGTATT'
p1178
I6643
sS'TGATTA'
p1179
I6317
sS'TGTTCA'
p1180
I21936
sS'CACAAG'
p1181
I19648
sS'TGTTCC'
p1182
I20859
sS'CACAAA'
p1183
I22067
sS'CACAAC'
p1184
I13274
sS'TGTTCG'
p1185
I3544
sS'TCTGAA'
p1186
I7391
sS'TCTGAC'
p1187
I6886
sS'TCTGAG'
p1188
I11497
sS'CGCGCC'
p1189
I16086
sS'CGCGCA'
p1190
I6477
sS'GGTAAA'
p1191
I7788
sS'CGCGCG'
p1192
I11425
sS'CTCCCT'
p1193
I32023
sS'AGCGGG'
p1194
I9163
sS'AGCGGA'
p1195
I4585
sS'ACCTCT'
p1196
I14823
sS'AGATGA'
p1197
I5785
sS'GACATT'
p1198
I10865
sS'CGCGCT'
p1199
I5639
sS'GTGCGA'
p1200
I2014
sS'CTCCCG'
p1201
I17729
sS'CTATTG'
p1202
I8375
sS'CTCCCA'
p1203
I44272
sS'CTCCCC'
p1204
I46417
sS'GCCTCT'
p1205
I24503
sS'TAAGCC'
p1206
I8032
sS'CGGGAG'
p1207
I6711
sS'CCCATG'
p1208
I16333
sS'CGGGAA'
p1209
I2708
sS'CCCATA'
p1210
I9802
sS'CGGGAC'
p1211
I3326
sS'CCCATC'
p1212
I13759
sS'TTGTTG'
p1213
I19223
sS'CCTGCT'
p1214
I8488
sS'CCGAAT'
p1215
I385
sS'CCCATT'
p1216
I5655
sS'CGGGAT'
p1217
I685
sS'GCCTCG'
p1218
I13230
sS'TAGCTT'
p1219
I5543
sS'TAAGCT'
p1220
I4410
sS'GCCTCC'
p1221
I52401
sS'CCGAAC'
p1222
I918
sS'CCTGCG'
p1223
I6819
sS'CCGAAA'
p1224
I909
sS'CCGAAG'
p1225
I1837
sS'CCTGCC'
p1226
I20719
sS'CCTGCA'
p1227
I14062
sS'GTACTG'
p1228
I5663
sS'CCATTC'
p1229
I5400
sS'TATAAG'
p1230
I11567
sS'TATAAA'
p1231
I21202
sS'TATAAC'
p1232
I8935
sS'TAACGA'
p1233
I847
sS'TATAAT'
p1234
I9262
sS'CCATTT'
p1235
I4011
sS'TCAGCG'
p1236
I1856
sS'TCTACC'
p1237
I8248
sS'TCTACG'
p1238
I1871
sS'CACCGT'
p1239
I3165
sS'CGCAAC'
p1240
I2723
sS'CGCCAA'
p1241
I3504
sS'CGCAAA'
p1242
I3073
sS'ATACCG'
p1243
I592
sS'GACGCG'
p1244
I6362
sS'ATACCA'
p1245
I3546
sS'ATACCC'
p1246
I2310
sS'TCTACT'
p1247
I6689
sS'CCGAGT'
p1248
I1169
sS'ATACCT'
p1249
I2484
sS'CGCAAT'
p1250
I1149
sS'AAACTG'
p1251
I12019
sS'ATTTCT'
p1252
I13215
sS'TAGTAC'
p1253
I4600
sS'CTCAAG'
p1254
I22920
sS'CTCAAA'
p1255
I24851
sS'TAGTAG'
p1256
I7435
sS'CTCAAC'
p1257
I12900
sS'GTGTGC'
p1258
I13440
sS'GTGTGA'
p1259
I15116
sS'GTGTGG'
p1260
I21130
sS'TAACGG'
p1261
I1190
sS'CTCAAT'
p1262
I6616
sS'ATTACA'
p1263
I13515
sS'TAGTAT'
p1264
I4217
sS'GTTCTC'
p1265
I13257
sS'GTGTGT'
p1266
I20234
sS'ATCTTT'
p1267
I13594
sS'GTTGGG'
p1268
I8772
sS'GTTGGA'
p1269
I5291
sS'GTTGGC'
p1270
I4934
sS'CCTTGG'
p1271
I14739
sS'CCTTGA'
p1272
I10571
sS'GCGTAT'
p1273
I368
sS'CCTTGC'
p1274
I11393
sS'GGACGT'
p1275
I591
sS'GTTGGT'
p1276
I2493
sS'ATCTTG'
p1277
I27427
sS'ATCTTA'
p1278
I23278
sS'ATCTTC'
p1279
I22573
sS'CCTTGT'
p1280
I6940
sS'AGGATA'
p1281
I9663
sS'AAACTA'
p1282
I7536
sS'AGGATG'
p1283
I15627
sS'GACATG'
p1284
I21992
sS'TTGCGT'
p1285
I1147
sS'GACATA'
p1286
I15872
sS'TCGGCG'
p1287
I1932
sS'GAATAT'
p1288
I2624
sS'TCGGCC'
p1289
I5211
sS'TCGGCA'
p1290
I1959
sS'TTGCGA'
p1291
I1203
sS'TTGCGC'
p1292
I2170
sS'TTGCGG'
p1293
I2696
sS'GAATAG'
p1294
I4162
sS'TCGGCT'
p1295
I1783
sS'ATCAGC'
p1296
I12032
sS'GAATAC'
p1297
I3248
sS'GAATAA'
p1298
I5689
sS'CACCGC'
p1299
I10114
sS'TGCAGA'
p1300
I23538
sS'CGACAG'
p1301
I962
sS'ATACAA'
p1302
I2930
sS'TAGACC'
p1303
I8602
sS'GGACGA'
p1304
I814
sS'AAAATT'
p1305
I4106
sS'TGCCTC'
p1306
I29888
sS'GAAATG'
p1307
I18979
sS'AATGAT'
p1308
I5186
sS'GAAATA'
p1309
I14650
sS'GAAATC'
p1310
I6954
sS'CGCATT'
p1311
I1492
sS'ACCGGT'
p1312
I747
sS'GAAATT'
p1313
I3753
sS'AATGAA'
p1314
I18230
sS'ATGTCC'
p1315
I12734
sS'AATGAC'
p1316
I12120
sS'AATGAG'
p1317
I17681
sS'TCAGCA'
p1318
I6698
sS'TGCACT'
p1319
I19172
sS'CTTGGC'
p1320
I9013
sS'GTCCTT'
p1321
I10640
sS'CTTGGG'
p1322
I12077
sS'ATACAG'
p1323
I3008
sS'AGCCCT'
p1324
I20012
sS'GCGTAA'
p1325
I662
sS'TTGAAT'
p1326
I4280
sS'GTCCTA'
p1327
I12929
sS'GTCCTC'
p1328
I22055
sS'TGCACG'
p1329
I6376
sS'TGCACA'
p1330
I24398
sS'GTCCTG'
p1331
I29074
sS'TGCACC'
p1332
I18692
sS'TTGAAA'
p1333
I10970
sS'TTGAAC'
p1334
I7414
sS'AGCCCA'
p1335
I27696
sS'AGCCCC'
p1336
I30696
sS'TTAACT'
p1337
I7468
sS'ATAAAT'
p1338
I4009
sS'TGGTCG'
p1339
I2479
sS'TGGTCA'
p1340
I13775
sS'TGGTCC'
p1341
I11928
sS'ACGATT'
p1342
I393
sS'GAGACT'
p1343
I18577
sS'ACGGGG'
p1344
I2798
sS'TGGTCT'
p1345
I12665
sS'ATAAAG'
p1346
I7357
sS'ATAAAA'
p1347
I8578
sS'ATAAAC'
p1348
I4948
sS'GAGACG'
p1349
I9065
sS'ACGATG'
p1350
I1788
sS'CTACAG'
p1351
I4027
sS'GAGACC'
p1352
I23892
sS'ACGATC'
p1353
I749
sS'GAGACA'
p1354
I30958
sS'ACGATA'
p1355
I973
sS'GGTTAC'
p1356
I5402
sS'ATGTGT'
p1357
I8766
sS'GGTTAA'
p1358
I8406
sS'ACCACT'
p1359
I10894
sS'GGTTAG'
p1360
I7139
sS'CTTCCT'
p1361
I17604
sS'GAATGT'
p1362
I5274
sS'TAAACT'
p1363
I8918
sS'CCAACA'
p1364
I5790
sS'TCCGCT'
p1365
I4404
sS'ACCACG'
p1366
I6582
sS'CTTCCC'
p1367
I25821
sS'ATGTGA'
p1368
I11135
sS'CGTATG'
p1369
I2002
sS'ATGTGC'
p1370
I8355
sS'GGTTAT'
p1371
I3364
sS'TCCGCC'
p1372
I13147
sS'TCCGCA'
p1373
I5080
sS'TCCGCG'
p1374
I5421
sS'AACGTC'
p1375
I3811
sS'CGTGAG'
p1376
I5362
sS'CGTGAA'
p1377
I2353
sS'CGTGAC'
p1378
I3453
sS'AGTGTG'
p1379
I19537
sS'TCTTCG'
p1380
I4259
sS'AGTGTA'
p1381
I10985
sS'TCTTCA'
p1382
I22003
sS'AGTGTC'
p1383
I10553
sS'TCTTCC'
p1384
I27177
sS'TAAGTG'
p1385
I9971
sS'ACTCAA'
p1386
I6548
sS'TAAGTC'
p1387
I5086
sS'TAAGTA'
p1388
I8941
sS'GCTCGC'
p1389
I4548
sS'TCTTCT'
p1390
I16844
sS'AGTGTT'
p1391
I4936
sS'AACCGG'
p1392
I4063
sS'GTGCGC'
p1393
I4504
sS'TTGGCA'
p1394
I11052
sS'AAAGGT'
p1395
I2832
sS'TTGGCC'
p1396
I16314
sS'AGTAAC'
p1397
I8999
sS'CTTATT'
p1398
I4536
sS'TTGGCG'
p1399
I3077
sS'GACTTC'
p1400
I28308
sS'TCGAGT'
p1401
I617
sS'GACTTA'
p1402
I21022
sS'GACTTG'
p1403
I29760
sS'ACGTAG'
p1404
I1003
sS'AAAGGG'
p1405
I10846
sS'AAAGGA'
p1406
I10342
sS'TTGGCT'
p1407
I8935
sS'AAAGGC'
p1408
I7640
sS'GAGTAC'
p1409
I6166
sS'GACTTT'
p1410
I16843
sS'TTCTTT'
p1411
I36788
sS'CAAGAA'
p1412
I4170
sS'AGCGAG'
p1413
I7577
sS'CAAGAC'
p1414
I3898
sS'CAAGAG'
p1415
I5558
sS'CGTATT'
p1416
I856
sS'TTCTTG'
p1417
I44139
sS'ATATGC'
p1418
I3959
sS'TTCTTC'
p1419
I47385
sS'TTCTTA'
p1420
I43712
sS'CAAGAT'
p1421
I1536
sS'AGGGCT'
p1422
I11027
sS'TACGGG'
p1423
I2763
sS'TACGGA'
p1424
I2201
sS'TACGGC'
p1425
I2161
sS'CCAACT'
p1426
I3538
sS'TAGAGT'
p1427
I6688
sS'TACGGT'
p1428
I1390
sS'AGGGCG'
p1429
I8924
sS'AGGGCA'
p1430
I17673
sS'AGGGCC'
p1431
I19908
sS'TCGAGA'
p1432
I1310
sS'TAGAGC'
p1433
I8917
sS'TAGAGA'
p1434
I16284
sS'TAGAGG'
p1435
I14826
sS'AGTAAT'
p1436
I5460
sS'GTGCTG'
p1437
I36414
sS'GTGCTA'
p1438
I13273
sS'ATCTGT'
p1439
I13060
sS'GTGCTC'
p1440
I16849
sS'GCTCGT'
p1441
I1073
sS'ATCTGA'
p1442
I17077
sS'GTGCTT'
p1443
I10635
sS'ATCTGC'
p1444
I17929
sS'CGCCGT'
p1445
I2704
sS'CGAATG'
p1446
I1582
sS'ATCTGG'
p1447
I17122
sS'ATCATA'
p1448
I12784
sS'GATAGC'
p1449
I7818
sS'AAGCAG'
p1450
I20564
sS'GATAGA'
p1451
I11548
sS'AAGCAA'
p1452
I15240
sS'GATAGG'
p1453
I11490
sS'AAGCAC'
p1454
I10943
sS'TTTACC'
p1455
I10919
sS'CATTTC'
p1456
I30233
sS'CTAGGT'
p1457
I1646
sS'CATTTA'
p1458
I35423
sS'GTTATC'
p1459
I7012
sS'GTTATA'
p1460
I8169
sS'CAAACA'
p1461
I14011
sS'AAGCAT'
p1462
I5308
sS'CAAACC'
p1463
I9839
sS'GGCTCC'
p1464
I36229
sS'ATCATT'
p1465
I5895
sS'GATAGT'
p1466
I6542
sS'CTAGGG'
p1467
I4778
sS'GTTATT'
p1468
I3527
sS'CTAGGC'
p1469
I3366
sS'CATTTT'
p1470
I16376
sS'CTAGGA'
p1471
I3748
sS'AAGTTT'
p1472
I7594
sS'TACAGT'
p1473
I16071
sS'CTCGAA'
p1474
I2577
sS'GTGGCG'
p1475
I7913
sS'GTATGG'
p1476
I4516
sS'GGGGCT'
p1477
I9298
sS'TACAGG'
p1478
I27850
sS'AAGTTG'
p1479
I15205
sS'GGATGC'
p1480
I2385
sS'AAGTTA'
p1481
I17249
sS'TACAGC'
p1482
I16539
sS'AAGTTC'
p1483
I13047
sS'TACAGA'
p1484
I23839
sS'GGGGCC'
p1485
I20722
sS'GTATGA'
p1486
I4475
sS'GGGGCA'
p1487
I12593
sS'ATATGT'
p1488
I4545
sS'GGGGCG'
p1489
I14083
sS'TATATC'
p1490
I9175
sS'TATATA'
p1491
I27184
sS'TATATG'
p1492
I16245
sS'ACATCG'
p1493
I955
sS'TCCGGT'
p1494
I1970
sS'GCCCAT'
p1495
I3594
sS'TATATT'
p1496
I9056
sS'TAGTAA'
p1497
I8417
sS'TGATGG'
p1498
I4488
sS'CTCGGT'
p1499
I2517
sS'ATGAGT'
p1500
I4973
sS'GCCCAC'
p1501
I11052
sS'TGATGA'
p1502
I4112
sS'TGTTTA'
p1503
I31208
sS'CACATC'
p1504
I16818
sS'TGTTTC'
p1505
I26572
sS'CACATA'
p1506
I21466
sS'TTAATT'
p1507
I4302
sS'CACATG'
p1508
I28456
sS'TTTCAT'
p1509
I7183
sS'ATGAGA'
p1510
I9719
sS'ATGAGC'
p1511
I6985
sS'ATGAGG'
p1512
I11501
sS'TTAATA'
p1513
I11226
sS'ACTCTG'
p1514
I18160
sS'TGCCAG'
p1515
I15978
sS'ACTCTA'
p1516
I8563
sS'TGTTTT'
p1517
I17380
sS'CACATT'
p1518
I10054
sS'TTAATG'
p1519
I10129
sS'TGTAAT'
p1520
I8621
sS'AAATTA'
p1521
I11512
sS'AAATTG'
p1522
I7977
sS'CTTCGA'
p1523
I2076
sS'CGTACC'
p1524
I1871
sS'AAATTT'
p1525
I3987
sS'CTTAGT'
p1526
I4940
sS'GGGAAC'
p1527
I7818
sS'GGTGCG'
p1528
I4642
sS'GGGAAA'
p1529
I10989
sS'GGGAAG'
p1530
I20347
sS'GGTGCC'
p1531
I8802
sS'GGTGCA'
p1532
I8622
sS'AGAGCG'
p1533
I3893
sS'GCGACT'
p1534
I1350
sS'AGCGAT'
p1535
I1550
sS'AGAGCC'
p1536
I11057
sS'AGAGCA'
p1537
I10333
sS'GCGTAG'
p1538
I1220
sS'GGTGCT'
p1539
I5735
sS'NTGCNC'
p1540
I1
sS'GCGTAC'
p1541
I624
sS'ACTGAA'
p1542
I6281
sS'GGGAAT'
p1543
I3227
sS'GCGACG'
p1544
I1824
sS'AGAGCT'
p1545
I5497
sS'GCGACA'
p1546
I2369
sS'TATCGG'
p1547
I1526
sS'GCGACC'
p1548
I3269
sS'TCCGGC'
p1549
I5839
sS'GCAGGA'
p1550
I4311
sS'GCAGGC'
p1551
I3969
sS'GCAGGG'
p1552
I7023
sS'GGCGAT'
p1553
I1229
sS'CCGTGC'
p1554
I2758
sS'GCTCGG'
p1555
I6045
sS'TATTCT'
p1556
I20683
sS'CCGTGG'
p1557
I3784
sS'ACTTAC'
p1558
I4982
sS'CTTTAG'
p1559
I11957
sS'GCAGGT'
p1560
I1456
sS'TCTTGA'
p1561
I11280
sS'ACGTCT'
p1562
I1950
sS'TATTCC'
p1563
I17532
sS'GGCGAG'
p1564
I7966
sS'TATTCA'
p1565
I25172
sS'CAATTA'
p1566
I6331
sS'TATTCG'
p1567
I3050
sS'GGCGAC'
p1568
I5152
sS'TGTAGA'
p1569
I10911
sS'GGCTCA'
p1570
I30842
sS'AGCATT'
p1571
I9158
sS'TTTACA'
p1572
I17810
sS'TTTACG'
p1573
I2523
sS'TGTAGG'
p1574
I10579
sS'TGCTTA'
p1575
I28554
sS'TTCGGA'
p1576
I2278
sS'TTCGGC'
p1577
I3128
sS'CTTTAC'
p1578
I9784
sS'TTCAAG'
p1579
I24046
sS'TTCGGG'
p1580
I4280
sS'AGCATG'
p1581
I22232
sS'GGCTCT'
p1582
I20718
sS'AGCATC'
p1583
I13514
sS'TTTACT'
p1584
I11554
sS'AGCATA'
p1585
I14624
sS'AACCTT'
p1586
I9017
sS'ATTGTA'
p1587
I8238
sS'TTCGGT'
p1588
I1464
sS'GTTTAT'
p1589
I5780
sS'CTCTCA'
p1590
I37383
sS'GCCTTT'
p1591
I13029
sS'TGCTTG'
p1592
I32645
sS'GTTTAA'
p1593
I12360
sS'TCCAGG'
p1594
I27332
sS'AACTTG'
p1595
I28273
sS'CAATCT'
p1596
I3755
sS'GTTTAG'
p1597
I8685
sS'GAGGTA'
p1598
I13031
sS'CTGGCT'
p1599
I12817
sS'AGGCGG'
p1600
I11618
sS'GTCGGT'
p1601
I1422
sS'AGGCGC'
p1602
I6707
sS'AGGAGT'
p1603
I8735
sS'ACAGCC'
p1604
I7347
sS'ACAGCA'
p1605
I7237
sS'TCCAGC'
p1606
I24421
sS'ACAGCG'
p1607
I2117
sS'AGGAGC'
p1608
I15388
sS'AGGCGT'
p1609
I2795
sS'AGGAGA'
p1610
I19744
sS'CTGGCG'
p1611
I6444
sS'AGGAGG'
p1612
I34617
sS'CTGGCA'
p1613
I15573
sS'CTGGCC'
p1614
I27758
sS'CGATAC'
p1615
I258
sS'ACAGCT'
p1616
I3797
sS'GGAAAA'
p1617
I6039
sS'AACGCT'
p1618
I3932
sS'AATTTT'
p1619
I10917
sS'TGTCAA'
p1620
I10274
sS'TGTCAC'
p1621
I13989
sS'CCCTCT'
p1622
I23458
sS'GCTCTA'
p1623
I9628
sS'TGTCAG'
p1624
I15719
sS'AACGCG'
p1625
I2781
sS'AATTTA'
p1626
I28871
sS'AATTTC'
p1627
I17009
sS'ATTGGC'
p1628
I4785
sS'AACGCA'
p1629
I4990
sS'AATTTG'
p1630
I23161
sS'CCCTCA'
p1631
I26200
sS'ATTTAA'
p1632
I14235
sS'TGTCAT'
p1633
I7039
sS'CCCTCG'
p1634
I10208
sS'TCCAGT'
p1635
I10528
sS'CAATAT'
p1636
I1662
sS'ATTTTT'
p1637
I9605
sS'TGACCA'
p1638
I4063
sS'CATTCT'
p1639
I21273
sS'TAAATC'
p1640
I6381
sS'TGACCG'
p1641
I969
sS'CATTCG'
p1642
I4247
sS'TGACCT'
p1643
I4292
sS'CATTCA'
p1644
I28351
sS'GCAATT'
p1645
I1560
sS'TAAATG'
p1646
I16539
sS'ACAAAT'
p1647
I2265
sS'GATTAA'
p1648
I15488
sS'GTAGGC'
p1649
I2368
sS'GATTAC'
p1650
I17597
sS'GTAGGA'
p1651
I3193
sS'GTAGGG'
p1652
I4146
sS'GATTAG'
p1653
I12430
sS'GAATGA'
p1654
I9589
sS'ACAAAC'
p1655
I3697
sS'TTTCAA'
p1656
I14110
sS'CAATTG'
p1657
I4478
sS'ACAAAG'
p1658
I6124
sS'GCGGGC'
p1659
I5387
sS'AGGCGA'
p1660
I3567
sS'GCGGGA'
p1661
I4626
sS'GCGGGG'
p1662
I13014
sS'GATTAT'
p1663
I8406
sS'GTAGGT'
p1664
I1393
sS'GGCGTC'
p1665
I5889
sS'TAATGA'
p1666
I6808
sS'GATGTT'
p1667
I6234
sS'TAATGC'
p1668
I4788
sS'GGAGAT'
p1669
I1232
sS'GCCCTT'
p1670
I8229
sS'GCGCCG'
p1671
I5143
sS'CAATAA'
p1672
I3329
sS'GCCCTC'
p1673
I22944
sS'GATGTG'
p1674
I20671
sS'GCCCTA'
p1675
I11030
sS'GATGTA'
p1676
I12300
sS'GCCCTG'
p1677
I34386
sS'GATGTC'
p1678
I11755
sS'AACCTC'
p1679
I19259
sS'TGAAAT'
p1680
I3929
sS'AACCTA'
p1681
I14323
sS'TTTCAG'
p1682
I16312
sS'ATCCGT'
p1683
I1156
sS'TTCTAC'
p1684
I15721
sS'TGAAAA'
p1685
I6627
sS'TGAAAC'
p1686
I5316
sS'TGAAAG'
p1687
I8038
sS'TTCTAT'
p1688
I11808
sS'ATCCGC'
p1689
I3568
sS'ATCCGA'
p1690
I1721
sS'ATCCGG'
p1691
I2978
sS'TGGCTC'
p1692
I18818
sS'TAACAA'
p1693
I4613
sS'TGGCTA'
p1694
I11967
sS'GCTACC'
p1695
I5833
sS'TGGCTG'
p1696
I29481
sS'GACCGG'
p1697
I6329
sS'GTCGGA'
p1698
I2243
sS'AGTTGT'
p1699
I8261
sS'AGCTAT'
p1700
I7806
sS'ATTAGT'
p1701
I3175
sS'GTCGGC'
p1702
I3872
sS'CGTCGA'
p1703
I824
sS'TGGCTT'
p1704
I8901
sS'AGTTGG'
p1705
I11768
sS'AGCTAA'
p1706
I17426
sS'ACGCCG'
p1707
I1691
sS'AGCTAC'
p1708
I15031
sS'AGTTGC'
p1709
I10075
sS'AGTTGA'
p1710
I11408
sS'AGCTAG'
p1711
I14076
sS'CGTTGA'
p1712
I2500
sS'GCACCT'
p1713
I2686
sS'CAGTGT'
p1714
I11544
sS'AGTCAG'
p1715
I16603
sS'TCAGGT'
p1716
I1188
sS'TCAAGG'
p1717
I6073
sS'GTCGGG'
p1718
I5767
sS'TCAAGC'
p1719
I3670
sS'CATGGA'
p1720
I8772
sS'GCACCA'
p1721
I3722
sS'CAGTGC'
p1722
I14271
sS'GCACCC'
p1723
I3760
sS'CAGTGA'
p1724
I17753
sS'CAGTGG'
p1725
I20114
sS'GCACCG'
p1726
I1615
sS'TCAAGT'
p1727
I3037
sS'CTGCAA'
p1728
I10566
sS'GAGCCC'
p1729
I29327
sS'ACTAGT'
p1730
I1995
sS'TCAGGC'
p1731
I2974
sS'CGAGCT'
p1732
I1253
sS'TCCTAA'
p1733
I14894
sS'AGTCAA'
p1734
I10085
sS'TTCCCT'
p1735
I26556
sS'CGAGCG'
p1736
I1839
sS'CGAGCA'
p1737
I1792
sS'GAGCCG'
p1738
I13526
sS'CGAGCC'
p1739
I3810
sS'TTCCCA'
p1740
I32068
sS'TTCCCC'
p1741
I33798
sS'GTTCAC'
p1742
I6145
sS'GTTCAA'
p1743
I7814
sS'TGAGCA'
p1744
I7332
sS'GGACCT'
p1745
I2602
sS'TACATG'
p1746
I20882
sS'AAGTAC'
p1747
I7015
sS'CACACT'
p1748
I21534
sS'TACATC'
p1749
I11860
sS'AAGTAG'
p1750
I9934
sS'TACATA'
p1751
I24048
sS'GCACAC'
p1752
I1883
sS'GGACCG'
p1753
I1305
sS'ATTGGT'
p1754
I2215
sS'GGACCA'
p1755
I2848
sS'TCATCA'
p1756
I7358
sS'GGACCC'
p1757
I3247
sS'CACACG'
p1758
I9837
sS'TACATT'
p1759
I12150
sS'CACACC'
p1760
I29874
sS'CTGCAT'
p1761
I5678
sS'CACACA'
p1762
I62255
sS'TCTGCC'
p1763
I15383
sS'TCTGCA'
p1764
I14814
sS'TCTGCG'
p1765
I4772
sS'TAGATT'
p1766
I3976
sS'CCCGTC'
p1767
I5864
sS'TTAAGG'
p1768
I7940
sS'CCCGTA'
p1769
I2484
sS'TTAAGA'
p1770
I8827
sS'CCCGTG'
p1771
I6812
sS'TTAAGC'
p1772
I5218
sS'TTACGT'
p1773
I621
sS'TAGATC'
p1774
I5603
sS'AAACAG'
p1775
I8125
sS'TAGATA'
p1776
I12827
sS'TTTCGC'
p1777
I2313
sS'TAGATG'
p1778
I12503
sS'TCTGCT'
p1779
I8955
sS'TTACGC'
p1780
I681
sS'TTAAGT'
p1781
I5251
sS'TTACGA'
p1782
I572
sS'TTACGG'
p1783
I846
sS'CCCGTT'
p1784
I1465
sS'AGTGAC'
p1785
I11483
sS'AGTGAA'
p1786
I11542
sS'AGTGAG'
p1787
I18594
sS'GCGGTC'
p1788
I2320
sS'CGGGCG'
p1789
I7300
sS'AAACAC'
p1790
I5064
sS'TAAGAG'
p1791
I6271
sS'CGGGCC'
p1792
I11321
sS'TAAGAA'
p1793
I5992
sS'CGGGCA'
p1794
I5309
sS'TAAGAC'
p1795
I3997
sS'ATTTAT'
p1796
I5947
sS'AGTGAT'
p1797
I4002
sS'CTTTCC'
p1798
I32174
sS'TAAGAT'
p1799
I1835
sS'CCTGAA'
p1800
I5799
sS'CCTGAC'
p1801
I7239
sS'CCTGAG'
p1802
I11297
sS'GTTAGG'
p1803
I8085
sS'GCCAAC'
p1804
I8244
sS'TCATCT'
p1805
I7088
sS'GTTAGC'
p1806
I5054
sS'GTTAGA'
p1807
I7143
sS'TGTAGC'
p1808
I8521
sS'ACCCCC'
p1809
I11957
sS'GACATC'
p1810
I14899
sS'TATACG'
p1811
I2227
sS'GTTAGT'
p1812
I3512
sS'TATACC'
p1813
I9516
sS'TATACA'
p1814
I18040
sS'AACGCC'
p1815
I5625
sS'CGTATA'
p1816
I1595
sS'TCTTGT'
p1817
I7293
sS'TCCACG'
p1818
I6671
sS'GTAATG'
p1819
I7457
sS'TTTATT'
p1820
I9317
sS'GTAATA'
p1821
I7377
sS'ATTGGA'
p1822
I3683
sS'GTAATC'
p1823
I5364
sS'GTACAG'
p1824
I3012
sS'TCTAAC'
p1825
I5277
sS'CGTTCT'
p1826
I3681
sS'TCTAAA'
p1827
I8756
sS'CGGATC'
p1828
I1953
sS'CCACCA'
p1829
I5055
sS'CCACCC'
p1830
I7404
sS'GTTCGT'
p1831
I970
sS'TTTATG'
p1832
I16232
sS'GTAATT'
p1833
I2827
sS'GTAACG'
p1834
I1606
sS'TTTATC'
p1835
I12690
sS'ACTAGC'
p1836
I3357
sS'TTTATA'
p1837
I19184
sS'ACTAGA'
p1838
I5358
sS'CCACCT'
p1839
I4494
sS'CGTTCG'
p1840
I1686
sS'ACTTGT'
p1841
I4566
sS'CGTTCA'
p1842
I4126
sS'CGTTCC'
p1843
I5931
sS'TCTAAT'
p1844
I2947
sS'TCGTCT'
p1845
I1897
sS'CTTTGT'
p1846
I12966
sS'CCCTCC'
p1847
I53391
sS'ACTGGA'
p1848
I5121
sS'ACTGGC'
p1849
I4919
sS'TAGTCC'
p1850
I12539
sS'GTGACC'
p1851
I16115
sS'TAGTCA'
p1852
I14517
sS'GTGACA'
p1853
I18354
sS'TAGTCG'
p1854
I1809
sS'GTGACG'
p1855
I4919
sS'ATTTAG'
p1856
I8046
sS'ACTGGT'
p1857
I1808
sS'CTTTGG'
p1858
I19820
sS'GTATTT'
p1859
I6080
sS'AACGTG'
p1860
I6754
sS'CTTTGA'
p1861
I17691
sS'GTGACT'
p1862
I13781
sS'TAGTCT'
p1863
I10592
sS'GTGCAC'
p1864
I8188
sS'CGACGG'
p1865
I823
sS'GTGCAA'
p1866
I7385
sS'CGACGA'
p1867
I327
sS'GTGCAG'
p1868
I16015
sS'CGACGC'
p1869
I785
sS'ACCTAC'
p1870
I6666
sS'CCGCAG'
p1871
I3546
sS'CCGCAA'
p1872
I977
sS'CCGCAC'
p1873
I1686
sS'ACGTGG'
p1874
I3712
sS'CGAAGC'
p1875
I1851
sS'CGACGT'
p1876
I254
sS'CGAAGA'
p1877
I1549
sS'CCCCGT'
p1878
I2682
sS'CGAAGG'
p1879
I2673
sS'GCGCTC'
p1880
I5587
sS'GTGCAT'
p1881
I4468
sS'GCGCTA'
p1882
I2009
sS'NCTGAC'
p1883
I1
sS'CCGCAT'
p1884
I446
sS'ATTACC'
p1885
I6181
sS'GAAGAT'
p1886
I2488
sS'GGATCT'
p1887
I2937
sS'CTTCCG'
p1888
I6520
sS'TCGGAA'
p1889
I772
sS'TCGGAC'
p1890
I774
sS'GAATCT'
p1891
I6241
sS'CCTATA'
p1892
I5803
sS'TCGGAG'
p1893
I1660
sS'GGATCG'
p1894
I982
sS'GAAGAG'
p1895
I13255
sS'GAAGAA'
p1896
I9725
sS'GGATCC'
p1897
I4537
sS'GAAGAC'
p1898
I6940
sS'GGATCA'
p1899
I3829
sS'GAATCA'
p1900
I10299
sS'GAATCC'
p1901
I8364
sS'TCGGAT'
p1902
I243
sS'GAATCG'
p1903
I2242
sS'ATGGTC'
p1904
I4671
sS'CAGATG'
p1905
I20118
sS'ATGGTA'
p1906
I7026
sS'TGACCC'
p1907
I3811
sS'ATGGTG'
p1908
I11988
sS'CAGATC'
p1909
I8456
sS'CTATCC'
p1910
I7116
sS'CAGATA'
p1911
I15349
sS'CTCGAG'
p1912
I4200
sS'CAGATT'
p1913
I3577
sS'CTCGAC'
p1914
I2480
sS'ATGGTT'
p1915
I2240
sS'TCGCAA'
p1916
I586
sS'GCTATT'
p1917
I2315
sS'TGCGTC'
p1918
I4406
sS'GCGTGG'
p1919
I5726
sS'AATGGT'
p1920
I4723
sS'ACGTGT'
p1921
I1638
sS'CCCCGC'
p1922
I20576
sS'AATGGA'
p1923
I11352
sS'AATGGG'
p1924
I12033
sS'CAATAC'
p1925
I1936
sS'CCCCGA'
p1926
I4939
sS'AATAGA'
p1927
I13499
sS'ACAATA'
p1928
I5402
sS'CAACTA'
p1929
I3925
sS'ATTTAC'
p1930
I7154
sS'GTGAAT'
p1931
I3483
sS'TTGACC'
p1932
I9815
sS'TTGACA'
p1933
I11400
sS'AAAAGT'
p1934
I6326
sS'TTGACG'
p1935
I2043
sS'AGCCAA'
p1936
I18690
sS'TGGTAG'
p1937
I5391
sS'CGCCAT'
p1938
I2655
sS'GAGTGT'
p1939
I11385
sS'ACGGGA'
p1940
I1496
sS'TGGTAA'
p1941
I5406
sS'AAAAGG'
p1942
I15972
sS'GGAGGT'
p1943
I2144
sS'AGCCAT'
p1944
I7601
sS'AAAAGC'
p1945
I10680
sS'AAAAGA'
p1946
I18156
sS'TTGACT'
p1947
I8386
sS'GAGTGG'
p1948
I20885
sS'CGCCAG'
p1949
I8242
sS'TGGTAT'
p1950
I3128
sS'ACGCCT'
p1951
I1948
sS'GAGTGC'
p1952
I15336
sS'CGCCAC'
p1953
I7912
sS'GAGTGA'
p1954
I19284
sS'GCCAGG'
p1955
I29857
sS'GCCAGA'
p1956
I16488
sS'GCCAGC'
p1957
I19351
sS'GCCCGT'
p1958
I2482
sS'TACCGA'
p1959
I2003
sS'TACCGC'
p1960
I2916
sS'TACCGG'
p1961
I2702
sS'GCCCGC'
p1962
I14139
sS'GCCAGT'
p1963
I8360
sS'GCCCGA'
p1964
I4892
sS'GCCCGG'
p1965
I15667
sS'TGCGAT'
p1966
I1026
sS'CTTCAC'
p1967
I9981
sS'CTTCAA'
p1968
I10805
sS'TACCGT'
p1969
I1765
sS'TCCGAG'
p1970
I4261
sS'TCCGAA'
p1971
I1762
sS'TCCGAC'
p1972
I2117
sS'AATTCA'
p1973
I23306
sS'AATTCC'
p1974
I17418
sS'AATTCG'
p1975
I3071
sS'TCCGAT'
p1976
I678
sS'TAGCGG'
p1977
I2543
sS'TAGCGA'
p1978
I1547
sS'TAGCGC'
p1979
I2253
sS'GTCATC'
p1980
I14459
sS'GTCATA'
p1981
I13675
sS'GTCATG'
p1982
I19284
sS'AGCAGG'
p1983
I34684
sS'CCAGGT'
p1984
I1533
sS'TTGGAA'
p1985
I5964
sS'AGCAGC'
p1986
I32023
sS'AGCAGA'
p1987
I27907
sS'GTCATT'
p1988
I8615
sS'CCAGGG'
p1989
I5515
sS'AGCAGT'
p1990
I16208
sS'CCAGGA'
p1991
I3874
sS'CCAGGC'
p1992
I4733
sS'TTGGAT'
p1993
I1874
sS'ACGGTA'
p1994
I1173
sS'CATCTG'
p1995
I29608
sS'ACGGTC'
p1996
I1261
sS'CATCTA'
p1997
I15394
sS'GATCGA'
p1998
I1814
sS'CATCTC'
p1999
I22060
sS'ATAGAA'
p2000
I2542
sS'ACAAAA'
p2001
I6256
sS'GGGGTC'
p2002
I5660
sS'GATCGT'
p2003
I1544
sS'CATCTT'
p2004
I9768
sS'CAAGCA'
p2005
I8763
sS'CAAGCG'
p2006
I2592
sS'ACTCGA'
p2007
I1410
sS'GTTCTT'
p2008
I5995
sS'ACATGA'
p2009
I3959
sS'CGTAAT'
p2010
I793
sS'ACATGC'
p2011
I3406
sS'GCTCAA'
p2012
I6679
sS'AGGGAT'
p2013
I2454
sS'GTACAT'
p2014
I1385
sS'GGCCAT'
p2015
I4718
sS'CGTAAG'
p2016
I2196
sS'GTTCTG'
p2017
I19583
sS'ACATGT'
p2018
I3223
sS'GTTCTA'
p2019
I10705
sS'CGTAAA'
p2020
I1998
sS'AGGGAG'
p2021
I17863
sS'ACGGAA'
p2022
I1019
sS'GGATAC'
p2023
I959
sS'CCCGCC'
p2024
I32572
sS'CCCGCA'
p2025
I8405
sS'CCCTTT'
p2026
I13876
sS'TGTTGT'
p2027
I11478
sS'GTTGTT'
p2028
I3257
sS'TGGATC'
p2029
I5545
sS'TTGTCG'
p2030
I2455
sS'TTGTCC'
p2031
I16924
sS'TTGTCA'
p2032
I17896
sS'ATCCTC'
p2033
I16689
sS'GTTGTA'
p2034
I8212
sS'ATCCTA'
p2035
I11510
sS'GTTGTC'
p2036
I6249
sS'ATCCTG'
p2037
I20012
sS'GTTGTG'
p2038
I11494
sS'TTGTCT'
p2039
I16959
sS'ACGCGC'
p2040
I1693
sS'CCACTG'
p2041
I8528
sS'TGACTA'
p2042
I4232
sS'TGGGCC'
p2043
I16694
sS'TGACTC'
p2044
I5958
sS'TGGGCA'
p2045
I14091
sS'TGGGCG'
p2046
I7631
sS'TGACTG'
p2047
I7666
sS'AAGCCG'
p2048
I6088
sS'AAGCCC'
p2049
I19634
sS'AAGCCA'
p2050
I23173
sS'CAAAAT'
p2051
I3220
sS'ACGCGG'
p2052
I2009
sS'TGGGCT'
p2053
I9545
sS'CAAAAC'
p2054
I6848
sS'CAAAAA'
p2055
I8309
sS'AAGCCT'
p2056
I13546
sS'CAAAAG'
p2057
I8215
sS'TGATTT'
p2058
I3547
sS'TCAATG'
p2059
I5520
sS'AAACTT'
p2060
I3659
sS'TCAATC'
p2061
I2496
sS'TCAATA'
p2062
I5203
sS'CAGTTC'
p2063
I15234
sS'GACCCG'
p2064
I9198
sS'GACCCA'
p2065
I21549
sS'GACCCC'
p2066
I22201
sS'CTCTGT'
p2067
I28135
sS'TCAATT'
p2068
I1778
sS'TGGCGT'
p2069
I1708
sS'CTCTGC'
p2070
I44269
sS'GACCCT'
p2071
I16010
sS'CTCTGA'
p2072
I32777
sS'ACAATC'
p2073
I2681
sS'CTCTGG'
p2074
I40274
sS'CAGTTT'
p2075
I7970
sS'GCGAAG'
p2076
I2282
sS'CTACTC'
p2077
I5227
sS'TGCTGG'
p2078
I37663
sS'CGAGGT'
p2079
I678
sS'TGCTGA'
p2080
I27507
sS'CCCTTG'
p2081
I26627
sS'TGCTGC'
p2082
I32236
sS'AGCTGC'
p2083
I31760
sS'GCTGGT'
p2084
I3297
sS'GTGATT'
p2085
I3864
sS'CTACTA'
p2086
I5319
sS'TGCTGT'
p2087
I22086
sS'TAGGGC'
p2088
I6947
sS'TAATGG'
p2089
I5998
sS'TCGCTA'
p2090
I1357
sS'ATGCGG'
p2091
I1979
sS'GTGATG'
p2092
I14328
sS'GCTGGG'
p2093
I21528
sS'GTGATC'
p2094
I7851
sS'GCTGGC'
p2095
I8649
sS'GTGATA'
p2096
I10282
sS'GCTGGA'
p2097
I9455
sS'TGATAA'
p2098
I3779
sS'TGTAGT'
p2099
I7986
sS'TGATAC'
p2100
I1555
sS'TGATAG'
p2101
I2367
sS'CTTGTT'
p2102
I4425
sS'GACGGT'
p2103
I2802
sS'GCTAGG'
p2104
I7256
sS'GCTAGA'
p2105
I5524
sS'ATGAAT'
p2106
I3633
sS'GCTAGC'
p2107
I3724
sS'ATAGGG'
p2108
I2662
sS'TGATAT'
p2109
I1711
sS'GAGGTT'
p2110
I5648
sS'GCTAGT'
p2111
I2483
sS'ATGAAC'
p2112
I5325
sS'GACGGG'
p2113
I8927
sS'CTTGTG'
p2114
I16493
sS'GACGGA'
p2115
I5059
sS'CTTGTA'
p2116
I11222
sS'GACGGC'
p2117
I6219
sS'CTTGTC'
p2118
I10286
sS'CAAAGA'
p2119
I10271
sS'CTACTT'
p2120
I3282
sS'CCCGCT'
p2121
I6191
sS'NNNGAA'
p2122
I1
sS'GANACA'
p2123
I1
sS'GNCCGC'
p2124
I1
sS'CAACGT'
p2125
I538
sS'GGTGAA'
p2126
I6802
sS'GGTGAC'
p2127
I9298
sS'GCGTCT'
p2128
I3021
sS'TGTAAA'
p2129
I16998
sS'GGTGAG'
p2130
I12391
sS'GGAATG'
p2131
I7606
sS'CGTCCT'
p2132
I3503
sS'GGAATC'
p2133
I3190
sS'GGAATA'
p2134
I4738
sS'GCGTCA'
p2135
I3131
sS'GCGTCC'
p2136
I6569
sS'GGTGAT'
p2137
I2528
sS'GCGTCG'
p2138
I1967
sS'CGTCCG'
p2139
I2839
sS'GGAATT'
p2140
I2090
sS'CGTCCC'
p2141
I7494
sS'CGTCCA'
p2142
I3833
sS'TTTCGA'
p2143
I1735
sS'CCGTAT'
p2144
I389
sS'GAAGTC'
p2145
I8211
sS'GAAGTA'
p2146
I9429
sS'GAAGTG'
p2147
I15867
sS'GCCGTA'
p2148
I2373
sS'CCGTAC'
p2149
I627
sS'CCGTAA'
p2150
I737
sS'TTCGAA'
p2151
I1997
sS'GCACTA'
p2152
I2887
sS'GCCGTT'
p2153
I1492
sS'GAAGTT'
p2154
I2967
sS'GGCGCG'
p2155
I12424
sS'ATGCCC'
p2156
I10713
sS'TTAGTT'
p2157
I2111
sS'TATTAG'
p2158
I12209
sS'GGCGCC'
p2159
I16753
sS'TATTAA'
p2160
I20538
sS'GGCGCA'
p2161
I7605
sS'TATTAC'
p2162
I11656
sS'ACTATG'
p2163
I7236
sS'CCATAT'
p2164
I1580
sS'TTTAAG'
p2165
I17394
sS'ACTATC'
p2166
I3776
sS'TTTAAA'
p2167
I30369
sS'ACTATA'
p2168
I6207
sS'TTTAAC'
p2169
I11188
sS'TATTAT'
p2170
I12847
sS'TTAGTG'
p2171
I6441
sS'GGCGCT'
p2172
I7010
sS'TTAGTC'
p2173
I3755
sS'ATGCCT'
p2174
I10630
sS'TTAGTA'
p2175
I6310
sS'TTTAAT'
p2176
I7710
sS'CTAACG'
p2177
I1707
sS'GCCGAT'
p2178
I851
sS'GGGCAT'
p2179
I2487
sS'TTCTAG'
p2180
I21219
sS'TTTCCA'
p2181
I17980
sS'TTTCCC'
p2182
I19061
sS'GTACGT'
p2183
I490
sS'TATCGA'
p2184
I1317
sS'GTTTGT'
p2185
I9438
sS'TTCTAA'
p2186
I26975
sS'TTTCCT'
p2187
I16672
sS'GGGCAG'
p2188
I14689
sS'GTCTGT'
p2189
I16793
sS'GGGCAA'
p2190
I5665
sS'GGGCAC'
p2191
I5623
sS'GTACGG'
p2192
I827
sS'CTATTT'
p2193
I5976
sS'GTTTGA'
p2194
I12187
sS'GTTTGG'
p2195
I13791
sS'GTACGA'
p2196
I444
sS'CCGCTC'
p2197
I5056
sS'GCATGT'
p2198
I3018
sS'CCGCTA'
p2199
I1983
sS'CCGCTG'
p2200
I7016
sS'GCGCGG'
p2201
I6489
sS'GCGCGC'
p2202
I5562
sS'ATCAAC'
p2203
I7647
sS'GCGCGA'
p2204
I1844
sS'GCATGG'
p2205
I4366
sS'GCATGC'
p2206
I3506
sS'CCGCTT'
p2207
I1282
sS'GCATGA'
p2208
I3636
sS'GTCGAC'
p2209
I1303
sS'GTCGAA'
p2210
I1287
sS'GTCGAG'
p2211
I2609
sS'AGACAT'
p2212
I2102
sS'ACCGAG'
p2213
I3224
sS'TGCGCT'
p2214
I4304
sS'GAGCTC'
p2215
I21093
sS'ATTGAT'
p2216
I1374
sS'GAGCTG'
p2217
I38655
sS'AAACGA'
p2218
I1489
sS'AAACGC'
p2219
I1814
sS'GTAACA'
p2220
I8601
sS'CACGCG'
p2221
I5008
sS'AAACGG'
p2222
I2014
sS'ATATAC'
p2223
I2930
sS'TGTCCC'
p2224
I16914
sS'TGCGCG'
p2225
I5930
sS'TGTCCA'
p2226
I14781
sS'GAGCTT'
p2227
I8559
sS'TGCGCC'
p2228
I8903
sS'ATTGAG'
p2229
I4896
sS'TGCGCA'
p2230
I6082
sS'GTAGTG'
p2231
I5615
sS'AAACGT'
p2232
I1132
sS'TGGGTT'
p2233
I3229
sS'ATTTCA'
p2234
I19418
sS'ATTTCC'
p2235
I16603
sS'ATCAGT'
p2236
I7358
sS'ATCGGG'
p2237
I1884
sS'CATAGT'
p2238
I6055
sS'ATCGGC'
p2239
I1578
sS'CCGTGT'
p2240
I1818
sS'ATCGGA'
p2241
I1151
sS'TGGGTG'
p2242
I17430
sS'CGATCA'
p2243
I810
sS'TGGGTC'
p2244
I7101
sS'TGGGTA'
p2245
I7475
sS'CATAGG'
p2246
I9055
sS'ATCGGT'
p2247
I561
sS'ATCAGG'
p2248
I13031
sS'ATCAGA'
p2249
I13844
sS'CATAGA'
p2250
I9706
sS'ACGGGT'
p2251
I497
sS'ATAATT'
p2252
I3067
sS'CCTGGT'
p2253
I2994
sS'GATTCT'
p2254
I18139
sS'CTTTTG'
p2255
I30339
sS'TACTAG'
p2256
I11022
sS'CTTTTC'
p2257
I29354
sS'CTTTTA'
p2258
I32302
sS'GATTCC'
p2259
I17734
sS'GATTCA'
p2260
I20587
sS'GATTCG'
p2261
I3747
sS'ACGGGC'
p2262
I1465
sS'TACTAT'
p2263
I10261
sS'CTTTTT'
p2264
I13909
sS'ACCAAC'
p2265
I6960
sS'CGTAGA'
p2266
I1804
sS'TCACGA'
p2267
I607
sS'TCACGC'
p2268
I1174
sS'TCACGG'
p2269
I1150
sS'ACCGAT'
p2270
I435
sS'TCACGT'
p2271
I755
sS'TTCCAC'
p2272
I15388
sS'TTCCAA'
p2273
I17369
sS'TTCCAG'
p2274
I24404
sS'ACCCTT'
p2275
I5137
sS'TGAAGT'
p2276
I4813
sS'AAACAA'
p2277
I9403
sS'ATGCTT'
p2278
I6662
sS'AGGCAC'
p2279
I8817
sS'TTCCAT'
p2280
I8340
sS'ACCCTA'
p2281
I9302
sS'TGAAGA'
p2282
I8280
sS'TGAAGG'
p2283
I9834
sS'ACCCTG'
p2284
I20525
sS'CTGACT'
p2285
I12170
sS'CCCCTT'
p2286
I8656
sS'AGTTAT'
p2287
I5592
sS'ACATAT'
p2288
I1973
sS'CTGACG'
p2289
I4159
sS'CTGACC'
p2290
I18894
sS'CTGACA'
p2291
I15921
sS'AGTTAA'
p2292
I13423
sS'CCCCTG'
p2293
I25298
sS'AGTTAC'
p2294
I8722
sS'CCCCTC'
p2295
I27499
sS'AGTTAG'
p2296
I9604
sS'CCCCTA'
p2297
I11859
sS'ACACAG'
p2298
I4193
sS'ACACAA'
p2299
I2726
sS'ACACAC'
p2300
I4086
sS'AATGTT'
p2301
I6988
sS'CTGCAG'
p2302
I23710
sS'CATGGG'
p2303
I11267
sS'CTGCAC'
p2304
I13426
sS'CATGGC'
p2305
I10451
sS'AATGTC'
p2306
I12284
sS'ACACAT'
p2307
I1872
sS'AATGTA'
p2308
I18152
sS'AATGTG'
p2309
I21379
sS'CATGGT'
p2310
I5120
sS'GCACAA'
p2311
I1904
sS'GCACAG'
p2312
I3639
sS'ATGCTG'
p2313
I20324
sS'CGAGAT'
p2314
I352
sS'ATTACT'
p2315
I5835
sS'ACATTG'
p2316
I6268
sS'GTACCA'
p2317
I3094
sS'ACATTA'
p2318
I6533
sS'ACATTC'
p2319
I5067
sS'CGAGAG'
p2320
I1641
sS'CCACAC'
p2321
I2215
sS'GTTCGC'
p2322
I1966
sS'CGAGAC'
p2323
I1099
sS'TAACCG'
p2324
I1032
sS'GTTCGG'
p2325
I2364
sS'AAGTCT'
p2326
I14728
sS'CCACAA'
p2327
I1988
sS'GGACAT'
p2328
I1269
sS'GCTATA'
p2329
I5303
sS'GCTATC'
p2330
I3772
sS'AAGTCG'
p2331
I3430
sS'AAGTCA'
p2332
I23647
sS'GCTATG'
p2333
I7816
sS'AAGTCC'
p2334
I17880
sS'GGACAG'
p2335
I3704
sS'GGACAC'
p2336
I1927
sS'GGACAA'
p2337
I1992
sS'CTAATT'
p2338
I3072
sS'AGGGTT'
p2339
I3502
sS'GAGGCG'
p2340
I18060
sS'TGTTGG'
p2341
I15289
sS'GAGGCA'
p2342
I33610
sS'TGTTGA'
p2343
I15368
sS'GAGGCC'
p2344
I38917
sS'TGTTGC'
p2345
I14648
sS'TCCAAG'
p2346
I16110
sS'CAATGT'
p2347
I3027
sS'TAAAAT'
p2348
I6717
sS'ACTCGC'
p2349
I2174
sS'ACTCGG'
p2350
I3070
sS'AGCGCA'
p2351
I6310
sS'GAGGCT'
p2352
I23525
sS'AGCGCC'
p2353
I12110
sS'AGGGTG'
p2354
I16739
sS'AGGGTA'
p2355
I7252
sS'AGCGCG'
p2356
I7541
sS'AGGGTC'
p2357
I7312
sS'TAAAAG'
p2358
I12207
sS'ACTCGT'
p2359
I763
sS'TAAAAC'
p2360
I8924
sS'TAAAAA'
p2361
I13865
sS'ACGTTC'
p2362
I1998
sS'TAGGGA'
p2363
I9098
sS'ACGTTA'
p2364
I2246
sS'AGCTGA'
p2365
I27329
sS'ACGTTG'
p2366
I2539
sS'AGCTGG'
p2367
I36018
sS'TAGGGG'
p2368
I9437
sS'AGTGCG'
p2369
I4088
sS'AGTGCA'
p2370
I14071
sS'AGAGTT'
p2371
I2146
sS'AGTGCC'
p2372
I11342
sS'AAAACC'
p2373
I13245
sS'TAGGGT'
p2374
I3682
sS'GCTTGG'
p2375
I11800
sS'AGCTGT'
p2376
I20058
sS'ACGTTT'
p2377
I1263
sS'AGTGCT'
p2378
I9881
sS'CGTTAC'
p2379
I1757
sS'AGAGTA'
p2380
I5644
sS'AGAGTG'
p2381
I9612
sS'TTCGTA'
p2382
I2635
sS'GTTAAA'
p2383
I11127
sS'CCTGGC'
p2384
I10518
sS'GTTAAC'
p2385
I6110
sS'CCTGGA'
p2386
I8211
sS'CCTGGG'
p2387
I17602
sS'GTTAAG'
p2388
I10054
sS'CCGGTG'
p2389
I3626
sS'TTCGTC'
p2390
I2784
sS'CTAATC'
p2391
I4887
sS'GTCTGG'
p2392
I24589
sS'NNNNNA'
p2393
I1
sS'GTCTGC'
p2394
I19942
sS'GGGTAT'
p2395
I1797
sS'GTCTGA'
p2396
I18964
sS'GGAAGG'
p2397
I15556
sS'CCACAT'
p2398
I1589
sS'GGAAGC'
p2399
I8739
sS'CTAATG'
p2400
I8058
sS'GGAAGA'
p2401
I9659
sS'GCGTTA'
p2402
I1799
sS'TCCTCT'
p2403
I31770
sS'GCGTTC'
p2404
I2742
sS'CAATGC'
p2405
I3729
sS'GCGTTG'
p2406
I2974
sS'CAATGG'
p2407
I5109
sS'CCACAG'
p2408
I3779
sS'GGAAGT'
p2409
I5218
sS'ATGCTC'
p2410
I10678
sS'ATGCTA'
p2411
I10919
sS'ATTTGT'
p2412
I6977
sS'TCCTCG'
p2413
I9343
sS'TGTATG'
p2414
I13989
sS'TCCTCA'
p2415
I34896
sS'TGTATA'
p2416
I13707
sS'TCCTCC'
p2417
I54916
sS'TGTATC'
p2418
I8384
sS'CGTTAG'
p2419
I2288
sS'AACCCC'
p2420
I18935
sS'TCATAG'
p2421
I2456
sS'TTCGTG'
p2422
I4551
sS'TCATAA'
p2423
I2615
sS'TAACCC'
p2424
I4196
sS'CGTTAA'
p2425
I2274
sS'TAACCA'
p2426
I5641
sS'ACCGCT'
p2427
I2414
sS'TCGCGA'
p2428
I774
sS'TGCATG'
p2429
I20743
sS'TCAGGA'
p2430
I3031
sS'TTCGTT'
p2431
I1625
sS'TACCCT'
p2432
I10535
sS'TAACCT'
p2433
I3438
sS'GTGAAG'
p2434
I12039
sS'GTGAAA'
p2435
I10152
sS'GTGAAC'
p2436
I6293
sS'CAATAG'
p2437
I2579
sS'AACCCG'
p2438
I6291
sS'ACCGCG'
p2439
I4307
sS'ACCGCA'
p2440
I4448
sS'CCCTAT'
p2441
I4250
sS'ACCGCC'
p2442
I7364
sS'AGTTCC'
p2443
I18836
sS'CCGCCT'
p2444
I5169
sS'AGGCTT'
p2445
I8167
sS'CCTTCT'
p2446
I15450
sS'GTTGCA'
p2447
I8807
sS'AACGAA'
p2448
I3345
sS'GATCAA'
p2449
I10075
sS'GTGCCG'
p2450
I6221
sS'GTGCCA'
p2451
I16968
sS'GTTGCG'
p2452
I2286
sS'GTGCCC'
p2453
I19038
sS'CCTTCA'
p2454
I18967
sS'AGGCTA'
p2455
I11330
sS'CCTTCC'
p2456
I31698
sS'AGGCTC'
p2457
I17340
sS'CCGCCC'
p2458
I16237
sS'AATTGG'
p2459
I9981
sS'CCGCCA'
p2460
I4859
sS'AGGCTG'
p2461
I38876
sS'GTGCCT'
p2462
I17249
sS'GTTGCT'
p2463
I5643
sS'NNNGCG'
p2464
I1
sS'GGATAT'
p2465
I1091
sS'TCGGGT'
p2466
I661
sS'AAACCT'
p2467
I4647
sS'GCAGTT'
p2468
I1609
sS'GAAGCT'
p2469
I8329
sS'GGATAA'
p2470
I1697
sS'ATGCCA'
p2471
I11982
sS'TCGGGA'
p2472
I1643
sS'NNNNNG'
p2473
I1
sS'TCGGGG'
p2474
I3373
sS'GGATAG'
p2475
I1413
sS'GAAGCG'
p2476
I5211
sS'GCAGTG'
p2477
I10320
sS'GAAGCC'
p2478
I17112
sS'GCAGTA'
p2479
I4261
sS'GAAGCA'
p2480
I16018
sS'GCAGTC'
p2481
I3543
sS'CGCCCG'
p2482
I13010
sS'GAGAGA'
p2483
I34836
sS'GTTCAT'
p2484
I3399
sS'CGCCCC'
p2485
I28406
sS'CGCCCA'
p2486
I11846
sS'CTACAA'
p2487
I3151
sS'GCATTG'
p2488
I5737
sS'NNNNNN'
p2489
I3
sS'GCATTC'
p2490
I4467
sS'ACGCAA'
p2491
I807
sS'CTCGCA'
p2492
I5173
sS'CGCCCT'
p2493
I9491
sS'GAGAGT'
p2494
I10646
sS'AAACAT'
p2495
I3172
sS'ACGCAT'
p2496
I440
sS'AACTGA'
p2497
I24569
sS'GCCGGG'
p2498
I16620
sS'GCCGGC'
p2499
I10184
sS'CATGTT'
p2500
I5947
sS'GCCGGA'
p2501
I5444
sS'AGATCT'
p2502
I4742
sS'AGTTTA'
p2503
I21554
sS'GCCACT'
p2504
I15776
sS'CATGTA'
p2505
I15154
sS'CATGTC'
p2506
I11438
sS'GCCGGT'
p2507
I2134
sS'CATGTG'
p2508
I23971
sS'GTTGCC'
p2509
I8750
sS'GGCCTG'
p2510
I33305
sS'GGCCTC'
p2511
I28970
sS'GGCCTA'
p2512
I10266
sS'AATCGG'
p2513
I2322
sS'AATCGC'
p2514
I2981
sS'AATCGA'
p2515
I1813
sS'GTTCAG'
p2516
I10245
sS'TCACTG'
p2517
I10258
sS'TCACTA'
p2518
I4506
sS'TCACTC'
p2519
I4810
sS'AATCGT'
p2520
I1417
sS'AGCCGA'
p2521
I6152
sS'CCGCCG'
p2522
I5493
sS'AGCCGC'
p2523
I11671
sS'TAATTG'
p2524
I7978
sS'TAATTA'
p2525
I11408
sS'AGCCGG'
p2526
I11458
sS'GTTTTT'
p2527
I9854
sS'TGGTGA'
p2528
I10610
sS'TCTCAT'
p2529
I4105
sS'TGGTGC'
p2530
I8808
sS'GGGCTA'
p2531
I7587
sS'GGGCTG'
p2532
I30168
sS'TGGTGG'
p2533
I16064
sS'GATGGG'
p2534
I17067
sS'AAAAAA'
p2535
I28397
sS'AAAAAC'
p2536
I9069
sS'GGGCTC'
p2537
I16209
sS'GTTTTG'
p2538
I27009
sS'TTCCCG'
p2539
I9674
sS'AAAAAG'
p2540
I13924
sS'TGACAG'
p2541
I4124
sS'CCAAGG'
p2542
I6695
sS'CTACAT'
p2543
I1640
sS'TCTCAG'
p2544
I13557
sS'GATGGT'
p2545
I6047
sS'TGGTGT'
p2546
I8442
sS'TCTCAC'
p2547
I8366
sS'ATTCGT'
p2548
I782
sS'AGAACT'
p2549
I7850
sS'GCGTTT'
p2550
I1364
sS'CCTTCG'
p2551
I5227
sS'TACCAT'
p2552
I6136
sS'GATTTC'
p2553
I18769
sS'AGATAG'
p2554
I3389
sS'ACCCGG'
p2555
I5819
sS'ACCCGA'
p2556
I2523
sS'ATGTCT'
p2557
I11826
sS'ACCCGC'
p2558
I5442
sS'ACCAGT'
p2559
I5632
sS'TACCAC'
p2560
I10447
sS'AGAACG'
p2561
I2592
sS'TACCAA'
p2562
I10844
sS'AGAACA'
p2563
I13352
sS'TACCAG'
p2564
I11801
sS'AGAACC'
p2565
I9661
sS'ACCAGC'
p2566
I13156
sS'CACTGG'
p2567
I27902
sS'CCTATG'
p2568
I7065
sS'TGACAA'
p2569
I2757
sS'ACCAGG'
p2570
I15428
sS'CACTGC'
p2571
I36789
sS'ATGTCG'
p2572
I2074
sS'CACTGA'
p2573
I26762
sS'TAGGTT'
p2574
I3200
sS'CTATAC'
p2575
I2403
sS'GTTTAC'
p2576
I7755
sS'AATTAT'
p2577
I8723
sS'CTGTTG'
p2578
I21815
sS'GTAACC'
p2579
I6033
sS'CTGTTC'
p2580
I18131
sS'CGGGTT'
p2581
I1045
sS'CTGTTA'
p2582
I18606
sS'AATTAC'
p2583
I11008
sS'TAGGTG'
p2584
I11291
sS'TAGGTA'
p2585
I8730
sS'TAGGTC'
p2586
I6205
sS'CGGGTC'
p2587
I3676
sS'CTGTTT'
p2588
I12672
sS'CGGGTA'
p2589
I1962
sS'CGGGTG'
p2590
I5934
sS'ATTGTT'
p2591
I2611
sS'AAGTAA'
p2592
I12404
sS'CATTAC'
p2593
I10328
sS'TTAGGG'
p2594
I4142
sS'ATATAT'
p2595
I4138
sS'AGCAAC'
p2596
I15177
sS'TTAGGC'
p2597
I2526
sS'AAAGCT'
p2598
I6795
sS'AGCAAG'
p2599
I26009
sS'AAAGCA'
p2600
I16433
sS'ATATAG'
p2601
I3054
sS'TTAGGT'
p2602
I1575
sS'TCATTG'
p2603
I8733
sS'AGCAAT'
p2604
I9559
sS'ATGAAA'
p2605
I9384
sS'TACTTC'
p2606
I24195
sS'TACTTA'
p2607
I27397
sS'TACTTG'
p2608
I25646
sS'ATAGCG'
p2609
I986
sS'TGCTAA'
p2610
I17978
sS'ACGGCT'
p2611
I1206
sS'ATAGCT'
p2612
I2742
sS'TACTTT'
p2613
I18552
sS'GGCATG'
p2614
I17093
sS'GTTTTC'
p2615
I20457
sS'CGAGTT'
p2616
I433
sS'TCCAAT'
p2617
I4939
sS'CGTACT'
p2618
I1265
sS'TCCCGT'
p2619
I2491
sS'TATGCT'
p2620
I9062
sS'CTTAAG'
p2621
I10881
sS'ACATAA'
p2622
I2775
sS'CTTAAA'
p2623
I13448
sS'AGGGGT'
p2624
I4006
sS'CTTAAC'
p2625
I8070
sS'CGTACA'
p2626
I2046
sS'CGAGTG'
p2627
I2161
sS'CGAGTA'
p2628
I989
sS'CGTACG'
p2629
I748
sS'AGGGGA'
p2630
I11614
sS'CTTAAT'
p2631
I3859
sS'AGGGGC'
p2632
I10620
sS'TATGCA'
p2633
I14455
sS'AGGGGG'
p2634
I12384
sS'CGTTTG'
p2635
I5953
sS'CGACTT'
p2636
I502
sS'TGAATT'
p2637
I3139
sS'TTGTAA'
p2638
I8537
sS'TTGTAC'
p2639
I5093
sS'GTACCT'
p2640
I2580
sS'TTGTAG'
p2641
I7679
sS'TGAATC'
p2642
I4561
sS'ACAACA'
p2643
I6943
sS'TGAATA'
p2644
I8338
sS'CGACTC'
p2645
I1161
sS'TGAATG'
p2646
I10853
sS'AAGTAT'
p2647
I5032
sS'CGACTG'
p2648
I1640
sS'TTGTAT'
p2649
I5720
sS'ATCGTG'
p2650
I3324
sS'GCTTCG'
p2651
I4562
sS'GCTTCA'
p2652
I15506
sS'GCTTCC'
p2653
I22665
sS'TGGGAG'
p2654
I13259
sS'TGGGAA'
p2655
I6937
sS'TGGGAC'
p2656
I5738
sS'GCTTCT'
p2657
I12850
sS'ATCGTT'
p2658
I781
sS'ACAACG'
p2659
I1237
sS'TGGGAT'
p2660
I2539
sS'CTAGCC'
p2661
I6361
sS'GACCAT'
p2662
I6203
sS'CTAGCG'
p2663
I1711
sS'CGGTAG'
p2664
I1438
sS'ACTTAG'
p2665
I6644
sS'ACTTAA'
p2666
I8728
sS'CGGTAC'
p2667
I901
sS'TACACT'
p2668
I15911
sS'CGGTAA'
p2669
I1081
sS'GACCAG'
p2670
I21174
sS'GACCAC'
p2671
I14275
sS'GACCAA'
p2672
I14174
sS'TACACC'
p2673
I12868
sS'CGGTAT'
p2674
I515
sS'TACACA'
p2675
I28218
sS'TACACG'
p2676
I4772
sS'GCGAGA'
p2677
I2818
sS'GAGAGC'
p2678
I19587
sS'GCGAGC'
p2679
I3202
sS'GCTGAG'
p2680
I15597
sS'GCGAGG'
p2681
I5989
sS'CAGCCG'
p2682
I8341
sS'CAGCCA'
p2683
I22857
sS'GGTATT'
p2684
I2275
sS'CAGCCC'
p2685
I29093
sS'TCCGGG'
p2686
I8482
sS'GCGAGT'
p2687
I1044
sS'GAGAGG'
p2688
I38892
sS'GAACTC'
p2689
I6898
sS'GAACTA'
p2690
I6387
sS'GGACTT'
p2691
I2376
sS'CACCTA'
p2692
I15855
sS'AACTAT'
p2693
I8390
sS'CACCTC'
p2694
I28205
sS'CACCTG'
p2695
I30281
sS'TGATCC'
p2696
I5094
sS'AACACT'
p2697
I21834
sS'TGATCA'
p2698
I5056
sS'TGATCG'
p2699
I856
sS'ACGCAG'
p2700
I2060
sS'GGACTG'
p2701
I5988
sS'CACCTT'
p2702
I9719
sS'AACTAC'
p2703
I12631
sS'GGACTC'
p2704
I3202
sS'AACGAT'
p2705
I1184
sS'AACACG'
p2706
I6743
sS'AACACA'
p2707
I35812
sS'AACACC'
p2708
I20804
sS'TGATCT'
p2709
I4598
sS'AAAGAC'
p2710
I6089
sS'ACGCAC'
p2711
I1180
sS'CAACAG'
p2712
I3996
sS'GACAGT'
p2713
I17289
sS'CAACAA'
p2714
I3344
sS'AAAGAA'
p2715
I11096
sS'CAACAC'
p2716
I2429
sS'GCTGAT'
p2717
I2279
sS'GCATTA'
p2718
I5361
sS'GACAGG'
p2719
I32768
sS'ATATCC'
p2720
I5935
sS'GACAGC'
p2721
I25914
sS'GACAGA'
p2722
I35703
sS'GTATTA'
p2723
I9477
sS'GTATTC'
p2724
I5769
sS'GTAAGT'
p2725
I3484
sS'ATATCA'
p2726
I7972
sS'AGAGGT'
p2727
I2503
sS'GGTGGC'
p2728
I9410
sS'TCCCCT'
p2729
I16666
sS'GGTGGA'
p2730
I8832
sS'TATCTT'
p2731
I11739
sS'GGTGGG'
p2732
I17565
sS'ATCCCT'
p2733
I9447
sS'AGAGGC'
p2734
I6424
sS'GTAAGA'
p2735
I6231
sS'AGAGGA'
p2736
I6822
sS'GTAAGC'
p2737
I3967
sS'AGAGGG'
p2738
I8965
sS'GTAAGG'
p2739
I6264
sS'TATCTA'
p2740
I17875
sS'CGTCAC'
p2741
I3754
sS'TCCCCC'
p2742
I20175
sS'GGTGGT'
p2743
I3520
sS'CGTCAG'
p2744
I4039
sS'GTCGCG'
p2745
I3280
sS'GTCGCA'
p2746
I3079
sS'GTCGCC'
p2747
I7049
sS'CCGTCT'
p2748
I3318
sS'TCGGTA'
p2749
I1067
sS'CTCGCG'
p2750
I5712
sS'TCGGTG'
p2751
I2829
sS'GTCGCT'
p2752
I3344
sS'GTAACT'
p2753
I5868
sS'CCGTCG'
p2754
I1584
sS'CCGTCA'
p2755
I2671
sS'CCGTCC'
p2756
I5753
sS'GGCTGT'
p2757
I15597
sS'CGCGTG'
p2758
I5189
sS'GCATTT'
p2759
I3650
sS'CGCGTC'
p2760
I4656
sS'CGCGTA'
p2761
I1262
sS'ATGCAG'
p2762
I8944
sS'ATGCAA'
p2763
I6682
sS'ATGCAC'
p2764
I5184
sS'CGCGTT'
p2765
I1210
sS'GGCTGG'
p2766
I40814
sS'GGCTGA'
p2767
I24628
sS'GGCTGC'
p2768
I33170
sS'ATGCAT'
p2769
I3249
sS'TTTAGA'
p2770
I12437
sS'ATGACG'
p2771
I2586
sS'GGAGTT'
p2772
I1658
sS'ATGACA'
p2773
I13175
sS'ATGACC'
p2774
I9428
sS'CCTGAT'
p2775
I1912
sS'GGGCCT'
p2776
I12029
sS'ATGACT'
p2777
I9377
sS'GGAGTA'
p2778
I3319
sS'CTACGC'
p2779
I957
sS'GGAGTC'
p2780
I3831
sS'GGAGTG'
p2781
I8060
sS'GGGCCG'
p2782
I9922
sS'GGGCCC'
p2783
I18585
sS'GGGCCA'
p2784
I13721
sS'GGCAAG'
p2785
I17147
sS'ACGAGT'
p2786
I566
sS'AGGCCA'
p2787
I20221
sS'AGGCCC'
p2788
I21682
sS'AGGCCG'
p2789
I8927
sS'ACGAGG'
p2790
I2696
sS'ACGAGC'
p2791
I1289
sS'ACGAGA'
p2792
I1379
sS'GGCAAC'
p2793
I11452
sS'AGGCCT'
p2794
I14292
sS'ACATCT'
p2795
I4953
sS'GGGTTG'
p2796
I11112
sS'GACTAC'
p2797
I12700
sS'GGGTTA'
p2798
I7798
sS'CTCGGG'
p2799
I9780
sS'GGGTTC'
p2800
I8077
sS'TTTGAT'
p2801
I3107
sS'TGCAAT'
p2802
I7884
sS'TGAACT'
p2803
I6699
sS'CTACGA'
p2804
I730
sS'ATTGCT'
p2805
I4165
sS'GGGTTT'
p2806
I5285
sS'CTTACT'
p2807
I8255
sS'AGAAAT'
p2808
I4326
sS'TGCGAG'
p2809
I4025
sS'ATTGCC'
p2810
I5149
sS'AGACGC'
p2811
I1694
sS'AACGGA'
p2812
I3324
sS'GACTAG'
p2813
I13394
sS'AACGGG'
p2814
I4313
sS'TTTGAC'
p2815
I6883
sS'TTTGAA'
p2816
I11765
sS'ATCATC'
p2817
I10637
sS'CGGGCT'
p2818
I4264
sS'CTCGTA'
p2819
I2418
sS'CTCGTC'
p2820
I4485
sS'CCCTGG'
p2821
I28639
sS'CCCTGA'
p2822
I18545
sS'AAGCTT'
p2823
I7256
sS'GATATT'
p2824
I5843
sS'GCAGCA'
p2825
I7932
sS'CCCTGT'
p2826
I12780
sS'AAGCTC'
p2827
I14821
sS'GATATA'
p2828
I11971
sS'TGACGG'
p2829
I1167
sS'GATATG'
p2830
I12924
sS'AAGCTG'
p2831
I27176
sS'TGACGC'
p2832
I1193
sS'CTCGGA'
p2833
I4382
sS'TACTCT'
p2834
I20005
sS'CATCGT'
p2835
I1753
sS'CCAGTA'
p2836
I3823
sS'CTACGG'
p2837
I1157
sS'CCAGTC'
p2838
I3937
sS'TACGAT'
p2839
I903
sS'CCAGTG'
p2840
I7481
sS'TACTCG'
p2841
I4511
sS'CATCGA'
p2842
I1950
sS'CATCGC'
p2843
I3296
sS'TACTCC'
p2844
I18784
sS'NGAATT'
p2845
I1
sS'TACTCA'
p2846
I25053
sS'CATCGG'
p2847
I2432
sS'CAGGGG'
p2848
I15666
sS'CAGGGA'
p2849
I14343
sS'CAGGGC'
p2850
I15829
sS'AATCTG'
p2851
I18911
sS'CTTACG'
p2852
I2397
sS'GCCATT'
p2853
I5584
sS'AATCTA'
p2854
I14098
sS'TGAACG'
p2855
I1692
sS'TCACAC'
p2856
I1990
sS'TCACAA'
p2857
I2403
sS'TCACAG'
p2858
I3621
sS'GCCATA'
p2859
I9463
sS'CGGACG'
p2860
I2507
sS'GCCATC'
p2861
I11597
sS'CGGACA'
p2862
I3171
sS'CGGACC'
p2863
I4362
sS'GCCATG'
p2864
I18861
sS'CTTACC'
p2865
I9786
sS'TCACAT'
p2866
I1898
sS'TGAACC'
p2867
I7809
sS'ATTAAC'
p2868
I5981
sS'ATTAAA'
p2869
I12910
sS'ATTAAG'
p2870
I8668
sS'CTTACA'
p2871
I11483
sS'TCACTT'
p2872
I3649
sS'ACTCCT'
p2873
I6011
sS'TGAACA'
p2874
I9167
sS'ATTAAT'
p2875
I3584
sS'TACCTG'
p2876
I17986
sS'GGTATG'
p2877
I6324
sS'CCTCTT'
p2878
I7069
sS'GGTATA'
p2879
I5356
sS'GGTATC'
p2880
I3634
sS'GAACCG'
p2881
I2031
sS'CAATGA'
p2882
I4913
sS'ACGAAT'
p2883
I345
sS'CTGAAA'
p2884
I10084
sS'CTGAAC'
p2885
I6931
sS'CTGAAG'
p2886
I13755
sS'NNNNGC'
p2887
I1
sS'CCCGAA'
p2888
I2393
sS'CATTGC'
p2889
I14724
sS'TATGAG'
p2890
I10547
sS'CATTGA'
p2891
I12340
sS'CTAGTT'
p2892
I1823
sS'CATTGG'
p2893
I12783
sS'TCAACT'
p2894
I3666
sS'ACCATC'
p2895
I8681
sS'ACACCG'
p2896
I1036
sS'CTGCCA'
p2897
I27472
sS'CTGCCC'
p2898
I39692
sS'ACACCC'
p2899
I3968
sS'ACACCA'
p2900
I3856
sS'CTGCCG'
p2901
I11288
sS'CTAGTG'
p2902
I6716
sS'TCAACC'
p2903
I4673
sS'ATGTTC'
p2904
I10467
sS'CTAGTC'
p2905
I3524
sS'TCAACG'
p2906
I1038
sS'CTAGTA'
p2907
I4425
sS'CATTGT'
p2908
I11770
sS'TATGAC'
p2909
I8534
sS'ACACCT'
p2910
I2742
sS'CTGCCT'
p2911
I31966
sS'CCTCGT'
p2912
I1572
sS'TATGAA'
p2913
I11376
sS'AGACTG'
p2914
I8290
sS'GGCCTT'
p2915
I8051
sS'AGACTA'
p2916
I4333
sS'CCTCGG'
p2917
I6971
sS'CCTCGC'
p2918
I6012
sS'CCCGAC'
p2919
I3943
sS'CCTCGA'
p2920
I2305
sS'CGAGGA'
p2921
I1504
sS'CGAGGC'
p2922
I2390
sS'NNNNAG'
p2923
I1
sS'CGAGGG'
p2924
I2928
sS'ACTTTC'
p2925
I13033
sS'ACTTTA'
p2926
I17151
sS'ACTTTG'
p2927
I20376
sS'GACCTG'
p2928
I27331
sS'GACCTA'
p2929
I13057
sS'GACCTC'
p2930
I23896
sS'CACCGG'
p2931
I6013
sS'ACGCTG'
p2932
I4190
sS'CACCGA'
p2933
I4022
sS'ACTTTT'
p2934
I6766
sS'GACCTT'
p2935
I11471
sS'GGACGC'
p2936
I1712
sS'GGACGG'
p2937
I1931
sS'ACGCTA'
p2938
I1434
sS'CACAGC'
p2939
I31363
sS'CTTATC'
p2940
I12508
sS'CACAGA'
p2941
I30392
sS'CTTATA'
p2942
I9825
sS'CACAGG'
p2943
I31277
sS'CTTATG'
p2944
I10031
sS'ACTCAT'
p2945
I3305
sS'GAGGAG'
p2946
I35177
sS'GACGTA'
p2947
I2932
sS'CGTATC'
p2948
I1510
sS'GACGTC'
p2949
I5367
sS'GAGGAC'
p2950
I14025
sS'GAGGAA'
p2951
I23872
sS'GACGTG'
p2952
I8030
sS'TTAACA'
p2953
I11187
sS'ACTCAC'
p2954
I7067
sS'TTAACC'
p2955
I7691
sS'TTGTGA'
p2956
I11645
sS'ACTCAG'
p2957
I11056
sS'TTAACG'
p2958
I1622
sS'CACAGT'
p2959
I17376
sS'AGCGAC'
p2960
I3522
sS'TAAACA'
p2961
I17792
sS'AGCGAA'
p2962
I3171
sS'GAGGAT'
p2963
I5191
sS'GACGTT'
p2964
I2518
sS'CCACCG'
p2965
I1984
sS'TAAACG'
p2966
I2411
sS'CTGTGG'
p2967
I25289
sS'GTATGT'
p2968
I5302
sS'AGTTCA'
p2969
I20910
sS'AGTTCG'
p2970
I4271
sS'TAGCCC'
p2971
I9977
sS'CTGTGA'
p2972
I18008
sS'CGGGGT'
p2973
I2112
sS'TAGGAC'
p2974
I5487
sS'GCAAAG'
p2975
I5602
sS'TAGGAA'
p2976
I8962
sS'GCAAAA'
p2977
I4038
sS'TAGGAG'
p2978
I10544
sS'GCAAAC'
p2979
I3084
sS'CGGGGC'
p2980
I9334
sS'CGGGGA'
p2981
I5049
sS'CTGTGT'
p2982
I17176
sS'CGGGGG'
p2983
I7569
sS'GTATGC'
p2984
I3407
sS'AGTTCT'
p2985
I15681
sS'GCAAAT'
p2986
I1934
sS'CGAGAA'
p2987
I837
sS'TAGGAT'
p2988
I2656
sS'AAAAAT'
p2989
I5796
sS'TTCAAT'
p2990
I8580
sS'TGCTTT'
p2991
I21566
sS'GTCTAT'
p2992
I5857
sS'TGGGNC'
p2993
I1
sS'ACTAGG'
p2994
I5590
sS'GTTACC'
p2995
I7434
sS'GTTACA'
p2996
I9944
sS'TAATTC'
p2997
I6491
sS'GTTACG'
p2998
I1902
sS'TATCGC'
p2999
I1747
sS'TATAGT'
p3000
I7621
sS'GTCTAA'
p3001
I11886
sS'CAGGAC'
p3002
I9170
sS'GTCTAC'
p3003
I8404
sS'TGCTTC'
p3004
I33844
sS'TTCAAA'
p3005
I27205
sS'GTCTAG'
p3006
I11496
sS'GATGGA'
p3007
I12950
sS'TATAGC'
p3008
I7453
sS'TATCGT'
p3009
I1238
sS'TATAGA'
p3010
I11070
sS'AGTGGG'
p3011
I13270
sS'TATAGG'
p3012
I9447
sS'GTTACT'
p3013
I6664
sS'GCTCTC'
p3014
I13506
sS'GGAAAC'
p3015
I5404
sS'GATGGC'
p3016
I11152
sS'GCTCTG'
p3017
I27076
sS'CCACGT'
p3018
I839
sS'GGCGTT'
p3019
I1791
sS'AGGACC'
p3020
I14628
sS'GAATGG'
p3021
I8474
sS'GGCTTT'
p3022
I12638
sS'ACTACT'
p3023
I4141
sS'GAATGC'
p3024
I6259
sS'CCACGA'
p3025
I738
sS'AACCTG'
p3026
I22798
sS'CCACGC'
p3027
I1747
sS'GGCGTA'
p3028
I2305
sS'GTTCCG'
p3029
I3171
sS'GGCGTG'
p3030
I12487
sS'CCACGG'
p3031
I1459
sS'GCTCTT'
p3032
I5088
sS'GGCTTA'
p3033
I18075
sS'ACTACC'
p3034
I4952
sS'GGCTTC'
p3035
I28039
sS'ACTACA'
p3036
I7990
sS'ACTACG'
p3037
I1618
sS'GGCTTG'
p3038
I25482
sS'TCCTAG'
p3039
I13966
sS'TAATTT'
p3040
I5193
sS'CGTTGC'
p3041
I3552
sS'TAACAC'
p3042
I3013
sS'TCCTAC'
p3043
I10824
sS'AGTCAC'
p3044
I14213
sS'CGTTGG'
p3045
I3576
sS'TAACAG'
p3046
I5016
sS'TCATCG'
p3047
I1467
sS'AAGCGT'
p3048
I1883
sS'TCATCC'
p3049
I7347
sS'GTTTTA'
p3050
I26353
sS'CTTTCT'
p3051
I24520
sS'GCGGGT'
p3052
I1296
sS'TCCTAT'
p3053
I6523
sS'TAACAT'
p3054
I2311
sS'CGTTGT'
p3055
I2085
sS'GAGCGA'
p3056
I5701
sS'CTTTCA'
p3057
I26275
sS'CTTTCG'
p3058
I4710
sS'AGCCGT'
p3059
I3153
sS'GAGCGC'
p3060
I9214
sS'GTTGAT'
p3061
I1831
sS'CGACCA'
p3062
I851
sS'CGACCC'
p3063
I1517
sS'GCATAC'
p3064
I1191
sS'CGACCG'
p3065
I623
sS'CCTTAT'
p3066
I4337
sS'GTTGAC'
p3067
I4386
sS'GTTGAA'
p3068
I6060
sS'ACTGGG'
p3069
I8119
sS'GTTGAG'
p3070
I7406
sS'CCTTAC'
p3071
I5293
sS'TTCGAT'
p3072
I798
sS'CCTTAA'
p3073
I8203
sS'CCTTAG'
p3074
I7899
sS'CGACCT'
p3075
I768
sS'CAACTC'
p3076
I4191
sS'AATAGC'
p3077
I9599
sS'CAACTG'
p3078
I6693
sS'AATAGG'
p3079
I10701
sS'AATATC'
p3080
I9491
sS'TCTCAA'
p3081
I12408
sS'GGGGTT'
p3082
I2565
sS'GTCCCT'
p3083
I16969
sS'GGATGT'
p3084
I2257
sS'AATAGT'
p3085
I7180
sS'CCAAGA'
p3086
I4769
sS'CAACTT'
p3087
I2202
sS'ACTGTA'
p3088
I10465
sS'GGGGTG'
p3089
I16078
sS'GGATGA'
p3090
I2977
sS'GGATGG'
p3091
I4174
sS'GGGGTA'
p3092
I4841
sS'TCTCCG'
p3093
I4564
sS'GAGTCC'
p3094
I21396
sS'GAGTCA'
p3095
I30174
sS'TCTCCC'
p3096
I16575
sS'GAGTCG'
p3097
I5480
sS'TCTCCA'
p3098
I14475
sS'AAACTC'
p3099
I6225
sS'ACGCGA'
p3100
I780
sS'AGTACG'
p3101
I1950
sS'CTATGC'
p3102
I4388
sS'AGTACC'
p3103
I7779
sS'CTATGG'
p3104
I5622
sS'AGTACA'
p3105
I11849
sS'CCCTTA'
p3106
I18605
sS'CCCTTC'
p3107
I32583
sS'TCTCCT'
p3108
I10458
sS'GAGTCT'
p3109
I17700
sS'AGCAAA'
p3110
I24129
sS'AGTACT'
p3111
I7917
sS'ACGCGT'
p3112
I397
sS'GCCGAA'
p3113
I2341
sS'GTGGAG'
p3114
I12652
sS'GCCGAC'
p3115
I3566
sS'GTGGAC'
p3116
I5097
sS'GCCGAG'
p3117
I8907
sS'GTGGAA'
p3118
I6956
sS'TATCAT'
p3119
I7088
sS'GTGGAT'
p3120
I2084
sS'ACGAAC'
p3121
I715
sS'CCTATT'
p3122
I2374
sS'CACTGT'
p3123
I21499
sS'CTTTGC'
p3124
I18316
sS'GTAGTC'
p3125
I3544
sS'AAATCG'
p3126
I1430
sS'GTAGTA'
p3127
I4352
sS'TTATCG'
p3128
I1530
sS'CACGCA'
p3129
I7854
sS'AAATCC'
p3130
I7916
sS'CACGCC'
p3131
I13515
sS'AAATCA'
p3132
I10456
sS'CTACGT'
p3133
I667
sS'AGATAC'
p3134
I2405
sS'CACGCT'
p3135
I5025
sS'AAATCT'
p3136
I6416
sS'AAAGTC'
p3137
I6354
sS'GTAGTT'
p3138
I1750
sS'AGATAA'
p3139
I5910
sS'CGTTAT'
p3140
I1261
sS'GATGAT'
p3141
I5680
sS'GGAGCA'
p3142
I6284
sS'GGAGCC'
p3143
I10627
sS'AAAGTG'
p3144
I13698
sS'CCAAAT'
p3145
I1815
sS'GGAGCG'
p3146
I3689
sS'AAAACT'
p3147
I9557
sS'GATGAC'
p3148
I13001
sS'GATGAA'
p3149
I14718
sS'GATGAG'
p3150
I18183
sS'CAATTT'
p3151
I2478
sS'ACTAAC'
p3152
I3610
sS'CCAAAC'
p3153
I2820
sS'AAAACG'
p3154
I3220
sS'GGAGCT'
p3155
I4314
sS'CCAAAG'
p3156
I4715
sS'TCGCGG'
p3157
I1901
sS'CTAGAG'
p3158
I4101
sS'TCGCGC'
p3159
I1644
sS'ACGTCG'
p3160
I930
sS'GCCACA'
p3161
I23604
sS'AGATCA'
p3162
I6944
sS'GCCACC'
p3163
I27671
sS'AGATCC'
p3164
I5518
sS'TCCCGG'
p3165
I10210
sS'GCGCTT'
p3166
I1388
sS'GCCACG'
p3167
I9277
sS'AGATCG'
p3168
I1730
sS'ATGTCA'
p3169
I16430
sS'TCGCGT'
p3170
I457
sS'ACCTAG'
p3171
I8026
sS'ACCCGT'
p3172
I1213
sS'AGAAAG'
p3173
I13597
sS'TACCCG'
p3174
I3510
sS'AGAAAC'
p3175
I7807
sS'AGATAT'
p3176
I2057
sS'AGAAAA'
p3177
I11798
sS'TACCCC'
p3178
I11835
sS'ATGTAC'
p3179
I4051
sS'ACTTCG'
p3180
I2905
sS'ATGTAA'
p3181
I7440
sS'ATGTAG'
p3182
I5278
sS'GTTCGA'
p3183
I1445
sS'CTACCA'
p3184
I4987
sS'CCGGCA'
p3185
I3595
sS'GACGAC'
p3186
I3543
sS'CCTATC'
p3187
I4943
sS'CTATGA'
p3188
I5820
sS'ATGTAT'
p3189
I4084
sS'ATTAGA'
p3190
I6994
sS'GTTCCC'
p3191
I11327
sS'ATCCAT'
p3192
I3414
sS'AGCACT'
p3193
I22794
sS'TTAGAA'
p3194
I3754
sS'CGGCTG'
p3195
I10882
sS'TTAGAC'
p3196
I2063
sS'CGGCTC'
p3197
I8948
sS'TTAGAG'
p3198
I3884
sS'CGGCTA'
p3199
I2727
sS'AGCACC'
p3200
I24441
sS'AGCACA'
p3201
I29978
sS'AGCACG'
p3202
I7485
sS'CCAAAA'
p3203
I3279
sS'CGGCTT'
p3204
I2098
sS'TTAGAT'
p3205
I1309
sS'CCAGCA'
p3206
I7652
sS'CTCGCC'
p3207
I11588
sS'CCAGCC'
p3208
I12790
sS'AAAGAG'
p3209
I10278
sS'CCAGCG'
p3210
I2791
sS'GCGCTG'
p3211
I8748
sS'TTATTT'
p3212
I9840
sS'TGTGAG'
p3213
I15560
sS'TGTGAA'
p3214
I11524
sS'CTACCT'
p3215
I3834
sS'TGTGAC'
p3216
I11910
sS'ATATCT'
p3217
I6648
sS'CCAGCT'
p3218
I4888
sS'CACGGT'
p3219
I2383
sS'AAAGAT'
p3220
I2673
sS'TGTGAT'
p3221
I4648
sS'TTATTG'
p3222
I11314
sS'TTATTA'
p3223
I15485
sS'GAAAGC'
p3224
I13388
sS'TTATTC'
p3225
I8868
sS'AGACGG'
p3226
I1927
sS'TTTTAT'
p3227
I10108
sS'GCGAAC'
p3228
I1018
sS'TACAAG'
p3229
I16329
sS'TCCACT'
p3230
I15155
sS'TACAAA'
p3231
I26006
sS'AGACGA'
p3232
I984
sS'AAGTGA'
p3233
I18581
sS'CCTCTG'
p3234
I29840
sS'AGGTGG'
p3235
I17707
sS'CCTCTC'
p3236
I20980
sS'AGGTGC'
p3237
I8722
sS'CCTCTA'
p3238
I12804
sS'AGGTGA'
p3239
I11634
sS'TACAAT'
p3240
I10066
sS'TCCACA'
p3241
I22178
sS'TTTTAG'
p3242
I14399
sS'TCCACC'
p3243
I26544
sS'TTTTAA'
p3244
I29630
sS'ACATCA'
p3245
I6392
sS'TTTTAC'
p3246
I11228
sS'ACATCC'
p3247
I5345
sS'AGGTGT'
p3248
I7208
sS'CTCGTG'
p3249
I6758
sS'CGTCGG'
p3250
I2572
sS'CCCGGC'
p3251
I12827
sS'CCCGGA'
p3252
I5642
sS'NNCTGA'
p3253
I1
sS'CCCGGG'
p3254
I14224
sS'TTGTGT'
p3255
I11413
sS'TGGAAT'
p3256
I4196
sS'AATTAA'
p3257
I19096
sS'TTGTGC'
p3258
I9611
sS'TATGAT'
p3259
I4426
sS'TTGTGG'
p3260
I14787
sS'CCCGGT'
p3261
I1942
sS'TGGAAG'
p3262
I14564
sS'TGGAAC'
p3263
I6902
sS'TGGAAA'
p3264
I10971
sS'TGAGGA'
p3265
I4438
sS'AAGAGG'
p3266
I27285
sS'TGAGGC'
p3267
I4878
sS'AAGAGA'
p3268
I25046
sS'AAGAGC'
p3269
I15653
sS'TGAGGG'
p3270
I5739
sS'GCTTAG'
p3271
I7433
sS'GCTTAC'
p3272
I4415
sS'GCTTAA'
p3273
I7225
sS'TCTGAT'
p3274
I2580
sS'AAGCGC'
p3275
I4317
sS'AAGAGT'
p3276
I9382
sS'AAGCGA'
p3277
I3427
sS'NGCGCC'
p3278
I1
sS'TGAGGT'
p3279
I2100
sS'CATGAG'
p3280
I14386
sS'GCTTAT'
p3281
I3353
sS'CTGCTA'
p3282
I16612
sS'GCGTGT'
p3283
I2108
sS'CTGCTC'
p3284
I29420
sS'ACTTCT'
p3285
I10133
sS'GACCGT'
p3286
I2791
sS'CTGCTG'
p3287
I47086
sS'CGGTCA'
p3288
I3171
sS'GGTCGT'
p3289
I1137
sS'CGGTCC'
p3290
I5530
sS'CTAGAA'
p3291
I3107
sS'CGGTCG'
p3292
I1691
sS'GACCGA'
p3293
I4024
sS'GACCGC'
p3294
I6576
sS'ACTTCC'
p3295
I18170
sS'CTGCTT'
p3296
I15024
sS'ACTTCA'
p3297
I14919
sS'CTAGAT'
p3298
I1140
sS'GGTCGG'
p3299
I4149
sS'CGGTCT'
p3300
I2824
sS'GGTCGC'
p3301
I3648
sS'GGTCGA'
p3302
I1607
sS'CGTCGC'
p3303
I2944
sS'CAGCAT'
p3304
I4601
sS'TGAAGC'
p3305
I6494
sS'GCGTGA'
p3306
I2923
sS'GCGTGC'
p3307
I3234
sS'TGCTCA'
p3308
I30948
sS'TTCATC'
p3309
I18594
sS'TGCTCC'
p3310
I31433
sS'TTCATA'
p3311
I22125
sS'TTCATG'
p3312
I25360
sS'TGCTCG'
p3313
I6429
sS'GTACAA'
p3314
I2137
sS'CAGCAG'
p3315
I20609
sS'GCGGCT'
p3316
I3408
sS'CAGCAC'
p3317
I12114
sS'CAGCAA'
p3318
I10908
sS'ACGACT'
p3319
I972
sS'TGCTCT'
p3320
I26546
sS'TTCATT'
p3321
I14976
sS'GTAGCC'
p3322
I5194
sS'TGGCCG'
p3323
I6527
sS'GCTGCA'
p3324
I14739
sS'AACTCT'
p3325
I22632
sS'GCTGCG'
p3326
I7926
sS'TGGCCA'
p3327
I18641
sS'GTAGCA'
p3328
I5185
sS'AACTCA'
p3329
I28694
sS'TGGCCT'
p3330
I13897
sS'AACTCC'
p3331
I31309
sS'GCTGCT'
p3332
I9226
sS'AACTCG'
p3333
I5303
sS'AATATT'
p3334
I8078
sS'CAACCT'
p3335
I2940
sS'CAGTTA'
p3336
I15449
sS'GCTGCC'
p3337
I16507
sS'GGCACG'
p3338
I6521
sS'GGCACA'
p3339
I19343
sS'GACAAT'
p3340
I9219
sS'GGCACC'
p3341
I17799
sS'CAACCG'
p3342
I1111
sS'ACGACC'
p3343
I1653
sS'AATATG'
p3344
I15637
sS'CAACCC'
p3345
I4437
sS'TTAGGA'
p3346
I3429
sS'CAACCA'
p3347
I4486
sS'CTTCGT'
p3348
I1577
sS'GACAAA'
p3349
I24710
sS'GGCACT'
p3350
I12398
sS'GACAAC'
p3351
I13999
sS'ACGACA'
p3352
I1465
sS'GACAAG'
p3353
I22863
sS'TGGCCC'
p3354
I18277
sS'GCGGCG'
p3355
I7785
sS'GCAATA'
p3356
I4347
sS'GCAATG'
p3357
I6379
sS'CGATGG'
p3358
I1063
sS'TCCCAT'
p3359
I4923
sS'CGATGC'
p3360
I734
sS'GTAAAT'
p3361
I2909
sS'CGATGA'
p3362
I768
sS'GAATTA'
p3363
I9218
sS'GAATTC'
p3364
I6453
sS'GAATTG'
p3365
I8501
sS'TCCCAA'
p3366
I12759
sS'CTACAC'
p3367
I2107
sS'TCCCAC'
p3368
I13460
sS'GTAAAG'
p3369
I6051
sS'TCCCAG'
p3370
I21860
sS'GGATTT'
p3371
I2341
sS'GTGCGT'
p3372
I1931
sS'CTATCG'
p3373
I1310
sS'GGATTC'
p3374
I2841
sS'AATTAG'
p3375
I12516
sS'GGATTA'
p3376
I7027
sS'GGATTG'
p3377
I4158
sS'AGCGGC'
p3378
I8319
sS'TCAAAT'
p3379
I2203
sS'ACGCCA'
p3380
I2347
sS'AAAGCC'
p3381
I13310
sS'TCTGTG'
p3382
I23947
sS'TCTGTC'
p3383
I13987
sS'ATAACG'
p3384
I1392
sS'TCTGTA'
p3385
I14740
sS'GGCGGC'
p3386
I15766
sS'CTCCTT'
p3387
I18368
sS'GGCGGA'
p3388
I8131
sS'GGCGGG'
p3389
I26759
sS'AACCGA'
p3390
I3136
sS'TACCCA'
p3391
I15038
sS'TCTGTT'
p3392
I4610
sS'AAAGCG'
p3393
I3193
sS'CTCCTG'
p3394
I54191
sS'AACCGT'
p3395
I2120
sS'CTCCTA'
p3396
I22713
sS'CTCCTC'
p3397
I48817
sS'GGCGGT'
p3398
I3735
sS'GACGCA'
p3399
I6428
sS'GACGCC'
p3400
I9970
sS'CCCACA'
p3401
I24011
sS'CCCACC'
p3402
I37760
sS'ATAGCA'
p3403
I5304
sS'AGCCTT'
p3404
I12372
sS'CCGATT'
p3405
I440
sS'CCCACT'
p3406
I15256
sS'AACAAT'
p3407
I10605
sS'GACGCT'
p3408
I5826
sS'AAATAC'
p3409
I4954
sS'ACCTCC'
p3410
I25630
sS'CCGATA'
p3411
I838
sS'AGCCTG'
p3412
I43649
sS'AGCCTA'
p3413
I15436
sS'AGCCTC'
p3414
I34632
sS'GTACCC'
p3415
I2709
sS'ACCTCA'
p3416
I22560
sS'TGGTTA'
p3417
I11895
sS'CGCCTT'
p3418
I4359
sS'TGGTTC'
p3419
I10221
sS'CAGAGT'
p3420
I8868
sS'GCATCT'
p3421
I4454
sS'ACCTCG'
p3422
I6671
sS'TGGTTT'
p3423
I7652
sS'CGCCTC'
p3424
I18121
sS'GCGCCA'
p3425
I4388
sS'CGCCTA'
p3426
I4377
sS'AGGCAG'
p3427
I21310
sS'CGCCTG'
p3428
I16898
sS'GAGTTA'
p3429
I15371
sS'CAGAGG'
p3430
I27988
sS'GCATCC'
p3431
I5595
sS'GTGCGG'
p3432
I5402
sS'CAGAGC'
p3433
I20079
sS'GCATCG'
p3434
I1228
sS'CAGAGA'
p3435
I20818
sS'AATCAT'
p3436
I7049
sS'TAGCTA'
p3437
I10908
sS'CCGATC'
p3438
I908
sS'AGACTC'
p3439
I5173
sS'CCTAGA'
p3440
I6298
sS'CCTAGC'
p3441
I5253
sS'TTTGCT'
p3442
I9333
sS'TAGCTC'
p3443
I10653
sS'TGCGGT'
p3444
I2342
sS'CCTAGG'
p3445
I8011
sS'TAAGCA'
p3446
I10093
sS'TTTGCA'
p3447
I15055
sS'TTTGCC'
p3448
I11426
sS'CCTAGT'
p3449
I2992
sS'TGCGGG'
p3450
I8031
sS'TTTGCG'
p3451
I2764
sS'TGAGTT'
p3452
I1907
sS'TAGCTG'
p3453
I18781
sS'ATCGCT'
p3454
I2243
sS'ATCGCC'
p3455
I3326
sS'TGAGTG'
p3456
I8443
sS'ATCGCA'
p3457
I2430
sS'TGAGTA'
p3458
I5536
sS'ATCGCG'
p3459
I2022
sS'TGAGTC'
p3460
I6457
sS'AAGGTG'
p3461
I17267
sS'AAGGTC'
p3462
I10981
sS'CATCAT'
p3463
I6077
sS'AAGGTA'
p3464
I11594
sS'ATTTCG'
p3465
I2286
sS'AAGCGG'
p3466
I5313
sS'ACGGCA'
p3467
I2065
sS'CATCAC'
p3468
I11714
sS'ACGGCC'
p3469
I3471
sS'CATCAA'
p3470
I10568
sS'CATCAG'
p3471
I15075
sS'ACGGCG'
p3472
I1687
sS'TCACCT'
p3473
I3768
sS'TCTAAG'
p3474
I8546
sS'TCGTTT'
p3475
I1165
sS'CGGAAT'
p3476
I721
sS'CAATTC'
p3477
I4365
sS'GTGGCT'
p3478
I13173
sS'ATCGAT'
p3479
I388
sS'TCACCG'
p3480
I1346
sS'TCACCA'
p3481
I4537
sS'TCACCC'
p3482
I4458
sS'CGGAAG'
p3483
I6064
sS'AATATA'
p3484
I19121
sS'AACTGG'
p3485
I21005
sS'AAAATA'
p3486
I18441
sS'CGGAAC'
p3487
I2322
sS'AGCTCG'
p3488
I7636
sS'CGGAAA'
p3489
I2532
sS'GCCTCA'
p3490
I30450
sS'TGTGTC'
p3491
I14873
sS'TGTGTA'
p3492
I17754
sS'CCGTAG'
p3493
I1021
sS'TGTGTG'
p3494
I42651
sS'ATGGCA'
p3495
I11120
sS'TTACTT'
p3496
I4236
sS'TCGTCC'
p3497
I3105
sS'ATGGCT'
p3498
I6167
sS'TGTGTT'
p3499
I6356
sS'CCAAGT'
p3500
I2832
sS'AGAATT'
p3501
I3301
sS'GAAACG'
p3502
I4370
sS'GAAACA'
p3503
I20132
sS'AGATTG'
p3504
I5813
sS'CTATGT'
p3505
I5304
sS'CTGAGT'
p3506
I8077
sS'AGGTAC'
p3507
I3689
sS'GAAACT'
p3508
I11257
sS'AGAATG'
p3509
I12284
sS'AGAATA'
p3510
I8942
sS'ACATAC'
p3511
I2075
sS'CTGAGC'
p3512
I13715
sS'CTGAGA'
p3513
I14159
sS'CTGAGG'
p3514
I21361
sS'CATACC'
p3515
I9497
sS'CATACA'
p3516
I15742
sS'CATACG'
p3517
I2498
sS'GCAATC'
p3518
I2518
sS'TGCCTA'
p3519
I16575
sS'GTCCAT'
p3520
I4317
sS'ACATAG'
p3521
I2234
sS'ACGCCC'
p3522
I4442
sS'AATGGC'
p3523
I9531
sS'GTCCAG'
p3524
I16053
sS'CAAGCT'
p3525
I4114
sS'TCAAAG'
p3526
I4903
sS'GTCCAC'
p3527
I9473
sS'TCAAAC'
p3528
I3091
sS'CGGCGG'
p3529
I9990
sS'TTGATG'
p3530
I11310
sS'CTCATT'
p3531
I11580
sS'CGGCGC'
p3532
I6682
sS'TTGATC'
p3533
I5215
sS'CGGCGA'
p3534
I2458
sS'TTGATA'
p3535
I9689
sS'TTGATT'
p3536
I3853
sS'CGGCGT'
p3537
I1516
sS'ATGGCC'
p3538
I11072
sS'GTACGC'
p3539
I617
sS'ATCGAC'
p3540
I892
sS'CCATTA'
p3541
I5851
sS'TCCAAC'
p3542
I10003
sS'CGGTTA'
p3543
I2026
sS'GGTTTA'
p3544
I13469
sS'CGGTTC'
p3545
I3057
sS'GGTTTC'
p3546
I16064
sS'CGGTTG'
p3547
I3005
sS'GGTTTG'
p3548
I17958
sS'CCATTG'
p3549
I6954
sS'TCCAAA'
p3550
I14459
sS'GCTGTG'
p3551
I23549
sS'ACCTAA'
p3552
I8808
sS'GGTTTT'
p3553
I6880
sS'CGGTTT'
p3554
I1434
sS'GCTGTA'
p3555
I10261
sS'TATGCG'
p3556
I2120
sS'AGGTTG'
p3557
I13772
sS'AGGTTC'
p3558
I8965
sS'AGGTTA'
p3559
I11032
sS'GAGGGA'
p3560
I26659
sS'TTTTTC'
p3561
I28019
sS'GAGGGC'
p3562
I19900
sS'TTTTTA'
p3563
I43936
sS'TTTTTG'
p3564
I33690
sS'GAGGGG'
p3565
I32575
sS'TTAAAT'
p3566
I4883
sS'AGGTTT'
p3567
I6011
sS'TAAGCG'
p3568
I1719
sS'TATGCC'
p3569
I9058
sS'TTAAAC'
p3570
I5585
sS'ATACGT'
p3571
I486
sS'TTAAAA'
p3572
I13625
sS'ACTCCG'
p3573
I3440
sS'TTAAAG'
p3574
I9237
sS'GAGGGT'
p3575
I8007
sS'TTTTTT'
p3576
I26536
sS'ACTCCC'
p3577
I8891
sS'CTGTAA'
p3578
I10855
sS'GTCACG'
p3579
I6765
sS'CTGTAC'
p3580
I6631
sS'GCAACT'
p3581
I3326
sS'GTCACC'
p3582
I23752
sS'CTGTAG'
p3583
I9821
sS'GTCACA'
p3584
I25368
sS'ACTTAT'
p3585
I2878
sS'ATAGTT'
p3586
I1403
sS'GCAACG'
p3587
I1583
sS'GTCACT'
p3588
I19165
sS'TAGGCG'
p3589
I3705
sS'ACGAAA'
p3590
I927
sS'TAGGCA'
p3591
I14266
sS'GCAACA'
p3592
I6571
sS'TAGGCC'
p3593
I11161
sS'CGATGT'
p3594
I532
sS'ATTCAT'
p3595
I4179
sS'GTAAAA'
p3596
I5991
sS'GCGATT'
p3597
I446
sS'TCGTGT'
p3598
I1236
sS'TTCACT'
p3599
I22806
sS'GTCTCT'
p3600
I28426
sS'AACATT'
p3601
I11466
sS'ATTCAG'
p3602
I8948
sS'ATATTA'
p3603
I10683
sS'ATTCAA'
p3604
I8111
sS'ATTCAC'
p3605
I5713
sS'GTCTCC'
p3606
I34040
sS'TCGTGG'
p3607
I2458
sS'GCGATG'
p3608
I2416
sS'TTCACC'
p3609
I22877
sS'GCGATA'
p3610
I1130
sS'TTCACA'
p3611
I29509
sS'GCGATC'
p3612
I1315
sS'GAAGGC'
p3613
I9904
sS'TCTACA'
p3614
I9047
sS'GAAGGA'
p3615
I12917
sS'GAAGGG'
p3616
I15699
sS'CGATTA'
p3617
I757
sS'GGAACC'
p3618
I7638
sS'AGACTT'
p3619
I3040
sS'GGAACA'
p3620
I7671
sS'GGAACG'
p3621
I2215
sS'TGACGA'
p3622
I604
sS'TACTGC'
p3623
I17490
sS'TCATAC'
p3624
I1647
sS'AAAACA'
p3625
I25154
sS'GAAGGT'
p3626
I3484
sS'CTCGCT'
p3627
I6356
sS'CAATCG'
p3628
I1302
sS'CAATCA'
p3629
I7247
sS'CAATCC'
p3630
I5423
sS'TCCTGA'
p3631
I23997
sS'AGTCCA'
p3632
I12770
sS'TCCTGC'
p3633
I30894
sS'AGTCCC'
p3634
I15530
sS'ACTAAA'
p3635
I7212
sS'TCCTGG'
p3636
I34236
sS'AGTCCG'
p3637
I3624
sS'TAACGC'
p3638
I1001
sS'CAGCTG'
p3639
I33427
sS'CAGCTA'
p3640
I15618
sS'CAGCTC'
p3641
I21171
sS'ACTAAT'
p3642
I2127
sS'AGTCCT'
p3643
I9866
sS'TCCTGT'
p3644
I18454
sS'TAATGT'
p3645
I4962
sS'CAGCTT'
p3646
I7352
sS'TAACGT'
p3647
I730
sS'AGCCAG'
p3648
I28004
sS'GTACTT'
p3649
I2499
sS'CGACAT'
p3650
I206
sS'TTGTTC'
p3651
I14894
sS'CGCAAG'
p3652
I4133
sS'TTGTTA'
p3653
I18711
sS'CCGAGA'
p3654
I2323
sS'CAGGCC'
p3655
I28855
sS'CCGAGC'
p3656
I3212
sS'CCGCGT'
p3657
I798
sS'CGACAC'
p3658
I469
sS'CGACAA'
p3659
I357
sS'GTACTC'
p3660
I2996
sS'GTACTA'
p3661
I3782
sS'CCGCGC'
p3662
I4581
sS'AGCCAC'
p3663
I23677
sS'CCGCGA'
p3664
I1437
sS'TACGCA'
p3665
I3051
sS'CCGCGG'
p3666
I4878
sS'TTGTTT'
p3667
I14274
sS'GCATAT'
p3668
I1480
sS'TCCGTT'
p3669
I1607
sS'GGAGGC'
p3670
I6441
sS'AATAAC'
p3671
I12043
sS'AATAAA'
p3672
I30576
sS'AATAAG'
p3673
I16330
sS'TGGTAC'
p3674
I3145
sS'CATTCC'
p3675
I23301
sS'TACTAA'
p3676
I18464
sS'AATAAT'
p3677
I10006
sS'ACGGTG'
p3678
I2840
sS'CCAACC'
p3679
I6814
sS'CTCAGT'
p3680
I15925
sS'TTATGC'
p3681
I4288
sS'CCAACG'
p3682
I1436
sS'GGGATT'
p3683
I3658
sS'CGCCGC'
p3684
I20046
sS'AGTAAA'
p3685
I14743
sS'CGCCGA'
p3686
I4077
sS'GAGTAG'
p3687
I11426
sS'CGCCGG'
p3688
I10982
sS'GAGTAA'
p3689
I10770
sS'AGTAAG'
p3690
I12637
sS'CTCAGG'
p3691
I33251
sS'CTCAGC'
p3692
I32829
sS'CTCAGA'
p3693
I26047
sS'GAGTAT'
p3694
I4494
sS'ATCGTC'
p3695
I1689
sS'GTGTAG'
p3696
I7165
sS'TCGAGC'
p3697
I1202
sS'GTGTAA'
p3698
I7110
sS'GTGTAC'
p3699
I5154
sS'TCGAGG'
p3700
I2245
sS'GTGGCA'
p3701
I17148
sS'GTGGCC'
p3702
I22647
sS'ATCGTA'
p3703
I1688
sS'CTCGGC'
p3704
I9701
sS'GCCGCC'
p3705
I23492
sS'GCCGCA'
p3706
I8049
sS'GCCGCG'
p3707
I12333
sS'ACACTT'
p3708
I2539
sS'CATATG'
p3709
I13570
sS'CATATC'
p3710
I8786
sS'CATATA'
p3711
I14732
sS'CAGTCG'
p3712
I3732
sS'TACTAC'
p3713
I10738
sS'ACACTC'
p3714
I3405
sS'ACACTA'
p3715
I3528
sS'ACACTG'
p3716
I7430
sS'GCCGCT'
p3717
I6970
sS'ACCGGA'
p3718
I2274
sS'AAATAA'
p3719
I9616
sS'ACCGGC'
p3720
I3119
sS'TCAGCC'
p3721
I8327
sS'CTTTAA'
p3722
I17600
sS'ACCGGG'
p3723
I3851
sS'AAATAG'
p3724
I5150
sS'CACGAG'
p3725
I4487
sS'CAGGTA'
p3726
I8927
sS'AACTTC'
p3727
I25709
sS'CAGGTC'
p3728
I9883
sS'CACGAC'
p3729
I2804
sS'CACGAA'
p3730
I2909
sS'CAGGTG'
p3731
I17435
sS'CTTTAT'
p3732
I7580
sS'AATCCC'
p3733
I14616
sS'AATCCA'
p3734
I14242
sS'AAATAT'
p3735
I4304
sS'AATCCG'
p3736
I2992
sS'CACGAT'
p3737
I1272
sS'CAGGTT'
p3738
I3365
sS'AACTTT'
p3739
I13811
sS'GGGATA'
p3740
I6016
sS'GGGATC'
p3741
I5298
sS'GGGTGT'
p3742
I7406
sS'GGGATG'
p3743
I12167
sS'GATGCT'
p3744
I10795
sS'CGCAGT'
p3745
I4190
sS'ATTGGG'
p3746
I3895
sS'GAGCCT'
p3747
I17318
sS'GGAGAC'
p3748
I3231
sS'GGGTGA'
p3749
I9772
sS'GGAGAA'
p3750
I3746
sS'GGGTGC'
p3751
I7807
sS'GGAGAG'
p3752
I6354
sS'GGGTGG'
p3753
I19716
sS'GAGCCA'
p3754
I30569
sS'CGCAGG'
p3755
I12089
sS'GATGCG'
p3756
I4334
sS'CGCAGA'
p3757
I6407
sS'GATGCA'
p3758
I15031
sS'CGCAGC'
p3759
I12590
sS'GATGCC'
p3760
I13176
sS'CGGATT'
p3761
I631
sS'GGTAGT'
p3762
I3225
sS'ACCCCT'
p3763
I7880
sS'GCCAAT'
p3764
I5490
sS'AACCGC'
p3765
I4546
sS'AGAGTC'
p3766
I4971
sS'AGAAGT'
p3767
I5941
sS'ACCCCA'
p3768
I14897
sS'GGTAGA'
p3769
I6976
sS'GCCAAA'
p3770
I11231
sS'GGTAGC'
p3771
I5150
sS'GCCAAG'
p3772
I17116
sS'CGGATA'
p3773
I1243
sS'ACCCCG'
p3774
I6469
sS'GGTAGG'
p3775
I8902
sS'AGAAGA'
p3776
I11732
sS'AGAAGC'
p3777
I9734
sS'GCAAGA'
p3778
I5499
sS'AGAAGG'
p3779
I14953
sS'CACTCC'
p3780
I37796
sS'CACTCA'
p3781
I32027
sS'CACTCG'
p3782
I7096
sS'TGCGTT'
p3783
I1720
sS'CGGATG'
p3784
I3017
sS'GCAAGG'
p3785
I6696
sS'AGCTTT'
p3786
I15538
sS'CCCCGG'
p3787
I11303
sS'TGCGTA'
p3788
I2599
sS'NACAGC'
p3789
I1
sS'TGCGTG'
p3790
I7485
sS'CACTCT'
p3791
I24325
sS'AGCTTC'
p3792
I29783
sS'AGCTTA'
p3793
I20996
sS'AGCTTG'
p3794
I28109
sS'ATACGA'
p3795
I475
sS'AGACCA'
p3796
I4902
sS'CCACTT'
p3797
I2609
sS'TTAGCT'
p3798
I3965
sS'TTAGCC'
p3799
I5621
sS'TTAGCA'
p3800
I6950
sS'CTAGCA'
p3801
I5927
sS'TTAGCG'
p3802
I1238
sS'CTTCAT'
p3803
I5364
sS'AACTTA'
p3804
I24672
sS'TCATAT'
p3805
I2012
sS'ATAGGT'
p3806
I933
sS'ATAAGG'
p3807
I7045
sS'TGTGCT'
p3808
I9812
sS'AAGGGC'
p3809
I12935
sS'ATAAGC'
p3810
I4590
sS'AAGGGA'
p3811
I17359
sS'ATAAGA'
p3812
I7166
sS'CCAGAC'
p3813
I2133
sS'CCAGAA'
p3814
I2458
sS'CCAGAG'
p3815
I3935
sS'GCAAGT'
p3816
I2603
sS'TGTGCG'
p3817
I5292
sS'ATAAGT'
p3818
I2955
sS'AAGGGT'
p3819
I5325
sS'TGTGCC'
p3820
I12688
sS'ATAGGA'
p3821
I2460
sS'TGTGCA'
p3822
I15678
sS'ATAGGC'
p3823
I1794
sS'TAAGTT'
p3824
I2288
sS'ATACGC'
p3825
I461
sS'CCAGAT'
p3826
I1039
sS'AGACAA'
p3827
I3564
sS'AACAAG'
p3828
I22513
sS'AGACAC'
p3829
I2951
sS'TCCATT'
p3830
I7570
sS'AGACAG'
p3831
I5637
sS'TTTTCT'
p3832
I27333
sS'CGCTGT'
p3833
I5758
sS'CCCACG'
p3834
I9059
sS'TCAAGA'
p3835
I4765
sS'CGTGGG'
p3836
I6307
sS'CTATAG'
p3837
I3265
sS'CGTGGC'
p3838
I5060
sS'CGTGGA'
p3839
I3129
sS'TTTTCG'
p3840
I3654
sS'CGCTGA'
p3841
I7054
sS'CGCTGC'
p3842
I14500
sS'TTTTCC'
p3843
I27185
sS'TTTTCA'
p3844
I27893
sS'CGCTGG'
p3845
I12507
sS'TATGGA'
p3846
I7380
sS'TATGGC'
p3847
I6274
sS'CGTAGG'
p3848
I2569
sS'AACAAA'
p3849
I37601
sS'TATGGG'
p3850
I8100
sS'CGTAGC'
p3851
I2094
sS'CTTCAG'
p3852
I16210
sS'AAGTGT'
p3853
I10341
sS'TGGACT'
p3854
I8608
sS'CGTAGT'
p3855
I1319
sS'GCTCGA'
p3856
I1781
sS'TATGGT'
p3857
I4468
sS'ATTCCT'
p3858
I6112
sS'TGGACA'
p3859
I13425
sS'TGGACC'
p3860
I9600
sS'TGGACG'
p3861
I3551
sS'CCGGTT'
p3862
I608
sS'CTAGCT'
p3863
I3689
sS'GCTTGA'
p3864
I8810
sS'TGAGAC'
p3865
I3465
sS'GCTTGC'
p3866
I8562
sS'TGAGAA'
p3867
I3860
sS'TGAGAG'
p3868
I4603
sS'AGGGAC'
p3869
I7569
sS'CCTGTT'
p3870
I3249
sS'CGTCTC'
p3871
I7769
sS'CCGGTC'
p3872
I2088
sS'CCGGTA'
p3873
I1314
sS'CCTGTC'
p3874
I11153
sS'CCTGTA'
p3875
I12372
sS'CCTGTG'
p3876
I20552
sS'GCTTGT'
p3877
I5172
sS'TGAGAT'
p3878
I1635
sS'GGTTGT'
p3879
I5601
sS'CGTCTG'
p3880
I6929
sS'TAGCGT'
p3881
I1120
sS'GGTTGG'
p3882
I11349
sS'CTGAAT'
p3883
I3766
sS'GGTTGA'
p3884
I8064
sS'GGTTGC'
p3885
I9001
sS'GAAAGT'
p3886
I7357
sS'TCCCGC'
p3887
I10634
sS'TCCCGA'
p3888
I3866
sS'CAGCGT'
p3889
I2525
sS'TGCTAT'
p3890
I8774
sS'CGTTTT'
p3891
I2741
sS'ATTCTC'
p3892
I10920
sS'AGGGAA'
p3893
I10005
sS'ATTCTA'
p3894
I11274
sS'ATTCTG'
p3895
I15769
sS'TCATTT'
p3896
I5628
sS'CAGCGA'
p3897
I3892
sS'CAGCGC'
p3898
I7686
sS'TATACT'
p3899
I11527
sS'TGCTAG'
p3900
I13551
sS'CAGCGG'
p3901
I7591
sS'AGGATC'
p3902
I7345
sS'TCATTC'
p3903
I7373
sS'TCATTA'
p3904
I8570
sS'CGTTTA'
p3905
I4734
sS'ATTCTT'
p3906
I5470
sS'CGTTTC'
p3907
I6117
sS'CCACTC'
p3908
I4088
sS'TGGCAA'
p3909
I6313
sS'TGGCAC'
p3910
I5741
sS'TGGCAG'
p3911
I11910
sS'GGCCGT'
p3912
I3286
sS'GCTGAA'
p3913
I6984
sS'GCTGAC'
p3914
I7142
sS'TGGCAT'
p3915
I3282
sS'GGCCGG'
p3916
I16176
sS'CCGATG'
p3917
I1597
sS'GGCCGC'
p3918
I15899
sS'GAACTT'
p3919
I3242
sS'GGCCGA'
p3920
I6372
sS'GGCAAT'
p3921
I5060
sS'CTATAA'
p3922
I4131
sS'CTGATT'
p3923
I4265
sS'CCATCG'
p3924
I1456
sS'CTAAAT'
p3925
I2687
sS'CCATCC'
p3926
I8395
sS'CCATCA'
p3927
I6279
sS'CTGATC'
p3928
I6752
sS'CTGATA'
p3929
I12157
sS'TGGTTG'
p3930
I12714
sS'CTGATG'
p3931
I14824
sS'GGCAAA'
p3932
I14070
sS'CTAAAG'
p3933
I5928
sS'CCATCT'
p3934
I7025
sS'CTAAAC'
p3935
I4068
sS'CTAAAA'
p3936
I6254
sS'GACACC'
p3937
I23394
sS'GACACA'
p3938
I34738
sS'GACACG'
p3939
I8350
sS'GCGCCT'
p3940
I3704
sS'AATTCT'
p3941
I17623
sS'TACGAG'
p3942
I2089
sS'TACGAC'
p3943
I1468
sS'GGAAAG'
p3944
I8919
sS'GACACT'
p3945
I21484
sS'CCGTGA'
p3946
I1964
sS'GCATAG'
p3947
I1842
sS'CTATTA'
p3948
I9861
sS'ACGCTC'
p3949
I2167
sS'TCGATG'
p3950
I1398
sS'TCGATA'
p3951
I756
sS'TCGATC'
p3952
I707
sS'ACGCTT'
p3953
I817
sS'CGCGAA'
p3954
I1736
sS'GAACTG'
p3955
I11656
sS'TCGATT'
p3956
I401
sS'CTACCG'
p3957
I1357
sS'CAGCCT'
p3958
I19097
sS'GCGCCC'
p3959
I9242
sS'ACAATG'
p3960
I6733
sS'AACCAA'
p3961
I16677
sS'TGCCGG'
p3962
I7260
sS'AACCAC'
p3963
I15825
sS'TGCCGC'
p3964
I7964
sS'AACCAG'
p3965
I17838
sS'TGCCGA'
p3966
I3048
sS'TTGGAC'
p3967
I4001
sS'TCGGGC'
p3968
I2057
sS'TCTGGA'
p3969
I7018
sS'ATGATC'
p3970
I5097
sS'GAGTTC'
p3971
I16078
sS'TGCCGT'
p3972
I2654
sS'AACCAT'
p3973
I6461
sS'AACAGA'
p3974
I28774
sS'GGGAGT'
p3975
I6664
sS'AACAGC'
p3976
I22153
sS'CTACCC'
p3977
I5014
sS'AACAGG'
p3978
I23753
sS'ACGTCA'
p3979
I3366
sS'CCCAAG'
p3980
I15272
sS'TTGGAG'
p3981
I8220
sS'GACGAA'
p3982
I3117
sS'CCCAAC'
p3983
I10586
sS'CCCAAA'
p3984
I12601
sS'GGGAGG'
p3985
I38901
sS'GGGAGA'
p3986
I15925
sS'AACAGT'
p3987
I15184
sS'GGGAGC'
p3988
I14058
sS'ACGAAG'
p3989
I1491
sS'CCCAAT'
p3990
I3506
sS'GACGAT'
p3991
I1341
sS'GGGCGC'
p3992
I8428
sS'GGGCGA'
p3993
I4192
sS'GCATCA'
p3994
I5034
sS'GGGCGG'
p3995
I19384
sS'TCTCTT'
p3996
I8440
sS'TGGGGG'
p3997
I12881
sS'AGGCAT'
p3998
I4543
sS'CAGAAT'
p3999
I4804
sS'GTACAC'
p4000
I1571
sS'TCTCTC'
p4001
I23851
sS'TCTCTA'
p4002
I17908
sS'TCTCTG'
p4003
I31176
sS'GGGCGT'
p4004
I2589
sS'CAGAAA'
p4005
I15288
sS'CAGAAC'
p4006
I10389
sS'ACGACG'
p4007
I823
sS'CAGAAG'
p4008
I19136
sS'CACTTT'
p4009
I17364
sS'CATATT'
p4010
I5710
sS'CCTAAT'
p4011
I2031
sS'TCTATA'
p4012
I8287
sS'CACTTG'
p4013
I32255
sS'CCTAAC'
p4014
I4432
sS'CCTAAA'
p4015
I5854
sS'CACTTC'
p4016
I32885
sS'CCTAAG'
p4017
I6681
sS'CACTTA'
p4018
I27636
sS'GCGGAT'
p4019
I407
sS'AATCCT'
p4020
I10616
sS'CTGCGG'
p4021
I8145
sS'AAGATT'
p4022
I4857
sS'AACTAG'
p4023
I13141
sS'CTCATG'
p4024
I25216
sS'GACTCG'
p4025
I7769
sS'CTCATC'
p4026
I19418
sS'GACTCC'
p4027
I31103
sS'CTCATA'
p4028
I16697
sS'GACTCA'
p4029
I36760
sS'AAGATA'
p4030
I18247
sS'CTCCAA'
p4031
I17092
sS'AAGATG'
p4032
I19776
sS'GACTCT'
p4033
I25354
sS'CTGCGC'
p4034
I7145
sS'ATCGAA'
p4035
I1026
sS'AGTCGA'
p4036
I1770
sS'ATATTT'
p4037
I6110
sS'ATAGAG'
p4038
I2568
sS'AACTAA'
p4039
I18541
sS'TTTCCG'
p4040
I4154
sS'TACTGT'
p4041
I17502
sS'ATATTC'
p4042
I6000
sS'GATCGG'
p4043
I2621
sS'ATATTG'
p4044
I7726
sS'ATAGTA'
p4045
I4433
sS'TACTGA'
p4046
I20397
sS'TACTGG'
p4047
I17502
sS'ATAGTG'
p4048
I4993
sS'ATAGAC'
p4049
I1553
sS'CAGGCA'
p4050
I27001
sS'AGGAAG'
p4051
I28442
sS'CATCCG'
p4052
I3853
sS'AGGAAA'
p4053
I17123
sS'CATCCA'
p4054
I14600
sS'CAGGCG'
p4055
I11989
sS'CATCCC'
p4056
I16087
sS'TTATGA'
p4057
I5985
sS'GATCGC'
p4058
I3699
sS'CGGAGT'
p4059
I2201
sS'TTATGG'
p4060
I5570
sS'CATCCT'
p4061
I11416
sS'AGGAAT'
p4062
I5074
sS'CAGGCT'
p4063
I14519
sS'ACGGAT'
p4064
I205
sS'CGGAGA'
p4065
I4163
sS'CGGAGC'
p4066
I6935
sS'TTATGT'
p4067
I5833
sS'CGGAGG'
p4068
I9555
sS'ATGGAA'
p4069
I4831
sS'ATGGAC'
p4070
I3051
sS'ATGGAG'
p4071
I6586
sS'CGCTTG'
p4072
I8296
sS'CGCTTA'
p4073
I4198
sS'CGCTTC'
p4074
I9510
sS'ATGGAT'
p4075
I1428
sS'CTATAT'
p4076
I2766
sS'TGCGGC'
p4077
I6329
sS'CGCTTT'
p4078
I4079
sS'CAAGCC'
p4079
I9122
sS'TGCGGA'
p4080
I3518
sS'GAAAAG'
p4081
I16814
sS'TAAACC'
p4082
I9687
sS'CATACT'
p4083
I8786
sS'GAAAAC'
p4084
I10444
sS'ATAGAT'
p4085
I1094
sS'GAAAAA'
p4086
I13875
sS'AGACCT'
p4087
I3596
sS'ACGGTT'
p4088
I457
sS'GAAAAT'
p4089
I5190
sS'CTACTG'
p4090
I8089
sS'ACAAGG'
p4091
I5909
sS'GCCTAA'
p4092
I9809
sS'ACAAGA'
p4093
I5096
sS'ACAAGC'
p4094
I3719
sS'ACACGT'
p4095
I653
sS'CTGCGT'
p4096
I2404
sS'GCGGAG'
p4097
I5250
sS'CATAAG'
p4098
I10236
sS'GCGGAA'
p4099
I1839
sS'CATAAA'
p4100
I14782
sS'GCGGAC'
p4101
I1741
sS'CATAAC'
p4102
I7768
sS'ACACGC'
p4103
I1150
sS'ACAAGT'
p4104
I2547
sS'ACACGA'
p4105
I638
sS'ACACGG'
p4106
I1182
sS'CATAAT'
p4107
I5532
sS'GTCCCA'
p4108
I20106
sS'GCACAT'
p4109
I1365
sS'GTCCCC'
p4110
I24082
sS'CTGCGA'
p4111
I2986
sS'GTCCCG'
p4112
I9490
sS'CGGCAA'
p4113
I1656
sS'CGGCAC'
p4114
I2468
sS'CGGCAG'
p4115
I5410
sS'CCTCCT'
p4116
I13093
sS'AGCGCT'
p4117
I5742
sS'CGGCAT'
p4118
I759
sS'CCTCCC'
p4119
I29219
sS'CCTCCA'
p4120
I14313
sS'CCTCCG'
p4121
I6845
sS'CGTGAT'
p4122
I1056
s.