(dp0
S'GAACGT'
p1
I1593
sS'TTCACA'
p2
I8716
sS'CTTCTT'
p3
I9658
sS'CACCCT'
p4
I7856
sS'ATTGAA'
p5
I5523
sS'GAACGG'
p6
I2019
sS'GAACGC'
p7
I2101
sS'GAACGA'
p8
I1424
sS'CACCCA'
p9
I8903
sS'CTTCTA'
p10
I5580
sS'CACCCC'
p11
I9280
sS'CTTCTC'
p12
I10704
sS'CACCCG'
p13
I3698
sS'CTTCTG'
p14
I11182
sS'CGTGTG'
p15
I3155
sS'TAAGGT'
p16
I3566
sS'CGTGTC'
p17
I2148
sS'TGAGTG'
p18
I6933
sS'CGTGTA'
p19
I1214
sS'AGGCAA'
p20
I8002
sS'GGAAAT'
p21
I10335
sS'TAAGGG'
p22
I4091
sS'CGTGTT'
p23
I2091
sS'TAAGGC'
p24
I3713
sS'TAAGGA'
p25
I5183
sS'TCACTG'
p26
I9525
sS'GTCAAA'
p27
I5441
sS'GTCAAC'
p28
I3330
sS'GTCAAG'
p29
I4227
sS'CTGTCC'
p30
I8860
sS'TCAGAG'
p31
I10691
sS'CTGTCA'
p32
I7849
sS'CTGTCG'
p33
I2247
sS'TCAGAC'
p34
I5459
sS'TCAGAA'
p35
I9976
sS'CTTGGT'
p36
I5893
sS'GTCAAT'
p37
I3488
sS'GTATCA'
p38
I2769
sS'TCAGAT'
p39
I6235
sS'GTATCG'
p40
I544
sS'CTGTCT'
p41
I9666
sS'GGTGTC'
p42
I4582
sS'GGTGTA'
p43
I2751
sS'GGTGTG'
p44
I6721
sS'TATCCT'
p45
I4130
sS'CCGGGG'
p46
I7865
sS'TTCTGT'
p47
I11579
sS'ATTCCT'
p48
I7887
sS'CCGGGC'
p49
I9111
sS'CCGGGA'
p50
I6449
sS'TATCCA'
p51
I3989
sS'TATCCC'
p52
I3208
sS'TGGTTG'
p53
I5787
sS'GGCGAG'
p54
I4803
sS'GGTGTT'
p55
I5105
sS'ATTCCG'
p56
I1583
sS'TTCTGG'
p57
I10614
sS'CCGGGT'
p58
I4024
sS'ATTCCC'
p59
I6244
sS'TTCTGC'
p60
I9234
sS'ATTCCA'
p61
I8099
sS'TTCTGA'
p62
I9960
sS'CTTGGA'
p63
I7278
sS'GGNCCC'
p64
I1
sS'CGTCAT'
p65
I1628
sS'CGCGGT'
p66
I2590
sS'AGGGAG'
p67
I14671
sS'ACGAAC'
p68
I1002
sS'CGCGGG'
p69
I6989
sS'CGCGGC'
p70
I7659
sS'CGCGGA'
p71
I3453
sS'ACAGGT'
p72
I5792
sS'ACCTGT'
p73
I5838
sS'TCATGT'
p74
I5783
sS'AGGGAC'
p75
I7231
sS'TTACAG'
p76
I7293
sS'CTCCGC'
p77
I7469
sS'TTACAA'
p78
I6564
sS'TTACAC'
p79
I4499
sS'CTCCGG'
p80
I5611
sS'TCATGC'
p81
I4780
sS'ACCTGG'
p82
I8668
sS'TCATGA'
p83
I5486
sS'GTAAGC'
p84
I2958
sS'TCATGG'
p85
I5518
sS'CCCGCA'
p86
I4156
sS'GCGCNN'
p87
I1
sS'ACCTGA'
p88
I5978
sS'TTACAT'
p89
I6238
sS'CTCGAT'
p90
I1031
sS'CTCCGT'
p91
I2903
sS'GAATTT'
p92
I8176
sS'GCCTGA'
p93
I7648
sS'GCCTGC'
p94
I10877
sS'GCCTGG'
p95
I15490
sS'TAAAGG'
p96
I6303
sS'CAAATT'
p97
I7805
sS'TAAAGA'
p98
I7554
sS'ACGGCT'
p99
I2145
sS'GCCTGT'
p100
I8161
sS'TCCCCG'
p101
I6435
sS'TAAAGT'
p102
I6487
sS'CAAATA'
p103
I9191
sS'CAAATC'
p104
I5991
sS'CGTGCT'
p105
I2450
sS'CAAATG'
p106
I8697
sS'AATACT'
p107
I5537
sS'AATCCG'
p108
I1446
sS'CGTCAC'
p109
I2798
sS'GGCATG'
p110
I5566
sS'GGCATA'
p111
I2933
sS'GGCATC'
p112
I4138
sS'AATACG'
p113
I1153
sS'AATACA'
p114
I7150
sS'AATACC'
p115
I3729
sS'GGCATT'
p116
I5803
sS'CGTCAG'
p117
I2611
sS'TGCTTA'
p118
I5526
sS'GAGCAC'
p119
I5599
sS'GAGCAA'
p120
I7076
sS'CATATC'
p121
I2968
sS'GAGCAG'
p122
I10530
sS'AGTAGT'
p123
I3578
sS'TCTCGC'
p124
I2918
sS'TCTCGA'
p125
I1435
sS'TCTCGG'
p126
I3189
sS'ACTGAG'
p127
I8221
sS'AGTAGA'
p128
I4914
sS'ACTGAC'
p129
I5350
sS'ACTGAA'
p130
I8609
sS'AAGGTT'
p131
I6159
sS'TTTGTT'
p132
I14575
sS'GTGTCG'
p133
I1391
sS'TCGAAC'
p134
I981
sS'TCGAAA'
p135
I1386
sS'GTGTCC'
p136
I5743
sS'TCGAAG'
p137
I1322
sS'GTGTCA'
p138
I5383
sS'GTTGTA'
p139
I3370
sS'CTTGCT'
p140
I7992
sS'AGACAC'
p141
I6148
sS'CCGTCT'
p142
I2668
sS'GTGTCT'
p143
I6239
sS'TTGAAG'
p144
I6184
sS'TCGAAT'
p145
I1136
sS'CTTGCG'
p146
I2110
sS'CTTGCA'
p147
I5991
sS'CTTGCC'
p148
I7102
sS'CGAAAG'
p149
I2153
sS'CGAAAA'
p150
I1815
sS'CGAAAC'
p151
I1615
sS'CACGGA'
p152
I2468
sS'AAATGC'
p153
I8468
sS'CACGGC'
p154
I3420
sS'AAATGA'
p155
I12541
sS'AAATGG'
p156
I9023
sS'CACGGG'
p157
I3136
sS'ACAGTA'
p158
I5123
sS'CGAAAT'
p159
I1367
sS'ACAGTT'
p160
I6855
sS'AATCAG'
p161
I7457
sS'CACGGT'
p162
I2138
sS'AAATGT'
p163
I11932
sS'AATCAC'
p164
I5678
sS'TTTGTA'
p165
I8465
sS'GCTCAA'
p166
I5320
sS'TCTAGT'
p167
I4540
sS'TTGCCG'
p168
I1901
sS'TTGCCA'
p169
I7838
sS'TTGCCC'
p170
I6939
sS'GGGTAC'
p171
I2241
sS'TCTAGG'
p172
I5080
sS'GGGTAA'
p173
I4022
sS'TCTAGA'
p174
I5038
sS'GGGTAG'
p175
I4019
sS'TCTAGC'
p176
I3819
sS'ATACGG'
p177
I891
sS'ATACAT'
p178
I4865
sS'AGATGT'
p179
I5513
sS'TCGCCC'
p180
I3790
sS'TCGCCA'
p181
I2270
sS'ATAGTC'
p182
I2674
sS'TCGCCG'
p183
I2543
sS'GGTAAT'
p184
I3413
sS'ACCCAT'
p185
I4019
sS'GTGTAT'
p186
I3937
sS'ACCCAC'
p187
I6126
sS'GGTAAC'
p188
I3049
sS'ACCCAA'
p189
I5466
sS'AGATGG'
p190
I7488
sS'ACCCAG'
p191
I10044
sS'GGTAAG'
p192
I3849
sS'TCGCCT'
p193
I2734
sS'AGATGC'
p194
I4712
sS'CCCCAT'
p195
I6167
sS'TTGGGT'
p196
I5521
sS'CACTAG'
p197
I4274
sS'CACTAA'
p198
I4287
sS'CACTAC'
p199
I3218
sS'CCCCAA'
p200
I7680
sS'CCCCAC'
p201
I11063
sS'CCCCAG'
p202
I14134
sS'CACTAT'
p203
I3442
sS'TTGGGG'
p204
I7868
sS'CCGTCC'
p205
I3571
sS'TTGGGA'
p206
I8000
sS'TTGGGC'
p207
I5978
sS'TGCCTG'
p208
I11811
sS'TGCAGA'
p209
I9008
sS'TTTCTG'
p210
I14429
sS'TGCAGC'
p211
I9180
sS'TGCCTC'
p212
I9290
sS'TGCCTA'
p213
I4815
sS'TGCAGG'
p214
I9745
sS'GTATCT'
p215
I3537
sS'TTTCTT'
p216
I17037
sS'ACGTGC'
p217
I2333
sS'TGCCTT'
p218
I8896
sS'TGCAGT'
p219
I8220
sS'ACAATT'
p220
I5725
sS'AAGGAA'
p221
I13251
sS'AAGGAC'
p222
I6109
sS'AAGGAG'
p223
I9794
sS'ATATGC'
p224
I3241
sS'GTTCCA'
p225
I5741
sS'ATATGA'
p226
I4322
sS'TACGAA'
p227
I968
sS'ATATGG'
p228
I3299
sS'AAGGAT'
p229
I5430
sS'TGGTTT'
p230
I9014
sS'ATATGT'
p231
I5012
sS'GGTCCC'
p232
I6288
sS'GCCCAG'
p233
I15284
sS'ATGCAG'
p234
I6434
sS'GCCCAA'
p235
I5942
sS'GGTCCG'
p236
I2456
sS'GCCCAC'
p237
I7372
sS'ATGGCG'
p238
I2767
sS'AGACCC'
p239
I5273
sS'CTTCGG'
p240
I2616
sS'CTTCGA'
p241
I1325
sS'CTTCGC'
p242
I2516
sS'ATGCAA'
p243
I6345
sS'GCCCAT'
p244
I4532
sS'AGGTCA'
p245
I9035
sS'AAAGTT'
p246
I9365
sS'TCCGGC'
p247
I4340
sS'GGTCCT'
p248
I5249
sS'TCCGGA'
p249
I2977
sS'CTTAGC'
p250
I4074
sS'ATTGTG'
p251
I5706
sS'CTTAGA'
p252
I4836
sS'TCTTGC'
p253
I6356
sS'CTTAGG'
p254
I4468
sS'GTATCC'
p255
I2294
sS'TGTGTG'
p256
I16323
sS'GCCTTT'
p257
I8575
sS'ATTTTG'
p258
I10049
sS'TCCAGG'
p259
I12200
sS'ATTTTA'
p260
I12916
sS'TCCAGA'
p261
I9408
sS'ATTTTC'
p262
I10720
sS'GAGGTC'
p263
I5979
sS'TAGCAG'
p264
I5113
sS'GATACT'
p265
I2929
sS'TAGCAC'
p266
I3578
sS'TAGCAA'
p267
I5093
sS'TCCAGT'
p268
I7433
sS'ATTTTT'
p269
I17557
sS'GCCTTG'
p270
I7153
sS'ACAATC'
p271
I3901
sS'GCCTTA'
p272
I3734
sS'TTGACA'
p273
I5287
sS'GCCTTC'
p274
I7981
sS'GATACG'
p275
I764
sS'TAGCAT'
p276
I3785
sS'GATACC'
p277
I2019
sS'GATTTC'
p278
I6690
sS'TGAGCT'
p279
I7909
sS'ACGGAC'
p280
I1438
sS'GATCAT'
p281
I3503
sS'AAGACA'
p282
I7676
sS'AAGACC'
p283
I4697
sS'ACAATG'
p284
I5781
sS'AAGACG'
p285
I1878
sS'GATCAG'
p286
I4275
sS'TGAGCG'
p287
I2737
sS'CTCGAG'
p288
I2158
sS'TGAGCA'
p289
I7872
sS'TGAGCC'
p290
I8163
sS'AAGACT'
p291
I5867
sS'GCGGTC'
p292
I2599
sS'GCGGTA'
p293
I1255
sS'CGTGCA'
p294
I2132
sS'GCGGTG'
p295
I4882
sS'CTATCG'
p296
I661
sS'CGGTGT'
p297
I1995
sS'TCGTTA'
p298
I902
sS'TCGTTC'
p299
I1436
sS'ATGTGG'
p300
I6413
sS'ACTTGT'
p301
I5198
sS'GAGTTT'
p302
I7364
sS'GCGGTT'
p303
I2057
sS'ACTTGC'
p304
I5072
sS'ATGTGA'
p305
I6974
sS'ACTTGA'
p306
I5241
sS'CGGTGG'
p307
I4299
sS'ACTTGG'
p308
I6854
sS'CGGTGA'
p309
I2602
sS'CGGTGC'
p310
I3349
sS'TTCCTA'
p311
I7082
sS'TAGACT'
p312
I3546
sS'TTCCTC'
p313
I12644
sS'CTTCCG'
p314
I5092
sS'TTCCTG'
p315
I14906
sS'TCCTTT'
p316
I11900
sS'CAGTTG'
p317
I6040
sS'TAGACG'
p318
I912
sS'TTCCTT'
p319
I13303
sS'TAGACC'
p320
I2373
sS'TAGACA'
p321
I4082
sS'TCCTTG'
p322
I7386
sS'TCCTTA'
p323
I5220
sS'TCCTTC'
p324
I10048
sS'ATCTCT'
p325
I7362
sS'ACCGTT'
p326
I1292
sS'TGGCGC'
p327
I4219
sS'TGGCGA'
p328
I2196
sS'TGGCGG'
p329
I5522
sS'ATCTCG'
p330
I1447
sS'ATCTCA'
p331
I6358
sS'ATCTCC'
p332
I5800
sS'GGCCAA'
p333
I7633
sS'ACGGAG'
p334
I2969
sS'GGCCAC'
p335
I8446
sS'ACCGTG'
p336
I2153
sS'ACCGTA'
p337
I893
sS'GGCCAG'
p338
I12883
sS'ACCGTC'
p339
I1515
sS'ACCGAC'
p340
I1309
sS'AGAATT'
p341
I8293
sS'GGCAGT'
p342
I7632
sS'CCATAA'
p343
I3651
sS'CAAAGG'
p344
I9979
sS'CCATAC'
p345
I2290
sS'GCACTT'
p346
I6426
sS'GAAACG'
p347
I2793
sS'CAAAGC'
p348
I8503
sS'CAACGT'
p349
I1494
sS'GGCAGA'
p350
I10762
sS'GGCAGC'
p351
I12473
sS'AACGTA'
p352
I1132
sS'GGCAGG'
p353
I14993
sS'CAACGC'
p354
I1767
sS'CAAAGT'
p355
I9446
sS'CAACGA'
p356
I1228
sS'GCACTC'
p357
I5169
sS'CCATAT'
p358
I3328
sS'CTAACG'
p359
I1127
sS'GGGGGT'
p360
I5918
sS'TACGCT'
p361
I929
sS'AGATTG'
p362
I4770
sS'CGATCT'
p363
I1220
sS'CTCTAG'
p364
I5634
sS'CTCTAA'
p365
I5533
sS'CTCTAC'
p366
I4308
sS'GGGGGG'
p367
I6139
sS'TACGCA'
p368
I1088
sS'TACGCC'
p369
I1026
sS'GGGGGC'
p370
I10809
sS'CGATCG'
p371
I514
sS'GGGGGA'
p372
I8531
sS'TACGCG'
p373
I649
sS'CTCTAT'
p374
I4193
sS'CAGACC'
p375
I6085
sS'CAGACA'
p376
I8589
sS'CAGACG'
p377
I2731
sS'CGCTAA'
p378
I1100
sS'TAGTTG'
p379
I3563
sS'ACTAGT'
p380
I2762
sS'TAGTTC'
p381
I3832
sS'TAGTTA'
p382
I3854
sS'CAGACT'
p383
I6994
sS'GCGAAC'
p384
I1323
sS'TAGTTT'
p385
I6504
sS'GCTAAC'
p386
I2717
sS'GCTAAA'
p387
I4915
sS'CGAGTA'
p388
I946
sS'CGTGAT'
p389
I1575
sS'GCGAAA'
p390
I1877
sS'AACCCT'
p391
I6013
sS'TATCAA'
p392
I3832
sS'AACCCC'
p393
I5457
sS'AACCCA'
p394
I6694
sS'AGAATG'
p395
I8334
sS'AACCCG'
p396
I2414
sS'ATGCAC'
p397
I3927
sS'TGCATC'
p398
I4165
sS'CATGAC'
p399
I4610
sS'AGATTT'
p400
I8384
sS'AGTTTG'
p401
I7575
sS'CTACAC'
p402
I3239
sS'AACTGA'
p403
I7897
sS'AACTGC'
p404
I6688
sS'CCCAGA'
p405
I11917
sS'CCCAGC'
p406
I16551
sS'CCCAGG'
p407
I16995
sS'AACTGT'
p408
I6811
sS'AGTTTT'
p409
I10189
sS'CTACAT'
p410
I3766
sS'CCCAGT'
p411
I8721
sS'TTGACG'
p412
I1106
sS'CGCATA'
p413
I658
sS'ATACTG'
p414
I4314
sS'CACATT'
p415
I7867
sS'ATACTA'
p416
I3070
sS'ATACTC'
p417
I2862
sS'CGCATG'
p418
I2208
sS'GCGCAA'
p419
I1929
sS'GCGAAT'
p420
I1048
sS'ATACTT'
p421
I4890
sS'CTTTTC'
p422
I11750
sS'GCGCAC'
p423
I3366
sS'GCTCCG'
p424
I5969
sS'TATTGT'
p425
I4880
sS'GCTCCC'
p426
I10414
sS'GCTCCA'
p427
I8467
sS'CCTACT'
p428
I4524
sS'TGTACT'
p429
I4765
sS'TTTAGT'
p430
I6007
sS'TATTGG'
p431
I4050
sS'GCTCCT'
p432
I9469
sS'AGGCCG'
p433
I5468
sS'TATTGA'
p434
I4963
sS'TTTAGG'
p435
I5529
sS'TGTACG'
p436
I923
sS'CCTACG'
p437
I1416
sS'TGTACA'
p438
I5023
sS'TTTAGC'
p439
I4867
sS'ACAGTG'
p440
I8486
sS'CCTACC'
p441
I4467
sS'ACTTCA'
p442
I6846
sS'TTCGCG'
p443
I1291
sS'TTCGCA'
p444
I1317
sS'TTCGCC'
p445
I2140
sS'AGTATC'
p446
I2939
sS'GACTAA'
p447
I3446
sS'AGTATA'
p448
I3221
sS'GACTAC'
p449
I2604
sS'AGTATG'
p450
I3408
sS'TTTGGA'
p451
I9622
sS'TTTGGC'
p452
I7893
sS'TTCGCT'
p453
I1933
sS'TTTGGT'
p454
I7047
sS'GACTAT'
p455
I2656
sS'AGTATT'
p456
I5714
sS'TTACTC'
p457
I4790
sS'TTACTA'
p458
I4381
sS'TTACTG'
p459
I6275
sS'ACCTTG'
p460
I6110
sS'ACCTTC'
p461
I5753
sS'ACCTTA'
p462
I3548
sS'TATATC'
p463
I2615
sS'CTAATA'
p464
I3794
sS'TTACTT'
p465
I7344
sS'ACGCTT'
p466
I1749
sS'ACCTTT'
p467
I7858
sS'ACAGGG'
p468
I8529
sS'CTGGGA'
p469
I14773
sS'CTGGGC'
p470
I15006
sS'ACAGGC'
p471
I8408
sS'ACAGGA'
p472
I9521
sS'CTGGGG'
p473
I14144
sS'CAGGAC'
p474
I8042
sS'GCAGCT'
p475
I10304
sS'CAGGAA'
p476
I14919
sS'TCGCTT'
p477
I2034
sS'CAGGAG'
p478
I13476
sS'AGGACA'
p479
I8889
sS'AGGCCT'
p480
I9254
sS'TTATAC'
p481
I3048
sS'TTATAA'
p482
I6553
sS'CTGGGT'
p483
I10124
sS'TTATAG'
p484
I3944
sS'CTCCGA'
p485
I2684
sS'TCGCTG'
p486
I3064
sS'GAGTTG'
p487
I5482
sS'GCAGCG'
p488
I6093
sS'AGGACT'
p489
I6970
sS'GCAGCA'
p490
I10183
sS'TCGCTA'
p491
I981
sS'CAGGAT'
p492
I7277
sS'CCTCAG'
p493
I11632
sS'CCTCAA'
p494
I6044
sS'CCTCAC'
p495
I8136
sS'TATGTT'
p496
I5402
sS'ATGGGC'
p497
I4681
sS'TCTTTG'
p498
I9543
sS'ATGGGA'
p499
I6505
sS'TCTTTA'
p500
I7678
sS'ATGGGG'
p501
I6176
sS'TCTTTC'
p502
I11721
sS'CCTCAT'
p503
I6670
sS'TGCGAT'
p504
I1079
sS'TATGTG'
p505
I5384
sS'TATGTA'
p506
I4890
sS'ATGGGT'
p507
I3983
sS'TATGTC'
p508
I3126
sS'GAAAGA'
p509
I11792
sS'ATCAAG'
p510
I4306
sS'GAAAGC'
p511
I8094
sS'ATCAAC'
p512
I3308
sS'GAAAGG'
p513
I10743
sS'TCAAAA'
p514
I9853
sS'GGAACT'
p515
I6598
sS'GTCAGG'
p516
I7233
sS'CATGAG'
p517
I5979
sS'ATCAAT'
p518
I4465
sS'GTCCAA'
p519
I4457
sS'GAAAGT'
p520
I7845
sS'CATGAA'
p521
I6367
sS'GTAGCG'
p522
I1268
sS'CAAGTT'
p523
I6402
sS'GCGGCT'
p524
I5538
sS'GCTTTA'
p525
I5261
sS'GTAGCA'
p526
I3561
sS'GCTTTT'
p527
I9228
sS'CAAGTG'
p528
I6233
sS'GTAGCT'
p529
I3982
sS'TTCTTT'
p530
I16494
sS'GCGGCC'
p531
I8990
sS'CAAGTC'
p532
I5358
sS'GCGGCA'
p533
I4078
sS'CAAGTA'
p534
I4239
sS'ATTGCT'
p535
I6155
sS'CGTACG'
p536
I457
sS'TAATCG'
p537
I795
sS'GGTCTT'
p538
I4662
sS'TAATCA'
p539
I5291
sS'TAATCC'
p540
I4396
sS'TGCGAA'
p541
I1459
sS'CGGCCC'
p542
I7949
sS'CGACTA'
p543
I732
sS'CGGCCA'
p544
I4606
sS'CGCTAT'
p545
I874
sS'CGGCCG'
p546
I6838
sS'TCGTGA'
p547
I1433
sS'ATGAAG'
p548
I6822
sS'GGTCTG'
p549
I6122
sS'GAGTTC'
p550
I5612
sS'GGTCTC'
p551
I5717
sS'GGTCTA'
p552
I2338
sS'AAAATG'
p553
I14075
sS'AAAATC'
p554
I8846
sS'TCAATA'
p555
I5100
sS'CGGCCT'
p556
I5443
sS'TTCAGC'
p557
I7786
sS'TCGTCC'
p558
I1783
sS'TTCAGG'
p559
I8365
sS'GAACAT'
p560
I5049
sS'TCGTCG'
p561
I783
sS'GAACAA'
p562
I6560
sS'ATCCCG'
p563
I2224
sS'GAACAC'
p564
I4999
sS'TCGTCT'
p565
I1530
sS'GAACAG'
p566
I7205
sS'ATCCCA'
p567
I6624
sS'ATTGCA'
p568
I6199
sS'AGTCAT'
p569
I6223
sS'CACCAC'
p570
I7285
sS'CACCAA'
p571
I5931
sS'CACCAG'
p572
I8600
sS'TCCGTG'
p573
I2567
sS'ATTGCG'
p574
I1252
sS'TCCGTC'
p575
I2208
sS'TCCGTA'
p576
I1150
sS'CACCAT'
p577
I5345
sS'AACATG'
p578
I6595
sS'AACATA'
p579
I5395
sS'AACATC'
p580
I5018
sS'GTCAGC'
p581
I6278
sS'GCACGG'
p582
I2918
sS'GTCAGA'
p583
I6395
sS'GCACGA'
p584
I1468
sS'CAGTCC'
p585
I7095
sS'GCACGC'
p586
I3175
sS'GCAAGT'
p587
I5015
sS'GCAAGC'
p588
I5218
sS'GCACGT'
p589
I2241
sS'GCAAGA'
p590
I6333
sS'TAAAGC'
p591
I5370
sS'GCAAGG'
p592
I6691
sS'GTCAGT'
p593
I5416
sS'TATCTA'
p594
I3783
sS'GTATAC'
p595
I1694
sS'TTCCGT'
p596
I2322
sS'GTATAA'
p597
I3088
sS'GTATAG'
p598
I1780
sS'CCGGAA'
p599
I4527
sS'CCGGAC'
p600
I2900
sS'CCGGAG'
p601
I5667
sS'TATCAT'
p602
I3790
sS'CTCGTA'
p603
I843
sS'TTCCGG'
p604
I4419
sS'TTCCGA'
p605
I1839
sS'TTCCGC'
p606
I3486
sS'GTATAT'
p607
I3359
sS'CGTCTC'
p608
I2944
sS'CGTCTA'
p609
I980
sS'CGTCTG'
p610
I2661
sS'CCGGAT'
p611
I1868
sS'CTCTTC'
p612
I10371
sS'TGTTAT'
p613
I5296
sS'CTCTTA'
p614
I5437
sS'CTCTTG'
p615
I7950
sS'CCCGAT'
p616
I1291
sS'TACGTA'
p617
I1038
sS'TACGTC'
p618
I956
sS'TCTGGT'
p619
I6670
sS'CGCGAT'
p620
I976
sS'TACGTG'
p621
I1463
sS'TGTTAG'
p622
I4379
sS'ATTATA'
p623
I5270
sS'GCTGTT'
p624
I7807
sS'TGTTAC'
p625
I4512
sS'CTCTTT'
p626
I11695
sS'TGTTAA'
p627
I6390
sS'TCTGGG'
p628
I11918
sS'CGCGAC'
p629
I1857
sS'CCCTGC'
p630
I13033
sS'TCTGGC'
p631
I9001
sS'TACGTT'
p632
I1135
sS'TCTGGA'
p633
I9314
sS'AGTCGT'
p634
I1211
sS'TTACCT'
p635
I5547
sS'CTCCAT'
p636
I6803
sS'TATGCC'
p637
I2869
sS'TTACCG'
p638
I1231
sS'CTCCAC'
p639
I8740
sS'CTCCAA'
p640
I7674
sS'TTACCC'
p641
I3940
sS'CTCCAG'
p642
I13724
sS'TTACCA'
p643
I5086
sS'AGTCGC'
p644
I1768
sS'AATGCC'
p645
I5631
sS'CCGACT'
p646
I2133
sS'GCCTAC'
p647
I3125
sS'AATGCA'
p648
I7106
sS'GCCTAG'
p649
I4563
sS'CCGACA'
p650
I1718
sS'GATATC'
p651
I2160
sS'CCGACC'
p652
I2589
sS'CCGACG'
p653
I1624
sS'GCCTAT'
p654
I2874
sS'AAGCTA'
p655
I4638
sS'ACGCGG'
p656
I2328
sS'CCCGAG'
p657
I4872
sS'CTCGTT'
p658
I1672
sS'GGTTTT'
p659
I8051
sS'CGCACA'
p660
I2483
sS'ATACAC'
p661
I3928
sS'CGCACC'
p662
I2955
sS'GGGTCG'
p663
I2592
sS'ACTGCT'
p664
I7408
sS'GGGTCA'
p665
I6364
sS'CGCACG'
p666
I2304
sS'GGGTCC'
p667
I5582
sS'CTCACT'
p668
I8657
sS'GGGTCT'
p669
I5339
sS'ACTGCA'
p670
I8281
sS'TTTGTC'
p671
I7310
sS'ACTGCC'
p672
I7602
sS'CGCACT'
p673
I2216
sS'TTTGTG'
p674
I9507
sS'ACTGCG'
p675
I2895
sS'CTCACC'
p676
I8115
sS'CTCACA'
p677
I7994
sS'CTCACG'
p678
I2873
sS'GTGGGT'
p679
I6107
sS'GTGAGG'
p680
I8067
sS'GATTTT'
p681
I8837
sS'TAGTGC'
p682
I2957
sS'GTGAGC'
p683
I6666
sS'TAGTGA'
p684
I4211
sS'GTGAGA'
p685
I6633
sS'TCGACG'
p686
I534
sS'TCGACA'
p687
I848
sS'TCGACC'
p688
I984
sS'GATTTG'
p689
I5969
sS'GTGAGT'
p690
I6214
sS'GTGGGG'
p691
I11123
sS'GTGGGA'
p692
I8222
sS'GTGGGC'
p693
I7102
sS'TCGACT'
p694
I996
sS'ACGTAA'
p695
I1421
sS'CTGGTT'
p696
I7539
sS'TTGAGT'
p697
I5362
sS'CGAACG'
p698
I795
sS'CGAACC'
p699
I1434
sS'CGAACA'
p700
I1148
sS'CGGNCC'
p701
I1
sS'CTGGTG'
p702
I8591
sS'CTGGTA'
p703
I4298
sS'CTGGTC'
p704
I6068
sS'CGAACT'
p705
I1441
sS'CGCTGA'
p706
I3040
sS'TTGCAT'
p707
I6259
sS'GACGAG'
p708
I1912
sS'NNGAAT'
p709
I1
sS'GCGGAA'
p710
I3511
sS'CGTCTT'
p711
I1887
sS'TTGCAG'
p712
I7924
sS'ACTCCT'
p713
I7015
sS'CTTGAT'
p714
I4242
sS'TTGCAC'
p715
I5140
sS'TTGCAA'
p716
I7683
sS'ACGTAC'
p717
I916
sS'TCCATC'
p718
I5282
sS'TCGCAT'
p719
I806
sS'GTCGTG'
p720
I1388
sS'GTCGTA'
p721
I582
sS'GTCGTC'
p722
I1297
sS'CCGTTT'
p723
I2369
sS'ACTGAT'
p724
I5225
sS'ATATCG'
p725
I565
sS'GTCGTT'
p726
I1132
sS'TCGCAG'
p727
I2525
sS'TCCATG'
p728
I6028
sS'TCGCAC'
p729
I1342
sS'CCGTTG'
p730
I1560
sS'CCGTTA'
p731
I1116
sS'CCGTTC'
p732
I1988
sS'AATGCT'
p733
I6855
sS'GGTACG'
p734
I787
sS'GGTACA'
p735
I3201
sS'GGTACC'
p736
I2250
sS'TATTTG'
p737
I9071
sS'CCAGTT'
p738
I7354
sS'TATTTC'
p739
I8999
sS'TATTTA'
p740
I10928
sS'CCCCCT'
p741
I8544
sS'GGTACT'
p742
I2690
sS'AATGCG'
p743
I1408
sS'TTGAGA'
p744
I7217
sS'GAAGTC'
p745
I5651
sS'CCCCCC'
p746
I6253
sS'CCCCCA'
p747
I10116
sS'TATTTT'
p748
I16267
sS'CCCCCG'
p749
I6691
sS'CTTGAG'
p750
I5958
sS'ATGATG'
p751
I5394
sS'CTTGAC'
p752
I4179
sS'GCGTTA'
p753
I1011
sS'AGACGC'
p754
I2621
sS'TGCAAC'
p755
I5128
sS'TGCAAA'
p756
I9820
sS'TGCAAG'
p757
I6072
sS'GAAGTG'
p758
I8006
sS'ATGATT'
p759
I6654
sS'TATCAC'
p760
I3345
sS'GTGCTT'
p761
I6214
sS'TTGAGG'
p762
I5999
sS'GCCATT'
p763
I5469
sS'CAATGT'
p764
I5272
sS'TTGAGC'
p765
I5247
sS'TGCAAT'
p766
I6280
sS'GAGAAT'
p767
I6698
sS'TGTCTT'
p768
I7672
sS'CGAATA'
p769
I806
sS'TTCAGA'
p770
I9597
sS'AGTAGC'
p771
I3873
sS'AAGGCC'
p772
I7520
sS'ATAACC'
p773
I3322
sS'AAGGCA'
p774
I8743
sS'ATAACA'
p775
I5318
sS'AAGGCG'
p776
I3484
sS'ATAACG'
p777
I1069
sS'TATGCT'
p778
I3711
sS'TGTGGT'
p779
I6715
sS'TGTCTG'
p780
I8643
sS'GAGAAG'
p781
I10689
sS'GAGAAA'
p782
I13783
sS'TGTCTC'
p783
I7744
sS'GAGAAC'
p784
I6116
sS'TGTCTA'
p785
I4104
sS'TGTGGC'
p786
I8214
sS'TGTGGA'
p787
I7659
sS'TGTGGG'
p788
I8877
sS'ATAACT'
p789
I4642
sS'AAGGCT'
p790
I7547
sS'CTGTAA'
p791
I7524
sS'GCCCCG'
p792
I11732
sS'ACCAAG'
p793
I5677
sS'GGTCAG'
p794
I7878
sS'ACCAAA'
p795
I7195
sS'AAGCAG'
p796
I10374
sS'ACCAAC'
p797
I4076
sS'GGTCAC'
p798
I6151
sS'GGTCAT'
p799
I4407
sS'ACCAAT'
p800
I4281
sS'GCCCCT'
p801
I10121
sS'CGTGCG'
p802
I2351
sS'AGGTAC'
p803
I3200
sS'TTTTGC'
p804
I8490
sS'TCTTAC'
p805
I4179
sS'AATTGG'
p806
I4528
sS'TCTTAA'
p807
I6003
sS'AATTGA'
p808
I5214
sS'TCTTAG'
p809
I4682
sS'AATTGC'
p810
I4877
sS'TAGCCA'
p811
I4794
sS'TGGGGT'
p812
I7296
sS'CGCTCG'
p813
I2797
sS'GATAAT'
p814
I4119
sS'CGCTCA'
p815
I2778
sS'TAGCCG'
p816
I1400
sS'AATTGT'
p817
I5750
sS'CGATCC'
p818
I1335
sS'AATCTT'
p819
I6228
sS'TCTTAT'
p820
I4933
sS'TTTTGT'
p821
I13072
sS'CGCTCT'
p822
I3898
sS'TGGGGG'
p823
I9994
sS'TCTCGT'
p824
I1590
sS'TAGCCT'
p825
I4336
sS'TGGGGC'
p826
I10513
sS'TGGGGA'
p827
I11508
sS'CATTTA'
p828
I8712
sS'GATCCT'
p829
I4263
sS'AAGAAT'
p830
I8242
sS'CATTTG'
p831
I8698
sS'AAGAAC'
p832
I6586
sS'GATCCA'
p833
I3884
sS'AAGAAA'
p834
I17435
sS'GATCCC'
p835
I3986
sS'AAGAAG'
p836
I9326
sS'GATCCG'
p837
I1651
sS'GCCCCA'
p838
I10439
sS'TATTAA'
p839
I6840
sS'CAAGGG'
p840
I7060
sS'ATCGAG'
p841
I1045
sS'CAAGGC'
p842
I7342
sS'GGTTCT'
p843
I5534
sS'CAAGGA'
p844
I7356
sS'TTGATA'
p845
I4053
sS'GGCGCN'
p846
I1
sS'GGTTCA'
p847
I4654
sS'GGTTCC'
p848
I5447
sS'CAAGGT'
p849
I6303
sS'TGCATT'
p850
I7094
sS'GGTTCG'
p851
I1463
sS'CTGTAT'
p852
I4956
sS'TAGTGG'
p853
I4182
sS'ATTATC'
p854
I4027
sS'TAGAAT'
p855
I5687
sS'GATAGT'
p856
I2410
sS'ATTATG'
p857
I4597
sS'AGTCTT'
p858
I5892
sS'TAGAAA'
p859
I9346
sS'TAGAAC'
p860
I3987
sS'ATTATT'
p861
I9118
sS'TAGAAG'
p862
I5482
sS'AGTCTA'
p863
I3501
sS'AGTCTC'
p864
I6168
sS'AGTCTG'
p865
I6863
sS'TAACTC'
p866
I4290
sS'TAACTA'
p867
I3868
sS'TAACTG'
p868
I5352
sS'ATCTAT'
p869
I3854
sS'ACGCGT'
p870
I940
sS'AGGTAT'
p871
I3567
sS'TAACTT'
p872
I6091
sS'ATCTAG'
p873
I3704
sS'ATCTAC'
p874
I3090
sS'ATCTAA'
p875
I4168
sS'CATAGC'
p876
I3443
sS'CCATGT'
p877
I6016
sS'GCCCCC'
p878
I10829
sS'TGGAGG'
p879
I10786
sS'TGGAGA'
p880
I10033
sS'TGGAGC'
p881
I8251
sS'CCATGC'
p882
I4891
sS'CCATGA'
p883
I5467
sS'CCATGG'
p884
I6485
sS'TGGAGT'
p885
I7507
sS'ATTACG'
p886
I956
sS'TCAGTA'
p887
I5312
sS'TCAGTC'
p888
I5762
sS'CTCTCT'
p889
I14182
sS'GGGGAT'
p890
I4836
sS'TCAGTG'
p891
I8332
sS'CGATAT'
p892
I558
sS'GGGGAA'
p893
I10622
sS'GGGGAC'
p894
I6903
sS'CTCTCC'
p895
I12911
sS'TCAGTT'
p896
I7981
sS'CTCTCA'
p897
I8408
sS'CGATAG'
p898
I697
sS'CGATAA'
p899
I800
sS'ATGCTG'
p900
I6947
sS'CGATAC'
p901
I574
sS'CTAAGG'
p902
I4394
sS'GTGTTT'
p903
I9366
sS'GCTACT'
p904
I3939
sS'GTGGTT'
p905
I5878
sS'CTAAGA'
p906
I4747
sS'GTGTTC'
p907
I5044
sS'GTGTTA'
p908
I3890
sS'GTGTTG'
p909
I5388
sS'CGTGCC'
p910
I2918
sS'GTGGTA'
p911
I3349
sS'GCTACA'
p912
I3792
sS'GTGGTC'
p913
I3876
sS'GCTACC'
p914
I3094
sS'GTGGTG'
p915
I7297
sS'GCTACG'
p916
I1367
sS'AGGTAG'
p917
I4606
sS'TTTCGT'
p918
I1843
sS'TGCCCT'
p919
I10619
sS'AGCGTT'
p920
I1893
sS'AGGTAA'
p921
I5491
sS'TGCCCC'
p922
I8692
sS'TGCCCA'
p923
I9554
sS'TGCCCG'
p924
I4068
sS'TTTCGG'
p925
I1995
sS'AGCGTA'
p926
I913
sS'AGCGTC'
p927
I2315
sS'AGCGTG'
p928
I2597
sS'GGCCCC'
p929
I11244
sS'GGCCCA'
p930
I8515
sS'CACGTG'
p931
I4782
sS'GGCCCG'
p932
I7032
sS'CACGTA'
p933
I1465
sS'TGTACC'
p934
I3209
sS'CACGTC'
p935
I2284
sS'TGCTAT'
p936
I4437
sS'CTACGC'
p937
I1286
sS'ACGTGA'
p938
I2700
sS'GGGACT'
p939
I6818
sS'ACAGTC'
p940
I5439
sS'CACGTT'
p941
I2250
sS'CTAAGT'
p942
I4251
sS'GNCCCA'
p943
I1
sS'GGCCCT'
p944
I8961
sS'GGGACA'
p945
I7535
sS'TTTTGG'
p946
I8979
sS'GGGACC'
p947
I6238
sS'TCGTGG'
p948
I2056
sS'ACGTGT'
p949
I2191
sS'CTATAT'
p950
I3052
sS'AGAGAG'
p951
I14460
sS'AGAGAA'
p952
I13822
sS'AGAGAC'
p953
I7754
sS'TTCACC'
p954
I6039
sS'GTCTTT'
p955
I6807
sS'TCTATC'
p956
I3272
sS'TCTATG'
p957
I3934
sS'AGAGAT'
p958
I7381
sS'GCTAAT'
p959
I3666
sS'ATGTGC'
p960
I4984
sS'ATGCTC'
p961
I4259
sS'GTCTTG'
p962
I4715
sS'TCTATT'
p963
I6162
sS'GTCTTC'
p964
I5424
sS'GTCTTA'
p965
I3163
sS'GCAGAG'
p966
I13193
sS'CGATTG'
p967
I1270
sS'GCTCAC'
p968
I6566
sS'GCAGAC'
p969
I5506
sS'GCAGAA'
p970
I9143
sS'GCTCAG'
p971
I10045
sS'AGACGT'
p972
I1723
sS'ATGCGT'
p973
I1309
sS'TTGCTG'
p974
I8941
sS'TTGCTA'
p975
I5060
sS'TTGCTC'
p976
I7163
sS'GCAGAT'
p977
I5753
sS'GCTCAT'
p978
I5018
sS'GTACGG'
p979
I838
sS'TTGCTT'
p980
I9616
sS'CGATTC'
p981
I1363
sS'GAGAGG'
p982
I12322
sS'CGCTCC'
p983
I5859
sS'ATGCGC'
p984
I1960
sS'ATGCGA'
p985
I911
sS'TGTAAG'
p986
I4807
sS'GGCTAG'
p987
I3889
sS'GTTTGA'
p988
I5688
sS'TGTAAC'
p989
I4569
sS'GGCTAC'
p990
I3241
sS'GACTGT'
p991
I5411
sS'GGCTAA'
p992
I3901
sS'TTCGAG'
p993
I1545
sS'TTGGTA'
p994
I4057
sS'ACTGTC'
p995
I5318
sS'TTGGTC'
p996
I4443
sS'TTCGAC'
p997
I828
sS'ACTGTG'
p998
I8509
sS'TTGGTG'
p999
I5965
sS'GGAACC'
p1000
I5612
sS'GGCTAT'
p1001
I2955
sS'TGTAAT'
p1002
I6905
sS'GACTGG'
p1003
I6861
sS'TTCGAT'
p1004
I1047
sS'TTGGTT'
p1005
I6839
sS'ACTGTT'
p1006
I6959
sS'GTTTCT'
p1007
I9870
sS'ATAATT'
p1008
I7479
sS'CCTTTT'
p1009
I11130
sS'GTTTCG'
p1010
I1563
sS'GTTTCC'
p1011
I8989
sS'GATAAA'
p1012
I6238
sS'ATAATG'
p1013
I5339
sS'CCTTTA'
p1014
I6362
sS'CCTTTC'
p1015
I10851
sS'ATAATC'
p1016
I3915
sS'NNNNGA'
p1017
I2
sS'ATAATA'
p1018
I6316
sS'CCTTTG'
p1019
I10092
sS'ACAGAA'
p1020
I11406
sS'CTCTCG'
p1021
I3179
sS'ACAGAC'
p1022
I6504
sS'GATAAC'
p1023
I2785
sS'ACAGAG'
p1024
I11691
sS'TTATCT'
p1025
I7065
sS'CTGGAC'
p1026
I7152
sS'CTGGAA'
p1027
I12279
sS'CTGGAG'
p1028
I13373
sS'ACAGAT'
p1029
I6934
sS'GATAAG'
p1030
I3766
sS'CCTTGC'
p1031
I6633
sS'TTATCA'
p1032
I5263
sS'CTGGAT'
p1033
I6385
sS'TTATCC'
p1034
I3724
sS'CCAATG'
p1035
I5039
sS'AAACCG'
p1036
I2132
sS'AAACCA'
p1037
I9072
sS'CCAATC'
p1038
I5127
sS'AAACCC'
p1039
I6713
sS'CCAATA'
p1040
I3861
sS'TGTCGG'
p1041
I1655
sS'GAGATC'
p1042
I4079
sS'AACGAG'
p1043
I1733
sS'GAGATA'
p1044
I4538
sS'TGTCGC'
p1045
I1895
sS'GAGATG'
p1046
I6664
sS'TGTCGA'
p1047
I866
sS'ATTTGA'
p1048
I7538
sS'CCAATT'
p1049
I4799
sS'ATTTGC'
p1050
I6952
sS'GTCGAT'
p1051
I627
sS'ATTTGG'
p1052
I7735
sS'CCCTAG'
p1053
I5004
sS'TGTCGT'
p1054
I1203
sS'CCCTAC'
p1055
I3896
sS'GAGATT'
p1056
I5697
sS'CCCTAA'
p1057
I4255
sS'CATTAT'
p1058
I5144
sS'TGGATT'
p1059
I6355
sS'ATCACA'
p1060
I6345
sS'ATCACC'
p1061
I4392
sS'CATGCT'
p1062
I5892
sS'TGACAC'
p1063
I5502
sS'TGACAA'
p1064
I6074
sS'TGGATA'
p1065
I3943
sS'AGGAAC'
p1066
I7007
sS'CATTAG'
p1067
I4073
sS'CATTAA'
p1068
I6012
sS'TGGATG'
p1069
I5734
sS'AGCATT'
p1070
I6873
sS'CATGCA'
p1071
I5613
sS'TGACAT'
p1072
I6121
sS'CATGCC'
p1073
I5640
sS'ATCACT'
p1074
I5576
sS'CATGCG'
p1075
I2173
sS'GTAGAA'
p1076
I4746
sS'GTAGAC'
p1077
I2275
sS'CCGCTT'
p1078
I3155
sS'GTAGAG'
p1079
I4526
sS'ACAACA'
p1080
I6744
sS'ACAACC'
p1081
I4257
sS'GATTGC'
p1082
I3831
sS'ACAACG'
p1083
I1343
sS'TAAATT'
p1084
I8508
sS'ACTAAG'
p1085
I4164
sS'GTAGAT'
p1086
I3040
sS'TGCTAC'
p1087
I3501
sS'TTGCCT'
p1088
I8110
sS'TGATGC'
p1089
I4163
sS'GATTGT'
p1090
I3696
sS'TTCAGT'
p1091
I8604
sS'ACAACT'
p1092
I5265
sS'GTCGAA'
p1093
I866
sS'TAATAG'
p1094
I3994
sS'GTCCGG'
p1095
I2915
sS'TAATAC'
p1096
I3486
sS'GTCCGA'
p1097
I1352
sS'TAATAA'
p1098
I7726
sS'GTCCGC'
p1099
I2827
sS'TGTTTA'
p1100
I9655
sS'CACATC'
p1101
I5230
sS'GTCCGT'
p1102
I1478
sS'TAATAT'
p1103
I5676
sS'CGTAAC'
p1104
I1020
sS'ATTCGC'
p1105
I1028
sS'TTCTCC'
p1106
I10902
sS'TGAACT'
p1107
I7622
sS'TTCTCA'
p1108
I10000
sS'ATTCGG'
p1109
I1233
sS'TTCTCG'
p1110
I2312
sS'GAGCTA'
p1111
I4219
sS'TCGTAC'
p1112
I542
sS'TACCTT'
p1113
I4718
sS'TCGTAA'
p1114
I942
sS'TCGTAG'
p1115
I927
sS'TGCGCT'
p1116
I2640
sS'TCGTCA'
p1117
I1357
sS'GAACCT'
p1118
I4990
sS'TGAACG'
p1119
I1548
sS'ATCCAC'
p1120
I4237
sS'TGAACC'
p1121
I4778
sS'TTCTCT'
p1122
I13745
sS'ATCCAG'
p1123
I6580
sS'GAACCC'
p1124
I4863
sS'GAACCA'
p1125
I5415
sS'GAACCG'
p1126
I2128
sS'TACCTC'
p1127
I4060
sS'TCGTAT'
p1128
I700
sS'ACCATC'
p1129
I3824
sS'ACCATA'
p1130
I2999
sS'ACCATG'
p1131
I5009
sS'ATGTTG'
p1132
I5941
sS'AGCTCT'
p1133
I9334
sS'GAGCTG'
p1134
I11150
sS'AGTGGT'
p1135
I5504
sS'ATGAGC'
p1136
I4837
sS'ATGTTT'
p1137
I10212
sS'ACCATT'
p1138
I4794
sS'CGTAAA'
p1139
I1269
sS'AGCTCG'
p1140
I2541
sS'AGTGGC'
p1141
I7509
sS'AGCTCC'
p1142
I9312
sS'AGTGGG'
p1143
I7931
sS'CAGTAA'
p1144
I6160
sS'CAGTAC'
p1145
I3604
sS'CAGTAG'
p1146
I5112
sS'TTAATA'
p1147
I6815
sS'CAGTAT'
p1148
I4355
sS'ATTAGT'
p1149
I3770
sS'AAAGTC'
p1150
I7674
sS'CCGGCT'
p1151
I5538
sS'GATCTA'
p1152
I2506
sS'GATCTC'
p1153
I4178
sS'ATTGAC'
p1154
I3614
sS'GATCTG'
p1155
I5076
sS'TGCCAA'
p1156
I8327
sS'CCGGCC'
p1157
I9089
sS'CCGGCA'
p1158
I3757
sS'CCGGCG'
p1159
I6072
sS'ACGCCA'
p1160
I2330
sS'ATTAGC'
p1161
I3675
sS'TCCCTC'
p1162
I11622
sS'GAGCTT'
p1163
I6292
sS'TCCCTA'
p1164
I5054
sS'TTAATG'
p1165
I5996
sS'TCCCTG'
p1166
I12631
sS'GATCTT'
p1167
I4310
sS'CTAGAC'
p1168
I3046
sS'ATAGAA'
p1169
I5863
sS'CACAAT'
p1170
I5989
sS'AAGTGC'
p1171
I6429
sS'TGTTCT'
p1172
I9068
sS'AAGTGG'
p1173
I7099
sS'TGATTG'
p1174
I5691
sS'TCTGAT'
p1175
I6517
sS'CGAGGT'
p1176
I2472
sS'TGTTCA'
p1177
I6690
sS'CACAAG'
p1178
I6399
sS'TGTTCC'
p1179
I6995
sS'CACAAA'
p1180
I9459
sS'CACAAC'
p1181
I5127
sS'TGTTCG'
p1182
I1217
sS'TCTGAA'
p1183
I9626
sS'TGATTT'
p1184
I9637
sS'TCTGAG'
p1185
I9673
sS'CGCGCC'
p1186
I7579
sS'CGCGCA'
p1187
I3418
sS'GGTAAA'
p1188
I5354
sS'CGCGCG'
p1189
I7126
sS'CTCCCT'
p1190
I14191
sS'AGCGGG'
p1191
I5113
sS'AGCGGA'
p1192
I3223
sS'ACCTCT'
p1193
I7675
sS'AGATGA'
p1194
I7522
sS'GAAATA'
p1195
I8965
sS'GACATT'
p1196
I5641
sS'CGCGCT'
p1197
I3940
sS'ACCTCC'
p1198
I7829
sS'ACCTCA'
p1199
I6898
sS'CTATTG'
p1200
I4001
sS'CTCCCA'
p1201
I12682
sS'CTCCCC'
p1202
I14436
sS'GCCTCT'
p1203
I10764
sS'TAAGCC'
p1204
I3958
sS'TAGCTC'
p1205
I4129
sS'CCCATG'
p1206
I5630
sS'CGGGAA'
p1207
I4564
sS'CCCATA'
p1208
I3211
sS'CGGGAC'
p1209
I4113
sS'CCCATC'
p1210
I5974
sS'TTGTTG'
p1211
I6672
sS'CCTGCT'
p1212
I11447
sS'CCGAAT'
p1213
I1239
sS'CCCATT'
p1214
I6513
sS'CGGGAT'
p1215
I2195
sS'GCCTCG'
p1216
I5033
sS'GCCTCA'
p1217
I8575
sS'TAAGCT'
p1218
I4171
sS'GCCTCC'
p1219
I13597
sS'CCGAAC'
p1220
I1511
sS'CCTGCG'
p1221
I5815
sS'CCGAAA'
p1222
I1932
sS'CCGAAG'
p1223
I2649
sS'CCTGCC'
p1224
I15119
sS'CCTGCA'
p1225
I9698
sS'CGACAC'
p1226
I1459
sS'CCATTC'
p1227
I6033
sS'CCATTA'
p1228
I3994
sS'TATAAA'
p1229
I8119
sS'TATAAC'
p1230
I2931
sS'GCNNNN'
p1231
I1
sS'TAACGA'
p1232
I992
sS'TATAAT'
p1233
I5213
sS'CCATTT'
p1234
I9151
sS'TCTACA'
p1235
I4526
sS'TCTACC'
p1236
I3963
sS'CTAACT'
p1237
I4070
sS'TCTACG'
p1238
I1050
sS'CACCGT'
p1239
I2226
sS'CGCAAC'
p1240
I1457
sS'CGCAAA'
p1241
I1877
sS'ATACCG'
p1242
I714
sS'CGCAAG'
p1243
I2082
sS'ATACCA'
p1244
I3623
sS'ATACCC'
p1245
I2361
sS'TCTACT'
p1246
I4916
sS'ATACCT'
p1247
I3565
sS'CGCAAT'
p1248
I1178
sS'TAGTAA'
p1249
I4341
sS'ATTTCT'
p1250
I11803
sS'TAGTAC'
p1251
I2210
sS'CTCAAG'
p1252
I5900
sS'CTCAAA'
p1253
I8458
sS'TAGTAG'
p1254
I2913
sS'CTCAAC'
p1255
I4690
sS'GTGTGC'
p1256
I5819
sS'GTGTGA'
p1257
I6332
sS'GTGTGG'
p1258
I7732
sS'TAACGG'
p1259
I1080
sS'TTGCGT'
p1260
I1594
sS'CTCAAT'
p1261
I4820
sS'ATTACA'
p1262
I6878
sS'TAGTAT'
p1263
I3016
sS'GTGTGT'
p1264
I13602
sS'ATCTTT'
p1265
I8162
sS'GTTGGG'
p1266
I5900
sS'GTTGGA'
p1267
I4912
sS'GTTGGC'
p1268
I4996
sS'CCTTGG'
p1269
I8856
sS'CCTTGA'
p1270
I5845
sS'GCGTAT'
p1271
I706
sS'AGGATT'
p1272
I6635
sS'GACCTA'
p1273
I3046
sS'CTAAGC'
p1274
I4138
sS'GTTGGT'
p1275
I4088
sS'ATCTTG'
p1276
I5092
sS'ATCTTA'
p1277
I4065
sS'ATCTTC'
p1278
I5334
sS'AGGATC'
p1279
I4342
sS'AGGATA'
p1280
I4129
sS'AGGATG'
p1281
I6644
sS'GACATG'
p1282
I4492
sS'GACATC'
p1283
I3690
sS'GACATA'
p1284
I3229
sS'TCGGCG'
p1285
I2460
sS'GAATAT'
p1286
I4741
sS'GGTGCA'
p1287
I5018
sS'TCGGCC'
p1288
I3899
sS'TCGGCA'
p1289
I1765
sS'TTGCGA'
p1290
I1229
sS'TTGCGC'
p1291
I1916
sS'TTGCGG'
p1292
I1896
sS'GAATAG'
p1293
I3837
sS'TCGGCT'
p1294
I2986
sS'CATAGA'
p1295
I3856
sS'AGGAAG'
p1296
I15827
sS'GAATAA'
p1297
I6269
sS'CACCGC'
p1298
I4866
sS'GTACAT'
p1299
I3341
sS'ATACAA'
p1300
I5309
sS'GGACGA'
p1301
I1768
sS'AAAATT'
p1302
I12358
sS'TTTCTA'
p1303
I9373
sS'GAAATG'
p1304
I10673
sS'AATGAT'
p1305
I6599
sS'TTTCTC'
p1306
I13534
sS'GAAATC'
p1307
I6641
sS'GAAATT'
p1308
I8385
sS'AATGAA'
p1309
I11167
sS'ATGTCC'
p1310
I4417
sS'AATGAC'
p1311
I6185
sS'AATGAG'
p1312
I8475
sS'TCATTG'
p1313
I6083
sS'TCAGCA'
p1314
I8934
sS'TGCACT'
p1315
I6224
sS'CTTGGC'
p1316
I8972
sS'GTATTG'
p1317
I3080
sS'GTCCTT'
p1318
I5900
sS'CTTGGG'
p1319
I8079
sS'ATACAG'
p1320
I4896
sS'AGCCCT'
p1321
I9291
sS'GCGTAA'
p1322
I981
sS'TTGAAT'
p1323
I6410
sS'ACCCCA'
p1324
I7176
sS'GTCCTA'
p1325
I3270
sS'GTCCTC'
p1326
I6521
sS'TGCACG'
p1327
I2070
sS'TGCACA'
p1328
I7581
sS'GTCCTG'
p1329
I8009
sS'TGCACC'
p1330
I4846
sS'TTGAAA'
p1331
I10527
sS'AGCCCG'
p1332
I5094
sS'AGCCCA'
p1333
I9336
sS'AGCCCC'
p1334
I9887
sS'CTTATG'
p1335
I3439
sS'ATAAAT'
p1336
I10546
sS'TGGTCG'
p1337
I1396
sS'TGGTCA'
p1338
I5713
sS'TGGTCC'
p1339
I4578
sS'ACGATT'
p1340
I1117
sS'GAGACT'
p1341
I6257
sS'GATTCA'
p1342
I5086
sS'TGGTCT'
p1343
I5716
sS'ATAAAG'
p1344
I7252
sS'ATAAAA'
p1345
I12887
sS'TCAGCC'
p1346
I9326
sS'ATAAAC'
p1347
I6446
sS'GAGACG'
p1348
I3125
sS'ACGATG'
p1349
I1234
sS'CTACAG'
p1350
I5410
sS'GAGACC'
p1351
I5678
sS'ACGATC'
p1352
I829
sS'GAGACA'
p1353
I7763
sS'ACGATA'
p1354
I667
sS'GGTTAC'
p1355
I3070
sS'ATGTGT'
p1356
I7221
sS'GGTTAA'
p1357
I4575
sS'ACCACT'
p1358
I5475
sS'GGTTAG'
p1359
I3414
sS'CTTCCT'
p1360
I15873
sS'TAAACT'
p1361
I6519
sS'CGTGAA'
p1362
I1889
sS'CTCAGT'
p1363
I8386
sS'TCCGCT'
p1364
I3142
sS'CTTCCA'
p1365
I9758
sS'CTTCCC'
p1366
I13776
sS'ACCACC'
p1367
I5662
sS'CGTATG'
p1368
I778
sS'ACCACA'
p1369
I6932
sS'GGTTAT'
p1370
I3335
sS'TCCGCC'
p1371
I6516
sS'TCCGCA'
p1372
I2426
sS'TCCGCG'
p1373
I3299
sS'AACGTC'
p1374
I1559
sS'CGTGAG'
p1375
I2914
sS'AACGTG'
p1376
I2236
sS'CGTGAC'
p1377
I2589
sS'GGTAGC'
p1378
I3080
sS'AGTGTG'
p1379
I7299
sS'TCTTCG'
p1380
I1826
sS'AGTGTA'
p1381
I3960
sS'TCTTCA'
p1382
I8004
sS'AGTGTC'
p1383
I5127
sS'TCTTCC'
p1384
I11177
sS'TAAGTG'
p1385
I5085
sS'TAAGTC'
p1386
I3398
sS'AACGTT'
p1387
I1805
sS'CCGTGA'
p1388
I2311
sS'TCTTCT'
p1389
I10301
sS'AGTGTT'
p1390
I6946
sS'GTGCGC'
p1391
I3490
sS'TTGGCA'
p1392
I8222
sS'AAAGGT'
p1393
I7912
sS'TTGGCC'
p1394
I7572
sS'GCTCGA'
p1395
I1413
sS'CTTATT'
p1396
I6186
sS'TTGGCG'
p1397
I2284
sS'GACTTC'
p1398
I5724
sS'TCGAGT'
p1399
I1253
sS'GACTTA'
p1400
I3344
sS'GACTTG'
p1401
I5424
sS'AAAGGG'
p1402
I10027
sS'AAAGGA'
p1403
I12009
sS'TTGGCT'
p1404
I9137
sS'AAAGGC'
p1405
I8438
sS'AGTAAG'
p1406
I4902
sS'GACTTT'
p1407
I7601
sS'GAGGAT'
p1408
I5391
sS'CAAGAA'
p1409
I7845
sS'GACGTT'
p1410
I1518
sS'CAAGAC'
p1411
I4651
sS'GATTCG'
p1412
I1109
sS'CAAGAG'
p1413
I7805
sS'CGTATT'
p1414
I1125
sS'TTCTTG'
p1415
I7796
sS'TTCTTC'
p1416
I10192
sS'TTCTTA'
p1417
I7120
sS'CAAGAT'
p1418
I5221
sS'AGGGCT'
p1419
I9402
sS'TACGGG'
p1420
I1100
sS'TACGGA'
p1421
I1129
sS'TACGGC'
p1422
I1061
sS'CTCAGA'
p1423
I9743
sS'TAGAGT'
p1424
I4198
sS'TACGGT'
p1425
I922
sS'GAGTAT'
p1426
I2974
sS'AGGGCG'
p1427
I6067
sS'CNNNNN'
p1428
I2
sS'AGGGCA'
p1429
I10726
sS'AGGGCC'
p1430
I8977
sS'TAGAGC'
p1431
I4136
sS'TAGAGA'
p1432
I6353
sS'TAGAGG'
p1433
I5398
sS'GGCGAA'
p1434
I2187
sS'GTGCTG'
p1435
I9152
sS'GTGCTA'
p1436
I3502
sS'ATCTGT'
p1437
I6871
sS'GTGCTC'
p1438
I5386
sS'GCTCGT'
p1439
I1468
sS'TAGGAC'
p1440
I3255
sS'ATCTGA'
p1441
I6349
sS'CGAATC'
p1442
I1144
sS'ATCTGC'
p1443
I5711
sS'TCGAGG'
p1444
I1975
sS'CGAATG'
p1445
I1438
sS'ATCTGG'
p1446
I6465
sS'ATCATA'
p1447
I3610
sS'GATAGC'
p1448
I2261
sS'ATCATC'
p1449
I4197
sS'GATAGA'
p1450
I3469
sS'AAGCAA'
p1451
I9606
sS'GATAGG'
p1452
I3144
sS'AAGCAC'
p1453
I6393
sS'TTTACC'
p1454
I5502
sS'CATTTC'
p1455
I10692
sS'CTAGGT'
p1456
I4038
sS'TTTCAT'
p1457
I10504
sS'GTTATC'
p1458
I2771
sS'GTTATA'
p1459
I2826
sS'CAAACA'
p1460
I11007
sS'AAGCAT'
p1461
I5834
sS'CAAACC'
p1462
I6125
sS'GTGGCC'
p1463
I8479
sS'ATCATT'
p1464
I6640
sS'CAAACG'
p1465
I2094
sS'CTAGGG'
p1466
I4842
sS'GTTATT'
p1467
I5450
sS'CTAGGC'
p1468
I4560
sS'CATTTT'
p1469
I13885
sS'CTAGGA'
p1470
I5385
sS'AAGTTT'
p1471
I8790
sS'TACAGT'
p1472
I5080
sS'GTGGCG'
p1473
I4268
sS'GTATGG'
p1474
I2338
sS'GGGGCT'
p1475
I9806
sS'TACAGG'
p1476
I5596
sS'AAGTTG'
p1477
I5829
sS'AAGTTA'
p1478
I6126
sS'TACAGC'
p1479
I4491
sS'AAGTTC'
p1480
I6348
sS'TACAGA'
p1481
I6528
sS'GGGGCC'
p1482
I11531
sS'GTATGA'
p1483
I2935
sS'GGGGCA'
p1484
I8693
sS'GGGGCG'
p1485
I13498
sS'AGCGGT'
p1486
I2006
sS'TATATA'
p1487
I6706
sS'TGTATA'
p1488
I4112
sS'GACTGC'
p1489
I5479
sS'ACATCG'
p1490
I1072
sS'TCCGGT'
p1491
I2149
sS'GGTCCA'
p1492
I4153
sS'CTATTC'
p1493
I3832
sS'TATATT'
p1494
I6526
sS'TGATGG'
p1495
I5009
sS'CATATG'
p1496
I3585
sS'ATGAGT'
p1497
I5572
sS'AGGTCT'
p1498
I5775
sS'TGATGA'
p1499
I6381
sS'TGCCAT'
p1500
I6077
sS'ACTCTT'
p1501
I6443
sS'TGTTTC'
p1502
I9912
sS'CACATA'
p1503
I5351
sS'TTAATT'
p1504
I8329
sS'CACATG'
p1505
I7200
sS'TGTTTG'
p1506
I11050
sS'ATGAGA'
p1507
I6991
sS'TGATGT'
p1508
I5945
sS'AGTAAC'
p1509
I4361
sS'ATGAGG'
p1510
I6714
sS'TTTCAC'
p1511
I8702
sS'ACTCTG'
p1512
I9257
sS'TGCCAG'
p1513
I10945
sS'ACTCTA'
p1514
I3927
sS'TGTTTT'
p1515
I16159
sS'ACTCTC'
p1516
I6022
sS'TGCCAC'
p1517
I7499
sS'AAATTC'
p1518
I8460
sS'GACTGA'
p1519
I5764
sS'AAATTA'
p1520
I10202
sS'AAATTG'
p1521
I7215
sS'CCAGTA'
p1522
I4557
sS'TCTTGT'
p1523
I6356
sS'CGTACC'
p1524
I883
sS'TTAATC'
p1525
I4726
sS'AAATTT'
p1526
I11156
sS'TTCGAA'
p1527
I1362
sS'CTTAGT'
p1528
I3986
sS'GTCTAT'
p1529
I2652
sS'GGGAAC'
p1530
I6541
sS'GGTGCG'
p1531
I3061
sS'GGGAAA'
p1532
I13084
sS'GGGAAG'
p1533
I13858
sS'GGTGCC'
p1534
I6292
sS'TCCGGG'
p1535
I5353
sS'AGAGCG'
p1536
I3804
sS'GCGACT'
p1537
I1876
sS'AGCGAT'
p1538
I1481
sS'AGAGCC'
p1539
I9222
sS'AGAGCA'
p1540
I9500
sS'GCGTAG'
p1541
I1279
sS'GGTGCT'
p1542
I6069
sS'GCGTAC'
p1543
I770
sS'GGGAAT'
p1544
I6125
sS'GCGACG'
p1545
I1964
sS'AGAGCT'
p1546
I9320
sS'GCGACA'
p1547
I1791
sS'TATCGG'
p1548
I615
sS'GCGACC'
p1549
I2437
sS'AGGTCG'
p1550
I1955
sS'GCAGGA'
p1551
I11120
sS'GCAGGC'
p1552
I10691
sS'GCAGGG'
p1553
I13170
sS'CAATTT'
p1554
I7340
sS'GCACTA'
p1555
I3021
sS'CCGTGC'
p1556
I2854
sS'GCTCGG'
p1557
I4494
sS'TATTCT'
p1558
I6447
sS'CCGTGG'
p1559
I3623
sS'ACTTAC'
p1560
I3775
sS'AAATAC'
p1561
I7930
sS'GCAGGT'
p1562
I7144
sS'ACCCTA'
p1563
I3361
sS'TATTCC'
p1564
I4568
sS'CAATTG'
p1565
I3676
sS'TATTCA'
p1566
I6076
sS'CCGTGT'
p1567
I2396
sS'TATTCG'
p1568
I771
sS'GGCGAC'
p1569
I2883
sS'TGTAGA'
p1570
I4644
sS'GGCTCA'
p1571
I8371
sS'TGTAGC'
p1572
I3828
sS'GGCTCC'
p1573
I11112
sS'TTTACG'
p1574
I1295
sS'TGTAGG'
p1575
I4127
sS'GGCTCG'
p1576
I3776
sS'TTCGGA'
p1577
I1642
sS'TTCGGC'
p1578
I1992
sS'AAATAG'
p1579
I8336
sS'GTCTAC'
p1580
I2272
sS'TTCGGG'
p1581
I2259
sS'ATTGTC'
p1582
I3574
sS'AGCATG'
p1583
I5992
sS'GGCTCT'
p1584
I9183
sS'TGTAGT'
p1585
I4628
sS'TTTACT'
p1586
I8463
sS'AGCATA'
p1587
I3814
sS'AACCTT'
p1588
I6041
sS'TCTTGG'
p1589
I7495
sS'TTCGGT'
p1590
I1460
sS'GAGCAT'
p1591
I4379
sS'GTTTAT'
p1592
I6336
sS'GGGGAG'
p1593
I14355
sS'CGCTAC'
p1594
I1302
sS'TGCTTG'
p1595
I6689
sS'AGGCAT'
p1596
I5985
sS'GTTTAA'
p1597
I6260
sS'GTTTAC'
p1598
I4985
sS'CACGAA'
p1599
I1628
sS'CGAATT'
p1600
I1145
sS'GTTTAG'
p1601
I4205
sS'TCTTTT'
p1602
I14220
sS'CGCTAG'
p1603
I1535
sS'CTGGCT'
p1604
I12659
sS'AGGCGG'
p1605
I8183
sS'GTCGGT'
p1606
I1252
sS'AGGCGC'
p1607
I5384
sS'AGGAGT'
p1608
I6883
sS'ACAGCC'
p1609
I8746
sS'ACAGCA'
p1610
I9429
sS'TCCAGC'
p1611
I10818
sS'ACAGCG'
p1612
I3164
sS'AGGAGC'
p1613
I9385
sS'GTCGGA'
p1614
I1450
sS'AGGAGA'
p1615
I11241
sS'CTGGCG'
p1616
I4994
sS'AGGAGG'
p1617
I15149
sS'CTGGCA'
p1618
I10935
sS'CTGGCC'
p1619
I12674
sS'ACAGCT'
p1620
I8730
sS'GCTCTC'
p1621
I7940
sS'ATTGGT'
p1622
I4284
sS'AATTTT'
p1623
I12256
sS'AAACAG'
p1624
I12469
sS'TGTCAC'
p1625
I6533
sS'AAACAC'
p1626
I9223
sS'GCTCTA'
p1627
I4069
sS'AAACAA'
p1628
I14968
sS'ATTGGG'
p1629
I4272
sS'AATTTA'
p1630
I8405
sS'AATTTC'
p1631
I8331
sS'ATTGGC'
p1632
I5351
sS'AACGCA'
p1633
I1785
sS'AATTTG'
p1634
I7601
sS'CCCTCA'
p1635
I8076
sS'CCCTCC'
p1636
I16706
sS'TGTCAT'
p1637
I6414
sS'CCCTCG'
p1638
I4374
sS'GAGGTT'
p1639
I6186
sS'CACGAT'
p1640
I1217
sS'GGCGTT'
p1641
I2147
sS'TGACCA'
p1642
I5792
sS'TGACCC'
p1643
I6125
sS'TAAATC'
p1644
I5206
sS'TGACCG'
p1645
I1834
sS'ATGGTT'
p1646
I4684
sS'NGATCC'
p1647
I1
sS'CATTCG'
p1648
I1499
sS'TGACCT'
p1649
I8962
sS'ACCACG'
p1650
I2468
sS'TCCATA'
p1651
I3582
sS'ACGAAA'
p1652
I1752
sS'TAAATG'
p1653
I8528
sS'ACAAAT'
p1654
I9103
sS'GATTAA'
p1655
I4788
sS'GTAGGC'
p1656
I3144
sS'GATTAC'
p1657
I3630
sS'CTGACA'
p1658
I7241
sS'GTAGGG'
p1659
I4039
sS'GATTAG'
p1660
I3255
sS'GGCTTT'
p1661
I8261
sS'ACAAAC'
p1662
I7860
sS'TTTCAA'
p1663
I10435
sS'ACAAAA'
p1664
I13170
sS'ACAAAG'
p1665
I9748
sS'GCGGGC'
p1666
I8438
sS'AGGCGA'
p1667
I2768
sS'GCGGGA'
p1668
I6629
sS'GCGGGG'
p1669
I14345
sS'GATTAT'
p1670
I3926
sS'GTAGGT'
p1671
I3390
sS'GGCGTC'
p1672
I3224
sS'TAATGA'
p1673
I6106
sS'GATGTT'
p1674
I5109
sS'TAATGC'
p1675
I3498
sS'GGAGAT'
p1676
I5710
sS'GCCCTT'
p1677
I7908
sS'CAATAA'
p1678
I6301
sS'GCCCTC'
p1679
I10256
sS'GATGTG'
p1680
I5220
sS'GCCCTA'
p1681
I3772
sS'GATGTA'
p1682
I2927
sS'GCCCTG'
p1683
I13074
sS'GATGTC'
p1684
I3771
sS'AACCTC'
p1685
I6073
sS'TGAAAT'
p1686
I11036
sS'AACCTA'
p1687
I3838
sS'TTCTAA'
p1688
I7525
sS'ATCCGT'
p1689
I1141
sS'TTCTAC'
p1690
I4793
sS'GAATGT'
p1691
I6316
sS'TTGGAT'
p1692
I5017
sS'TGAAAC'
p1693
I7641
sS'TGAAAG'
p1694
I9666
sS'TTCTAT'
p1695
I5963
sS'ATCCGC'
p1696
I1591
sS'ATCCGA'
p1697
I1053
sS'ATCCGG'
p1698
I1860
sS'TGGCTC'
p1699
I9875
sS'TAACAA'
p1700
I5925
sS'TGGCTA'
p1701
I4757
sS'TGGCTG'
p1702
I12755
sS'AGGCGT'
p1703
I2658
sS'AGTTGT'
p1704
I5276
sS'AGCTAT'
p1705
I4080
sS'GTCGGC'
p1706
I2377
sS'TGGCTT'
p1707
I9248
sS'AGTTGG'
p1708
I5852
sS'GGGATT'
p1709
I5954
sS'AGCTAC'
p1710
I4148
sS'AGTTGC'
p1711
I4829
sS'AGTTGA'
p1712
I4945
sS'AGCTAG'
p1713
I4346
sS'CGTTGA'
p1714
I1162
sS'CTAATT'
p1715
I5040
sS'CAGTGT'
p1716
I8190
sS'AGTCAG'
p1717
I7770
sS'TCAGGT'
p1718
I5951
sS'TCAAGG'
p1719
I5949
sS'GTCGGG'
p1720
I2900
sS'TCAAGC'
p1721
I4342
sS'CATGGA'
p1722
I5953
sS'GCACCA'
p1723
I5559
sS'CAGTGC'
p1724
I7875
sS'GCACCC'
p1725
I5733
sS'CAGTGA'
p1726
I9802
sS'CAGTGG'
p1727
I9647
sS'CTAATG'
p1728
I3989
sS'TCAAGT'
p1729
I5227
sS'CTGCAA'
p1730
I8081
sS'TCAGGA'
p1731
I9216
sS'TCAGGC'
p1732
I7929
sS'CGAGCT'
p1733
I2538
sS'ACGGTA'
p1734
I986
sS'CGTTGG'
p1735
I1814
sS'CAACCA'
p1736
I5610
sS'AGTCAA'
p1737
I5581
sS'TTCCCT'
p1738
I12333
sS'CGAGCG'
p1739
I2881
sS'CGAGCA'
p1740
I2079
sS'GAGCCG'
p1741
I5694
sS'CGAGCC'
p1742
I3792
sS'TTCCCA'
p1743
I11975
sS'TTCCCC'
p1744
I10443
sS'GTTCAC'
p1745
I4263
sS'TTCCCG'
p1746
I4608
sS'GATCAC'
p1747
I3719
sS'GGACCT'
p1748
I5208
sS'CTTACT'
p1749
I4802
sS'TCCACC'
p1750
I7485
sS'AAGTAC'
p1751
I4160
sS'CACACT'
p1752
I7166
sS'TACATC'
p1753
I2966
sS'AAGTAG'
p1754
I4992
sS'TACATA'
p1755
I4855
sS'GCACAC'
p1756
I5972
sS'GGACCG'
p1757
I2726
sS'AACGCT'
p1758
I1936
sS'GGACCA'
p1759
I4666
sS'TCATCA'
p1760
I6375
sS'GGACCC'
p1761
I5624
sS'CACACG'
p1762
I3052
sS'TACATT'
p1763
I6092
sS'CACACC'
p1764
I6659
sS'CTGCAT'
p1765
I6533
sS'CACACA'
p1766
I16742
sS'TCTGCC'
p1767
I10764
sS'TCTGCA'
p1768
I9196
sS'TCTGCG'
p1769
I3354
sS'TAGATT'
p1770
I4475
sS'ATTGCC'
p1771
I4506
sS'CCCGTC'
p1772
I3335
sS'TTAAGG'
p1773
I4540
sS'CCCGTA'
p1774
I1195
sS'TTAAGA'
p1775
I6006
sS'CCCGTG'
p1776
I3099
sS'TTAAGC'
p1777
I4167
sS'TTACGT'
p1778
I1391
sS'TAGATC'
p1779
I2432
sS'TGTCAA'
p1780
I5349
sS'AGTAAT'
p1781
I4950
sS'TTTCGC'
p1782
I1803
sS'TAGATG'
p1783
I4112
sS'TGGTTA'
p1784
I4851
sS'TCTGCT'
p1785
I10385
sS'TTACGC'
p1786
I958
sS'TTAAGT'
p1787
I5534
sS'TTACGA'
p1788
I941
sS'TTACGG'
p1789
I1070
sS'CCCGTT'
p1790
I2006
sS'AGTGAC'
p1791
I7046
sS'AGTGAA'
p1792
I7997
sS'AGTGAG'
p1793
I8645
sS'CGGGCG'
p1794
I6905
sS'CCCTCT'
p1795
I11468
sS'TAAGAG'
p1796
I5404
sS'CGGGCC'
p1797
I7260
sS'TAAGAA'
p1798
I7161
sS'CGGGCA'
p1799
I4013
sS'TAAGAC'
p1800
I3303
sS'ATTTAT'
p1801
I10287
sS'AGTGAT'
p1802
I5633
sS'CTTTCC'
p1803
I12812
sS'TAAGAT'
p1804
I4126
sS'CCTGAA'
p1805
I8292
sS'CCTGAC'
p1806
I7240
sS'CCTGAG'
p1807
I10539
sS'GTTAGG'
p1808
I3725
sS'AACGCG'
p1809
I1382
sS'CTTTCA'
p1810
I9690
sS'GTTAGC'
p1811
I2851
sS'GTTAGA'
p1812
I3556
sS'ACCCCC'
p1813
I5852
sS'TGAATT'
p1814
I7486
sS'TATACG'
p1815
I591
sS'GTTAGT'
p1816
I2940
sS'TATACC'
p1817
I1969
sS'TATACA'
p1818
I4069
sS'AACGCC'
p1819
I2169
sS'CGTATA'
p1820
I595
sS'GTAATG'
p1821
I3672
sS'TTTATT'
p1822
I15654
sS'GTAATA'
p1823
I3944
sS'ATTGGA'
p1824
I4771
sS'GTAATC'
p1825
I3574
sS'TCTAAC'
p1826
I3608
sS'CGTTCT'
p1827
I2151
sS'CCACCG'
p1828
I4384
sS'GGTAGG'
p1829
I4487
sS'CCACCA'
p1830
I8327
sS'CCACCC'
p1831
I11443
sS'GTTCGT'
p1832
I1088
sS'TTTATG'
p1833
I6778
sS'ACTAGG'
p1834
I3969
sS'GTAACG'
p1835
I996
sS'TTTATC'
p1836
I6249
sS'ACTAGC'
p1837
I2946
sS'TTTATA'
p1838
I8146
sS'ACTAGA'
p1839
I4541
sS'CCACCT'
p1840
I9711
sS'CGTTCG'
p1841
I875
sS'TCGTTG'
p1842
I1235
sS'CGTTCA'
p1843
I1564
sS'CGTTCC'
p1844
I2426
sS'TCTAAT'
p1845
I4633
sS'CTTTGT'
p1846
I9848
sS'AAACAT'
p1847
I10007
sS'ACTGGA'
p1848
I7512
sS'ACTGGC'
p1849
I6611
sS'TAGTCC'
p1850
I3157
sS'GTGACC'
p1851
I6081
sS'TAGTCA'
p1852
I3954
sS'GTGACA'
p1853
I6689
sS'TAGTCG'
p1854
I669
sS'GTGACG'
p1855
I2826
sS'ATTTAG'
p1856
I5927
sS'ACTGGT'
p1857
I4667
sS'CTTTGG'
p1858
I10157
sS'CCTATG'
p1859
I3321
sS'GTATTT'
p1860
I8011
sS'CTTTGC'
p1861
I8777
sS'CTTTGA'
p1862
I8626
sS'ACATTA'
p1863
I5352
sS'TTCTAG'
p1864
I6142
sS'GTGACT'
p1865
I7349
sS'TAGTCT'
p1866
I3740
sS'GTGCAC'
p1867
I4060
sS'GCGCTT'
p1868
I2782
sS'ACCTAG'
p1869
I4088
sS'CGACGA'
p1870
I744
sS'GTGCAG'
p1871
I7632
sS'CGACGC'
p1872
I1752
sS'CGAAGT'
p1873
I1580
sS'CCGCAG'
p1874
I6067
sS'CCGCAA'
p1875
I1964
sS'CCGCAC'
p1876
I3244
sS'ACGTGG'
p1877
I3657
sS'CGAAGC'
p1878
I2286
sS'GCGCTG'
p1879
I5938
sS'CGAAGA'
p1880
I1863
sS'CCCCGT'
p1881
I3256
sS'CGAAGG'
p1882
I2628
sS'GCGCTC'
p1883
I4987
sS'GTGCAT'
p1884
I3817
sS'GCGCTA'
p1885
I1315
sS'CCGCAT'
p1886
I1456
sS'GTTCGC'
p1887
I1333
sS'GAAGAT'
p1888
I5310
sS'GGATCT'
p1889
I4132
sS'TCGTTT'
p1890
I2075
sS'TCGGAC'
p1891
I1356
sS'GAATCT'
p1892
I5221
sS'CCTATA'
p1893
I2367
sS'TCGGAG'
p1894
I2756
sS'GGATCG'
p1895
I1330
sS'GAAGAG'
p1896
I10481
sS'GGTATA'
p1897
I1998
sS'GAAGAA'
p1898
I10074
sS'GGATCC'
p1899
I4249
sS'GAAGAC'
p1900
I5362
sS'GGATCA'
p1901
I4104
sS'GAATCA'
p1902
I5875
sS'GAATCC'
p1903
I4515
sS'TCGGAT'
p1904
I1054
sS'GAATCG'
p1905
I1334
sS'ATGGTC'
p1906
I3010
sS'CAGATG'
p1907
I7821
sS'ATGGTA'
p1908
I3507
sS'CATTCT'
p1909
I8204
sS'ATGGTG'
p1910
I5522
sS'CAGATC'
p1911
I5257
sS'ACGCCC'
p1912
I3755
sS'TGCGTG'
p1913
I2992
sS'GGGTAT'
p1914
I2480
sS'ACGCCT'
p1915
I2708
sS'CAGATT'
p1916
I6950
sS'TGATTA'
p1917
I5296
sS'CTCGAC'
p1918
I1267
sS'CTCGAA'
p1919
I1581
sS'TCGCAA'
p1920
I1135
sS'TGCGTC'
p1921
I2209
sS'AATGGT'
p1922
I4826
sS'ATGATA'
p1923
I3989
sS'GAGGTG'
p1924
I8718
sS'GGGACG'
p1925
I3974
sS'AGCCAC'
p1926
I9097
sS'AATGGA'
p1927
I7534
sS'AATGGG'
p1928
I6435
sS'CAATAC'
p1929
I3108
sS'GATCAA'
p1930
I3551
sS'CCCCGA'
p1931
I3724
sS'AATAGA'
p1932
I6153
sS'ACAATA'
p1933
I4869
sS'AATAGC'
p1934
I4360
sS'ATTTAC'
p1935
I6658
sS'GTGAAT'
p1936
I5178
sS'AGCCAG'
p1937
I13049
sS'GGAGGG'
p1938
I16662
sS'AAAAGT'
p1939
I10092
sS'GGAGGA'
p1940
I14404
sS'GGAGGC'
p1941
I13536
sS'TGGTAG'
p1942
I4080
sS'CGCCAT'
p1943
I2722
sS'GAGTGT'
p1944
I5126
sS'TGGTAC'
p1945
I2588
sS'GAGGTA'
p1946
I3955
sS'TGGTAA'
p1947
I4981
sS'AAAAGG'
p1948
I11367
sS'GGAGGT'
p1949
I7995
sS'AGCCAT'
p1950
I5763
sS'AAAAGC'
p1951
I9675
sS'CATTCA'
p1952
I7593
sS'AAAAGA'
p1953
I14391
sS'TTGACT'
p1954
I5491
sS'GAGTGG'
p1955
I7244
sS'CGCCAG'
p1956
I4945
sS'TGGTAT'
p1957
I3565
sS'CGCCAA'
p1958
I2385
sS'GAGTGC'
p1959
I5166
sS'CGCCAC'
p1960
I4382
sS'GAGTGA'
p1961
I6647
sS'GCCAGG'
p1962
I15107
sS'GCCAGA'
p1963
I9109
sS'GCCAGC'
p1964
I10801
sS'GCCCGT'
p1965
I2487
sS'TACCGA'
p1966
I875
sS'TACCGC'
p1967
I1267
sS'CTTCAT'
p1968
I6872
sS'GCCCGC'
p1969
I8465
sS'GCCAGT'
p1970
I6828
sS'GCCCGA'
p1971
I3159
sS'GCCCGG'
p1972
I9083
sS'CTTCAC'
p1973
I6395
sS'CTTCAA'
p1974
I6205
sS'CTTCAG'
p1975
I9019
sS'TCCGAG'
p1976
I2899
sS'TCCGAA'
p1977
I1585
sS'TCCGAC'
p1978
I1490
sS'TAGCGT'
p1979
I993
sS'TATTAG'
p1980
I3823
sS'AATTCC'
p1981
I6900
sS'AATTCG'
p1982
I1131
sS'TCCGAT'
p1983
I958
sS'NNNGAT'
p1984
I1
sS'TAGCGG'
p1985
I1546
sS'AATTCT'
p1986
I8303
sS'TAGCGC'
p1987
I1369
sS'GTCATC'
p1988
I4509
sS'GTCATA'
p1989
I3268
sS'GTAGGA'
p1990
I4017
sS'GTCATG'
p1991
I4651
sS'AGCAGG'
p1992
I11673
sS'CCAGGT'
p1993
I8840
sS'TTGGAA'
p1994
I9208
sS'TTGGAG'
p1995
I7702
sS'AGCAGA'
p1996
I10364
sS'GGGGTG'
p1997
I9301
sS'CCAGGG'
p1998
I13899
sS'AGCAGT'
p1999
I7414
sS'CCAGGA'
p2000
I13838
sS'CCAGGC'
p2001
I15801
sS'TGTTGA'
p2002
I6386
sS'ATAGAG'
p2003
I4443
sS'CATCTG'
p2004
I7926
sS'GATCGG'
p2005
I1109
sS'CATCTA'
p2006
I4134
sS'GATCGA'
p2007
I812
sS'CATCTC'
p2008
I6613
sS'GATCGC'
p2009
I1323
sS'GGATGG'
p2010
I6207
sS'GATCGT'
p2011
I762
sS'CATCTT'
p2012
I6528
sS'CAAGCA'
p2013
I6685
sS'CAAGCG'
p2014
I2243
sS'TATATG'
p2015
I3755
sS'GTTCTT'
p2016
I6712
sS'ACATGA'
p2017
I5819
sS'CGTAAT'
p2018
I1000
sS'ACATGC'
p2019
I4838
sS'TCTTGA'
p2020
I5324
sS'ACATGG'
p2021
I6014
sS'CCCGCT'
p2022
I5011
sS'GTAAAC'
p2023
I4830
sS'GGCCAT'
p2024
I4857
sS'CGTAAG'
p2025
I1173
sS'GTTCTG'
p2026
I7334
sS'ACATGT'
p2027
I5919
sS'GTTCTA'
p2028
I3905
sS'GTTCTC'
p2029
I6280
sS'CCCGCG'
p2030
I6990
sS'GGATAC'
p2031
I2261
sS'CCCGCC'
p2032
I16805
sS'AGGGAA'
p2033
I12453
sS'AAACTA'
p2034
I6651
sS'TGTTGT'
p2035
I6713
sS'GTTGTT'
p2036
I5795
sS'ATCCTT'
p2037
I5422
sS'TTGTCG'
p2038
I1026
sS'TTGTCC'
p2039
I5622
sS'TTGTCA'
p2040
I5937
sS'ATCCTC'
p2041
I5373
sS'CTATGA'
p2042
I4087
sS'ATCCTA'
p2043
I3630
sS'GTTGTC'
p2044
I3459
sS'ATCCTG'
p2045
I6989
sS'GTTGTG'
p2046
I5072
sS'TTGTCT'
p2047
I6860
sS'CTATGC'
p2048
I2752
sS'TGACTA'
p2049
I4124
sS'TGGGCC'
p2050
I8463
sS'TGACTC'
p2051
I7661
sS'TGGGCA'
p2052
I9432
sS'TGGGCG'
p2053
I5510
sS'TGACTG'
p2054
I7268
sS'AAGCCG'
p2055
I3166
sS'AAGCCC'
p2056
I7257
sS'AAGCCA'
p2057
I9464
sS'CAAAAT'
p2058
I10172
sS'TGACTT'
p2059
I7847
sS'TGGGCT'
p2060
I9342
sS'CAAAAC'
p2061
I8724
sS'CAAAAA'
p2062
I12296
sS'AAGCCT'
p2063
I7510
sS'CAAAAG'
p2064
I9505
sS'TCTGAC'
p2065
I6525
sS'TCAATG'
p2066
I4708
sS'AAACTT'
p2067
I8913
sS'TCAATC'
p2068
I3454
sS'CGTCGT'
p2069
I799
sS'CAGTTC'
p2070
I7282
sS'GACCCG'
p2071
I3279
sS'GACCCA'
p2072
I5564
sS'GACCCC'
p2073
I5358
sS'CTCTGT'
p2074
I11874
sS'TCAATT'
p2075
I5209
sS'TGGCGT'
p2076
I2368
sS'CTCTGC'
p2077
I13247
sS'GACCCT'
p2078
I5346
sS'CTCTGA'
p2079
I10489
sS'CTCTGG'
p2080
I12919
sS'CAGTTT'
p2081
I10092
sS'GCGAAG'
p2082
I2596
sS'ACGTTC'
p2083
I1521
sS'TGCTGG'
p2084
I11753
sS'TGCTGA'
p2085
I8761
sS'GAGTCT'
p2086
I5521
sS'TGCTGC'
p2087
I10024
sS'TAGGGA'
p2088
I5131
sS'GCTGGT'
p2089
I7053
sS'GTGATT'
p2090
I5761
sS'ACGTTA'
p2091
I1190
sS'TGCTGT'
p2092
I9476
sS'AGCTGA'
p2093
I8904
sS'TAATGG'
p2094
I3980
sS'ATGCGG'
p2095
I1472
sS'GTGATG'
p2096
I5338
sS'GCTGGG'
p2097
I16664
sS'GTGATC'
p2098
I3793
sS'GCTGGC'
p2099
I10779
sS'GTGATA'
p2100
I3289
sS'GCTGGA'
p2101
I10536
sS'TGATAA'
p2102
I5297
sS'TGATAC'
p2103
I2795
sS'TGATAG'
p2104
I3467
sS'CTTGTT'
p2105
I7216
sS'GACGGT'
p2106
I1556
sS'GCTAGG'
p2107
I4395
sS'GCTAGA'
p2108
I3865
sS'ATGAAT'
p2109
I7064
sS'GCTAGC'
p2110
I2900
sS'ATAGGG'
p2111
I3224
sS'TGATAT'
p2112
I4021
sS'GCTAGT'
p2113
I2716
sS'ATGAAC'
p2114
I4734
sS'GACGGG'
p2115
I3211
sS'CTTGTG'
p2116
I6386
sS'GACGGA'
p2117
I2288
sS'CTTGTA'
p2118
I4118
sS'GACGGC'
p2119
I2743
sS'CTTGTC'
p2120
I5113
sS'CAAAGA'
p2121
I9253
sS'ATAGGC'
p2122
I2892
sS'CTACTT'
p2123
I5071
sS'CCATAG'
p2124
I3324
sS'GGTGAA'
p2125
I5989
sS'GGTGAC'
p2126
I6233
sS'GCGTCT'
p2127
I2546
sS'TGTAAA'
p2128
I8688
sS'GGTGAG'
p2129
I8107
sS'GGAATG'
p2130
I7453
sS'CGTCCT'
p2131
I2912
sS'GGAATC'
p2132
I4972
sS'GGAATA'
p2133
I4679
sS'GCGTCA'
p2134
I2266
sS'GTTATG'
p2135
I3187
sS'GCGTCC'
p2136
I3655
sS'GGTGAT'
p2137
I4502
sS'GCGTCG'
p2138
I1742
sS'CAAACT'
p2139
I7448
sS'CGTCCG'
p2140
I1980
sS'GGAATT'
p2141
I6854
sS'CGTCCC'
p2142
I4009
sS'CGTCCA'
p2143
I2041
sS'TTTCGA'
p2144
I1341
sS'CCGTAT'
p2145
I853
sS'GCCGTG'
p2146
I3364
sS'GAAGTA'
p2147
I4718
sS'GCCGTC'
p2148
I2617
sS'GCCGTA'
p2149
I1067
sS'CCGTAC'
p2150
I918
sS'CCGTAA'
p2151
I1116
sS'CCGTAG'
p2152
I1418
sS'CTAACA'
p2153
I4582
sS'GCCGTT'
p2154
I1810
sS'GAAGTT'
p2155
I6773
sS'GGCGCG'
p2156
I7509
sS'ATGCCC'
p2157
I4791
sS'TTAGTT'
p2158
I5240
sS'CTAACC'
p2159
I3376
sS'GGCGCC'
p2160
I7889
sS'ATGCCG'
p2161
I1507
sS'GGCGCA'
p2162
I4019
sS'TATTAC'
p2163
I3863
sS'ACTATG'
p2164
I3652
sS'CAACGG'
p2165
I1617
sS'TTTAAG'
p2166
I7456
sS'ACTATC'
p2167
I2450
sS'TTTAAA'
p2168
I18318
sS'ACTATA'
p2169
I2981
sS'TTTAAC'
p2170
I6428
sS'TATTAT'
p2171
I6536
sS'TTAGTG'
p2172
I4211
sS'GGCGCT'
p2173
I5134
sS'TTAGTC'
p2174
I3340
sS'ATGCCT'
p2175
I5732
sS'TTAGTA'
p2176
I3896
sS'TTTAAT'
p2177
I9712
sS'GCACTG'
p2178
I7923
sS'GGGCAT'
p2179
I4750
sS'TTTCCG'
p2180
I3198
sS'TTTCCA'
p2181
I13043
sS'TTTCCC'
p2182
I12857
sS'GTACGT'
p2183
I868
sS'TATCGA'
p2184
I585
sS'GTTTGT'
p2185
I7876
sS'TTTCCT'
p2186
I17189
sS'GGGCAG'
p2187
I14458
sS'GTCTGT'
p2188
I6325
sS'GGGCAA'
p2189
I6998
sS'GGGCAC'
p2190
I6656
sS'GTTTGC'
p2191
I6262
sS'ACGTAG'
p2192
I1242
sS'GTTTGG'
p2193
I6871
sS'GTACGA'
p2194
I575
sS'CCGCTC'
p2195
I5273
sS'GCATGT'
p2196
I4867
sS'CCGCTA'
p2197
I1535
sS'CCGCTG'
p2198
I5637
sS'TGAAAA'
p2199
I12827
sS'GCGCGG'
p2200
I8237
sS'GCGCGC'
p2201
I8803
sS'GCGCGA'
p2202
I2426
sS'GCATGG'
p2203
I4986
sS'GCATGC'
p2204
I4826
sS'TTAGGG'
p2205
I4520
sS'GCATGA'
p2206
I4763
sS'TTTCAG'
p2207
I11515
sS'GTCGAC'
p2208
I680
sS'GCGCGT'
p2209
I2606
sS'GTCGAG'
p2210
I1263
sS'AGACAT'
p2211
I5291
sS'GTAGTC'
p2212
I2565
sS'CCTACA'
p2213
I4131
sS'GAGCTC'
p2214
I7404
sS'ATTGAT'
p2215
I4555
sS'TGTCCT'
p2216
I8606
sS'AAACGA'
p2217
I2053
sS'AAACGC'
p2218
I2393
sS'GTAGTA'
p2219
I2481
sS'AAACGG'
p2220
I2366
sS'TGTCCC'
p2221
I7525
sS'TGCGCG'
p2222
I3564
sS'TGTCCA'
p2223
I6518
sS'TGTCCG'
p2224
I2001
sS'TGCGCC'
p2225
I4025
sS'ATTGAG'
p2226
I4790
sS'TGCGCA'
p2227
I3516
sS'GTAGTG'
p2228
I3026
sS'AAACGT'
p2229
I2437
sS'TGGGTT'
p2230
I6726
sS'ATTTCA'
p2231
I11039
sS'ATTTCC'
p2232
I10397
sS'ATCAGT'
p2233
I4972
sS'ATCGGG'
p2234
I1300
sS'CATAGT'
p2235
I3791
sS'AAATCA'
p2236
I9658
sS'ATCGGC'
p2237
I1181
sS'ATCGGA'
p2238
I1060
sS'TGGGTG'
p2239
I8803
sS'CGATCA'
p2240
I887
sS'TGGGTC'
p2241
I5739
sS'TGGGTA'
p2242
I4434
sS'CATAGG'
p2243
I3379
sS'ATCGGT'
p2244
I794
sS'ATCAGG'
p2245
I5520
sS'ATCAGA'
p2246
I6614
sS'ATCAGC'
p2247
I5184
sS'GGTCAA'
p2248
I4474
sS'ACGGGT'
p2249
I1359
sS'GTCTGA'
p2250
I5541
sS'GATTCT'
p2251
I5818
sS'CTTTTG'
p2252
I9372
sS'TACTAG'
p2253
I2684
sS'TACTAA'
p2254
I3955
sS'CTTTTA'
p2255
I8996
sS'GATTCC'
p2256
I5050
sS'ACGGGG'
p2257
I3100
sS'ACGGGA'
p2258
I2480
sS'ACGGGC'
p2259
I2537
sS'TACTAT'
p2260
I3522
sS'CTTTTT'
p2261
I14759
sS'CGTAGA'
p2262
I1100
sS'TCACGA'
p2263
I1416
sS'TCACGC'
p2264
I2504
sS'TCACGG'
p2265
I2320
sS'TCTCAT'
p2266
I6757
sS'TCACGT'
p2267
I2704
sS'AGTGGA'
p2268
I7218
sS'TTCCAC'
p2269
I7430
sS'TTCCAA'
p2270
I9038
sS'TTCCAG'
p2271
I12345
sS'GTTTCA'
p2272
I7739
sS'ACCCTT'
p2273
I5235
sS'TGAAGT'
p2274
I6784
sS'CCACAT'
p2275
I6414
sS'TTCCAT'
p2276
I7811
sS'TGAAGC'
p2277
I6341
sS'ACCCTC'
p2278
I6281
sS'TGAAGG'
p2279
I7399
sS'ACCCTG'
p2280
I8215
sS'CTGACT'
p2281
I7898
sS'TAGTGT'
p2282
I3728
sS'GGAAGA'
p2283
I11186
sS'CCCCTT'
p2284
I8242
sS'AGTTAT'
p2285
I4675
sS'CTGACG'
p2286
I2537
sS'CTGACC'
p2287
I7738
sS'TCCTCT'
p2288
I12175
sS'AGTTAA'
p2289
I6445
sS'CCCCTG'
p2290
I10113
sS'AGTTAC'
p2291
I4259
sS'CCCCTC'
p2292
I12454
sS'AGTTAG'
p2293
I4134
sS'CCCCTA'
p2294
I4108
sS'ACACAG'
p2295
I11193
sS'ACACAA'
p2296
I7742
sS'ACACAC'
p2297
I13867
sS'AATGTT'
p2298
I9351
sS'CTGCAG'
p2299
I14157
sS'CATGGG'
p2300
I5738
sS'CTGCAC'
p2301
I7581
sS'CATGGC'
p2302
I6255
sS'AATGTC'
p2303
I5669
sS'ACACAT'
p2304
I7184
sS'AATGTA'
p2305
I6079
sS'AATGTG'
p2306
I7836
sS'AGCTAA'
p2307
I5118
sS'CATGGT'
p2308
I5053
sS'GCACAA'
p2309
I5643
sS'GCACAG'
p2310
I8992
sS'ACATTT'
p2311
I11895
sS'ATGTTC'
p2312
I5091
sS'CGAGAT'
p2313
I1503
sS'ATTACT'
p2314
I5089
sS'ACATTG'
p2315
I5434
sS'ACGCTC'
p2316
I2202
sS'ACATTC'
p2317
I6167
sS'CGAGAG'
p2318
I3218
sS'GATACA'
p2319
I3442
sS'ATTACC'
p2320
I3428
sS'CGAGAC'
p2321
I2163
sS'CGAGAA'
p2322
I2335
sS'AAGTCT'
p2323
I6099
sS'GCTATT'
p2324
I4444
sS'GGACAT'
p2325
I4653
sS'CAGCGT'
p2326
I3005
sS'GCTATA'
p2327
I2301
sS'GCTATC'
p2328
I2195
sS'AAGTCG'
p2329
I1511
sS'AAGTCA'
p2330
I7813
sS'GCTATG'
p2331
I3410
sS'AAGTCC'
p2332
I6655
sS'GGACAG'
p2333
I8972
sS'GGACAC'
p2334
I5795
sS'GGACAA'
p2335
I5698
sS'GCACCT'
p2336
I5587
sS'AGGGTT'
p2337
I5986
sS'GAGGCG'
p2338
I7727
sS'TGTTGG'
p2339
I6331
sS'GAGGCA'
p2340
I9229
sS'AGCGCT'
p2341
I3306
sS'GAGGCC'
p2342
I10682
sS'TGTTGC'
p2343
I6232
sS'ACTCGA'
p2344
I1201
sS'TAAAAT'
p2345
I13140
sS'ACTCGC'
p2346
I1981
sS'AAGCTT'
p2347
I6424
sS'ACTCGG'
p2348
I2567
sS'AGCGCA'
p2349
I2681
sS'GAGGCT'
p2350
I9882
sS'AGCGCC'
p2351
I5210
sS'AGGGTG'
p2352
I7889
sS'AGGGTA'
p2353
I3976
sS'AGCGCG'
p2354
I3878
sS'AGGGTC'
p2355
I5378
sS'TAAAAG'
p2356
I9008
sS'ACTCGT'
p2357
I1103
sS'TAAAAC'
p2358
I7628
sS'TAAAAA'
p2359
I15962
sS'CTACTC'
p2360
I3907
sS'AGCTGC'
p2361
I10325
sS'CTACTA'
p2362
I2992
sS'TAGGGC'
p2363
I3978
sS'CTACTG'
p2364
I4986
sS'AGCTGG'
p2365
I12061
sS'TAGGGG'
p2366
I4228
sS'AGTGCG'
p2367
I2246
sS'AGTGCA'
p2368
I6211
sS'AGAGTT'
p2369
I7518
sS'AGTGCC'
p2370
I6516
sS'CCAAAA'
p2371
I9037
sS'TTCGTG'
p2372
I1642
sS'TAGGGT'
p2373
I3276
sS'AGCTGT'
p2374
I8629
sS'ACGTTT'
p2375
I2417
sS'AGTGCT'
p2376
I7448
sS'TCATAA'
p2377
I5013
sS'TCAAGA'
p2378
I5418
sS'AGAGTG'
p2379
I7367
sS'TAACCC'
p2380
I3533
sS'GTTAAA'
p2381
I6440
sS'CCTGGC'
p2382
I14872
sS'GTTAAC'
p2383
I3265
sS'CCTGGA'
p2384
I11854
sS'CCTGGG'
p2385
I16893
sS'GTTAAG'
p2386
I3912
sS'TTCGTC'
p2387
I1332
sS'CTAATC'
p2388
I3252
sS'GTCTGG'
p2389
I6901
sS'GTCTGC'
p2390
I5518
sS'GTTAAT'
p2391
I4926
sS'CCTGGT'
p2392
I8101
sS'GCGGNC'
p2393
I1
sS'GGAAGG'
p2394
I13643
sS'ATGCTT'
p2395
I5872
sS'GGAAGC'
p2396
I10325
sS'GCACCG'
p2397
I3295
sS'TGTCAG'
p2398
I7070
sS'TGTATT'
p2399
I7153
sS'CAATGA'
p2400
I6250
sS'GCGTTC'
p2401
I2079
sS'CAATGC'
p2402
I4218
sS'GCGTTG'
p2403
I1788
sS'CAATGG'
p2404
I5130
sS'CCACAG'
p2405
I11131
sS'GGAAGT'
p2406
I9305
sS'CCACAC'
p2407
I7489
sS'CCACAA'
p2408
I6573
sS'ATTTGT'
p2409
I9098
sS'TCCTCG'
p2410
I3245
sS'TGTATG'
p2411
I4429
sS'TCCTCA'
p2412
I8918
sS'GCGTTT'
p2413
I2284
sS'TCCTCC'
p2414
I14319
sS'TGTATC'
p2415
I3398
sS'CGTTAG'
p2416
I1154
sS'TAACCG'
p2417
I1012
sS'TCATAG'
p2418
I4136
sS'TCAGGG'
p2419
I8864
sS'CGTTAC'
p2420
I1010
sS'TTCGTA'
p2421
I1017
sS'TCATAC'
p2422
I2902
sS'TAACCA'
p2423
I4806
sS'ACCGCT'
p2424
I2005
sS'TCGCGA'
p2425
I1272
sS'TGCATG'
p2426
I5673
sS'TTCGTT'
p2427
I1816
sS'TCATAT'
p2428
I4345
sS'TAACCT'
p2429
I4810
sS'GTGAAG'
p2430
I6461
sS'GTGAAA'
p2431
I8661
sS'GTGAAC'
p2432
I4334
sS'CAATAG'
p2433
I3869
sS'TGCATA'
p2434
I4233
sS'ACCGCG'
p2435
I2551
sS'ACCGCA'
p2436
I2045
sS'CCCTAT'
p2437
I3154
sS'ACCGCC'
p2438
I4083
sS'AGTTCC'
p2439
I6562
sS'CCGCCT'
p2440
I8122
sS'AGGCTT'
p2441
I7437
sS'CCTTCT'
p2442
I10449
sS'GTTGCA'
p2443
I5201
sS'AACGAA'
p2444
I1729
sS'GTTGCC'
p2445
I5047
sS'GTGCCG'
p2446
I2590
sS'GTGCCA'
p2447
I6713
sS'GTTGCG'
p2448
I1473
sS'GTGCCC'
p2449
I6745
sS'CCGCCG'
p2450
I9282
sS'AGGCTA'
p2451
I4165
sS'CCTTCC'
p2452
I13819
sS'AGGCTC'
p2453
I7877
sS'CCGCCC'
p2454
I16664
sS'AACGAC'
p2455
I1143
sS'CCGCCA'
p2456
I5496
sS'AGGCTG'
p2457
I14182
sS'GTGCCT'
p2458
I7068
sS'GTTGCT'
p2459
I5723
sS'GGATAT'
p2460
I3196
sS'ATAGGT'
p2461
I3060
sS'TCGGGT'
p2462
I1926
sS'AAACCT'
p2463
I7299
sS'GCAGTT'
p2464
I6656
sS'GAAGCT'
p2465
I7382
sS'GGATAA'
p2466
I3721
sS'ATGCCA'
p2467
I6304
sS'TCGGGA'
p2468
I2633
sS'NNNNNG'
p2469
I2
sS'TCGGGG'
p2470
I3732
sS'GGATAG'
p2471
I2899
sS'GAAGCG'
p2472
I3643
sS'GCAGTG'
p2473
I9776
sS'GAAGCC'
p2474
I8475
sS'GCAGTA'
p2475
I4237
sS'GAAGCA'
p2476
I8144
sS'GCAGTC'
p2477
I5442
sS'GAGAGC'
p2478
I7807
sS'GAGAGA'
p2479
I12724
sS'GTTCAT'
p2480
I4734
sS'CGCCCC'
p2481
I13283
sS'CGCCCA'
p2482
I5730
sS'GGCGGC'
p2483
I12215
sS'ACGCAG'
p2484
I3100
sS'NNNNNN'
p2485
I253
sS'ACGCAC'
p2486
I2006
sS'GCATTA'
p2487
I3588
sS'CTCGCA'
p2488
I2145
sS'CGCCCT'
p2489
I6136
sS'CTCGCG'
p2490
I3331
sS'ACGCAT'
p2491
I1245
sS'AGTTTC'
p2492
I8519
sS'GCCGGG'
p2493
I9913
sS'AGCATC'
p2494
I4412
sS'TACCCG'
p2495
I1405
sS'GCCGGC'
p2496
I7434
sS'CATGTT'
p2497
I6619
sS'GCCGGA'
p2498
I4388
sS'AGAAAC'
p2499
I10022
sS'AGTTTA'
p2500
I6458
sS'TACCCA'
p2501
I4500
sS'CATGTA'
p2502
I4437
sS'CATGTC'
p2503
I4363
sS'GCCGGT'
p2504
I2676
sS'CATGTG'
p2505
I7152
sS'AGTTCG'
p2506
I1390
sS'TACCCC'
p2507
I2989
sS'GTACTC'
p2508
I2403
sS'TCACTT'
p2509
I8493
sS'GGCCTC'
p2510
I10911
sS'GGCCTA'
p2511
I3667
sS'AATCGG'
p2512
I1357
sS'AATCGC'
p2513
I1326
sS'AATCGA'
p2514
I1136
sS'GTTCAG'
p2515
I6280
sS'GGCCTT'
p2516
I7542
sS'TCACTA'
p2517
I4330
sS'TCACTC'
p2518
I6728
sS'AATCGT'
p2519
I1083
sS'AGCCGA'
p2520
I2846
sS'GAGCGT'
p2521
I2036
sS'AGCCGC'
p2522
I5662
sS'TAATTG'
p2523
I4569
sS'AAAAAT'
p2524
I17476
sS'AGCCGG'
p2525
I5528
sS'GTTTTT'
p2526
I11400
sS'TGGTGA'
p2527
I7279
sS'GATGGA'
p2528
I5325
sS'TGGTGC'
p2529
I5764
sS'CCAAGT'
p2530
I6739
sS'GGGCTG'
p2531
I13856
sS'TGGTGG'
p2532
I8376
sS'GATGGG'
p2533
I5954
sS'TAATTT'
p2534
I9940
sS'GAGCGG'
p2535
I5380
sS'GTTTTG'
p2536
I8819
sS'AGCCGT'
p2537
I2088
sS'GAGCGC'
p2538
I4948
sS'TGACAG'
p2539
I7803
sS'CCAAGG'
p2540
I8891
sS'ACGTAT'
p2541
I1003
sS'TCTCAG'
p2542
I10030
sS'TCTCAA'
p2543
I7100
sS'TGGTGT'
p2544
I5944
sS'GGGCTT'
p2545
I7237
sS'ATTCGT'
p2546
I1151
sS'AGAACT'
p2547
I7412
sS'CCTTCG'
p2548
I2503
sS'TACCAT'
p2549
I3511
sS'CCTATT'
p2550
I4713
sS'ACCCGG'
p2551
I3959
sS'ACCCGA'
p2552
I1809
sS'ATGTCT'
p2553
I5378
sS'ACCCGC'
p2554
I3700
sS'ACCAGT'
p2555
I4623
sS'TACCAC'
p2556
I3425
sS'AGAACG'
p2557
I2235
sS'TACCAA'
p2558
I3945
sS'AGAACA'
p2559
I8950
sS'TACCAG'
p2560
I4358
sS'AGAACC'
p2561
I5556
sS'ACCAGC'
p2562
I7304
sS'CACTGG'
p2563
I8855
sS'ACCAGA'
p2564
I6605
sS'ATCACG'
p2565
I1615
sS'ACCAGG'
p2566
I8070
sS'CACTGC'
p2567
I9713
sS'CCTATC'
p2568
I2956
sS'GTAACA'
p2569
I4453
sS'GAGTCA'
p2570
I7527
sS'TAGGTT'
p2571
I3848
sS'AATTAT'
p2572
I7401
sS'CTGTTG'
p2573
I7681
sS'TACAAT'
p2574
I4319
sS'TGGATC'
p2575
I3921
sS'CGGGTT'
p2576
I2447
sS'CTGTTA'
p2577
I5625
sS'AATTAC'
p2578
I5108
sS'TACATG'
p2579
I4315
sS'TAGGTG'
p2580
I4313
sS'AATTAG'
p2581
I5244
sS'TAGGTC'
p2582
I3075
sS'CGGGTC'
p2583
I3387
sS'CTGTTT'
p2584
I12268
sS'CGGGTA'
p2585
I1342
sS'CGGGTG'
p2586
I3797
sS'ATTGTT'
p2587
I6418
sS'AAGTAA'
p2588
I7189
sS'CATTAC'
p2589
I3744
sS'AGCAAA'
p2590
I11152
sS'ATATAT'
p2591
I7414
sS'AGCAAC'
p2592
I5848
sS'TTAGGC'
p2593
I3561
sS'AAAGCT'
p2594
I8714
sS'TTAGGA'
p2595
I5668
sS'ATGCTA'
p2596
I3668
sS'AAAGCA'
p2597
I11695
sS'ATATAG'
p2598
I3115
sS'TTAGGT'
p2599
I4053
sS'ATATAA'
p2600
I5992
sS'AGCAAT'
p2601
I6107
sS'ATATAC'
p2602
I3276
sS'TACTTC'
p2603
I4815
sS'ATAGCC'
p2604
I2920
sS'TACTTG'
p2605
I4245
sS'ATAGCG'
p2606
I861
sS'TCTCAC'
p2607
I6677
sS'CAGCAT'
p2608
I7090
sS'TGCTAA'
p2609
I5329
sS'ATAGCT'
p2610
I4140
sS'TACTTT'
p2611
I7994
sS'CGAGTT'
p2612
I1683
sS'TCCAAT'
p2613
I4758
sS'CGCATC'
p2614
I1306
sS'CGTACT'
p2615
I910
sS'CAGCGG'
p2616
I5716
sS'ACATAC'
p2617
I3869
sS'CTTAAG'
p2618
I4127
sS'ACATAA'
p2619
I5768
sS'CTTAAA'
p2620
I7486
sS'AGGGGT'
p2621
I5909
sS'CTTAAC'
p2622
I3878
sS'TCCAAG'
p2623
I7261
sS'CGAGTG'
p2624
I2145
sS'TCCAAC'
p2625
I4710
sS'CGAGTC'
p2626
I2105
sS'AGGGGA'
p2627
I10272
sS'CTTAAT'
p2628
I4836
sS'AGGGGC'
p2629
I10294
sS'TATGCA'
p2630
I4308
sS'AGGGGG'
p2631
I8562
sS'TCATTA'
p2632
I6046
sS'CGACTT'
p2633
I1443
sS'TCGGGC'
p2634
I3171
sS'TTGTAA'
p2635
I6777
sS'TTGTAC'
p2636
I3660
sS'GTACCT'
p2637
I3228
sS'TTGTAG'
p2638
I4596
sS'TGAATC'
p2639
I4990
sS'GATTGG'
p2640
I5071
sS'TGAATA'
p2641
I5952
sS'CGACTC'
p2642
I2030
sS'TGAATG'
p2643
I7560
sS'AAGTAT'
p2644
I4937
sS'CGACTG'
p2645
I1974
sS'TTGTAT'
p2646
I5316
sS'ATCGTG'
p2647
I1228
sS'GCTTCG'
p2648
I2321
sS'GCTTCA'
p2649
I6390
sS'GCTTCC'
p2650
I10420
sS'TGGGAG'
p2651
I12655
sS'GAGGGT'
p2652
I6133
sS'TGGGAA'
p2653
I11949
sS'TGGGAC'
p2654
I6317
sS'GCTTCT'
p2655
I8611
sS'ATCGTT'
p2656
I1037
sS'GATTGA'
p2657
I3479
sS'TGGGAT'
p2658
I6607
sS'GGGCTA'
p2659
I3583
sS'CTAGCC'
p2660
I3921
sS'CTAGCA'
p2661
I4135
sS'CTAGCG'
p2662
I1607
sS'CGCATT'
p2663
I1342
sS'ACTTAG'
p2664
I4287
sS'ACTTAA'
p2665
I5604
sS'CGGTAC'
p2666
I902
sS'TACACT'
p2667
I4046
sS'CGGTAA'
p2668
I1168
sS'GACCAG'
p2669
I6233
sS'GACCAC'
p2670
I3905
sS'CTAGCT'
p2671
I4390
sS'TACACC'
p2672
I2702
sS'CGGTAT'
p2673
I775
sS'TACACA'
p2674
I6654
sS'TACACG'
p2675
I1185
sS'GCGAGA'
p2676
I3031
sS'CGCCCG'
p2677
I6986
sS'GCGAGC'
p2678
I3866
sS'GGCCGT'
p2679
I2868
sS'GCGAGG'
p2680
I5252
sS'CAGCCG'
p2681
I5866
sS'CAGCCA'
p2682
I12885
sS'GGTATT'
p2683
I3795
sS'CAGCCC'
p2684
I13892
sS'GCTGAA'
p2685
I7572
sS'GCGAGT'
p2686
I1889
sS'CAGCCT'
p2687
I13984
sS'GAACTC'
p2688
I5524
sS'GAACTA'
p2689
I3915
sS'GGACTT'
p2690
I6659
sS'CACCTA'
p2691
I4258
sS'AACTAT'
p2692
I4406
sS'CACCTC'
p2693
I8650
sS'CACCTG'
p2694
I9120
sS'TGATCC'
p2695
I4070
sS'AACACT'
p2696
I7060
sS'TGATCA'
p2697
I4469
sS'ATTTAA'
p2698
I10281
sS'TAGATA'
p2699
I3959
sS'AACTAG'
p2700
I4254
sS'GGACTG'
p2701
I7085
sS'CACCTT'
p2702
I6528
sS'GGACTA'
p2703
I3157
sS'AACTAA'
p2704
I5439
sS'AACGAT'
p2705
I1099
sS'AACACG'
p2706
I2122
sS'AACACA'
p2707
I9550
sS'AACACC'
p2708
I4999
sS'TGATCT'
p2709
I5649
sS'AAAGAC'
p2710
I6805
sS'GCATTC'
p2711
I4786
sS'CAACAG'
p2712
I7663
sS'GACAGT'
p2713
I5425
sS'CAACAA'
p2714
I6743
sS'AAAGAA'
p2715
I16479
sS'CAACAC'
p2716
I5593
sS'GCTGAT'
p2717
I5122
sS'ACGCAA'
p2718
I1564
sS'GACAGG'
p2719
I8050
sS'CAACAT'
p2720
I5802
sS'GACAGC'
p2721
I6767
sS'GACAGA'
p2722
I8575
sS'GTATTA'
p2723
I3614
sS'GTATTC'
p2724
I3076
sS'GTAAGT'
p2725
I3954
sS'ATATCA'
p2726
I3983
sS'AGAGGT'
p2727
I7648
sS'GGTGGC'
p2728
I9041
sS'TCCCCT'
p2729
I10254
sS'GGTGGA'
p2730
I7662
sS'TATCTT'
p2731
I5592
sS'GGTGGG'
p2732
I11341
sS'AGAGGC'
p2733
I10511
sS'GTAAGA'
p2734
I4270
sS'AGAGGA'
p2735
I11883
sS'CTCGCC'
p2736
I4712
sS'AGAGGG'
p2737
I11656
sS'GTAAGG'
p2738
I3545
sS'CGTCAA'
p2739
I1076
sS'TATCTC'
p2740
I4492
sS'TCCCCC'
p2741
I8651
sS'GGTGGT'
p2742
I5657
sS'TCCCCA'
p2743
I11289
sS'GTCGCG'
p2744
I1779
sS'GTCGCA'
p2745
I1310
sS'GTCGCC'
p2746
I2967
sS'TCGGTC'
p2747
I1487
sS'TCGGTA'
p2748
I853
sS'GAGAGT'
p2749
I5850
sS'TCGGTG'
p2750
I2050
sS'GTCGCT'
p2751
I1968
sS'GTAACT'
p2752
I4549
sS'CCGTCG'
p2753
I1507
sS'CCGTCA'
p2754
I1940
sS'TCGGTT'
p2755
I1509
sS'GGCTGT'
p2756
I8766
sS'CGCGTG'
p2757
I2494
sS'GCATTT'
p2758
I8454
sS'CGCGTC'
p2759
I2464
sS'CGCGTA'
p2760
I662
sS'GTTTTA'
p2761
I7728
sS'CCACTG'
p2762
I9609
sS'CCACTA'
p2763
I4131
sS'CCACTC'
p2764
I7124
sS'CGCGTT'
p2765
I1374
sS'GGCTGG'
p2766
I15819
sS'GGCTGA'
p2767
I9434
sS'GGCTGC'
p2768
I12720
sS'CCACTT'
p2769
I7237
sS'TTTAGA'
p2770
I7189
sS'ATGACG'
p2771
I1666
sS'GGAGTT'
p2772
I6633
sS'ATGACA'
p2773
I6265
sS'ATGACC'
p2774
I4336
sS'CCTGAT'
p2775
I5383
sS'GGGCCT'
p2776
I9407
sS'ATGACT'
p2777
I6151
sS'GGAGTA'
p2778
I3567
sS'TATCCG'
p2779
I776
sS'GGAGTC'
p2780
I5874
sS'GGAGTG'
p2781
I7743
sS'GGGCCG'
p2782
I8245
sS'GGGCCC'
p2783
I9669
sS'GGGCCA'
p2784
I8933
sS'CTGATC'
p2785
I4291
sS'ACGAGT'
p2786
I1207
sS'TTCNNN'
p2787
I1
sS'AGGCCA'
p2788
I10112
sS'AGGCCC'
p2789
I9302
sS'GCGCAG'
p2790
I6329
sS'ACGAGG'
p2791
I2366
sS'ACGAGC'
p2792
I1552
sS'ACGAGA'
p2793
I1598
sS'GGCAAC'
p2794
I4968
sS'GCGCAT'
p2795
I2003
sS'GATTTA'
p2796
I5094
sS'ACATCT'
p2797
I5659
sS'GGGTTG'
p2798
I5434
sS'TTTGGG'
p2799
I9145
sS'GGGTTA'
p2800
I3594
sS'GGGTTC'
p2801
I4885
sS'TTTGAT'
p2802
I6744
sS'ACTTAT'
p2803
I3870
sS'CTACGA'
p2804
I934
sS'AACGGT'
p2805
I1313
sS'GGGTTT'
p2806
I6687
sS'TGCGAC'
p2807
I1321
sS'AGATCC'
p2808
I4130
sS'TGCGAG'
p2809
I2194
sS'AACGGC'
p2810
I1819
sS'TTTGAG'
p2811
I8433
sS'AACGGA'
p2812
I1918
sS'GACTAG'
p2813
I3008
sS'AACGGG'
p2814
I2030
sS'TTTGAC'
p2815
I5424
sS'TTTGAA'
p2816
I11050
sS'CGGGCT'
p2817
I5058
sS'TGACGT'
p2818
I2631
sS'CTCGTC'
p2819
I1987
sS'CCCTGG'
p2820
I13848
sS'CCCTGA'
p2821
I8819
sS'CTCGTG'
p2822
I2159
sS'GATATT'
p2823
I4592
sS'CCCTGT'
p2824
I8339
sS'AAGCTC'
p2825
I6190
sS'GATATA'
p2826
I2667
sS'TGACGG'
p2827
I1989
sS'GATATG'
p2828
I2886
sS'AAGCTG'
p2829
I9219
sS'TGACGC'
p2830
I2235
sS'TACTCT'
p2831
I4732
sS'CATCGT'
p2832
I1304
sS'CAGGGT'
p2833
I8414
sS'CTACGG'
p2834
I1417
sS'CCAGTC'
p2835
I6777
sS'TACGAT'
p2836
I675
sS'CCAGTG'
p2837
I8923
sS'TACTCG'
p2838
I943
sS'CATCGA'
p2839
I1030
sS'CATCGC'
p2840
I1653
sS'TACTCC'
p2841
I3529
sS'NGAATT'
p2842
I1
sS'TACTCA'
p2843
I4764
sS'CATCGG'
p2844
I1256
sS'CAGGGG'
p2845
I10145
sS'CAGGGA'
p2846
I12788
sS'CAGGGC'
p2847
I13107
sS'AATCTG'
p2848
I7027
sS'CGGACT'
p2849
I2134
sS'AATCTC'
p2850
I5683
sS'AGTCGA'
p2851
I978
sS'AATCTA'
p2852
I4412
sS'ATCCAA'
p2853
I5072
sS'TCACAC'
p2854
I6265
sS'TCACAA'
p2855
I7014
sS'TCACAG'
p2856
I9802
sS'GCCATA'
p2857
I2801
sS'CGGACG'
p2858
I1933
sS'GCCATC'
p2859
I4977
sS'CGGACA'
p2860
I1970
sS'CGGACC'
p2861
I2475
sS'GCCATG'
p2862
I6197
sS'TTTTAA'
p2863
I17151
sS'CGCNNN'
p2864
I1
sS'TCACAT'
p2865
I6939
sS'ACATCA'
p2866
I5564
sS'ATTAAC'
p2867
I4931
sS'ATTAAA'
p2868
I10052
sS'ATTAAG'
p2869
I4764
sS'CTTACA'
p2870
I4656
sS'GGCCTG'
p2871
I12205
sS'ACATCC'
p2872
I4622
sS'CTATTA'
p2873
I4088
sS'ATTAAT'
p2874
I6390
sS'ATCATG'
p2875
I4574
sS'TACCTG'
p2876
I5019
sS'GGTATG'
p2877
I2558
sS'CTGAAT'
p2878
I7336
sS'GGTATC'
p2879
I2047
sS'TACCTA'
p2880
I3302
sS'CTGAAA'
p2881
I11365
sS'CTGAAC'
p2882
I6423
sS'CTGAAG'
p2883
I8997
sS'ATTGTA'
p2884
I4397
sS'CCCGAA'
p2885
I2313
sS'TAGGTA'
p2886
I3305
sS'CATTGC'
p2887
I5310
sS'TATGAG'
p2888
I3876
sS'CATTGA'
p2889
I4833
sS'CTAGTT'
p2890
I4197
sS'CATTGG'
p2891
I5046
sS'TCAACT'
p2892
I4974
sS'ATGTTA'
p2893
I5213
sS'ACACCG'
p2894
I2005
sS'CTGCCA'
p2895
I11988
sS'CTGCCC'
p2896
I14443
sS'ACACCC'
p2897
I5645
sS'ACACCA'
p2898
I5978
sS'CTGCCG'
p2899
I5445
sS'CTAGTG'
p2900
I4298
sS'TCAACC'
p2901
I3885
sS'TCAACA'
p2902
I6593
sS'CTAGTC'
p2903
I2936
sS'TCAACG'
p2904
I1139
sS'CTAGTA'
p2905
I2670
sS'CATTGT'
p2906
I5765
sS'TATGAC'
p2907
I3192
sS'ACACCT'
p2908
I5357
sS'CTGCCT'
p2909
I13900
sS'CCTCGT'
p2910
I2501
sS'TATGAA'
p2911
I5553
sS'AGACTG'
p2912
I7180
sS'AGACTC'
p2913
I5628
sS'AGACTA'
p2914
I3702
sS'CCTCGG'
p2915
I5597
sS'CCTCGC'
p2916
I5113
sS'CCCGAC'
p2917
I2865
sS'CCTCGA'
p2918
I1984
sS'CGAGGA'
p2919
I3261
sS'CGAGGC'
p2920
I4989
sS'CGAGGG'
p2921
I4430
sS'ACTTTC'
p2922
I7917
sS'ACTTTA'
p2923
I6557
sS'ACTTTG'
p2924
I9500
sS'GAATAC'
p2925
I3058
sS'GACCTG'
p2926
I6667
sS'GGACGT'
p2927
I1918
sS'GACCTC'
p2928
I6157
sS'CACCGG'
p2929
I3072
sS'GCATAG'
p2930
I2833
sS'CACCGA'
p2931
I2124
sS'ACTTTT'
p2932
I10327
sS'GACCTT'
p2933
I5992
sS'GGACGC'
p2934
I3726
sS'GGACGG'
p2935
I3528
sS'ACGCTA'
p2936
I978
sS'CACAGC'
p2937
I10839
sS'CTTATC'
p2938
I3774
sS'CACAGA'
p2939
I11295
sS'CTTATA'
p2940
I3085
sS'CACAGG'
p2941
I10513
sS'TTAACT'
p2942
I6331
sS'ACTCAT'
p2943
I5543
sS'GAGGAG'
p2944
I14028
sS'GACGTA'
p2945
I943
sS'CGTATC'
p2946
I759
sS'GACGTC'
p2947
I2233
sS'GAGGAC'
p2948
I6673
sS'GAGGAA'
p2949
I12501
sS'GACGTG'
p2950
I2409
sS'TTAACA'
p2951
I6611
sS'ACTCAC'
p2952
I6259
sS'TTAACC'
p2953
I4454
sS'ACTCAA'
p2954
I5382
sS'ACTCAG'
p2955
I8477
sS'TTAACG'
p2956
I1100
sS'CACAGT'
p2957
I8492
sS'AGCGAC'
p2958
I2006
sS'TAAACA'
p2959
I9605
sS'AGCGAA'
p2960
I2000
sS'TAAACC'
p2961
I4303
sS'AGCGAG'
p2962
I3687
sS'TCTAAA'
p2963
I7184
sS'TAAACG'
p2964
I1453
sS'CTGTGG'
p2965
I10986
sS'GTATGT'
p2966
I3844
sS'AGTTCA'
p2967
I7608
sS'TACTTA'
p2968
I4569
sS'CTGTGC'
p2969
I9270
sS'TAGCCC'
p2970
I3499
sS'CTGTGA'
p2971
I9831
sS'CGGGGT'
p2972
I4014
sS'TCTAAG'
p2973
I4809
sS'GCAAAG'
p2974
I8917
sS'TAGGAA'
p2975
I7137
sS'GCAAAA'
p2976
I8614
sS'TAGGAG'
p2977
I5374
sS'GCAAAC'
p2978
I6316
sS'CGGGGC'
p2979
I11936
sS'CGGGGA'
p2980
I6389
sS'CTGTGT'
p2981
I10890
sS'CGGGGG'
p2982
I6694
sS'GTATGC'
p2983
I2060
sS'AGTTCT'
p2984
I7494
sS'GCAAAT'
p2985
I7029
sS'TAGGAT'
p2986
I3659
sS'TAATTA'
p2987
I6373
sS'TTCAAT'
p2988
I5697
sS'TGCTTT'
p2989
I11527
sS'TTATAT'
p2990
I5758
sS'GTAATT'
p2991
I5069
sS'GTTACC'
p2992
I3075
sS'GTTACA'
p2993
I4368
sS'TAATTC'
p2994
I5062
sS'GTTACG'
p2995
I957
sS'TATCGC'
p2996
I706
sS'TATAGT'
p2997
I2977
sS'GTCTAA'
p2998
I3006
sS'AGGACG'
p2999
I2941
sS'TTCAAG'
p3000
I6498
sS'TGCTTC'
p3001
I8198
sS'TTCAAA'
p3002
I11112
sS'TTCAAC'
p3003
I5255
sS'GGGCTC'
p3004
I8941
sS'TATAGC'
p3005
I2307
sS'TATCGT'
p3006
I619
sS'TATAGA'
p3007
I3413
sS'AGCTCA'
p3008
I8034
sS'TATAGG'
p3009
I2384
sS'GTTACT'
p3010
I4438
sS'GGAAAA'
p3011
I14166
sS'GGAAAC'
p3012
I9120
sS'GATGGC'
p3013
I5104
sS'GCTCTG'
p3014
I12239
sS'CCACGT'
p3015
I3574
sS'GGAAAG'
p3016
I12675
sS'AGGACC'
p3017
I5267
sS'GAATGG'
p3018
I6131
sS'GAATGA'
p3019
I7521
sS'ACTACT'
p3020
I3596
sS'GAATGC'
p3021
I4811
sS'CCACGA'
p3022
I2089
sS'AACCTG'
p3023
I6833
sS'CCACGC'
p3024
I4554
sS'GGCGTA'
p3025
I1038
sS'GTTCCG'
p3026
I2195
sS'GGCGTG'
p3027
I4721
sS'CCACGG'
p3028
I3642
sS'GCTCTT'
p3029
I7543
sS'GGCTTA'
p3030
I3894
sS'ACTACC'
p3031
I2721
sS'GGCTTC'
p3032
I8318
sS'ACTACA'
p3033
I4689
sS'ACTACG'
p3034
I1112
sS'GGCTTG'
p3035
I6530
sS'TCCTAG'
p3036
I5322
sS'GTTTTC'
p3037
I9357
sS'CGTTGC'
p3038
I1844
sS'TAACAC'
p3039
I3910
sS'TCCTAC'
p3040
I4159
sS'AGTCAC'
p3041
I7075
sS'TCCTAA'
p3042
I5600
sS'TAACAG'
p3043
I5738
sS'TCATCG'
p3044
I1409
sS'GAATTG'
p3045
I4923
sS'TGAGGG'
p3046
I8013
sS'TCATCC'
p3047
I5366
sS'AAAAAC'
p3048
I11416
sS'CTTTCT'
p3049
I13993
sS'GCGGGT'
p3050
I3670
sS'TCCTAT'
p3051
I4296
sS'TAACAT'
p3052
I5405
sS'CGTTGT'
p3053
I1332
sS'TAAATA'
p3054
I11123
sS'GAGCGA'
p3055
I2932
sS'TACCCT'
p3056
I3862
sS'TCATCT'
p3057
I7478
sS'CTTTCG'
p3058
I2176
sS'AAAAAG'
p3059
I14949
sS'GTTGAT'
p3060
I3309
sS'CGACCA'
p3061
I1414
sS'CGACCC'
p3062
I2516
sS'CGACCG'
p3063
I1335
sS'CCTTAT'
p3064
I3998
sS'GTTGAC'
p3065
I3215
sS'GTTGAA'
p3066
I5103
sS'ACTGGG'
p3067
I8604
sS'GTTGAG'
p3068
I4655
sS'CCTTAC'
p3069
I3551
sS'CCTTAA'
p3070
I4627
sS'CCTTAG'
p3071
I4419
sS'CGACCT'
p3072
I1928
sS'CAACTC'
p3073
I5560
sS'CAACTA'
p3074
I3521
sS'CAACTG'
p3075
I6012
sS'AATAGG'
p3076
I4625
sS'GATGGT'
p3077
I3828
sS'GGGGTT'
p3078
I5442
sS'ATTCNN'
p3079
I1
sS'GGATGT'
p3080
I4557
sS'AATAGT'
p3081
I4902
sS'GCAGCC'
p3082
I12641
sS'CAACTT'
p3083
I5822
sS'ACTGTA'
p3084
I4944
sS'TATGAT'
p3085
I3770
sS'GGATGC'
p3086
I4069
sS'GGATGA'
p3087
I5439
sS'GGGGTC'
p3088
I5374
sS'GGGGTA'
p3089
I3015
sS'TCTCCG'
p3090
I3738
sS'GAGTCC'
p3091
I6027
sS'AAACTG'
p3092
I10160
sS'TCTCCC'
p3093
I11396
sS'CCCTTT'
p3094
I10102
sS'TCTCCA'
p3095
I10189
sS'AAACTC'
p3096
I7283
sS'ACGCGA'
p3097
I1052
sS'AGTACG'
p3098
I878
sS'ACGCGC'
p3099
I2529
sS'GCTAAG'
p3100
I4161
sS'AGTACC'
p3101
I2683
sS'CTATGG'
p3102
I3286
sS'AGTACA'
p3103
I4789
sS'CCCTTA'
p3104
I4091
sS'CCCTTC'
p3105
I10257
sS'TCTCCT'
p3106
I11307
sS'CCCTTG'
p3107
I6930
sS'AGTACT'
p3108
I4063
sS'CTATGT'
p3109
I4185
sS'GCCGAA'
p3110
I1964
sS'GTGGAG'
p3111
I8912
sS'GCCGAC'
p3112
I2393
sS'GTGGAC'
p3113
I4524
sS'GCCGAG'
p3114
I5548
sS'GTGGAA'
p3115
I7539
sS'GTGGAT'
p3116
I4302
sS'GCCGAT'
p3117
I1135
sS'AGATAG'
p3118
I4217
sS'TATCTG'
p3119
I5371
sS'CACTGT'
p3120
I8388
sS'ACCGAG'
p3121
I2459
sS'AAATCG'
p3122
I1499
sS'CACGCG'
p3123
I2347
sS'TTATCG'
p3124
I757
sS'CACGCA'
p3125
I2815
sS'AAATCC'
p3126
I7150
sS'ACCGAA'
p3127
I1462
sS'AAAGTA'
p3128
I7701
sS'CTACGT'
p3129
I1312
sS'AGATAC'
p3130
I3525
sS'CACGCT'
p3131
I2793
sS'AAATCT'
p3132
I8357
sS'ACCGAT'
p3133
I805
sS'CTTGAA'
p3134
I6634
sS'GTAGTT'
p3135
I3879
sS'AGATAA'
p3136
I7082
sS'CGTTAT'
p3137
I930
sS'GATGAT'
p3138
I4423
sS'GGAGCA'
p3139
I8117
sS'GGAGCC'
p3140
I11137
sS'AAAGTG'
p3141
I9136
sS'CCAAAT'
p3142
I7799
sS'GGAGCG'
p3143
I5881
sS'AAAACT'
p3144
I10279
sS'GATGAC'
p3145
I4444
sS'GATGAA'
p3146
I6096
sS'GATGAG'
p3147
I5795
sS'AAAACC'
p3148
I7851
sS'AAAACA'
p3149
I16103
sS'AAAACG'
p3150
I2908
sS'GGAGCT'
p3151
I9292
sS'CCAAAG'
p3152
I10002
sS'TCGCGG'
p3153
I2605
sS'CTAGAG'
p3154
I5610
sS'TCGCGC'
p3155
I2518
sS'ACGTCG'
p3156
I833
sS'GCCACA'
p3157
I8321
sS'AGATCA'
p3158
I5591
sS'GCCACC'
p3159
I9330
sS'AGAAAT'
p3160
I11910
sS'CGACGG'
p3161
I1560
sS'GCCACG'
p3162
I4288
sS'AGATCG'
p3163
I1262
sS'ATGTCA'
p3164
I6189
sS'TCGCGT'
p3165
I1009
sS'GTGCAA'
p3166
I5171
sS'ACCCGT'
p3167
I1334
sS'AGAAAG'
p3168
I13978
sS'TCCCTT'
p3169
I10002
sS'AGATCT'
p3170
I5070
sS'GCCACT'
p3171
I7498
sS'AGAAAA'
p3172
I18914
sS'CTACCC'
p3173
I4100
sS'ATGTAC'
p3174
I3323
sS'GACCGA'
p3175
I1481
sS'ATGTAA'
p3176
I6219
sS'ATGTAG'
p3177
I3896
sS'GTTCGA'
p3178
I1012
sS'ACGTCA'
p3179
I2546
sS'ATTAGG'
p3180
I4088
sS'GACGAC'
p3181
I1267
sS'ATGTCG'
p3182
I954
sS'ATGTAT'
p3183
I4894
sS'ATTAGA'
p3184
I4841
sS'CACTGA'
p3185
I8434
sS'GTTCCC'
p3186
I6488
sS'ATCCAT'
p3187
I4106
sS'AGCACT'
p3188
I7657
sS'TTAGAA'
p3189
I7675
sS'CGGCTG'
p3190
I5949
sS'TTAGAC'
p3191
I2990
sS'CGGCTC'
p3192
I5727
sS'TTAGAG'
p3193
I5500
sS'CGGCTA'
p3194
I1463
sS'AGCACC'
p3195
I6194
sS'AGCACA'
p3196
I8380
sS'AGCACG'
p3197
I2499
sS'AGTAGG'
p3198
I4607
sS'GGTCGG'
p3199
I2728
sS'CGGCTT'
p3200
I3071
sS'TTAGAT'
p3201
I4265
sS'CCAGCA'
p3202
I11946
sS'ACCTAT'
p3203
I3035
sS'CCAGCC'
p3204
I15927
sS'ATATCC'
p3205
I3259
sS'CCAGCG'
p3206
I5361
sS'CGACGT'
p3207
I831
sS'TTATTT'
p3208
I16440
sS'TGTGAG'
p3209
I7904
sS'TGTGAA'
p3210
I8732
sS'ACGTCT'
p3211
I1729
sS'TGTGAC'
p3212
I7079
sS'ATATCT'
p3213
I4536
sS'CCAGCT'
p3214
I12248
sS'AAAGAT'
p3215
I8111
sS'TGTGAT'
p3216
I6478
sS'TTATTG'
p3217
I6190
sS'TTATTA'
p3218
I7572
sS'CATGAT'
p3219
I4592
sS'TTATTC'
p3220
I6186
sS'AGACGG'
p3221
I2714
sS'TTTTAT'
p3222
I12945
sS'TACAAG'
p3223
I4186
sS'TCCACT'
p3224
I6985
sS'TACAAA'
p3225
I8279
sS'AGACGA'
p3226
I1577
sS'TACAAC'
p3227
I3366
sS'CCTCTG'
p3228
I14000
sS'AGGTGG'
p3229
I9517
sS'CCTCTC'
p3230
I12398
sS'AGGTGC'
p3231
I5623
sS'CCTCTA'
p3232
I5290
sS'AGGTGA'
p3233
I8058
sS'CTTACG'
p3234
I1150
sS'TCCACA'
p3235
I7440
sS'TTTTAG'
p3236
I7990
sS'CGTCGA'
p3237
I565
sS'CTTACC'
p3238
I3802
sS'CCAAAC'
p3239
I6808
sS'TTTTAC'
p3240
I7401
sS'TCCACG'
p3241
I2794
sS'AGGTGT'
p3242
I5575
sS'CCTCTT'
p3243
I10403
sS'GCGTGA'
p3244
I2517
sS'CCCGGC'
p3245
I10014
sS'CCCGGA'
p3246
I5400
sS'CCCGGG'
p3247
I9283
sS'TTGTGT'
p3248
I7808
sS'TGGAAT'
p3249
I8349
sS'AATTAA'
p3250
I8500
sS'TTGTGC'
p3251
I5451
sS'TTGTGA'
p3252
I7042
sS'TTGTGG'
p3253
I6343
sS'CCCGGT'
p3254
I2886
sS'TGGAAG'
p3255
I9762
sS'TGGAAC'
p3256
I5801
sS'TGGAAA'
p3257
I12875
sS'TGAGGA'
p3258
I9044
sS'AAGAGG'
p3259
I10043
sS'TGAGGC'
p3260
I8498
sS'AAGAGA'
p3261
I11078
sS'AAGAGC'
p3262
I7678
sS'AAGCGT'
p3263
I1687
sS'GCTTAG'
p3264
I3976
sS'GCTTAC'
p3265
I2909
sS'GCTTAA'
p3266
I4080
sS'TGATTC'
p3267
I5878
sS'AAGCGC'
p3268
I2806
sS'AAGAGT'
p3269
I6503
sS'AAGCGA'
p3270
I2190
sS'TGAGGT'
p3271
I6732
sS'GCTTAT'
p3272
I3686
sS'GTTCGG'
p3273
I1515
sS'CTGCTA'
p3274
I5114
sS'GCGTGT'
p3275
I2532
sS'CTGCTC'
p3276
I10418
sS'ACTTCT'
p3277
I7773
sS'GACCGT'
p3278
I1340
sS'CTGCTG'
p3279
I14965
sS'CGGTCA'
p3280
I1791
sS'GGTCGT'
p3281
I1184
sS'CGGTCC'
p3282
I2800
sS'CTAGAA'
p3283
I6220
sS'CGGTCG'
p3284
I1382
sS'ACTTCG'
p3285
I1545
sS'GACCGC'
p3286
I2447
sS'ACTTCC'
p3287
I9098
sS'CTGCTT'
p3288
I10230
sS'GACCGG'
p3289
I2609
sS'TCGGAA'
p3290
I1861
sS'CTAGAT'
p3291
I3693
sS'AAGTGT'
p3292
I6281
sS'CGGTCT'
p3293
I2016
sS'GGTCGC'
p3294
I2392
sS'GGTCGA'
p3295
I1025
sS'CGTCGC'
p3296
I1969
sS'GCGTGG'
p3297
I4513
sS'CGTCGG'
p3298
I1532
sS'GCGTGC'
p3299
I3243
sS'TGCTCA'
p3300
I7767
sS'TTCATC'
p3301
I6163
sS'TGCTCC'
p3302
I8042
sS'TTCATA'
p3303
I5514
sS'TTCATG'
p3304
I6496
sS'TGCTCG'
p3305
I2046
sS'GTACAA'
p3306
I3560
sS'CAGCAG'
p3307
I14956
sS'GCTTTG'
p3308
I8293
sS'CAGCAC'
p3309
I9156
sS'CAGCAA'
p3310
I9300
sS'GTACAC'
p3311
I2915
sS'TGCTCT'
p3312
I9375
sS'CTGTTC'
p3313
I7329
sS'GTAGCC'
p3314
I3277
sS'GCTGCC'
p3315
I12313
sS'GCTGCA'
p3316
I9160
sS'AACTCT'
p3317
I7437
sS'TGGCCC'
p3318
I8819
sS'TGGCCA'
p3319
I10153
sS'GCTTTC'
p3320
I8194
sS'AACTCA'
p3321
I6908
sS'TGGCCT'
p3322
I10215
sS'AACTCC'
p3323
I6719
sS'TTCATT'
p3324
I10992
sS'GCTGCT'
p3325
I11495
sS'AACTCG'
p3326
I1607
sS'CTACAA'
p3327
I4721
sS'TGAAGA'
p3328
I7958
sS'AATATT'
p3329
I11110
sS'CAACCT'
p3330
I5704
sS'CAGTTA'
p3331
I5436
sS'TGGCCG'
p3332
I4596
sS'GGCACG'
p3333
I2923
sS'GGCACA'
p3334
I7262
sS'GACAAT'
p3335
I3656
sS'GGCACC'
p3336
I6160
sS'CAACCG'
p3337
I1742
sS'ACGACC'
p3338
I1179
sS'AATATG'
p3339
I5647
sS'CAACCC'
p3340
I5465
sS'AGCAAG'
p3341
I7979
sS'AATATC'
p3342
I4599
sS'CTTCGT'
p3343
I1733
sS'GACAAA'
p3344
I7251
sS'GGCACT'
p3345
I6422
sS'GACAAC'
p3346
I3428
sS'CAGAAC'
p3347
I7473
sS'GACAAG'
p3348
I5306
sS'GCTGCG'
p3349
I6208
sS'GCGGCG'
p3350
I10714
sS'GCAATA'
p3351
I4130
sS'GCAATG'
p3352
I5338
sS'TTGAAC'
p3353
I5187
sS'CGATGG'
p3354
I1517
sS'TCCCAT'
p3355
I6599
sS'CGATGC'
p3356
I1212
sS'GTAAAT'
p3357
I6586
sS'CGATGA'
p3358
I1412
sS'GAATTA'
p3359
I5167
sS'GAATTC'
p3360
I5525
sS'GCAATT'
p3361
I4853
sS'TCCCAA'
p3362
I8177
sS'CGATGT'
p3363
I1004
sS'TCCCAC'
p3364
I8145
sS'GTAAAG'
p3365
I4914
sS'TCCCAG'
p3366
I14713
sS'GGATTT'
p3367
I7025
sS'GTGCGT'
p3368
I2070
sS'ACGCCG'
p3369
I2357
sS'GGATTC'
p3370
I4596
sS'GGATTA'
p3371
I4463
sS'AGGTCC'
p3372
I5182
sS'AGCGGC'
p3373
I5442
sS'CTATCA'
p3374
I3298
sS'AAAGCC'
p3375
I8473
sS'TCTGTG'
p3376
I11413
sS'TCTGTC'
p3377
I8496
sS'TCTGTA'
p3378
I6753
sS'AACCGG'
p3379
I2026
sS'CTCCTT'
p3380
I9950
sS'GGCGGA'
p3381
I6546
sS'CAGATA'
p3382
I5408
sS'GGCGGG'
p3383
I16766
sS'AACCGA'
p3384
I1550
sS'CTATCC'
p3385
I2829
sS'TCTGTT'
p3386
I9982
sS'AAAGCG'
p3387
I2777
sS'CTCCTG'
p3388
I13465
sS'AACCGT'
p3389
I1344
sS'CTCCTA'
p3390
I5384
sS'CTCCTC'
p3391
I14131
sS'GGCGGT'
p3392
I4115
sS'GACGCA'
p3393
I2227
sS'CCCACG'
p3394
I4300
sS'AACAAC'
p3395
I5683
sS'CCCACC'
p3396
I11385
sS'ATAGCA'
p3397
I4452
sS'AGCCTT'
p3398
I7575
sS'CCGATT'
p3399
I1291
sS'CCCACT'
p3400
I8137
sS'AACAAT'
p3401
I6304
sS'GACGCT'
p3402
I2402
sS'GTGCGA'
p3403
I1341
sS'CCGATA'
p3404
I600
sS'AGCCTG'
p3405
I11957
sS'AGCCTA'
p3406
I4147
sS'AGCCTC'
p3407
I10056
sS'GTACCC'
p3408
I2348
sS'CTCCCG'
p3409
I7502
sS'ACGAAT'
p3410
I1114
sS'CGCCTT'
p3411
I3437
sS'GCGCCT'
p3412
I5393
sS'TCNNNN'
p3413
I1
sS'CAGAGT'
p3414
I9185
sS'CAGTCA'
p3415
I7365
sS'ACCTCG'
p3416
I2530
sS'AGGCAC'
p3417
I6887
sS'CGCCTC'
p3418
I7699
sS'GCGCCA'
p3419
I4334
sS'CGCCTA'
p3420
I1603
sS'AGGCAG'
p3421
I14094
sS'CGCCTG'
p3422
I6213
sS'GAGTTA'
p3423
I4085
sS'CAGAGG'
p3424
I13934
sS'GCATCC'
p3425
I4023
sS'GTGCGG'
p3426
I3261
sS'CAGAGC'
p3427
I12231
sS'GCATCG'
p3428
I1245
sS'CAGAGA'
p3429
I13251
sS'AATCAT'
p3430
I6462
sS'TAGCTA'
p3431
I3255
sS'CCGATC'
p3432
I1058
sS'CCTAGA'
p3433
I5121
sS'CCTAGC'
p3434
I4389
sS'TTTGCT'
p3435
I10920
sS'CGGGAG'
p3436
I7320
sS'TGCGGT'
p3437
I2091
sS'CCTAGG'
p3438
I5379
sS'TAAGCA'
p3439
I5679
sS'ACGTTG'
p3440
I1575
sS'GTCTAG'
p3441
I2994
sS'TTTGCA'
p3442
I9606
sS'TTTGCC'
p3443
I8145
sS'CCTAGT'
p3444
I4089
sS'TGCGGG'
p3445
I4223
sS'TTTGCG'
p3446
I1798
sS'TGAGTT'
p3447
I6735
sS'TAGCTG'
p3448
I5539
sS'ATCGCT'
p3449
I1451
sS'TAATCT'
p3450
I4961
sS'ATCGCC'
p3451
I1512
sS'CAATTA'
p3452
I4518
sS'ATCGCA'
p3453
I1038
sS'TGAGTA'
p3454
I4823
sS'ATCGCG'
p3455
I1009
sS'TGAGTC'
p3456
I6999
sS'AAGGTG'
p3457
I6536
sS'AAGGTC'
p3458
I6057
sS'CATCAT'
p3459
I5269
sS'AAGGTA'
p3460
I4750
sS'ATTTCG'
p3461
I1457
sS'AAGCGG'
p3462
I3147
sS'ACGGCA'
p3463
I1866
sS'CATCAC'
p3464
I5196
sS'ACGGCC'
p3465
I2845
sS'CATCAA'
p3466
I4443
sS'CATCAG'
p3467
I6216
sS'ACGGCG'
p3468
I2188
sS'TCACCT'
p3469
I7909
sS'CGGAAT'
p3470
I1501
sS'CAATTC'
p3471
I5054
sS'ATCGAT'
p3472
I909
sS'TCACCG'
p3473
I2596
sS'TCACCA'
p3474
I7259
sS'TCACCC'
p3475
I6904
sS'CGGAAG'
p3476
I5005
sS'AATATA'
p3477
I6638
sS'AACTGG'
p3478
I7241
sS'AAAATA'
p3479
I16354
sS'CGGAAC'
p3480
I2382
sS'CGGAAA'
p3481
I3300
sS'TAGCTT'
p3482
I4544
sS'TGTGTC'
p3483
I6901
sS'TGTGTA'
p3484
I6721
sS'ATGGCC'
p3485
I5055
sS'ATGGCA'
p3486
I5981
sS'ATCCCT'
p3487
I5651
sS'ATGGCT'
p3488
I5817
sS'TGTGTT'
p3489
I9566
sS'AGATTA'
p3490
I5081
sS'AGATTC'
p3491
I5241
sS'GAAACA'
p3492
I9934
sS'GAAACC'
p3493
I6933
sS'ATGCAT'
p3494
I4564
sS'CTGAGT'
p3495
I8342
sS'GAAACT'
p3496
I8749
sS'AAGATC'
p3497
I4289
sS'AGAATA'
p3498
I6467
sS'AGAATC'
p3499
I5833
sS'CTGAGC'
p3500
I9922
sS'CTGAGA'
p3501
I9795
sS'CTGAGG'
p3502
I11510
sS'CATACC'
p3503
I2556
sS'CATACA'
p3504
I4318
sS'CATACG'
p3505
I788
sS'GCAATC'
p3506
I3732
sS'TCAAAT'
p3507
I7754
sS'GTCCAT'
p3508
I3708
sS'ACATAG'
p3509
I4171
sS'CATACT'
p3510
I3466
sS'AATGGC'
p3511
I5466
sS'GTCCAG'
p3512
I7194
sS'TCAAAG'
p3513
I8518
sS'GTCCAC'
p3514
I4269
sS'TCAAAC'
p3515
I5683
sS'CGGCGG'
p3516
I9485
sS'TTGATG'
p3517
I4400
sS'CTCATT'
p3518
I8363
sS'CGGCGC'
p3519
I6953
sS'TTGATC'
p3520
I3663
sS'CGGCGA'
p3521
I2655
sS'CGTACA'
p3522
I894
sS'CTATCT'
p3523
I4102
sS'AAGTGA'
p3524
I8663
sS'TTGATT'
p3525
I6729
sS'CGGCGT'
p3526
I2329
sS'GTACGC'
p3527
I761
sS'ATCGAC'
p3528
I592
sS'TATAAG'
p3529
I3206
sS'ATCCCC'
p3530
I4728
sS'CGGTTA'
p3531
I1007
sS'GGTTTA'
p3532
I4232
sS'CGGTTC'
p3533
I1969
sS'GGTTTC'
p3534
I7031
sS'TTTACA'
p3535
I8665
sS'CGGTTG'
p3536
I1753
sS'GGTTTG'
p3537
I6021
sS'CCATTG'
p3538
I5157
sS'TCCAAA'
p3539
I9537
sS'GCTGTG'
p3540
I10813
sS'ACCTAA'
p3541
I3978
sS'GCTGTC'
p3542
I6818
sS'CGGTTT'
p3543
I2172
sS'GCTGTA'
p3544
I4637
sS'TATGCG'
p3545
I689
sS'AGGTTG'
p3546
I5647
sS'AGGTTC'
p3547
I4977
sS'AGGTTA'
p3548
I4934
sS'ATGAAA'
p3549
I10583
sS'GAGGGA'
p3550
I11944
sS'TTTTTC'
p3551
I15541
sS'GAGGGC'
p3552
I10291
sS'TTTTTA'
p3553
I15869
sS'TTTTTG'
p3554
I12151
sS'GAGGGG'
p3555
I12370
sS'TTAAAT'
p3556
I10281
sS'AGGTTT'
p3557
I7456
sS'TAAGCG'
p3558
I1161
sS'ACATAT'
p3559
I5024
sS'TTAAAC'
p3560
I6359
sS'ATACGT'
p3561
I1016
sS'TTAAAA'
p3562
I17498
sS'ACTCCG'
p3563
I2652
sS'TTAAAG'
p3564
I8158
sS'ACTCCA'
p3565
I7552
sS'TTTTTT'
p3566
I38709
sS'ACTCCC'
p3567
I6741
sS'TAGGCT'
p3568
I4106
sS'GTCACG'
p3569
I2579
sS'CTGTAC'
p3570
I4023
sS'GCAACT'
p3571
I4904
sS'GTCACC'
p3572
I6110
sS'CTGTAG'
p3573
I5371
sS'GTCACA'
p3574
I6951
sS'ACCTAC'
p3575
I3361
sS'GCAACG'
p3576
I1748
sS'GTCACT'
p3577
I6899
sS'TAGGCG'
p3578
I1624
sS'GCAACC'
p3579
I4626
sS'TAGGCA'
p3580
I4858
sS'GCAACA'
p3581
I6114
sS'TAGGCC'
p3582
I3573
sS'ACCTGC'
p3583
I7144
sS'ATTCAT'
p3584
I7058
sS'GTAAAA'
p3585
I7223
sS'GCGATT'
p3586
I1348
sS'TCGTGT'
p3587
I1495
sS'TTCACT'
p3588
I7944
sS'GTCTCT'
p3589
I7573
sS'AACATT'
p3590
I9258
sS'ATTCAG'
p3591
I7549
sS'ATATTA'
p3592
I5754
sS'ATTCAA'
p3593
I6691
sS'ATTCAC'
p3594
I5221
sS'GTCTCC'
p3595
I7013
sS'GTCTCA'
p3596
I5792
sS'GCGATG'
p3597
I1652
sS'GTCTCG'
p3598
I2190
sS'GCGATA'
p3599
I716
sS'TCGTGC'
p3600
I1430
sS'GCGATC'
p3601
I1304
sS'GAAGGC'
p3602
I7813
sS'GAAGGA'
p3603
I10022
sS'GAAGGG'
p3604
I10309
sS'CGATTA'
p3605
I762
sS'CAATCT'
p3606
I4814
sS'AGACTT'
p3607
I6153
sS'GGAACA'
p3608
I6956
sS'GGAACG'
p3609
I2565
sS'TGACGA'
p3610
I1276
sS'ATAGTA'
p3611
I3422
sS'CGATTT'
p3612
I1551
sS'GAAGGT'
p3613
I5730
sS'CTCGCT'
p3614
I3606
sS'CAATCG'
p3615
I1272
sS'CAATCA'
p3616
I5809
sS'CAATCC'
p3617
I4319
sS'TCCTGA'
p3618
I8997
sS'AGTCCA'
p3619
I6923
sS'TCCTGC'
p3620
I11021
sS'AGTCCC'
p3621
I6913
sS'ACTAAA'
p3622
I6004
sS'TCCTGG'
p3623
I13717
sS'ACTAAC'
p3624
I3066
sS'TAACGC'
p3625
I1014
sS'CAGCTG'
p3626
I14034
sS'CAGCTA'
p3627
I5575
sS'CAGCTC'
p3628
I11505
sS'ACTAAT'
p3629
I3901
sS'AGTCCT'
p3630
I6953
sS'TCCTGT'
p3631
I9621
sS'TAATGT'
p3632
I5412
sS'CAGCTT'
p3633
I9244
sS'TAACGT'
p3634
I1207
sS'TTGACC'
p3635
I4540
sS'GTACTT'
p3636
I4312
sS'CGACAT'
p3637
I979
sS'TTGTTC'
p3638
I6512
sS'TTGTTA'
p3639
I5855
sS'CCGAGA'
p3640
I3173
sS'CAGGCC'
p3641
I12379
sS'CCGAGC'
p3642
I4495
sS'CCGCGT'
p3643
I2442
sS'GTACTG'
p3644
I3543
sS'CGACAA'
p3645
I1043
sS'CGACAG'
p3646
I2184
sS'GTACTA'
p3647
I2160
sS'CCGCGC'
p3648
I8227
sS'CCGAGT'
p3649
I2535
sS'CCGCGA'
p3650
I2644
sS'CCGCGG'
p3651
I7536
sS'TTGTTT'
p3652
I14939
sS'GCATAT'
p3653
I3162
sS'TCCGTT'
p3654
I1924
sS'AGCCAA'
p3655
I9018
sS'AATAAC'
p3656
I5521
sS'AATAAA'
p3657
I16038
sS'AATAAG'
p3658
I6188
sS'CATTCC'
p3659
I7301
sS'GGATTG'
p3660
I4347
sS'AATAAT'
p3661
I9046
sS'ACGGTG'
p3662
I2259
sS'CCAACC'
p3663
I5760
sS'CCAACA'
p3664
I6342
sS'TTATGC'
p3665
I3517
sS'CCAACG'
p3666
I1876
sS'CGCCGC'
p3667
I10720
sS'AGTAAA'
p3668
I8237
sS'CGCCGA'
p3669
I2474
sS'GAGTAG'
p3670
I3955
sS'CGCCGG'
p3671
I5992
sS'GAGTAA'
p3672
I4745
sS'GAGTAC'
p3673
I2443
sS'CTCAGG'
p3674
I10825
sS'CTAAAA'
p3675
I8060
sS'CTCAGC'
p3676
I11220
sS'CCAACT'
p3677
I5776
sS'AAAGAG'
p3678
I11616
sS'TCGAGA'
p3679
I1409
sS'GTGTAG'
p3680
I3355
sS'TCGAGC'
p3681
I1380
sS'GTGTAA'
p3682
I4444
sS'GTGTAC'
p3683
I2916
sS'CGCCGT'
p3684
I2066
sS'GTGGCA'
p3685
I7153
sS'CTCGGG'
p3686
I5009
sS'CTCGGA'
p3687
I2877
sS'CTCGGC'
p3688
I5563
sS'GCCGCC'
p3689
I12138
sS'GCCGCA'
p3690
I4096
sS'GCCGCG'
p3691
I8013
sS'ACACTT'
p3692
I6260
sS'CTCGGT'
p3693
I2396
sS'AGATAT'
p3694
I4533
sS'TCGCTC'
p3695
I2874
sS'GTGGCT'
p3696
I9024
sS'CATATA'
p3697
I3792
sS'CAGTCG'
p3698
I1889
sS'TACTAC'
p3699
I2448
sS'ACACTC'
p3700
I5101
sS'ACACTA'
p3701
I3733
sS'ACACTG'
p3702
I8323
sS'GCCGCT'
p3703
I5429
sS'ACCGGA'
p3704
I2194
sS'AAATAA'
p3705
I16489
sS'ACCGGC'
p3706
I2652
sS'CTTTAG'
p3707
I5473
sS'CTTTAA'
p3708
I8206
sS'AATCCT'
p3709
I6463
sS'CTTTAC'
p3710
I4891
sS'CACGAG'
p3711
I2251
sS'CAGGTA'
p3712
I4854
sS'AACTTC'
p3713
I6744
sS'CAGGTC'
p3714
I6840
sS'CACGAC'
p3715
I1359
sS'AACTTG'
p3716
I6455
sS'CAGGTG'
p3717
I9213
sS'CTTTAT'
p3718
I7291
sS'AATCCC'
p3719
I6005
sS'AATCCA'
p3720
I6443
sS'AAATAT'
p3721
I12903
sS'ACCGGT'
p3722
I1112
sS'TCAGCG'
p3723
I3117
sS'CAGGTT'
p3724
I6816
sS'AACTTT'
p3725
I9483
sS'GGCGGN'
p3726
I1
sS'GGGATA'
p3727
I3188
sS'GGGATC'
p3728
I3927
sS'GGGTGT'
p3729
I5645
sS'GGGATG'
p3730
I6094
sS'GATGCT'
p3731
I4301
sS'CGCAGT'
p3732
I2837
sS'GAGTCG'
p3733
I1959
sS'GAGCCT'
p3734
I7912
sS'GGAGAC'
p3735
I7229
sS'GGGTGA'
p3736
I6891
sS'GGAGAA'
p3737
I10896
sS'GGGTGC'
p3738
I5718
sS'GGAGAG'
p3739
I12650
sS'AATCAA'
p3740
I7026
sS'GGGTGG'
p3741
I11536
sS'GAGCCA'
p3742
I9776
sS'CGCAGG'
p3743
I5689
sS'GATGCG'
p3744
I1387
sS'CGCAGA'
p3745
I3425
sS'GATGCA'
p3746
I4250
sS'CGCAGC'
p3747
I6065
sS'GATGCC'
p3748
I4212
sS'CGGATT'
p3749
I1474
sS'GGTAGT'
p3750
I2669
sS'ACCCCT'
p3751
I5979
sS'GCCAAT'
p3752
I5506
sS'AACCGC'
p3753
I2094
sS'AGAGTC'
p3754
I6062
sS'AGAAGT'
p3755
I7476
sS'GCCAAC'
p3756
I5128
sS'GGTAGA'
p3757
I3918
sS'GCCAAA'
p3758
I7851
sS'CGGATG'
p3759
I1803
sS'GCCAAG'
p3760
I8878
sS'CGGATA'
p3761
I814
sS'ACCCCG'
p3762
I4095
sS'CGGATC'
p3763
I1621
sS'AGAAGA'
p3764
I10215
sS'AGAAGC'
p3765
I8688
sS'CAGTCT'
p3766
I7079
sS'AGAAGG'
p3767
I10199
sS'CACTCC'
p3768
I7661
sS'CACTCA'
p3769
I7057
sS'CACTCG'
p3770
I2103
sS'TGCGTT'
p3771
I1750
sS'TCAGCT'
p3772
I9093
sS'AGCTTT'
p3773
I8543
sS'CCCCGG'
p3774
I7848
sS'TGCGTA'
p3775
I1123
sS'TGATCG'
p3776
I902
sS'CCCCGC'
p3777
I14130
sS'CACTCT'
p3778
I7291
sS'AGCTTC'
p3779
I7651
sS'GAGCCC'
p3780
I8944
sS'AGCTTA'
p3781
I4100
sS'AGCTTG'
p3782
I6206
sS'ATACGA'
p3783
I693
sS'AGACCA'
p3784
I5802
sS'AGAGTA'
p3785
I4782
sS'TTAGCT'
p3786
I4956
sS'TTAGCC'
p3787
I3916
sS'TTAGCA'
p3788
I5420
sS'GACCAT'
p3789
I3099
sS'TTAGCG'
p3790
I1159
sS'TACCGG'
p3791
I1157
sS'AACTTA'
p3792
I4656
sS'AAGGGG'
p3793
I8304
sS'ATAAGG'
p3794
I4080
sS'TGTGCT'
p3795
I8285
sS'AAGGGC'
p3796
I7779
sS'ATAAGC'
p3797
I3700
sS'AAGGGA'
p3798
I9983
sS'ATAAGA'
p3799
I4958
sS'CCAGAC'
p3800
I6933
sS'CCAGAA'
p3801
I10576
sS'CCAGAG'
p3802
I13032
sS'TGTGCG'
p3803
I2504
sS'CTACCT'
p3804
I4765
sS'ATAAGT'
p3805
I3909
sS'AAGGGT'
p3806
I5429
sS'TGTGCC'
p3807
I7398
sS'ATAGGA'
p3808
I4350
sS'TGTGCA'
p3809
I7330
sS'CGGTAG'
p3810
I1440
sS'GCTCGC'
p3811
I3787
sS'TAAGTT'
p3812
I4561
sS'ATACGC'
p3813
I687
sS'AGACCG'
p3814
I1986
sS'CCAGAT'
p3815
I6518
sS'AGACAA'
p3816
I6810
sS'AACAAG'
p3817
I7353
sS'CGTGGT'
p3818
I2523
sS'TCCATT'
p3819
I7544
sS'AGACAG'
p3820
I9852
sS'TTTTCT'
p3821
I18761
sS'CGCTGT'
p3822
I3214
sS'GACGCC'
p3823
I3235
sS'CGTGGG'
p3824
I4403
sS'CTATAG'
p3825
I2248
sS'CGTGGC'
p3826
I4174
sS'CGTGGA'
p3827
I2740
sS'TTTTCG'
p3828
I1785
sS'CCCACA'
p3829
I8905
sS'CGCTGC'
p3830
I6099
sS'TTTTCC'
p3831
I14106
sS'TTTTCA'
p3832
I12690
sS'CGCTGG'
p3833
I5408
sS'TATGGA'
p3834
I3518
sS'TATGGC'
p3835
I2797
sS'CGTAGG'
p3836
I1380
sS'ATCGTC'
p3837
I836
sS'AACAAA'
p3838
I14865
sS'TATGGG'
p3839
I3232
sS'CGTAGC'
p3840
I1310
sS'TACCGT'
p3841
I943
sS'TGGACT'
p3842
I6999
sS'CGTAGT'
p3843
I1068
sS'TATGGT'
p3844
I3022
sS'TGGACA'
p3845
I6710
sS'TGGACC'
p3846
I4258
sS'TGGACG'
p3847
I2089
sS'CCGGTT'
p3848
I2014
sS'GACCAA'
p3849
I4427
sS'GCTTGA'
p3850
I4592
sS'TGAGAC'
p3851
I5680
sS'GCTTGC'
p3852
I5153
sS'TGAGAA'
p3853
I10232
sS'TGAGAG'
p3854
I8367
sS'GCTTGG'
p3855
I7041
sS'CCTGTT'
p3856
I8162
sS'CCGGTG'
p3857
I3068
sS'CCGGTC'
p3858
I2554
sS'CCGGTA'
p3859
I1189
sS'CCTGTC'
p3860
I7989
sS'CCTGTA'
p3861
I5551
sS'CCTGTG'
p3862
I10252
sS'GCTTGT'
p3863
I5039
sS'TGAGAT'
p3864
I6363
sS'ATCGTA'
p3865
I668
sS'GGTTGT'
p3866
I4387
sS'AGGGAT'
p3867
I5507
sS'TATCAG'
p3868
I4359
sS'TATTGC'
p3869
I4109
sS'AATTCN'
p3870
I1
sS'AATTCA'
p3871
I7770
sS'GGTTGG'
p3872
I5916
sS'GGTTGA'
p3873
I3787
sS'TTCACG'
p3874
I1878
sS'GGTTGC'
p3875
I4536
sS'ACTATT'
p3876
I4940
sS'TCCCGC'
p3877
I6646
sS'TCCCGA'
p3878
I2646
sS'TCCCGG'
p3879
I6689
sS'GTAACC'
p3880
I3004
sS'CGTTTT'
p3881
I2928
sS'ATTCTC'
p3882
I6481
sS'CTATAC'
p3883
I1828
sS'ATTCTA'
p3884
I5581
sS'ATTCTG'
p3885
I8470
sS'TCATTT'
p3886
I12489
sS'CAGCGA'
p3887
I3066
sS'CAGCGC'
p3888
I5946
sS'TATACT'
p3889
I3213
sS'TGCTAG'
p3890
I4093
sS'TCCCGT'
p3891
I2558
sS'CCTTGT'
p3892
I6243
sS'TCATTC'
p3893
I7627
sS'CGTTTG'
p3894
I2063
sS'CGTTTA'
p3895
I1446
sS'ATTCTT'
p3896
I8232
sS'CGTTTC'
p3897
I2706
sS'ACCGGG'
p3898
I2906
sS'TGGCAA'
p3899
I7616
sS'TGGCAC'
p3900
I6705
sS'TGGCAG'
p3901
I11759
sS'GCTGAG'
p3902
I11162
sS'CCAAGC'
p3903
I6926
sS'GCTGAC'
p3904
I6312
sS'TGGCAT'
p3905
I6229
sS'GGCCGG'
p3906
I9095
sS'GTTCAA'
p3907
I5235
sS'NNGATC'
p3908
I1
sS'CCGATG'
p3909
I1244
sS'GGCCGC'
p3910
I9243
sS'GAACTT'
p3911
I6515
sS'GGCCGA'
p3912
I3938
sS'GGCAAT'
p3913
I4474
sS'CTATAA'
p3914
I3824
sS'CTGATT'
p3915
I7344
sS'NCCCAC'
p3916
I1
sS'CCATCG'
p3917
I1518
sS'CTAAAT'
p3918
I5931
sS'CCATCC'
p3919
I6044
sS'CCATCA'
p3920
I5104
sS'GGCAAG'
p3921
I7109
sS'CTGATA'
p3922
I4240
sS'GTACCA'
p3923
I2555
sS'CTGATG'
p3924
I6354
sS'GGCAAA'
p3925
I8013
sS'CTAAAG'
p3926
I5381
sS'CCATCT'
p3927
I7401
sS'CTAAAC'
p3928
I4239
sS'GTACCG'
p3929
I902
sS'GACACC'
p3930
I4621
sS'GACACA'
p3931
I7034
sS'GACACG'
p3932
I2100
sS'CCAAGA'
p3933
I7442
sS'TGGTTC'
p3934
I5274
sS'TAGCGA'
p3935
I985
sS'TACGAG'
p3936
I838
sS'TACGAC'
p3937
I662
sS'GACACT'
p3938
I5140
sS'GGCGAT'
p3939
I1487
sS'AGTCCG'
p3940
I2134
sS'ACGCTG'
p3941
I3131
sS'GCATAA'
p3942
I3567
sS'GCATAC'
p3943
I2078
sS'TCGATG'
p3944
I1014
sS'TCGATA'
p3945
I642
sS'TCGATC'
p3946
I767
sS'CTATTT'
p3947
I8320
sS'CGCGAA'
p3948
I1191
sS'GCATTG'
p3949
I4280
sS'GCATCT'
p3950
I4674
sS'GAACTG'
p3951
I7113
sS'TCGATT'
p3952
I1194
sS'CTACCG'
p3953
I1398
sS'GCGCCC'
p3954
I7928
sS'TTTTGA'
p3955
I9819
sS'AACCAA'
p3956
I6936
sS'TGCCGG'
p3957
I3792
sS'AACCAC'
p3958
I5917
sS'TGCCGC'
p3959
I4027
sS'AACCAG'
p3960
I7396
sS'TGCCGA'
p3961
I1784
sS'TTGGAC'
p3962
I4653
sS'CGCGAG'
p3963
I3363
sS'ATGATC'
p3964
I3343
sS'GCGCCG'
p3965
I7069
sS'TGCCGT'
p3966
I1835
sS'AACCAT'
p3967
I4658
sS'AACAGA'
p3968
I10111
sS'GGGAGT'
p3969
I6721
sS'AACAGC'
p3970
I7975
sS'ACGTCC'
p3971
I1929
sS'AACAGG'
p3972
I8084
sS'CTACCA'
p3973
I3971
sS'CCCAAG'
p3974
I8179
sS'AGCAGC'
p3975
I11504
sS'GACGAA'
p3976
I1333
sS'CCCAAC'
p3977
I5830
sS'ATTCGA'
p3978
I1104
sS'CCCAAA'
p3979
I9017
sS'CAATAT'
p3980
I4679
sS'GGGAGG'
p3981
I20311
sS'GGGAGA'
p3982
I11410
sS'AACAGT'
p3983
I6904
sS'GGGAGC'
p3984
I10551
sS'ACGAAG'
p3985
I1790
sS'CCCAAT'
p3986
I4269
sS'GACGAT'
p3987
I855
sS'GGGCGC'
p3988
I8003
sS'GGGCGA'
p3989
I3740
sS'GCATCA'
p3990
I4072
sS'GGGCGG'
p3991
I16450
sS'TCTCTT'
p3992
I11068
sS'GTACAG'
p3993
I4082
sS'CGTTAA'
p3994
I1123
sS'CAGAAT'
p3995
I8312
sS'ACGACT'
p3996
I1179
sS'TCTCTC'
p3997
I12334
sS'TCTCTA'
p3998
I6387
sS'TCTCTG'
p3999
I13060
sS'GGGCGT'
p4000
I3765
sS'CAGAAA'
p4001
I14226
sS'ACGACA'
p4002
I1307
sS'ACGACG'
p4003
I770
sS'CAGAAG'
p4004
I11092
sS'CCTTCA'
p4005
I7251
sS'CACTTT'
p4006
I9232
sS'CATATT'
p4007
I5521
sS'CCTAAT'
p4008
I3857
sS'TCTATA'
p4009
I3299
sS'GTCATT'
p4010
I6236
sS'CACTTG'
p4011
I6229
sS'CCTAAC'
p4012
I3763
sS'CCTAAA'
p4013
I5515
sS'CACTTC'
p4014
I7982
sS'CCTAAG'
p4015
I4394
sS'CACTTA'
p4016
I4969
sS'GCGGAT'
p4017
I1689
sS'CTGCGG'
p4018
I6223
sS'AAGATT'
p4019
I6346
sS'CTCATG'
p4020
I5856
sS'GACTCG'
p4021
I2196
sS'CTCATC'
p4022
I5761
sS'GACTCC'
p4023
I6042
sS'CTCATA'
p4024
I3992
sS'GACTCA'
p4025
I6925
sS'AAGATA'
p4026
I5453
sS'AGTCGG'
p4027
I2067
sS'AAGATG'
p4028
I6662
sS'GACTCT'
p4029
I6191
sS'CTGCGC'
p4030
I6379
sS'ATCGAA'
p4031
I1012
sS'AACTAC'
p4032
I3851
sS'ATATTT'
p4033
I12498
sS'CCGAGG'
p4034
I5569
sS'GGACTC'
p4035
I6026
sS'ATAGTT'
p4036
I4439
sS'TACTGT'
p4037
I5117
sS'ATATTC'
p4038
I4755
sS'ACGGTC'
p4039
I1350
sS'ATATTG'
p4040
I4746
sS'TACTGC'
p4041
I4285
sS'TACTGA'
p4042
I5286
sS'TACTGG'
p4043
I4449
sS'ATAGTG'
p4044
I3545
sS'ATAGAC'
p4045
I2596
sS'CAGGCA'
p4046
I12150
sS'ACGGAA'
p4047
I2293
sS'CATCCG'
p4048
I1769
sS'AGGAAA'
p4049
I17023
sS'CATCCA'
p4050
I5680
sS'CAGGCG'
p4051
I6156
sS'CATCCC'
p4052
I6051
sS'TTATGA'
p4053
I5052
sS'CAAGCT'
p4054
I6199
sS'CGGAGT'
p4055
I2740
sS'TTATGG'
p4056
I3653
sS'CATCCT'
p4057
I6558
sS'AGGAAT'
p4058
I7962
sS'CAGGCT'
p4059
I12143
sS'ACGGAT'
p4060
I1107
sS'CGGAGA'
p4061
I3797
sS'CGGAGC'
p4062
I6231
sS'TTATGT'
p4063
I5772
sS'CGGAGG'
p4064
I6340
sS'ATGGAA'
p4065
I7741
sS'ATGGAC'
p4066
I3723
sS'ATGGAG'
p4067
I6603
sS'CGCTTG'
p4068
I2386
sS'CGCTTA'
p4069
I1124
sS'CGCTTC'
p4070
I3562
sS'TGAACA'
p4071
I6740
sS'ATGGAT'
p4072
I4253
sS'TGCGGC'
p4073
I4007
sS'CGCTTT'
p4074
I2642
sS'CAAGCC'
p4075
I6488
sS'TGCGGA'
p4076
I2517
sS'GAAAAG'
p4077
I12057
sS'GAAAAC'
p4078
I9373
sS'ATAGAT'
p4079
I3984
sS'GAAAAA'
p4080
I15481
sS'GTTCCT'
p4081
I7012
sS'TAAGTA'
p4082
I4608
sS'AGACCT'
p4083
I5757
sS'ACGGTT'
p4084
I1331
sS'GAAAAT'
p4085
I10826
sS'ACAAGG'
p4086
I6539
sS'GCCTAA'
p4087
I3676
sS'ACAAGA'
p4088
I6323
sS'AAAAAA'
p4089
I38619
sS'ACAAGC'
p4090
I5140
sS'ACACGT'
p4091
I2257
sS'CTGCGT'
p4092
I3097
sS'GCGGAG'
p4093
I7721
sS'CATAAG'
p4094
I3481
sS'GTCCCT'
p4095
I7133
sS'CATAAA'
p4096
I6728
sS'GCGGAC'
p4097
I2817
sS'CATAAC'
p4098
I3126
sS'ACACGC'
p4099
I2440
sS'ACAAGT'
p4100
I5251
sS'ACACGA'
p4101
I1480
sS'ACACGG'
p4102
I2284
sS'CATAAT'
p4103
I4673
sS'GTCCCA'
p4104
I6354
sS'GCACAT'
p4105
I5107
sS'GTCCCC'
p4106
I7032
sS'CTGCGA'
p4107
I2572
sS'GTCCCG'
p4108
I4210
sS'CGGCAA'
p4109
I1930
sS'CGGCAC'
p4110
I2509
sS'CGGCAG'
p4111
I5553
sS'GACGCG'
p4112
I2471
sS'CCTCCT'
p4113
I15150
sS'ATCAAA'
p4114
I6768
sS'NNNGAA'
p4115
I1
sS'CGGCAT'
p4116
I1471
sS'CCTCCC'
p4117
I20277
sS'CCTCCA'
p4118
I10716
sS'CACGCC'
p4119
I4711
sS'CCTCCG'
p4120
I6307
s.