(dp0
S'GAACGT'
p1
I5988
sS'ACATGA'
p2
I28836
sS'CTTCTT'
p3
I48602
sS'CACCCT'
p4
I42811
sS'GAACGG'
p5
I7073
sS'GAACGC'
p6
I7034
sS'GAACGA'
p7
I5372
sS'CACCCA'
p8
I50162
sS'CTTCTA'
p9
I26767
sS'CACCCC'
p10
I47870
sS'CTTCTC'
p11
I54337
sS'CACCCG'
p12
I16599
sS'CTTCTG'
p13
I54878
sS'GTCTCG'
p14
I10240
sS'CGTGTG'
p15
I14072
sS'TAAGGT'
p16
I17008
sS'CGTGTC'
p17
I8817
sS'CGTGTA'
p18
I5039
sS'TAAGGG'
p19
I19299
sS'CGTGTT'
p20
I8751
sS'TAAGGC'
p21
I18303
sS'TAAGGA'
p22
I27479
sS'GTCAAA'
p23
I23004
sS'GTCAAC'
p24
I15460
sS'GTCAAG'
p25
I21039
sS'CTGTCC'
p26
I43169
sS'TCAGAG'
p27
I49769
sS'CTGTCA'
p28
I39604
sS'CTCGCC'
p29
I18048
sS'CTGTCG'
p30
I9199
sS'TCAGAC'
p31
I27558
sS'CTGTGC'
p32
I46724
sS'TCAGAA'
p33
I47158
sS'GTCAAT'
p34
I14528
sS'GTATCA'
p35
I12961
sS'GTATCC'
p36
I11083
sS'GTATCG'
p37
I2070
sS'CTGTCT'
p38
I53995
sS'GGTGTC'
p39
I23894
sS'GGTGTA'
p40
I13420
sS'GGTGTG'
p41
I41630
sS'TATCCT'
p42
I20251
sS'CCGGGG'
p43
I32877
sS'TTCTGT'
p44
I52568
sS'ATTCCT'
p45
I40940
sS'CCGGGC'
p46
I36520
sS'CCGGGA'
p47
I25136
sS'TATCCA'
p48
I19484
sS'AGGCAG'
p49
I78611
sS'TATCCC'
p50
I15420
sS'TGGTTG'
p51
I27180
sS'AGAGGT'
p52
I37082
sS'TATCCG'
p53
I2927
sS'GGTGTT'
p54
I24822
sS'ATTCCG'
p55
I5763
sS'TTCTGG'
p56
I50064
sS'CCGGGT'
p57
I16299
sS'ATTCCC'
p58
I29674
sS'TTCTGC'
p59
I45647
sS'CCACAG'
p60
I58004
sS'TTCTGA'
p61
I46743
sS'TGCACT'
p62
I33173
sS'CTGCCC'
p63
I71343
sS'GGNCCG'
p64
I1
sS'CGTCAT'
p65
I5922
sS'CGTAAA'
p66
I4977
sS'CCCGCG'
p67
I24900
sS'ACGAAC'
p68
I4007
sS'CGCGGG'
p69
I24915
sS'NCCGCC'
p70
I1
sS'CGCGGC'
p71
I25650
sS'CGCGGA'
p72
I10419
sS'ACAGGT'
p73
I35379
sS'ACCTGT'
p74
I35217
sS'TCATGT'
p75
I29019
sS'CTCCGA'
p76
I10375
sS'TTACAG'
p77
I39570
sS'CTCCGC'
p78
I25589
sS'TTACAA'
p79
I29732
sS'TTACAC'
p80
I19812
sS'CTCCGG'
p81
I20891
sS'TCATGC'
p82
I26305
sS'TACAAT'
p83
I20333
sS'TCATGA'
p84
I28397
sS'TCATGG'
p85
I28240
sS'ACCTGC'
p86
I41361
sS'ACCTGA'
p87
I33367
sS'TCACTC'
p88
I35056
sS'GTATTT'
p89
I38224
sS'CTCGAT'
p90
I4594
sS'CTCCGT'
p91
I12496
sS'GCCTGA'
p92
I39841
sS'GCCTGC'
p93
I50187
sS'GCCTGG'
p94
I82801
sS'TCTTGC'
p95
I32836
sS'TAAAGG'
p96
I27899
sS'CAAATT'
p97
I33671
sS'TAAAGA'
p98
I35643
sS'TAAAGC'
p99
I24076
sS'GCCTGT'
p100
I44835
sS'CGTCAA'
p101
I4127
sS'TAAAGT'
p102
I27472
sS'CAAATA'
p103
I42544
sS'ACGTCC'
p104
I7338
sS'CAAATC'
p105
I27207
sS'CGTGCT'
p106
I10127
sS'CAAATG'
p107
I40546
sS'AATACT'
p108
I24093
sS'AATCCG'
p109
I5157
sS'TATCTC'
p110
I22353
sS'CCGGCG'
p111
I19650
sS'GGCATG'
p112
I33492
sS'GGCATA'
p113
I14973
sS'GGCATC'
p114
I23662
sS'AATACG'
p115
I4652
sS'AATACA'
p116
I34999
sS'AATACC'
p117
I17903
sS'GGCATT'
p118
I28048
sS'TCCCCA'
p119
I60753
sS'TGCACA'
p120
I40251
sS'GAGCAC'
p121
I26716
sS'ACTGAT'
p122
I23075
sS'GAGCAG'
p123
I53571
sS'AGTAGT'
p124
I16250
sS'TCTCGC'
p125
I11090
sS'TCTCGA'
p126
I7267
sS'TCTCGG'
p127
I13341
sS'ACTGAG'
p128
I40340
sS'AGTAGA'
p129
I24896
sS'AGTAGG'
p130
I22031
sS'GAGCAT'
p131
I22770
sS'ACGGCC'
p132
I10749
sS'TTTGTT'
p133
I71273
sS'GTGTCG'
p134
I5595
sS'TCGAAC'
p135
I4733
sS'TCGAAA'
p136
I4631
sS'GTGTCC'
p137
I27560
sS'TCGAAG'
p138
I5368
sS'GTGTCA'
p139
I27146
sS'ATTTGC'
p140
I33604
sS'CTTGCT'
p141
I42408
sS'TCGGTC'
p142
I5635
sS'CCACAA'
p143
I33330
sS'GTGTCT'
p144
I33832
sS'AGCCCC'
p145
I49130
sS'TCGAAT'
p146
I4141
sS'CTTGCG'
p147
I7009
sS'CTTGCA'
p148
I31381
sS'CTTGCC'
p149
I35061
sS'TCACCT'
p150
I43414
sS'CGAAAG'
p151
I7019
sS'CGAAAA'
p152
I6377
sS'CGAAAC'
p153
I5823
sS'CACGGA'
p154
I10847
sS'AAATGC'
p155
I41122
sS'CACGGC'
p156
I13968
sS'AAATGA'
p157
I56235
sS'AAATGG'
p158
I41680
sS'CACGGG'
p159
I13792
sS'ACAGTA'
p160
I24165
sS'CGAAAT'
p161
I4970
sS'ACAGTT'
p162
I29821
sS'AATCAG'
p163
I32672
sS'AATCAA'
p164
I28826
sS'AAATGT'
p165
I53301
sS'AATCAC'
p166
I27207
sS'TTTGTA'
p167
I38696
sS'GCTCAA'
p168
I26524
sS'TCTAGT'
p169
I20033
sS'TTGCCG'
p170
I7080
sS'TTGCCA'
p171
I35275
sS'GGGTAT'
p172
I12257
sS'TTGCCT'
p173
I40336
sS'TCTAGG'
p174
I25006
sS'GGGTAA'
p175
I17490
sS'TCTAGA'
p176
I25361
sS'GGGTAG'
p177
I19339
sS'TCTAGC'
p178
I18539
sS'ATACGG'
p179
I3417
sS'AATTGG'
p180
I19830
sS'AGATGT'
p181
I30614
sS'TCGCCC'
p182
I14939
sS'TCGCCA'
p183
I8705
sS'GGGTCG'
p184
I9905
sS'TCGCCG'
p185
I8094
sS'GGTAAT'
p186
I15408
sS'ACCCAT'
p187
I20795
sS'ACCCAC'
p188
I31511
sS'GGTAAC'
p189
I13732
sS'ACCCAA'
p190
I26678
sS'AGATGG'
p191
I43553
sS'ACCCAG'
p192
I53148
sS'GGTAAG'
p193
I18549
sS'TCGCCT'
p194
I10681
sS'AGATGC'
p195
I28875
sS'CCCCAT'
p196
I34377
sS'TTGGGT'
p197
I26572
sS'CACTAG'
p198
I19514
sS'GTTCCG'
p199
I7239
sS'CACTAC'
p200
I14669
sS'CCCCAA'
p201
I39704
sS'CCCCAC'
p202
I56524
sS'CCCCAG'
p203
I74580
sS'CACTAT'
p204
I16594
sS'TTGGGG'
p205
I39527
sS'CCGTCC'
p206
I13308
sS'TTGGGA'
p207
I42263
sS'TTGGGC'
p208
I27532
sS'TGCCTG'
p209
I67003
sS'TGCAGA'
p210
I49233
sS'TTTCTG'
p211
I66370
sS'TGCAGC'
p212
I49711
sS'TTTCTA'
p213
I41830
sS'TTTCTC'
p214
I64319
sS'TGCAGG'
p215
I54839
sS'GGGTCA'
p216
I27202
sS'GTATCT'
p217
I17697
sS'TTTCTT'
p218
I85083
sS'TGCCTT'
p219
I46466
sS'TGCAGT'
p220
I47194
sS'ACAATT'
p221
I25357
sS'AAGGAA'
p222
I68463
sS'AAGGAC'
p223
I28184
sS'AAGGAG'
p224
I53765
sS'ATATGC'
p225
I16949
sS'GTTCCA'
p226
I26929
sS'ATATGA'
p227
I22132
sS'ATATGG'
p228
I17245
sS'GATGGA'
p229
I31185
sS'AAGGAT'
p230
I28434
sS'ATATGT'
p231
I24699
sS'GGTCCC'
p232
I30367
sS'GCCCAG'
p233
I77088
sS'GGTCCA'
p234
I19963
sS'GCCCAA'
p235
I27612
sS'GGTCCG'
p236
I8710
sS'AGGTCT'
p237
I29184
sS'ATGGCG'
p238
I9505
sS'AGACCC'
p239
I27055
sS'ATTGTT'
p240
I30091
sS'CTTCGA'
p241
I5292
sS'CTTCGC'
p242
I8652
sS'ATGCAA'
p243
I31121
sS'GCCCAT'
p244
I23401
sS'AGGTCA'
p245
I39451
sS'TCCGGC'
p246
I13882
sS'GGTCCT'
p247
I26220
sS'TCCGGA'
p248
I9818
sS'CTTAGC'
p249
I20342
sS'ATTGTG'
p250
I26629
sS'CTTAGA'
p251
I23148
sS'ATGCAC'
p252
I22058
sS'CTTAGG'
p253
I22547
sS'ATTGTC'
p254
I18411
sS'ATTGTA'
p255
I20281
sS'GCCTTT'
p256
I38452
sS'ATTTTG'
p257
I44554
sS'GAGGTG'
p258
I47165
sS'ATTTTA'
p259
I56833
sS'TAAATT'
p260
I36610
sS'ATTTTC'
p261
I49829
sS'GAGGTC'
p262
I29503
sS'TAGCAG'
p263
I25087
sS'GATACT'
p264
I13730
sS'TAGCAC'
p265
I16719
sS'TAGCAA'
p266
I23772
sS'GAGGTT'
p267
I30624
sS'ATTTTT'
p268
I83528
sS'GCCTTG'
p269
I37295
sS'GTGGGG'
p270
I56354
sS'GCCTTA'
p271
I18197
sS'TTGACA'
p272
I25577
sS'TAAATG'
p273
I38787
sS'GATACG'
p274
I2942
sS'TAGCAT'
p275
I18565
sS'GATACC'
p276
I10232
sS'GATTTC'
p277
I29191
sS'TGAGCT'
p278
I42055
sS'GATCAT'
p279
I17535
sS'ACCGAG'
p280
I9820
sS'AAGACC'
p281
I24561
sS'GATTTA'
p282
I23402
sS'AAGACG'
p283
I8242
sS'GATCAG'
p284
I21209
sS'TGAGCG'
p285
I10308
sS'CTCGAG'
p286
I8953
sS'TGAGCA'
p287
I40054
sS'TGAGCC'
p288
I47377
sS'CGGGGA'
p289
I25473
sS'AAGACT'
p290
I30486
sS'ACCACG'
p291
I11778
sS'GCGGTA'
p292
I4328
sS'CGTGCA'
p293
I9896
sS'GCGGTG'
p294
I18107
sS'NGGCAT'
p295
I1
sS'CGGTGT'
p296
I8028
sS'TCGTTA'
p297
I3499
sS'TCGTTC'
p298
I5355
sS'CTTCCC'
p299
I67231
sS'TCGTTG'
p300
I4730
sS'GCGGTT'
p301
I7020
sS'ACTTGC'
p302
I24841
sS'ACCACC'
p303
I31602
sS'ACTTGA'
p304
I28292
sS'CGGTGG'
p305
I17754
sS'TCGTTT'
p306
I8037
sS'CGGTGA'
p307
I10172
sS'CGGTGC'
p308
I12312
sS'TTCCTA'
p309
I32295
sS'TAGACT'
p310
I16766
sS'TTCCTC'
p311
I60660
sS'ACTGAC'
p312
I24485
sS'ATGTGC'
p313
I25684
sS'TTCCTG'
p314
I71335
sS'TCCTTT'
p315
I56026
sS'GACCCA'
p316
I27683
sS'ACGCTA'
p317
I3507
sS'TAGACG'
p318
I3791
sS'TTCCTT'
p319
I68498
sS'TAGACC'
p320
I11509
sS'TAGACA'
p321
I21344
sS'AAGNTG'
p322
I1
sS'TCCTTG'
p323
I41509
sS'TCCTTA'
p324
I27266
sS'TCCTTC'
p325
I53310
sS'ATCTCT'
p326
I39651
sS'ACCGTT'
p327
I4597
sS'TGGCGC'
p328
I15678
sS'TATANN'
p329
I1
sS'TGGCGA'
p330
I8653
sS'TGTNNN'
p331
I1
sS'TGGCGG'
p332
I18963
sS'ATCTCG'
p333
I7484
sS'ATCTCA'
p334
I36860
sS'ATCTCC'
p335
I31447
sS'GGCCAA'
p336
I34857
sS'ACGGAG'
p337
I12423
sS'GGCCAC'
p338
I40489
sS'ACCGTG'
p339
I9915
sS'ATGCAG'
p340
I36521
sS'GGCCAG'
p341
I62455
sS'ACCGTC'
p342
I5897
sS'ACTGAA'
p343
I37863
sS'AGAATT'
p344
I38339
sS'GGCAGT'
p345
I35995
sS'ANNAAC'
p346
I1
sS'CCATAA'
p347
I19174
sS'CAAAGG'
p348
I42689
sS'CCATAC'
p349
I12312
sS'CAAAGA'
p350
I45769
sS'AGATTC'
p351
I26292
sS'CAAAGC'
p352
I39007
sS'CAACGT'
p353
I6431
sS'GGCAGA'
p354
I55276
sS'GGCAGC'
p355
I57934
sS'CGTGAG'
p356
I12924
sS'GGCAGG'
p357
I78475
sS'CAACGC'
p358
I6275
sS'CAAAGT'
p359
I39685
sS'CAACGA'
p360
I4814
sS'GCACTC'
p361
I27228
sS'CCATAT'
p362
I17255
sS'GCACTG'
p363
I37485
sS'GGGGGT'
p364
I30425
sS'CGAGTG'
p365
I8512
sS'GAAACC'
p366
I34165
sS'CGATCT'
p367
I6468
sS'NNNNNC'
p368
I3
sS'CTCTAG'
p369
I27070
sS'CTCTAA'
p370
I25268
sS'CTCTAC'
p371
I24117
sS'NNNCGC'
p372
I1
sS'GGGGGG'
p373
I29653
sS'CGATCC'
p374
I5349
sS'TACGCC'
p375
I3568
sS'GGGGGC'
p376
I48688
sS'CGATCG'
p377
I1636
sS'GGGGGA'
p378
I41971
sS'TACGCG'
p379
I1764
sS'CTCTAT'
p380
I20400
sS'CCCCGC'
p381
I48294
sS'CAGACC'
p382
I30379
sS'CAGACA'
p383
I46957
sS'CAGACG'
p384
I11101
sS'CGCTAA'
p385
I3965
sS'TAGTTG'
p386
I15448
sS'GCTAAT'
p387
I18872
sS'TAGTTC'
p388
I16339
sS'TAGTTA'
p389
I15443
sS'CAGACT'
p390
I35102
sS'GCTAAG'
p391
I20132
sS'TAGTTT'
p392
I28228
sS'GCTAAC'
p393
I12408
sS'GCTAAA'
p394
I21162
sS'TAAGTG'
p395
I23946
sS'TGCTGC'
p396
I53265
sS'AACCCT'
p397
I28231
sS'GTCCAC'
p398
I20194
sS'CTTGAC'
p399
I20943
sS'TGCATG'
p400
I31780
sS'TGCATA'
p401
I22001
sS'TTTCCG'
p402
I10107
sS'TGCATC'
p403
I23711
sS'CATGAC'
p404
I23884
sS'AGATTT'
p405
I39383
sS'CTACAA'
p406
I22277
sS'AACTGG'
p407
I35538
sS'AACGTT'
p408
I6713
sS'CTACAG'
p409
I28033
sS'CCCAGA'
p410
I58869
sS'CCCAGC'
p411
I87985
sS'CCCAGG'
p412
I94247
sS'AACTGT'
p413
I29868
sS'AGTTTT'
p414
I44592
sS'CTACAT'
p415
I18616
sS'AGTCAA'
p416
I25942
sS'CAATTT'
p417
I31228
sS'CCCAGT'
p418
I42244
sS'CGCATA'
p419
I2800
sS'ATACTG'
p420
I20310
sS'CGCATC'
p421
I6180
sS'ATACTA'
p422
I13250
sS'ATACTC'
p423
I13882
sS'CGCATG'
p424
I7091
sS'GCGCAA'
p425
I5817
sS'GCGAAT'
p426
I3729
sS'ATACTT'
p427
I22334
sS'CGCATT'
p428
I5393
sS'AGGCCC'
p429
I44450
sS'GCTCCG'
p430
I21559
sS'TATTGT'
p431
I23181
sS'GCTCCC'
p432
I50195
sS'GCTCCA'
p433
I41941
sS'CCTACT'
p434
I22140
sS'TGTACT'
p435
I20779
sS'TTTAGT'
p436
I27566
sS'NTTGTG'
p437
I1
sS'TATTGG'
p438
I16340
sS'GCTCCT'
p439
I47541
sS'TATTGC'
p440
I17337
sS'TATTGA'
p441
I19827
sS'TTTAGG'
p442
I25292
sS'TGTACG'
p443
I3636
sS'CCTACG'
p444
I5022
sS'TGTACA'
p445
I24288
sS'CCTACA'
p446
I21134
sS'ACAGTG'
p447
I42248
sS'CCTACC'
p448
I21941
sS'TTCGCG'
p449
I3466
sS'TTCGCA'
p450
I5087
sS'TTCGCC'
p451
I7481
sS'AGTATC'
p452
I13518
sS'GACTAA'
p453
I16339
sS'AGTATA'
p454
I15096
sS'TTTGGG'
p455
I45475
sS'AGTATG'
p456
I16583
sS'TTTGGA'
p457
I40138
sS'GACTAG'
p458
I13502
sS'TTCGCT'
p459
I6942
sS'GATCNN'
p460
I2
sS'TTTGGT'
p461
I32281
sS'GACTAT'
p462
I12009
sS'AGTATT'
p463
I23791
sS'TTACTC'
p464
I21974
sS'TTACTA'
p465
I18426
sS'TTACTG'
p466
I28530
sS'ACCTTG'
p467
I30337
sS'ACCTTC'
p468
I29148
sS'ACCTTA'
p469
I17316
sS'TTACTT'
p470
I32306
sS'ACGCTT'
p471
I6117
sS'ACCTTT'
p472
I31457
sS'ACAGGG'
p473
I43341
sS'CTGGGA'
p474
I78336
sS'CTGGGC'
p475
I77450
sS'ACAGGC'
p476
I45015
sS'TTATAT'
p477
I26978
sS'CTGGGG'
p478
I74386
sS'AGGACG'
p479
I11498
sS'GCAGCT'
p480
I51354
sS'CAGGAA'
p481
I71609
sS'TCGCTT'
p482
I8547
sS'CAGGAG'
p483
I77783
sS'AGGACA'
p484
I41862
sS'GCGCAT'
p485
I5955
sS'TTATAC'
p486
I14589
sS'TTATAA'
p487
I29544
sS'CTGGGT'
p488
I52527
sS'TTATAG'
p489
I18844
sS'TCGCTG'
p490
I12005
sS'GCAGCG'
p491
I22843
sS'AGGACT'
p492
I33086
sS'GCAGCA'
p493
I52950
sS'GCAGCC'
p494
I61157
sS'CAGGAT'
p495
I35747
sS'ATTNNN'
p496
I1
sS'CCTCAG'
p497
I65644
sS'CCTCAA'
p498
I33248
sS'CCTCAC'
p499
I41250
sS'TATGTT'
p500
I26677
sS'ATGGGC'
p501
I23131
sS'TCTTTG'
p502
I45205
sS'ATGGGA'
p503
I33499
sS'TCTTTA'
p504
I35373
sS'ATGGGG'
p505
I34296
sS'TCTTTC'
p506
I54856
sS'CCTCAT'
p507
I34486
sS'TCTTTT'
p508
I66192
sS'TATGTG'
p509
I26486
sS'TATGTA'
p510
I22998
sS'ATGGGT'
p511
I20745
sS'TATGTC'
p512
I16084
sS'ACCTGG'
p513
I48104
sS'GAAAGA'
p514
I54941
sS'ATCAAG'
p515
I22286
sS'CATGAT'
p516
I23569
sS'ATCAAC'
p517
I15998
sS'GAAAGG'
p518
I49593
sS'ATCAAA'
p519
I29831
sS'GTCAGG'
p520
I37780
sS'ACGTGG'
p521
I13994
sS'CATGAG'
p522
I32775
sS'ATCAAT'
p523
I16800
sS'GTCCAA'
p524
I18327
sS'GAAAGT'
p525
I34527
sS'CATGAA'
p526
I31864
sS'GTAGCG'
p527
I4271
sS'CAAGTT'
p528
I29656
sS'GCTTTG'
p529
I38967
sS'GTAGCC'
p530
I15431
sS'GCTTTC'
p531
I36524
sS'GCGGCG'
p532
I35378
sS'CAAGTG'
p533
I33410
sS'GTAGCT'
p534
I22005
sS'TTCTTT'
p535
I78017
sS'GCGGCC'
p536
I31581
sS'CAAGTC'
p537
I26408
sS'GCGGCA'
p538
I14520
sS'TTACAT'
p539
I29351
sS'AACGGT'
p540
I4477
sS'CGTACG'
p541
I1271
sS'ACCCTC'
p542
I31415
sS'TAATCG'
p543
I2771
sS'GGTCTT'
p544
I24545
sS'TAATCA'
p545
I21499
sS'TAATCC'
p546
I24348
sS'TGCGAA'
p547
I4953
sS'CGGCCC'
p548
I30307
sS'CGACTA'
p549
I2475
sS'AAAATT'
p550
I56156
sS'CGCTAT'
p551
I3279
sS'CGGCCG'
p552
I23215
sS'TCGTGA'
p553
I6098
sS'CTTGTA'
p554
I20280
sS'GGTCTG'
p555
I30707
sS'TAATCT'
p556
I23454
sS'GGNAGA'
p557
I1
sS'GGTCTC'
p558
I31144
sS'CTGAAT'
p559
I34929
sS'GGTCTA'
p560
I11412
sS'AAAATG'
p561
I64053
sS'AAAATC'
p562
I39703
sS'AAAATA'
p563
I74078
sS'TTCAGC'
p564
I36636
sS'CTAACC'
p565
I15117
sS'TTCAGA'
p566
I44586
sS'TTCAGG'
p567
I42198
sS'ATATCC'
p568
I15427
sS'TCGTCG'
p569
I2378
sS'TGTTTT'
p570
I74166
sS'GAACAA'
p571
I30898
sS'ATCCCG'
p572
I8365
sS'GAACAC'
p573
I23188
sS'TCGTCT'
p574
I6606
sS'GAACAG'
p575
I34895
sS'TTCAGT'
p576
I37456
sS'AACGGA'
p577
I6532
sS'CACCAC'
p578
I42993
sS'NNNCTG'
p579
I1
sS'CACCAA'
p580
I29441
sS'CACCAG'
p581
I45905
sS'CCACCG'
p582
I17528
sS'AACATT'
p583
I38832
sS'CCGTTA'
p584
I3402
sS'TCCGTC'
p585
I9050
sS'GAGTTA'
p586
I18404
sS'TCCGTA'
p587
I4013
sS'ACCAGA'
p588
I33207
sS'ACGCGA'
p589
I2983
sS'CACCAT'
p590
I32698
sS'AACATG'
p591
I33264
sS'AACATA'
p592
I26373
sS'AACATC'
p593
I25544
sS'GTCAGC'
p594
I28631
sS'GCACGG'
p595
I12353
sS'GTCAGA'
p596
I30683
sS'GCACGA'
p597
I6395
sS'CAGTCC'
p598
I32715
sS'GCACGC'
p599
I11309
sS'CAGTCA'
p600
I35435
sS'AACAAC'
p601
I27367
sS'GCACCA'
p602
I30405
sS'GCAAGC'
p603
I24436
sS'GCACGT'
p604
I9721
sS'CAGTCT'
p605
I37376
sS'TCAGCT'
p606
I45399
sS'GTCAGT'
p607
I23964
sS'TATCTA'
p608
I17176
sS'GTATAC'
p609
I8823
sS'TTCCGT'
p610
I8172
sS'GTATAA'
p611
I14400
sS'GTATAG'
p612
I9522
sS'CCGGAA'
p613
I12029
sS'CCGGAC'
p614
I10089
sS'CCGGAG'
p615
I20980
sS'TATCAT'
p616
I18811
sS'CTCGTA'
p617
I3522
sS'TTCCGG'
p618
I12232
sS'TTCCGA'
p619
I6593
sS'TTCCGC'
p620
I9886
sS'GTATAT'
p621
I16279
sS'TATCAC'
p622
I15710
sS'TATCAA'
p623
I17065
sS'TATCAG'
p624
I19370
sS'CCGGAT'
p625
I6466
sS'CTCTTC'
p626
I49630
sS'TGTTAT'
p627
I25106
sS'CTCTTA'
p628
I25543
sS'CTCTTG'
p629
I38491
sS'AGGGCT'
p630
I47350
sS'TACGTA'
p631
I4080
sS'TACGTC'
p632
I3191
sS'TCTGGT'
p633
I32822
sS'CGCGAT'
p634
I3396
sS'TACGTG'
p635
I6107
sS'TGTTAG'
p636
I21268
sS'GGTTTC'
p637
I33852
sS'AAGCTT'
p638
I29920
sS'CTCTTT'
p639
I52287
sS'ACCGAC'
p640
I4664
sS'TCTGGG'
p641
I58751
sS'CGCGAC'
p642
I5064
sS'CCCTGC'
p643
I66310
sS'TCTGGC'
p644
I42057
sS'TACGTT'
p645
I4597
sS'TCTGGA'
p646
I45707
sS'AGTCGT'
p647
I4656
sS'GGTACT'
p648
I12635
sS'TTACCT'
p649
I26847
sS'CTCCAT'
p650
I37800
sS'TATGCC'
p651
I15411
sS'TTACCG'
p652
I4294
sS'CTCCAC'
p653
I46618
sS'AGTCGG'
p654
I7696
sS'TTACCC'
p655
I17675
sS'CTCCAG'
p656
I73275
sS'TTACCA'
p657
I23056
sS'AGTCGC'
p658
I6373
sS'GTACCG'
p659
I3125
sS'CCGACT'
p660
I7515
sS'GCCTAC'
p661
I14109
sS'GCCTAA'
p662
I16629
sS'CCGAGG'
p663
I24098
sS'GCCTAG'
p664
I21227
sS'CCGACA'
p665
I6550
sS'CCCTGT'
p666
I43522
sS'CCGACC'
p667
I10062
sS'CCGACG'
p668
I4888
sS'AAGCTC'
p669
I30057
sS'GCCTAT'
p670
I13998
sS'TGACGG'
p671
I7333
sS'NNCGCT'
p672
I1
sS'ACGCGG'
p673
I8004
sS'CCCGAG'
p674
I21537
sS'AAGCTG'
p675
I45704
sS'GCTGTC'
p676
I33171
sS'CGCACA'
p677
I10812
sS'ATACAC'
p678
I20065
sS'CGCACC'
p679
I12528
sS'ATACAA'
p680
I26971
sS'ACTGCT'
p681
I36463
sS'ATACAG'
p682
I24534
sS'CGCACG'
p683
I7168
sS'GGGTCC'
p684
I26982
sS'CTCACT'
p685
I48088
sS'GGGTCT'
p686
I27501
sS'ACTGCA'
p687
I47621
sS'TTTGTC'
p688
I33665
sS'ACTGCC'
p689
I35849
sS'CGCACT'
p690
I7822
sS'TTTGTG'
p691
I44905
sS'ACTGCG'
p692
I9975
sS'CTCACC'
p693
I43134
sS'CTCACA'
p694
I42718
sS'CTCACG'
p695
I12972
sS'TAGTGG'
p696
I19878
sS'GTGAGG'
p697
I40682
sS'GATTTT'
p698
I39805
sS'TAGTGC'
p699
I13507
sS'GTGAGC'
p700
I37219
sS'TAGTGA'
p701
I19915
sS'GTGAGA'
p702
I35940
sS'TCGACG'
p703
I1701
sS'TCGACA'
p704
I3492
sS'TCGACC'
p705
I3966
sS'ACAATA'
p706
I23576
sS'GTGAGT'
p707
I32305
sS'TAGTGT'
p708
I16608
sS'GTGGGA'
p709
I42813
sS'GTGGGC'
p710
I34444
sS'TCGACT'
p711
I3806
sS'GTGGGN'
p712
I1
sS'ACGTAA'
p713
I5160
sS'CTGGTT'
p714
I37333
sS'TGCAAA'
p715
I46730
sS'CGAACG'
p716
I2424
sS'GCGTCA'
p717
I7000
sS'CGAACC'
p718
I5012
sS'CGAACA'
p719
I4745
sS'CTGGTG'
p720
I45646
sS'CTGGTA'
p721
I21395
sS'CTGGTC'
p722
I33919
sS'CTGCAA'
p723
I42405
sS'CGAACT'
p724
I6108
sS'TTGCAT'
p725
I31103
sS'GACGAG'
p726
I7831
sS'NNGAAT'
p727
I4
sS'TTGCAG'
p728
I42711
sS'GAGGGA'
p729
I58977
sS'TTGCAC'
p730
I23891
sS'TTGCAA'
p731
I33080
sS'AAGATC'
p732
I22758
sS'TCCATC'
p733
I31355
sS'ATTGCG'
p734
I4080
sS'TCGCAT'
p735
I3981
sS'GAGCGG'
p736
I18430
sS'GTCGTG'
p737
I5724
sS'GTCGTA'
p738
I2360
sS'GTCGTC'
p739
I4759
sS'GCGTCC'
p740
I13232
sS'CCGTTT'
p741
I9027
sS'GAGCAA'
p742
I34443
sS'GTCGTT'
p743
I4172
sS'TCGCAG'
p744
I9563
sS'GTGCTC'
p745
I26801
sS'CCAAGC'
p746
I33785
sS'TCGCAC'
p747
I5372
sS'CCGTTG'
p748
I5652
sS'CGCTGC'
p749
I22906
sS'CCGTTC'
p750
I7423
sS'GATCGG'
p751
I4194
sS'AATGCT'
p752
I32954
sS'GGTACG'
p753
I3191
sS'GGTACA'
p754
I15416
sS'GGTACC'
p755
I11193
sS'TATTTG'
p756
I42246
sS'CCAGTT'
p757
I34872
sS'TATTTC'
p758
I39484
sS'TATTTA'
p759
I49615
sS'CCCCCT'
p760
I40538
sS'GCCACT'
p761
I39569
sS'AATGCG'
p762
I5309
sS'AATCTT'
p763
I30420
sS'AATGCC'
p764
I28295
sS'AATGCA'
p765
I37322
sS'CCCCCC'
p766
I29016
sS'CCCCCA'
p767
I52375
sS'TATTTT'
p768
I74263
sS'CCCCCG'
p769
I27836
sS'CTTGAG'
p770
I36546
sS'ATGATG'
p771
I28420
sS'ATGATA'
p772
I18685
sS'CTTGAA'
p773
I36360
sS'TGCAAC'
p774
I24031
sS'TTGAGT'
p775
I27141
sS'TGCAAG'
p776
I31421
sS'GCCGTC'
p777
I9962
sS'ATGATT'
p778
I27998
sS'CTTGAT'
p779
I22126
sS'CGAATC'
p780
I4189
sS'TTGAGG'
p781
I32966
sS'AATCTC'
p782
I28763
sS'CAATGT'
p783
I24387
sS'TTGAGC'
p784
I26220
sS'TTGAGA'
p785
I40053
sS'GAGAAT'
p786
I34055
sS'TGTCTT'
p787
I42448
sS'CGAATA'
p788
I3009
sS'AGTAGC'
p789
I21528
sS'AAGGCC'
p790
I34708
sS'ATAACC'
p791
I15037
sS'AAGGCA'
p792
I46472
sS'ATAACA'
p793
I24835
sS'AAGGCG'
p794
I12648
sS'ATAACG'
p795
I3559
sS'TGTGGT'
p796
I39420
sS'TGTCTG'
p797
I47498
sS'ACGTAG'
p798
I4844
sS'GAGAAA'
p799
I64537
sS'TGTCTC'
p800
I43110
sS'GAGAAC'
p801
I29423
sS'TGTCTA'
p802
I21162
sS'TGTGGC'
p803
I42560
sS'TGTGGA'
p804
I38148
sS'TGTGGG'
p805
I46310
sS'ATAACT'
p806
I20383
sS'AAGGCT'
p807
I37992
sS'TAGGCT'
p808
I20849
sS'AACGGC'
p809
I6331
sS'GCCCCG'
p810
I40801
sS'ACCAAG'
p811
I29138
sS'GGTCAG'
p812
I37132
sS'GCCCCC'
p813
I49047
sS'GGTCAA'
p814
I18617
sS'ACCAAC'
p815
I19963
sS'GGTCAC'
p816
I26391
sS'TAACGA'
p817
I3518
sS'GATCGC'
p818
I5924
sS'GGTCAT'
p819
I20352
sS'CGTGCC'
p820
I12606
sS'AGGTAG'
p821
I24103
sS'AGGTAA'
p822
I26452
sS'GATAGG'
p823
I13631
sS'TTTTGC'
p824
I38267
sS'TCTTAC'
p825
I20640
sS'TTTTGA'
p826
I45750
sS'TCTTAA'
p827
I29865
sS'TTTTGG'
p828
I39534
sS'TCTTAG'
p829
I24074
sS'AATTGC'
p830
I22162
sS'TAGCCA'
p831
I24425
sS'TGGGGT'
p832
I39353
sS'GCAATG'
p833
I25685
sS'GATAAT'
p834
I19155
sS'GAGAAG'
p835
I54321
sS'TAGCCG'
p836
I5559
sS'AATTGT'
p837
I25503
sS'CGAGAG'
p838
I11677
sS'GCCATC'
p839
I26106
sS'TCTTAT'
p840
I25038
sS'TTTTGT'
p841
I63773
sS'CGCTCT'
p842
I14051
sS'TGGGGG'
p843
I52690
sS'GATAAC'
p844
I12286
sS'TAGCCT'
p845
I21914
sS'TGGGGC'
p846
I52330
sS'TGGGGA'
p847
I60249
sS'CTCTCA'
p848
I41546
sS'GATCCT'
p849
I23308
sS'AAGAAT'
p850
I40205
sS'CGAAGT'
p851
I5988
sS'GTTATC'
p852
I12320
sS'AAGAAC'
p853
I31276
sS'GATCCA'
p854
I20193
sS'AAGAAA'
p855
I85010
sS'ATGCCA'
p856
I33324
sS'AAGAAG'
p857
I48964
sS'GATCCG'
p858
I6685
sS'ATACCA'
p859
I19316
sS'GCCCCA'
p860
I52563
sS'ATGCCG'
p861
I6060
sS'CAAGGG'
p862
I34029
sS'ATCGAG'
p863
I4530
sS'CAAGGC'
p864
I37070
sS'GGTTCT'
p865
I28207
sS'CAAGGA'
p866
I41368
sS'GGTTCA'
p867
I23939
sS'GCAACC'
p868
I21941
sS'GGTTCC'
p869
I25764
sS'CAAGGT'
p870
I30537
sS'TGCATT'
p871
I37592
sS'GGTTCG'
p872
I5033
sS'TAGGCA'
p873
I23836
sS'ATTATA'
p874
I24040
sS'ATTATC'
p875
I19237
sS'TAGAAT'
p876
I25177
sS'CAAACG'
p877
I8041
sS'ATTATG'
p878
I21556
sS'AGTCTT'
p879
I30424
sS'TAGAAA'
p880
I41757
sS'TAGAAC'
p881
I17512
sS'ATTATT'
p882
I39121
sS'TAGAAG'
p883
I26908
sS'AGTCTA'
p884
I16623
sS'AGTCTC'
p885
I32788
sS'GTTCTG'
p886
I35097
sS'AGTCTG'
p887
I35233
sS'TAACTC'
p888
I18114
sS'TAACTA'
p889
I15381
sS'TAACTG'
p890
I23229
sS'ATCTAT'
p891
I17962
sS'ACGCGT'
p892
I2845
sS'AGGTAT'
p893
I18829
sS'TAACTT'
p894
I25696
sS'ATCTAG'
p895
I18031
sS'ATCTAC'
p896
I15152
sS'ATCTAA'
p897
I20104
sS'CCATGT'
p898
I32065
sS'ACCAAA'
p899
I32189
sS'TGGAGG'
p900
I58756
sS'TGGAGA'
p901
I53658
sS'TGGAGC'
p902
I42484
sS'CCATGC'
p903
I28412
sS'TCCAGA'
p904
I46060
sS'CCATGA'
p905
I28648
sS'CCATGG'
p906
I34112
sS'TGGAGT'
p907
I40649
sS'ATTACG'
p908
I3635
sS'TCAGTA'
p909
I23350
sS'TCAGTC'
p910
I27649
sS'CTCTCT'
p911
I69642
sS'GGGGAT'
p912
I25488
sS'TCAGTG'
p913
I39360
sS'CGATAT'
p914
I2264
sS'GGGGAA'
p915
I49737
sS'GGGGAC'
p916
I33866
sS'CTCTCC'
p917
I63858
sS'TCAGTT'
p918
I34402
sS'GGGGAG'
p919
I69776
sS'CGATAG'
p920
I2340
sS'CGATAA'
p921
I2857
sS'CGATAC'
p922
I1969
sS'CTAAGG'
p923
I22292
sS'GTGTTT'
p924
I42726
sS'GCTACT'
p925
I21562
sS'GTGGTT'
p926
I30181
sS'TGGNAG'
p927
I1
sS'GTGTTC'
p928
I23680
sS'GTGTTA'
p929
I18143
sS'GTGTTG'
p930
I26240
sS'ACCAAT'
p931
I17863
sS'GTGGTA'
p932
I17886
sS'GCTACA'
p933
I18736
sS'GTGGTC'
p934
I20706
sS'CTAAGC'
p935
I18944
sS'GTGGTG'
p936
I42923
sS'GCTACG'
p937
I4549
sS'GCCCCT'
p938
I45834
sS'TTTCGT'
p939
I6566
sS'TGCCCT'
p940
I52029
sS'CCACTC'
p941
I36737
sS'AGCGTT'
p942
I6892
sS'CGTGCG'
p943
I6955
sS'TTTCGA'
p944
I4817
sS'TTTCGC'
p945
I6127
sS'TGCCCG'
p946
I17458
sS'TTTCGG'
p947
I6787
sS'AGCGTA'
p948
I3443
sS'AGCGTC'
p949
I8489
sS'AGCGTG'
p950
I10890
sS'GGCCCC'
p951
I51342
sS'GGCCCA'
p952
I40630
sS'CACGTG'
p953
I17931
sS'GGCCCG'
p954
I26646
sS'CACGTA'
p955
I5980
sS'TGTACC'
p956
I15306
sS'CACGTC'
p957
I9153
sS'ACGTGC'
p958
I9541
sS'ACGTGA'
p959
I9687
sS'GGGACT'
p960
I32182
sS'ACAGTC'
p961
I25517
sS'CACGTT'
p962
I9479
sS'CTAAGT'
p963
I19522
sS'GGCCCT'
p964
I43369
sS'GGGACA'
p965
I36612
sS'AATTGA'
p966
I21673
sS'GGGACC'
p967
I30192
sS'AGGGAC'
p968
I33982
sS'GTCTCA'
p969
I35067
sS'ACGTGT'
p970
I9396
sS'AGAGAG'
p971
I69634
sS'AGAGAA'
p972
I65399
sS'AGAGAC'
p973
I39199
sS'TCTATA'
p974
I16927
sS'GTCTTT'
p975
I33410
sS'TCTATC'
p976
I15695
sS'TCTATG'
p977
I19144
sS'AGAGAT'
p978
I39378
sS'TTCACA'
p979
I40141
sS'GTCTTG'
p980
I27647
sS'TCTATT'
p981
I26416
sS'GTCTTC'
p982
I27679
sS'GTCTTA'
p983
I16931
sS'GCAGAG'
p984
I64864
sS'CGATTG'
p985
I3754
sS'GCTCAC'
p986
I37605
sS'GCAGAC'
p987
I28039
sS'GCAGAA'
p988
I45325
sS'GCTCAG'
p989
I50598
sS'ATGCGT'
p990
I5037
sS'TTGCTG'
p991
I45805
sS'TTGCTA'
p992
I23567
sS'CGCTCA'
p993
I10498
sS'GCAGAT'
p994
I30802
sS'GCTCAT'
p995
I25386
sS'GTTTGC'
p996
I30695
sS'TTGCTT'
p997
I46478
sS'CGATTC'
p998
I5802
sS'CGCTCC'
p999
I21122
sS'ATGCGC'
p1000
I5869
sS'ATGCGA'
p1001
I3730
sS'TGTAAG'
p1002
I23399
sS'GGCTAG'
p1003
I18249
sS'TGTAAC'
p1004
I19826
sS'GGCTAC'
p1005
I15711
sS'TGTAAA'
p1006
I40788
sS'CTGAAA'
p1007
I51575
sS'ACTGTA'
p1008
I25191
sS'TTGGTA'
p1009
I17992
sS'ACTGTC'
p1010
I25685
sS'TTGGTC'
p1011
I20420
sS'TTCGAC'
p1012
I2972
sS'TTCGAA'
p1013
I4900
sS'TTGGTG'
p1014
I29486
sS'GACTGC'
p1015
I25865
sS'GGCTAT'
p1016
I14928
sS'TGTAAT'
p1017
I34098
sS'GACTGG'
p1018
I33015
sS'TTCGAT'
p1019
I3637
sS'TTGGTT'
p1020
I30926
sS'ACTGTT'
p1021
I29521
sS'GTTTCT'
p1022
I46601
sS'AGGTCC'
p1023
I24696
sS'ATAATT'
p1024
I31891
sS'CCTTTT'
p1025
I49416
sS'GTTTCG'
p1026
I5777
sS'GTTTCC'
p1027
I40753
sS'GTTTCA'
p1028
I35254
sS'ATAATG'
p1029
I24249
sS'CCTTTA'
p1030
I27858
sS'CCTTTC'
p1031
I49320
sS'ATAATC'
p1032
I18581
sS'NNNNGA'
p1033
I4
sS'ATAATA'
p1034
I29536
sS'CCTTTG'
p1035
I42573
sS'ACAGAA'
p1036
I52954
sS'CTCTCG'
p1037
I11521
sS'ACAGAC'
p1038
I32464
sS'ACAGAG'
p1039
I59931
sS'TTATCT'
p1040
I33185
sS'CTGGAC'
p1041
I33025
sS'CTGGAA'
p1042
I59534
sS'CTGGAG'
p1043
I74043
sS'ACAGAT'
p1044
I34204
sS'GATAAG'
p1045
I17552
sS'TTATCA'
p1046
I23606
sS'CTGGAT'
p1047
I32810
sS'TTATCC'
p1048
I18228
sS'CCAATG'
p1049
I21303
sS'AAACCG'
p1050
I7974
sS'ATTTGT'
p1051
I41365
sS'CCAATC'
p1052
I19940
sS'AAACCC'
p1053
I33329
sS'CCAATA'
p1054
I16597
sS'TGTCGG'
p1055
I6633
sS'GAGATC'
p1056
I23148
sS'AACGAG'
p1057
I6695
sS'GAGATA'
p1058
I22160
sS'TGTCGC'
p1059
I7692
sS'GAGATG'
p1060
I41286
sS'TGTCGA'
p1061
I3453
sS'ATTTGA'
p1062
I35516
sS'CCAATT'
p1063
I19840
sS'TCCATA'
p1064
I18888
sS'TTGCCC'
p1065
I33726
sS'ATTTGG'
p1066
I33547
sS'CCCTAG'
p1067
I23898
sS'TGTCGT'
p1068
I5300
sS'CCCTAC'
p1069
I19272
sS'GAGATT'
p1070
I28858
sS'CCCTAA'
p1071
I21179
sS'CATTAT'
p1072
I23977
sS'CTACAC'
p1073
I16440
sS'TGGATT'
p1074
I29291
sS'ATCACA'
p1075
I32256
sS'ATCACC'
p1076
I24712
sS'CATGCT'
p1077
I31297
sS'TGACAC'
p1078
I26916
sS'TGACAA'
p1079
I29907
sS'TGGATA'
p1080
I19152
sS'AGGAAC'
p1081
I34281
sS'CATTAG'
p1082
I18769
sS'CATTAA'
p1083
I25303
sS'TGGATG'
p1084
I31369
sS'CATGCA'
p1085
I32345
sS'TGACAT'
p1086
I31140
sS'CATGCC'
p1087
I33551
sS'ATCACT'
p1088
I29137
sS'CATGCG'
p1089
I7023
sS'GTAGAA'
p1090
I22135
sS'GTAGAC'
p1091
I11561
sS'GTAGAG'
p1092
I23957
sS'GATTGG'
p1093
I19621
sS'ACAACC'
p1094
I20590
sS'GATTGC'
p1095
I17280
sS'ACAACG'
p1096
I5458
sS'ACTAAG'
p1097
I18461
sS'GTAGAT'
p1098
I15099
sS'TGCTAC'
p1099
I17585
sS'ATACGA'
p1100
I3045
sS'TGATGC'
p1101
I23154
sS'GATTGT'
p1102
I18130
sS'ACAACT'
p1103
I24083
sS'GCGCGT'
p1104
I7471
sS'TAATAG'
p1105
I17124
sS'GTCCGG'
p1106
I10058
sS'TAATAC'
p1107
I15336
sS'GTCCGA'
p1108
I4784
sS'TAATAA'
p1109
I33546
sS'GTCCGC'
p1110
I9232
sS'TGTTTA'
p1111
I44540
sS'GATCCC'
p1112
I19429
sS'CACATC'
p1113
I28367
sS'GTCCGT'
p1114
I5455
sS'TAATAT'
p1115
I24881
sS'CGTAAC'
p1116
I3220
sS'GGGNCC'
p1117
I1
sS'ATTCGC'
p1118
I3746
sS'TTCTCC'
p1119
I56099
sS'ATTCGA'
p1120
I4439
sS'TTCTCA'
p1121
I51687
sS'ATTCGG'
p1122
I4724
sS'TTCTCG'
p1123
I8884
sS'TCGTAC'
p1124
I2123
sS'TACCTT'
p1125
I22535
sS'TCGTAA'
p1126
I3575
sS'TCGTAG'
p1127
I3553
sS'TCGTCA'
p1128
I4995
sS'GAACCT'
p1129
I24130
sS'ATCCAA'
p1130
I22949
sS'ATCCAC'
p1131
I23414
sS'TTTCAT'
p1132
I48237
sS'TTCTCT'
p1133
I65657
sS'ATTCGT'
p1134
I4420
sS'GAACCC'
p1135
I23820
sS'TACCTG'
p1136
I27708
sS'TACCTA'
p1137
I15350
sS'TACCTC'
p1138
I20145
sS'TCGTAT'
p1139
I3066
sS'ATGTTA'
p1140
I23927
sS'ACCATA'
p1141
I15439
sS'ACCATG'
p1142
I28963
sS'ATGTTG'
p1143
I29926
sS'AGCTCT'
p1144
I44814
sS'TGTCCT'
p1145
I41661
sS'AGTGGT'
p1146
I29118
sS'CGTGGT'
p1147
I11717
sS'TGATGT'
p1148
I28993
sS'ATGTTT'
p1149
I46113
sS'ACCATT'
p1150
I22610
sS'AGTGGA'
p1151
I34169
sS'AGTGGC'
p1152
I39132
sS'AGCTCC'
p1153
I47152
sS'AGTGGG'
p1154
I40452
sS'TCCATG'
p1155
I30994
sS'CAGTAA'
p1156
I28209
sS'CAGTAC'
p1157
I15926
sS'CAGTAG'
p1158
I24561
sS'CGCGGT'
p1159
I8550
sS'TTTCAC'
p1160
I39069
sS'CAGTAT'
p1161
I19983
sS'ATGGNA'
p1162
I1
sS'AAAGTA'
p1163
I32908
sS'GATGGN'
p1164
I1
sS'TGCCAG'
p1165
I51291
sS'AAAGTG'
p1166
I44547
sS'GATCTA'
p1167
I12126
sS'GATCTC'
p1168
I23295
sS'ATTGAC'
p1169
I14517
sS'GATCTG'
p1170
I26691
sS'TCCCTT'
p1171
I48353
sS'CCGGCC'
p1172
I34385
sS'ATTAGG'
p1173
I17478
sS'AAAGTT'
p1174
I37196
sS'CACATT'
p1175
I37743
sS'ATTAGC'
p1176
I18746
sS'TCCCTC'
p1177
I59884
sS'GAGCTT'
p1178
I29723
sS'TCCCTA'
p1179
I24722
sS'TGCCAC'
p1180
I40266
sS'TCCCTG'
p1181
I66429
sS'GATCTT'
p1182
I22602
sS'CTAGAC'
p1183
I15159
sS'AAGTGA'
p1184
I41145
sS'AAGTGC'
p1185
I32169
sS'TGTTCT'
p1186
I42117
sS'AAGTGG'
p1187
I35316
sS'TGATTG'
p1188
I24046
sS'TCTGAT'
p1189
I31747
sS'TGATTA'
p1190
I21541
sS'TGTTCA'
p1191
I32720
sS'CACAAG'
p1192
I33072
sS'TGTTCC'
p1193
I33158
sS'AAGTGT'
p1194
I29852
sS'CACAAC'
p1195
I23405
sS'TGTTCG'
p1196
I4740
sS'TCTGAA'
p1197
I44288
sS'TGATTT'
p1198
I42673
sS'TCTGAG'
p1199
I50111
sS'CGCGCC'
p1200
I26100
sS'CGCGCA'
p1201
I10203
sS'GGTAAA'
p1202
I23978
sS'CGCGCG'
p1203
I21225
sS'GCNCCA'
p1204
I1
sS'CTCCCT'
p1205
I74757
sS'AGCGGG'
p1206
I18740
sS'AGCGGA'
p1207
I10282
sS'ACCTCT'
p1208
I36845
sS'AGATGA'
p1209
I41104
sS'GACGTG'
p1210
I9306
sS'GACATT'
p1211
I27747
sS'CGCGCT'
p1212
I12068
sS'GTGCGA'
p1213
I5369
sS'ACCTCA'
p1214
I37344
sS'ACCTCG'
p1215
I10672
sS'GTGCGG'
p1216
I12709
sS'TAGCTA'
p1217
I14866
sS'TAAGCC'
p1218
I19207
sS'TAGCTC'
p1219
I19509
sS'TAAGCA'
p1220
I26600
sS'CGGGAA'
p1221
I15843
sS'TAATTT'
p1222
I46196
sS'TAGCTG'
p1223
I30197
sS'CCCATC'
p1224
I34510
sS'CCGAGA'
p1225
I13591
sS'CCTGCT'
p1226
I62142
sS'ATTCCA'
p1227
I44080
sS'CCGAAT'
p1228
I4736
sS'CCCATT'
p1229
I30526
sS'CGGGAT'
p1230
I8399
sS'GCCTCG'
p1231
I20021
sS'TAGCTT'
p1232
I21105
sS'TAAGCT'
p1233
I19394
sS'GCCTCC'
p1234
I72241
sS'CCGAAC'
p1235
I5262
sS'CCTGCG'
p1236
I20566
sS'CCGAAA'
p1237
I6904
sS'CCGAAG'
p1238
I9900
sS'CCTGCC'
p1239
I79106
sS'CCTGCA'
p1240
I54533
sS'CGACAC'
p1241
I5569
sS'CCATTC'
p1242
I33914
sS'TATAAG'
p1243
I15978
sS'TATAAA'
p1244
I36405
sS'TATAAC'
p1245
I13067
sS'GATTTG'
p1246
I27464
sS'CATTTC'
p1247
I49341
sS'TATAAT'
p1248
I24172
sS'CCATTT'
p1249
I42404
sS'TCTACA'
p1250
I23621
sS'TCTACC'
p1251
I20112
sS'CTAACT'
p1252
I18110
sS'TCTACG'
p1253
I4162
sS'CACCGT'
p1254
I10083
sS'CGCAAC'
p1255
I4903
sS'ACTCCA'
p1256
I41548
sS'CGCAAA'
p1257
I6405
sS'ATACCG'
p1258
I2937
sS'GACGCG'
p1259
I7914
sS'AAAGAC'
p1260
I33463
sS'ATACCC'
p1261
I12283
sS'TCTACT'
p1262
I25234
sS'ATACCT'
p1263
I18841
sS'CGCAAT'
p1264
I4226
sS'TAGTAA'
p1265
I18447
sS'TGGGTG'
p1266
I49503
sS'TAGTAC'
p1267
I8763
sS'CTCAAG'
p1268
I36820
sS'CTCAAA'
p1269
I45377
sS'TAGTAG'
p1270
I15491
sS'CTCAAC'
p1271
I22933
sS'GTGTGC'
p1272
I31327
sS'GTGTGA'
p1273
I33559
sS'GTGTGG'
p1274
I41708
sS'TAACGG'
p1275
I3406
sS'CTCAAT'
p1276
I22013
sS'TAGTAT'
p1277
I13073
sS'CTCCCG'
p1278
I29616
sS'GTGTGT'
p1279
I77526
sS'ATCTTT'
p1280
I37960
sS'GTTGGG'
p1281
I28302
sS'GTTGGA'
p1282
I22433
sS'GTTGGC'
p1283
I22698
sS'CCTTGG'
p1284
I45691
sS'CCTTGA'
p1285
I31352
sS'GCGTAT'
p1286
I2831
sS'CCTTGC'
p1287
I33826
sS'GACCTA'
p1288
I13151
sS'GTTGGT'
p1289
I19511
sS'ATCTTG'
p1290
I29085
sS'ATCTTA'
p1291
I22083
sS'TTNNNN'
p1292
I1
sS'ATCTTC'
p1293
I27959
sS'CCTTGT'
p1294
I32847
sS'AGGATA'
p1295
I20292
sS'AAACTA'
p1296
I27915
sS'AGGATG'
p1297
I38099
sS'GACATG'
p1298
I23779
sS'TTGCGT'
p1299
I5426
sS'GACATA'
p1300
I16043
sS'TCGGCG'
p1301
I7551
sS'GAATAT'
p1302
I21898
sS'TCGGCC'
p1303
I15289
sS'CATAGC'
p1304
I17916
sS'TTGCGA'
p1305
I3955
sS'TTGCGC'
p1306
I5827
sS'TTGCGG'
p1307
I7047
sS'NNNGGC'
p1308
I1
sS'GAATAG'
p1309
I17124
sS'TCGGCT'
p1310
I11659
sS'ATCAGC'
p1311
I25542
sS'GAATAC'
p1312
I14485
sS'GAATAA'
p1313
I28021
sS'CACCGC'
p1314
I18146
sS'GTACAT'
p1315
I15522
sS'GGACGA'
p1316
I6859
sS'TACAAG'
p1317
I20240
sS'TGCCTC'
p1318
I53278
sS'GAAATG'
p1319
I48970
sS'AATGAT'
p1320
I28234
sS'GAAATA'
p1321
I39133
sS'GAAATC'
p1322
I29360
sS'GAAATT'
p1323
I36274
sS'AATGAA'
p1324
I50189
sS'ATGTCC'
p1325
I22077
sS'AATGAC'
p1326
I28605
sS'AATGAG'
p1327
I39722
sS'GCGTAC'
p1328
I2555
sS'CTTGGA'
p1329
I35990
sS'CTTGGC'
p1330
I41695
sS'GTCCTT'
p1331
I27908
sS'CTTGGG'
p1332
I43885
sS'TANNAA'
p1333
I1
sS'AGCCCT'
p1334
I47867
sS'GCGTAA'
p1335
I3209
sS'TTGAAT'
p1336
I30692
sS'GTCCTA'
p1337
I14568
sS'CAAGCT'
p1338
I31010
sS'TGCACG'
p1339
I9918
sS'CTTGGT'
p1340
I29250
sS'GTCCTG'
p1341
I38788
sS'TGCACC'
p1342
I27923
sS'TTGAAA'
p1343
I44859
sS'AGCCCG'
p1344
I19476
sS'AGCCCA'
p1345
I48043
sS'TTGAAG'
p1346
I30897
sS'TTAACT'
p1347
I25082
sS'ATAAAT'
p1348
I48439
sS'TGGTCG'
p1349
I5253
sS'TGGTCA'
p1350
I29214
sS'TGGTCC'
p1351
I23358
sS'ACGATT'
p1352
I4166
sS'GAGACT'
p1353
I32613
sS'GATTCA'
p1354
I24844
sS'TGGTCT'
p1355
I33481
sS'ATAAAG'
p1356
I33301
sS'ATAAAA'
p1357
I59365
sS'TCAGCC'
p1358
I49974
sS'ATAAAC'
p1359
I29212
sS'GAGACG'
p1360
I13820
sS'ACGATG'
p1361
I5747
sS'GAGACC'
p1362
I30639
sS'ACGATC'
p1363
I3725
sS'GAGACA'
p1364
I43689
sS'ACGATA'
p1365
I2693
sS'GGTTAC'
p1366
I13388
sS'ATGTGT'
p1367
I36043
sS'GGTTAA'
p1368
I17988
sS'ACCACT'
p1369
I28616
sS'GGTTAG'
p1370
I15374
sS'CTTCCT'
p1371
I79287
sS'GAATGT'
p1372
I31564
sS'GAGGAC'
p1373
I30963
sS'CGTGAA'
p1374
I7809
sS'CTCAGT'
p1375
I40459
sS'TCCGCT'
p1376
I10499
sS'CTTCCA'
p1377
I49045
sS'ATGTGG'
p1378
I33910
sS'ATGTGA'
p1379
I34092
sS'CGTATG'
p1380
I3344
sS'CTTCCG'
p1381
I13778
sS'GGTTAT'
p1382
I15113
sS'TCCGCC'
p1383
I21301
sS'TCCGCA'
p1384
I9253
sS'TCCGCG'
p1385
I10588
sS'AACGTC'
p1386
I5731
sS'AACGTA'
p1387
I4593
sS'AACGTG'
p1388
I9280
sS'CGTGAC'
p1389
I8626
sS'GGTAGC'
p1390
I14475
sS'AGTGTG'
p1391
I36184
sS'TCTTCG'
p1392
I7117
sS'AGTGTA'
p1393
I18517
sS'TCTTCA'
p1394
I41196
sS'AGTGTC'
p1395
I25015
sS'TCTTCC'
p1396
I55842
sS'CGTGAT'
p1397
I7085
sS'ACTCAA'
p1398
I27307
sS'TAAGTC'
p1399
I16299
sS'TAAGTA'
p1400
I20466
sS'CCGTGA'
p1401
I9531
sS'TCTTCT'
p1402
I51994
sS'AGTGTT'
p1403
I31563
sS'GTGCGC'
p1404
I11433
sS'TTGGCA'
p1405
I33945
sS'AAAGGT'
p1406
I31342
sS'TTGGCC'
p1407
I34687
sS'AGTAAC'
p1408
I18339
sS'TTAACG'
p1409
I4003
sS'TTGGCG'
p1410
I7882
sS'GACTTC'
p1411
I26682
sS'TCGAGT'
p1412
I5136
sS'GACTTA'
p1413
I16332
sS'GACTTG'
p1414
I26231
sS'AAAGGG'
p1415
I43253
sS'AAAGGA'
p1416
I56083
sS'TTGGCT'
p1417
I39451
sS'AAAGGC'
p1418
I38760
sS'GAGTAC'
p1419
I11290
sS'GTCGAT'
p1420
I2337
sS'GACTTT'
p1421
I30240
sS'TAAACC'
p1422
I19501
sS'CAAGAA'
p1423
I41474
sS'AGCGAG'
p1424
I14427
sS'CAAGAC'
p1425
I27487
sS'GATTCG'
p1426
I4088
sS'TCAGCG'
p1427
I11164
sS'TTCTTG'
p1428
I41140
sS'TTCTTC'
p1429
I50924
sS'TTCTTA'
p1430
I35036
sS'CAAGAT'
p1431
I29109
sS'CCCGAT'
p1432
I5161
sS'TACGGG'
p1433
I4336
sS'TACGGA'
p1434
I4015
sS'TACGGC'
p1435
I3720
sS'CCAACT'
p1436
I26333
sS'TAGAGT'
p1437
I18585
sS'TACGGT'
p1438
I3466
sS'AGGGCG'
p1439
I21900
sS'AGGGCA'
p1440
I51677
sS'AGGGCC'
p1441
I43125
sS'TCGAGA'
p1442
I7288
sS'TAGAGC'
p1443
I18609
sS'TAGAGA'
p1444
I33167
sS'TAGAGG'
p1445
I25743
sS'GTGTAA'
p1446
I19642
sS'GTGCTG'
p1447
I48986
sS'GTGCTA'
p1448
I17032
sS'ATCTGT'
p1449
I34003
sS'CGAATT'
p1450
I4227
sS'GGCGAC'
p1451
I10987
sS'ATCTGA'
p1452
I32419
sS'GTGCTT'
p1453
I30060
sS'ATCTGC'
p1454
I30784
sS'TCGAGG'
p1455
I8398
sS'CGAATG'
p1456
I5546
sS'ATCTGG'
p1457
I32105
sS'ATCATA'
p1458
I18613
sS'GATAGC'
p1459
I10206
sS'AAGCAG'
p1460
I52556
sS'GATAGA'
p1461
I15964
sS'AAGCAA'
p1462
I46851
sS'CAAACT'
p1463
I35074
sS'ATCATG'
p1464
I23450
sS'TTTACC'
p1465
I24210
sS'GTTATG'
p1466
I15011
sS'CTAGGT'
p1467
I18988
sS'CATTTA'
p1468
I38734
sS'ACGCAT'
p1469
I5005
sS'CATTTG'
p1470
I40718
sS'GTTATA'
p1471
I13231
sS'CAAACA'
p1472
I54456
sS'AAGCAT'
p1473
I29461
sS'CAAACC'
p1474
I29739
sS'GTGGCC'
p1475
I40250
sS'ATCATT'
p1476
I28223
sS'GATAGT'
p1477
I10896
sS'ACGCAG'
p1478
I11595
sS'CTAGGG'
p1479
I23786
sS'GTTATT'
p1480
I23903
sS'CTAGGC'
p1481
I21365
sS'CATTTT'
p1482
I64138
sS'CTAGGA'
p1483
I26404
sS'AAGTTT'
p1484
I38284
sS'TACAGT'
p1485
I24737
sS'CTAACG'
p1486
I3954
sS'GCGCCT'
p1487
I18916
sS'CTAAGA'
p1488
I23883
sS'GGGGCT'
p1489
I48872
sS'TACAGG'
p1490
I33196
sS'AAGTTG'
p1491
I26388
sS'AAGTTA'
p1492
I26039
sS'TACAGC'
p1493
I22549
sS'AAGTTC'
p1494
I26851
sS'TACAGA'
p1495
I31435
sS'GGGGCC'
p1496
I50662
sS'CGGGGG'
p1497
I27633
sS'GGGGCA'
p1498
I44214
sS'GGGGCG'
p1499
I43275
sS'TATATC'
p1500
I13159
sS'TATATA'
p1501
I30522
sS'TGTATA'
p1502
I20770
sS'TATATG'
p1503
I19385
sS'ACATCG'
p1504
I4573
sS'GCTGGG'
p1505
I87623
sS'TCCGGT'
p1506
I6880
sS'TATATT'
p1507
I29902
sS'TGATGG'
p1508
I29257
sS'CATATG'
p1509
I19876
sS'ATGAGT'
p1510
I28487
sS'GCCCAC'
p1511
I34143
sS'TGATGA'
p1512
I32501
sS'TGCCAT'
p1513
I33631
sS'ACTCTT'
p1514
I30123
sS'TGTTTC'
p1515
I45938
sS'CACATA'
p1516
I27013
sS'TTAATT'
p1517
I36519
sS'CACATG'
p1518
I37443
sS'TGTTTG'
p1519
I54414
sS'ATGAGA'
p1520
I35600
sS'ATGAGC'
p1521
I25616
sS'ATGAGG'
p1522
I34820
sS'TTAATA'
p1523
I27879
sS'ACTCTG'
p1524
I43119
sS'TTAATC'
p1525
I19698
sS'ACTCTA'
p1526
I18818
sS'TTTCAG'
p1527
I51653
sS'ACTCTC'
p1528
I27662
sS'TTAATG'
p1529
I25104
sS'AAATTC'
p1530
I37348
sS'GACTGA'
p1531
I27729
sS'AAATTA'
p1532
I46045
sS'AAATTG'
p1533
I31062
sS'CCAGTA'
p1534
I21050
sS'TTCAAT'
p1535
I24840
sS'TCTTGT'
p1536
I32954
sS'NNNNTT'
p1537
I1
sS'AAATTT'
p1538
I48259
sS'CTTAGT'
p1539
I18490
sS'CNCCAA'
p1540
I1
sS'GGGAAC'
p1541
I29686
sS'GGTGCG'
p1542
I12473
sS'GGGAAA'
p1543
I58004
sS'GGGAAG'
p1544
I66261
sS'GGTGCC'
p1545
I31538
sS'GGTGCA'
p1546
I27739
sS'AGAGCG'
p1547
I14135
sS'GCGACT'
p1548
I6159
sS'AGAGCC'
p1549
I43596
sS'AGAGCA'
p1550
I47237
sS'GCGTAG'
p1551
I4164
sS'GGTGCT'
p1552
I33303
sS'NTGCNC'
p1553
I1
sS'CTTGTG'
p1554
I33048
sS'GGGAAT'
p1555
I29380
sS'GCGACG'
p1556
I5731
sS'AGAGCT'
p1557
I44362
sS'GCGACA'
p1558
I7545
sS'TATCGG'
p1559
I2364
sS'GCGACC'
p1560
I8289
sS'AGGTCG'
p1561
I7410
sS'GCAGGA'
p1562
I58382
sS'GCAGGC'
p1563
I50230
sS'AGNTGC'
p1564
I1
sS'GCAGGG'
p1565
I66260
sS'GGCGAT'
p1566
I5996
sS'GCACTA'
p1567
I13257
sS'GCTCGA'
p1568
I5442
sS'GCTCGG'
p1569
I16592
sS'TATTCT'
p1570
I29699
sS'CCGTGG'
p1571
I15942
sS'CTTTAG'
p1572
I24165
sS'GCAGGT'
p1573
I41281
sS'ACCCTA'
p1574
I16103
sS'TATTCC'
p1575
I21645
sS'GGCGAG'
p1576
I17830
sS'TATTCA'
p1577
I27981
sS'GGCGAA'
p1578
I7363
sS'TATTCG'
p1579
I3178
sS'GCTCGT'
p1580
I5971
sS'TGTAGA'
p1581
I23816
sS'GGCTCA'
p1582
I47337
sS'TGTAGC'
p1583
I18421
sS'GGCTCC'
p1584
I51544
sS'TTTACG'
p1585
I4949
sS'TGTAGG'
p1586
I21104
sS'GGCTCG'
p1587
I13999
sS'TTCGGA'
p1588
I5725
sS'TTCGGC'
p1589
I6754
sS'CTTTAC'
p1590
I22397
sS'TTCAAG'
p1591
I36587
sS'TTCGGG'
p1592
I8887
sS'AGCATG'
p1593
I31054
sS'GGCTCT'
p1594
I43557
sS'TGTAGT'
p1595
I21889
sS'TTTACT'
p1596
I37021
sS'AGCATA'
p1597
I18643
sS'AACCTT'
p1598
I25624
sS'TCTTGG'
p1599
I39232
sS'TTCGGT'
p1600
I5294
sS'GTTTAT'
p1601
I29295
sS'TTCAAC'
p1602
I23106
sS'ATACAT'
p1603
I24406
sS'CGCTAC'
p1604
I4271
sS'GTTTAA'
p1605
I27414
sS'TCCAGG'
p1606
I61908
sS'CACGAA'
p1607
I6824
sS'GTTTAG'
p1608
I18803
sS'GAGGTA'
p1609
I19845
sS'CTGGCT'
p1610
I63985
sS'AGGCGG'
p1611
I29366
sS'NCGCTT'
p1612
I1
sS'GTCGGT'
p1613
I4736
sS'AGGCGC'
p1614
I18963
sS'AGGAGT'
p1615
I38290
sS'ACAGCC'
p1616
I43218
sS'GATAAA'
p1617
I28617
sS'ACAGCA'
p1618
I48873
sS'TCCAGC'
p1619
I55484
sS'ACAGCG'
p1620
I12073
sS'AGGAGC'
p1621
I47686
sS'AGGCGT'
p1622
I12458
sS'AGGAGA'
p1623
I61757
sS'GTGGGT'
p1624
I31794
sS'AGGAGG'
p1625
I82422
sS'CTGGCA'
p1626
I50963
sS'GTCGGG'
p1627
I11210
sS'GCGCCC'
p1628
I31871
sS'GTCACC'
p1629
I30782
sS'ACAGCT'
p1630
I42582
sS'GCTCTC'
p1631
I36782
sS'ATTGGT'
p1632
I17824
sS'AATTTT'
p1633
I56699
sS'TGTCAA'
p1634
I25342
sS'TGTCAC'
p1635
I34028
sS'CCCTCT'
p1636
I56635
sS'GCTCTA'
p1637
I18898
sS'AAACAA'
p1638
I74002
sS'ATTGGG'
p1639
I18318
sS'AATTTA'
p1640
I36492
sS'AATTTC'
p1641
I36755
sS'AACGCC'
p1642
I7566
sS'AACGCA'
p1643
I6640
sS'AATTTG'
p1644
I33671
sS'ATTTAC'
p1645
I29933
sS'ATTTAA'
p1646
I44224
sS'ATTTAG'
p1647
I25752
sS'CCCTCG'
p1648
I17258
sS'TAAATA'
p1649
I49860
sS'GGCGTT'
p1650
I7619
sS'CTGACG'
p1651
I8795
sS'TGACCA'
p1652
I28788
sS'TGACCC'
p1653
I27318
sS'TAAATC'
p1654
I23285
sS'TGACCG'
p1655
I6646
sS'CATTCG'
p1656
I5701
sS'TGACCT'
p1657
I39480
sS'CATTCA'
p1658
I37740
sS'NNTTGT'
p1659
I1
sS'GCCTTC'
p1660
I37815
sS'ACAAAT'
p1661
I41535
sS'GATTAA'
p1662
I19659
sS'GTAGGC'
p1663
I14292
sS'GATTAC'
p1664
I19723
sS'GTAGGA'
p1665
I20061
sS'GTAGGG'
p1666
I19239
sS'GATTAG'
p1667
I13972
sS'GGCTTT'
p1668
I39255
sS'ACAAAC'
p1669
I38163
sS'TTTCAA'
p1670
I45313
sS'ACAAAA'
p1671
I64105
sS'ACAAAG'
p1672
I45716
sS'GCGGGC'
p1673
I30945
sS'AGGCGA'
p1674
I10653
sS'GCGGGA'
p1675
I22520
sS'GCGGGG'
p1676
I47402
sS'GATTAT'
p1677
I18555
sS'GTAGGT'
p1678
I16470
sS'GGCGTC'
p1679
I11431
sS'TAATGA'
p1680
I26308
sS'GATGTT'
p1681
I25078
sS'TAATGC'
p1682
I16892
sS'GGAGAT'
p1683
I31545
sS'TAATGG'
p1684
I18240
sS'CAATAA'
p1685
I26982
sS'GCCCTC'
p1686
I47171
sS'GATGTG'
p1687
I28263
sS'GCCCTA'
p1688
I18187
sS'GATGTA'
p1689
I15366
sS'TAATGT'
p1690
I23456
sS'GATGTC'
p1691
I19555
sS'AACCTC'
p1692
I30802
sS'TGAAAT'
p1693
I47812
sS'GCTCTT'
p1694
I34889
sS'TTCTAA'
p1695
I33578
sS'ATTTAT'
p1696
I48286
sS'TTCTAC'
p1697
I22328
sS'TGAAAA'
p1698
I57101
sS'TGAAAC'
p1699
I35489
sS'TGAAAG'
p1700
I43406
sS'TTCTAT'
p1701
I27084
sS'ATCCGC'
p1702
I6950
sS'ATCCGA'
p1703
I4036
sS'ATCCGG'
p1704
I6377
sS'TGGCTC'
p1705
I50047
sS'TGGCTA'
p1706
I24540
sS'GCTACC'
p1707
I14621
sS'TGGCTG'
p1708
I62423
sS'GACCGG'
p1709
I9025
sS'GTCGGA'
p1710
I5166
sS'AGTTGT'
p1711
I24039
sS'AGCTAT'
p1712
I19467
sS'CCCGCA'
p1713
I17479
sS'NNNNCG'
p1714
I1
sS'AAGACA'
p1715
I42422
sS'CTGGCG'
p1716
I17894
sS'CGTCGA'
p1717
I1682
sS'NNNNCA'
p1718
I1
sS'TGGCTT'
p1719
I46221
sS'AGTTGG'
p1720
I26208
sS'GGAGAG'
p1721
I63113
sS'AGCTAC'
p1722
I21920
sS'AGTTGC'
p1723
I21490
sS'AGTTGA'
p1724
I23095
sS'AGCTAG'
p1725
I20476
sS'CGTTGA'
p1726
I4424
sS'TCCAGT'
p1727
I35604
sS'GCACCT'
p1728
I32755
sS'CAGTGT'
p1729
I39006
sS'TAACAA'
p1730
I27370
sS'TCAGGT'
p1731
I33442
sS'TCAAGG'
p1732
I31367
sS'CTGGCC'
p1733
I62837
sS'TCAAGC'
p1734
I25324
sS'CTGCAC'
p1735
I42745
sS'CTAATA'
p1736
I16874
sS'CAGTGC'
p1737
I37718
sS'GCACCC'
p1738
I29874
sS'CAGTGA'
p1739
I50070
sS'CAGTGG'
p1740
I52466
sS'GCACCG'
p1741
I12425
sS'TCAAGT'
p1742
I28476
sS'TCAGGG'
p1743
I44862
sS'TCAGGA'
p1744
I48697
sS'TCAGGC'
p1745
I40037
sS'CGAGCT'
p1746
I9807
sS'CGTTGG'
p1747
I6681
sS'GTCGGC'
p1748
I7973
sS'CAACCA'
p1749
I27629
sS'GTTCAT'
p1750
I21885
sS'TTCCCT'
p1751
I60573
sS'CGAGCG'
p1752
I8991
sS'CGAGCA'
p1753
I8396
sS'GAGCCG'
p1754
I21950
sS'ACGCCA'
p1755
I9136
sS'GTTCAG'
p1756
I28198
sS'TTCCCC'
p1757
I49889
sS'GTTCAC'
p1758
I19864
sS'GTTCAA'
p1759
I24568
sS'GATCAC'
p1760
I21069
sS'GGACCT'
p1761
I24372
sS'TACATG'
p1762
I21188
sS'AAGTAC'
p1763
I17560
sS'AAGTAA'
p1764
I32557
sS'TACATC'
p1765
I15138
sS'AAGTAG'
p1766
I23823
sS'TACATA'
p1767
I22857
sS'GCACAC'
p1768
I31417
sS'GGACCG'
p1769
I10161
sS'AACGCT'
p1770
I6833
sS'GGACCA'
p1771
I23325
sS'TCATCA'
p1772
I32836
sS'GGACCC'
p1773
I26949
sS'CACACG'
p1774
I14261
sS'TACATT'
p1775
I28755
sS'CACACC'
p1776
I41694
sS'GCACAA'
p1777
I25410
sS'AAGTAT'
p1778
I22272
sS'TCTGCC'
p1779
I55610
sS'TCTGCA'
p1780
I48748
sS'TTAAGN'
p1781
I1
sS'TCTGCG'
p1782
I12571
sS'TAGATT'
p1783
I20202
sS'CCCGTC'
p1784
I13311
sS'TTAAGG'
p1785
I22704
sS'CCCGTA'
p1786
I4220
sS'TTAAGA'
p1787
I29845
sS'CCCGTG'
p1788
I13515
sS'TTAAGC'
p1789
I19246
sS'TTACGT'
p1790
I5306
sS'TAGATC'
p1791
I12146
sS'AAACAG'
p1792
I56337
sS'TAGATA'
p1793
I17250
sS'TGCCCA'
p1794
I51728
sS'TAGATG'
p1795
I21716
sS'TCTGCT'
p1796
I52819
sS'TTACGC'
p1797
I3203
sS'TTAAGT'
p1798
I26136
sS'TTACGA'
p1799
I3609
sS'TTACGG'
p1800
I4185
sS'CCCGTT'
p1801
I7874
sS'NNAACT'
p1802
I1
sS'AGTGAC'
p1803
I31817
sS'AGTGAA'
p1804
I37309
sS'GGACGT'
p1805
I7532
sS'AGTGAG'
p1806
I47351
sS'GCGGTC'
p1807
I8614
sS'CGGGCG'
p1808
I25729
sS'AAACAC'
p1809
I42654
sS'TAAGAG'
p1810
I25325
sS'CCTGAT'
p1811
I26885
sS'TAAGAA'
p1812
I34979
sS'CGGGCA'
p1813
I17539
sS'TAAGAC'
p1814
I16942
sS'TGTCAG'
p1815
I35829
sS'AGTGAT'
p1816
I29124
sS'CTTTCC'
p1817
I57500
sS'TAAGAT'
p1818
I21657
sS'CCTGAA'
p1819
I42285
sS'CGGGCT'
p1820
I19754
sS'AGTAAA'
p1821
I37035
sS'CCTGAG'
p1822
I60457
sS'GTTAGG'
p1823
I16795
sS'AACGCG'
p1824
I3851
sS'TCATCT'
p1825
I40664
sS'GTTAGC'
p1826
I12344
sS'GTTAGA'
p1827
I16423
sS'ACCCCC'
p1828
I30287
sS'GACATC'
p1829
I19683
sS'TATACG'
p1830
I2503
sS'GTTAGT'
p1831
I13369
sS'TATACC'
p1832
I10730
sS'TATACA'
p1833
I20678
sS'ATTGGC'
p1834
I20214
sS'CGTATA'
p1835
I2587
sS'CAATTA'
p1836
I20040
sS'TCCACG'
p1837
I11428
sS'GTAATG'
p1838
I16740
sS'TTTATT'
p1839
I72444
sS'GTAATA'
p1840
I16486
sS'ATTGGA'
p1841
I20786
sS'GTAATC'
p1842
I19655
sS'TCTAAC'
p1843
I16508
sS'CGTTCT'
p1844
I8272
sS'GTGAAG'
p1845
I31540
sS'CGGATC'
p1846
I6589
sS'CCACCA'
p1847
I49949
sS'CCACCC'
p1848
I59695
sS'GTTCGT'
p1849
I3854
sS'TTTATG'
p1850
I32911
sS'GTAATT'
p1851
I22598
sS'TTTATC'
p1852
I28725
sS'ACTAGC'
p1853
I12461
sS'TTTATA'
p1854
I36643
sS'ACTAGA'
p1855
I19893
sS'CCACCT'
p1856
I55136
sS'CGTTCG'
p1857
I2498
sS'ACTTGT'
p1858
I25082
sS'CGTTCA'
p1859
I6144
sS'CGTTCC'
p1860
I9246
sS'TCTAAT'
p1861
I21511
sS'CTTTGT'
p1862
I45075
sS'ACTGGG'
p1863
I41885
sS'CGCCAA'
p1864
I7750
sS'ACTGGA'
p1865
I35769
sS'CTCGCA'
p1866
I8447
sS'ACTGGC'
p1867
I31543
sS'TAGTCC'
p1868
I14898
sS'GTGACC'
p1869
I26375
sS'TAGTCA'
p1870
I19427
sS'GTGACA'
p1871
I33618
sS'TAGTCG'
p1872
I2496
sS'GTGACG'
p1873
I8326
sS'TGTCAT'
p1874
I31930
sS'ACTGGT'
p1875
I24861
sS'CTTTGG'
p1876
I45384
sS'CTTTGC'
p1877
I39355
sS'CTTTGA'
p1878
I36222
sS'ACATTA'
p1879
I23473
sS'GTGACT'
p1880
I35018
sS'TAGTCT'
p1881
I17470
sS'GTGCAC'
p1882
I22527
sS'GCGCTT'
p1883
I9227
sS'ACCTAG'
p1884
I18913
sS'CGACGA'
p1885
I2457
sS'ACCTAA'
p1886
I18791
sS'CGACGC'
p1887
I5196
sS'ACCTAC'
p1888
I16736
sS'CCGCAG'
p1889
I23408
sS'CCGCAA'
p1890
I7086
sS'CCGCAC'
p1891
I13109
sS'CTACGG'
p1892
I4804
sS'CGAAGC'
p1893
I8297
sS'ATTACA'
p1894
I34361
sS'CGAAGA'
p1895
I7017
sS'CCCCGT'
p1896
I13723
sS'CGAAGG'
p1897
I9585
sS'GCGCTC'
p1898
I17260
sS'GTGCAT'
p1899
I21773
sS'GCGCTA'
p1900
I4513
sS'NCTGAC'
p1901
I1
sS'CCGCAT'
p1902
I6521
sS'GTTCGC'
p1903
I4459
sS'GAAGAT'
p1904
I27970
sS'GGATCT'
p1905
I21929
sS'ACTTGG'
p1906
I32148
sS'TCGGAC'
p1907
I4679
sS'GAATCT'
p1908
I26174
sS'TCGGAG'
p1909
I10290
sS'GGATCG'
p1910
I5400
sS'GAAGAG'
p1911
I49814
sS'GAAGAA'
p1912
I50576
sS'CGAGAA'
p1913
I8933
sS'GAAGAC'
p1914
I27825
sS'GGATCA'
p1915
I21859
sS'GGATCN'
p1916
I2
sS'GAATCA'
p1917
I28339
sS'GAATCC'
p1918
I21745
sS'TCGGAT'
p1919
I4046
sS'NNNCAG'
p1920
I1
sS'GAATCG'
p1921
I5678
sS'ATGGTC'
p1922
I16243
sS'CAGATG'
p1923
I44204
sS'ACGCCG'
p1924
I7011
sS'CATTCT'
p1925
I41827
sS'ATGGTG'
p1926
I32341
sS'CAGATC'
p1927
I26630
sS'ACGCCC'
p1928
I14937
sS'CAGATA'
p1929
I26683
sS'NCCAAG'
p1930
I1
sS'CAATCG'
p1931
I3738
sS'CTATCT'
p1932
I19579
sS'CAGATT'
p1933
I33213
sS'CTCGAC'
p1934
I5174
sS'ATGGTT'
p1935
I22015
sS'TCGCAA'
p1936
I4128
sS'TGCGTC'
p1937
I7576
sS'NNNTTG'
p1938
I1
sS'AATGGT'
p1939
I22549
sS'CTACGT'
p1940
I4838
sS'AATGGC'
p1941
I26274
sS'AATGGA'
p1942
I35869
sS'AATGGG'
p1943
I30110
sS'CAATAC'
p1944
I13310
sS'GATCAA'
p1945
I15727
sS'CCCCGA'
p1946
I15951
sS'CAACTC'
p1947
I25558
sS'TACGCT'
p1948
I3235
sS'CAATCA'
p1949
I24278
sS'CAACTA'
p1950
I15497
sS'CGTTAG'
p1951
I3885
sS'TTGACC'
p1952
I18356
sS'NAACTA'
p1953
I1
sS'GGAGGG'
p1954
I79847
sS'AAAAGT'
p1955
I43304
sS'GGAGGA'
p1956
I74523
sS'AGCCAA'
p1957
I39237
sS'TGGTAG'
p1958
I20370
sS'CATTCC'
p1959
I42537
sS'GAGTGT'
p1960
I25828
sS'ATGATC'
p1961
I17700
sS'TGGTAA'
p1962
I23338
sS'AAAAGG'
p1963
I49235
sS'GGAGGT'
p1964
I42090
sS'AGCCAT'
p1965
I31186
sS'AAAAGC'
p1966
I42548
sS'AAAAGA'
p1967
I66175
sS'TTGACT'
p1968
I25991
sS'GAGTGG'
p1969
I35275
sS'CGCCAG'
p1970
I18309
sS'TGGTAT'
p1971
I18974
sS'ACGCCT'
p1972
I12311
sS'GAGTGC'
p1973
I27258
sS'CGCCAC'
p1974
I16967
sS'GAGTGA'
p1975
I34392
sS'GCCAGG'
p1976
I73732
sS'GCCAGA'
p1977
I42194
sS'GCCAGC'
p1978
I49251
sS'GCCCGT'
p1979
I9689
sS'CAATCC'
p1980
I19481
sS'TACCGA'
p1981
I3243
sS'TACCGC'
p1982
I4270
sS'TACCGG'
p1983
I4277
sS'GCCCGC'
p1984
I30841
sS'GCCAGT'
p1985
I31041
sS'GCCCGA'
p1986
I12143
sS'GCCCGG'
p1987
I36574
sS'TGCGAT'
p1988
I4690
sS'CTTCAC'
p1989
I31804
sS'CTTCAA'
p1990
I30966
sS'CTTCAG'
p1991
I46630
sS'TCCGAG'
p1992
I10846
sS'TCCGAA'
p1993
I5861
sS'TCCGAC'
p1994
I5199
sS'AATTCA'
p1995
I34755
sS'TNNNNN'
p1996
I2
sS'AATTCC'
p1997
I32810
sS'AATTCG'
p1998
I4368
sS'TCCGAT'
p1999
I3884
sS'GGACAA'
p2000
I26095
sS'ACATAC'
p2001
I20091
sS'TAGCGG'
p2002
I4961
sS'TAGCGA'
p2003
I3497
sS'TAGCGC'
p2004
I4474
sS'GTCATC'
p2005
I22485
sS'GTCATA'
p2006
I16221
sS'GTCATG'
p2007
I23708
sS'AGCAGG'
p2008
I62280
sS'CCAGGT'
p2009
I48142
sS'TTGGAA'
p2010
I40183
sS'TTGGAG'
p2011
I37926
sS'AGCAGA'
p2012
I52315
sS'GTCATT'
p2013
I28266
sS'CCAGGG'
p2014
I70217
sS'AGCAGT'
p2015
I36174
sS'CCAGGA'
p2016
I70856
sS'CCAGGC'
p2017
I82905
sS'TTGGAT'
p2018
I22926
sS'ACGGTA'
p2019
I3599
sS'CATCTG'
p2020
I43895
sS'ACGGTC'
p2021
I5082
sS'CATCTA'
p2022
I21403
sS'ATAGAC'
p2023
I12838
sS'CATCTC'
p2024
I41099
sS'ACGGTG'
p2025
I10051
sS'TCCAAC'
p2026
I23001
sS'GGGGTC'
p2027
I26655
sS'GATCGT'
p2028
I3866
sS'CATCTT'
p2029
I37092
sS'CAAGCA'
p2030
I36208
sS'ACGGTT'
p2031
I4929
sS'GAATTN'
p2032
I1
sS'GTTCTT'
p2033
I31424
sS'ACCTCC'
p2034
I42153
sS'CGTAAT'
p2035
I3550
sS'ACATGC'
p2036
I26321
sS'TCTTGA'
p2037
I31282
sS'ACATGG'
p2038
I32358
sS'AGGGAT'
p2039
I29199
sS'GTAAAC'
p2040
I22628
sS'GGCCAT'
p2041
I25233
sS'CGTAAG'
p2042
I4368
sS'GAGTCA'
p2043
I41161
sS'ACATGT'
p2044
I28126
sS'GTTCTA'
p2045
I17798
sS'GTTCTC'
p2046
I29223
sS'AGGGAG'
p2047
I74109
sS'ACGGAA'
p2048
I7946
sS'CTCGTT'
p2049
I6657
sS'CCCGCC'
p2050
I54435
sS'AGACGC'
p2051
I9918
sS'AGGGAA'
p2052
I60120
sS'GAGTCG'
p2053
I7378
sS'AGCGCA'
p2054
I9704
sS'GTTGTT'
p2055
I27173
sS'ATCCTT'
p2056
I28407
sS'TTGTCG'
p2057
I4155
sS'TTGTCC'
p2058
I25923
sS'TTGTCA'
p2059
I29745
sS'ATCCTC'
p2060
I29850
sS'GTTGTA'
p2061
I15001
sS'ATCCTA'
p2062
I18319
sS'GTTGTC'
p2063
I16788
sS'ATCCTG'
p2064
I35834
sS'GTTGTG'
p2065
I23347
sS'TTGTCT'
p2066
I36203
sS'CTATGC'
p2067
I14566
sS'GTTGTN'
p2068
I1
sS'TGACTA'
p2069
I19540
sS'TGGGCC'
p2070
I40529
sS'TGACTC'
p2071
I41276
sS'TGGGCA'
p2072
I51729
sS'TGGGCG'
p2073
I21906
sS'TGACTG'
p2074
I35683
sS'AAGCCG'
p2075
I11128
sS'AAGCCC'
p2076
I34658
sS'AAGCCA'
p2077
I46227
sS'CAAAAT'
p2078
I45013
sS'TGACTT'
p2079
I36694
sS'TGGGCT'
p2080
I48412
sS'CAAAAC'
p2081
I40293
sS'CAAAAA'
p2082
I60684
sS'AAGCCT'
p2083
I37335
sS'CAAAAG'
p2084
I41983
sS'TCTGAC'
p2085
I30980
sS'TCAATG'
p2086
I20520
sS'CCCTTA'
p2087
I19466
sS'TCAATC'
p2088
I15464
sS'TCAATA'
p2089
I20006
sS'CAGTTC'
p2090
I32547
sS'GACCCG'
p2091
I12114
sS'CAGTTG'
p2092
I27560
sS'GACCCC'
p2093
I26292
sS'CTCTGT'
p2094
I59198
sS'TCAATT'
p2095
I22194
sS'TGGCGT'
p2096
I9088
sS'CTCTGC'
p2097
I65469
sS'GACCCT'
p2098
I25293
sS'CTCTGA'
p2099
I50270
sS'ACAATC'
p2100
I18095
sS'CTCTGG'
p2101
I61265
sS'CAGTTT'
p2102
I45583
sS'GCGAAG'
p2103
I8463
sS'ACGTTC'
p2104
I6373
sS'TGCTGG'
p2105
I63745
sS'CGAGGT'
p2106
I10698
sS'TGCTGA'
p2107
I46177
sS'CCCTTG'
p2108
I34598
sS'GCGAAA'
p2109
I6066
sS'AGCTGC'
p2110
I51614
sS'CCAGAG'
p2111
I61895
sS'GCTGGT'
p2112
I38836
sS'GTGATT'
p2113
I26972
sS'CTACTA'
p2114
I15527
sS'TGCTGT'
p2115
I48958
sS'AGCTGA'
p2116
I45616
sS'GCCCTT'
p2117
I34479
sS'TCGCTA'
p2118
I3513
sS'ATGCGG'
p2119
I6488
sS'GTGATG'
p2120
I28766
sS'CTACTG'
p2121
I24730
sS'GTGATC'
p2122
I21231
sS'GCTGGC'
p2123
I48619
sS'GTGATA'
p2124
I15626
sS'GCTGGA'
p2125
I55974
sS'TGATAA'
p2126
I23399
sS'TGATAC'
p2127
I13172
sS'TGATAG'
p2128
I15194
sS'CTTGTT'
p2129
I35558
sS'GACGGT'
p2130
I5880
sS'GCTAGG'
p2131
I20679
sS'GCTAGA'
p2132
I18329
sS'ATGAAT'
p2133
I34506
sS'GCTAGC'
p2134
I12455
sS'ATAGGG'
p2135
I15143
sS'TGATAT'
p2136
I18896
sS'GCTAGT'
p2137
I12701
sS'ATGAAC'
p2138
I22020
sS'GACGGG'
p2139
I13453
sS'ATGAAA'
p2140
I48144
sS'GACGGA'
p2141
I9043
sS'ATGAAG'
p2142
I34482
sS'GACGGC'
p2143
I9814
sS'CTTGTC'
p2144
I27206
sS'GCACTT'
p2145
I32284
sS'CTACTT'
p2146
I23997
sS'CCCGCT'
p2147
I18828
sS'NNNGAA'
p2148
I4
sS'GNCCGC'
p2149
I1
sS'CCATAG'
p2150
I16578
sS'GGTGAA'
p2151
I30186
sS'GGTGAC'
p2152
I30260
sS'GCGTCT'
p2153
I9850
sS'GACTGT'
p2154
I25731
sS'GGTGAG'
p2155
I42675
sS'GGAATG'
p2156
I40003
sS'CGTCCT'
p2157
I11490
sS'GGCTAA'
p2158
I20120
sS'GGAATC'
p2159
I23567
sS'GGAATA'
p2160
I21169
sS'TTCGAG'
p2161
I7688
sS'GGGGTG'
p2162
I48017
sS'GGTGAT'
p2163
I24398
sS'GCGTCG'
p2164
I5079
sS'CGTCCG'
p2165
I6170
sS'GGAATT'
p2166
I32520
sS'CGTCCC'
p2167
I14902
sS'CGTCCA'
p2168
I8376
sS'CCGTAT'
p2169
I3413
sS'GAAGTC'
p2170
I26616
sS'GAAGTA'
p2171
I21488
sS'GAAGTG'
p2172
I36542
sS'GCCGTA'
p2173
I3673
sS'CCGTAC'
p2174
I3029
sS'CCGTAA'
p2175
I4160
sS'CCGTAG'
p2176
I4779
sS'CTAACA'
p2177
I21264
sS'GCCGTT'
p2178
I6355
sS'CCCTCC'
p2179
I79967
sS'GAAGTT'
p2180
I29745
sS'GGCGCG'
p2181
I25892
sS'ATGCCC'
p2182
I26684
sS'TTAGTT'
p2183
I22939
sS'TATTAG'
p2184
I17032
sS'GGCGCC'
p2185
I30083
sS'TATTAA'
p2186
I28318
sS'GGCGCA'
p2187
I14474
sS'TATTAC'
p2188
I16877
sS'ACTATG'
p2189
I17233
sS'CAACGG'
p2190
I5764
sS'TTTAAG'
p2191
I34707
sS'ACTATC'
p2192
I10901
sS'TTTAAA'
p2193
I75663
sS'ACTATA'
p2194
I14067
sS'TTTAAC'
p2195
I25915
sS'TATTAT'
p2196
I29580
sS'TTAGTG'
p2197
I19075
sS'GGCGCT'
p2198
I18866
sS'TCAACA'
p2199
I30858
sS'TTAGTC'
p2200
I16190
sS'ATGCCT'
p2201
I34643
sS'TTAGTA'
p2202
I18374
sS'TTTAAT'
p2203
I42892
sS'ACTATT'
p2204
I20016
sS'GGGCAT'
p2205
I26333
sS'TTCTAG'
p2206
I28772
sS'TTTCCA'
p2207
I59674
sS'TTTCCC'
p2208
I58293
sS'GTACGT'
p2209
I3497
sS'TATCGA'
p2210
I2111
sS'GTTTGT'
p2211
I38407
sS'TTTCCT'
p2212
I78756
sS'GGGCAG'
p2213
I71621
sS'CCTGGA'
p2214
I61996
sS'GGGCAA'
p2215
I33697
sS'ATCCGT'
p2216
I4517
sS'GGGCAC'
p2217
I33541
sS'GTACGG'
p2218
I3117
sS'GTTTGA'
p2219
I27927
sS'GTTTGG'
p2220
I30895
sS'GTACGA'
p2221
I2183
sS'CCGCTC'
p2222
I18572
sS'GCATGT'
p2223
I25844
sS'CCGCTA'
p2224
I4978
sS'CCGCTG'
p2225
I21041
sS'AGCATT'
p2226
I32861
sS'GCGCGG'
p2227
I27795
sS'GCGCGC'
p2228
I26571
sS'GCGCGA'
p2229
I7647
sS'GCATGG'
p2230
I28259
sS'TGGATC'
p2231
I20360
sS'GCATGC'
p2232
I23185
sS'CCGCTT'
p2233
I10646
sS'GCATGA'
p2234
I26145
sS'GTCGAC'
p2235
I2468
sS'GTCGAA'
p2236
I2975
sS'GTCGAG'
p2237
I5002
sS'CGTGGC'
p2238
I15999
sS'GAGCTA'
p2239
I19274
sS'TGCGCT'
p2240
I9729
sS'GAGCTC'
p2241
I35817
sS'ATTGAT'
p2242
I16585
sS'GAGCTG'
p2243
I58146
sS'AAACGA'
p2244
I7968
sS'AAACGC'
p2245
I8117
sS'GTNNNN'
p2246
I1
sS'GTAACA'
p2247
I19736
sS'CACGCG'
p2248
I7816
sS'AAACGG'
p2249
I8757
sS'ATTGAA'
p2250
I24666
sS'TGCGCG'
p2251
I10104
sS'TGTCCA'
p2252
I32875
sS'TGTCCG'
p2253
I7633
sS'TGCGCC'
p2254
I14647
sS'ATTGAG'
p2255
I21639
sS'TGCGCA'
p2256
I9042
sS'GCGCAG'
p2257
I20180
sS'AAACGT'
p2258
I9403
sS'NNNNNT'
p2259
I1
sS'TGGGTT'
p2260
I32657
sS'ATTTCA'
p2261
I48355
sS'ATTTCC'
p2262
I45541
sS'ATCAGT'
p2263
I22886
sS'ATCGGG'
p2264
I5236
sS'CATAGT'
p2265
I17270
sS'AAATCA'
p2266
I42522
sS'ATCGGC'
p2267
I4352
sS'CCGTGT'
p2268
I10337
sS'ATCGGA'
p2269
I3747
sS'ATTTCT'
p2270
I55820
sS'CGATCA'
p2271
I3601
sS'TGGGTC'
p2272
I27435
sS'TGGGTA'
p2273
I22024
sS'CATAGG'
p2274
I16673
sS'ATCGGT'
p2275
I3150
sS'ATCAGG'
p2276
I26452
sS'ATCAGA'
p2277
I31981
sS'CATAGA'
p2278
I19387
sS'ACGGGT'
p2279
I5951
sS'GTCTGA'
p2280
I27666
sS'GATTCT'
p2281
I29328
sS'CTTTTG'
p2282
I41932
sS'TACTAG'
p2283
I11331
sS'CTTTTC'
p2284
I54593
sS'CAGCAA'
p2285
I45955
sS'CTTTTA'
p2286
I38724
sS'GATTCC'
p2287
I23508
sS'ACGGGG'
p2288
I13839
sS'NNNNCT'
p2289
I1
sS'ACGGGA'
p2290
I9600
sS'ACGGGC'
p2291
I9845
sS'TACTAT'
p2292
I15254
sS'CTTTTT'
p2293
I65890
sS'CGTAGA'
p2294
I4113
sS'TCACGA'
p2295
I6195
sS'TCACGC'
p2296
I11061
sS'TCACGG'
p2297
I9596
sS'TCACGT'
p2298
I9608
sS'GTCCTC'
p2299
I30805
sS'TTCCAC'
p2300
I36801
sS'TTCCAA'
p2301
I40706
sS'TTCCAG'
p2302
I59807
sS'ACCCTT'
p2303
I24817
sS'TGAAGT'
p2304
I32163
sS'CCACAT'
p2305
I34287
sS'AGGCAC'
p2306
I36512
sS'GCCCTG'
p2307
I65484
sS'TGAAGC'
p2308
I31596
sS'TGAAGA'
p2309
I41514
sS'TGAAGG'
p2310
I38673
sS'ACCCTG'
p2311
I42333
sS'CTGACT'
p2312
I39353
sS'CCCCTT'
p2313
I37977
sS'AGTTAT'
p2314
I20664
sS'GCGTTA'
p2315
I3408
sS'CTGACC'
p2316
I37178
sS'CTGACA'
p2317
I36290
sS'AGTTAA'
p2318
I25286
sS'CCCCTG'
p2319
I51142
sS'AGTTAC'
p2320
I18809
sS'CCCCTC'
p2321
I57644
sS'AGTTAG'
p2322
I18411
sS'CCCCTA'
p2323
I20414
sS'ACACAG'
p2324
I54835
sS'ACACAA'
p2325
I37772
sS'ACACAC'
p2326
I77589
sS'AATGTT'
p2327
I38652
sS'CTGCAG'
p2328
I79154
sS'CATGGG'
p2329
I30690
sS'CATGGA'
p2330
I30821
sS'CATGGC'
p2331
I32363
sS'AATGTC'
p2332
I27601
sS'ACACAT'
p2333
I36221
sS'AATGTA'
p2334
I28829
sS'AATGTG'
p2335
I37548
sS'AGCTAA'
p2336
I23799
sS'CATGGT'
p2337
I29062
sS'CTGCAT'
p2338
I36127
sS'GCACAG'
p2339
I46911
sS'ACATTT'
p2340
I53401
sS'CGAGAT'
p2341
I7497
sS'ATTACT'
p2342
I22709
sS'CACAAT'
p2343
I26992
sS'ACATTG'
p2344
I24045
sS'ACGCTC'
p2345
I7551
sS'ACATTC'
p2346
I32126
sS'GTTCGA'
p2347
I4652
sS'CCACAC'
p2348
I42079
sS'ATTACC'
p2349
I15551
sS'CGAGAC'
p2350
I10371
sS'GTTCGG'
p2351
I5354
sS'AAGTCT'
p2352
I30190
sS'GCTATT'
p2353
I19709
sS'GGACAT'
p2354
I22120
sS'GCTATA'
p2355
I11997
sS'GCTATC'
p2356
I10198
sS'AAGTCG'
p2357
I5562
sS'AAGTCA'
p2358
I36918
sS'GCTATG'
p2359
I17841
sS'AAGTCC'
p2360
I26971
sS'GGACAG'
p2361
I42881
sS'GGACAC'
p2362
I28234
sS'CTATCG'
p2363
I2401
sS'CTAATT'
p2364
I25343
sS'AGGGTT'
p2365
I28808
sS'GAGGCG'
p2366
I27692
sS'TGTTGG'
p2367
I32504
sS'GAGGCA'
p2368
I53053
sS'TGTTGA'
p2369
I30656
sS'GAGGCC'
p2370
I53986
sS'TGTTGC'
p2371
I29723
sS'TCCAAG'
p2372
I36052
sS'ACTCGA'
p2373
I4894
sS'TAAAAT'
p2374
I56266
sS'ACTCGC'
p2375
I7268
sS'ACTCGG'
p2376
I10374
sS'TGTTGT'
p2377
I32379
sS'GAGGCT'
p2378
I55920
sS'AGCGCC'
p2379
I18723
sS'AGGGTG'
p2380
I42592
sS'AGGGTA'
p2381
I18244
sS'AGCGCG'
p2382
I12291
sS'AGGGTC'
p2383
I25428
sS'TAAAAG'
p2384
I38751
sS'ACTCGT'
p2385
I4790
sS'TAAAAC'
p2386
I34882
sS'TAAAAA'
p2387
I71204
sS'CTACTC'
p2388
I20986
sS'TAGGGA'
p2389
I24667
sS'ACGTTA'
p2390
I4540
sS'TAGGGC'
p2391
I17821
sS'ACGTTG'
p2392
I6169
sS'AGCTGG'
p2393
I64165
sS'TAGGGG'
p2394
I20425
sS'AGTGCG'
p2395
I7646
sS'AGTGCA'
p2396
I33188
sS'AGAGTT'
p2397
I32215
sS'AGTGCC'
p2398
I30874
sS'AAAACC'
p2399
I39161
sS'TAGGGT'
p2400
I16383
sS'GCATAG'
p2401
I14512
sS'AGCTGT'
p2402
I42562
sS'ACGTTT'
p2403
I9427
sS'AGTGCT'
p2404
I38913
sS'AGAGTC'
p2405
I28354
sS'AGAGTA'
p2406
I21686
sS'AGAGTG'
p2407
I36751
sS'TAACCC'
p2408
I15148
sS'GTTAAA'
p2409
I26098
sS'CCTGGC'
p2410
I73529
sS'GTTAAC'
p2411
I12914
sS'GTCTGT'
p2412
I33045
sS'CCTGGG'
p2413
I94435
sS'GTTAAG'
p2414
I18153
sS'TTCGTC'
p2415
I4806
sS'CTAATC'
p2416
I14155
sS'GTCTGG'
p2417
I35890
sS'GTCTGC'
p2418
I27896
sS'GTTAAT'
p2419
I17597
sS'CCTGGT'
p2420
I41754
sS'CCGGTC'
p2421
I9179
sS'GGAAGG'
p2422
I66730
sS'ATGCTT'
p2423
I29643
sS'GGAAGC'
p2424
I46699
sS'CTAATG'
p2425
I18745
sS'GGAAGA'
p2426
I55521
sS'TGTATT'
p2427
I34961
sS'CAATGA'
p2428
I27748
sS'GCGTTC'
p2429
I7016
sS'CAATGC'
p2430
I20533
sS'GCGTTG'
p2431
I6217
sS'CAATGG'
p2432
I24068
sS'ATGCTG'
p2433
I38914
sS'GGAAGT'
p2434
I39756
sS'ATGCTC'
p2435
I23077
sS'ATGCTA'
p2436
I18709
sS'AAACCA'
p2437
I44915
sS'TCCTCG'
p2438
I13584
sS'TGTATG'
p2439
I22983
sS'TCCTCA'
p2440
I47423
sS'GCGTTT'
p2441
I8542
sS'TCCTCC'
p2442
I74209
sS'TGTATC'
p2443
I16958
sS'GTGAAT'
p2444
I24915
sS'TAACCG'
p2445
I3482
sS'TCATAG'
p2446
I19752
sS'TTCGTG'
p2447
I6809
sS'TCATAA'
p2448
I24527
sS'TTCGTA'
p2449
I3599
sS'TCATAC'
p2450
I14714
sS'TAACCA'
p2451
I21908
sS'ACCGCT'
p2452
I7262
sS'TCGCGA'
p2453
I2944
sS'AACCCA'
p2454
I32620
sS'TTCGTT'
p2455
I6566
sS'TCATAT'
p2456
I22233
sS'TAACCT'
p2457
I20913
sS'CGTTAT'
p2458
I3566
sS'GTGAAA'
p2459
I39077
sS'GTGAAC'
p2460
I19813
sS'CAATAG'
p2461
I16714
sS'AACCCG'
p2462
I9644
sS'ACCGCG'
p2463
I8552
sS'ACCGCA'
p2464
I8862
sS'CCCTAT'
p2465
I15108
sS'ACCGCC'
p2466
I13316
sS'AGTTCC'
p2467
I29320
sS'CCGCCT'
p2468
I29732
sS'AGGCTT'
p2469
I37566
sS'CCTTCT'
p2470
I53273
sS'GTTGCA'
p2471
I23895
sS'AACGAA'
p2472
I6622
sS'GTTGCC'
p2473
I23997
sS'GTGCCG'
p2474
I9886
sS'GTGCCA'
p2475
I33160
sS'GTTGCG'
p2476
I4774
sS'GTGCCC'
p2477
I33641
sS'CCGCCG'
p2478
I32069
sS'AGGCTA'
p2479
I22205
sS'CCTTCC'
p2480
I66954
sS'AGGCTC'
p2481
I39981
sS'CCGCCC'
p2482
I51345
sS'AACGAC'
p2483
I4166
sS'CCGCCA'
p2484
I19151
sS'AGGCTG'
p2485
I82920
sS'GTGCCT'
p2486
I36182
sS'GTTGCT'
p2487
I26682
sS'NNNGCG'
p2488
I1
sS'GGATAT'
p2489
I15465
sS'TCGGGT'
p2490
I7213
sS'AAACCT'
p2491
I36309
sS'GCAGTT'
p2492
I29906
sS'GAAGCT'
p2493
I37323
sS'GGATAA'
p2494
I18143
sS'TCGGGA'
p2495
I11122
sS'NNNNNG'
p2496
I6
sS'TCGGGG'
p2497
I16013
sS'GGATAG'
p2498
I13232
sS'GAAGCG'
p2499
I11919
sS'GCAGTG'
p2500
I53410
sS'GAAGCC'
p2501
I38941
sS'GCAGTA'
p2502
I20098
sS'GAAGCA'
p2503
I41663
sS'GCAGTC'
p2504
I25786
sS'CGCCCG'
p2505
I25646
sS'CTATAN'
p2506
I1
sS'GAGAGA'
p2507
I62362
sS'GAGAGG'
p2508
I59387
sS'CGCCCA'
p2509
I21844
sS'AGTTTG'
p2510
I35427
sS'CTATAG'
p2511
I12405
sS'NNNNNN'
p2512
I1321
sS'GCATTC'
p2513
I25169
sS'CTATAA'
p2514
I18884
sS'AACTCA'
p2515
I31575
sS'ACGTAC'
p2516
I3568
sS'GAGAGT'
p2517
I27545
sS'AAACAT'
p2518
I46794
sS'CTATAT'
p2519
I14948
sS'AGTTTC'
p2520
I38375
sS'GCCGGG'
p2521
I39567
sS'AGCATC'
p2522
I27023
sS'GCCGGC'
p2523
I26487
sS'CATGTT'
p2524
I33102
sS'GCCGGA'
p2525
I13957
sS'AGATCT'
p2526
I27604
sS'AGTTTA'
p2527
I28148
sS'TACCCA'
p2528
I21673
sS'CATGTA'
p2529
I20937
sS'CATGTC'
p2530
I23612
sS'GCCGGT'
p2531
I9732
sS'CATGTG'
p2532
I37444
sS'GTACTC'
p2533
I11112
sS'GGCCTG'
p2534
I57915
sS'GGCCTC'
p2535
I53429
sS'NNGCGC'
p2536
I1
sS'GGCCTA'
p2537
I15691
sS'AATCGG'
p2538
I4544
sS'AATCGC'
p2539
I5455
sS'AATCGA'
p2540
I3837
sS'TTCCCA'
p2541
I57963
sS'GGCCTT'
p2542
I34393
sS'TCACTA'
p2543
I19987
sS'CAGCGA'
p2544
I11840
sS'AATCGT'
p2545
I4125
sS'AGCCGA'
p2546
I11710
sS'GAGCGT'
p2547
I7695
sS'AGCCGC'
p2548
I19786
sS'TAATTG'
p2549
I20057
sS'AAAAAT'
p2550
I83158
sS'AGCCGG'
p2551
I21151
sS'GTTTTT'
p2552
I52230
sS'TGGTGA'
p2553
I38808
sS'TCTCAT'
p2554
I35642
sS'TGGTGC'
p2555
I30313
sS'GATGGC'
p2556
I25741
sS'GGGCTG'
p2557
I68639
sS'TGGTGG'
p2558
I49636
sS'GATGGG'
p2559
I34609
sS'AAAAAA'
p2560
I205628
sS'GTTTTA'
p2561
I34460
sS'GGGCTC'
p2562
I44497
sS'GTTTTG'
p2563
I39952
sS'TTCCCG'
p2564
I16121
sS'AAAAAG'
p2565
I66194
sS'TGACAG'
p2566
I39642
sS'CCAAGG'
p2567
I45343
sS'ACGTAT'
p2568
I4322
sS'TCTCAG'
p2569
I53455
sS'GATGGT'
p2570
I22124
sS'TGGTGT'
p2571
I31653
sS'GGGCTT'
p2572
I34663
sS'AGAACT'
p2573
I34912
sS'GCATTA'
p2574
I17090
sS'CCTTCG'
p2575
I9551
sS'TACCAT'
p2576
I18377
sS'CCTATT'
p2577
I19737
sS'CACTGT'
p2578
I42034
sS'ACCCGA'
p2579
I7445
sS'ATGTCT'
p2580
I30076
sS'ACCCGC'
p2581
I13886
sS'AGATAA'
p2582
I33176
sS'TACCAC'
p2583
I17731
sS'AGAACG'
p2584
I8145
sS'TCCCGA'
p2585
I11186
sS'AGAACA'
p2586
I41991
sS'TACCAG'
p2587
I21610
sS'AGAACC'
p2588
I27966
sS'ATGTCA'
p2589
I30543
sS'CACTGG'
p2590
I44245
sS'CCTATG'
p2591
I16643
sS'ATCACG'
p2592
I7148
sS'CCTATA'
p2593
I12836
sS'CACTGC'
p2594
I53646
sS'CCTATC'
p2595
I13729
sS'CAGCGT'
p2596
I12223
sS'TAGGTT'
p2597
I17669
sS'GTTTAC'
p2598
I22535
sS'AATTAT'
p2599
I31879
sS'CTGTTG'
p2600
I36258
sS'GTAACC'
p2601
I13213
sS'CTGTTC'
p2602
I34738
sS'CGGGTT'
p2603
I9705
sS'CTGTTA'
p2604
I24267
sS'AATTAC'
p2605
I22682
sS'AATTAA'
p2606
I36521
sS'AATTAG'
p2607
I25037
sS'TAGGTC'
p2608
I13296
sS'CGGGTC'
p2609
I12100
sS'CTGTTT'
p2610
I56551
sS'CGGGTA'
p2611
I5118
sS'CGGGTG'
p2612
I16518
sS'GGGTAC'
p2613
I10794
sS'CTTCGG'
p2614
I9794
sS'CACACT'
p2615
I36255
sS'TAAGNT'
p2616
I1
sS'CATTAC'
p2617
I16994
sS'TTAGGG'
p2618
I21125
sS'ATATAT'
p2619
I34731
sS'AGCAAC'
p2620
I27170
sS'TTAGGC'
p2621
I16773
sS'AAAGCT'
p2622
I39091
sS'TTAGGA'
p2623
I25787
sS'AAAGCA'
p2624
I54368
sS'ATATAG'
p2625
I14780
sS'TTAGGT'
p2626
I18413
sS'ATATAA'
p2627
I26676
sS'AGCAAT'
p2628
I29829
sS'ATATAC'
p2629
I16273
sS'ATAGCA'
p2630
I22096
sS'ATAGCC'
p2631
I14693
sS'TACTTG'
p2632
I21368
sS'ATAGCG'
p2633
I3228
sS'CAGCAT'
p2634
I38797
sS'CAGCGC'
p2635
I21610
sS'ACGGCT'
p2636
I8375
sS'ATAGCT'
p2637
I19479
sS'TACTTT'
p2638
I32847
sS'GTTTTC'
p2639
I41699
sS'CGAGTT'
p2640
I6280
sS'TCCAAT'
p2641
I20911
sS'CGTACT'
p2642
I3092
sS'TCCCGT'
p2643
I9647
sS'TATGCT'
p2644
I18823
sS'CTTAAG'
p2645
I22744
sS'ACATAA'
p2646
I26929
sS'CTTAAA'
p2647
I34821
sS'ACATAG'
p2648
I20376
sS'CTTAAC'
p2649
I18132
sS'CGTACA'
p2650
I3762
sS'CGTACC'
p2651
I3152
sS'CGAGTA'
p2652
I4379
sS'CGAGTC'
p2653
I8302
sS'AGGGGA'
p2654
I51093
sS'CTTAAT'
p2655
I22179
sS'AGGGGC'
p2656
I45754
sS'TATGCA'
p2657
I22219
sS'ACATAT'
p2658
I24933
sS'TCATTA'
p2659
I26050
sS'CGACTT'
p2660
I5615
sS'TGAATT'
p2661
I34958
sS'TTGTAA'
p2662
I29761
sS'CACAAA'
p2663
I45077
sS'TTGTAC'
p2664
I15354
sS'GTACCT'
p2665
I15704
sS'NNCAGA'
p2666
I1
sS'TCATTG'
p2667
I27599
sS'TGAATC'
p2668
I24980
sS'ACAACA'
p2669
I32870
sS'TGAATA'
p2670
I28216
sS'GGATAC'
p2671
I11041
sS'TGAATG'
p2672
I36944
sS'CACACA'
p2673
I92594
sS'CGACTG'
p2674
I6908
sS'TTGTAT'
p2675
I26955
sS'ATCGTG'
p2676
I5838
sS'GCTTCG'
p2677
I8225
sS'GCTTCA'
p2678
I31730
sS'GCTTCC'
p2679
I46750
sS'TGGGAG'
p2680
I70132
sS'TGGGAA'
p2681
I57621
sS'TGGGAC'
p2682
I31619
sS'GCTTCT'
p2683
I42824
sS'ATCGTT'
p2684
I4225
sS'GATTGA'
p2685
I15494
sS'ATCGTA'
p2686
I2840
sS'TGGGAT'
p2687
I37646
sS'CTAGCC'
p2688
I18234
sS'CTAGCA'
p2689
I20112
sS'CTAGCG'
p2690
I5104
sS'CGGTAG'
p2691
I4988
sS'ACTTAG'
p2692
I19468
sS'ACTTAA'
p2693
I25909
sS'CGGTAC'
p2694
I3191
sS'ACTTAC'
p2695
I18099
sS'CGGTAA'
p2696
I4345
sS'GACCAG'
p2697
I33932
sS'GACCAC'
p2698
I20612
sS'CTAGCT'
p2699
I20357
sS'TACACC'
p2700
I13597
sS'CGGTAT'
p2701
I2811
sS'TACACA'
p2702
I32431
sS'TACACG'
p2703
I5074
sS'GCGAGA'
p2704
I10967
sS'GAGAGC'
p2705
I36525
sS'GCGAGC'
p2706
I13136
sS'GGCCGT'
p2707
I10682
sS'GCGAGG'
p2708
I18987
sS'CAGCCG'
p2709
I22276
sS'CAGCCA'
p2710
I62864
sS'CAGCCC'
p2711
I68902
sS'TCCGGG'
p2712
I18969
sS'GCGAGT'
p2713
I7275
sS'GAACTG'
p2714
I33031
sS'CCCTCA'
p2715
I42207
sS'GAACTC'
p2716
I26568
sS'GAACTA'
p2717
I16454
sS'GGACTT'
p2718
I26989
sS'CACCTA'
p2719
I22078
sS'AACTAT'
p2720
I18375
sS'CACCTC'
p2721
I47111
sS'CACCTG'
p2722
I59509
sS'TGATCC'
p2723
I21903
sS'AACACT'
p2724
I31183
sS'TGATCA'
p2725
I21337
sS'TGATCG'
p2726
I3585
sS'NAGAAA'
p2727
I1
sS'AACTAG'
p2728
I17983
sS'GGACTG'
p2729
I32453
sS'CACCTT'
p2730
I35555
sS'GGACTA'
p2731
I14768
sS'GGACTC'
p2732
I25849
sS'AACGAT'
p2733
I4190
sS'AACACG'
p2734
I8803
sS'TGCAAT'
p2735
I28331
sS'CGTCTC'
p2736
I13649
sS'AACACC'
p2737
I25107
sS'TGATCT'
p2738
I28716
sS'CCAGCA'
p2739
I63960
sS'ACGCAC'
p2740
I8380
sS'CAACAG'
p2741
I36656
sS'GACAGT'
p2742
I25400
sS'CAACAA'
p2743
I33398
sS'CCAGCC'
p2744
I82909
sS'CAACAC'
p2745
I26630
sS'GCTGAT'
p2746
I25403
sS'ACCACA'
p2747
I39606
sS'ACGCAA'
p2748
I5431
sS'GACAGG'
p2749
I41941
sS'CAACAT'
p2750
I30053
sS'GACAGC'
p2751
I32968
sS'GACAGA'
p2752
I45303
sS'GTATTA'
p2753
I15240
sS'GTATTC'
p2754
I14368
sS'GTAAGT'
p2755
I18096
sS'CCAGCG'
p2756
I20468
sS'GTATTG'
p2757
I13070
sS'GGTGGC'
p2758
I49272
sS'TCCCCT'
p2759
I50794
sS'GGTGGA'
p2760
I41210
sS'TATCTT'
p2761
I27015
sS'GGTGGG'
p2762
I60905
sS'ATCCCT'
p2763
I29352
sS'AGAGGC'
p2764
I51257
sS'GTAAGA'
p2765
I20571
sS'AGAGGA'
p2766
I57895
sS'GTAAGC'
p2767
I13879
sS'AGAGGG'
p2768
I56366
sS'GTAAGG'
p2769
I16896
sS'CGTCTA'
p2770
I3836
sS'CGTCAC'
p2771
I8237
sS'TCCCCC'
p2772
I41417
sS'GGTGGT'
p2773
I31476
sS'CGTCAG'
p2774
I8861
sS'GTCGCG'
p2775
I5301
sS'GTCGCA'
p2776
I4765
sS'GTCGCC'
p2777
I10867
sS'CCGTCT'
p2778
I12902
sS'TCGGTA'
p2779
I3178
sS'CTCGCG'
p2780
I9448
sS'TCGGTG'
p2781
I8220
sS'GTCGCT'
p2782
I6977
sS'CCGTCG'
p2783
I4755
sS'CCGTCA'
p2784
I7256
sS'TCGGTT'
p2785
I5549
sS'GGCTGT'
p2786
I43053
sS'CGCGTG'
p2787
I7633
sS'GCATTT'
p2788
I41182
sS'CGCGTC'
p2789
I7666
sS'CGCGTA'
p2790
I1801
sS'CCACTG'
p2791
I52494
sS'CCACTA'
p2792
I19775
sS'TTTAGC'
p2793
I21188
sS'CGCGTT'
p2794
I3925
sS'GGCTGG'
p2795
I82836
sS'GGCTGA'
p2796
I49917
sS'GGCTGC'
p2797
I60448
sS'ATGCAT'
p2798
I26031
sS'TTTAGA'
p2799
I31191
sS'ATGACG'
p2800
I5933
sS'GGAGTT'
p2801
I34026
sS'ATGACA'
p2802
I32077
sS'ATGACC'
p2803
I20327
sS'CGGGCC'
p2804
I26440
sS'GGGCCT'
p2805
I43990
sS'ATGACT'
p2806
I32843
sS'GGAGTA'
p2807
I17027
sS'CTACGC'
p2808
I4170
sS'GGAGTC'
p2809
I29387
sS'GGAGTG'
p2810
I41667
sS'GGGCCG'
p2811
I30105
sS'GGGCCC'
p2812
I45312
sS'GGGCCA'
p2813
I41353
sS'CTGATC'
p2814
I21097
sS'ACGAGT'
p2815
I4684
sS'TTCNNN'
p2816
I4
sS'AGGCCA'
p2817
I50790
sS'GCGCAC'
p2818
I11459
sS'AAAGTC'
p2819
I30349
sS'AGGCCG'
p2820
I21745
sS'ACGAGG'
p2821
I10411
sS'ACGAGC'
p2822
I5958
sS'ACGAGA'
p2823
I6615
sS'GGCAAC'
p2824
I24461
sS'AGGCCT'
p2825
I45486
sS'ACATCT'
p2826
I30891
sS'GGGTTG'
p2827
I25685
sS'GACTAC'
p2828
I12282
sS'GGGTTA'
p2829
I15539
sS'CTCGGG'
p2830
I21141
sS'GGGTTC'
p2831
I24033
sS'TTTGAT'
p2832
I29405
sS'TGAACT'
p2833
I32067
sS'CTACGA'
p2834
I3619
sS'ATTGCT'
p2835
I29548
sS'GGGTTT'
p2836
I33671
sS'TGCGAC'
p2837
I4729
sS'AGATCC'
p2838
I21893
sS'TGCGAG'
p2839
I8560
sS'ATTGCC'
p2840
I20684
sS'TTTGAG'
p2841
I45306
sS'ATTGCA'
p2842
I28175
sS'TTTGGC'
p2843
I31372
sS'AACGGG'
p2844
I7655
sS'TTTGAC'
p2845
I23484
sS'TTTGAA'
p2846
I47140
sS'ATCATC'
p2847
I22637
sS'CCTGAC'
p2848
I37739
sS'TGACGT'
p2849
I7933
sS'CTCGTC'
p2850
I7719
sS'CCCTGG'
p2851
I70085
sS'CCCTGA'
p2852
I45473
sS'CTCGTG'
p2853
I9569
sS'GATATT'
p2854
I20890
sS'NNGGCA'
p2855
I1
sS'GATATC'
p2856
I10230
sS'TTGACG'
p2857
I4219
sS'GATATA'
p2858
I13224
sS'AAGCTA'
p2859
I21130
sS'GATATG'
p2860
I14791
sS'TGACGA'
p2861
I5065
sS'TGACGC'
p2862
I6949
sS'TACTCT'
p2863
I22012
sS'CATCGT'
p2864
I5929
sS'CAGGGT'
p2865
I42300
sS'CCAGTC'
p2866
I33532
sS'GACACA'
p2867
I36009
sS'CCAGTG'
p2868
I44281
sS'TACTCG'
p2869
I4361
sS'CATCGA'
p2870
I4048
sS'CATCGC'
p2871
I6837
sS'TACTCC'
p2872
I17122
sS'NGAATT'
p2873
I4
sS'TACTCA'
p2874
I24457
sS'CATCGG'
p2875
I5388
sS'TGCNCC'
p2876
I1
sS'CAGGGG'
p2877
I51355
sS'CAGGGA'
p2878
I66093
sS'CAGGGC'
p2879
I64932
sS'AATCTG'
p2880
I32677
sS'CGGACT'
p2881
I7040
sS'GCCATT'
p2882
I26616
sS'AGTCGA'
p2883
I3686
sS'AATCTA'
p2884
I20541
sS'TGAACG'
p2885
I6136
sS'TCACAC'
p2886
I33750
sS'CCCATA'
p2887
I16307
sS'TCACAA'
p2888
I32011
sS'TCACAG'
p2889
I48176
sS'GCCATA'
p2890
I14657
sS'CGGACG'
p2891
I6115
sS'AGACGT'
p2892
I7373
sS'CGGACA'
p2893
I7685
sS'CGGACC'
p2894
I8708
sS'GCCATG'
p2895
I32338
sS'CTTACC'
p2896
I18588
sS'CTCGGC'
p2897
I22396
sS'TCACAT'
p2898
I34172
sS'TGAACC'
p2899
I23894
sS'ATTAAC'
p2900
I17846
sS'ATTAAA'
p2901
I43081
sS'ATTAAG'
p2902
I22308
sS'CTTACA'
p2903
I23246
sS'TCACTT'
p2904
I41350
sS'TGAACA'
p2905
I32612
sS'GTGCAG'
p2906
I42478
sS'CGGCCA'
p2907
I17116
sS'ATTAAT'
p2908
I26571
sS'AAGCAC'
p2909
I29983
sS'GAACCA'
p2910
I27004
sS'GGTATG'
p2911
I14454
sS'GGTATA'
p2912
I10580
sS'GGTATC'
p2913
I10271
sS'AGTACA'
p2914
I20731
sS'GAACCG'
p2915
I7455
sS'GGTATT'
p2916
I17563
sS'CTGAAC'
p2917
I28324
sS'GGAACC'
p2918
I25501
sS'CTGAAG'
p2919
I46972
sS'NNNNGC'
p2920
I1
sS'CCCGAA'
p2921
I8745
sS'NNNNGG'
p2922
I1
sS'TAGGTA'
p2923
I14974
sS'CATTGC'
p2924
I25714
sS'CCCGGC'
p2925
I39378
sS'CATTGA'
p2926
I20431
sS'CTAGTT'
p2927
I18057
sS'CATTGG'
p2928
I21394
sS'TCAACT'
p2929
I23268
sS'ACCATC'
p2930
I22169
sS'ACACCG'
p2931
I8043
sS'CTGCCA'
p2932
I57434
sS'GACACT'
p2933
I25354
sS'ACACCC'
p2934
I31675
sS'ACACCA'
p2935
I31805
sS'CTGCCG'
p2936
I20619
sS'CTAGTG'
p2937
I19611
sS'TCAACC'
p2938
I18811
sS'ATGTTC'
p2939
I23534
sS'CTAGTC'
p2940
I13588
sS'TCAACG'
p2941
I4536
sS'CTAGTA'
p2942
I11390
sS'CATTGT'
p2943
I28645
sS'TATGAC'
p2944
I16068
sS'ACACCT'
p2945
I32916
sS'CTGCCT'
p2946
I79231
sS'CCTCGT'
p2947
I10288
sS'TATGAA'
p2948
I26122
sS'AGACTG'
p2949
I37311
sS'TCACTG'
p2950
I49851
sS'AGACTA'
p2951
I17341
sS'AATTNN'
p2952
I1
sS'CCTCGG'
p2953
I23551
sS'CCTCGC'
p2954
I19183
sS'CCCGAC'
p2955
I11307
sS'CCTCGA'
p2956
I8541
sS'CGAGGA'
p2957
I13509
sS'CGAGGC'
p2958
I20154
sS'CGAGGG'
p2959
I17515
sS'ACTTTC'
p2960
I34284
sS'ACTTTA'
p2961
I27847
sS'ACTTTG'
p2962
I39347
sS'GACCTG'
p2963
I33598
sS'ACTAGT'
p2964
I12337
sS'GACCTC'
p2965
I28990
sS'CACCGG'
p2966
I11830
sS'ACGCTG'
p2967
I11852
sS'CACCGA'
p2968
I8415
sS'ACTTTT'
p2969
I43430
sS'GACCTT'
p2970
I24577
sS'GGACGC'
p2971
I13311
sS'GGACGG'
p2972
I13068
sS'GCATAA'
p2973
I16659
sS'CACAGC'
p2974
I55631
sS'CTTATC'
p2975
I17783
sS'CACAGA'
p2976
I56140
sS'CTTATA'
p2977
I16060
sS'CACAGG'
p2978
I54513
sS'CTTATG'
p2979
I17891
sS'ACTCAT'
p2980
I28558
sS'GAGGAG'
p2981
I71568
sS'GACGTA'
p2982
I3238
sS'CGTATC'
p2983
I3073
sS'GACGTC'
p2984
I7106
sS'TAAACT'
p2985
I28205
sS'TGCTTA'
p2986
I26838
sS'GAGGAA'
p2987
I60963
sS'AGCGAT'
p2988
I6792
sS'TTAACA'
p2989
I27636
sS'ACTCAC'
p2990
I32142
sS'TTAACC'
p2991
I18059
sS'TTGTGA'
p2992
I32015
sS'ACTCAG'
p2993
I43335
sS'CTTATT'
p2994
I28731
sS'CACAGT'
p2995
I41695
sS'AGCGAC'
p2996
I6931
sS'TAAACA'
p2997
I45089
sS'AGCGAA'
p2998
I6657
sS'GAGGAT'
p2999
I29411
sS'GACGTT'
p3000
I5732
sS'CGTATT'
p3001
I4633
sS'TAAACG'
p3002
I5532
sS'CTGTGG'
p3003
I57741
sS'GTATGT'
p3004
I19930
sS'AGTTCA'
p3005
I31722
sS'AGTTCG'
p3006
I6046
sS'TAGCCC'
p3007
I16604
sS'CTGTGA'
p3008
I48012
sS'CGGGGT'
p3009
I16812
sS'TAGGAC'
p3010
I14569
sS'GCAAAG'
p3011
I39326
sS'TAGGAA'
p3012
I32652
sS'GCAAAA'
p3013
I38244
sS'TAGGAG'
p3014
I27046
sS'GCAAAC'
p3015
I30499
sS'CGGGGC'
p3016
I40226
sS'GTATGG'
p3017
I11979
sS'CTGTGT'
p3018
I54995
sS'GTATGA'
p3019
I14584
sS'GTATGC'
p3020
I10874
sS'AGTTCT'
p3021
I34943
sS'GCAAAT'
p3022
I33354
sS'TAGGAT'
p3023
I18258
sS'TAATTA'
p3024
I27078
sS'GCATAT'
p3025
I16522
sS'TGCTTT'
p3026
I54456
sS'GTCTAT'
p3027
I12711
sS'TGGGNC'
p3028
I1
sS'ACTAGG'
p3029
I17626
sS'GTTACC'
p3030
I13545
sS'GTTACA'
p3031
I19986
sS'TAATTC'
p3032
I23040
sS'GTTACG'
p3033
I3204
sS'TATCGC'
p3034
I2574
sS'TATAGT'
p3035
I14031
sS'GTCTAA'
p3036
I13767
sS'CAGGAC'
p3037
I38936
sS'GTCTAC'
p3038
I11543
sS'TGCTTC'
p3039
I41345
sS'TTCAAA'
p3040
I47003
sS'GTCTAG'
p3041
I15022
sS'TGCTTG'
p3042
I36001
sS'TATAGC'
p3043
I12054
sS'TATCGT'
p3044
I2738
sS'TATAGA'
p3045
I16517
sS'AGCTCA'
p3046
I41632
sS'TATAGG'
p3047
I12950
sS'GTTACT'
p3048
I18404
sS'GGAAAA'
p3049
I63207
sS'GGAAAC'
p3050
I40062
sS'GGGCTA'
p3051
I16629
sS'GCTCTG'
p3052
I59202
sS'CCACGT'
p3053
I13855
sS'CAATAT'
p3054
I20820
sS'AGGACC'
p3055
I26188
sS'GAATGG'
p3056
I30846
sS'GNTGCN'
p3057
I1
sS'GAATGA'
p3058
I36463
sS'ACTACT'
p3059
I16330
sS'GAATGC'
p3060
I25351
sS'CCACGA'
p3061
I8932
sS'AACCTG'
p3062
I37284
sS'CCACGC'
p3063
I18297
sS'GGCGTA'
p3064
I3575
sS'GGAAAT'
p3065
I45092
sS'CCACGG'
p3066
I15877
sS'AACCTA'
p3067
I17656
sS'GGCTTA'
p3068
I18992
sS'TGGTAC'
p3069
I12988
sS'GGCTTC'
p3070
I39313
sS'ACTACA'
p3071
I21878
sS'ACTACG'
p3072
I3691
sS'GGCTTG'
p3073
I32326
sS'TCCTAG'
p3074
I26247
sS'AGTCAG'
p3075
I39257
sS'CGTTGC'
p3076
I6337
sS'TAACAC'
p3077
I18035
sS'TCCTAC'
p3078
I20111
sS'AGTCAC'
p3079
I35267
sS'TCCTAA'
p3080
I25894
sS'TAACAG'
p3081
I24431
sS'TCATCG'
p3082
I5728
sS'AAGCGT'
p3083
I6281
sS'TCATCC'
p3084
I28886
sS'AAAAAC'
p3085
I52237
sS'CTTTCT'
p3086
I67312
sS'AGTCAT'
p3087
I32495
sS'TCCTAT'
p3088
I20057
sS'TAACAT'
p3089
I23721
sS'CGTTGT'
p3090
I5329
sS'GAGCGA'
p3091
I10971
sS'TACCCT'
p3092
I18347
sS'CTTTCA'
p3093
I42958
sS'CTTTCG'
p3094
I7157
sS'GCGGGT'
p3095
I13989
sS'AGCCGT'
p3096
I8277
sS'GAGCGC'
p3097
I17076
sS'GTTGAT'
p3098
I15938
sS'CGACCA'
p3099
I5281
sS'CGACCC'
p3100
I10061
sS'GCATAC'
p3101
I10710
sS'TTCCAT'
p3102
I42420
sS'CGACCG'
p3103
I4052
sS'CCTTAT'
p3104
I20394
sS'GTTGAC'
p3105
I15214
sS'GTTGAA'
p3106
I22772
sS'GTTGAG'
p3107
I22946
sS'CCTTAC'
p3108
I16854
sS'CCTTAA'
p3109
I22898
sS'CCTTAG'
p3110
I22110
sS'CGACCT'
p3111
I7538
sS'AATAGA'
p3112
I26695
sS'AATAGC'
p3113
I19354
sS'CAACTG'
p3114
I27984
sS'AATAGG'
p3115
I19811
sS'TCTCAA'
p3116
I40025
sS'GGGGTT'
p3117
I27743
sS'ATTCNN'
p3118
I4
sS'GGATGT'
p3119
I23971
sS'AATAGT'
p3120
I19580
sS'TCTCAC'
p3121
I36062
sS'CAACTT'
p3122
I26734
sS'GGATGC'
p3123
I23067
sS'GGATGA'
p3124
I28805
sS'GGATGG'
p3125
I34435
sS'GGGGTA'
p3126
I14469
sS'TCTCCG'
p3127
I13639
sS'GAGTCC'
p3128
I26204
sS'AAACTG'
p3129
I46136
sS'TCTCCC'
p3130
I58360
sS'CCCTTT'
p3131
I43255
sS'TCTCCA'
p3132
I53626
sS'AAACTC'
p3133
I34319
sS'CTATGA'
p3134
I19528
sS'AGTACG'
p3135
I3165
sS'ACGCGC'
p3136
I7517
sS'AGTACC'
p3137
I12687
sS'CTATGG'
p3138
I16199
sS'TGCCGC'
p3139
I14537
sS'AAACTT'
p3140
I37828
sS'CCCTTC'
p3141
I48276
sS'TCTCCT'
p3142
I62101
sS'GAGTCT'
p3143
I30054
sS'TGCCAA'
p3144
I34096
sS'AGTACT'
p3145
I16932
sS'CTATGT'
p3146
I20562
sS'GCCGAA'
p3147
I6852
sS'GTGGAG'
p3148
I46235
sS'GCCGAC'
p3149
I7855
sS'GTGGAC'
p3150
I19969
sS'GCCGAG'
p3151
I22633
sS'GTGGAA'
p3152
I35830
sS'CGCCCC'
p3153
I43570
sS'GTGGAT'
p3154
I23146
sS'GCCGAT'
p3155
I4274
sS'AGATAG'
p3156
I19909
sS'TATCTG'
p3157
I26069
sS'ACCCGG'
p3158
I16218
sS'GTAGTC'
p3159
I12483
sS'AAATCG'
p3160
I5773
sS'GTAGTA'
p3161
I10950
sS'TTATCG'
p3162
I3008
sS'GTAGTG'
p3163
I14819
sS'AAATCC'
p3164
I31839
sS'ACCGAA'
p3165
I5341
sS'ATTAGT'
p3166
I17181
sS'AGATAC'
p3167
I17738
sS'CACGCT'
p3168
I10716
sS'AAATCT'
p3169
I39405
sS'ACCGAT'
p3170
I3087
sS'GTAGTT'
p3171
I16157
sS'ACCAGT'
p3172
I24867
sS'TGCCGT'
p3173
I8013
sS'GATGAT'
p3174
I22465
sS'GGAGCA'
p3175
I41781
sS'GGAGCC'
p3176
I51764
sS'CCGGCT'
p3177
I21220
sS'CCAAAT'
p3178
I33830
sS'GGAGCG'
p3179
I20725
sS'AAAACT'
p3180
I44886
sS'GATGAC'
p3181
I22655
sS'TGTCCC'
p3182
I36636
sS'GATGAA'
p3183
I31007
sS'GATGAG'
p3184
I31840
sS'CCAAAA'
p3185
I39536
sS'ACTAAC'
p3186
I13009
sS'CCAAAC'
p3187
I30887
sS'AAAACG'
p3188
I10720
sS'GGAGCT'
p3189
I46715
sS'CCAAAG'
p3190
I45733
sS'TCGCGG'
p3191
I8081
sS'CGGTCC'
p3192
I10228
sS'TCGCGC'
p3193
I7571
sS'GGGAGT'
p3194
I33057
sS'GCCACA'
p3195
I42514
sS'AGATCA'
p3196
I28763
sS'GCCACC'
p3197
I49004
sS'AGAAAT'
p3198
I55836
sS'CGACGG'
p3199
I4756
sS'GCCACG'
p3200
I16019
sS'AGATCG'
p3201
I6394
sS'TGCCTA'
p3202
I23699
sS'ACCAGC'
p3203
I39003
sS'TCGCGT'
p3204
I2963
sS'GTGCAA'
p3205
I23837
sS'ACCCGT'
p3206
I5879
sS'AGAAAG'
p3207
I67339
sS'TACCCG'
p3208
I5062
sS'AGAAAC'
p3209
I46695
sS'AGATAT'
p3210
I22510
sS'AGAAAA'
p3211
I88129
sS'TACCCC'
p3212
I14589
sS'ATGTAC'
p3213
I15465
sS'ACTTCG'
p3214
I5813
sS'ATGTAA'
p3215
I29642
sS'ATGTAG'
p3216
I18624
sS'ACCAGG'
p3217
I42275
sS'ACTGTG'
p3218
I41369
sS'CCGGCA'
p3219
I14258
sS'GACGAC'
p3220
I4767
sS'ATGTCG'
p3221
I4123
sS'ATGTAT'
p3222
I24381
sS'ATTAGA'
p3223
I21363
sS'CACTGA'
p3224
I39311
sS'GTTCCC'
p3225
I29451
sS'ATCCAT'
p3226
I22147
sS'AGCACT'
p3227
I38493
sS'TTAGAA'
p3228
I33252
sS'CGGCTG'
p3229
I22274
sS'TTAGAC'
p3230
I13872
sS'CGGCTC'
p3231
I21997
sS'TTAGAG'
p3232
I24994
sS'CGGCTA'
p3233
I5617
sS'AGCACC'
p3234
I33020
sS'AGCACA'
p3235
I40852
sS'AGCACG'
p3236
I9986
sS'CGGCTT'
p3237
I11431
sS'CGCCCT'
p3238
I22048
sS'TTAGAT'
p3239
I19986
sS'ATATCG'
p3240
I2308
sS'ACCTAT'
p3241
I13794
sS'AAAGAA'
p3242
I78390
sS'AAAGAG'
p3243
I52300
sS'ATATCA'
p3244
I19144
sS'GCGCTG'
p3245
I21427
sS'TTATTT'
p3246
I74924
sS'TGTGAG'
p3247
I43162
sS'TGTGAA'
p3248
I40018
sS'ACGTCT'
p3249
I7491
sS'TGTGAC'
p3250
I32642
sS'ATATCT'
p3251
I22138
sS'CCAGCT'
p3252
I64382
sS'CACGGT'
p3253
I9845
sS'AAAGAT'
p3254
I38461
sS'TGTGAT'
p3255
I31975
sS'TTATTG'
p3256
I26688
sS'TTATTA'
p3257
I34022
sS'GAAAGC'
p3258
I36120
sS'TTATTC'
p3259
I28428
sS'AACAGT'
p3260
I29926
sS'AGACGG'
p3261
I13022
sS'TTTTAT'
p3262
I59529
sS'GCGAAC'
p3263
I4274
sS'CTTACT'
p3264
I23100
sS'TCCACT'
p3265
I35852
sS'TACAAA'
p3266
I38754
sS'AGACGA'
p3267
I6630
sS'TACAAC'
p3268
I15152
sS'CCTCTG'
p3269
I68793
sS'AGGTGG'
p3270
I55626
sS'CCTCTC'
p3271
I59754
sS'AGGTGC'
p3272
I32542
sS'CCTCTA'
p3273
I25944
sS'AGGTGA'
p3274
I42931
sS'CTTACG'
p3275
I4515
sS'TCCACA'
p3276
I38697
sS'TTTTAG'
p3277
I36543
sS'TCCACC'
p3278
I41036
sS'TTTTAA'
p3279
I72601
sS'ACATCA'
p3280
I29242
sS'TTTTAC'
p3281
I32200
sS'ACATCC'
p3282
I24014
sS'AGGTGT'
p3283
I32765
sS'CCTCTT'
p3284
I47940
sS'GCGTGA'
p3285
I11090
sS'TATGAG'
p3286
I20196
sS'CCCGGA'
p3287
I18944
sS'CCCAAT'
p3288
I18621
sS'CCCGGG'
p3289
I41161
sS'TTGTGT'
p3290
I37823
sS'TGGAAT'
p3291
I41190
sS'TAGGTG'
p3292
I21686
sS'NCAGAG'
p3293
I1
sS'TTGTGC'
p3294
I25038
sS'TATGAT'
p3295
I18602
sS'TTGTGG'
p3296
I33024
sS'CCCGGT'
p3297
I11295
sS'GGCGTG'
p3298
I20596
sS'TGGAAG'
p3299
I48861
sS'TGGAAC'
p3300
I26612
sS'TGGAAA'
p3301
I58976
sS'TGAGGA'
p3302
I46950
sS'AAGAGG'
p3303
I48221
sS'TGAGGC'
p3304
I47624
sS'AAGAGA'
p3305
I53221
sS'AAGAGC'
p3306
I34763
sS'TGAGGG'
p3307
I41867
sS'GCTTAG'
p3308
I18860
sS'GCTTAC'
p3309
I13874
sS'GCTTAA'
p3310
I19247
sS'TGATTC'
p3311
I28388
sS'AAGCGC'
p3312
I9335
sS'AAGAGT'
p3313
I29882
sS'AAGCGA'
p3314
I8500
sS'NGCGCC'
p3315
I1
sS'TGAGGT'
p3316
I37272
sS'GCTTAT'
p3317
I17331
sS'CTGCTA'
p3318
I25385
sS'GCGTGT'
p3319
I10449
sS'CTGCTC'
p3320
I53865
sS'ACTTCT'
p3321
I36502
sS'GACCGT'
p3322
I5128
sS'CTGCTG'
p3323
I78360
sS'CGGTCA'
p3324
I6596
sS'GGTCGT'
p3325
I4553
sS'CTAGAG'
p3326
I26901
sS'CTAGAA'
p3327
I28675
sS'CGGTCG'
p3328
I4074
sS'GACCGA'
p3329
I5638
sS'GACCGC'
p3330
I8625
sS'ACTTCC'
p3331
I39814
sS'CTGCTT'
p3332
I52368
sS'ACTTCA'
p3333
I32285
sS'TCGGAA'
p3334
I6521
sS'CTAGAT'
p3335
I17946
sS'GGTCGG'
p3336
I9836
sS'CGGTCT'
p3337
I7616
sS'GGTCGC'
p3338
I8297
sS'GGTCGA'
p3339
I3957
sS'CGTCGC'
p3340
I5558
sS'GCGTGG'
p3341
I18212
sS'CGTCGG'
p3342
I4927
sS'GCGTGC'
p3343
I11335
sS'TGCTCA'
p3344
I40684
sS'TTCATC'
p3345
I31293
sS'TGCTCC'
p3346
I41405
sS'TTCATA'
p3347
I26190
sS'TTCATG'
p3348
I31979
sS'TGCTCG'
p3349
I8485
sS'GTACAA'
p3350
I15445
sS'CAGCAG'
p3351
I78042
sS'TACACT'
p3352
I18807
sS'GCGGCT'
p3353
I20077
sS'CAGCAC'
p3354
I48981
sS'CGTCGT'
p3355
I2511
sS'ACGACT'
p3356
I4633
sS'TGCTCT'
p3357
I47363
sS'TTCATT'
p3358
I50379
sS'GCTTTA'
p3359
I24171
sS'TGGCCG'
p3360
I16906
sS'GCTGCA'
p3361
I49517
sS'AACTCT'
p3362
I32534
sS'TGGCCC'
p3363
I41922
sS'TGGCCA'
p3364
I53743
sS'GTAGCA'
p3365
I17145
sS'AGCAAA'
p3366
I51631
sS'TGGCCT'
p3367
I50526
sS'AACTCC'
p3368
I34045
sS'GCTGCT'
p3369
I58590
sS'AACACA'
p3370
I45389
sS'CAGTCG'
p3371
I6965
sS'GGATCC'
p3372
I20427
sS'AATATT'
p3373
I47771
sS'CAACCT'
p3374
I30013
sS'CAGTTA'
p3375
I23268
sS'GCTGCC'
p3376
I58127
sS'GGCACG'
p3377
I12696
sS'GGCACA'
p3378
I37680
sS'GACAAT'
p3379
I18419
sS'GGCACC'
p3380
I31969
sS'CAACCG'
p3381
I6074
sS'ACGACC'
p3382
I4612
sS'AATATG'
p3383
I26981
sS'AATATA'
p3384
I29396
sS'AGCAAG'
p3385
I42399
sS'AATATC'
p3386
I21053
sS'CTTCGT'
p3387
I6958
sS'GACAAA'
p3388
I34079
sS'GGCACT'
p3389
I30735
sS'GACAAC'
p3390
I17122
sS'ACGACA'
p3391
I5136
sS'GACAAG'
p3392
I27201
sS'GCTGCG'
p3393
I21989
sS'GCAATC'
p3394
I17383
sS'GCAATA'
p3395
I17649
sS'GAATTT'
p3396
I37933
sS'TTGAAC'
p3397
I24506
sS'CGATGG'
p3398
I6423
sS'GNAGAA'
p3399
I1
sS'TCCCAT'
p3400
I33642
sS'CGATGC'
p3401
I5433
sS'GTAAAT'
p3402
I29701
sS'CGATGA'
p3403
I5497
sS'GAATTA'
p3404
I22919
sS'GAATTC'
p3405
I26674
sS'GAATTG'
p3406
I22520
sS'TCCCAA'
p3407
I42630
sS'CGATGT'
p3408
I4698
sS'GTAAAA'
p3409
I32213
sS'GTAAAG'
p3410
I22249
sS'TCCCAG'
p3411
I78528
sS'GGATTT'
p3412
I32002
sS'GTGCGT'
p3413
I8131
sS'CAAGTA'
p3414
I21310
sS'ATGGTA'
p3415
I18368
sS'GGATTC'
p3416
I21277
sS'GGATTA'
p3417
I24053
sS'GGATTG'
p3418
I19320
sS'AGCGGC'
p3419
I18549
sS'CTATCA'
p3420
I15210
sS'AAAGCC'
p3421
I38854
sS'TCTGTG'
p3422
I55908
sS'TCTGTC'
p3423
I45219
sS'TCTGTA'
p3424
I31084
sS'AACCGG'
p3425
I7416
sS'CTCCTT'
p3426
I53303
sS'GGCGGA'
p3427
I20852
sS'GGCGGG'
p3428
I54019
sS'AACCGA'
p3429
I5619
sS'CTATCC'
p3430
I13300
sS'TCTGTT'
p3431
I46590
sS'AAAGCG'
p3432
I9397
sS'CTCCTG'
p3433
I78039
sS'AACCGT'
p3434
I5000
sS'CTCCTA'
p3435
I27123
sS'CTCCTC'
p3436
I72119
sS'GGCGGT'
p3437
I13378
sS'GACGCA'
p3438
I7564
sS'GACGCC'
p3439
I11642
sS'CCCACA'
p3440
I46845
sS'AACAAA'
p3441
I71575
sS'TACTTC'
p3442
I21638
sS'AGCCTT'
p3443
I38285
sS'AACTCG'
p3444
I6370
sS'CCGATT'
p3445
I4698
sS'CCCACT'
p3446
I39927
sS'TACTTA'
p3447
I20193
sS'GACGCT'
p3448
I8243
sS'AGCGGT'
p3449
I7436
sS'CCGATA'
p3450
I2329
sS'AGCCTG'
p3451
I67496
sS'AGCCTA'
p3452
I20861
sS'CCGATG'
p3453
I5233
sS'GTACCC'
p3454
I10533
sS'GAGTTT'
p3455
I34496
sS'TGGTTA'
p3456
I21763
sS'CGCCTT'
p3457
I12640
sS'TGGTTC'
p3458
I27032
sS'TCNNNN'
p3459
I6
sS'CAGAGT'
p3460
I43009
sS'GCATCT'
p3461
I28769
sS'CTCCCA'
p3462
I70793
sS'GAGTTG'
p3463
I25434
sS'CGCCTC'
p3464
I28028
sS'GCGCCA'
p3465
I15667
sS'CGCCTA'
p3466
I5694
sS'GAGTTC'
p3467
I26365
sS'CGCCTG'
p3468
I25273
sS'CAATTG'
p3469
I15539
sS'CAGAGG'
p3470
I69209
sS'GCATCC'
p3471
I23227
sS'CTCCCC'
p3472
I69699
sS'CAGAGC'
p3473
I59456
sS'GCATCG'
p3474
I5306
sS'CAGAGA'
p3475
I64832
sS'AATCAT'
p3476
I27950
sS'GCCTCT'
p3477
I50790
sS'CCGATC'
p3478
I4140
sS'AGACTC'
p3479
I30124
sS'CCTAGA'
p3480
I25078
sS'CTCGAA'
p3481
I7429
sS'TTTGCT'
p3482
I51437
sS'CGGGAG'
p3483
I29627
sS'TGCGGT'
p3484
I8714
sS'CCTAGG'
p3485
I27237
sS'CCCATG'
p3486
I30905
sS'TGCGGC'
p3487
I14362
sS'TGCGGA'
p3488
I9155
sS'CCTAGT'
p3489
I17574
sS'TGCGGG'
p3490
I17203
sS'TTTGCG'
p3491
I6394
sS'TGAGTT'
p3492
I32204
sS'GGGACG'
p3493
I14988
sS'CGGGAC'
p3494
I14521
sS'TCTAAA'
p3495
I31405
sS'TCTCGT'
p3496
I6416
sS'ATCGCC'
p3497
I6016
sS'TGAGTG'
p3498
I35858
sS'ATCGCA'
p3499
I4749
sS'TGAGTA'
p3500
I24423
sS'ATCGCG'
p3501
I3339
sS'TGAGTC'
p3502
I38765
sS'AACCCC'
p3503
I27650
sS'CGACGT'
p3504
I2538
sS'AAGGTG'
p3505
I35275
sS'AAGGTC'
p3506
I24689
sS'CATCAT'
p3507
I28647
sS'AAGGTA'
p3508
I22241
sS'ATTTCG'
p3509
I4983
sS'AAGCGG'
p3510
I10752
sS'ACGGCA'
p3511
I7966
sS'CATCAC'
p3512
I29294
sS'AAGGTT'
p3513
I25558
sS'CATCAA'
p3514
I23308
sS'CATCAG'
p3515
I33632
sS'ACGGCG'
p3516
I6745
sS'TCCCCG'
p3517
I25556
sS'TCTAAG'
p3518
I23339
sS'CGGAAT'
p3519
I5793
sS'CAATTC'
p3520
I22914
sS'GTGGCT'
p3521
I48997
sS'ATCGAT'
p3522
I2570
sS'TCACCG'
p3523
I10464
sS'TCACCA'
p3524
I38802
sS'TCACCC'
p3525
I36200
sS'CGGAAG'
p3526
I13977
sS'CAACCC'
p3527
I25873
sS'CGGCCT'
p3528
I21400
sS'CGGAAC'
p3529
I6856
sS'AGCTCG'
p3530
I9680
sS'CGGAAA'
p3531
I9693
sS'GCCTCA'
p3532
I47652
sS'ATCCAG'
p3533
I32780
sS'TGTGTC'
p3534
I36415
sS'TGTGTA'
p3535
I32152
sS'TGTGTG'
p3536
I92218
sS'ATGGCA'
p3537
I33118
sS'TTGTNN'
p3538
I1
sS'TCGTCC'
p3539
I7063
sS'ATGGCT'
p3540
I30806
sS'TGTGTT'
p3541
I45673
sS'CCAAGT'
p3542
I31870
sS'GAACAT'
p3543
I23505
sS'AGATTA'
p3544
I23454
sS'GAAACG'
p3545
I9958
sS'GAAACA'
p3546
I45885
sS'AGATTG'
p3547
I23372
sS'AAGATA'
p3548
I27225
sS'CTGAGT'
p3549
I43257
sS'GAAACT'
p3550
I38003
sS'AGAATG'
p3551
I41695
sS'AGAATA'
p3552
I29097
sS'AACTGA'
p3553
I34823
sS'AGAATC'
p3554
I29212
sS'CTGAGC'
p3555
I50650
sS'CTGAGA'
p3556
I53487
sS'CTGAGG'
p3557
I65189
sS'CATACC'
p3558
I14512
sS'CATACA'
p3559
I23327
sS'CATACG'
p3560
I3412
sS'TCAAAT'
p3561
I35227
sS'CGAGCC'
p3562
I14009
sS'GTCCAT'
p3563
I17962
sS'AGGGGT'
p3564
I30287
sS'CATACT'
p3565
I16573
sS'GTCCAG'
p3566
I33139
sS'TCAAAG'
p3567
I36316
sS'CACGAG'
p3568
I9701
sS'TCAAAA'
p3569
I45962
sS'CACTAA'
p3570
I18927
sS'TCAAAC'
p3571
I27781
sS'CGGCGG'
p3572
I31533
sS'TTGATG'
p3573
I23159
sS'CTCATT'
p3574
I39328
sS'CGGCGC'
p3575
I22815
sS'TTGATC'
p3576
I15452
sS'CGGCGA'
p3577
I8044
sS'TTGATA'
p3578
I16689
sS'ACCGTA'
p3579
I3485
sS'TTGATT'
p3580
I28729
sS'CGGCGT'
p3581
I6932
sS'ATGGCC'
p3582
I25297
sS'GTACGC'
p3583
I2458
sS'ATCGAC'
p3584
I2365
sS'CCATTA'
p3585
I18417
sS'ATCCCC'
p3586
I25017
sS'CGGTTA'
p3587
I3519
sS'GGTTTA'
p3588
I19682
sS'CGGTTC'
p3589
I7570
sS'GCTGTT'
p3590
I35746
sS'TTTACA'
p3591
I40854
sS'CGGTTG'
p3592
I5910
sS'GGTTTG'
p3593
I29848
sS'CCATTG'
p3594
I24106
sS'TCCAAA'
p3595
I40376
sS'GCTGTG'
p3596
I55246
sS'GGTTTT'
p3597
I38834
sS'CGGTTT'
p3598
I7876
sS'GCTGTA'
p3599
I22367
sS'TATGCG'
p3600
I2862
sS'AGGTTG'
p3601
I29806
sS'AGGTTC'
p3602
I24307
sS'AGGTTA'
p3603
I21013
sS'CNNNNN'
p3604
I6
sS'ACTCCT'
p3605
I38335
sS'TTTTTC'
p3606
I69207
sS'GAGGGC'
p3607
I47102
sS'TTTTTA'
p3608
I70921
sS'TCCTCT'
p3609
I58176
sS'TTTTTG'
p3610
I60984
sS'GAGGGG'
p3611
I57645
sS'TTAAAT'
p3612
I44460
sS'ACTACC'
p3613
I12425
sS'AGGTTT'
p3614
I36165
sS'TAAGCG'
p3615
I4109
sS'AGGGGG'
p3616
I40717
sS'TTAAAC'
p3617
I27377
sS'ATACGT'
p3618
I4327
sS'TTAAAA'
p3619
I72740
sS'ACTCCG'
p3620
I10271
sS'TTAAAG'
p3621
I35083
sS'GAGGGT'
p3622
I31880
sS'TTTTTT'
p3623
I205979
sS'ACTCCC'
p3624
I33202
sS'CTGTAA'
p3625
I39034
sS'GTCACG'
p3626
I8394
sS'CTGTAC'
p3627
I19727
sS'GCAACT'
p3628
I22090
sS'GCAATT'
p3629
I22346
sS'CTGTAG'
p3630
I28027
sS'GTCACA'
p3631
I32960
sS'ACTTAT'
p3632
I17724
sS'GCAACG'
p3633
I6424
sS'GTCACT'
p3634
I31734
sS'TAGGCG'
p3635
I5721
sS'ACGAAA'
p3636
I6570
sS'CTGTAT'
p3637
I24597
sS'GCAACA'
p3638
I30069
sS'TAGGCC'
p3639
I15975
sS'ATTCAT'
p3640
I35256
sS'TCCCAC'
p3641
I43000
sS'GCGATT'
p3642
I5503
sS'TCGTGT'
p3643
I6481
sS'TTCACT'
p3644
I37326
sS'GTCTCT'
p3645
I38999
sS'TCCGTG'
p3646
I10892
sS'ATTCAG'
p3647
I34443
sS'ATTCAA'
p3648
I30689
sS'ATTCAC'
p3649
I24970
sS'GTCTCC'
p3650
I36355
sS'TCGTGG'
p3651
I8976
sS'GCGATG'
p3652
I6930
sS'TTCACC'
p3653
I30266
sS'GCGATA'
p3654
I2458
sS'TCGTGC'
p3655
I6393
sS'GCGATC'
p3656
I5969
sS'GAAGGC'
p3657
I37689
sS'GAAGGA'
p3658
I53895
sS'AACTGC'
p3659
I30182
sS'GAAGGG'
p3660
I48227
sS'CGATTA'
p3661
I2813
sS'CAATCT'
p3662
I23368
sS'AGACTT'
p3663
I30202
sS'GGAACA'
p3664
I33137
sS'GGAACG'
p3665
I8762
sS'AGCCAC'
p3666
I49307
sS'TACTGC'
p3667
I20215
sS'CGATTT'
p3668
I5815
sS'AAAACA'
p3669
I74296
sS'GAAGGT'
p3670
I28899
sS'CTCGCT'
p3671
I14684
sS'TTGTAG'
p3672
I22188
sS'ATAGTC'
p3673
I12041
sS'GGAACT'
p3674
I29999
sS'TCCTGA'
p3675
I48640
sS'AGTCCA'
p3676
I28399
sS'TCCTGC'
p3677
I58500
sS'AGTCCC'
p3678
I32615
sS'ACTAAA'
p3679
I27795
sS'TCCTGG'
p3680
I70719
sS'AGTCCG'
p3681
I7013
sS'TAACGC'
p3682
I3457
sS'CAGCTG'
p3683
I69905
sS'CAGCTA'
p3684
I30393
sS'CAGCTC'
p3685
I57937
sS'ACTAAT'
p3686
I17015
sS'CGACTC'
p3687
I7118
sS'AGTCCT'
p3688
I32718
sS'TCCTGT'
p3689
I46141
sS'CAGCTT'
p3690
I45444
sS'TAACGT'
p3691
I4498
sS'AGCCAG'
p3692
I64169
sS'GTACTT'
p3693
I17447
sS'CGACAT'
p3694
I3974
sS'TTGTTC'
p3695
I30707
sS'CGCAAG'
p3696
I6929
sS'TTGTTA'
p3697
I26955
sS'TTGTTG'
p3698
I32752
sS'AGGAAG'
p3699
I79591
sS'CCGAGC'
p3700
I16770
sS'CCGCGT'
p3701
I7742
sS'GTACTG'
p3702
I15973
sS'CGACAA'
p3703
I4158
sS'CGACAG'
p3704
I9034
sS'GTACTA'
p3705
I8879
sS'CCGCGC'
p3706
I27923
sS'CCGAGT'
p3707
I10376
sS'CCGCGA'
p3708
I7999
sS'TACGCA'
p3709
I3988
sS'CCGCGG'
p3710
I25655
sS'TTGTTT'
p3711
I73594
sS'TCCGTT'
p3712
I6686
sS'GGAGGC'
p3713
I71653
sS'AATAAC'
p3714
I23517
sS'AATAAA'
p3715
I72259
sS'AATAAG'
p3716
I28446
sS'CGCCAT'
p3717
I9652
sS'TACTAA'
p3718
I18432
sS'AATAAT'
p3719
I39386
sS'CCAACC'
p3720
I28254
sS'CCAACA'
p3721
I32903
sS'TTATGC'
p3722
I16902
sS'CCAACG'
p3723
I6876
sS'CGCCGC'
p3724
I35928
sS'GTGTAT'
p3725
I19691
sS'CGCCGA'
p3726
I7713
sS'GAGTAG'
p3727
I20811
sS'CGCCGG'
p3728
I19853
sS'GAGTAA'
p3729
I21779
sS'AGTAAG'
p3730
I23106
sS'CTCAGG'
p3731
I60629
sS'CTAAAA'
p3732
I36546
sS'CTCAGC'
p3733
I61763
sS'CTCAGA'
p3734
I50140
sS'GAGTAT'
p3735
I13679
sS'ATCGTC'
p3736
I3754
sS'GTGTAG'
p3737
I16353
sS'TCGAGC'
p3738
I5333
sS'AGTAAT'
p3739
I22483
sS'GTGTAC'
p3740
I13441
sS'CGCCGT'
p3741
I6797
sS'GTGGCA'
p3742
I40501
sS'CATATT'
p3743
I27108
sS'CTCGGA'
p3744
I10894
sS'GTGGCG'
p3745
I17117
sS'GCCGCC'
p3746
I43240
sS'GCCGCA'
p3747
I14533
sS'GCCGCG'
p3748
I25274
sS'ACACTT'
p3749
I29693
sS'CTCGGT'
p3750
I9415
sS'TCGCTC'
p3751
I11221
sS'CATATC'
p3752
I14607
sS'CATATA'
p3753
I19361
sS'TCAGCA'
p3754
I45987
sS'TACTAC'
p3755
I11095
sS'ACACTC'
p3756
I25845
sS'ACACTA'
p3757
I16634
sS'ACACTG'
p3758
I39403
sS'GCCGCT'
p3759
I18646
sS'ACCGGA'
p3760
I6852
sS'AAATAA'
p3761
I74974
sS'ACCGGC'
p3762
I9764
sS'AAATAC'
p3763
I38544
sS'CTTTAA'
p3764
I34972
sS'AATCCT'
p3765
I30847
sS'AAATAG'
p3766
I34500
sS'AACTTA'
p3767
I20836
sS'CAGGTA'
p3768
I27796
sS'AACTTC'
p3769
I29584
sS'CAGGTC'
p3770
I33289
sS'CACGAC'
p3771
I5728
sS'AACTTG'
p3772
I29403
sS'CAGGTG'
p3773
I59732
sS'CTTTAT'
p3774
I33694
sS'AATCCC'
p3775
I31525
sS'AATCCA'
p3776
I29831
sS'AAATAT'
p3777
I57656
sS'ACCGGT'
p3778
I4785
sS'GATACA'
p3779
I17006
sS'CACGAT'
p3780
I5702
sS'CAGGTT'
p3781
I37427
sS'AACTTT'
p3782
I37426
sS'GGGATA'
p3783
I15513
sS'GGGATC'
p3784
I19579
sS'GGGTGT'
p3785
I31340
sS'GGGATG'
p3786
I33772
sS'GATGCT'
p3787
I27273
sS'CGCAGT'
p3788
I9815
sS'GAGCCT'
p3789
I40162
sS'GGAGAC'
p3790
I36225
sS'GGGTGA'
p3791
I35585
sS'GGAGAA'
p3792
I56078
sS'GGGTGC'
p3793
I29877
sS'GGGATT'
p3794
I31904
sS'GGGTGG'
p3795
I59817
sS'GAGCCA'
p3796
I50342
sS'CGCAGG'
p3797
I20558
sS'GATGCG'
p3798
I5925
sS'CGCAGA'
p3799
I12147
sS'GATGCA'
p3800
I23835
sS'CGCAGC'
p3801
I22229
sS'GATGCC'
p3802
I23481
sS'CGGATT'
p3803
I5114
sS'GGTAGT'
p3804
I12604
sS'ACCCCT'
p3805
I29998
sS'GCCAAT'
p3806
I20301
sS'TTGCTC'
p3807
I34191
sS'AACCGC'
p3808
I6957
sS'AGAAGT'
p3809
I36466
sS'ACCCCA'
p3810
I39464
sS'GGTAGA'
p3811
I19915
sS'GCCAAA'
p3812
I31522
sS'CGGATG'
p3813
I7046
sS'GCCAAG'
p3814
I41520
sS'CGGATA'
p3815
I2900
sS'ACCCCG'
p3816
I16602
sS'GGTAGG'
p3817
I21808
sS'AGAAGA'
p3818
I52075
sS'AGAAGC'
p3819
I43250
sS'GCAAGA'
p3820
I32890
sS'AGAAGG'
p3821
I53688
sS'CACTCC'
p3822
I42749
sS'CACTCA'
p3823
I36588
sS'CACTCG'
p3824
I8612
sS'TGCGTT'
p3825
I6750
sS'GCAAGG'
p3826
I33575
sS'AGCTTT'
p3827
I38856
sS'CCCCGG'
p3828
I32832
sS'TGCGTA'
p3829
I3942
sS'TGCGTG'
p3830
I11980
sS'CACTCT'
p3831
I36920
sS'AGCTTC'
p3832
I36989
sS'GAGCCC'
p3833
I44369
sS'AGCTTA'
p3834
I19365
sS'AGCTTG'
p3835
I30967
sS'AGACCA'
p3836
I33509
sS'CCACTT'
p3837
I35001
sS'CAAGAG'
p3838
I38640
sS'TTAGCT'
p3839
I23826
sS'TTAGCC'
p3840
I20149
sS'TTAGCA'
p3841
I24757
sS'GACCAT'
p3842
I15879
sS'TTAGCG'
p3843
I3844
sS'CTTCAT'
p3844
I34505
sS'AAGGGG'
p3845
I38443
sS'ATAAGG'
p3846
I20143
sS'TGTGCT'
p3847
I40557
sS'AAGGGC'
p3848
I34205
sS'ATAAGC'
p3849
I17210
sS'AAGGGA'
p3850
I47611
sS'ATAAGA'
p3851
I24523
sS'CCAGAC'
p3852
I35516
sS'CCAGAA'
p3853
I50127
sS'AGCAGC'
p3854
I58459
sS'GCAAGT'
p3855
I24912
sS'TGTGCG'
p3856
I10564
sS'CTACCT'
p3857
I24321
sS'ATAAGT'
p3858
I17830
sS'AAGGGT'
p3859
I24528
sS'TGTGCC'
p3860
I37844
sS'ATAGGA'
p3861
I20224
sS'TGTGCA'
p3862
I39827
sS'ATAGGC'
p3863
I13937
sS'GCTCGC'
p3864
I13103
sS'TAAGTT'
p3865
I20980
sS'ATACGC'
p3866
I2718
sS'AGACCG'
p3867
I7543
sS'CCAGAT'
p3868
I32833
sS'AGACAA'
p3869
I36651
sS'AACAAG'
p3870
I36231
sS'AGACAC'
p3871
I33766
sS'TCCATT'
p3872
I39129
sS'AGACAG'
p3873
I54009
sS'GCTTTT'
p3874
I42195
sS'TTTTCT'
p3875
I87991
sS'CGCTGT'
p3876
I11986
sS'CCCACG'
p3877
I17726
sS'TCAAGA'
p3878
I31566
sS'CGTGGG'
p3879
I17741
sS'AGACAT'
p3880
I30001
sS'CGTGGA'
p3881
I11670
sS'TTTTCG'
p3882
I6383
sS'CGCTGA'
p3883
I11117
sS'CGTCTT'
p3884
I8281
sS'TTTTCC'
p3885
I63074
sS'TTTTCA'
p3886
I57725
sS'CGCTGG'
p3887
I20320
sS'TATGGA'
p3888
I18219
sS'TATGGC'
p3889
I14381
sS'CGTAGG'
p3890
I5106
sS'CCCACC'
p3891
I60666
sS'TATGGG'
p3892
I16275
sS'CGTAGC'
p3893
I4469
sS'TACCGT'
p3894
I3679
sS'TGGACT'
p3895
I27757
sS'CGTAGT'
p3896
I3666
sS'TATGGT'
p3897
I15267
sS'TGGACA'
p3898
I33109
sS'TGGACC'
p3899
I19715
sS'TGGACG'
p3900
I8165
sS'CGTTAC'
p3901
I3352
sS'CCGGTT'
p3902
I7380
sS'GACCAA'
p3903
I20468
sS'GCTTGA'
p3904
I25062
sS'TGAGAC'
p3905
I34986
sS'GCTTGC'
p3906
I24445
sS'TGAGAA'
p3907
I51850
sS'GCCAAC'
p3908
I22644
sS'TGAGAG'
p3909
I41365
sS'GCTTGG'
p3910
I33770
sS'CCTGTT'
p3911
I39995
sS'CCGGTG'
p3912
I11896
sS'AGGATT'
p3913
I30321
sS'CCGGTA'
p3914
I4226
sS'CCTGTC'
p3915
I41959
sS'CCTGTA'
p3916
I32757
sS'CCTGTG'
p3917
I54986
sS'GCTTGT'
p3918
I25269
sS'TGAGAT'
p3919
I37018
sS'TACCAA'
p3920
I18141
sS'GGTTGT'
p3921
I20566
sS'CGTCTG'
p3922
I11090
sS'AATTCN'
p3923
I4
sS'TAGCGT'
p3924
I3517
sS'GGTTGG'
p3925
I27573
sS'AACAAT'
p3926
I30553
sS'GGTTGA'
p3927
I18696
sS'TTCACG'
p3928
I7957
sS'GGTTGC'
p3929
I21804
sS'TCCCGC'
p3930
I22610
sS'GTAACG'
p3931
I3349
sS'TCCCGG'
p3932
I25134
sS'TGCTAT'
p3933
I22084
sS'CGTTTT'
p3934
I10833
sS'ATTCTC'
p3935
I34577
sS'CTATAC'
p3936
I9612
sS'ATTCTA'
p3937
I25383
sS'ATTCTG'
p3938
I38725
sS'TCATTT'
p3939
I55945
sS'GTAACT'
p3940
I18819
sS'TGCTAA'
p3941
I24649
sS'TATACT'
p3942
I15395
sS'TGCTAG'
p3943
I20449
sS'CAGCGG'
p3944
I20871
sS'AGGATC'
p3945
I23105
sS'TCATTC'
p3946
I36596
sS'CGTTTG'
p3947
I8249
sS'CGTTTA'
p3948
I5686
sS'ATTCTT'
p3949
I40142
sS'CGTTTC'
p3950
I10274
sS'ACCGGG'
p3951
I11142
sS'TGGCAA'
p3952
I35613
sS'TGGCAC'
p3953
I32958
sS'TGGCAG'
p3954
I56971
sS'GCTGAG'
p3955
I61708
sS'GCTGAA'
p3956
I37329
sS'GCTGAC'
p3957
I28416
sS'TGGCAT'
p3958
I33001
sS'GGCCGG'
p3959
I34513
sS'AGCCTC'
p3960
I55975
sS'GGCCGC'
p3961
I31438
sS'GAACTT'
p3962
I27016
sS'GGCCGA'
p3963
I15323
sS'GGCAAT'
p3964
I20699
sS'CGCTCG'
p3965
I8940
sS'ATCNNN'
p3966
I2
sS'CTGATT'
p3967
I32926
sS'CCATCG'
p3968
I6588
sS'CTAAAT'
p3969
I25870
sS'CCATCC'
p3970
I34848
sS'CCATCA'
p3971
I29506
sS'GGCAAG'
p3972
I35043
sS'CTGATA'
p3973
I19596
sS'GTACCA'
p3974
I12966
sS'CTGATG'
p3975
I33476
sS'GGCAAA'
p3976
I36628
sS'CTAAAG'
p3977
I24366
sS'CCATCT'
p3978
I43175
sS'CTAAAC'
p3979
I19072
sS'ACGAAT'
p3980
I4362
sS'GACACC'
p3981
I24050
sS'TACGAT'
p3982
I2867
sS'GACACG'
p3983
I9036
sS'CCAAGA'
p3984
I39120
sS'AGGCAT'
p3985
I34820
sS'AATTCT'
p3986
I38009
sS'TACGAG'
p3987
I3447
sS'TACGAC'
p3988
I2349
sS'GGAAAG'
p3989
I57380
sS'TACGAA'
p3990
I3807
sS'TGTTAC'
p3991
I19603
sS'CTATTG'
p3992
I16405
sS'CTATTA'
p3993
I17293
sS'CTATTC'
p3994
I17462
sS'TCGATG'
p3995
I4138
sS'TGTTAA'
p3996
I27406
sS'TCGATA'
p3997
I1947
sS'TCGATC'
p3998
I3229
sS'CTATTT'
p3999
I34664
sS'CGCGAA'
p4000
I3556
sS'GCATTG'
p4001
I20432
sS'CAGCCT'
p4002
I83248
sS'TCGATT'
p4003
I3820
sS'CTACCG'
p4004
I5103
sS'TCGGCA'
p4005
I6957
sS'TGGTTT'
p4006
I44507
sS'ACAATG'
p4007
I29253
sS'AACCAA'
p4008
I31063
sS'TGCCGG'
p4009
I14226
sS'AACCAC'
p4010
I30271
sS'AGGCAA'
p4011
I40444
sS'AACCAG'
p4012
I37884
sS'TGCCGA'
p4013
I6872
sS'TTGGAC'
p4014
I18331
sS'TCGGGC'
p4015
I12151
sS'CCGTGC'
p4016
I12284
sS'CGCGAG'
p4017
I9552
sS'GCGCCG'
p4018
I23112
sS'GGCGGC'
p4019
I42983
sS'NNCTGA'
p4020
I1
sS'AACCAT'
p4021
I22241
sS'AACAGA'
p4022
I46619
sS'ACGTCG'
p4023
I2464
sS'AACAGC'
p4024
I35606
sS'CTACCC'
p4025
I19173
sS'AACAGG'
p4026
I40170
sS'ACGTCA'
p4027
I7885
sS'CCCAAG'
p4028
I43421
sS'GTCCCT'
p4029
I34693
sS'GACGAA'
p4030
I4824
sS'CCCAAC'
p4031
I28801
sS'CCCAAA'
p4032
I45873
sS'GGGAGG'
p4033
I103185
sS'GGGAGA'
p4034
I57886
sS'GCGGAC'
p4035
I9214
sS'GGGAGC'
p4036
I49519
sS'ACGAAG'
p4037
I7146
sS'TCAGAT'
p4038
I32920
sS'GACGAT'
p4039
I3584
sS'GGGCGC'
p4040
I31880
sS'GGGCGA'
p4041
I14818
sS'GCATCA'
p4042
I23250
sS'GGGCGG'
p4043
I51380
sS'TCTCTT'
p4044
I53057
sS'GTACAG'
p4045
I19640
sS'CGTTAA'
p4046
I4055
sS'CAGAAT'
p4047
I38906
sS'GTACAC'
p4048
I13570
sS'TCTCTC'
p4049
I62428
sS'TCTCTA'
p4050
I33213
sS'TCTCTG'
p4051
I65204
sS'GGGCGT'
p4052
I14718
sS'CAGAAA'
p4053
I66576
sS'CAGAAC'
p4054
I34855
sS'ACGACG'
p4055
I2630
sS'CAGAAG'
p4056
I55265
sS'CCTTCA'
p4057
I38726
sS'CACTTT'
p4058
I44498
sS'CCTAAT'
p4059
I17735
sS'CGCTAG'
p4060
I5003
sS'TGCCCC'
p4061
I44185
sS'CACTTG'
p4062
I33353
sS'CCTAAC'
p4063
I16577
sS'CCTAAA'
p4064
I25475
sS'CACTTC'
p4065
I36544
sS'CCTAAG'
p4066
I22709
sS'CACTTA'
p4067
I23835
sS'GTCCCA'
p4068
I31451
sS'ACAGGA'
p4069
I46109
sS'GTCCCC'
p4070
I33884
sS'AAGATT'
p4071
I30234
sS'CTCATG'
p4072
I32846
sS'GACTCG'
p4073
I7991
sS'CTCATC'
p4074
I31724
sS'GACTCC'
p4075
I29403
sS'CTCATA'
p4076
I20168
sS'GACTCA'
p4077
I38680
sS'ATAGGT'
p4078
I13743
sS'CTCCAA'
p4079
I38315
sS'AAGATG'
p4080
I36957
sS'GACTCT'
p4081
I28281
sS'GTCCCG'
p4082
I14473
sS'ATCGAA'
p4083
I3566
sS'AACTAC'
p4084
I16292
sS'CAGGCA'
p4085
I66989
sS'CCTAGC'
p4086
I20373
sS'ATATTT'
p4087
I57776
sS'ATAGAG'
p4088
I20222
sS'AACTAA'
p4089
I22609
sS'ATAGTT'
p4090
I18291
sS'CTACCA'
p4091
I20481
sS'TACTGT'
p4092
I24154
sS'ATATTC'
p4093
I22236
sS'ATATTA'
p4094
I25182
sS'ATATTG'
p4095
I20464
sS'ATAGTA'
p4096
I15031
sS'TACTGA'
p4097
I23912
sS'TACTGG'
p4098
I21303
sS'ATAGTG'
p4099
I16380
sS'GATCGA'
p4100
I3046
sS'ACGGAC'
p4101
I5570
sS'CAGGCC'
p4102
I57853
sS'CATCCG'
p4103
I7106
sS'AGGAAA'
p4104
I79006
sS'CATCCA'
p4105
I31763
sS'CAGGCG'
p4106
I25363
sS'CATCCC'
p4107
I34020
sS'TTATGA'
p4108
I24691
sS'ATAGAA'
p4109
I27191
sS'CGGAGT'
p4110
I10138
sS'TTATGG'
p4111
I18715
sS'CATCCT'
p4112
I38049
sS'AGGAAT'
p4113
I40882
sS'CAGGCT'
p4114
I67926
sS'ACGGAT'
p4115
I4504
sS'CGGAGA'
p4116
I13573
sS'CGGAGC'
p4117
I21293
sS'TTATGT'
p4118
I27021
sS'CGGAGG'
p4119
I23754
sS'ATGGAA'
p4120
I40052
sS'ATANNA'
p4121
I1
sS'ATGGAC'
p4122
I17422
sS'ATGGAG'
p4123
I37377
sS'CGCTTG'
p4124
I9245
sS'CGCTTA'
p4125
I4092
sS'CGCTTC'
p4126
I11900
sS'ATGGAT'
p4127
I21254
sS'TTTGCA'
p4128
I47302
sS'CGCTTT'
p4129
I9310
sS'GCCGTG'
p4130
I13774
sS'CAAGCC'
p4131
I32358
sS'TTTGCC'
p4132
I36710
sS'GAAAAG'
p4133
I54279
sS'GAAAAC'
p4134
I41714
sS'ATAGAT'
p4135
I18290
sS'GAAAAA'
p4136
I69305
sS'GTTCCT'
p4137
I33857
sS'AGACCT'
p4138
I28944
sS'CAAGCG'
p4139
I9457
sS'GAAAAT'
p4140
I49591
sS'CACGCA'
p4141
I12220
sS'ACAAGG'
p4142
I32718
sS'ACAAGA'
p4143
I33044
sS'ACAAGC'
p4144
I25504
sS'ACACGT'
p4145
I9358
sS'CTGCGT'
p4146
I11662
sS'GCGGAG'
p4147
I25057
sS'CATAAG'
p4148
I17731
sS'GCGGAA'
p4149
I9820
sS'CATAAA'
p4150
I33054
sS'AGGTAC'
p4151
I15480
sS'CATAAC'
p4152
I14958
sS'ACACGC'
p4153
I10742
sS'ACAAGT'
p4154
I25499
sS'ACACGA'
p4155
I6439
sS'ACACGG'
p4156
I10643
sS'CATAAT'
p4157
I21598
sS'GCGGAT'
p4158
I6627
sS'GCACAT'
p4159
I25913
sS'CTGCGG'
p4160
I23188
sS'ATCCCA'
p4161
I37558
sS'CTGCGA'
p4162
I9870
sS'CTGCGC'
p4163
I20380
sS'CGGCAA'
p4164
I7048
sS'CGGCAC'
p4165
I10149
sS'ATCGCT'
p4166
I6695
sS'CGGCAG'
p4167
I20496
sS'CCTCCT'
p4168
I82657
sS'AGCGCT'
p4169
I11779
sS'CGGCAT'
p4170
I6020
sS'CCTCCC'
p4171
I103149
sS'CCTCCA'
p4172
I58862
sS'CACGCC'
p4173
I20631
sS'CCTCCG'
p4174
I23889
s.