(dp0
S'AAAAAC'
p1
I1934
sS'GAACGT'
p2
I240
sS'CGTCGT'
p3
I216
sS'CTTCTT'
p4
I1915
sS'CACCCT'
p5
I2968
sS'ATTGAA'
p6
I1433
sS'GAACGG'
p7
I744
sS'GAACGC'
p8
I764
sS'GAACGA'
p9
I453
sS'CAACAT'
p10
I377
sS'CACCCA'
p11
I6694
sS'CTTCTA'
p12
I5502
sS'CACCCC'
p13
I6388
sS'CTTCTC'
p14
I7757
sS'CACCCG'
p15
I2555
sS'CTTCTG'
p16
I12400
sS'CGTGTG'
p17
I3151
sS'TAAGGT'
p18
I883
sS'CGTGTC'
p19
I1104
sS'CGTGTA'
p20
I988
sS'AGGCAA'
p21
I1957
sS'GGAAAT'
p22
I613
sS'TAAGGG'
p23
I2109
sS'CGTGTT'
p24
I305
sS'TAAGGC'
p25
I1701
sS'TAAGGA'
p26
I2912
sS'GTCAAA'
p27
I4288
sS'GTCAAC'
p28
I3729
sS'GTCAAG'
p29
I4826
sS'CTGTCC'
p30
I7943
sS'TCAGAG'
p31
I1346
sS'CTGTCA'
p32
I6327
sS'CTGTCG'
p33
I1470
sS'TCAGAC'
p34
I715
sS'TCAGAA'
p35
I1495
sS'GTCAAT'
p36
I1178
sS'GTATCA'
p37
I1570
sS'GTATCC'
p38
I1643
sS'GTATCG'
p39
I315
sS'CTGTCT'
p40
I4312
sS'GGTGTC'
p41
I2309
sS'GGTGTA'
p42
I2271
sS'GGTGTG'
p43
I7286
sS'TATCCT'
p44
I1305
sS'CCGGGG'
p45
I1473
sS'TTCTGT'
p46
I8317
sS'AGAGGT'
p47
I1143
sS'CCGGGC'
p48
I1256
sS'CCGGGA'
p49
I1170
sS'TATCCA'
p50
I2634
sS'AGGCAG'
p51
I4660
sS'TATCCC'
p52
I2141
sS'TGGTTG'
p53
I5875
sS'TATCCG'
p54
I554
sS'GGTGTT'
p55
I615
sS'ATTCCG'
p56
I470
sS'TTCTGG'
p57
I15327
sS'CCGGGT'
p58
I365
sS'ATTCCC'
p59
I1717
sS'TTCTGC'
p60
I15259
sS'ATTCCA'
p61
I2611
sS'TTCTGA'
p62
I12829
sS'CTTGGA'
p63
I3816
sS'TATCTT'
p64
I1726
sS'CGCGGT'
p65
I592
sS'AGGGAG'
p66
I4299
sS'CGCGGG'
p67
I4461
sS'NCCGCC'
p68
I1
sS'CGCGGC'
p69
I4055
sS'CGCGGA'
p70
I1652
sS'ACCTGT'
p71
I3157
sS'TCATGT'
p72
I1133
sS'AGGGAC'
p73
I1894
sS'TTACAG'
p74
I1245
sS'CTCCGC'
p75
I7396
sS'TTACAA'
p76
I1065
sS'TTACAC'
p77
I582
sS'CTCCGG'
p78
I5493
sS'TCATGC'
p79
I1335
sS'ACCTGG'
p80
I9361
sS'GGCGAA'
p81
I899
sS'GTAAGC'
p82
I1459
sS'TCATGG'
p83
I1457
sS'ACCTGC'
p84
I9342
sS'ACCTGA'
p85
I5711
sS'TTACAT'
p86
I497
sS'CTCGAT'
p87
I156
sS'CTCCGT'
p88
I1228
sS'GAATTT'
p89
I634
sS'GCCTGA'
p90
I9289
sS'GCCTGC'
p91
I15395
sS'GCCTGG'
p92
I20645
sS'TAAAGG'
p93
I3991
sS'CAAATT'
p94
I557
sS'TAAAGA'
p95
I3759
sS'TAAAGC'
p96
I2845
sS'GCCTGT'
p97
I5733
sS'TATCTA'
p98
I5553
sS'TAAAGT'
p99
I1456
sS'CAAATA'
p100
I5472
sS'CAAATC'
p101
I1234
sS'CGTGCT'
p102
I469
sS'CAAATG'
p103
I4253
sS'AATACT'
p104
I1852
sS'TATCTC'
p105
I4912
sS'CGTCAA'
p106
I500
sS'GGCATG'
p107
I8800
sS'GGCATA'
p108
I3426
sS'GGCATC'
p109
I3625
sS'AATACG'
p110
I819
sS'AATACA'
p111
I4917
sS'AATACC'
p112
I3082
sS'GGCATT'
p113
I1339
sS'CGTCAG'
p114
I1269
sS'TGCACA'
p115
I7986
sS'GAGCAC'
p116
I3720
sS'GAGCAA'
p117
I3772
sS'GAGCAG'
p118
I7405
sS'AGTAGT'
p119
I1316
sS'ATACAC'
p120
I572
sS'TCTCGC'
p121
I1348
sS'TCTCGA'
p122
I596
sS'TCTCGG'
p123
I1432
sS'AGTAGC'
p124
I2911
sS'AGTAGA'
p125
I3071
sS'AGTAGG'
p126
I3619
sS'ACTGAA'
p127
I1811
sS'TTGAAC'
p128
I1575
sS'TCTCGT'
p129
I308
sS'GTGTCG'
p130
I1277
sS'TCGAAC'
p131
I145
sS'TCGAAA'
p132
I157
sS'GTGTCC'
p133
I6460
sS'TCGAAG'
p134
I272
sS'GTGTCA'
p135
I5575
sS'CTTGCT'
p136
I2696
sS'GTCGGT'
p137
I407
sS'AGACAC'
p138
I770
sS'TCGGTC'
p139
I341
sS'GTGTCT'
p140
I3453
sS'TTGAAG'
p141
I2228
sS'TCGAAT'
p142
I46
sS'CTTGCG'
p143
I1096
sS'CTTGCA'
p144
I4033
sS'TCGGTA'
p145
I334
sS'CTTGCC'
p146
I4169
sS'CGAAAG'
p147
I334
sS'CGAAAA'
p148
I178
sS'CGAAAC'
p149
I233
sS'AAGGTT'
p150
I842
sS'CACGGA'
p151
I1686
sS'ACAGTG'
p152
I2988
sS'CACGGC'
p153
I2575
sS'AAATGA'
p154
I2648
sS'ACAGTC'
p155
I894
sS'CACGGG'
p156
I2602
sS'ACAGTA'
p157
I1522
sS'CGAAAT'
p158
I73
sS'ACAGTT'
p159
I472
sS'AATCAG'
p160
I4936
sS'AATCAA'
p161
I3543
sS'AAATGT'
p162
I1430
sS'AATCAC'
p163
I3942
sS'GGGTCT'
p164
I968
sS'GCTCAA'
p165
I1835
sS'TCTAGT'
p166
I1016
sS'TTGCCG'
p167
I1081
sS'TTGCCA'
p168
I4186
sS'TTGCCC'
p169
I4255
sS'ACTGCC'
p170
I2464
sS'GGGTAC'
p171
I633
sS'TCTAGG'
p172
I2969
sS'ATACGC'
p173
I155
sS'TCTAGA'
p174
I2114
sS'GGGTAG'
p175
I1098
sS'TCTAGC'
p176
I1967
sS'ATACGG'
p177
I210
sS'AATTGG'
p178
I3699
sS'AGATGT'
p179
I964
sS'TCGCCC'
p180
I677
sS'TCGCCA'
p181
I389
sS'GGGTCG'
p182
I793
sS'TCGCCG'
p183
I318
sS'GGTAAT'
p184
I571
sS'ACCCAT'
p185
I442
sS'GTGTAT'
p186
I1038
sS'ACCCAC'
p187
I2474
sS'GGTAAC'
p188
I1726
sS'ACCCAA'
p189
I1830
sS'AGATGG'
p190
I1922
sS'ACCCAG'
p191
I3819
sS'GGTAAG'
p192
I2310
sS'TCGCCT'
p193
I240
sS'AGATGC'
p194
I1417
sS'TTTGAG'
p195
I3337
sS'CCCCAT'
p196
I650
sS'TTGGGT'
p197
I1071
sS'CACTAG'
p198
I5204
sS'CACTAA'
p199
I5199
sS'CACTAC'
p200
I4102
sS'CCCCAA'
p201
I2227
sS'CCCCAC'
p202
I3731
sS'CCCCAG'
p203
I4582
sS'CACTAT'
p204
I1578
sS'TTGGGG'
p205
I3005
sS'CGCTAG'
p206
I1500
sS'TTGGGA'
p207
I3051
sS'TTGGGC'
p208
I2008
sS'TGCCTG'
p209
I21827
sS'GTGGGT'
p210
I1693
sS'TTTCTG'
p211
I12594
sS'TGCAGC'
p212
I12036
sS'TGCCTC'
p213
I12347
sS'TTTCTC'
p214
I7649
sS'TGCAGG'
p215
I14208
sS'GGGTCA'
p216
I2354
sS'GTATCT'
p217
I1120
sS'TTTCTT'
p218
I2248
sS'TGCCTT'
p219
I3255
sS'TGCAGT'
p220
I5632
sS'ACAATT'
p221
I380
sS'AAGGAA'
p222
I4820
sS'AAGGAC'
p223
I2833
sS'AAGGAG'
p224
I5403
sS'ATATGC'
p225
I1344
sS'ATATGA'
p226
I1360
sS'TACGAA'
p227
I596
sS'ATATGG'
p228
I1241
sS'ACGATC'
p229
I167
sS'GATGGA'
p230
I4607
sS'AAGGAT'
p231
I730
sS'CTATCA'
p232
I1706
sS'TGGTTT'
p233
I1430
sS'ATATGT'
p234
I1189
sS'GGTCCC'
p235
I2140
sS'GCCCAG'
p236
I8671
sS'GGTCCA'
p237
I1265
sS'GCCCAA'
p238
I2822
sS'GGTCCG'
p239
I776
sS'GCCCAC'
p240
I3882
sS'ATGGCG'
p241
I796
sS'AGACCC'
p242
I526
sS'CTTCGG'
p243
I1701
sS'TCTTGT'
p244
I2076
sS'CTTCGC'
p245
I1540
sS'CTTAGT'
p246
I1638
sS'TCCGGG'
p247
I4040
sS'AGGTCA'
p248
I3920
sS'AAAGTT'
p249
I548
sS'TCCGGC'
p250
I2614
sS'GGTCCT'
p251
I708
sS'TCCGGA'
p252
I1505
sS'CTTAGC'
p253
I2966
sS'ATTGTG'
p254
I3925
sS'CTTAGA'
p255
I3223
sS'TCTTGC'
p256
I4306
sS'CTTAGG'
p257
I3536
sS'ATTGTC'
p258
I1358
sS'TCTTGG'
p259
I4646
sS'CGCTAC'
p260
I1336
sS'ATTTTG'
p261
I8408
sS'GAGGTG'
p262
I11421
sS'ATTTTA'
p263
I9650
sS'GAGGTA'
p264
I4541
sS'ATTTTC'
p265
I4712
sS'TCCAGC'
p266
I10328
sS'TAGCAG'
p267
I2451
sS'GATACT'
p268
I1548
sS'TAGCAC'
p269
I1694
sS'TAGCAA'
p270
I1938
sS'GAGGTT'
p271
I1161
sS'CGCTAA'
p272
I1125
sS'GCCTTG'
p273
I18333
sS'GTGGGG'
p274
I6040
sS'GCCTTA'
p275
I8508
sS'TTGACA'
p276
I2613
sS'TAAATG'
p277
I5541
sS'GATACG'
p278
I725
sS'TAGCAT'
p279
I607
sS'GATACC'
p280
I2403
sS'GATTTC'
p281
I8478
sS'TGAGCT'
p282
I1177
sS'ACGGAC'
p283
I203
sS'GATCAT'
p284
I936
sS'ACCGAG'
p285
I1139
sS'AAGACC'
p286
I2952
sS'GATTTA'
p287
I10197
sS'AAACAT'
p288
I625
sS'AAGACG'
p289
I1277
sS'GATCAG'
p290
I4246
sS'TGAGCG'
p291
I618
sS'GATCAC'
p292
I3633
sS'GATCAA'
p293
I2872
sS'AAGACT'
p294
I1852
sS'CTTCCA'
p295
I4823
sS'GCGGTA'
p296
I499
sS'GCGGTG'
p297
I1988
sS'CTATCG'
p298
I343
sS'CGGTGT'
p299
I540
sS'TCGTTA'
p300
I543
sS'TCGTTC'
p301
I548
sS'ATGTGG'
p302
I3840
sS'TCGTTG'
p303
I834
sS'GAGTTT'
p304
I2049
sS'GCGGTT'
p305
I118
sS'ACTTGC'
p306
I3063
sS'ACCACC'
p307
I4762
sS'ACTTGA'
p308
I2824
sS'CGGTGG'
p309
I1672
sS'ACTTGG'
p310
I3392
sS'CAGTTA'
p311
I5570
sS'CGGTGC'
p312
I1452
sS'TTCCTA'
p313
I11178
sS'TAGACT'
p314
I1230
sS'TTCCTC'
p315
I17464
sS'ACCACA'
p316
I6085
sS'TGGGTT'
p317
I619
sS'TTCCTG'
p318
I27675
sS'TCCTTT'
p319
I6993
sS'CAGTTG'
p320
I6930
sS'TAGACG'
p321
I686
sS'TTCCTT'
p322
I5684
sS'TAGACC'
p323
I1810
sS'TAGACA'
p324
I3192
sS'TCCTTG'
p325
I21335
sS'TCCTTA'
p326
I13354
sS'TCCTTC'
p327
I19681
sS'ATCTCT'
p328
I3867
sS'ACCGTT'
p329
I227
sS'TGGCGC'
p330
I1208
sS'TTTACG'
p331
I754
sS'TGGCGA'
p332
I639
sS'TGGCGG'
p333
I1760
sS'AATGCA'
p334
I5262
sS'AATTGA'
p335
I3740
sS'ATCTCG'
p336
I1809
sS'ATCTCA'
p337
I8013
sS'ATCTCC'
p338
I7218
sS'GGCCAA'
p339
I3735
sS'ACGGAG'
p340
I397
sS'GGCCAC'
p341
I4657
sS'ACCGTG'
p342
I2473
sS'ACCGTA'
p343
I816
sS'GGCCAG'
p344
I6575
sS'ACCGTC'
p345
I1023
sS'ACCGAC'
p346
I619
sS'CCACAG'
p347
I1052
sS'GGCAGT'
p348
I3641
sS'CCATAA'
p349
I489
sS'CAAAGG'
p350
I4145
sS'CCATAC'
p351
I367
sS'CAAAGA'
p352
I3619
sS'GAAACG'
p353
I1066
sS'CAAAGC'
p354
I3202
sS'CCATAG'
p355
I467
sS'GGCAGA'
p356
I8666
sS'GGCAGC'
p357
I12313
sS'AACGTA'
p358
I1496
sS'GGCAGG'
p359
I16783
sS'CAACGC'
p360
I356
sS'CTAACA'
p361
I2671
sS'CAACGA'
p362
I254
sS'GCACTC'
p363
I799
sS'CAACGG'
p364
I325
sS'CGTGAA'
p365
I582
sS'GGGGGT'
p366
I557
sS'TACGCT'
p367
I430
sS'AGATTG'
p368
I2218
sS'CGATCT'
p369
I115
sS'NNNNNC'
p370
I2
sS'CTCTAG'
p371
I7490
sS'CTCTAA'
p372
I6584
sS'CTCTAC'
p373
I6000
sS'NNNCGC'
p374
I1
sS'GGGGGG'
p375
I1216
sS'CGATCC'
p376
I280
sS'TACGCC'
p377
I1082
sS'GGGGGC'
p378
I1554
sS'CGATCG'
p379
I75
sS'GGGGGA'
p380
I1638
sS'TACGCG'
p381
I594
sS'CTCTAT'
p382
I2161
sS'GCGCAG'
p383
I818
sS'CAGACC'
p384
I3415
sS'CAGACA'
p385
I4976
sS'CAGACG'
p386
I1362
sS'TAGTTG'
p387
I4954
sS'GCTAAT'
p388
I430
sS'TAGTTC'
p389
I3620
sS'TAGTTA'
p390
I4772
sS'CAGACT'
p391
I1804
sS'GCTAAG'
p392
I2063
sS'TAGTTT'
p393
I1527
sS'GCTAAC'
p394
I1201
sS'GCTAAA'
p395
I1459
sS'CGAGTA'
p396
I282
sS'TGCATT'
p397
I2472
sS'GCGAAA'
p398
I237
sS'AACCCT'
p399
I2191
sS'AACCCC'
p400
I4207
sS'TGCATG'
p401
I10546
sS'AACCCG'
p402
I1964
sS'ATGCAC'
p403
I1178
sS'TGCATC'
p404
I4824
sS'AGATTT'
p405
I489
sS'AGTTTG'
p406
I11654
sS'CTACAC'
p407
I602
sS'AACTGA'
p408
I8944
sS'AACTGC'
p409
I9984
sS'CCCAGA'
p410
I7616
sS'CCCAGC'
p411
I13220
sS'CCCAGG'
p412
I14905
sS'AACTGT'
p413
I4466
sS'AGTTTT'
p414
I1934
sS'ACGTAT'
p415
I98
sS'AGTCAA'
p416
I2817
sS'CGAGTC'
p417
I352
sS'CCCAGT'
p418
I3430
sS'CGCATA'
p419
I760
sS'ATACTG'
p420
I1622
sS'CGCATC'
p421
I1361
sS'ATACTA'
p422
I916
sS'ATACTC'
p423
I583
sS'CGCATG'
p424
I2485
sS'GCGCAA'
p425
I204
sS'GCGAAT'
p426
I65
sS'ATACTT'
p427
I284
sS'CTATCT'
p428
I1223
sS'GCGCAC'
p429
I447
sS'GCTCCG'
p430
I1733
sS'TATTGT'
p431
I3569
sS'GCTCCC'
p432
I3518
sS'GCTCCA'
p433
I3081
sS'CCTACT'
p434
I1236
sS'TGTACT'
p435
I1488
sS'TTTAGT'
p436
I1805
sS'TATTGG'
p437
I4605
sS'GCTCCT'
p438
I1784
sS'TATTGC'
p439
I5065
sS'TATTGA'
p440
I5029
sS'TTTAGG'
p441
I3381
sS'TGTACG'
p442
I588
sS'CCTACG'
p443
I611
sS'TGTACA'
p444
I3568
sS'CCTACA'
p445
I2038
sS'TGTACC'
p446
I2255
sS'CCTACC'
p447
I2503
sS'TTCGCG'
p448
I769
sS'TTCGCA'
p449
I1016
sS'TTCGCC'
p450
I1696
sS'AGTATC'
p451
I1591
sS'GACTAA'
p452
I6829
sS'AGTATA'
p453
I2740
sS'TTTGGG'
p454
I3764
sS'AGTATG'
p455
I3625
sS'TTTGGA'
p456
I3257
sS'GACTAG'
p457
I5263
sS'TTCGCT'
p458
I702
sS'TTTGGT'
p459
I1328
sS'GACTAT'
p460
I1811
sS'AGTATT'
p461
I812
sS'TTACTC'
p462
I1166
sS'TTACTA'
p463
I1472
sS'TTACTG'
p464
I2844
sS'ACCTTG'
p465
I12449
sS'ACCTTC'
p466
I8676
sS'ACCTTA'
p467
I7007
sS'GTAAAC'
p468
I2111
sS'ACGCTT'
p469
I137
sS'ACCTTT'
p470
I2677
sS'ACAGGG'
p471
I2331
sS'CTGGGA'
p472
I7593
sS'CTGGGC'
p473
I5649
sS'ACAGGC'
p474
I2012
sS'ACAGGA'
p475
I2931
sS'CTGGGG'
p476
I6495
sS'AGGACG'
p477
I1565
sS'GCAGCT'
p478
I2238
sS'CAGGAA'
p479
I3930
sS'TCGCTT'
p480
I158
sS'AGGACC'
p481
I3048
sS'AGGACA'
p482
I4349
sS'GCGCAT'
p483
I89
sS'CGATTT'
p484
I49
sS'TTATAC'
p485
I730
sS'ACAGGT'
p486
I1387
sS'CTGGGT'
p487
I2487
sS'TTATAG'
p488
I855
sS'CTCCGA'
p489
I2257
sS'TCGCTG'
p490
I1393
sS'GCAGCG'
p491
I1416
sS'AGGACT'
p492
I1760
sS'GCAGCA'
p493
I4025
sS'GCAGCC'
p494
I3593
sS'CAGGAT'
p495
I730
sS'CCTCAG'
p496
I3711
sS'CCTCAA'
p497
I1941
sS'CCTCAC'
p498
I2379
sS'TATGTT'
p499
I1411
sS'ATGGGC'
p500
I1394
sS'TCTTTG'
p501
I13705
sS'ATGGGA'
p502
I2587
sS'TCTTTA'
p503
I9663
sS'ATGGGG'
p504
I2389
sS'TCTTTC'
p505
I8774
sS'CCTCAT'
p506
I724
sS'TCTTTT'
p507
I2590
sS'TATGTG'
p508
I8382
sS'TATGTA'
p509
I6830
sS'ATGGGT'
p510
I777
sS'TATGTC'
p511
I2996
sS'GAAAGA'
p512
I6033
sS'ATCAAG'
p513
I3682
sS'CATGAT'
p514
I687
sS'TCATGA'
p515
I1147
sS'GAAAGG'
p516
I7496
sS'ATCAAA'
p517
I3743
sS'GGAACT'
p518
I853
sS'GTCAGG'
p519
I10471
sS'CATGAG'
p520
I3921
sS'ATCAAT'
p521
I738
sS'GTCCAA'
p522
I2707
sS'GAAAGT'
p523
I1825
sS'CATGAA'
p524
I2823
sS'GTAGCG'
p525
I522
sS'CAAGTT'
p526
I625
sS'GCTTTG'
p527
I12600
sS'GCTTTA'
p528
I7069
sS'GCTTTC'
p529
I6784
sS'GAGGAT'
p530
I944
sS'GCTTTT'
p531
I1843
sS'CAAGTG'
p532
I3481
sS'GTAGCT'
p533
I1657
sS'GCGGCC'
p534
I2238
sS'CAAGTC'
p535
I1481
sS'GCGGCA'
p536
I1016
sS'CAAGTA'
p537
I1955
sS'AACGGT'
p538
I405
sS'GGGGAA'
p539
I1593
sS'TAATCG'
p540
I254
sS'GGTCTT'
p541
I602
sS'TAATCA'
p542
I1752
sS'TAATCC'
p543
I1659
sS'CTAAGC'
p544
I1822
sS'CGGCCC'
p545
I2643
sS'CGACTA'
p546
I143
sS'CGGCCA'
p547
I1362
sS'CGCTAT'
p548
I347
sS'CGGCCG'
p549
I1288
sS'TCGTGA'
p550
I318
sS'ATGAAG'
p551
I1987
sS'GGTCTG'
p552
I6077
sS'TAATCT'
p553
I861
sS'TGCGAC'
p554
I874
sS'GGTCTC'
p555
I3555
sS'GGTCTA'
p556
I2056
sS'AAAATG'
p557
I4665
sS'AAAATC'
p558
I1261
sS'AAAATA'
p559
I4279
sS'TTCAGC'
p560
I9590
sS'CTAACC'
p561
I1847
sS'ATCCCT'
p562
I1520
sS'TTCAGG'
p563
I11682
sS'GAACAT'
p564
I303
sS'TCGTCG'
p565
I170
sS'TTTAGC'
p566
I2753
sS'TGCCAA'
p567
I4051
sS'GAACAA'
p568
I1276
sS'ATCCCG'
p569
I1255
sS'GAACAC'
p570
I1000
sS'ATCCCC'
p571
I3048
sS'GAACAG'
p572
I1574
sS'ATCCCA'
p573
I3350
sS'ATTGCA'
p574
I2142
sS'CACCAC'
p575
I5537
sS'CACCAA'
p576
I3909
sS'CACCAG'
p577
I6239
sS'TCCGTG'
p578
I3405
sS'ATTGCG'
p579
I377
sS'AGGCGT'
p580
I577
sS'TCCGTC'
p581
I1795
sS'TCCGTA'
p582
I1109
sS'ACCAGA'
p583
I4718
sS'CGGCGT'
p584
I287
sS'AAATGC'
p585
I2392
sS'ACGCGA'
p586
I237
sS'CACCAT'
p587
I1276
sS'TCCGTT'
p588
I385
sS'AACATA'
p589
I8234
sS'AACATC'
p590
I5716
sS'TCAGCA'
p591
I2731
sS'GCACGG'
p592
I492
sS'GTCAGA'
p593
I7264
sS'GCACGA'
p594
I258
sS'CAGTCC'
p595
I5349
sS'GCACGC'
p596
I499
sS'GCAAGT'
p597
I939
sS'AACAAC'
p598
I6239
sS'GCACCA'
p599
I1316
sS'GCAAGC'
p600
I1389
sS'GCACGT'
p601
I222
sS'CAGTCT'
p602
I2615
sS'GCAAGG'
p603
I2288
sS'GTCAGT'
p604
I3605
sS'GTATAC'
p605
I688
sS'TTCCGT'
p606
I930
sS'GTATAA'
p607
I929
sS'GTATAG'
p608
I640
sS'CCGGAA'
p609
I477
sS'CCGGAC'
p610
I307
sS'CCGGAG'
p611
I622
sS'CGTCTT'
p612
I380
sS'TGACGT'
p613
I136
sS'TTCCGG'
p614
I4223
sS'TTCCGA'
p615
I1430
sS'TTCCGC'
p616
I3247
sS'GTATAT'
p617
I595
sS'CGTCTC'
p618
I2490
sS'CGTCTA'
p619
I1035
sS'CGTCTG'
p620
I3134
sS'CCGGAT'
p621
I87
sS'CTCTTC'
p622
I21796
sS'TGTTAT'
p623
I1291
sS'CTCTTA'
p624
I14069
sS'CTCTTG'
p625
I21842
sS'CCCGAT'
p626
I148
sS'TACGTA'
p627
I1546
sS'TACGTC'
p628
I1038
sS'TCTGGT'
p629
I998
sS'AACAAA'
p630
I13195
sS'CGCGAT'
p631
I166
sS'TACGTG'
p632
I2628
sS'TGTTAG'
p633
I3548
sS'GCTGTT'
p634
I991
sS'TGTTAC'
p635
I3022
sS'CTCTTT'
p636
I8541
sS'TGTTAA'
p637
I4050
sS'CGCGAA'
p638
I607
sS'CGCGAC'
p639
I1013
sS'GATATT'
p640
I1081
sS'TCTGGC'
p641
I2615
sS'TACGTT'
p642
I400
sS'TCTGGA'
p643
I2676
sS'AGTCGT'
p644
I428
sS'TTACCT'
p645
I990
sS'CTCCAT'
p646
I1558
sS'ACTAGA'
p647
I1630
sS'TTACCG'
p648
I258
sS'CTCCAC'
p649
I6891
sS'CTCCAA'
p650
I4925
sS'TTACCC'
p651
I925
sS'CTCCAG'
p652
I9758
sS'TTACCA'
p653
I1493
sS'AGTCGC'
p654
I1481
sS'CCGACT'
p655
I214
sS'GCCTAC'
p656
I3434
sS'GCCTAA'
p657
I3421
sS'GCCTAG'
p658
I4893
sS'CCGACA'
p659
I380
sS'GATATC'
p660
I1797
sS'CCGACC'
p661
I728
sS'CCGACG'
p662
I285
sS'GCCTAT'
p663
I1176
sS'TGACGG'
p664
I290
sS'CCCGAG'
p665
I2169
sS'TGACGA'
p666
I191
sS'TCAGCG'
p667
I626
sS'CTAAGT'
p668
I1366
sS'GGTTTT'
p669
I1552
sS'CGTCCT'
p670
I508
sS'CGCACA'
p671
I2508
sS'CTTGAG'
p672
I3208
sS'CGCACC'
p673
I3308
sS'ATACAA'
p674
I912
sS'ACTGCT'
p675
I1165
sS'ATACAG'
p676
I702
sS'CGCACG'
p677
I1839
sS'GGGTCC'
p678
I2389
sS'CTCACT'
p679
I6383
sS'TTTGTA'
p680
I5953
sS'ACTGCA'
p681
I3142
sS'TTTGTC'
p682
I3342
sS'TATCTG'
p683
I9290
sS'CGCACT'
p684
I1216
sS'TTTGTG'
p685
I8484
sS'ACTGCG'
p686
I944
sS'CTCACC'
p687
I11591
sS'CTCACA'
p688
I9945
sS'CTCACG'
p689
I3107
sS'TAGTGG'
p690
I3746
sS'GTGAGG'
p691
I5446
sS'GATTTT'
p692
I2696
sS'TAGTGC'
p693
I2836
sS'GTGAGC'
p694
I4042
sS'TAGTGA'
p695
I3019
sS'GTGAGA'
p696
I3506
sS'TCGACG'
p697
I119
sS'TCGACA'
p698
I190
sS'TCGACC'
p699
I289
sS'GATTTG'
p700
I12551
sS'GTGAGT'
p701
I2035
sS'TAGTGT'
p702
I1833
sS'GTGGGA'
p703
I4463
sS'ACAATG'
p704
I2615
sS'TCGACT'
p705
I115
sS'ACGTAA'
p706
I204
sS'CTGGTT'
p707
I1156
sS'TTGAGT'
p708
I1405
sS'TCAAAA'
p709
I983
sS'CGAACG'
p710
I184
sS'CGAACC'
p711
I457
sS'CGAACA'
p712
I354
sS'CTGGTG'
p713
I6621
sS'CTGGTA'
p714
I2982
sS'CTGGTC'
p715
I2470
sS'CTGCAA'
p716
I2551
sS'CGAACT'
p717
I197
sS'TTGCAT'
p718
I743
sS'NNGAAT'
p719
I1
sS'GCGGAA'
p720
I442
sS'TTGCAG'
p721
I2600
sS'TCCATA'
p722
I4967
sS'CTTGAT'
p723
I699
sS'TTGCAC'
p724
I1609
sS'TTGCAA'
p725
I1715
sS'AAGATC'
p726
I2145
sS'ACGTAC'
p727
I194
sS'GAGGGC'
p728
I7347
sS'TCGCAT'
p729
I55
sS'GTCGTG'
p730
I1975
sS'GTCGTA'
p731
I854
sS'GTCGTC'
p732
I1155
sS'CCGTTT'
p733
I225
sS'ACTGAT'
p734
I464
sS'ATATCG'
p735
I181
sS'GTCGTT'
p736
I299
sS'TCAGAT'
p737
I446
sS'TCGCAG'
p738
I349
sS'TCCATG'
p739
I9187
sS'TCGCAC'
p740
I166
sS'CCGTTG'
p741
I957
sS'CCGTTA'
p742
I514
sS'CCGTTC'
p743
I713
sS'AATGCT'
p744
I1811
sS'GGTACG'
p745
I400
sS'GGTACA'
p746
I1586
sS'GGTACC'
p747
I1301
sS'TATTTG'
p748
I20132
sS'CCAGTT'
p749
I686
sS'TATTTC'
p750
I11208
sS'TATTTA'
p751
I21214
sS'CCCCCT'
p752
I1307
sS'GGTACT'
p753
I678
sS'AATGCG'
p754
I1046
sS'AATCTT'
p755
I1372
sS'AATGCC'
p756
I3810
sS'GCCGTG'
p757
I4393
sS'CCCCCC'
p758
I1683
sS'CCCCCA'
p759
I3043
sS'TATTTT'
p760
I4966
sS'CCCCCG'
p761
I1814
sS'GAGCGA'
p762
I2135
sS'GTGCGA'
p763
I664
sS'ATGATG'
p764
I3758
sS'ATGATA'
p765
I1814
sS'CTTGAA'
p766
I2827
sS'TGCAAC'
p767
I4270
sS'TGCAAA'
p768
I7162
sS'TGCAAG'
p769
I6150
sS'GCCGTC'
p770
I2142
sS'ATGATT'
p771
I575
sS'TATCAC'
p772
I2512
sS'CGAATC'
p773
I223
sS'TTGAGG'
p774
I3430
sS'AATCTC'
p775
I4763
sS'CAATGT'
p776
I855
sS'TTGAGC'
p777
I2374
sS'TTGAGA'
p778
I2933
sS'GAGAAT'
p779
I1359
sS'TGTCTT'
p780
I1823
sS'CGAATA'
p781
I226
sS'TTCAGA'
p782
I9701
sS'ACTGAG'
p783
I2428
sS'AAGGCC'
p784
I5297
sS'ATAACC'
p785
I1153
sS'AAGGCA'
p786
I6244
sS'ATAACA'
p787
I2117
sS'AAGGCG'
p788
I2028
sS'ATAACG'
p789
I262
sS'TATGCT'
p790
I1410
sS'TGTGGT'
p791
I1640
sS'TGTCTG'
p792
I13238
sS'GAGAAG'
p793
I9247
sS'GAGAAA'
p794
I6965
sS'TGTCTC'
p795
I7370
sS'GAGAAC'
p796
I4891
sS'TGTCTA'
p797
I5265
sS'TGTGGC'
p798
I4127
sS'TGTGGA'
p799
I3146
sS'TGTGGG'
p800
I4931
sS'ATAACT'
p801
I903
sS'ACTGAC'
p802
I1554
sS'TAGGCT'
p803
I1287
sS'CAATTT'
p804
I312
sS'GCCCCG'
p805
I4962
sS'ACCAAG'
p806
I3768
sS'GGTCAG'
p807
I3033
sS'GCCCCC'
p808
I5358
sS'GGTCAA'
p809
I1485
sS'GCCCCA'
p810
I5692
sS'GGTCAC'
p811
I2411
sS'ACGCCT'
p812
I230
sS'GGTCAT'
p813
I449
sS'CGTGCC'
p814
I1407
sS'CGTGCA'
p815
I1172
sS'GAACTG'
p816
I4036
sS'AGGTAA'
p817
I1694
sS'CAAACT'
p818
I1360
sS'TTTTGC'
p819
I5402
sS'TCTTAC'
p820
I1861
sS'TTTTGA'
p821
I5697
sS'TCTTAA'
p822
I2748
sS'TTTTGG'
p823
I4933
sS'TCTTAG'
p824
I2597
sS'AATTGC'
p825
I4437
sS'TAGCCA'
p826
I2680
sS'TGGGGT'
p827
I794
sS'CGCTCG'
p828
I3057
sS'GATAAT'
p829
I1106
sS'CGCTCA'
p830
I3437
sS'CGCTCC'
p831
I7695
sS'AATTGT'
p832
I2219
sS'CGAGAG'
p833
I512
sS'GCCATC'
p834
I4361
sS'TCTTAT'
p835
I889
sS'GTTATG'
p836
I3347
sS'CGCTCT'
p837
I2351
sS'TGGGGG'
p838
I2568
sS'GATAAC'
p839
I2436
sS'TAGCCT'
p840
I1184
sS'TGGGGC'
p841
I2626
sS'TGGGGA'
p842
I2816
sS'GATCCT'
p843
I1706
sS'AAGAAT'
p844
I1282
sS'CGAAGT'
p845
I261
sS'GTTATC'
p846
I1207
sS'AAGAAC'
p847
I3551
sS'GATCCA'
p848
I2969
sS'AAGAAA'
p849
I5947
sS'GATCCC'
p850
I3414
sS'AAGAAG'
p851
I5616
sS'GATCCG'
p852
I1336
sS'ATACCA'
p853
I1076
sS'ATGCCG'
p854
I705
sS'CAAGGG'
p855
I3176
sS'CAAGGC'
p856
I2788
sS'GGTTCT'
p857
I1833
sS'CAAGGA'
p858
I4177
sS'GGTTCA'
p859
I3344
sS'GGTTCC'
p860
I4358
sS'CAAGGT'
p861
I1748
sS'GGTTCG'
p862
I969
sS'CTGTAT'
p863
I1003
sS'ATTATA'
p864
I2786
sS'ATTATC'
p865
I1198
sS'TAGAAT'
p866
I888
sS'CAAACG'
p867
I602
sS'ATTATG'
p868
I3138
sS'AGTCTT'
p869
I1214
sS'TAGAAA'
p870
I3170
sS'TAGAAC'
p871
I2211
sS'ATTATT'
p872
I902
sS'TAGAAG'
p873
I3416
sS'AGTCTA'
p874
I3934
sS'AGTCTC'
p875
I5553
sS'AGTCTG'
p876
I9429
sS'TAACTC'
p877
I1039
sS'TAACTA'
p878
I1435
sS'TAACTG'
p879
I2486
sS'ATCTAT'
p880
I1028
sS'AGGTAT'
p881
I657
sS'TAACTT'
p882
I408
sS'ATCTAG'
p883
I3572
sS'ATCTAC'
p884
I2851
sS'ATCTAA'
p885
I3904
sS'CCATGT'
p886
I1159
sS'ACCAAA'
p887
I3005
sS'TGGAGG'
p888
I6306
sS'TGGAGA'
p889
I4112
sS'TGGAGC'
p890
I3981
sS'CCATGC'
p891
I1340
sS'CCATGA'
p892
I1150
sS'CCATGG'
p893
I1637
sS'TGGAGT'
p894
I1814
sS'ATTACG'
p895
I431
sS'TCAGTA'
p896
I1329
sS'TCAGTC'
p897
I944
sS'CTCTCT'
p898
I10384
sS'GGGGAT'
p899
I281
sS'TCAGTG'
p900
I2826
sS'CGATAT'
p901
I31
sS'CTCTCG'
p902
I4407
sS'GGGGAC'
p903
I1244
sS'CTCTCC'
p904
I21346
sS'TCAGTT'
p905
I527
sS'GGGGAG'
p906
I2583
sS'ATGCAG'
p907
I1895
sS'CGATAG'
p908
I63
sS'CGATAA'
p909
I50
sS'TATCAA'
p910
I2489
sS'CTAAGG'
p911
I2647
sS'GTGTTT'
p912
I2817
sS'GCTACT'
p913
I1091
sS'GTGGTT'
p914
I1032
sS'CTAAGA'
p915
I2461
sS'GTGTTC'
p916
I5099
sS'GTGTTA'
p917
I5322
sS'GTGTTG'
p918
I8710
sS'ACCAAT'
p919
I1122
sS'GTGGTA'
p920
I2650
sS'GCTACA'
p921
I1933
sS'GTGGTC'
p922
I1609
sS'GCTACC'
p923
I1623
sS'GTGGTG'
p924
I6597
sS'GCTACG'
p925
I627
sS'AGGTAG'
p926
I1623
sS'TTTCGT'
p927
I352
sS'TGCCCT'
p928
I3231
sS'AGCGTT'
p929
I558
sS'CGTGCG'
p930
I997
sS'TGCCCC'
p931
I5971
sS'TGCCCA'
p932
I6050
sS'TGCCCG'
p933
I2574
sS'TTTCGG'
p934
I956
sS'AGCGTA'
p935
I1210
sS'AGCGTC'
p936
I2290
sS'AGCGTG'
p937
I4053
sS'GGCCCC'
p938
I5704
sS'GGCCCA'
p939
I3940
sS'CACGTG'
p940
I6825
sS'GGCCCG'
p941
I3052
sS'CACGTA'
p942
I2030
sS'CACGTC'
p943
I2357
sS'ACGTGC'
p944
I761
sS'CTACGT'
p945
I232
sS'ACGTGA'
p946
I772
sS'GGGACT'
p947
I1403
sS'AAATGG'
p948
I2272
sS'CACGTT'
p949
I665
sS'TTCACG'
p950
I2047
sS'GGCCCT'
p951
I2087
sS'GGGACA'
p952
I2953
sS'CTGAAT'
p953
I798
sS'GGGACC'
p954
I2793
sS'TCGTGG'
p955
I667
sS'GGGACG'
p956
I1502
sS'AGAGAG'
p957
I2411
sS'AGAGAA'
p958
I2613
sS'AGAGAC'
p959
I1329
sS'TCTATA'
p960
I2325
sS'GTCTTT'
p961
I5618
sS'TCTATC'
p962
I1225
sS'TCTATG'
p963
I3298
sS'AGAGAT'
p964
I625
sS'TCGTGC'
p965
I525
sS'GTCTTG'
p966
I15557
sS'TCTATT'
p967
I725
sS'GTCTTC'
p968
I12374
sS'GTCTTA'
p969
I9628
sS'GCAGAG'
p970
I2487
sS'GAAGGC'
p971
I3848
sS'GCTCAC'
p972
I2327
sS'GCAGAC'
p973
I896
sS'GCAGAA'
p974
I2283
sS'GCTCAG'
p975
I3886
sS'AGACGT'
p976
I170
sS'ATGCGT'
p977
I202
sS'TTGCTG'
p978
I11343
sS'TTGCTA'
p979
I4991
sS'TTGCTC'
p980
I6057
sS'GCAGAT'
p981
I581
sS'GCTCAT'
p982
I534
sS'CGAATT'
p983
I67
sS'GTACGG'
p984
I299
sS'TTGCTT'
p985
I2225
sS'CGATTC'
p986
I252
sS'TAGCCG'
p987
I703
sS'ATGCGC'
p988
I619
sS'ATGCGA'
p989
I288
sS'TGTAAG'
p990
I3500
sS'GGCTAG'
p991
I3826
sS'TGTAAC'
p992
I2950
sS'GGCTAC'
p993
I3439
sS'TGTAAA'
p994
I4668
sS'GGCTAA'
p995
I3869
sS'TTCGAG'
p996
I862
sS'TTGGTA'
p997
I2166
sS'ACTGTC'
p998
I1921
sS'TTGGTC'
p999
I1611
sS'TTCGAC'
p1000
I525
sS'TTCGAA'
p1001
I493
sS'TTGGTG'
p1002
I4058
sS'GACTGC'
p1003
I12264
sS'GGCTAT'
p1004
I939
sS'GACTGA'
p1005
I11373
sS'GACTGG'
p1006
I14817
sS'TTCGAT'
p1007
I148
sS'TTGGTT'
p1008
I765
sS'ACTGTT'
p1009
I623
sS'GTTTCT'
p1010
I3213
sS'TTTTGT'
p1011
I3857
sS'CCTTTT'
p1012
I2138
sS'GTTTCG'
p1013
I1206
sS'GTTTCC'
p1014
I6918
sS'GTTTCA'
p1015
I5453
sS'ATAATG'
p1016
I2526
sS'CCTTTA'
p1017
I8082
sS'CCTTTC'
p1018
I8541
sS'ATAATC'
p1019
I815
sS'NNNNGA'
p1020
I3
sS'ATAATA'
p1021
I2600
sS'CCTTTG'
p1022
I12861
sS'ACAGAA'
p1023
I2277
sS'ACAGAC'
p1024
I1086
sS'GCCCCT'
p1025
I2247
sS'ACAGAG'
p1026
I1963
sS'TTATCT'
p1027
I1262
sS'CTGGAC'
p1028
I1746
sS'CTGGAA'
p1029
I3185
sS'CTGGAG'
p1030
I3958
sS'ATATAA'
p1031
I1014
sS'GTAAAT'
p1032
I899
sS'ACAGAT'
p1033
I678
sS'GATAAG'
p1034
I3619
sS'TTATCA'
p1035
I1775
sS'CTGGAT'
p1036
I635
sS'TTATCC'
p1037
I1811
sS'CCAATG'
p1038
I2251
sS'AAACCG'
p1039
I335
sS'AAACCA'
p1040
I1653
sS'CCAATC'
p1041
I1304
sS'AAACCC'
p1042
I1082
sS'CCAATA'
p1043
I1392
sS'TGTCGG'
p1044
I1263
sS'GAGATC'
p1045
I3044
sS'CCCTAT'
p1046
I909
sS'GAGATA'
p1047
I4616
sS'TGTCGC'
p1048
I1369
sS'GAGATG'
p1049
I10098
sS'AACGAC'
p1050
I824
sS'ATTTGA'
p1051
I4403
sS'CCAATT'
p1052
I368
sS'ATTTGC'
p1053
I5665
sS'GGGTAT'
p1054
I285
sS'ATTTGG'
p1055
I3543
sS'CCCTAG'
p1056
I3749
sS'TGTCGT'
p1057
I408
sS'CCCTAC'
p1058
I3151
sS'GAGATT'
p1059
I1054
sS'CCCTAA'
p1060
I3141
sS'CATTAT'
p1061
I1466
sS'ATGCAA'
p1062
I1474
sS'ACTTCA'
p1063
I3537
sS'ATCACA'
p1064
I5478
sS'ATCACC'
p1065
I4501
sS'CATGCT'
p1066
I1748
sS'TGACAC'
p1067
I501
sS'ATCACG'
p1068
I1403
sS'TGGATA'
p1069
I2319
sS'CATTAG'
p1070
I3679
sS'CATTAA'
p1071
I4528
sS'TGGATG'
p1072
I4499
sS'CATAGC'
p1073
I3176
sS'TGACAT'
p1074
I310
sS'CATGCC'
p1075
I4097
sS'ATCACT'
p1076
I2521
sS'CATGCG'
p1077
I1312
sS'GTAGAA'
p1078
I2182
sS'GTAGAC'
p1079
I760
sS'GTAGAG'
p1080
I1712
sS'GATTGG'
p1081
I7445
sS'ACAACC'
p1082
I1109
sS'GCATGA'
p1083
I1283
sS'GATTGC'
p1084
I5372
sS'GATTGA'
p1085
I4543
sS'TAAATT'
p1086
I775
sS'ACTAAG'
p1087
I1720
sS'GTAGAT'
p1088
I594
sS'TGCTAC'
p1089
I4398
sS'TTGCCT'
p1090
I2558
sS'TGATGC'
p1091
I1094
sS'GATTGT'
p1092
I2812
sS'ACAACT'
p1093
I660
sS'AGGATT'
p1094
I799
sS'GGGTAA'
p1095
I831
sS'TAATAG'
p1096
I834
sS'GTCCGG'
p1097
I2975
sS'TAATAC'
p1098
I890
sS'GTCCGA'
p1099
I1189
sS'TAATAA'
p1100
I1464
sS'GTCCGC'
p1101
I2926
sS'TGCCAT'
p1102
I1191
sS'ACTCTT'
p1103
I790
sS'GTCCGT'
p1104
I722
sS'TAATAT'
p1105
I576
sS'ATTCGC'
p1106
I445
sS'TTCTCC'
p1107
I17282
sS'TGAACT'
p1108
I930
sS'TTCTCA'
p1109
I15858
sS'ATCCAT'
p1110
I622
sS'TTCTCG'
p1111
I3371
sS'TCGTAC'
p1112
I124
sS'TACCTT'
p1113
I2471
sS'TCGTAA'
p1114
I132
sS'TCGTAG'
p1115
I197
sS'TCGTCA'
p1116
I425
sS'GAACCT'
p1117
I696
sS'ATCCAA'
p1118
I2079
sS'ATCCAC'
p1119
I2356
sS'TGAACC'
p1120
I1466
sS'TTCTCT'
p1121
I9859
sS'ATCCAG'
p1122
I3246
sS'GAACCC'
p1123
I1274
sS'TACCTG'
p1124
I12238
sS'TACCTA'
p1125
I6358
sS'TACCTC'
p1126
I6191
sS'TCGTAT'
p1127
I65
sS'ATGTTA'
p1128
I4606
sS'ACCATA'
p1129
I3426
sS'ACCATG'
p1130
I6945
sS'ATGTTG'
p1131
I6167
sS'AGCTCT'
p1132
I6492
sS'TGTCCT'
p1133
I1649
sS'AGTGGT'
p1134
I1061
sS'TGATGT'
p1135
I898
sS'ATGTTT'
p1136
I1624
sS'ACCATT'
p1137
I968
sS'CGTAAA'
p1138
I518
sS'AGCTCG'
p1139
I3514
sS'AGTGGC'
p1140
I3339
sS'AGCTCC'
p1141
I14695
sS'AGTGGG'
p1142
I3887
sS'CAGTAA'
p1143
I2332
sS'CAGTAC'
p1144
I1624
sS'CAGTAG'
p1145
I2158
sS'TTTCAC'
p1146
I2856
sS'CAGTAT'
p1147
I737
sS'AAAGTA'
p1148
I2737
sS'TTAATC'
p1149
I1185
sS'CCGGCT'
p1150
I484
sS'GATCTA'
p1151
I4473
sS'GATCTC'
p1152
I5902
sS'ATTGAC'
p1153
I1244
sS'GATCTG'
p1154
I10405
sS'TCCCTT'
p1155
I2936
sS'CCGGCC'
p1156
I2138
sS'GTTCCG'
p1157
I941
sS'CCGGCG'
p1158
I809
sS'CACATT'
p1159
I2713
sS'ATTAGC'
p1160
I1751
sS'TCCCTC'
p1161
I12368
sS'GAGCTT'
p1162
I1835
sS'TCCCTA'
p1163
I6873
sS'TTAATG'
p1164
I3498
sS'TCCCTG'
p1165
I18857
sS'GATCTT'
p1166
I1781
sS'ATAGAA'
p1167
I2108
sS'AAGTGA'
p1168
I5074
sS'AAGTGC'
p1169
I4534
sS'TGTTCT'
p1170
I3371
sS'AAGTGG'
p1171
I5222
sS'TGATTG'
p1172
I2709
sS'TCTGAT'
p1173
I575
sS'TGTATT'
p1174
I1254
sS'TGATTA'
p1175
I1672
sS'TGTTCA'
p1176
I6339
sS'CACAAG'
p1177
I6957
sS'TGTTCC'
p1178
I6311
sS'AAGTGT'
p1179
I2222
sS'CACAAC'
p1180
I4999
sS'TGTTCG'
p1181
I1194
sS'TCTGAA'
p1182
I1927
sS'TCTGAC'
p1183
I2015
sS'TCTGAG'
p1184
I3124
sS'CGCGCC'
p1185
I5054
sS'CGCGCA'
p1186
I2504
sS'GGTAAA'
p1187
I2384
sS'CGCGCG'
p1188
I3315
sS'CTCCCT'
p1189
I6190
sS'AGCGGG'
p1190
I3817
sS'AGCGGA'
p1191
I1849
sS'AGCGGC'
p1192
I3449
sS'AGATGA'
p1193
I1551
sS'CGCGCT'
p1194
I1348
sS'ACCTCC'
p1195
I8067
sS'CTCCCG'
p1196
I5565
sS'TTGTTA'
p1197
I6156
sS'CTCCCC'
p1198
I11904
sS'GCCTCT'
p1199
I6531
sS'TAAGCC'
p1200
I1901
sS'CGGGAG'
p1201
I1437
sS'CCCATG'
p1202
I7787
sS'CGGGAA'
p1203
I632
sS'CCCATA'
p1204
I3767
sS'CGGGAC'
p1205
I816
sS'CCCATC'
p1206
I4519
sS'TTGTTG'
p1207
I8329
sS'CCTGCT'
p1208
I2287
sS'CCGAAT'
p1209
I53
sS'CCCATT'
p1210
I1543
sS'CGGGAT'
p1211
I127
sS'GCCTCG'
p1212
I5582
sS'GCCTCA'
p1213
I10605
sS'TAAGCT'
p1214
I1080
sS'GCCTCC'
p1215
I18998
sS'CCGAAC'
p1216
I226
sS'CCTGCG'
p1217
I1952
sS'CCGAAA'
p1218
I186
sS'CCGAAG'
p1219
I452
sS'CCTGCC'
p1220
I5938
sS'CCTGCA'
p1221
I4546
sS'CGACAC'
p1222
I101
sS'CCATTC'
p1223
I1591
sS'TATAAG'
p1224
I3066
sS'ATTTCC'
p1225
I4678
sS'CCATTG'
p1226
I2865
sS'TATAAC'
p1227
I2528
sS'TAACGA'
p1228
I236
sS'TATAAT'
p1229
I1352
sS'GTCGAA'
p1230
I423
sS'GTTCTA'
p1231
I3591
sS'CCATTT'
p1232
I573
sS'TCTACA'
p1233
I2114
sS'TCTACC'
p1234
I2036
sS'CTAACT'
p1235
I1164
sS'TCTACG'
p1236
I495
sS'ACTTTC'
p1237
I4717
sS'CGCAAC'
p1238
I1095
sS'ACGCAC'
p1239
I301
sS'ATACCG'
p1240
I165
sS'CGCAAG'
p1241
I1640
sS'AAAGAC'
p1242
I1653
sS'ATACCC'
p1243
I499
sS'TCTACT'
p1244
I1130
sS'CCGAGT'
p1245
I298
sS'ATACCT'
p1246
I638
sS'CGCAAT'
p1247
I287
sS'TAGTAA'
p1248
I1970
sS'ATTTCT'
p1249
I2107
sS'TAGTAC'
p1250
I1196
sS'CTCAAG'
p1251
I7046
sS'CTCAAA'
p1252
I6658
sS'TAGTAG'
p1253
I1717
sS'CTCAAC'
p1254
I4652
sS'GTGTGC'
p1255
I5909
sS'GTGTGA'
p1256
I4916
sS'GTGTGG'
p1257
I7711
sS'TAACGG'
p1258
I291
sS'CTCAAT'
p1259
I1474
sS'AGAATT'
p1260
I550
sS'TAGTAT'
p1261
I679
sS'GTGTGT'
p1262
I6375
sS'ATCTTT'
p1263
I3575
sS'GTTGGG'
p1264
I3384
sS'GTTGGA'
p1265
I2484
sS'GTTGGC'
p1266
I2180
sS'CCTTGG'
p1267
I5695
sS'CCTTGA'
p1268
I3632
sS'GCGTAT'
p1269
I66
sS'CCTTGC'
p1270
I4714
sS'GACCTA'
p1271
I5963
sS'GTTGGT'
p1272
I1142
sS'ATCTTG'
p1273
I13234
sS'ATCTTA'
p1274
I9938
sS'ATCTTC'
p1275
I9155
sS'CCTTGT'
p1276
I2315
sS'AGGATA'
p1277
I2911
sS'AGGATG'
p1278
I6328
sS'GACATG'
p1279
I10813
sS'GACATC'
p1280
I5951
sS'GACATA'
p1281
I6698
sS'TCGGCG'
p1282
I361
sS'GAATAT'
p1283
I373
sS'TCGGCC'
p1284
I927
sS'TCGGCA'
p1285
I446
sS'TTGCGA'
p1286
I348
sS'GACATT'
p1287
I2848
sS'TTGCGG'
p1288
I773
sS'GAATAG'
p1289
I893
sS'TCGGCT'
p1290
I247
sS'ATCAGC'
p1291
I5065
sS'GAATAC'
p1292
I864
sS'GAATAA'
p1293
I1238
sS'ACTTTT'
p1294
I1422
sS'TGCAGA'
p1295
I9620
sS'CGACAG'
p1296
I165
sS'TTAATT'
p1297
I1124
sS'GGACGA'
p1298
I209
sS'TGAGGT'
p1299
I1071
sS'TTTCTA'
p1300
I7097
sS'TTATAA'
p1301
I1279
sS'GAAATG'
p1302
I6816
sS'AATGAT'
p1303
I786
sS'GAAATA'
p1304
I4234
sS'GAAATC'
p1305
I1754
sS'CGCATT'
p1306
I421
sS'ACCGGT'
p1307
I261
sS'GAAATT'
p1308
I624
sS'AATGAA'
p1309
I4686
sS'ATGTCC'
p1310
I2942
sS'AATGAC'
p1311
I3720
sS'AATGAG'
p1312
I5083
sS'TGCACT'
p1313
I3644
sS'CTTGGC'
p1314
I3863
sS'GTCCTT'
p1315
I2760
sS'CTTGGG'
p1316
I4998
sS'TANNAA'
p1317
I1
sS'CTTTTC'
p1318
I10373
sS'GCGTAA'
p1319
I179
sS'TTGAAT'
p1320
I711
sS'GTCCTA'
p1321
I5401
sS'GTCCTC'
p1322
I9149
sS'TGCACG'
p1323
I2411
sS'CTTGGT'
p1324
I1725
sS'GTCCTG'
p1325
I15635
sS'TGCACC'
p1326
I6191
sS'TTGAAA'
p1327
I2154
sS'AGCCCG'
p1328
I3502
sS'AGCCCA'
p1329
I6836
sS'AGCCCC'
p1330
I7079
sS'CTTATG'
p1331
I3921
sS'ATAAAT'
p1332
I955
sS'TGGTCG'
p1333
I614
sS'TGGTCA'
p1334
I2935
sS'TGGTCC'
p1335
I2646
sS'ACGATT'
p1336
I81
sS'GAGACT'
p1337
I2913
sS'ACGGGG'
p1338
I808
sS'TGGTCT'
p1339
I1551
sS'ATAAAG'
p1340
I1543
sS'ATAAAA'
p1341
I2217
sS'TCAGCC'
p1342
I2129
sS'ATAAAC'
p1343
I1383
sS'GAGACG'
p1344
I2584
sS'ACGATG'
p1345
I548
sS'CTACAG'
p1346
I1112
sS'GAGACC'
p1347
I4761
sS'CGTATC'
p1348
I372
sS'GAGACA'
p1349
I7201
sS'ACGATA'
p1350
I214
sS'GGTTAC'
p1351
I1944
sS'ATGTGT'
p1352
I2181
sS'GGTTAA'
p1353
I2354
sS'ACCACT'
p1354
I1963
sS'GGTTAG'
p1355
I2091
sS'CTTCCT'
p1356
I4414
sS'TCCATT'
p1357
I2088
sS'CCAACA'
p1358
I1792
sS'TCCGCT'
p1359
I1028
sS'ACCACG'
p1360
I2074
sS'CTTCCC'
p1361
I6794
sS'ATGTGA'
p1362
I3176
sS'CGTATG'
p1363
I705
sS'ATGTGC'
p1364
I2772
sS'GGTTAT'
p1365
I596
sS'TCCGCC'
p1366
I4849
sS'TCCGCA'
p1367
I1796
sS'TCCGCG'
p1368
I1800
sS'CGTACA'
p1369
I566
sS'AACGTC'
p1370
I1529
sS'CGTGAG'
p1371
I1448
sS'AACGTG'
p1372
I3592
sS'CGTGAC'
p1373
I1168
sS'AGTGTG'
p1374
I8242
sS'TCTTCG'
p1375
I1246
sS'AGTGTA'
p1376
I3808
sS'TCTTCA'
p1377
I5129
sS'AGTGTC'
p1378
I2974
sS'TCTTCC'
p1379
I7171
sS'TAAGTG'
p1380
I3271
sS'ACTCAA'
p1381
I1832
sS'TAAGTC'
p1382
I1142
sS'AACGTT'
p1383
I547
sS'GCTCGC'
p1384
I1966
sS'TCTTCT'
p1385
I2673
sS'AGTGTT'
p1386
I1040
sS'GTGCGC'
p1387
I1607
sS'TTGGCA'
p1388
I3493
sS'AAAGGT'
p1389
I1110
sS'TTGGCC'
p1390
I3513
sS'GCTCGA'
p1391
I693
sS'CTTATT'
p1392
I1534
sS'TTGGCG'
p1393
I748
sS'GACTTC'
p1394
I14247
sS'TCGAGT'
p1395
I164
sS'GACTTA'
p1396
I10305
sS'GACTTG'
p1397
I17684
sS'ACGTAG'
p1398
I249
sS'AAAGGG'
p1399
I3661
sS'AAAGGA'
p1400
I4563
sS'TTGGCT'
p1401
I1813
sS'AAAGGC'
p1402
I2746
sS'AGTAAG'
p1403
I3311
sS'GTCGAT'
p1404
I92
sS'GACTTT'
p1405
I5810
sS'TTCTTT'
p1406
I10763
sS'TGAAAA'
p1407
I1382
sS'CAAGAA'
p1408
I2858
sS'GACGTT'
p1409
I720
sS'CAAGAC'
p1410
I1365
sS'CAAGAG'
p1411
I2266
sS'CGTATT'
p1412
I172
sS'TTCTTG'
p1413
I22887
sS'TTCTTC'
p1414
I20786
sS'TTCTTA'
p1415
I18600
sS'CAAGAT'
p1416
I653
sS'AGGGCT'
p1417
I1546
sS'TACGGG'
p1418
I1162
sS'TACGGA'
p1419
I820
sS'TACGGC'
p1420
I976
sS'CCAACT'
p1421
I780
sS'TAGAGT'
p1422
I1488
sS'TACGGT'
p1423
I402
sS'AGGGCG'
p1424
I2014
sS'AGGGCA'
p1425
I4366
sS'AGGGCC'
p1426
I4178
sS'TCGAGA'
p1427
I327
sS'TAGAGC'
p1428
I3436
sS'TAGAGA'
p1429
I4422
sS'TAGAGG'
p1430
I4912
sS'CCGTGT'
p1431
I386
sS'GTGCTG'
p1432
I14934
sS'CGGGGT'
p1433
I404
sS'GTGCTA'
p1434
I4543
sS'ATCTGT'
p1435
I3538
sS'GTGCTC'
p1436
I6486
sS'TTGCGC'
p1437
I669
sS'ATCTGA'
p1438
I6728
sS'GTGCTT'
p1439
I2201
sS'ATCTGC'
p1440
I7714
sS'TCGAGG'
p1441
I668
sS'CGAATG'
p1442
I528
sS'ATCTGG'
p1443
I7453
sS'ATCATA'
p1444
I4746
sS'GATAGC'
p1445
I2321
sS'AAGCAG'
p1446
I5179
sS'GATAGA'
p1447
I3403
sS'AAGCAA'
p1448
I3668
sS'GATAGG'
p1449
I3422
sS'ATCATG'
p1450
I6759
sS'TTTACC'
p1451
I3439
sS'CATTTC'
p1452
I12647
sS'CTAGGT'
p1453
I1445
sS'CATTTA'
p1454
I14454
sS'ACGCAT'
p1455
I64
sS'CATTTG'
p1456
I16541
sS'GTTATA'
p1457
I2488
sS'CAAACA'
p1458
I7356
sS'AAGCAT'
p1459
I826
sS'CAAACC'
p1460
I2358
sS'GGCTCC'
p1461
I14065
sS'ATCATT'
p1462
I1323
sS'GATAGT'
p1463
I1270
sS'ACGCAG'
p1464
I448
sS'CTAGGG'
p1465
I2503
sS'GTTATT'
p1466
I976
sS'CTAGGC'
p1467
I1929
sS'CATTTT'
p1468
I3480
sS'CTAGGA'
p1469
I3320
sS'AAGTTT'
p1470
I1386
sS'TACAGT'
p1471
I4934
sS'CTAACG'
p1472
I537
sS'ATTTCA'
p1473
I4626
sS'GTGGCG'
p1474
I1974
sS'GTATGG'
p1475
I1500
sS'GGGGCT'
p1476
I1086
sS'TACAGG'
p1477
I12318
sS'AAGTTG'
p1478
I6649
sS'GGATGC'
p1479
I883
sS'AAGTTA'
p1480
I5960
sS'TACAGC'
p1481
I7841
sS'AAGTTC'
p1482
I4171
sS'TACAGA'
p1483
I9085
sS'GGGGCC'
p1484
I3433
sS'GTATGA'
p1485
I1599
sS'GGGGCA'
p1486
I2545
sS'GGGGCG'
p1487
I2286
sS'TATATC'
p1488
I2273
sS'TATATA'
p1489
I6973
sS'TGTATA'
p1490
I3971
sS'TATATG'
p1491
I5614
sS'GCTAGC'
p1492
I1343
sS'CTATTC'
p1493
I2056
sS'TTAATA'
p1494
I3295
sS'TATATT'
p1495
I1569
sS'TGATGG'
p1496
I1268
sS'CTCGGT'
p1497
I739
sS'ATGAGT'
p1498
I1104
sS'AGGTCT'
p1499
I1497
sS'TGATGA'
p1500
I1217
sS'TGTTTA'
p1501
I17196
sS'CACATC'
p1502
I6200
sS'TGTTTC'
p1503
I10618
sS'CACATA'
p1504
I8505
sS'TCATAA'
p1505
I652
sS'CACATG'
p1506
I13062
sS'TGTTTG'
p1507
I22339
sS'ATGAGA'
p1508
I2546
sS'ATGAGC'
p1509
I2100
sS'AGTAAC'
p1510
I2652
sS'ATGAGG'
p1511
I3295
sS'GTGGCT'
p1512
I2723
sS'ACTCTG'
p1513
I6801
sS'TGCCAG'
p1514
I6899
sS'ACTCTA'
p1515
I2757
sS'TTTCAG'
p1516
I4119
sS'ACTCTC'
p1517
I2682
sS'TGCCAC'
p1518
I5236
sS'AAATTC'
p1519
I1654
sS'AAATTA'
p1520
I3012
sS'AAATTG'
p1521
I2683
sS'CATATA'
p1522
I4198
sS'CCAGTA'
p1523
I1363
sS'GTATTT'
p1524
I1309
sS'AAATTT'
p1525
I407
sS'GTCTAT'
p1526
I1371
sS'GGGAAC'
p1527
I2066
sS'GGTGCG'
p1528
I1103
sS'GGGAAA'
p1529
I2477
sS'GGGAAG'
p1530
I4948
sS'GGTGCC'
p1531
I2419
sS'GGTGCA'
p1532
I2179
sS'AGAGCG'
p1533
I912
sS'GCGACT'
p1534
I230
sS'AGCGAT'
p1535
I285
sS'AGAGCC'
p1536
I2674
sS'AGAGCA'
p1537
I3180
sS'GCGTAG'
p1538
I284
sS'GGTGCT'
p1539
I1055
sS'GCGTAC'
p1540
I199
sS'TAATTT'
p1541
I724
sS'GGGAAT'
p1542
I643
sS'GCGACG'
p1543
I445
sS'AGAGCT'
p1544
I1383
sS'GCGACA'
p1545
I433
sS'TATCGG'
p1546
I493
sS'GCGACC'
p1547
I670
sS'AGGTCG'
p1548
I887
sS'GCAGGA'
p1549
I4093
sS'GCAGGC'
p1550
I2259
sS'GCAGGG'
p1551
I3956
sS'GGCGAT'
p1552
I210
sS'GCACTA'
p1553
I789
sS'CCGTGC'
p1554
I871
sS'GCTCGG'
p1555
I2321
sS'TATTCT'
p1556
I3451
sS'CCGTGG'
p1557
I1106
sS'ACTTAC'
p1558
I1432
sS'CTTTAG'
p1559
I3537
sS'GCAGGT'
p1560
I1787
sS'TCTTGA'
p1561
I3212
sS'ACGTCT'
p1562
I302
sS'TATTCC'
p1563
I5188
sS'GGCGAG'
p1564
I2798
sS'TATTCA'
p1565
I7484
sS'CAATTA'
p1566
I1946
sS'TATTCG'
p1567
I1011
sS'GGCGAC'
p1568
I1640
sS'TGTAGA'
p1569
I3350
sS'GGCTCA'
p1570
I9205
sS'TGTAGC'
p1571
I3103
sS'ACCCTC'
p1572
I4832
sS'AATCCT'
p1573
I1356
sS'TGTAGG'
p1574
I3692
sS'GGCTCG'
p1575
I4019
sS'TTCGGA'
p1576
I840
sS'TTCGGC'
p1577
I1287
sS'CTTTAC'
p1578
I3222
sS'TTCAAG'
p1579
I7455
sS'TTCGGG'
p1580
I1657
sS'AGCATG'
p1581
I11093
sS'GGCTCT'
p1582
I4905
sS'AGCATC'
p1583
I5702
sS'TTTACT'
p1584
I2849
sS'AGCATA'
p1585
I5811
sS'AGACCT'
p1586
I457
sS'TTCGGT'
p1587
I371
sS'GAGCAT'
p1588
I893
sS'GTTTAT'
p1589
I2318
sS'CTCTCA'
p1590
I13123
sS'ATACAT'
p1591
I355
sS'GCCTTT'
p1592
I5032
sS'GTTTAA'
p1593
I4240
sS'TCCAGG'
p1594
I13218
sS'CACGAA'
p1595
I870
sS'CAATCT'
p1596
I590
sS'GTTTAG'
p1597
I2832
sS'TCCAGA'
p1598
I7194
sS'CTGGCT'
p1599
I3483
sS'AGGCGG'
p1600
I3751
sS'AGGCGA'
p1601
I1064
sS'AGGCGC'
p1602
I2184
sS'AGGAGT'
p1603
I2073
sS'ACAGCC'
p1604
I2180
sS'GATAAA'
p1605
I4759
sS'ACAGCA'
p1606
I3375
sS'GAGGTC'
p1607
I3567
sS'ACAGCG'
p1608
I743
sS'AGGAGC'
p1609
I5696
sS'GTCGGA'
p1610
I968
sS'AGGAGA'
p1611
I5555
sS'GTCGGC'
p1612
I1649
sS'AGGAGG'
p1613
I12054
sS'CTGGCA'
p1614
I6170
sS'CTGGCC'
p1615
I7061
sS'CGATAC'
p1616
I52
sS'ACAGCT'
p1617
I1482
sS'GGAAAA'
p1618
I1367
sS'AACGCT'
p1619
I791
sS'AATTTT'
p1620
I1852
sS'TGTCAA'
p1621
I2826
sS'TGTCAC'
p1622
I4071
sS'CCCTCT'
p1623
I5013
sS'GGAAAC'
p1624
I1416
sS'TGTCAG'
p1625
I4564
sS'AACGCG'
p1626
I1122
sS'AATTTA'
p1627
I9887
sS'AATTTC'
p1628
I6475
sS'ATTGGC'
p1629
I2424
sS'AACGCA'
p1630
I1611
sS'AATTTG'
p1631
I10404
sS'CCCTCA'
p1632
I7885
sS'ATTTAA'
p1633
I3898
sS'TGTCAT'
p1634
I1118
sS'CCCTCG'
p1635
I3608
sS'TCCAGT'
p1636
I3686
sS'CACGAT'
p1637
I245
sS'GGCGTT'
p1638
I484
sS'ATTTTT'
p1639
I1461
sS'TGACCA'
p1640
I771
sS'TGACCC'
p1641
I616
sS'TAAATC'
p1642
I1563
sS'TGACCG'
p1643
I187
sS'ATGGTT'
p1644
I412
sS'TAGCGT'
p1645
I271
sS'CATTCG'
p1646
I1532
sS'CATTCC'
p1647
I9721
sS'CATTCA'
p1648
I8917
sS'GCAATT'
p1649
I384
sS'ACGAAA'
p1650
I175
sS'GCCTTC'
p1651
I14237
sS'ACAAAT'
p1652
I595
sS'GATTAA'
p1653
I4567
sS'GTAGGC'
p1654
I1379
sS'GATTAC'
p1655
I5919
sS'GTAGGA'
p1656
I2499
sS'GTAGGG'
p1657
I2296
sS'GATTAG'
p1658
I3476
sS'GCGGGT'
p1659
I350
sS'ACAAAC'
p1660
I1413
sS'TTTCAA'
p1661
I3616
sS'CAATTG'
p1662
I1873
sS'ACAAAG'
p1663
I1549
sS'GCGGGC'
p1664
I1410
sS'ACGTTT'
p1665
I212
sS'GCGGGA'
p1666
I1351
sS'GCGGGG'
p1667
I3168
sS'GATTAT'
p1668
I1444
sS'GTAGGT'
p1669
I1258
sS'CCACGA'
p1670
I314
sS'GGCGTC'
p1671
I2368
sS'TAATGA'
p1672
I1962
sS'GATGTT'
p1673
I1527
sS'TAATGC'
p1674
I1688
sS'GGAGAT'
p1675
I417
sS'GCCCTT'
p1676
I2238
sS'GGCGTA'
p1677
I1031
sS'GCCCTC'
p1678
I10212
sS'GATGTG'
p1679
I9897
sS'GCCCTA'
p1680
I5258
sS'GATGTA'
p1681
I5014
sS'GCCCTG'
p1682
I20071
sS'GATGTC'
p1683
I3961
sS'GGCGTG'
p1684
I5759
sS'TGAAAT'
p1685
I620
sS'TTCTAG'
p1686
I7333
sS'TTCTAA'
p1687
I8438
sS'ATTTAT'
p1688
I1820
sS'TTCTAC'
p1689
I5726
sS'GAATGT'
p1690
I1620
sS'TGAAAC'
p1691
I1327
sS'TGAAAG'
p1692
I1801
sS'TTCTAT'
p1693
I2539
sS'ATCCGC'
p1694
I1380
sS'AGTAAT'
p1695
I1002
sS'ATCCGA'
p1696
I631
sS'ATCCGG'
p1697
I1442
sS'CGGATT'
p1698
I146
sS'TGGCTC'
p1699
I5448
sS'TGGCTA'
p1700
I3459
sS'TGGCTG'
p1701
I11473
sS'GGGTGA'
p1702
I2550
sS'AGTTGT'
p1703
I2240
sS'AGCTAT'
p1704
I1755
sS'ATTAGT'
p1705
I915
sS'NNNNCG'
p1706
I1
sS'AAGACA'
p1707
I5410
sS'CTGGCG'
p1708
I1849
sS'TGGCTT'
p1709
I1441
sS'AGTTGG'
p1710
I4486
sS'GGAGAG'
p1711
I1860
sS'AGCTAC'
p1712
I4918
sS'AGTTGC'
p1713
I4285
sS'AGTTGA'
p1714
I3803
sS'AGCTAG'
p1715
I5148
sS'CGTTGA'
p1716
I868
sS'GCACCT'
p1717
I897
sS'CAGTGT'
p1718
I2966
sS'TAACAA'
p1719
I1041
sS'TCAGGT'
p1720
I1031
sS'TCAAGG'
p1721
I1911
sS'GTCGGG'
p1722
I2311
sS'TCAAGC'
p1723
I1085
sS'CATGGA'
p1724
I3134
sS'CTAATA'
p1725
I2332
sS'CAGTGC'
p1726
I5818
sS'GCACCC'
p1727
I914
sS'CAGTGA'
p1728
I5610
sS'CAGTGG'
p1729
I6705
sS'GCACCG'
p1730
I483
sS'TCAAGT'
p1731
I896
sS'TCAGGG'
p1732
I2098
sS'GAGCCC'
p1733
I7385
sS'TCAGGC'
p1734
I1396
sS'CGAGCT'
p1735
I364
sS'TCCTAA'
p1736
I4569
sS'GTTCAT'
p1737
I651
sS'TTCCCT'
p1738
I4978
sS'CGAGCG'
p1739
I417
sS'GTTAGT'
p1740
I1178
sS'CGAGCA'
p1741
I664
sS'CGCAGC'
p1742
I5975
sS'CGAGCC'
p1743
I886
sS'TTCCCA'
p1744
I9140
sS'TTCCCC'
p1745
I8745
sS'GTTCAC'
p1746
I1816
sS'TTCCCG'
p1747
I3404
sS'TGAGCA'
p1748
I2520
sS'GGACCT'
p1749
I326
sS'TACATG'
p1750
I9219
sS'AAGTAC'
p1751
I1853
sS'CACACT'
p1752
I4675
sS'TACATC'
p1753
I4516
sS'AAGTAG'
p1754
I2186
sS'TACATA'
p1755
I9180
sS'GCACAC'
p1756
I603
sS'GGACCG'
p1757
I210
sS'ATTGGT'
p1758
I931
sS'GGACCA'
p1759
I593
sS'TCATCA'
p1760
I1528
sS'GGACCC'
p1761
I462
sS'CACACG'
p1762
I3638
sS'TACATT'
p1763
I3076
sS'CACACC'
p1764
I10330
sS'GCACAA'
p1765
I653
sS'CACACA'
p1766
I18732
sS'ACGGTC'
p1767
I263
sS'TCTGCC'
p1768
I3851
sS'TCTGCA'
p1769
I3846
sS'TCTGCG'
p1770
I1297
sS'TTTCGA'
p1771
I580
sS'ATTGCC'
p1772
I1423
sS'CCCGTC'
p1773
I2094
sS'TTAAGG'
p1774
I2445
sS'CCCGTA'
p1775
I1106
sS'TTAAGA'
p1776
I2909
sS'CCCGTG'
p1777
I3474
sS'TTAAGC'
p1778
I1683
sS'TTACGT'
p1779
I198
sS'TAGATC'
p1780
I1509
sS'AAACAG'
p1781
I2195
sS'TAGATA'
p1782
I3041
sS'TTTCGC'
p1783
I900
sS'TAGATG'
p1784
I5157
sS'GCGCCT'
p1785
I544
sS'TCTGCT'
p1786
I1547
sS'TTACGC'
p1787
I207
sS'TTAAGT'
p1788
I1570
sS'TTACGA'
p1789
I232
sS'TTACGG'
p1790
I294
sS'CCCGTT'
p1791
I370
sS'AGTGAC'
p1792
I3402
sS'AGTGAA'
p1793
I2891
sS'GCTAGT'
p1794
I715
sS'AGTGAG'
p1795
I4540
sS'GCGGTC'
p1796
I553
sS'CGGGCG'
p1797
I1363
sS'AAACAC'
p1798
I1584
sS'TAAGAG'
p1799
I1693
sS'CGGGCC'
p1800
I2388
sS'TAAGAA'
p1801
I2279
sS'CGGGCA'
p1802
I1428
sS'TAAGAC'
p1803
I1088
sS'AAACAA'
p1804
I2352
sS'AGTGAT'
p1805
I689
sS'TAAGAT'
p1806
I497
sS'CCTGAA'
p1807
I1927
sS'CCTGAC'
p1808
I2007
sS'CCTGAG'
p1809
I3300
sS'GTTAGG'
p1810
I2797
sS'GCCAAC'
p1811
I3397
sS'TCATCT'
p1812
I1006
sS'GTTAGC'
p1813
I1948
sS'GTTAGA'
p1814
I2234
sS'ACCCCC'
p1815
I2100
sS'TATACG'
p1816
I550
sS'GGTAGC'
p1817
I1916
sS'TATACC'
p1818
I2226
sS'TATACA'
p1819
I4112
sS'AACGCC'
p1820
I2165
sS'TCCACG'
p1821
I2419
sS'ACTAGT'
p1822
I590
sS'TTTATT'
p1823
I2455
sS'GTAATA'
p1824
I2279
sS'ATTGGA'
p1825
I1743
sS'GTAATC'
p1826
I1000
sS'TCTAAC'
p1827
I1412
sS'CGTTCT'
p1828
I793
sS'TCTAAA'
p1829
I1868
sS'CGGATC'
p1830
I539
sS'CCACCA'
p1831
I2063
sS'CCACCC'
p1832
I1688
sS'ATTACT'
p1833
I1208
sS'TTTATG'
p1834
I6120
sS'ACTAGG'
p1835
I1943
sS'GTAACG'
p1836
I449
sS'TTTATC'
p1837
I2711
sS'ACTAGC'
p1838
I1125
sS'TTTATA'
p1839
I5864
sS'ACGGTG'
p1840
I857
sS'CCACCT'
p1841
I1473
sS'CGTTCG'
p1842
I630
sS'ACTTGT'
p1843
I1517
sS'CGTTCA'
p1844
I1268
sS'CGTTCC'
p1845
I2156
sS'TCTAAT'
p1846
I503
sS'CTTTGT'
p1847
I4816
sS'CCCTCC'
p1848
I17107
sS'ACTGGA'
p1849
I2186
sS'ACTGGC'
p1850
I1997
sS'TAGTCC'
p1851
I3141
sS'GTGACC'
p1852
I3512
sS'TAGTCA'
p1853
I4257
sS'GTGACA'
p1854
I3913
sS'TAGTCG'
p1855
I564
sS'GTGACG'
p1856
I1378
sS'ATTTAG'
p1857
I2148
sS'ACTGGT'
p1858
I781
sS'CTTTGG'
p1859
I7842
sS'CCTATG'
p1860
I2541
sS'CTTTGC'
p1861
I8366
sS'CTTTGA'
p1862
I6877
sS'GTGACT'
p1863
I2430
sS'TAGTCT'
p1864
I1780
sS'GTGCAC'
p1865
I2188
sS'CGACGG'
p1866
I192
sS'GTGCAA'
p1867
I1669
sS'CGACGA'
p1868
I90
sS'GTGCAG'
p1869
I3669
sS'CGACGC'
p1870
I209
sS'ACCTAC'
p1871
I2583
sS'CCGCAG'
p1872
I629
sS'ACGGGA'
p1873
I528
sS'CCGCAC'
p1874
I347
sS'ACGTGG'
p1875
I1132
sS'CGAAGC'
p1876
I582
sS'GCGCTG'
p1877
I2862
sS'CGAAGA'
p1878
I459
sS'CCCCGT'
p1879
I605
sS'CGAAGG'
p1880
I859
sS'GCGCTC'
p1881
I1507
sS'GTGCAT'
p1882
I656
sS'GCGCTA'
p1883
I660
sS'CCGCAT'
p1884
I66
sS'GTTCGC'
p1885
I838
sS'GAAGAT'
p1886
I681
sS'GGATCT'
p1887
I369
sS'CTTCCG'
p1888
I1949
sS'TCGGAA'
p1889
I213
sS'TCGGAC'
p1890
I169
sS'GAATCT'
p1891
I937
sS'CGGTGA'
p1892
I953
sS'GGATCG'
p1893
I205
sS'GAAGAG'
p1894
I4030
sS'GAAGAA'
p1895
I3769
sS'GGATCC'
p1896
I1012
sS'GAAGAC'
p1897
I1986
sS'GGATCA'
p1898
I676
sS'GAATCA'
p1899
I2467
sS'GAATCC'
p1900
I2278
sS'TCGGAT'
p1901
I40
sS'GAATCG'
p1902
I498
sS'ATGGTC'
p1903
I899
sS'CAGATG'
p1904
I6991
sS'ATGGTA'
p1905
I1860
sS'CATTCT'
p1906
I4184
sS'ATGGTG'
p1907
I3301
sS'CAGATC'
p1908
I2070
sS'ACGCCC'
p1909
I818
sS'CAGATA'
p1910
I3575
sS'CTCGAG'
p1911
I1465
sS'CAGATT'
p1912
I771
sS'CTCGAC'
p1913
I865
sS'CTCGAA'
p1914
I683
sS'TCGCAA'
p1915
I133
sS'GCTATT'
p1916
I559
sS'TGCGTC'
p1917
I1934
sS'CCGGTA'
p1918
I428
sS'TTGTAG'
p1919
I1811
sS'AATGGT'
p1920
I992
sS'GGATAA'
p1921
I376
sS'GTTACG'
p1922
I559
sS'ACGTGT'
p1923
I372
sS'CCCCGC'
p1924
I7274
sS'AATGGA'
p1925
I3470
sS'AATGGG'
p1926
I3916
sS'CAATAC'
p1927
I492
sS'CCCCGA'
p1928
I1592
sS'AATAGA'
p1929
I4182
sS'CAACTA'
p1930
I1074
sS'ACGCAA'
p1931
I203
sS'ATTTAC'
p1932
I3650
sS'GTGAAT'
p1933
I641
sS'AGCCAG'
p1934
I9692
sS'GGAGGG'
p1935
I3782
sS'AAAAGT'
p1936
I1350
sS'AGCCAC'
p1937
I7717
sS'GGAGGC'
p1938
I2439
sS'TGGTAG'
p1939
I1192
sS'CGCCAT'
p1940
I491
sS'GAGTGT'
p1941
I3032
sS'TGGTAC'
p1942
I883
sS'TCCGGT'
p1943
I736
sS'TGGTAA'
p1944
I1240
sS'AAAAGG'
p1945
I4665
sS'GGAGGT'
p1946
I1182
sS'AGCCAT'
p1947
I1361
sS'AAAAGC'
p1948
I3346
sS'AAAAGA'
p1949
I4460
sS'TTGACT'
p1950
I1314
sS'GAGTGG'
p1951
I7763
sS'CGCCAG'
p1952
I3025
sS'TGGTAT'
p1953
I620
sS'CGCCAA'
p1954
I1253
sS'GAGTGC'
p1955
I5934
sS'CGCCAC'
p1956
I2654
sS'GAGTGA'
p1957
I6313
sS'GCCAGG'
p1958
I14586
sS'GCCAGA'
p1959
I6709
sS'GCCAGC'
p1960
I9775
sS'GCCCGT'
p1961
I827
sS'TACCGA'
p1962
I792
sS'TACCGC'
p1963
I1440
sS'TACCGG'
p1964
I1323
sS'GCCCGC'
p1965
I6800
sS'GCCAGT'
p1966
I3077
sS'GCCCGA'
p1967
I2152
sS'GCCCGG'
p1968
I7286
sS'TGCGAT'
p1969
I221
sS'CTTCAC'
p1970
I2899
sS'CTTCAA'
p1971
I3087
sS'CTTCAG'
p1972
I4621
sS'TCCGAG'
p1973
I1455
sS'GTGGGC'
p1974
I2931
sS'TCCGAC'
p1975
I837
sS'AATTCA'
p1976
I6113
sS'TAGCGA'
p1977
I526
sS'AATTCC'
p1978
I5974
sS'ATTAGG'
p1979
I1889
sS'AATTCG'
p1980
I978
sS'TCCGAT'
p1981
I145
sS'TAGCGG'
p1982
I871
sS'AATTCT'
p1983
I2599
sS'TAGCGC'
p1984
I851
sS'GTCATC'
p1985
I5447
sS'GTCATA'
p1986
I5918
sS'GTCATG'
p1987
I9887
sS'TTGGAC'
p1988
I999
sS'CCAGGT'
p1989
I1895
sS'TTGGAA'
p1990
I1625
sS'AGCAGC'
p1991
I15483
sS'AGCAGA'
p1992
I10835
sS'GTCATT'
p1993
I2424
sS'ACGACC'
p1994
I310
sS'CCAGGG'
p1995
I3566
sS'AGCAGT'
p1996
I4935
sS'CCAGGA'
p1997
I4825
sS'CCAGGC'
p1998
I3232
sS'TTGGAT'
p1999
I397
sS'ACGGTA'
p2000
I306
sS'CATCTG'
p2001
I13415
sS'GATCGG'
p2002
I1214
sS'CATCTA'
p2003
I6241
sS'GATCGA'
p2004
I688
sS'CATCTC'
p2005
I7675
sS'GATCGC'
p2006
I1498
sS'ATTAGA'
p2007
I2069
sS'ACAAAA'
p2008
I1461
sS'GGGGTC'
p2009
I806
sS'GATCGT'
p2010
I401
sS'CATCTT'
p2011
I1950
sS'CAAGCA'
p2012
I4096
sS'CAAGCG'
p2013
I1012
sS'GTTCTT'
p2014
I1089
sS'ACATGA'
p2015
I1275
sS'CGTAAT'
p2016
I148
sS'ACATGC'
p2017
I1357
sS'ACATGG'
p2018
I1371
sS'CCCGCT'
p2019
I1163
sS'GGCCAT'
p2020
I735
sS'CGTAAG'
p2021
I613
sS'GTTCTG'
p2022
I8078
sS'ACATGT'
p2023
I922
sS'CGTAAC'
p2024
I508
sS'GTTCTC'
p2025
I4282
sS'CCCGCG'
p2026
I2789
sS'ATCCTT'
p2027
I1601
sS'ACTCGG'
p2028
I1159
sS'CCCGCC'
p2029
I10337
sS'CCCGCA'
p2030
I2478
sS'CCCTTT'
p2031
I4366
sS'AGCGCA'
p2032
I2281
sS'GTTGTT'
p2033
I943
sS'TGGATC'
p2034
I1346
sS'TTGTCG'
p2035
I653
sS'TTGTCC'
p2036
I4347
sS'TTGTCA'
p2037
I4379
sS'ATCCTC'
p2038
I5923
sS'GTTGTA'
p2039
I2974
sS'ATCCTA'
p2040
I4760
sS'GTTGTC'
p2041
I1965
sS'ATCCTG'
p2042
I10584
sS'GTTGTG'
p2043
I4870
sS'TTGTCT'
p2044
I2770
sS'ACGCGC'
p2045
I497
sS'TGACTA'
p2046
I1084
sS'TGGGCC'
p2047
I3095
sS'TGACTC'
p2048
I1235
sS'TGGGCA'
p2049
I3215
sS'TGGGCG'
p2050
I1403
sS'TGACTG'
p2051
I2007
sS'AAGCCG'
p2052
I1571
sS'AAGCCC'
p2053
I4151
sS'AAGCCA'
p2054
I4707
sS'CAAAAT'
p2055
I612
sS'CTATGG'
p2056
I1940
sS'TGGGCT'
p2057
I1339
sS'CAAAAC'
p2058
I1713
sS'CAAAAA'
p2059
I1719
sS'AAGCCT'
p2060
I1801
sS'CAAAAG'
p2061
I1987
sS'TGATTT'
p2062
I493
sS'TCAATG'
p2063
I1744
sS'AAACTT'
p2064
I403
sS'TCAATC'
p2065
I631
sS'TCAATA'
p2066
I1589
sS'CAGTTC'
p2067
I5061
sS'GACCCG'
p2068
I3174
sS'GACCCA'
p2069
I5801
sS'GACCCC'
p2070
I4451
sS'CTCTGT'
p2071
I9459
sS'TCAATT'
p2072
I342
sS'TGGCGT'
p2073
I321
sS'CTCTGC'
p2074
I23180
sS'GACCCT'
p2075
I2089
sS'CTCTGA'
p2076
I14351
sS'CTCTGG'
p2077
I19859
sS'CAGTTT'
p2078
I1589
sS'GCGAAG'
p2079
I526
sS'CTACTC'
p2080
I1237
sS'TGCTGG'
p2081
I18340
sS'CGAGGT'
p2082
I289
sS'TGCTGA'
p2083
I12378
sS'GAGTCT'
p2084
I3318
sS'TGCTGC'
p2085
I17539
sS'TAGGGA'
p2086
I2771
sS'GCTGGT'
p2087
I1357
sS'GTGATT'
p2088
I825
sS'CTACTA'
p2089
I1367
sS'TGCTGT'
p2090
I7651
sS'TAGGGC'
p2091
I2350
sS'TAATGG'
p2092
I1652
sS'TCGCTA'
p2093
I428
sS'ATGCGG'
p2094
I547
sS'GTGATG'
p2095
I5368
sS'GCTGGG'
p2096
I7848
sS'GTGATC'
p2097
I1602
sS'GCTGGC'
p2098
I3632
sS'GTGATA'
p2099
I2254
sS'GCTGGA'
p2100
I4087
sS'TGATAA'
p2101
I523
sS'TGTAGT'
p2102
I2033
sS'TGATAC'
p2103
I385
sS'TGATAG'
p2104
I448
sS'CTTGTT'
p2105
I1422
sS'GACGGT'
p2106
I878
sS'GCTAGG'
p2107
I2638
sS'GCTAGA'
p2108
I1821
sS'ATGAAT'
p2109
I652
sS'CTATGT'
p2110
I1571
sS'AAGGGT'
p2111
I1117
sS'TGATAT'
p2112
I289
sS'CTGTGC'
p2113
I7125
sS'ATGAAC'
p2114
I1253
sS'GACGGG'
p2115
I4162
sS'CTTGTG'
p2116
I7042
sS'GACGGA'
p2117
I2232
sS'CTTGTA'
p2118
I3951
sS'GACGGC'
p2119
I3135
sS'CTTGTC'
p2120
I3183
sS'GCACTT'
p2121
I333
sS'GNCCGC'
p2122
I1
sS'CAACGT'
p2123
I158
sS'GGTGAA'
p2124
I1861
sS'GGTGAC'
p2125
I2583
sS'GCGTCT'
p2126
I526
sS'GACTGT'
p2127
I6398
sS'GGTGAG'
p2128
I3704
sS'GGAATG'
p2129
I3372
sS'AGCCCT'
p2130
I3534
sS'GGAATC'
p2131
I860
sS'GGAATA'
p2132
I1283
sS'GCGTCA'
p2133
I832
sS'GCGTCC'
p2134
I1629
sS'GGTGAT'
p2135
I487
sS'GCGTCG'
p2136
I507
sS'CGTCCG'
p2137
I716
sS'GGAATT'
p2138
I390
sS'CGTCCC'
p2139
I1864
sS'CGTCCA'
p2140
I947
sS'TACAAT'
p2141
I2223
sS'GAAGTC'
p2142
I2280
sS'GAAGTA'
p2143
I2926
sS'GAAGTG'
p2144
I5876
sS'GCCGTA'
p2145
I1216
sS'CCGTAC'
p2146
I179
sS'CCGTAA'
p2147
I150
sS'CCGTAG'
p2148
I258
sS'CAAAGT'
p2149
I1367
sS'CTAAAA'
p2150
I1870
sS'GAAGTT'
p2151
I703
sS'GGCGCG'
p2152
I3362
sS'ATGCCC'
p2153
I2692
sS'TTAGTT'
p2154
I682
sS'TATTAG'
p2155
I3746
sS'GGCGCC'
p2156
I4942
sS'TATTAA'
p2157
I5788
sS'GGCGCA'
p2158
I2351
sS'TATTAC'
p2159
I3841
sS'ACTATG'
p2160
I2525
sS'CCATAT'
p2161
I336
sS'TTTAAG'
p2162
I4259
sS'ACTATC'
p2163
I681
sS'TTTAAA'
p2164
I7132
sS'ACTATA'
p2165
I1730
sS'TTTAAC'
p2166
I2962
sS'TATTAT'
p2167
I2155
sS'TTAGTG'
p2168
I2345
sS'GGCGCT'
p2169
I1344
sS'TTAGTC'
p2170
I987
sS'ATGCCT'
p2171
I1492
sS'TTAGTA'
p2172
I1827
sS'TTTAAT'
p2173
I1455
sS'GCACTG'
p2174
I2391
sS'GGGCAT'
p2175
I386
sS'TTTCCG'
p2176
I1092
sS'TTTCCA'
p2177
I4317
sS'TTTCCC'
p2178
I4403
sS'GTACGT'
p2179
I178
sS'GTTTGT'
p2180
I6823
sS'TTTCCT'
p2181
I2911
sS'GGGCAG'
p2182
I3067
sS'GTCTGT'
p2183
I5842
sS'GGGCAA'
p2184
I1149
sS'ATCCGT'
p2185
I337
sS'GGGCAC'
p2186
I1503
sS'GTTTGC'
p2187
I8868
sS'GTTTGA'
p2188
I5637
sS'GTTTGG'
p2189
I6105
sS'GTACGA'
p2190
I195
sS'CCGCTC'
p2191
I1190
sS'GCATGT'
p2192
I994
sS'CCGCTA'
p2193
I519
sS'CCGCTG'
p2194
I2217
sS'AGCATT'
p2195
I2319
sS'GCGCGG'
p2196
I1467
sS'GCGCGC'
p2197
I1365
sS'TGTTTT'
p2198
I4051
sS'GCGCGA'
p2199
I435
sS'GCATGG'
p2200
I1425
sS'GCATGC'
p2201
I1438
sS'CCGCTT'
p2202
I211
sS'TGACCT'
p2203
I533
sS'GTCGAC'
p2204
I524
sS'GCGCGT'
p2205
I197
sS'GTCGAG'
p2206
I876
sS'AGACAT'
p2207
I352
sS'GAGCTA'
p2208
I5579
sS'TGCGCT'
p2209
I890
sS'GAGCTC'
p2210
I8038
sS'ATTGAT'
p2211
I315
sS'GAGCTG'
p2212
I18958
sS'AAACGA'
p2213
I409
sS'AAACGC'
p2214
I597
sS'GTAACA'
p2215
I2331
sS'CACGCG'
p2216
I1778
sS'AAACGG'
p2217
I566
sS'TGTCCC'
p2218
I3494
sS'TGCGCG'
p2219
I1982
sS'TGTCCA'
p2220
I2959
sS'TGTCCG'
p2221
I971
sS'TGCGCC'
p2222
I2964
sS'ATTGAG'
p2223
I1367
sS'TGCGCA'
p2224
I2072
sS'CACGCA'
p2225
I2763
sS'AAACGT'
p2226
I220
sS'ATTTCG'
p2227
I580
sS'TCTCAT'
p2228
I740
sS'ACCGAA'
p2229
I451
sS'TACGCA'
p2230
I1025
sS'ATCAGT'
p2231
I2057
sS'ATCGGG'
p2232
I723
sS'CATAGT'
p2233
I1489
sS'ATCGGC'
p2234
I557
sS'ATCGGA'
p2235
I413
sS'TGGGTG'
p2236
I5274
sS'CGATCA'
p2237
I156
sS'TGGGTC'
p2238
I1529
sS'TGGGTA'
p2239
I2106
sS'CATAGG'
p2240
I3175
sS'ATCGGT'
p2241
I153
sS'ATCAGG'
p2242
I5624
sS'ATCAGA'
p2243
I5149
sS'CATAGA'
p2244
I3154
sS'ACGGGT'
p2245
I151
sS'ATAATT'
p2246
I683
sS'CCTGGT'
p2247
I1409
sS'ATTCGG'
p2248
I521
sS'GATTCT'
p2249
I3582
sS'CTTTTG'
p2250
I13997
sS'TACTAG'
p2251
I3765
sS'TACTAA'
p2252
I5773
sS'CTTTTA'
p2253
I11601
sS'GATTCC'
p2254
I6620
sS'GATTCA'
p2255
I7608
sS'GATTCG'
p2256
I1474
sS'ACGGGC'
p2257
I432
sS'TACTAT'
p2258
I2027
sS'CTTTTT'
p2259
I2640
sS'ACCAAC'
p2260
I2587
sS'CGTAGA'
p2261
I625
sS'TCACGA'
p2262
I209
sS'TCACGC'
p2263
I345
sS'TCACGG'
p2264
I338
sS'ACCGAT'
p2265
I104
sS'TCACGT'
p2266
I231
sS'AGTGGA'
p2267
I2757
sS'TTCCAC'
p2268
I5202
sS'TTCCAA'
p2269
I4913
sS'TTCCAG'
p2270
I8293
sS'ACCCTT'
p2271
I1077
sS'TGAAGT'
p2272
I1140
sS'CCACAT'
p2273
I400
sS'AGGCAC'
p2274
I2244
sS'TTCCAT'
p2275
I1590
sS'TGAAGC'
p2276
I2049
sS'TGAAGA'
p2277
I2288
sS'TGAAGG'
p2278
I2917
sS'ACCCTG'
p2279
I9564
sS'CTGACT'
p2280
I2183
sS'CCCCTT'
p2281
I1661
sS'AGTTAT'
p2282
I960
sS'ACATAT'
p2283
I503
sS'CTGACG'
p2284
I1101
sS'CTGACC'
p2285
I3900
sS'CTGACA'
p2286
I3682
sS'AGTTAA'
p2287
I3481
sS'CCCCTG'
p2288
I10528
sS'AGTTAC'
p2289
I2678
sS'CCCCTC'
p2290
I8395
sS'AGTTAG'
p2291
I2756
sS'CCCCTA'
p2292
I4275
sS'ACACAG'
p2293
I1096
sS'ACACAA'
p2294
I868
sS'ACACAC'
p2295
I1226
sS'AATGTT'
p2296
I1528
sS'CTGCAG'
p2297
I5709
sS'CATGGG'
p2298
I3814
sS'CTGCAC'
p2299
I3125
sS'CATGGC'
p2300
I3622
sS'AATGTC'
p2301
I3875
sS'ACACAT'
p2302
I477
sS'AATGTA'
p2303
I6817
sS'AATGTG'
p2304
I9804
sS'AGCTAA'
p2305
I5674
sS'CATGGT'
p2306
I1293
sS'CTGCAT'
p2307
I1076
sS'GCACAG'
p2308
I982
sS'ACATTT'
p2309
I782
sS'ATGTTC'
p2310
I2972
sS'CGAGAT'
p2311
I103
sS'GTTCGT'
p2312
I300
sS'CACAAT'
p2313
I1873
sS'ACATTG'
p2314
I2515
sS'ACATTA'
p2315
I2035
sS'ACATTC'
p2316
I1852
sS'ATTACA'
p2317
I3623
sS'ATGCTC'
p2318
I3378
sS'ATTACC'
p2319
I1539
sS'CGAGAC'
p2320
I311
sS'GTTCGG'
p2321
I1059
sS'AAGTCT'
p2322
I2072
sS'ACCCTA'
p2323
I3549
sS'CCACAA'
p2324
I770
sS'GGACAT'
p2325
I165
sS'CAGCGT'
p2326
I616
sS'GCTATA'
p2327
I1815
sS'GCTATC'
p2328
I812
sS'AAGTCG'
p2329
I968
sS'AAGTCA'
p2330
I5602
sS'GCTATG'
p2331
I3044
sS'AAGTCC'
p2332
I4426
sS'GGACAG'
p2333
I604
sS'GGACAC'
p2334
I372
sS'GGACAA'
p2335
I434
sS'CTAATT'
p2336
I889
sS'AGGGTT'
p2337
I696
sS'GAGGCG'
p2338
I5301
sS'TGTTGG'
p2339
I5968
sS'GAGGCA'
p2340
I8917
sS'TGTTGA'
p2341
I6349
sS'GAGGCC'
p2342
I10310
sS'TGTTGC'
p2343
I6201
sS'ACTCGA'
p2344
I476
sS'TAAAAT'
p2345
I969
sS'ACTCGC'
p2346
I912
sS'AAGCTT'
p2347
I1329
sS'GTACCG'
p2348
I274
sS'TGTTGT'
p2349
I3370
sS'GAGGCT'
p2350
I3928
sS'AGCGCC'
p2351
I4344
sS'AGGGTG'
p2352
I5825
sS'AGGGTA'
p2353
I2104
sS'AGCGCG'
p2354
I2763
sS'AGGGTC'
p2355
I1258
sS'TAAAAG'
p2356
I2538
sS'ACTCGT'
p2357
I204
sS'TAAAAC'
p2358
I2081
sS'TAAAAA'
p2359
I2505
sS'ACGTTC'
p2360
I630
sS'AGCTGC'
p2361
I17036
sS'ACGTTA'
p2362
I627
sS'AGCTGA'
p2363
I11767
sS'CTACTG'
p2364
I2735
sS'AGCTGG'
p2365
I17599
sS'TAGGGG'
p2366
I2525
sS'AGTGCG'
p2367
I1092
sS'AGTGCA'
p2368
I3338
sS'AGAGTT'
p2369
I468
sS'AGTGCC'
p2370
I3136
sS'CCAAAA'
p2371
I787
sS'TAGGGT'
p2372
I797
sS'GCATAG'
p2373
I440
sS'AGCTGT'
p2374
I6608
sS'CTACTT'
p2375
I554
sS'AGTGCT'
p2376
I1508
sS'AGAGTC'
p2377
I1155
sS'AGAGTA'
p2378
I1531
sS'AGAGTG'
p2379
I3114
sS'TAACCC'
p2380
I740
sS'GTTAAA'
p2381
I2902
sS'CCTGGC'
p2382
I4093
sS'GTTAAC'
p2383
I1746
sS'CCTGGA'
p2384
I3757
sS'CCTGGG'
p2385
I6291
sS'GTTAAG'
p2386
I2613
sS'TTCGTC'
p2387
I1089
sS'CTAATC'
p2388
I1057
sS'GTCTGG'
p2389
I12554
sS'GTCTGC'
p2390
I10285
sS'GTTAAT'
p2391
I732
sS'GTCTGA'
p2392
I8775
sS'ACGACT'
p2393
I132
sS'GGAAGG'
p2394
I4679
sS'ATGCTT'
p2395
I1071
sS'GGAAGC'
p2396
I2745
sS'CTAATG'
p2397
I3111
sS'GGAAGA'
p2398
I2934
sS'GCGTTA'
p2399
I620
sS'CAATGA'
p2400
I1586
sS'GCGTTC'
p2401
I975
sS'CAATGC'
p2402
I1412
sS'GCGTTG'
p2403
I1322
sS'CAATGG'
p2404
I1781
sS'ATGCTG'
p2405
I8001
sS'GGAAGT'
p2406
I1395
sS'CCACAC'
p2407
I606
sS'ATGCTA'
p2408
I3065
sS'ATTTGT'
p2409
I3534
sS'TCCTCG'
p2410
I3974
sS'TGTATG'
p2411
I5136
sS'TCCTCA'
p2412
I12056
sS'GCGTTT'
p2413
I272
sS'TCCTCC'
p2414
I20774
sS'TGTATC'
p2415
I1939
sS'CGTTAG'
p2416
I711
sS'TAACCG'
p2417
I208
sS'TCATAG'
p2418
I569
sS'TTCGTG'
p2419
I2150
sS'CGTTAC'
p2420
I623
sS'TTCGTA'
p2421
I1003
sS'CGTTAA'
p2422
I592
sS'TAACCA'
p2423
I1231
sS'ACCGCT'
p2424
I493
sS'TCGCGA'
p2425
I207
sS'AACCCA'
p2426
I4874
sS'TCAGGA'
p2427
I2407
sS'TTCGTT'
p2428
I380
sS'TACCCT'
p2429
I1704
sS'TAACCT'
p2430
I517
sS'GTGAAG'
p2431
I2761
sS'GTGAAA'
p2432
I1963
sS'GTGAAC'
p2433
I1609
sS'CAATAG'
p2434
I737
sS'TGCATA'
p2435
I6802
sS'ACCGCG'
p2436
I1209
sS'ACCGCA'
p2437
I1257
sS'AACGAG'
p2438
I1244
sS'ACCGCC'
p2439
I2494
sS'AGTTCC'
p2440
I5405
sS'CCGCCT'
p2441
I650
sS'AGGCTT'
p2442
I1567
sS'CCTTCT'
p2443
I3220
sS'GTTGCA'
p2444
I2623
sS'AACGAA'
p2445
I987
sS'GTTGCC'
p2446
I2539
sS'GTGCCG'
p2447
I1883
sS'GTGCCA'
p2448
I4928
sS'GTTGCG'
p2449
I729
sS'GTGCCC'
p2450
I5945
sS'CCGCCG'
p2451
I903
sS'AGGCTA'
p2452
I3782
sS'CCTTCC'
p2453
I8995
sS'AGGCTC'
p2454
I5679
sS'CCGCCC'
p2455
I2501
sS'TGTCGA'
p2456
I553
sS'CCTTCG'
p2457
I1633
sS'AGGCTG'
p2458
I14802
sS'GTGCCT'
p2459
I3049
sS'TCCAAA'
p2460
I4152
sS'GTTGCT'
p2461
I1533
sS'GCCGTT'
p2462
I396
sS'ATAGGT'
p2463
I766
sS'TCGGGT'
p2464
I158
sS'AAACCT'
p2465
I579
sS'GCAGTT'
p2466
I574
sS'GAAGCT'
p2467
I2051
sS'TCGGGC'
p2468
I527
sS'ATGCCA'
p2469
I2986
sS'GGATAC'
p2470
I298
sS'TCGGGG'
p2471
I819
sS'GGATAG'
p2472
I293
sS'GAAGCG'
p2473
I1603
sS'GCAGTG'
p2474
I3884
sS'GAAGCC'
p2475
I4599
sS'GCAGTA'
p2476
I1426
sS'GAAGCA'
p2477
I5138
sS'GCAGTC'
p2478
I1050
sS'CGCCCG'
p2479
I3491
sS'GAGAGA'
p2480
I10747
sS'GAGAGG'
p2481
I14422
sS'CGCCCA'
p2482
I3453
sS'CTACAA'
p2483
I1201
sS'CTATAG'
p2484
I833
sS'NNNNNN'
p2485
I5
sS'GCATTC'
p2486
I1689
sS'GCATTA'
p2487
I1751
sS'CTCGCA'
p2488
I1993
sS'CGCCCT'
p2489
I1852
sS'GAGAGT'
p2490
I2668
sS'GTCTCG'
p2491
I3402
sS'CTATAT'
p2492
I532
sS'AGTTTC'
p2493
I7621
sS'GCCGGG'
p2494
I7185
sS'TACCCG'
p2495
I1215
sS'GCCGGC'
p2496
I4232
sS'CATGTT'
p2497
I1348
sS'GCCGGA'
p2498
I2371
sS'AGATCT'
p2499
I586
sS'AGTTTA'
p2500
I8768
sS'TACCCA'
p2501
I3917
sS'CATGTA'
p2502
I4896
sS'CATGTC'
p2503
I3337
sS'GCCGGT'
p2504
I677
sS'CATGTG'
p2505
I9843
sS'GGCCTG'
p2506
I15440
sS'GGCCTC'
p2507
I9998
sS'CAAGCT'
p2508
I1721
sS'TTTGTT'
p2509
I2024
sS'AATCGG'
p2510
I1028
sS'AATCGC'
p2511
I1123
sS'AATCGA'
p2512
I647
sS'GTTCAG'
p2513
I2999
sS'GGCCTT'
p2514
I1834
sS'TCACTA'
p2515
I994
sS'TCACTC'
p2516
I1013
sS'AATCGT'
p2517
I326
sS'TGGATT'
p2518
I566
sS'AGCCGA'
p2519
I2614
sS'CCTTCA'
p2520
I4968
sS'AGCCGC'
p2521
I6145
sS'TAATTG'
p2522
I3018
sS'TAATTA'
p2523
I3401
sS'AGCCGG'
p2524
I5749
sS'TAATTC'
p2525
I1761
sS'TGGTGA'
p2526
I2870
sS'GGGCTC'
p2527
I4358
sS'TGGTGC'
p2528
I3131
sS'GGGCTA'
p2529
I2136
sS'GGGCTG'
p2530
I9953
sS'TGGTGG'
p2531
I4262
sS'GATGGG'
p2532
I5939
sS'GTTTTC'
p2533
I7642
sS'GTTTTA'
p2534
I9768
sS'GTTTTG'
p2535
I12291
sS'GTTCAA'
p2536
I2118
sS'GAGCGC'
p2537
I3963
sS'TGACAG'
p2538
I855
sS'CCAAGG'
p2539
I2252
sS'CTACAT'
p2540
I457
sS'TCTCAG'
p2541
I3517
sS'CCAAGC'
p2542
I1453
sS'TGGTGT'
p2543
I2007
sS'TCTCAC'
p2544
I2188
sS'ATTCGT'
p2545
I212
sS'AGAACT'
p2546
I1120
sS'TAACAT'
p2547
I354
sS'CCGCCA'
p2548
I946
sS'TACCAT'
p2549
I1191
sS'CCTATT'
p2550
I671
sS'CACTGT'
p2551
I7085
sS'ACCCGA'
p2552
I1015
sS'ATGTCT'
p2553
I1734
sS'ACCCGC'
p2554
I2359
sS'ACCAGT'
p2555
I1967
sS'TACCAC'
p2556
I3486
sS'AGAACG'
p2557
I637
sS'TACCAA'
p2558
I3177
sS'AGAACA'
p2559
I2828
sS'TACCAG'
p2560
I4251
sS'AGAACC'
p2561
I2047
sS'ACCAGC'
p2562
I6067
sS'CACTGG'
p2563
I14035
sS'AGATAT'
p2564
I425
sS'TGACAA'
p2565
I638
sS'ACCAGG'
p2566
I7660
sS'CACTGC'
p2567
I17049
sS'CCTATC'
p2568
I1054
sS'CACTGA'
p2569
I11471
sS'GAGTCA'
p2570
I10288
sS'TAGGTT'
p2571
I643
sS'GTTTAC'
p2572
I5157
sS'AATTAT'
p2573
I1235
sS'CTGTTG'
p2574
I10150
sS'GTAACC'
p2575
I1687
sS'CTGTTC'
p2576
I5883
sS'CGGGTT'
p2577
I212
sS'CTGTTA'
p2578
I6145
sS'AATTAC'
p2579
I3293
sS'AATTAA'
p2580
I4620
sS'AATTAG'
p2581
I3211
sS'TAGGTC'
p2582
I1621
sS'CGGGTC'
p2583
I814
sS'CTGTTT'
p2584
I3060
sS'CGGGTA'
p2585
I653
sS'CGGGTG'
p2586
I1882
sS'CCAAAC'
p2587
I860
sS'ATTGTT'
p2588
I632
sS'AAGTAA'
p2589
I2774
sS'CATTAC'
p2590
I3493
sS'TTAGGG'
p2591
I1951
sS'ATATAT'
p2592
I710
sS'AGCAAC'
p2593
I5869
sS'TTAGGC'
p2594
I1235
sS'AAAGCT'
p2595
I1436
sS'TTAGGA'
p2596
I2681
sS'ACCTCG'
p2597
I2199
sS'CATGCA'
p2598
I4531
sS'AAAGCA'
p2599
I4651
sS'GGATAT'
p2600
I206
sS'AAAGCC'
p2601
I3032
sS'TTAGGT'
p2602
I1192
sS'GAGTCG'
p2603
I2057
sS'AGCAAT'
p2604
I2120
sS'ATGAAA'
p2605
I1847
sS'TACTTC'
p2606
I10833
sS'ATAGCC'
p2607
I1043
sS'TACTTG'
p2608
I12776
sS'ATAGCG'
p2609
I303
sS'CAGCGC'
p2610
I2466
sS'ACGGCT'
p2611
I180
sS'ATAGCT'
p2612
I1117
sS'TACTTT'
p2613
I5685
sS'CTTCGA'
p2614
I823
sS'CGAGTT'
p2615
I115
sS'TCCAAT'
p2616
I1234
sS'CGTACT'
p2617
I279
sS'TCCCGT'
p2618
I712
sS'ACATAC'
p2619
I669
sS'CTTAAG'
p2620
I2906
sS'ACATAA'
p2621
I761
sS'CTTAAA'
p2622
I3430
sS'ACATAG'
p2623
I592
sS'CTTAAC'
p2624
I2136
sS'TCCAAG'
p2625
I5421
sS'CGAGTG'
p2626
I783
sS'TCCAAC'
p2627
I3631
sS'CGTACG'
p2628
I257
sS'AGGGGA'
p2629
I3071
sS'CTTAAT'
p2630
I882
sS'AGGGGC'
p2631
I2653
sS'TATGCA'
p2632
I3924
sS'TATGCC'
p2633
I2446
sS'TCATTA'
p2634
I2503
sS'CGACTT'
p2635
I60
sS'TGAATT'
p2636
I501
sS'TTGTAA'
p2637
I1917
sS'CACAAA'
p2638
I7097
sS'TTGTAC'
p2639
I1312
sS'GTACCT'
p2640
I771
sS'CGTTTA'
p2641
I1958
sS'TGAATC'
p2642
I1111
sS'ACAACA'
p2643
I1840
sS'TGAATA'
p2644
I2245
sS'TCGGGA'
p2645
I477
sS'TGAATG'
p2646
I3636
sS'AAGTAT'
p2647
I805
sS'CGACTG'
p2648
I409
sS'TTGTAT'
p2649
I972
sS'ATCGTG'
p2650
I1439
sS'GCTTCG'
p2651
I1555
sS'ATCGTC'
p2652
I578
sS'GCTTCC'
p2653
I7131
sS'TGGGAG'
p2654
I2942
sS'GAGGGT'
p2655
I1913
sS'TGGGAA'
p2656
I1906
sS'TGGGAC'
p2657
I1463
sS'GCTTCT'
p2658
I2553
sS'ATCGTT'
p2659
I170
sS'ACAACG'
p2660
I324
sS'TGGGAT'
p2661
I565
sS'CTAGCC'
p2662
I2131
sS'GACCAT'
p2663
I995
sS'CTAGCG'
p2664
I660
sS'CGGTAG'
p2665
I390
sS'ACTTAG'
p2666
I1891
sS'TAGATT'
p2667
I723
sS'ACTTAA'
p2668
I2320
sS'CGGTAC'
p2669
I277
sS'TACACT'
p2670
I3609
sS'CGGTAA'
p2671
I254
sS'GACCAG'
p2672
I7269
sS'GACCAC'
p2673
I4127
sS'GACCAA'
p2674
I4649
sS'TACACC'
p2675
I4426
sS'CGGTAT'
p2676
I86
sS'TACACA'
p2677
I9992
sS'TACACG'
p2678
I1756
sS'GCGAGA'
p2679
I716
sS'GAGAGC'
p2680
I8108
sS'GCGAGC'
p2681
I957
sS'GCTGAG'
p2682
I4652
sS'GCGAGG'
p2683
I1875
sS'GAACTT'
p2684
I406
sS'CAGCCA'
p2685
I5562
sS'CAGCCC'
p2686
I6126
sS'GCTGAA'
p2687
I2237
sS'GCGAGT'
p2688
I265
sS'CGCCCC'
p2689
I7837
sS'GAACTC'
p2690
I1664
sS'GAACTA'
p2691
I1929
sS'GGACTT'
p2692
I175
sS'CACCTA'
p2693
I7448
sS'AACTAT'
p2694
I1589
sS'CACCTC'
p2695
I11078
sS'CACCTG'
p2696
I19908
sS'TGATCC'
p2697
I904
sS'AACACT'
p2698
I4295
sS'TGATCA'
p2699
I848
sS'TGATCG'
p2700
I157
sS'AACTAG'
p2701
I4492
sS'GGACTG'
p2702
I1386
sS'CACCTT'
p2703
I2663
sS'AACTAC'
p2704
I4432
sS'AACTAA'
p2705
I5708
sS'AACGAT'
p2706
I220
sS'AACACG'
p2707
I2412
sS'AACACA'
p2708
I10869
sS'AACACC'
p2709
I6687
sS'TGATCT'
p2710
I509
sS'TGTAAT'
p2711
I1415
sS'CTATAC'
p2712
I654
sS'TGAGCC'
p2713
I2235
sS'GACAGT'
p2714
I5227
sS'CAACAA'
p2715
I1062
sS'AAAGAA'
p2716
I3881
sS'CAACAC'
p2717
I680
sS'GCTGAT'
p2718
I501
sS'CTATAA'
p2719
I1098
sS'GACAGG'
p2720
I16131
sS'AAAGAG'
p2721
I2580
sS'GACAGC'
p2722
I12784
sS'GACAGA'
p2723
I13572
sS'GTATTA'
p2724
I3163
sS'GTATTC'
p2725
I1846
sS'GTAAGT'
p2726
I1190
sS'ATATCA'
p2727
I1455
sS'GTATTG'
p2728
I3082
sS'GGTGGC'
p2729
I3469
sS'TCCCCT'
p2730
I2291
sS'GGTGGA'
p2731
I3086
sS'CGTCAT'
p2732
I207
sS'GGTGGG'
p2733
I4655
sS'NNNGAA'
p2734
I1
sS'AGAGGC'
p2735
I2335
sS'GTAAGA'
p2736
I2224
sS'AGAGGA'
p2737
I3612
sS'CTCGCC'
p2738
I4202
sS'AGAGGG'
p2739
I3147
sS'GTAAGG'
p2740
I2219
sS'TCCCCG'
p2741
I3061
sS'CGTCAC'
p2742
I1242
sS'TCCCCC'
p2743
I3995
sS'GGTGGT'
p2744
I985
sS'TCCCCA'
p2745
I5843
sS'GTCGCG'
p2746
I1177
sS'GTCGCA'
p2747
I1071
sS'GTCGCC'
p2748
I2394
sS'CCGTCT'
p2749
I427
sS'ATATAC'
p2750
I731
sS'CTCGCG'
p2751
I2145
sS'TCGGTG'
p2752
I872
sS'GTCGCT'
p2753
I801
sS'GTAACT'
p2754
I1247
sS'CCGTCG'
p2755
I364
sS'CCGTCA'
p2756
I627
sS'CCGTCC'
p2757
I1454
sS'GGCTGT'
p2758
I5327
sS'CGCGTG'
p2759
I2779
sS'GCATTT'
p2760
I642
sS'CGCGTC'
p2761
I2127
sS'CGCGTA'
p2762
I731
sS'CCACTG'
p2763
I2291
sS'CCACTA'
p2764
I806
sS'CCACTC'
p2765
I897
sS'CGCGTT'
p2766
I384
sS'GGCTGG'
p2767
I18467
sS'GGCTGA'
p2768
I10219
sS'GGCTGC'
p2769
I16826
sS'CCACTT'
p2770
I361
sS'TTTAGA'
p2771
I3768
sS'TTTCAT'
p2772
I1081
sS'ATGACG'
p2773
I576
sS'GGAGTT'
p2774
I399
sS'ATGACA'
p2775
I2540
sS'ATGACC'
p2776
I1737
sS'CCTGAT'
p2777
I480
sS'GGGCCT'
p2778
I1305
sS'ATGACT'
p2779
I1329
sS'GGAGTA'
p2780
I975
sS'CTACGC'
p2781
I380
sS'GGAGTC'
p2782
I902
sS'GGAGTG'
p2783
I2357
sS'GGGCCG'
p2784
I1735
sS'GGGCCC'
p2785
I3048
sS'GGGCCA'
p2786
I2268
sS'CTGATC'
p2787
I1603
sS'ACGAGT'
p2788
I154
sS'AGGCCA'
p2789
I3772
sS'AGGCCC'
p2790
I4227
sS'AGGCCG'
p2791
I1897
sS'ACGAGG'
p2792
I826
sS'ACGAGC'
p2793
I392
sS'ACGAGA'
p2794
I367
sS'CTGATG'
p2795
I5356
sS'AGGCCT'
p2796
I1745
sS'GCTCTA'
p2797
I3469
sS'ACATCT'
p2798
I743
sS'GGGTTG'
p2799
I4563
sS'GACTAC'
p2800
I4911
sS'GGGTTA'
p2801
I2686
sS'CTCGGG'
p2802
I4032
sS'GGGTTC'
p2803
I2238
sS'TTTGAT'
p2804
I692
sS'TGCAAT'
p2805
I1834
sS'ATTCGA'
p2806
I462
sS'CTACGA'
p2807
I283
sS'ATTGCT'
p2808
I1007
sS'GGGTTT'
p2809
I865
sS'CTTACT'
p2810
I2086
sS'AGAAAT'
p2811
I802
sS'TGCGAG'
p2812
I1487
sS'AACGGC'
p2813
I1428
sS'AGACGC'
p2814
I503
sS'AACGGA'
p2815
I1199
sS'TTTGGC'
p2816
I2552
sS'AACGGG'
p2817
I1841
sS'TTTGAC'
p2818
I2000
sS'TTTGAA'
p2819
I3222
sS'ATCATC'
p2820
I3689
sS'CGGGCT'
p2821
I630
sS'CTCGTA'
p2822
I1188
sS'CTCGTC'
p2823
I1812
sS'CCCTGG'
p2824
I13802
sS'CCCTGA'
p2825
I7586
sS'CTCGTG'
p2826
I3044
sS'CCCTGC'
p2827
I14776
sS'CCCTGT'
p2828
I4136
sS'AAGCTC'
p2829
I4850
sS'GATATA'
p2830
I3545
sS'AAGCTA'
p2831
I4557
sS'GATATG'
p2832
I4622
sS'AAGCTG'
p2833
I11675
sS'TGACGC'
p2834
I286
sS'TACTCT'
p2835
I4580
sS'CATCGT'
p2836
I480
sS'CAGGGT'
p2837
I1524
sS'CTACGG'
p2838
I452
sS'CCAGTC'
p2839
I1215
sS'TACGAT'
p2840
I183
sS'CCAGTG'
p2841
I3165
sS'TACTCG'
p2842
I1726
sS'CATCGA'
p2843
I673
sS'CATCGC'
p2844
I1474
sS'TACTCC'
p2845
I6696
sS'NGAATT'
p2846
I1
sS'TACTCA'
p2847
I9872
sS'CATCGG'
p2848
I1067
sS'TGCNCC'
p2849
I1
sS'CAGGGG'
p2850
I4478
sS'CAGGGA'
p2851
I5577
sS'CAGGGC'
p2852
I5774
sS'AATCTG'
p2853
I9273
sS'CGGACT'
p2854
I365
sS'GCCATT'
p2855
I1430
sS'AGTCGA'
p2856
I649
sS'AATCTA'
p2857
I5108
sS'TGAACG'
p2858
I411
sS'TCACAC'
p2859
I570
sS'TCACAA'
p2860
I616
sS'TCACAG'
p2861
I857
sS'GCCATA'
p2862
I3786
sS'CGGACG'
p2863
I584
sS'TCCACC'
p2864
I8576
sS'CGGACA'
p2865
I750
sS'CGGACC'
p2866
I1010
sS'GCCATG'
p2867
I9229
sS'CTTACC'
p2868
I2959
sS'TCACAT'
p2869
I345
sS'ATTAAC'
p2870
I1510
sS'ATTAAA'
p2871
I3179
sS'ATTAAG'
p2872
I2125
sS'CTTACA'
p2873
I3458
sS'TCACTT'
p2874
I413
sS'ACTCCT'
p2875
I1039
sS'TGAACA'
p2876
I2047
sS'ATTAAT'
p2877
I663
sS'AAGCAC'
p2878
I2988
sS'GAACCA'
p2879
I1578
sS'GGTATG'
p2880
I2693
sS'GGTATA'
p2881
I1504
sS'GGTATC'
p2882
I902
sS'GAACCG'
p2883
I523
sS'GGCCTA'
p2884
I3819
sS'ACGAAT'
p2885
I61
sS'GGTATT'
p2886
I469
sS'CTGAAC'
p2887
I1825
sS'CTGAAG'
p2888
I3151
sS'ATTGTA'
p2889
I2604
sS'CCCGAA'
p2890
I683
sS'TAGGTA'
p2891
I2940
sS'CATTGC'
p2892
I6901
sS'TATGAG'
p2893
I2997
sS'CATTGA'
p2894
I4713
sS'CTAGTT'
p2895
I686
sS'CATTGG'
p2896
I6098
sS'TCAACT'
p2897
I686
sS'ACCATC'
p2898
I3038
sS'ACACCG'
p2899
I312
sS'CTGCCA'
p2900
I8197
sS'CTGCCC'
p2901
I11224
sS'ACACCC'
p2902
I865
sS'ACACCA'
p2903
I1135
sS'CTGCCG'
p2904
I3399
sS'CTAGTG'
p2905
I2788
sS'TCAACC'
p2906
I977
sS'TCAACA'
p2907
I2083
sS'CTAGTC'
p2908
I1067
sS'TCAACG'
p2909
I257
sS'CTAGTA'
p2910
I1517
sS'CATTGT'
p2911
I3712
sS'TATGAC'
p2912
I2673
sS'ACACCT'
p2913
I704
sS'CTGCCT'
p2914
I5789
sS'CCTCGT'
p2915
I415
sS'TATGAA'
p2916
I2754
sS'AGACTG'
p2917
I2282
sS'TCACTG'
p2918
I2723
sS'AGACTA'
p2919
I1005
sS'CCTCGG'
p2920
I2237
sS'CCTCGC'
p2921
I2127
sS'CCCGAC'
p2922
I1293
sS'CCTCGA'
p2923
I838
sS'CGAGGA'
p2924
I883
sS'CGAGGC'
p2925
I805
sS'CGAGGG'
p2926
I1038
sS'CACCGT'
p2927
I880
sS'ACTTTA'
p2928
I6335
sS'ACTTTG'
p2929
I8689
sS'GACCTG'
p2930
I16372
sS'GGACGT'
p2931
I118
sS'GACCTC'
p2932
I9000
sS'CACCGG'
p2933
I2763
sS'ACGCTG'
p2934
I1380
sS'CACCGA'
p2935
I1686
sS'CACCGC'
p2936
I4536
sS'GACCTT'
p2937
I2840
sS'GGACGC'
p2938
I428
sS'GGACGG'
p2939
I433
sS'ACGCTA'
p2940
I400
sS'CACAGC'
p2941
I14738
sS'CTTATC'
p2942
I1842
sS'CACAGA'
p2943
I12062
sS'CTTATA'
p2944
I3165
sS'CACAGG'
p2945
I14698
sS'TTAACT'
p2946
I1441
sS'ACTCAT'
p2947
I676
sS'GAGGAG'
p2948
I11195
sS'GACGTA'
p2949
I1554
sS'CTTGAC'
p2950
I1988
sS'GACGTC'
p2951
I2812
sS'GAGGAC'
p2952
I4427
sS'GAGGAA'
p2953
I6562
sS'GACGTG'
p2954
I4713
sS'TTAACA'
p2955
I3026
sS'ACTCAC'
p2956
I2216
sS'TTAACC'
p2957
I1738
sS'TATGAT'
p2958
I757
sS'ACTCAG'
p2959
I3200
sS'TTAACG'
p2960
I431
sS'CACAGT'
p2961
I5527
sS'AGCGAC'
p2962
I1339
sS'TAAACA'
p2963
I8561
sS'AGCGAA'
p2964
I1086
sS'TAAACC'
p2965
I2033
sS'AGCGAG'
p2966
I2649
sS'CCACCG'
p2967
I730
sS'TAAACG'
p2968
I556
sS'CTGTGG'
p2969
I8586
sS'GTATGT'
p2970
I1717
sS'AGTTCA'
p2971
I5497
sS'AGTTCG'
p2972
I1194
sS'TAGCCC'
p2973
I2169
sS'CTGTGA'
p2974
I5530
sS'GAGCGT'
p2975
I803
sS'TAGGAC'
p2976
I1571
sS'GCAAAG'
p2977
I1389
sS'TAGGAA'
p2978
I2238
sS'GCAAAA'
p2979
I980
sS'TAGGAG'
p2980
I2699
sS'GCAAAC'
p2981
I1496
sS'CGGGGC'
p2982
I2211
sS'CGGGGA'
p2983
I1402
sS'CTGTGT'
p2984
I4724
sS'CGGGGG'
p2985
I1616
sS'GTATGC'
p2986
I1475
sS'AGTTCT'
p2987
I2454
sS'GCAAAT'
p2988
I569
sS'CGAGAA'
p2989
I374
sS'TAGGAT'
p2990
I536
sS'AAAAAT'
p2991
I798
sS'TTCAAT'
p2992
I1838
sS'TGCTTT'
p2993
I7511
sS'TTATAT'
p2994
I709
sS'TGGGNC'
p2995
I1
sS'GTAATT'
p2996
I777
sS'GTTACC'
p2997
I2181
sS'GTTACA'
p2998
I2841
sS'GTTTTT'
p2999
I2008
sS'TATCGA'
p3000
I382
sS'TATCGC'
p3001
I667
sS'TATAGT'
p3002
I1699
sS'GTCTAA'
p3003
I4073
sS'TGCTTA'
p3004
I14335
sS'GTCTAC'
p3005
I3283
sS'TGCTTC'
p3006
I17276
sS'TTCAAA'
p3007
I8207
sS'TTCAAC'
p3008
I5035
sS'TGCTTG'
p3009
I19323
sS'TATAGC'
p3010
I2690
sS'TATCGT'
p3011
I277
sS'TATAGA'
p3012
I3356
sS'AGCTCA'
p3013
I11811
sS'TATAGG'
p3014
I3085
sS'GTTACT'
p3015
I1549
sS'GCTCTC'
p3016
I4480
sS'AACCTT'
p3017
I2173
sS'GATGGC'
p3018
I4300
sS'GCTCTG'
p3019
I11540
sS'CCACGT'
p3020
I316
sS'GGAAAG'
p3021
I2115
sS'CAGGAG'
p3022
I4709
sS'GAATGG'
p3023
I2834
sS'GAATGA'
p3024
I2943
sS'ACTACT'
p3025
I710
sS'GAATGC'
p3026
I2790
sS'GCATAA'
p3027
I488
sS'AACCTG'
p3028
I14508
sS'CCACGC'
p3029
I496
sS'CAATAA'
p3030
I852
sS'AACCTC'
p3031
I7702
sS'CCACGG'
p3032
I478
sS'AACCTA'
p3033
I6226
sS'GGCTTA'
p3034
I8383
sS'ACTACC'
p3035
I1154
sS'GGCTTC'
p3036
I13795
sS'ACTACA'
p3037
I2164
sS'ACTACG'
p3038
I418
sS'GGCTTG'
p3039
I15468
sS'TCCTAG'
p3040
I5067
sS'AGTCAG'
p3041
I5102
sS'CGTTGC'
p3042
I1664
sS'TAACAC'
p3043
I737
sS'TCCTAC'
p3044
I3774
sS'AGTCAC'
p3045
I4669
sS'CGTTGG'
p3046
I1491
sS'TAACAG'
p3047
I1035
sS'TCATCG'
p3048
I318
sS'AAGCGT'
p3049
I473
sS'TCATCC'
p3050
I1595
sS'GAGCGG'
p3051
I4463
sS'CTTTCT'
p3052
I5131
sS'AGTCAT'
p3053
I1164
sS'TCCTAT'
p3054
I1345
sS'TGCGAA'
p3055
I620
sS'CGTTGT'
p3056
I611
sS'TAAATA'
p3057
I8500
sS'CTTTCC'
p3058
I10077
sS'CTTTCA'
p3059
I7364
sS'CTTTCG'
p3060
I1662
sS'AGCCGT'
p3061
I978
sS'AAAAAG'
p3062
I2436
sS'GTTGAT'
p3063
I557
sS'CGACCA'
p3064
I176
sS'CGACCC'
p3065
I234
sS'GCATAC'
p3066
I417
sS'CGACCG'
p3067
I104
sS'CCTTAT'
p3068
I752
sS'GTTGAC'
p3069
I1974
sS'GTTGAA'
p3070
I2001
sS'ACTGGG'
p3071
I3164
sS'GTTGAG'
p3072
I2220
sS'CCTTAC'
p3073
I1595
sS'CCTTAA'
p3074
I2222
sS'CCTTAG'
p3075
I2408
sS'CGACCT'
p3076
I122
sS'CAACTC'
p3077
I957
sS'AATAGC'
p3078
I3440
sS'CAACTG'
p3079
I2025
sS'AATAGG'
p3080
I3785
sS'AATATC'
p3081
I2454
sS'GATGGT'
p3082
I1433
sS'GGGGTT'
p3083
I446
sS'GGATGT'
p3084
I599
sS'AATAGT'
p3085
I1638
sS'GGGCTT'
p3086
I867
sS'CAACTT'
p3087
I318
sS'ACTGTA'
p3088
I3476
sS'GGGGTG'
p3089
I4262
sS'GGATGA'
p3090
I857
sS'GGATGG'
p3091
I1172
sS'GGGGTA'
p3092
I1148
sS'TCTCCG'
p3093
I1019
sS'GAGTCC'
p3094
I6804
sS'AAACTG'
p3095
I3510
sS'TCTCCC'
p3096
I3231
sS'AAACTA'
p3097
I1958
sS'TCTCCA'
p3098
I3067
sS'AAACTC'
p3099
I1361
sS'CTATGA'
p3100
I1941
sS'AGTACG'
p3101
I527
sS'CTATGC'
p3102
I1780
sS'AGTACC'
p3103
I1897
sS'ACGCGG'
p3104
I499
sS'AGTACA'
p3105
I2784
sS'CCCTTA'
p3106
I8077
sS'CCCTTC'
p3107
I14440
sS'TCTCCT'
p3108
I1716
sS'CCCTTG'
p3109
I14859
sS'AGTACT'
p3110
I1191
sS'ACGCGT'
p3111
I87
sS'GCCGAA'
p3112
I842
sS'GTGGAG'
p3113
I3301
sS'GCCGAC'
p3114
I1579
sS'GTGGAC'
p3115
I1385
sS'GCCGAG'
p3116
I3350
sS'GTGGAA'
p3117
I2281
sS'TATCAT'
p3118
I989
sS'GTGGAT'
p3119
I449
sS'GCCGAT'
p3120
I183
sS'AGATAG'
p3121
I624
sS'ACCCGG'
p3122
I2503
sS'GTAGTC'
p3123
I1039
sS'AAATCG'
p3124
I306
sS'GTAGTA'
p3125
I1396
sS'TTATCG'
p3126
I307
sS'GTAGTG'
p3127
I2203
sS'AAATCC'
p3128
I1747
sS'CACGCC'
p3129
I4167
sS'AAATCA'
p3130
I2072
sS'GGCTTT'
p3131
I4241
sS'CTCGTT'
p3132
I505
sS'CACGCT'
p3133
I1050
sS'AAATCT'
p3134
I734
sS'AAAGTC'
p3135
I1429
sS'GTAGTT'
p3136
I643
sS'AGATAA'
p3137
I789
sS'CGTTAT'
p3138
I194
sS'ATAGTC'
p3139
I628
sS'GATGAT'
p3140
I1029
sS'GGAGCA'
p3141
I2506
sS'GGAGCC'
p3142
I2458
sS'AAAGTG'
p3143
I3960
sS'CCAAAT'
p3144
I394
sS'GGAGCG'
p3145
I970
sS'AAAACT'
p3146
I1117
sS'GATGAC'
p3147
I4457
sS'GATGAA'
p3148
I4108
sS'GCTCTT'
p3149
I1015
sS'GATGAG'
p3150
I5531
sS'AAAACC'
p3151
I2549
sS'ACTAAC'
p3152
I1120
sS'AAAACA'
p3153
I4955
sS'AAAACG'
p3154
I636
sS'GGAGCT'
p3155
I1324
sS'CCAAAG'
p3156
I1100
sS'TCGCGG'
p3157
I492
sS'CGGTCC'
p3158
I1502
sS'TCGCGC'
p3159
I383
sS'ACGTCG'
p3160
I248
sS'GCCACA'
p3161
I7601
sS'AGATCA'
p3162
I1306
sS'GCCACC'
p3163
I8892
sS'AGATCC'
p3164
I1156
sS'GCGCTT'
p3165
I238
sS'GCCACG'
p3166
I3435
sS'AGATCG'
p3167
I278
sS'ATGTCA'
p3168
I3686
sS'TCGCGT'
p3169
I77
sS'ACCTAG'
p3170
I2877
sS'ACCCGT'
p3171
I319
sS'AGAAAG'
p3172
I2923
sS'CTAGAC'
p3173
I957
sS'AGAAAC'
p3174
I1970
sS'GCCACT'
p3175
I3460
sS'AGAAAA'
p3176
I2279
sS'TACCCC'
p3177
I2570
sS'ATGTAC'
p3178
I1098
sS'ACTTCG'
p3179
I865
sS'ATGTAA'
p3180
I1709
sS'ATGTAG'
p3181
I1261
sS'CCTATA'
p3182
I1658
sS'ACTGTG'
p3183
I6390
sS'CCGGCA'
p3184
I863
sS'GACGAC'
p3185
I1508
sS'ATGTCG'
p3186
I569
sS'ATGTAT'
p3187
I686
sS'GTTCCA'
p3188
I2491
sS'GTTCCC'
p3189
I2902
sS'AGCACT'
p3190
I4517
sS'TTAGAA'
p3191
I2287
sS'CGGCTG'
p3192
I4189
sS'TTAGAC'
p3193
I692
sS'CGGCTC'
p3194
I2889
sS'TTAGAG'
p3195
I1455
sS'CGGCTA'
p3196
I872
sS'AGCACC'
p3197
I8242
sS'AGCACA'
p3198
I9231
sS'AGCACG'
p3199
I2734
sS'CGGCTT'
p3200
I401
sS'TTAGAT'
p3201
I556
sS'CCAGCA'
p3202
I4427
sS'ACCTAT'
p3203
I766
sS'CCAGCC'
p3204
I4354
sS'ATATCC'
p3205
I1332
sS'CCAGCG'
p3206
I1241
sS'CGACGT'
p3207
I59
sS'TTATTT'
p3208
I1699
sS'TGTGAG'
p3209
I4370
sS'TGTGAA'
p3210
I2893
sS'CTACCT'
p3211
I1312
sS'TGTGAC'
p3212
I3413
sS'ATATCT'
p3213
I819
sS'CCAGCT'
p3214
I2621
sS'CACGGT'
p3215
I653
sS'AAAGAT'
p3216
I644
sS'TGTGAT'
p3217
I813
sS'TTATTG'
p3218
I4352
sS'TTATTA'
p3219
I4858
sS'GAAAGC'
p3220
I4738
sS'TTATTC'
p3221
I2352
sS'AGACGG'
p3222
I528
sS'TTTTAT'
p3223
I1751
sS'GCGAAC'
p3224
I289
sS'TACAAG'
p3225
I5914
sS'TCCACT'
p3226
I3361
sS'TACAAA'
p3227
I8004
sS'AGACGA'
p3228
I287
sS'TACAAC'
p3229
I4330
sS'CCTCTG'
p3230
I11353
sS'AGGTGG'
p3231
I5931
sS'CCTCTC'
p3232
I5827
sS'AGGTGC'
p3233
I3622
sS'CCTCTA'
p3234
I4096
sS'AGGTGA'
p3235
I3770
sS'CTTACG'
p3236
I743
sS'TCCACA'
p3237
I7028
sS'TTTTAG'
p3238
I3227
sS'ACATCG'
p3239
I229
sS'TTTTAA'
p3240
I6697
sS'ACATCA'
p3241
I1359
sS'TTTTAC'
p3242
I2869
sS'ACATCC'
p3243
I1285
sS'AGGTGT'
p3244
I2170
sS'CCTCTT'
p3245
I1290
sS'CGTCGG'
p3246
I1091
sS'CCCGGC'
p3247
I4488
sS'CCCGGA'
p3248
I2172
sS'NNCTGA'
p3249
I1
sS'CCCGGG'
p3250
I5205
sS'TTGTGT'
p3251
I3031
sS'TGGAAT'
p3252
I956
sS'TAGGTG'
p3253
I4401
sS'TTGTGC'
p3254
I3334
sS'TTGTGA'
p3255
I3336
sS'TTGTGG'
p3256
I4595
sS'CCCGGT'
p3257
I506
sS'TGGAAG'
p3258
I3473
sS'TGGAAC'
p3259
I1811
sS'TGGAAA'
p3260
I2385
sS'TGAGGA'
p3261
I2794
sS'AAGAGG'
p3262
I8777
sS'TGAGGC'
p3263
I1856
sS'AAGAGA'
p3264
I6720
sS'AAGAGC'
p3265
I5444
sS'TGAGGG'
p3266
I2195
sS'GCTTAG'
p3267
I2224
sS'GCTTAC'
p3268
I1427
sS'GCTTAA'
p3269
I2089
sS'TGATTC'
p3270
I1356
sS'AAGCGC'
p3271
I1777
sS'AAGAGT'
p3272
I2032
sS'AAGCGA'
p3273
I1061
sS'AAGCGG'
p3274
I1961
sS'GCTTAT'
p3275
I697
sS'CTGCTA'
p3276
I5616
sS'GCGTGT'
p3277
I505
sS'CTGCTC'
p3278
I10431
sS'ACTTCT'
p3279
I1677
sS'CCGCAA'
p3280
I178
sS'GACCGT'
p3281
I863
sS'CTGCTG'
p3282
I20565
sS'CGGTCA'
p3283
I764
sS'GGTCGT'
p3284
I238
sS'CTAGAG'
p3285
I2000
sS'CTAGAA'
p3286
I2658
sS'CATGAC'
p3287
I2973
sS'GACCGA'
p3288
I1913
sS'GACCGC'
p3289
I3479
sS'ACTTCC'
p3290
I4985
sS'CTGCTT'
p3291
I3077
sS'GACCGG'
p3292
I3556
sS'CTAGAT'
p3293
I665
sS'GGTCGG'
p3294
I1502
sS'CGGTCT'
p3295
I422
sS'GGTCGC'
p3296
I1364
sS'GGTCGA'
p3297
I554
sS'CGTCGC'
p3298
I1304
sS'GCGTGG'
p3299
I1666
sS'GCGTGA'
p3300
I739
sS'GCGTGC'
p3301
I1176
sS'TGCTCA'
p3302
I11640
sS'TTCATC'
p3303
I7131
sS'TGCTCC'
p3304
I12618
sS'TTCATA'
p3305
I8778
sS'TTCATG'
p3306
I11924
sS'TGCTCG'
p3307
I2986
sS'GTACAA'
p3308
I789
sS'CAGCAG'
p3309
I5196
sS'GCGGCT'
p3310
I541
sS'CAGCAC'
p3311
I3148
sS'CAGCAA'
p3312
I2758
sS'TCGGAG'
p3313
I369
sS'TGCTCT'
p3314
I6706
sS'TTCATT'
p3315
I3797
sS'GTAGCC'
p3316
I1754
sS'GCTGCC'
p3317
I4820
sS'GCTGCA'
p3318
I4652
sS'AACTCT'
p3319
I4509
sS'TGGCCC'
p3320
I3421
sS'TGGCCA'
p3321
I3300
sS'GTAGCA'
p3322
I2163
sS'AGCAAA'
p3323
I8919
sS'TGGCCT'
p3324
I1587
sS'AACTCC'
p3325
I9582
sS'GCTGCT'
p3326
I2197
sS'AACTCG'
p3327
I2260
sS'CAGTCG'
p3328
I1132
sS'AATATT'
p3329
I1566
sS'GTTCGA'
p3330
I498
sS'CAACCT'
p3331
I677
sS'TGGCCG'
p3332
I1261
sS'GGCACG'
p3333
I2301
sS'GGAGGA'
p3334
I4256
sS'GGCACA'
p3335
I5904
sS'GACAAT'
p3336
I2175
sS'GGCACC'
p3337
I6178
sS'CAACCG'
p3338
I328
sS'GTACAT'
p3339
I317
sS'AATATG'
p3340
I5936
sS'CGGTCG'
p3341
I423
sS'AATATA'
p3342
I5406
sS'AGCAAG'
p3343
I9007
sS'CAACCA'
p3344
I1380
sS'CTTCGT'
p3345
I508
sS'GACAAA'
p3346
I9026
sS'GGCACT'
p3347
I2935
sS'GACAAC'
p3348
I5574
sS'ACGACA'
p3349
I289
sS'GACAAG'
p3350
I8834
sS'GCTGCG'
p3351
I2172
sS'GCGGCG'
p3352
I1420
sS'GCAATA'
p3353
I1279
sS'GCAATG'
p3354
I2329
sS'CGATGG'
p3355
I308
sS'TCCCAT'
p3356
I901
sS'CGATGC'
p3357
I238
sS'CAGCAT'
p3358
I798
sS'CGATGA'
p3359
I189
sS'GAATTA'
p3360
I3106
sS'GAATTC'
p3361
I2404
sS'GAATTG'
p3362
I3536
sS'TCCCAA'
p3363
I2979
sS'CGATGT'
p3364
I135
sS'TCCCAC'
p3365
I3929
sS'GTAAAG'
p3366
I1511
sS'TCCCAG'
p3367
I6800
sS'GGATTT'
p3368
I269
sS'GTGCGT'
p3369
I478
sS'ACGCCG'
p3370
I340
sS'GGATTC'
p3371
I819
sS'GGATTA'
p3372
I1936
sS'AGGTCC'
p3373
I3158
sS'ACCTCT'
p3374
I2829
sS'TCAAAT'
p3375
I432
sS'ACGCCA'
p3376
I477
sS'ATATAG'
p3377
I614
sS'TCTGTG'
p3378
I9525
sS'TCTGTC'
p3379
I3520
sS'AACTCA'
p3380
I9485
sS'GGCGGC'
p3381
I5425
sS'CTCCTT'
p3382
I5038
sS'GGCGGA'
p3383
I2919
sS'GGCGGG'
p3384
I9859
sS'AACCGA'
p3385
I1304
sS'CTATCC'
p3386
I1839
sS'TCTGTT'
p3387
I1134
sS'AAAGCG'
p3388
I890
sS'CTCCTG'
p3389
I26527
sS'AACCGT'
p3390
I577
sS'CTCCTA'
p3391
I9432
sS'CTCCTC'
p3392
I21679
sS'GGCGGT'
p3393
I937
sS'GACGCA'
p3394
I2709
sS'GACGCC'
p3395
I4439
sS'CCCACA'
p3396
I7193
sS'CCCACC'
p3397
I9423
sS'ATAGCA'
p3398
I2344
sS'AGCCTT'
p3399
I3250
sS'CCGATT'
p3400
I76
sS'CCCACT'
p3401
I3033
sS'TACTTA'
p3402
I12093
sS'GACGCT'
p3403
I1544
sS'AGCGGT'
p3404
I591
sS'CCGATA'
p3405
I200
sS'AGCCTG'
p3406
I22083
sS'AGCCTA'
p3407
I6975
sS'CCGATG'
p3408
I487
sS'GTACCC'
p3409
I648
sS'ACCTCA'
p3410
I6489
sS'TGGTTA'
p3411
I4304
sS'CGCCTT'
p3412
I1286
sS'TGGTTC'
p3413
I3410
sS'CAGAGT'
p3414
I2203
sS'GCATCT'
p3415
I788
sS'CTCCCA'
p3416
I10744
sS'GAGTTG'
p3417
I9261
sS'CGCCTC'
p3418
I8857
sS'GCGCCA'
p3419
I838
sS'CGCCTA'
p3420
I2230
sS'GAGTTC'
p3421
I5669
sS'CGCCTG'
p3422
I8683
sS'GAGTTA'
p3423
I6267
sS'CAGAGG'
p3424
I9118
sS'GCATCC'
p3425
I1510
sS'GTGCGG'
p3426
I1729
sS'CAGAGC'
p3427
I7030
sS'GCATCG'
p3428
I325
sS'CAGAGA'
p3429
I6289
sS'AATCAT'
p3430
I1181
sS'TAGCTA'
p3431
I3372
sS'CCGATC'
p3432
I214
sS'AGACTC'
p3433
I915
sS'CCTAGA'
p3434
I2125
sS'CCTAGC'
p3435
I1890
sS'TTTGCT'
p3436
I2407
sS'TAGCTC'
p3437
I3209
sS'TGCGGT'
p3438
I579
sS'CCTAGG'
p3439
I2758
sS'TAAGCA'
p3440
I3213
sS'ACGTTG'
p3441
I1060
sS'GTCTAG'
p3442
I4320
sS'TGCGGC'
p3443
I2518
sS'TTTGCC'
p3444
I3291
sS'CCTAGT'
p3445
I972
sS'TGCGGG'
p3446
I2951
sS'TTTGCG'
p3447
I838
sS'TGAGTT'
p3448
I443
sS'TAGCTG'
p3449
I6929
sS'ATCGCT'
p3450
I398
sS'ATCGCC'
p3451
I964
sS'TGAGTG'
p3452
I2662
sS'ATCGCA'
p3453
I662
sS'TGAGTA'
p3454
I1597
sS'ATCGCG'
p3455
I491
sS'TGAGTC'
p3456
I1459
sS'AAAATT'
p3457
I501
sS'AAGGTG'
p3458
I6893
sS'AAGGTC'
p3459
I2602
sS'CATCAT'
p3460
I1068
sS'AAGGTA'
p3461
I4048
sS'ACGGCA'
p3462
I530
sS'CATCAC'
p3463
I3973
sS'ACGGCC'
p3464
I747
sS'CATCAA'
p3465
I3010
sS'CATCAG'
p3466
I4633
sS'ACGGCG'
p3467
I344
sS'TCACCT'
p3468
I832
sS'TCTAAG'
p3469
I2042
sS'TCGTTT'
p3470
I180
sS'CGGAAT'
p3471
I156
sS'CAATTC'
p3472
I1168
sS'ATCGAT'
p3473
I52
sS'TCACCG'
p3474
I319
sS'TCACCA'
p3475
I1233
sS'TCACCC'
p3476
I870
sS'CGGAAG'
p3477
I1767
sS'CAACCC'
p3478
I982
sS'AACTGG'
p3479
I11078
sS'CGGCCT'
p3480
I703
sS'CGGAAC'
p3481
I723
sS'CGGAAA'
p3482
I579
sS'TAGCTT'
p3483
I971
sS'TGTGTC'
p3484
I4292
sS'TGTGTA'
p3485
I6982
sS'TGTGTG'
p3486
I18203
sS'ATGGCA'
p3487
I3052
sS'TTACTT'
p3488
I527
sS'TCGTCC'
p3489
I758
sS'ATGGCT'
p3490
I1254
sS'GCCCAT'
p3491
I733
sS'TGTGTT'
p3492
I1519
sS'CCAAGT'
p3493
I978
sS'AGATTA'
p3494
I1981
sS'AGATTC'
p3495
I1204
sS'GAAACA'
p3496
I4723
sS'GAAACC'
p3497
I3687
sS'ATGCAT'
p3498
I463
sS'AGATAC'
p3499
I599
sS'CTGAGT'
p3500
I2241
sS'AGGTAC'
p3501
I1134
sS'GAAACT'
p3502
I1722
sS'AGAATG'
p3503
I4365
sS'AGAATA'
p3504
I2239
sS'AGAATC'
p3505
I1204
sS'CTGAGC'
p3506
I4448
sS'CTGAGA'
p3507
I4437
sS'CTGAGG'
p3508
I6450
sS'CATACC'
p3509
I2709
sS'CATACA'
p3510
I3837
sS'CATACG'
p3511
I698
sS'GCAATC'
p3512
I631
sS'TGCCTA'
p3513
I7441
sS'GTCCAT'
p3514
I834
sS'AGGGGT'
p3515
I786
sS'TCGGTT'
p3516
I101
sS'CAGGAC'
p3517
I2859
sS'CATACT'
p3518
I1422
sS'AATGGC'
p3519
I3208
sS'GTCCAG'
p3520
I5101
sS'TCAAAG'
p3521
I1108
sS'GTCCAC'
p3522
I3069
sS'TCAAAC'
p3523
I881
sS'CGGCGG'
p3524
I2336
sS'TTGATG'
p3525
I3674
sS'ATCGAG'
p3526
I466
sS'CGGCGC'
p3527
I1802
sS'TTGATC'
p3528
I1101
sS'CGGCGA'
p3529
I681
sS'TTGATA'
p3530
I1999
sS'TTGATT'
p3531
I715
sS'CGTACC'
p3532
I556
sS'ATGGCC'
p3533
I2227
sS'GTACGC'
p3534
I227
sS'ATCGAC'
p3535
I318
sS'CCATTA'
p3536
I1640
sS'TGACTT'
p3537
I318
sS'TCGTCT'
p3538
I266
sS'CGGTTA'
p3539
I758
sS'GGTTTA'
p3540
I5715
sS'CGGTTC'
p3541
I1094
sS'GGTTTC'
p3542
I6253
sS'TTTACA'
p3543
I5251
sS'CGGTTG'
p3544
I1444
sS'GGTTTG'
p3545
I9412
sS'TATAAA'
p3546
I5149
sS'TTCAGT'
p3547
I5271
sS'GCTGTG'
p3548
I9980
sS'ACCTAA'
p3549
I2772
sS'GCTGTC'
p3550
I3220
sS'CGGTTT'
p3551
I283
sS'GCTGTA'
p3552
I3790
sS'TATGCG'
p3553
I637
sS'TCTCAA'
p3554
I2406
sS'AGGTTG'
p3555
I6111
sS'AGGTTC'
p3556
I3154
sS'AGGTTA'
p3557
I4256
sS'GAGGGA'
p3558
I9356
sS'TTTTTC'
p3559
I8239
sS'TCCATC'
p3560
I5263
sS'TTTTTA'
p3561
I13734
sS'TCCTCT'
p3562
I7012
sS'TTTTTG'
p3563
I12105
sS'GAGGGG'
p3564
I9783
sS'TTAAAT'
p3565
I1027
sS'AGGTTT'
p3566
I1284
sS'TAAGCG'
p3567
I496
sS'AGGGGG'
p3568
I2678
sS'TTAAAC'
p3569
I1540
sS'ATACGT'
p3570
I134
sS'TTAAAA'
p3571
I3552
sS'ACTCCG'
p3572
I758
sS'TTAAAG'
p3573
I2066
sS'ACTCCA'
p3574
I2210
sS'TTTTTT'
p3575
I3606
sS'ACTCCC'
p3576
I1894
sS'CTGTAA'
p3577
I2425
sS'GTCACG'
p3578
I2875
sS'CTGTAC'
p3579
I1768
sS'GCAACT'
p3580
I764
sS'GTCACC'
p3581
I8551
sS'CTGTAG'
p3582
I2247
sS'GTCACA'
p3583
I8588
sS'GCAACG'
p3584
I454
sS'GTCACT'
p3585
I4688
sS'TAGGCG'
p3586
I1038
sS'GCAACC'
p3587
I1289
sS'TAGGCA'
p3588
I3485
sS'GCAACA'
p3589
I1775
sS'TAGGCC'
p3590
I2579
sS'ATTCAT'
p3591
I754
sS'GTAAAA'
p3592
I1551
sS'GCGATT'
p3593
I97
sS'TCGTGT'
p3594
I301
sS'TTCACT'
p3595
I4917
sS'GTCTCT'
p3596
I6496
sS'AACATT'
p3597
I2652
sS'ATTCAG'
p3598
I2346
sS'ATTCAA'
p3599
I2179
sS'ATTCAC'
p3600
I1694
sS'GTCTCC'
p3601
I12895
sS'GTCTCA'
p3602
I11072
sS'GCGATG'
p3603
I808
sS'TTCACC'
p3604
I7299
sS'GCGATA'
p3605
I255
sS'TTCACA'
p3606
I9187
sS'GCGATC'
p3607
I288
sS'CGATTG'
p3608
I537
sS'GAAGGA'
p3609
I6401
sS'GAAGGG'
p3610
I5924
sS'CGATTA'
p3611
I208
sS'GGAACC'
p3612
I1678
sS'AGACTT'
p3613
I320
sS'GGAACA'
p3614
I1857
sS'GGAACG'
p3615
I538
sS'ATAGTA'
p3616
I1331
sS'TCATAC'
p3617
I499
sS'GAAGGT'
p3618
I1546
sS'CTCGCT'
p3619
I1509
sS'CAATCG'
p3620
I378
sS'CAATCA'
p3621
I1861
sS'CAATCC'
p3622
I1403
sS'TCCTGA'
p3623
I9862
sS'AGTCCA'
p3624
I2552
sS'TCCTGC'
p3625
I16448
sS'AGTCCC'
p3626
I3410
sS'ACTAAA'
p3627
I1582
sS'TCCTGG'
p3628
I18386
sS'AGTCCG'
p3629
I956
sS'TAACGC'
p3630
I275
sS'CAGCTG'
p3631
I13136
sS'CAGCTA'
p3632
I4799
sS'CAGCTC'
p3633
I6652
sS'ACTAAT'
p3634
I400
sS'CGACTC'
p3635
I254
sS'AGTCCT'
p3636
I1327
sS'TCCTGT'
p3637
I6656
sS'TAATGT'
p3638
I1213
sS'CAGCTT'
p3639
I1372
sS'CGCAAA'
p3640
I1043
sS'TAACGT'
p3641
I147
sS'TTGACC'
p3642
I1938
sS'GTACTT'
p3643
I348
sS'CGACAT'
p3644
I37
sS'TTGTTC'
p3645
I4872
sS'CCGAGG'
p3646
I1478
sS'CCGAGA'
p3647
I602
sS'AGGAAG'
p3648
I7240
sS'CCGAGC'
p3649
I888
sS'CCGCGT'
p3650
I145
sS'GTACTG'
p3651
I2033
sS'CGACAA'
p3652
I111
sS'CATCCG'
p3653
I1067
sS'GTACTC'
p3654
I763
sS'GTACTA'
p3655
I965
sS'CCGCGC'
p3656
I961
sS'TTGACG'
p3657
I542
sS'CCGCGA'
p3658
I339
sS'CCGCGG'
p3659
I1031
sS'TTGTTT'
p3660
I3142
sS'GCATAT'
p3661
I301
sS'AACATG'
p3662
I11411
sS'AGCCAA'
p3663
I6095
sS'AATAAC'
p3664
I3590
sS'AATAAA'
p3665
I7865
sS'AATAAG'
p3666
I4549
sS'CTGCGC'
p3667
I2213
sS'AAGGCT'
p3668
I2099
sS'GGATTG'
p3669
I1615
sS'AATAAT'
p3670
I1559
sS'CCAACC'
p3671
I1772
sS'CTCAGT'
p3672
I5294
sS'CCAACG'
p3673
I403
sS'CGCCGC'
p3674
I9359
sS'AGTAAA'
p3675
I4002
sS'CGCCGA'
p3676
I1857
sS'GAGTAG'
p3677
I2921
sS'CGCCGG'
p3678
I5271
sS'GAGTAA'
p3679
I3198
sS'GAGTAC'
p3680
I1900
sS'CTCAGG'
p3681
I15481
sS'CTCAGC'
p3682
I14522
sS'CTCAGA'
p3683
I10522
sS'GAGTAT'
p3684
I784
sS'GCTTCA'
p3685
I4354
sS'GTGTAG'
p3686
I1801
sS'TCGAGC'
p3687
I367
sS'GTGTAA'
p3688
I2123
sS'GTGTAC'
p3689
I1927
sS'CGCCGT'
p3690
I850
sS'GTGGCA'
p3691
I5519
sS'GTGGCC'
p3692
I5423
sS'CTCGGA'
p3693
I1704
sS'CTCGGC'
p3694
I3614
sS'GCCGCC'
p3695
I7816
sS'GCCGCA'
p3696
I2887
sS'GCCGCG'
p3697
I3824
sS'ACACTT'
p3698
I318
sS'CATATG'
p3699
I4888
sS'TCGCTC'
p3700
I839
sS'CATATC'
p3701
I1890
sS'GTAATG'
p3702
I2755
sS'GTCAGC'
p3703
I8469
sS'TACTAC'
p3704
I3717
sS'ACACTC'
p3705
I763
sS'ACACTA'
p3706
I821
sS'ACACTG'
p3707
I2275
sS'GCCGCT'
p3708
I1519
sS'ACCGGA'
p3709
I922
sS'AAATAA'
p3710
I2184
sS'ACCGGC'
p3711
I1306
sS'AAATAC'
p3712
I1489
sS'CTTTAA'
p3713
I5076
sS'ACCGGG'
p3714
I1582
sS'AAATAG'
p3715
I1251
sS'CACGAG'
p3716
I1443
sS'CAGGTA'
p3717
I4074
sS'AACTTC'
p3718
I11450
sS'CAGGTC'
p3719
I2714
sS'CACGAC'
p3720
I1070
sS'AACTTG'
p3721
I15650
sS'CAGGTG'
p3722
I8813
sS'CTTTAT'
p3723
I1697
sS'AATCCC'
p3724
I3139
sS'GCTCGT'
p3725
I329
sS'AATCCA'
p3726
I2970
sS'AAATAT'
p3727
I948
sS'AATCCG'
p3728
I833
sS'GATACA'
p3729
I3570
sS'CAGTCA'
p3730
I5351
sS'CAGGTT'
p3731
I950
sS'AACTTT'
p3732
I3885
sS'GGGATA'
p3733
I1626
sS'GGGATC'
p3734
I1319
sS'GGGTGT'
p3735
I1671
sS'GGGATG'
p3736
I4336
sS'GATGCT'
p3737
I2098
sS'CGCAGT'
p3738
I1522
sS'TCTGTA'
p3739
I4565
sS'ATTGGG'
p3740
I1604
sS'GAGCCT'
p3741
I2881
sS'GGAGAC'
p3742
I985
sS'AACCGG'
p3743
I2307
sS'GGAGAA'
p3744
I2141
sS'GGGTGC'
p3745
I2455
sS'GGGATT'
p3746
I634
sS'GGGTGG'
p3747
I5243
sS'GAGCCA'
p3748
I7197
sS'CGCAGG'
p3749
I5898
sS'GATGCG'
p3750
I1380
sS'CGCAGA'
p3751
I2823
sS'GATGCA'
p3752
I4540
sS'GAGCCG'
p3753
I3667
sS'GATGCC'
p3754
I4319
sS'ACGAAC'
p3755
I177
sS'GGTAGT'
p3756
I843
sS'ACCCCT'
p3757
I989
sS'GCCAAT'
p3758
I1776
sS'AACCGC'
p3759
I2145
sS'AGAAGT'
p3760
I1410
sS'ACCCCA'
p3761
I2670
sS'GGTAGA'
p3762
I2301
sS'GCCAAA'
p3763
I3553
sS'CGGATG'
p3764
I1159
sS'GCCAAG'
p3765
I6180
sS'CGGATA'
p3766
I372
sS'ACCCCG'
p3767
I1463
sS'GGTAGG'
p3768
I3077
sS'AGAAGA'
p3769
I3146
sS'AGAAGC'
p3770
I3104
sS'GCAAGA'
p3771
I1807
sS'AGAAGG'
p3772
I4605
sS'CACTCC'
p3773
I12619
sS'CACTCA'
p3774
I11834
sS'CACTCG'
p3775
I3189
sS'TGCGTT'
p3776
I470
sS'TCAGCT'
p3777
I1356
sS'AGCTTT'
p3778
I5302
sS'CCCCGG'
p3779
I4020
sS'TGCGTA'
p3780
I1230
sS'TGCGTG'
p3781
I3957
sS'CACTCT'
p3782
I5508
sS'AGCTTC'
p3783
I15084
sS'AGCTTA'
p3784
I9997
sS'AGCTTG'
p3785
I16662
sS'ATACGA'
p3786
I196
sS'AGACCA'
p3787
I862
sS'TTAGCT'
p3788
I1515
sS'TTAGCC'
p3789
I1679
sS'TTAGCA'
p3790
I2787
sS'CTAGCA'
p3791
I2711
sS'TTAGCG'
p3792
I461
sS'CTTCAT'
p3793
I1125
sS'AACTTA'
p3794
I9970
sS'TCATAT'
p3795
I425
sS'AAGGGG'
p3796
I4902
sS'ATAAGG'
p3797
I1773
sS'TGTGCT'
p3798
I1568
sS'AAGGGC'
p3799
I4399
sS'ATAAGC'
p3800
I1218
sS'AAGGGA'
p3801
I5313
sS'ATAAGA'
p3802
I1882
sS'CCAGAC'
p3803
I959
sS'CCAGAA'
p3804
I2411
sS'CCAGAG'
p3805
I2091
sS'TGTGCG'
p3806
I1396
sS'ATAAGT'
p3807
I801
sS'ATAGGG'
p3808
I1325
sS'TGTGCC'
p3809
I3307
sS'ATAGGA'
p3810
I2040
sS'TGTGCA'
p3811
I4117
sS'ATAGGC'
p3812
I1004
sS'TAAGTT'
p3813
I481
sS'AGACCG'
p3814
I270
sS'CCAGAT'
p3815
I568
sS'AGACAA'
p3816
I890
sS'AACAAG'
p3817
I8579
sS'CGTGGT'
p3818
I619
sS'AGACAG'
p3819
I1277
sS'TTTTCT'
p3820
I4178
sS'CGCTGT'
p3821
I2036
sS'CCCACG'
p3822
I2852
sS'TCAAGA'
p3823
I1411
sS'CGTGGG'
p3824
I2139
sS'CGTGGC'
p3825
I1817
sS'CGTGGA'
p3826
I1109
sS'TTTTCG'
p3827
I1054
sS'CGCTGA'
p3828
I3315
sS'CGCTGC'
p3829
I8103
sS'TTTTCC'
p3830
I7436
sS'TTTTCA'
p3831
I6631
sS'CGCTGG'
p3832
I6401
sS'TATGGA'
p3833
I2195
sS'TATGGC'
p3834
I2014
sS'CGTAGG'
p3835
I991
sS'GACGCG'
p3836
I2795
sS'TATGGG'
p3837
I2549
sS'CGTAGC'
p3838
I834
sS'TACCGT'
p3839
I477
sS'TGGACT'
p3840
I1211
sS'CGTAGT'
p3841
I414
sS'TATGGT'
p3842
I914
sS'ATTCCT'
p3843
I1239
sS'TGGACA'
p3844
I2737
sS'TGGACC'
p3845
I1801
sS'TGGACG'
p3846
I823
sS'CCGGTT'
p3847
I141
sS'CTAGCT'
p3848
I1627
sS'GCTTGA'
p3849
I3234
sS'TGAGAC'
p3850
I923
sS'GCTTGC'
p3851
I3816
sS'TGAGAA'
p3852
I1996
sS'TGAGAG'
p3853
I1457
sS'GCTTGG'
p3854
I4820
sS'CCTGTT'
p3855
I1044
sS'CCGGTG'
p3856
I1114
sS'CCGGTC'
p3857
I444
sS'ACTTAT'
p3858
I610
sS'CCTGTC'
p3859
I3203
sS'CCTGTA'
p3860
I3911
sS'CCTGTG'
p3861
I8843
sS'GCTTGT'
p3862
I1907
sS'TGAGAT'
p3863
I499
sS'TCCGAA'
p3864
I534
sS'ATCGTA'
p3865
I649
sS'GGTTGT'
p3866
I1646
sS'CCCAAC'
p3867
I3389
sS'AGGGAT'
p3868
I557
sS'TAAACT'
p3869
I1521
sS'TATCAG'
p3870
I3161
sS'ACAATA'
p3871
I1726
sS'GGTTGG'
p3872
I4494
sS'AACAAT'
p3873
I2395
sS'GGTTGA'
p3874
I2981
sS'GGTTGC'
p3875
I3815
sS'ACTATT'
p3876
I448
sS'TCCCGC'
p3877
I4784
sS'TCCCGA'
p3878
I1541
sS'TCCCGG'
p3879
I4585
sS'TGCTAT'
p3880
I2017
sS'CGTTTT'
p3881
I591
sS'ATTCTC'
p3882
I2837
sS'AGGGAA'
p3883
I2449
sS'ATTCTA'
p3884
I3389
sS'ATTCTG'
p3885
I5883
sS'TCATTT'
p3886
I760
sS'CAGCGA'
p3887
I1309
sS'TGCTAA'
p3888
I6437
sS'TATACT'
p3889
I1719
sS'TGCTAG'
p3890
I5263
sS'CAGCGG'
p3891
I2533
sS'AGGATC'
p3892
I1868
sS'TCATTC'
p3893
I2070
sS'CGTTTG'
p3894
I3135
sS'TCATTG'
p3895
I3513
sS'ATTCTT'
p3896
I883
sS'CGTTTC'
p3897
I2516
sS'TGGCAA'
p3898
I1466
sS'TGGCAC'
p3899
I1662
sS'TGGCAG'
p3900
I2855
sS'GGCCGT'
p3901
I880
sS'ACAATC'
p3902
I618
sS'GCTGAC'
p3903
I2231
sS'TGGCAT'
p3904
I597
sS'GGCCGG'
p3905
I6648
sS'AGCCTC'
p3906
I14033
sS'GGCCGC'
p3907
I6829
sS'CAGCCG'
p3908
I1935
sS'GGCCGA'
p3909
I2411
sS'GGCAAT'
p3910
I1032
sS'CTGATT'
p3911
I1090
sS'CCATCG'
p3912
I356
sS'CTAAAT'
p3913
I741
sS'CCATCC'
p3914
I1935
sS'CCATCA'
p3915
I1346
sS'GGCAAG'
p3916
I6023
sS'CTGATA'
p3917
I2501
sS'GTACCA'
p3918
I1063
sS'GGCAAC'
p3919
I3814
sS'GGCAAA'
p3920
I4748
sS'CTAAAG'
p3921
I1628
sS'CCATCT'
p3922
I1104
sS'CTAAAC'
p3923
I1117
sS'TTGCGT'
p3924
I264
sS'GACACC'
p3925
I8506
sS'GACACA'
p3926
I11676
sS'GACACG'
p3927
I3425
sS'CCAAGA'
p3928
I1715
sS'AGGCAT'
p3929
I785
sS'CGTATA'
p3930
I466
sS'TACGAG'
p3931
I753
sS'TACGAC'
p3932
I532
sS'GACACT'
p3933
I5023
sS'CCGTGA'
p3934
I560
sS'CTATTG'
p3935
I3848
sS'CTATTA'
p3936
I3371
sS'ACGCTC'
p3937
I543
sS'TCGATG'
p3938
I410
sS'TCGATA'
p3939
I144
sS'TCGATC'
p3940
I131
sS'CTATTT'
p3941
I1196
sS'TCTGGG'
p3942
I4539
sS'GCATTG'
p3943
I2681
sS'CAGCCT'
p3944
I2755
sS'TCGATT'
p3945
I55
sS'CTACCG'
p3946
I429
sS'ACGGAA'
p3947
I286
sS'GCGCCC'
p3948
I1606
sS'AACCAA'
p3949
I4952
sS'TGCCGG'
p3950
I3527
sS'AACCAC'
p3951
I5259
sS'TGCCGC'
p3952
I4135
sS'AACCAG'
p3953
I6556
sS'TGCCGA'
p3954
I1324
sS'AGCAGG'
p3955
I17203
sS'CGCGAG'
p3956
I1960
sS'ATGATC'
p3957
I930
sS'GCGCCG'
p3958
I823
sS'TGCCGT'
p3959
I810
sS'AACCAT'
p3960
I1043
sS'AACAGA'
p3961
I10815
sS'GGGAGT'
p3962
I1473
sS'AACAGC'
p3963
I10322
sS'ATCAAC'
p3964
I2677
sS'ACGTCC'
p3965
I793
sS'AACAGG'
p3966
I12558
sS'ACGTCA'
p3967
I795
sS'CCCAAG'
p3968
I4756
sS'TTGGAG'
p3969
I1873
sS'GACGAA'
p3970
I1143
sS'GACGAG'
p3971
I2384
sS'CCCAAA'
p3972
I3060
sS'CAATAT'
p3973
I328
sS'GGGAGG'
p3974
I10692
sS'GGGAGA'
p3975
I4319
sS'AACAGT'
p3976
I4354
sS'GGGAGC'
p3977
I4477
sS'ACGAAG'
p3978
I331
sS'CCCAAT'
p3979
I796
sS'GACGAT'
p3980
I290
sS'GGGCGC'
p3981
I2201
sS'GGGCGA'
p3982
I1031
sS'GCATCA'
p3983
I1258
sS'GGGCGG'
p3984
I4902
sS'TCTCTT'
p3985
I1399
sS'GTACAG'
p3986
I806
sS'CAGAAT'
p3987
I871
sS'GTACAC'
p3988
I723
sS'TCTCTC'
p3989
I6081
sS'TCTCTA'
p3990
I5124
sS'TCTCTG'
p3991
I11493
sS'GGGCGT'
p3992
I511
sS'CAGAAA'
p3993
I3446
sS'CAGAAC'
p3994
I2911
sS'ACGACG'
p3995
I169
sS'CAGAAG'
p3996
I4710
sS'CACTTT'
p3997
I5033
sS'CATATT'
p3998
I1190
sS'CCTAAT'
p3999
I431
sS'CACTTG'
p4000
I17367
sS'CCTAAC'
p4001
I1229
sS'CTACCC'
p4002
I1336
sS'CCTAAA'
p4003
I1379
sS'CACTTC'
p4004
I15744
sS'CCTAAG'
p4005
I1672
sS'CACTTA'
p4006
I12641
sS'GCGGAT'
p4007
I68
sS'GTCCCC'
p4008
I6311
sS'AAGATT'
p4009
I791
sS'CTCATG'
p4010
I11528
sS'GACTCG'
p4011
I4114
sS'CTCATC'
p4012
I6989
sS'GACTCC'
p4013
I12756
sS'CTCATA'
p4014
I6817
sS'GACTCA'
p4015
I18316
sS'AAGATA'
p4016
I4261
sS'AGTCGG'
p4017
I1578
sS'AAGATG'
p4018
I7211
sS'GACTCT'
p4019
I6660
sS'CTCATT'
p4020
I3419
sS'ATCGAA'
p4021
I312
sS'GGACTA'
p4022
I613
sS'ATATTT'
p4023
I1134
sS'ATAGAG'
p4024
I1100
sS'GGACTC'
p4025
I617
sS'ATAGTT'
p4026
I477
sS'CTACCA'
p4027
I1746
sS'TACTGT'
p4028
I5559
sS'ATATTC'
p4029
I1604
sS'ATATTA'
p4030
I3206
sS'ATATTG'
p4031
I2967
sS'TACTGC'
p4032
I8567
sS'TACTGA'
p4033
I8566
sS'TACTGG'
p4034
I8393
sS'ATAGTG'
p4035
I1676
sS'ATAGAC'
p4036
I650
sS'CAGGCA'
p4037
I7423
sS'CAGGCC'
p4038
I6820
sS'CGTCGA'
p4039
I351
sS'AGGAAA'
p4040
I3973
sS'CATCCA'
p4041
I3436
sS'AGGAAC'
p4042
I2911
sS'CATCCC'
p4043
I3770
sS'TTATGA'
p4044
I1702
sS'TTATGC'
p4045
I1463
sS'CGGAGT'
p4046
I572
sS'TTATGG'
p4047
I1641
sS'CATCCT'
p4048
I1797
sS'AGGAAT'
p4049
I1156
sS'CAGGCT'
p4050
I2820
sS'ACGGAT'
p4051
I48
sS'CGGAGA'
p4052
I1306
sS'CTGAAA'
p4053
I2261
sS'CGGAGC'
p4054
I2366
sS'TTATGT'
p4055
I1613
sS'CGGAGG'
p4056
I2948
sS'ATGGAA'
p4057
I1665
sS'ATGGAC'
p4058
I783
sS'ATGGAG'
p4059
I1521
sS'CGCTTG'
p4060
I4652
sS'CGCTTA'
p4061
I2205
sS'CGCTTC'
p4062
I5624
sS'ATGGAT'
p4063
I320
sS'TTTGCA'
p4064
I4838
sS'CGCTTT'
p4065
I1548
sS'CAAGCC'
p4066
I2903
sS'TGCGGA'
p4067
I1335
sS'GAAAAG'
p4068
I4021
sS'GAAAAC'
p4069
I2816
sS'ATAGAT'
p4070
I550
sS'GAAAAA'
p4071
I2796
sS'GTTCCT'
p4072
I1745
sS'TAAGTA'
p4073
I2601
sS'CCGTAT'
p4074
I66
sS'ACGGTT'
p4075
I70
sS'GAAAAT'
p4076
I728
sS'CAACAG'
p4077
I1034
sS'CGGCAT'
p4078
I131
sS'ACAAGG'
p4079
I1968
sS'ACAAGA'
p4080
I1683
sS'AAAAAA'
p4081
I3943
sS'ACAAGC'
p4082
I1389
sS'ACACGT'
p4083
I230
sS'CTGCGT'
p4084
I615
sS'GCGGAG'
p4085
I1129
sS'CATAAG'
p4086
I2819
sS'GTCCCT'
p4087
I3100
sS'CATAAA'
p4088
I3842
sS'GCGGAC'
p4089
I387
sS'CATAAC'
p4090
I2326
sS'ACACGC'
p4091
I405
sS'ACAAGT'
p4092
I887
sS'ACACGA'
p4093
I232
sS'ACACGG'
p4094
I415
sS'CATAAT'
p4095
I913
sS'GTCCCA'
p4096
I5399
sS'GCACAT'
p4097
I309
sS'CTGCGG'
p4098
I2587
sS'CTGCGA'
p4099
I1072
sS'GTCCCG'
p4100
I3145
sS'CGGCAA'
p4101
I338
sS'CGGCAC'
p4102
I579
sS'CGGCAG'
p4103
I1156
sS'CCTCCT'
p4104
I2810
sS'AGCGCT'
p4105
I1345
sS'CAGGCG'
p4106
I2857
sS'CCTCCC'
p4107
I5828
sS'CCTCCA'
p4108
I3581
sS'CCTCCG'
p4109
I1581
sS'CGTGAT'
p4110
I207
s.