(dp0
S'AAAAAC'
p1
I363
sS'GAACGT'
p2
I44
sS'CTTCTT'
p3
I221
sS'CACCCT'
p4
I536
sS'ATTGAA'
p5
I180
sS'GAACGG'
p6
I171
sS'GAACGC'
p7
I163
sS'GAACGA'
p8
I106
sS'CAACAT'
p9
I31
sS'CACCCA'
p10
I1364
sS'CTTCTA'
p11
I1158
sS'CACCCC'
p12
I1340
sS'CTTCTC'
p13
I1088
sS'CACCCG'
p14
I464
sS'CTTCTG'
p15
I2385
sS'CGTGTG'
p16
I685
sS'TAAGGT'
p17
I82
sS'CGTGTC'
p18
I129
sS'TGAGTG'
p19
I350
sS'CGTGTA'
p20
I271
sS'AGGCAA'
p21
I365
sS'GGAAAT'
p22
I84
sS'TAAGGG'
p23
I335
sS'CGTGTT'
p24
I65
sS'TAAGGC'
p25
I264
sS'TAAGGA'
p26
I307
sS'GTCAAA'
p27
I996
sS'GTCAAC'
p28
I817
sS'GTCAAG'
p29
I1152
sS'CTGTCC'
p30
I1721
sS'TCAGAG'
p31
I95
sS'CTGTCA'
p32
I1369
sS'CTGTCG'
p33
I305
sS'GTATCT'
p34
I202
sS'TCAGAA'
p35
I69
sS'GTCAAT'
p36
I223
sS'GTATCA'
p37
I390
sS'GTATCC'
p38
I378
sS'GTATCG'
p39
I60
sS'CTGTCT'
p40
I833
sS'GGTGTC'
p41
I274
sS'GGTGTA'
p42
I412
sS'GGTGTG'
p43
I1024
sS'TATCCT'
p44
I233
sS'CCGGGG'
p45
I254
sS'TTCTGT'
p46
I1898
sS'AGAGGT'
p47
I85
sS'CCGGGC'
p48
I195
sS'CCGGGA'
p49
I143
sS'TATCCA'
p50
I614
sS'TATCCC'
p51
I510
sS'TATCCG'
p52
I125
sS'GGTGTT'
p53
I82
sS'ATTCCG'
p54
I68
sS'TTCTGG'
p55
I3774
sS'CCGGGT'
p56
I33
sS'ATTCCC'
p57
I263
sS'TTCTGC'
p58
I3986
sS'ATTCCA'
p59
I316
sS'TTCTGA'
p60
I3309
sS'TGCACT'
p61
I787
sS'TGACAA'
p62
I50
sS'TATCTT'
p63
I306
sS'CGTAAA'
p64
I132
sS'AGGGAG'
p65
I616
sS'CGCGGG'
p66
I917
sS'CGCGGC'
p67
I804
sS'CGCGGA'
p68
I301
sS'ACCTGT'
p69
I390
sS'TCATGT'
p70
I120
sS'AGGGAC'
p71
I347
sS'TTACAG'
p72
I150
sS'CTCCGC'
p73
I1990
sS'TTACAA'
p74
I100
sS'CCGGCA'
p75
I134
sS'TTACAC'
p76
I78
sS'CTCCGG'
p77
I1423
sS'TCATGC'
p78
I228
sS'ACCTGG'
p79
I1493
sS'TCATGA'
p80
I164
sS'GTAAGC'
p81
I271
sS'TCATGG'
p82
I232
sS'ACCTGC'
p83
I1406
sS'ACCTGA'
p84
I1042
sS'TCACTC'
p85
I121
sS'TTACAT'
p86
I36
sS'CTCGAT'
p87
I40
sS'CTCCGT'
p88
I290
sS'GCCTGA'
p89
I2038
sS'GCCTGC'
p90
I3306
sS'GCCTGG'
p91
I4391
sS'TAAAGG'
p92
I899
sS'CAAATT'
p93
I61
sS'TAAAGA'
p94
I729
sS'TAAAGC'
p95
I593
sS'GCCTGT'
p96
I934
sS'TCCCCG'
p97
I505
sS'TAAAGT'
p98
I273
sS'CAAATA'
p99
I700
sS'CAAATC'
p100
I155
sS'CGTGCT'
p101
I68
sS'CAAATG'
p102
I605
sS'AATACT'
p103
I440
sS'TATCTC'
p104
I903
sS'GGCATG'
p105
I1544
sS'GGCATA'
p106
I714
sS'GGCATC'
p107
I479
sS'AATACG'
p108
I194
sS'AATACA'
p109
I1156
sS'AATACC'
p110
I658
sS'GGCATT'
p111
I207
sS'CGTCAG'
p112
I268
sS'CTTGGT'
p113
I141
sS'GAGCAC'
p114
I807
sS'GAGCAA'
p115
I739
sS'CATATC'
p116
I361
sS'GAGCAG'
p117
I1479
sS'AGTAGT'
p118
I288
sS'TCTCGC'
p119
I290
sS'TCTCGA'
p120
I134
sS'TCTCGG'
p121
I299
sS'ACTGAG'
p122
I355
sS'CCTACT'
p123
I174
sS'AGTAGA'
p124
I640
sS'AGTAGG'
p125
I822
sS'GAGCAT'
p126
I144
sS'TTGAAC'
p127
I315
sS'TCTCGT'
p128
I55
sS'GTGTCG'
p129
I283
sS'TCGAAC'
p130
I26
sS'TCGAAA'
p131
I21
sS'GTGTCC'
p132
I1441
sS'TCGAAG'
p133
I49
sS'GTGTCA'
p134
I1228
sS'CTTGCT'
p135
I266
sS'AGACAC'
p136
I78
sS'CCGTCT'
p137
I89
sS'GTGTCT'
p138
I692
sS'TTGAAG'
p139
I449
sS'TCGAAT'
p140
I13
sS'CTTGCG'
p141
I161
sS'CTTGCA'
p142
I514
sS'CTTGCC'
p143
I617
sS'CGAAAG'
p144
I69
sS'CGAAAA'
p145
I23
sS'CGAAAC'
p146
I42
sS'AAGGTT'
p147
I130
sS'CACGGA'
p148
I382
sS'AAATGC'
p149
I445
sS'CACGGC'
p150
I614
sS'AAATGA'
p151
I484
sS'AAATGG'
p152
I407
sS'CACGGG'
p153
I601
sS'ACAGTA'
p154
I206
sS'CGAAAT'
p155
I14
sS'ACAGTT'
p156
I31
sS'AATCAG'
p157
I1165
sS'AATCAA'
p158
I850
sS'AAATGT'
p159
I203
sS'AATCAC'
p160
I948
sS'GGGTCT'
p161
I186
sS'TCTAGT'
p162
I194
sS'TTGCCG'
p163
I245
sS'TTGCCA'
p164
I950
sS'TTGCCC'
p165
I1101
sS'GGGTAC'
p166
I131
sS'TCTAGG'
p167
I558
sS'ATACGC'
p168
I37
sS'TCTAGA'
p169
I394
sS'GGGTAG'
p170
I197
sS'TCTAGC'
p171
I393
sS'ATACGG'
p172
I27
sS'AATTGG'
p173
I982
sS'GCGGCG'
p174
I176
sS'TCGCCC'
p175
I108
sS'TCGCCA'
p176
I65
sS'TCGCCG'
p177
I38
sS'GGTAAT'
p178
I97
sS'ACCCAT'
p179
I62
sS'ACCCAC'
p180
I406
sS'GGTAAC'
p181
I335
sS'ACCCAA'
p182
I363
sS'GGTAAA'
p183
I448
sS'ACCCAG'
p184
I657
sS'GGTAAG'
p185
I450
sS'TCGCCT'
p186
I51
sS'AGATGC'
p187
I220
sS'CCCCAT'
p188
I106
sS'TTGGGT'
p189
I111
sS'CACTAG'
p190
I1213
sS'CACTAA'
p191
I1427
sS'CACTAC'
p192
I1117
sS'CCCCAA'
p193
I400
sS'CCCCAC'
p194
I669
sS'CCCCAG'
p195
I718
sS'CACTAT'
p196
I355
sS'TTGGGG'
p197
I509
sS'CGCTAG'
p198
I449
sS'TTGGGA'
p199
I339
sS'TTGGGC'
p200
I320
sS'TGCCTG'
p201
I4130
sS'TGCAGA'
p202
I2022
sS'TTTCTG'
p203
I2319
sS'TGCAGC'
p204
I2536
sS'TTTCTA'
p205
I1506
sS'TTTCTC'
p206
I1079
sS'TGCAGG'
p207
I2827
sS'ACGCCT'
p208
I40
sS'TCAGAC'
p209
I66
sS'CCCACA'
p210
I1432
sS'TTTCTT'
p211
I301
sS'TGCCTT'
p212
I512
sS'TGCAGT'
p213
I1114
sS'ACGATG'
p214
I105
sS'ACAATT'
p215
I50
sS'AAGGAA'
p216
I839
sS'AAGGAC'
p217
I533
sS'AAGGAG'
p218
I1000
sS'ATATGC'
p219
I228
sS'ATATGA'
p220
I251
sS'TACGAA'
p221
I180
sS'ATATGG'
p222
I240
sS'ACGATC'
p223
I21
sS'GATGGA'
p224
I1021
sS'AAGGAT'
p225
I107
sS'ACATTT'
p226
I58
sS'TGGTTT'
p227
I177
sS'ATATGT'
p228
I160
sS'GGTCCC'
p229
I430
sS'GCCCAG'
p230
I1406
sS'GGTCCA'
p231
I232
sS'GCCCAA'
p232
I473
sS'GGTCCG'
p233
I136
sS'GCCCAC'
p234
I663
sS'ATGGCG'
p235
I116
sS'AGACCC'
p236
I88
sS'CTTCGG'
p237
I388
sS'TCTTGT'
p238
I340
sS'CTTCGC'
p239
I346
sS'CTTAGT'
p240
I286
sS'AGGTCC'
p241
I696
sS'AGGTCA'
p242
I792
sS'AAAGTT'
p243
I59
sS'AGGTCG'
p244
I170
sS'GGTCCT'
p245
I109
sS'TCCGGA'
p246
I357
sS'CTTAGC'
p247
I630
sS'ATTGTG'
p248
I669
sS'CTTAGA'
p249
I678
sS'TCTTGC'
p250
I853
sS'CTTAGG'
p251
I783
sS'ATTGTC'
p252
I176
sS'TGTGTG'
p253
I3237
sS'CGCTAC'
p254
I428
sS'ATTTTG'
p255
I1770
sS'GAGGTG'
p256
I2088
sS'ATTTTA'
p257
I2313
sS'TAAATT'
p258
I124
sS'ATTTTC'
p259
I683
sS'GAGGTC'
p260
I565
sS'TAGCAG'
p261
I508
sS'GATACT'
p262
I399
sS'TAGCAC'
p263
I339
sS'TAGCAA'
p264
I355
sS'TAAATA'
p265
I1399
sS'ATTTTT'
p266
I232
sS'GCCTTG'
p267
I4695
sS'GTGGGG'
p268
I1012
sS'GCCTTA'
p269
I2514
sS'GCCTTC'
p270
I2637
sS'GATACG'
p271
I199
sS'TAGCAT'
p272
I114
sS'GATACC'
p273
I634
sS'GATACA'
p274
I1035
sS'TGAGCT'
p275
I96
sS'ACGGAC'
p276
I35
sS'GATCAT'
p277
I196
sS'AAGACA'
p278
I1244
sS'AAGACC'
p279
I785
sS'GTGGGC'
p280
I448
sS'AAGACG'
p281
I290
sS'GATCAG'
p282
I973
sS'TGAGCG'
p283
I47
sS'GATCAC'
p284
I905
sS'TGAGCC'
p285
I272
sS'AAGACT'
p286
I458
sS'CTTCCA'
p287
I658
sS'GCGGTA'
p288
I94
sS'GCGGTG'
p289
I309
sS'CGGTGT'
p290
I103
sS'TCGTTA'
p291
I123
sS'TCGTTC'
p292
I71
sS'ATGTGG'
p293
I773
sS'TCGTTG'
p294
I170
sS'GCGGTT'
p295
I24
sS'ACTTGC'
p296
I549
sS'ATGTGA'
p297
I692
sS'ACTTGA'
p298
I533
sS'CGGTGG'
p299
I368
sS'ACTTGG'
p300
I658
sS'CAGTTA'
p301
I1181
sS'CGGTGC'
p302
I285
sS'TTCCTA'
p303
I2828
sS'TAGACT'
p304
I229
sS'TTCCTC'
p305
I3121
sS'ACTGAC'
p306
I251
sS'ATGTGC'
p307
I524
sS'TGGGTT'
p308
I84
sS'TTCCTG'
p309
I6090
sS'TCCTTT'
p310
I1351
sS'CAGTTG'
p311
I1319
sS'TAGACG'
p312
I152
sS'TTCCTT'
p313
I1001
sS'TAGACC'
p314
I442
sS'TAGACA'
p315
I713
sS'TCCTTG'
p316
I5430
sS'TCCTTA'
p317
I3970
sS'TCCTTC'
p318
I3734
sS'ATCTCT'
p319
I861
sS'ACCGTT'
p320
I42
sS'TGGCGC'
p321
I255
sS'TGGCGA'
p322
I122
sS'GGCCAT'
p323
I112
sS'AATTGA'
p324
I1089
sS'ATCTCG'
p325
I419
sS'ATCTCA'
p326
I1884
sS'ATCTCC'
p327
I1703
sS'GGCCAA'
p328
I777
sS'ACGGAG'
p329
I61
sS'GGCCAC'
p330
I838
sS'ACCGTG'
p331
I522
sS'ATGCAG'
p332
I349
sS'GGCCAG'
p333
I1139
sS'ACCGTC'
p334
I140
sS'ACCGAC'
p335
I145
sS'AGAATT'
p336
I70
sS'GGCAGT'
p337
I729
sS'CCATAA'
p338
I56
sS'CAAAGG'
p339
I747
sS'CCATAC'
p340
I62
sS'CAAAGA'
p341
I602
sS'AGATTC'
p342
I138
sS'CAAAGC'
p343
I514
sS'CCATAG'
p344
I59
sS'GGCAGA'
p345
I1796
sS'GGCAGC'
p346
I2542
sS'CGTGAG'
p347
I279
sS'GGCAGG'
p348
I3472
sS'CAACGC'
p349
I76
sS'CTAACA'
p350
I411
sS'CAACGA'
p351
I44
sS'CTAACC'
p352
I341
sS'CAACGG'
p353
I50
sS'CGTGAA'
p354
I110
sS'GGGGGT'
p355
I71
sS'TACGCT'
p356
I107
sS'AGATTG'
p357
I324
sS'CGATCT'
p358
I24
sS'CTCTAG'
p359
I1756
sS'CTCTAA'
p360
I1807
sS'CTCTAC'
p361
I1597
sS'GGGGGG'
p362
I213
sS'TACGCA'
p363
I340
sS'TACGCC'
p364
I341
sS'GGGGGC'
p365
I282
sS'CGATCG'
p366
I10
sS'GGGGGA'
p367
I229
sS'TACGCG'
p368
I182
sS'CTCTAT'
p369
I458
sS'GCGCAG'
p370
I118
sS'ACCGAA'
p371
I76
sS'CAGACC'
p372
I791
sS'CAGACA'
p373
I937
sS'CAGACG'
p374
I264
sS'CGCTAA'
p375
I394
sS'TAGTTG'
p376
I1107
sS'GCTAAT'
p377
I69
sS'TAGTTC'
p378
I581
sS'TAGTTA'
p379
I1084
sS'CAGACT'
p380
I320
sS'GCTAAG'
p381
I419
sS'TAGTTT'
p382
I241
sS'GCTAAC'
p383
I258
sS'TCAGGG'
p384
I174
sS'GCTAAA'
p385
I301
sS'TGCATT'
p386
I388
sS'GCGAAA'
p387
I38
sS'AACCCT'
p388
I491
sS'AACCCC'
p389
I1005
sS'TGCATG'
p390
I2138
sS'AGAATG'
p391
I656
sS'AACCCG'
p392
I439
sS'TGCATC'
p393
I766
sS'AGATTT'
p394
I56
sS'AGTTTG'
p395
I2671
sS'AACTGG'
p396
I2403
sS'AACTGA'
p397
I2658
sS'AACTGC'
p398
I2716
sS'CCCAGA'
p399
I1556
sS'CCCAGC'
p400
I2619
sS'CCCAGG'
p401
I2882
sS'AACTGT'
p402
I1232
sS'AGTTTT'
p403
I302
sS'CTACAT'
p404
I19
sS'CGAGTC'
p405
I38
sS'CCCAGT'
p406
I613
sS'CGCATA'
p407
I221
sS'ATACTG'
p408
I279
sS'CGCATC'
p409
I193
sS'ATACTA'
p410
I164
sS'ATACTC'
p411
I81
sS'CGCATG'
p412
I542
sS'GCGCAA'
p413
I37
sS'GCGAAT'
p414
I9
sS'ATACTT'
p415
I27
sS'CGCATT'
p416
I85
sS'AGGCCC'
p417
I838
sS'GCTCCG'
p418
I232
sS'TATTGT'
p419
I818
sS'GCTCCC'
p420
I449
sS'GCTCCA'
p421
I369
sS'CCTACA'
p422
I290
sS'TGTACT'
p423
I322
sS'TTTAGT'
p424
I310
sS'TATTGG'
p425
I1265
sS'GCTCCT'
p426
I140
sS'TATTGC'
p427
I1393
sS'TATTGA'
p428
I1381
sS'TTTAGG'
p429
I827
sS'TGTACG'
p430
I134
sS'CCTACG'
p431
I90
sS'TGTACA'
p432
I729
sS'TTTAGC'
p433
I563
sS'TGTACC'
p434
I442
sS'TTTAGA'
p435
I812
sS'TTCGCG'
p436
I172
sS'TTCGCA'
p437
I290
sS'TTCGCC'
p438
I463
sS'AGTATC'
p439
I254
sS'GACTAA'
p440
I2223
sS'AGTATA'
p441
I556
sS'TTTGGG'
p442
I617
sS'AGTATG'
p443
I678
sS'TTTGGA'
p444
I504
sS'TTTGGC'
p445
I410
sS'TTCGCT'
p446
I169
sS'TTTGGT'
p447
I152
sS'GACTAT'
p448
I465
sS'AGTATT'
p449
I131
sS'TTACTC'
p450
I164
sS'TTACTA'
p451
I281
sS'TTACTG'
p452
I419
sS'ACCTTG'
p453
I2888
sS'ACCTTC'
p454
I1516
sS'ACCTTA'
p455
I1872
sS'TTACTT'
p456
I47
sS'ACGCTT'
p457
I24
sS'ACCTTT'
p458
I446
sS'ACAGGG'
p459
I146
sS'CTGGGA'
p460
I704
sS'CTGGGC'
p461
I807
sS'ACAGGC'
p462
I112
sS'ACAGGA'
p463
I138
sS'CTGGGG'
p464
I874
sS'AGGACG'
p465
I329
sS'GCAGCT'
p466
I67
sS'CAGGAA'
p467
I456
sS'TCGCTT'
p468
I31
sS'AGGACC'
p469
I660
sS'AGGACA'
p470
I861
sS'GCGCAT'
p471
I11
sS'TTATAC'
p472
I121
sS'ACAGGT'
p473
I40
sS'CTGGGT'
p474
I192
sS'TTATAG'
p475
I133
sS'CTCCGA'
p476
I591
sS'TCGCTG'
p477
I253
sS'GCAGCG'
p478
I88
sS'AGGACT'
p479
I366
sS'GCAGCA'
p480
I203
sS'GCAGCC'
p481
I306
sS'CAGGAT'
p482
I74
sS'CCTCAG'
p483
I499
sS'CCTCAA'
p484
I289
sS'CCTCAC'
p485
I396
sS'TATGTT'
p486
I234
sS'ATGGGC'
p487
I209
sS'TCTTTG'
p488
I2992
sS'ATGGGA'
p489
I262
sS'TCTTTA'
p490
I2392
sS'ATGGGG'
p491
I373
sS'TCTTTC'
p492
I1451
sS'CCTCAT'
p493
I56
sS'TCTTTT'
p494
I431
sS'TATGTG'
p495
I1768
sS'TATGTA'
p496
I1566
sS'ATGGGT'
p497
I61
sS'TATGTC'
p498
I430
sS'GAAAGA'
p499
I1333
sS'ATCAAG'
p500
I814
sS'GAAAGC'
p501
I1023
sS'ATCAAC'
p502
I651
sS'GAAAGG'
p503
I1792
sS'ATCAAA'
p504
I817
sS'GTCAGG'
p505
I2579
sS'CATGAG'
p506
I715
sS'ATCAAT'
p507
I186
sS'TCAAAC'
p508
I110
sS'GAAAGT'
p509
I322
sS'CATGAA'
p510
I496
sS'GTAGCG'
p511
I57
sS'CAAGTT'
p512
I28
sS'GCTTTG'
p513
I2792
sS'GCTTTA'
p514
I1720
sS'GCTTTC'
p515
I1031
sS'AAAGTA'
p516
I434
sS'GCTTTT'
p517
I292
sS'CAAGTG'
p518
I415
sS'GTAGCT'
p519
I92
sS'GCGGCC'
p520
I378
sS'CAAGTC'
p521
I137
sS'GCGGCA'
p522
I168
sS'CAAGTA'
p523
I248
sS'ATTGCT'
p524
I91
sS'CCCTTT'
p525
I758
sS'ACCCTC'
p526
I611
sS'GGGGAA'
p527
I215
sS'TAATCG'
p528
I41
sS'ATGAAA'
p529
I339
sS'TAATCA'
p530
I406
sS'TAATCC'
p531
I342
sS'TGCGAA'
p532
I157
sS'CGGCCC'
p533
I524
sS'CGGCCA'
p534
I304
sS'CGCTAT'
p535
I82
sS'CGGCCG'
p536
I235
sS'TCGTGA'
p537
I79
sS'ATGAAG'
p538
I339
sS'GGTCTG'
p539
I1147
sS'TAATCT'
p540
I145
sS'GGTCTC'
p541
I550
sS'GGAGGC'
p542
I182
sS'GGTCTA'
p543
I471
sS'AAAATG'
p544
I705
sS'AAAATC'
p545
I148
sS'AAAATA'
p546
I715
sS'TTCAGC'
p547
I2281
sS'TTCAGA'
p548
I2336
sS'TTCAGG'
p549
I2641
sS'GAACAT'
p550
I43
sS'TCGTCG'
p551
I38
sS'TGCCAA'
p552
I749
sS'GAACAA'
p553
I166
sS'ATCCCG'
p554
I259
sS'GAACAC'
p555
I166
sS'ATCCCC'
p556
I652
sS'GAACAG'
p557
I244
sS'TTCAGT'
p558
I1175
sS'ATTGCA'
p559
I254
sS'CACCAC'
p560
I1162
sS'CACCAA'
p561
I816
sS'CACCAG'
p562
I1171
sS'CCACCG'
p563
I32
sS'TCCGTG'
p564
I776
sS'ATTGCG'
p565
I65
sS'TCCGTC'
p566
I318
sS'TCCGTA'
p567
I327
sS'CGGCGT'
p568
I55
sS'ACGCGA'
p569
I49
sS'CACCAT'
p570
I206
sS'AACATG'
p571
I2465
sS'AACATA'
p572
I1873
sS'AACATC'
p573
I982
sS'GTCAGC'
p574
I2154
sS'GCACGG'
p575
I69
sS'GTCAGA'
p576
I1737
sS'GCACGA'
p577
I34
sS'CAGTCC'
p578
I1266
sS'GCACGC'
p579
I62
sS'CAGTCA'
p580
I1153
sS'GCACCA'
p581
I70
sS'GCAAGC'
p582
I199
sS'GCACGT'
p583
I14
sS'GCAAGA'
p584
I264
sS'GCAAGG'
p585
I373
sS'GTCAGT'
p586
I760
sS'GTATAC'
p587
I125
sS'TTCCGT'
p588
I221
sS'CCACCA'
p589
I98
sS'GTATAG'
p590
I99
sS'CCGGAA'
p591
I57
sS'CCGGAC'
p592
I42
sS'CCGGAG'
p593
I68
sS'TATCAT'
p594
I228
sS'TGACGT'
p595
I18
sS'TTCCGG'
p596
I1294
sS'TTCCGA'
p597
I414
sS'TTCCGC'
p598
I1033
sS'GTATAT'
p599
I86
sS'CGTCTC'
p600
I411
sS'CGTCTA'
p601
I273
sS'CGTCTG'
p602
I727
sS'CCGGAT'
p603
I8
sS'CTCTTC'
p604
I4819
sS'TGTTAT'
p605
I219
sS'CTCTTA'
p606
I4426
sS'CTCTTG'
p607
I6153
sS'AGGGCT'
p608
I247
sS'TACGTA'
p609
I463
sS'TACGTC'
p610
I204
sS'TCTGGT'
p611
I96
sS'AACAAA'
p612
I3053
sS'CGCGAT'
p613
I29
sS'TACGTG'
p614
I778
sS'TGTTAG'
p615
I794
sS'GCTGTT'
p616
I109
sS'TGTTAC'
p617
I769
sS'CTCTTT'
p618
I1652
sS'TGTTAA'
p619
I952
sS'TCTGGG'
p620
I793
sS'CGCGAC'
p621
I259
sS'GATATT'
p622
I206
sS'TCTGGC'
p623
I365
sS'TACGTT'
p624
I102
sS'CGCGAG'
p625
I359
sS'AGTCGT'
p626
I115
sS'TTACCT'
p627
I58
sS'CTCCAT'
p628
I267
sS'TATGCC'
p629
I499
sS'TTACCG'
p630
I25
sS'CTCCAC'
p631
I1383
sS'CTCCAA'
p632
I1044
sS'TTACCC'
p633
I111
sS'CTCCAG'
p634
I1847
sS'TTACCA'
p635
I149
sS'AGTCGC'
p636
I399
sS'AATGCC'
p637
I769
sS'GTACCG'
p638
I23
sS'CCGACT'
p639
I35
sS'GCCTAC'
p640
I792
sS'GCCTAA'
p641
I819
sS'GCCTAG'
p642
I1172
sS'CCGACA'
p643
I80
sS'GATATC'
p644
I333
sS'CCGACC'
p645
I125
sS'CCGACG'
p646
I41
sS'AACTCA'
p647
I2558
sS'GCCTAT'
p648
I196
sS'TGACGG'
p649
I52
sS'ACGCTC'
p650
I61
sS'CCCGAG'
p651
I338
sS'TGACGA'
p652
I30
sS'TCAGCG'
p653
I46
sS'CTAAGT'
p654
I184
sS'GCTGTC'
p655
I347
sS'CGCACA'
p656
I615
sS'ATACAC'
p657
I76
sS'CGCACC'
p658
I773
sS'GGGTCG'
p659
I145
sS'ACTGCT'
p660
I127
sS'GGGTCA'
p661
I468
sS'CGCACG'
p662
I395
sS'GGGTCC'
p663
I577
sS'CTCACT'
p664
I1202
sS'TTTGTA'
p665
I1127
sS'ACTGCA'
p666
I476
sS'TTTGTC'
p667
I437
sS'ACTGCC'
p668
I363
sS'CGCACT'
p669
I264
sS'TTTGTG'
p670
I1517
sS'TAGAGC'
p671
I767
sS'CTCACC'
p672
I2524
sS'CTCACA'
p673
I2179
sS'CTCACG'
p674
I686
sS'TAGTGG'
p675
I829
sS'GTGAGG'
p676
I1163
sS'GATTTT'
p677
I510
sS'TAGTGC'
p678
I616
sS'GTGAGC'
p679
I744
sS'TAGTGA'
p680
I752
sS'GTGAGA'
p681
I664
sS'TCGACG'
p682
I31
sS'TCGACA'
p683
I51
sS'TCGACC'
p684
I54
sS'GATTTG'
p685
I3582
sS'GTGAGT'
p686
I360
sS'TAGTGT'
p687
I378
sS'GTGGGA'
p688
I532
sS'GATTTA'
p689
I2948
sS'TCGACT'
p690
I23
sS'ACGTAA'
p691
I30
sS'CTGGTT'
p692
I115
sS'TTGAGT'
p693
I218
sS'ATACAT'
p694
I14
sS'TCAAAA'
p695
I121
sS'CGAACG'
p696
I33
sS'GCGTCA'
p697
I180
sS'CGAACC'
p698
I96
sS'CGAACA'
p699
I68
sS'CTGGTG'
p700
I922
sS'CTGGTA'
p701
I445
sS'CTGGTC'
p702
I273
sS'CGAACT'
p703
I23
sS'TTGCAT'
p704
I145
sS'GCGGAA'
p705
I49
sS'CGTCTT'
p706
I59
sS'TTGCAG'
p707
I479
sS'TCCATA'
p708
I1158
sS'TTGCAC'
p709
I381
sS'TTGCAA'
p710
I333
sS'ACGTAC'
p711
I35
sS'TCCATC'
p712
I775
sS'TCGCAT'
p713
I6
sS'GTCGTG'
p714
I554
sS'GTCGTA'
p715
I245
sS'GTCGTC'
p716
I207
sS'CCGTTT'
p717
I45
sS'ACTGAT'
p718
I43
sS'ATATCG'
p719
I28
sS'GTCGTT'
p720
I68
sS'TCAGAT'
p721
I26
sS'TCGCAG'
p722
I42
sS'TCCATG'
p723
I1924
sS'CCAAGC'
p724
I232
sS'TCGCAC'
p725
I29
sS'CCGTTG'
p726
I214
sS'CCGTTA'
p727
I154
sS'CCGTTC'
p728
I100
sS'AATGCT'
p729
I336
sS'GGTACG'
p730
I84
sS'GGTACA'
p731
I331
sS'GGTACC'
p732
I275
sS'TATTTG'
p733
I4838
sS'CCAGTT'
p734
I21
sS'TATTTC'
p735
I2158
sS'TATTTA'
p736
I5466
sS'CCCCCT'
p737
I189
sS'GGTACT'
p738
I126
sS'AATGCG'
p739
I255
sS'AATCTT'
p740
I216
sS'TGCAAT'
p741
I357
sS'AATGCA'
p742
I1147
sS'CCCCCC'
p743
I305
sS'CCCCCA'
p744
I568
sS'TATTTT'
p745
I959
sS'CCCCCG'
p746
I278
sS'GAGCGA'
p747
I600
sS'CTTGAG'
p748
I471
sS'ATGATG'
p749
I610
sS'ATGATA'
p750
I350
sS'CTTGAA'
p751
I347
sS'CGGACT'
p752
I81
sS'TGCAAC'
p753
I909
sS'TGCAAA'
p754
I1385
sS'TGCAAG'
p755
I1194
sS'GCCGTC'
p756
I229
sS'ATGATT'
p757
I77
sS'CTTGAT'
p758
I59
sS'CGAATC'
p759
I24
sS'TTGAGG'
p760
I784
sS'GCCATT'
p761
I254
sS'CAATGT'
p762
I107
sS'TTGAGC'
p763
I447
sS'TTGAGA'
p764
I538
sS'GAGAAT'
p765
I296
sS'TGTCTT'
p766
I284
sS'CGAATA'
p767
I48
sS'AGTAGC'
p768
I692
sS'AAGGCC'
p769
I1280
sS'ATAACC'
p770
I165
sS'AAGGCA'
p771
I1391
sS'ATAACA'
p772
I317
sS'AAGGCG'
p773
I420
sS'ATAACG'
p774
I52
sS'GAGGGT'
p775
I348
sS'TTGACT'
p776
I245
sS'TGTCTG'
p777
I2383
sS'GAGAAG'
p778
I2093
sS'GAGAAA'
p779
I1446
sS'TGTCTC'
p780
I1177
sS'GAGAAC'
p781
I1086
sS'TGTCTA'
p782
I1029
sS'TGTGGC'
p783
I749
sS'TGTGGA'
p784
I559
sS'TGTGGG'
p785
I853
sS'ATAACT'
p786
I128
sS'AAGGCT'
p787
I390
sS'TAGGCT'
p788
I204
sS'CAATTT'
p789
I38
sS'AACGGC'
p790
I428
sS'GCCCCG'
p791
I737
sS'ACCAAG'
p792
I696
sS'GGTCAG'
p793
I586
sS'GCCCCC'
p794
I867
sS'GGTCAA'
p795
I266
sS'GCCCCA'
p796
I1057
sS'GGTCAC'
p797
I430
sS'GGTCAT'
p798
I65
sS'CGTGCC'
p799
I281
sS'GCCCCT'
p800
I364
sS'GAACTG'
p801
I661
sS'AGGTAA'
p802
I252
sS'CAAACT'
p803
I174
sS'TTTTGC'
p804
I1138
sS'TCTTAC'
p805
I376
sS'TTTTGA'
p806
I1229
sS'TCTTAA'
p807
I560
sS'TTTTGG'
p808
I1121
sS'ATCATG'
p809
I1381
sS'AATTGC'
p810
I1013
sS'TAGCCA'
p811
I572
sS'TGGGGT'
p812
I121
sS'CGCTCG'
p813
I766
sS'GATAAT'
p814
I255
sS'CGCTCA'
p815
I984
sS'CGCTCC'
p816
I2015
sS'AATTGT'
p817
I495
sS'CGAGAG'
p818
I32
sS'GCCATC'
p819
I571
sS'TCTTAT'
p820
I122
sS'GTTATG'
p821
I612
sS'CGCTCT'
p822
I586
sS'TGGGGG'
p823
I442
sS'GATAAC'
p824
I721
sS'TAGCCT'
p825
I235
sS'TGGGGC'
p826
I412
sS'GATAAG'
p827
I970
sS'GATCCT'
p828
I326
sS'AAGAAT'
p829
I249
sS'GTTATC'
p830
I224
sS'AAGAAC'
p831
I717
sS'GATCCA'
p832
I683
sS'AAGAAA'
p833
I1221
sS'GATCCC'
p834
I834
sS'AAGAAG'
p835
I1144
sS'GATCCG'
p836
I277
sS'ATGCCG'
p837
I163
sS'AAGCAT'
p838
I159
sS'CAAGGG'
p839
I308
sS'ATCGAG'
p840
I107
sS'CAAGGC'
p841
I246
sS'GGTTCT'
p842
I358
sS'CAAGGA'
p843
I238
sS'GGTTCA'
p844
I724
sS'GCAACC'
p845
I206
sS'GGTTCC'
p846
I881
sS'CAAGGT'
p847
I70
sS'GGTTCG'
p848
I222
sS'CTGTAT'
p849
I174
sS'ATTATA'
p850
I586
sS'ATTATC'
p851
I177
sS'TAGAAT'
p852
I170
sS'CAAACG'
p853
I99
sS'ATTATG'
p854
I550
sS'AGTCTT'
p855
I180
sS'TCCCAA'
p856
I583
sS'TAGAAA'
p857
I611
sS'TAGAAC'
p858
I408
sS'ATTATT'
p859
I104
sS'TAGAAG'
p860
I656
sS'AGTCTA'
p861
I874
sS'AGTCTC'
p862
I859
sS'AGTCTG'
p863
I1754
sS'TAACTC'
p864
I143
sS'TAACTA'
p865
I273
sS'TAACTG'
p866
I476
sS'ATCTAT'
p867
I202
sS'AGGTAT'
p868
I81
sS'TAACTT'
p869
I40
sS'ATCTAG'
p870
I710
sS'CTAGGA'
p871
I171
sS'ATCTAC'
p872
I677
sS'ATCTAA'
p873
I962
sS'CCATGT'
p874
I131
sS'ACCAAA'
p875
I587
sS'TGGAGG'
p876
I1188
sS'TGGAGA'
p877
I792
sS'TGGAGC'
p878
I665
sS'CCATGC'
p879
I213
sS'CCATGA'
p880
I135
sS'CCATGG'
p881
I252
sS'TGGAGT'
p882
I324
sS'ATTACG'
p883
I76
sS'TCAGTA'
p884
I188
sS'TCAGTC'
p885
I83
sS'CTCTCT'
p886
I2236
sS'GGGGAT'
p887
I43
sS'TCAGTG'
p888
I390
sS'CGATAT'
p889
I3
sS'CTCTCG'
p890
I1198
sS'GGGGAC'
p891
I193
sS'CTCTCC'
p892
I5614
sS'TCAGTT'
p893
I28
sS'GGGGAG'
p894
I355
sS'CGATAG'
p895
I13
sS'CGATAA'
p896
I11
sS'TATCAA'
p897
I647
sS'GTGTTT'
p898
I425
sS'GCTACT'
p899
I170
sS'GTGGTT'
p900
I138
sS'CTAAGA'
p901
I378
sS'GTGTTC'
p902
I859
sS'GTGTTA'
p903
I1323
sS'GTGTTG'
p904
I1858
sS'ACCAAT'
p905
I229
sS'GTGGTA'
p906
I458
sS'GCTACA'
p907
I317
sS'GTGGTC'
p908
I238
sS'GCTACC'
p909
I316
sS'GTGGTG'
p910
I1137
sS'GCTACG'
p911
I96
sS'CGTGCA'
p912
I222
sS'TTTCGT'
p913
I85
sS'TGCCCT'
p914
I574
sS'TCAGCC'
p915
I245
sS'AGCGTT'
p916
I146
sS'CGTGCG'
p917
I173
sS'TGCCCC'
p918
I1217
sS'TGCCCA'
p919
I1201
sS'TGCCCG'
p920
I482
sS'TTTCGG'
p921
I254
sS'AGCGTA'
p922
I362
sS'AGCGTC'
p923
I363
sS'CGAGTT'
p924
I9
sS'AGCGTG'
p925
I1001
sS'GGCCCC'
p926
I1120
sS'GGCCCA'
p927
I781
sS'CACGTG'
p928
I1390
sS'GGCCCG'
p929
I595
sS'CACGTA'
p930
I575
sS'CACGTC'
p931
I383
sS'ACGTGC'
p932
I148
sS'ACGTGA'
p933
I124
sS'GGGACT'
p934
I245
sS'ACAGTC'
p935
I80
sS'CACGTT'
p936
I138
sS'TTCACG'
p937
I502
sS'GGCCCT'
p938
I364
sS'GGGACA'
p939
I596
sS'CTGAAT'
p940
I120
sS'GGGACC'
p941
I648
sS'TCGTGG'
p942
I141
sS'GGGACG'
p943
I294
sS'TCTTAG'
p944
I512
sS'AGAGAG'
p945
I259
sS'AGAGAA'
p946
I140
sS'AGAGAC'
p947
I145
sS'TTCACC'
p948
I1643
sS'GTCTTT'
p949
I1190
sS'TCTATC'
p950
I182
sS'TCTATG'
p951
I621
sS'AGAGAT'
p952
I37
sS'TCGTGC'
p953
I104
sS'GTCTTG'
p954
I4727
sS'TCTATT'
p955
I118
sS'GTCTTC'
p956
I2908
sS'GTCTTA'
p957
I3086
sS'GCAGAG'
p958
I133
sS'GCTCAA'
p959
I279
sS'GCTCAC'
p960
I392
sS'GCAGAC'
p961
I66
sS'GCAGAA'
p962
I71
sS'GCTCAG'
p963
I586
sS'AGACGT'
p964
I22
sS'ATGCGT'
p965
I34
sS'TTGCTG'
p966
I2557
sS'TTGCTA'
p967
I1172
sS'TTGCTC'
p968
I1175
sS'GCAGAT'
p969
I17
sS'GCTCAT'
p970
I67
sS'CGAATT'
p971
I15
sS'GTACGG'
p972
I53
sS'TTGCTT'
p973
I454
sS'ATGCGG'
p974
I133
sS'TAGCCG'
p975
I125
sS'ATGCGC'
p976
I136
sS'ATGCGA'
p977
I67
sS'TGTAAG'
p978
I804
sS'GGCTAG'
p979
I908
sS'TGTAAC'
p980
I624
sS'GGCTAC'
p981
I799
sS'GACTGT'
p982
I1700
sS'GGCTAA'
p983
I1027
sS'TTCGAG'
p984
I199
sS'TTGGTA'
p985
I412
sS'ACTGTC'
p986
I203
sS'TTGGTC'
p987
I215
sS'TTCGAC'
p988
I152
sS'ACTGTG'
p989
I1131
sS'TTGGTG'
p990
I698
sS'GACTGC'
p991
I3799
sS'GGCTAT'
p992
I200
sS'GACTGA'
p993
I3537
sS'GACTGG'
p994
I4197
sS'TGTGGT'
p995
I278
sS'TTGGTT'
p996
I92
sS'ACTGTT'
p997
I93
sS'GTTTCT'
p998
I542
sS'TTTTGT'
p999
I691
sS'CCTTTT'
p1000
I347
sS'GTTTCG'
p1001
I278
sS'GTTTCC'
p1002
I1469
sS'GTTTCA'
p1003
I1203
sS'ATAATG'
p1004
I354
sS'CCTTTA'
p1005
I1953
sS'CCTTTC'
p1006
I1305
sS'CGTTTA'
p1007
I647
sS'ATAATA'
p1008
I395
sS'CCTTTG'
p1009
I2850
sS'ACAGAA'
p1010
I91
sS'ACAGAC'
p1011
I76
sS'ACAGAG'
p1012
I133
sS'TTATCT'
p1013
I193
sS'CTGGAC'
p1014
I223
sS'CTGGAA'
p1015
I249
sS'CTGGAG'
p1016
I491
sS'CGATTT'
p1017
I11
sS'ACAGAT'
p1018
I21
sS'TGGGGA'
p1019
I384
sS'TTATCA'
p1020
I379
sS'CTGGAT'
p1021
I49
sS'TTATCC'
p1022
I324
sS'CCAATG'
p1023
I320
sS'AAACCG'
p1024
I53
sS'ATTTGT'
p1025
I584
sS'CCAATC'
p1026
I118
sS'AAACCC'
p1027
I180
sS'CCAATA'
p1028
I223
sS'TGTCGG'
p1029
I306
sS'GAGATC'
p1030
I418
sS'AACGAG'
p1031
I359
sS'GAGATA'
p1032
I929
sS'TGTCGC'
p1033
I350
sS'GAGATG'
p1034
I1955
sS'AACGAC'
p1035
I277
sS'ATTTGA'
p1036
I923
sS'CCAATT'
p1037
I35
sS'ATTTGC'
p1038
I1008
sS'GGGTAT'
p1039
I58
sS'ATTTGG'
p1040
I682
sS'CCCTAG'
p1041
I750
sS'TGTCGT'
p1042
I78
sS'CCCTAC'
p1043
I729
sS'GAGATT'
p1044
I191
sS'CCCTAA'
p1045
I765
sS'CATTAT'
p1046
I294
sS'TGGATT'
p1047
I93
sS'ATCACA'
p1048
I1222
sS'ATCACC'
p1049
I1019
sS'CATGCT'
p1050
I297
sS'TGACAC'
p1051
I53
sS'CAATCA'
p1052
I300
sS'TGGATA'
p1053
I396
sS'CATTAG'
p1054
I976
sS'CATTAA'
p1055
I1189
sS'TGGATG'
p1056
I744
sS'CATGCA'
p1057
I892
sS'TGACAT'
p1058
I18
sS'CATGCC'
p1059
I777
sS'ATCACT'
p1060
I531
sS'CATGCG'
p1061
I214
sS'GTAGAA'
p1062
I76
sS'GTAGAC'
p1063
I71
sS'GTAGAG'
p1064
I108
sS'GATTGG'
p1065
I2368
sS'ACAACC'
p1066
I153
sS'GATTGC'
p1067
I1436
sS'GATTGA'
p1068
I1371
sS'ACTAAG'
p1069
I291
sS'GTAGAT'
p1070
I18
sS'TTGCCT'
p1071
I526
sS'ATGAGT'
p1072
I202
sS'GATTGT'
p1073
I654
sS'ACAACT'
p1074
I79
sS'GGGTAA'
p1075
I154
sS'TAATAG'
p1076
I170
sS'GTCCGG'
p1077
I847
sS'TAATAC'
p1078
I202
sS'GTCCGA'
p1079
I391
sS'TAATAA'
p1080
I239
sS'GTCCGC'
p1081
I854
sS'TGCCAT'
p1082
I188
sS'TCAACA'
p1083
I299
sS'ACTCTT'
p1084
I92
sS'GTCCGT'
p1085
I181
sS'TAATAT'
p1086
I79
sS'ATTCGC'
p1087
I91
sS'TTCTCC'
p1088
I4463
sS'ATTCGA'
p1089
I109
sS'TTCTCA'
p1090
I3918
sS'ATTCGG'
p1091
I121
sS'TTCTCG'
p1092
I908
sS'ATAGCA'
p1093
I159
sS'TCGTAC'
p1094
I20
sS'TACCTT'
p1095
I413
sS'TCGTAA'
p1096
I21
sS'TCGTAG'
p1097
I32
sS'TCGTCA'
p1098
I106
sS'CAGCTA'
p1099
I889
sS'ATCCAA'
p1100
I450
sS'ATCCAC'
p1101
I492
sS'TGAACC'
p1102
I251
sS'TTCTCT'
p1103
I2237
sS'ATCCAG'
p1104
I576
sS'GAACCC'
p1105
I218
sS'TTATAT'
p1106
I89
sS'TACCTG'
p1107
I2044
sS'TACCTA'
p1108
I1489
sS'TACCTC'
p1109
I1162
sS'TCGTAT'
p1110
I13
sS'ATGTTA'
p1111
I956
sS'ACCATA'
p1112
I715
sS'ACCATG'
p1113
I1345
sS'ATGTTG'
p1114
I1111
sS'GCGGAC'
p1115
I60
sS'AGCTCT'
p1116
I1341
sS'TGTCCT'
p1117
I250
sS'AGTGGT'
p1118
I191
sS'AGATGT'
p1119
I138
sS'TGATGT'
p1120
I117
sS'ATGTTT'
p1121
I222
sS'ACCATT'
p1122
I168
sS'AGCTCG'
p1123
I854
sS'AGTGGC'
p1124
I610
sS'AGCTCC'
p1125
I3411
sS'AGTGGG'
p1126
I845
sS'ATAGCC'
p1127
I121
sS'CAGTAA'
p1128
I433
sS'CAGTAC'
p1129
I304
sS'CAGTAG'
p1130
I377
sS'CGCGGT'
p1131
I104
sS'TTTCAC'
p1132
I567
sS'CAGTAT'
p1133
I117
sS'ATTAGT'
p1134
I174
sS'TTTCAA'
p1135
I693
sS'AAAGTG'
p1136
I597
sS'GATCTA'
p1137
I1088
sS'GATCTC'
p1138
I1098
sS'ATTGAC'
p1139
I189
sS'GATCTG'
p1140
I2444
sS'TCCCTT'
p1141
I442
sS'CCGGCC'
p1142
I349
sS'GTTCCG'
p1143
I137
sS'CCGGCG'
p1144
I98
sS'CACATT'
p1145
I447
sS'GTTCCC'
p1146
I440
sS'TCCCTC'
p1147
I1573
sS'GAGCTT'
p1148
I308
sS'TCCCTA'
p1149
I1533
sS'TTAATG'
p1150
I543
sS'TCCCTG'
p1151
I3587
sS'GATCTT'
p1152
I322
sS'CTAGAC'
p1153
I70
sS'ATAGAA'
p1154
I77
sS'AAGTGA'
p1155
I1205
sS'AAGTGC'
p1156
I923
sS'TGTTCT'
p1157
I678
sS'AAGTGG'
p1158
I1110
sS'TGATTG'
p1159
I332
sS'TGATTC'
p1160
I168
sS'TGTATT'
p1161
I191
sS'TGATTA'
p1162
I299
sS'TGTTCA'
p1163
I1505
sS'CACAAG'
p1164
I1395
sS'TGTTCC'
p1165
I1355
sS'CACAAA'
p1166
I1516
sS'CACAAC'
p1167
I1125
sS'TGTTCG'
p1168
I278
sS'TCTGAA'
p1169
I277
sS'TCTGAC'
p1170
I335
sS'GAAGTC'
p1171
I265
sS'TCTGAG'
p1172
I533
sS'CGCGCC'
p1173
I1059
sS'CGCGCA'
p1174
I495
sS'AGATGG'
p1175
I316
sS'CGCGCG'
p1176
I566
sS'CTCCCT'
p1177
I1078
sS'AGCGGG'
p1178
I871
sS'AGCGGA'
p1179
I435
sS'AGCGGC'
p1180
I777
sS'AGATGA'
p1181
I244
sS'CGCGCT'
p1182
I240
sS'ACCTCC'
p1183
I1732
sS'CTCCCG'
p1184
I1104
sS'CTCCCA'
p1185
I2243
sS'CTCCCC'
p1186
I2496
sS'GCCTCT'
p1187
I1181
sS'TAAGCC'
p1188
I343
sS'CGGGAG'
p1189
I188
sS'CCCATG'
p1190
I1361
sS'CGGGAA'
p1191
I80
sS'CCCATA'
p1192
I795
sS'TAGCTG'
p1193
I1388
sS'CCCATC'
p1194
I609
sS'TTGTTG'
p1195
I1698
sS'CCTGCT'
p1196
I190
sS'CCGAAT'
p1197
I9
sS'CCCATT'
p1198
I248
sS'CGGGAT'
p1199
I16
sS'GCCTCG'
p1200
I1160
sS'GCCTCA'
p1201
I2429
sS'TAAGCT'
p1202
I91
sS'GCCTCC'
p1203
I4130
sS'CCGAAC'
p1204
I32
sS'CCTGCG'
p1205
I288
sS'CCGAAA'
p1206
I28
sS'CCGAAG'
p1207
I72
sS'CCTGCC'
p1208
I713
sS'CCTGCA'
p1209
I526
sS'CGACAC'
p1210
I14
sS'CTTCAT'
p1211
I155
sS'CCATTC'
p1212
I183
sS'TATAAG'
p1213
I716
sS'CCATTG'
p1214
I424
sS'TATAAC'
p1215
I620
sS'TATAAT'
p1216
I312
sS'GTTCTA'
p1217
I788
sS'CCATTT'
p1218
I82
sS'TCTACA'
p1219
I381
sS'TCTACC'
p1220
I390
sS'CTAACT'
p1221
I173
sS'TCTACG'
p1222
I102
sS'CACCGT'
p1223
I180
sS'CGCAAC'
p1224
I301
sS'CGCAAA'
p1225
I276
sS'ATACCG'
p1226
I7
sS'CGCAAG'
p1227
I425
sS'ATACCA'
p1228
I87
sS'ATACCC'
p1229
I59
sS'TCTACT'
p1230
I183
sS'CCGAGT'
p1231
I40
sS'ATACCT'
p1232
I35
sS'CGCAAT'
p1233
I71
sS'AAACTG'
p1234
I534
sS'ATTTCT'
p1235
I304
sS'TAGTAC'
p1236
I261
sS'CTCAAG'
p1237
I1581
sS'CTCAAA'
p1238
I1494
sS'TAGTAG'
p1239
I345
sS'CTCAAC'
p1240
I1125
sS'GTGTGC'
p1241
I1186
sS'GTGTGA'
p1242
I1094
sS'GTGTGG'
p1243
I1571
sS'TTGCGT'
p1244
I59
sS'CTCAAT'
p1245
I298
sS'TAGTAT'
p1246
I116
sS'GTGTGT'
p1247
I1147
sS'ATCTTT'
p1248
I674
sS'GTTGGG'
p1249
I536
sS'GTTGGA'
p1250
I325
sS'GTTGGC'
p1251
I350
sS'CCTTGG'
p1252
I1120
sS'CCTTGA'
p1253
I735
sS'GCGTAT'
p1254
I12
sS'CCTTGC'
p1255
I897
sS'GGACGT'
p1256
I9
sS'GTTGGT'
p1257
I123
sS'ATCTTG'
p1258
I3491
sS'ATCTTA'
p1259
I2818
sS'ATCTTC'
p1260
I1874
sS'CCTTGT'
p1261
I339
sS'AGGATA'
p1262
I496
sS'AGGATG'
p1263
I1140
sS'GACATG'
p1264
I2478
sS'GACATC'
p1265
I1040
sS'GACATA'
p1266
I1599
sS'TCGGCG'
p1267
I47
sS'GAATAT'
p1268
I65
sS'GGTGCA'
p1269
I344
sS'TCGGCC'
p1270
I184
sS'CATAGC'
p1271
I684
sS'TTGCGA'
p1272
I80
sS'GACATT'
p1273
I525
sS'TTGCGG'
p1274
I175
sS'GAATAG'
p1275
I163
sS'TCGGCT'
p1276
I41
sS'CATAGA'
p1277
I753
sS'GAATAC'
p1278
I173
sS'GAATAA'
p1279
I235
sS'ACTTTT'
p1280
I178
sS'CGACAG'
p1281
I15
sS'ATACAA'
p1282
I76
sS'CCGCCG'
p1283
I116
sS'TTAATT'
p1284
I98
sS'GGACGA'
p1285
I32
sS'ACGACT'
p1286
I17
sS'AAAATT'
p1287
I78
sS'TGCCTC'
p1288
I1846
sS'ACGTCG'
p1289
I45
sS'TTATAA'
p1290
I191
sS'GAAATG'
p1291
I1193
sS'AATGAT'
p1292
I140
sS'GAAATA'
p1293
I729
sS'GAAATC'
p1294
I253
sS'GAAATT'
p1295
I92
sS'AATGAA'
p1296
I1108
sS'ATGTCC'
p1297
I609
sS'AATGAC'
p1298
I841
sS'AATGAG'
p1299
I1091
sS'CTTGGA'
p1300
I458
sS'CTTGGC'
p1301
I540
sS'GTCCTT'
p1302
I496
sS'CTTGGG'
p1303
I797
sS'ATACAG'
p1304
I65
sS'AGCCCT'
p1305
I671
sS'GCGTAA'
p1306
I31
sS'TTGAAT'
p1307
I120
sS'GTCCTA'
p1308
I1551
sS'GTCCTC'
p1309
I1632
sS'TGCACG'
p1310
I495
sS'TGCACA'
p1311
I1605
sS'GTCCTG'
p1312
I3633
sS'TGCACC'
p1313
I1244
sS'TTGAAA'
p1314
I392
sS'CTTTTC'
p1315
I1719
sS'AGCCCG'
p1316
I750
sS'AGCCCA'
p1317
I1496
sS'AGCCCC'
p1318
I1555
sS'TTAACT'
p1319
I214
sS'ATAAAT'
p1320
I111
sS'TGGTCG'
p1321
I97
sS'TGGTCA'
p1322
I539
sS'TGGTCC'
p1323
I551
sS'ACGATT'
p1324
I10
sS'GAGACT'
p1325
I698
sS'ACGGGG'
p1326
I123
sS'TGGTCT'
p1327
I267
sS'ATAAAG'
p1328
I244
sS'ATAAAA'
p1329
I270
sS'CTAAGC'
p1330
I317
sS'ATAAAC'
p1331
I242
sS'GAGACG'
p1332
I651
sS'ACGGGA'
p1333
I70
sS'CTACAG'
p1334
I107
sS'GAGACC'
p1335
I1391
sS'CGTATC'
p1336
I76
sS'GAGACA'
p1337
I1701
sS'ACGATA'
p1338
I52
sS'GGTTAC'
p1339
I482
sS'ATGTGT'
p1340
I354
sS'GGTTAA'
p1341
I525
sS'ACCACT'
p1342
I343
sS'GGTTAG'
p1343
I463
sS'CTTCCT'
p1344
I344
sS'GAATGT'
p1345
I237
sS'TCCATT'
p1346
I383
sS'CCAACA'
p1347
I181
sS'TCCGCT'
p1348
I273
sS'ACCACG'
p1349
I365
sS'CTTCCC'
p1350
I1022
sS'ACCACC'
p1351
I1009
sS'CGTATG'
p1352
I160
sS'CTTCCG'
p1353
I282
sS'GGTTAT'
p1354
I100
sS'TCCGCC'
p1355
I1151
sS'TCCGCA'
p1356
I421
sS'TCCGCG'
p1357
I376
sS'CGTACA'
p1358
I146
sS'AACGTC'
p1359
I293
sS'AACGTA'
p1360
I486
sS'AACGTG'
p1361
I951
sS'CGTGAC'
p1362
I212
sS'AGTGTG'
p1363
I1504
sS'TCTTCG'
p1364
I283
sS'AGTGTA'
p1365
I776
sS'TCTTCA'
p1366
I1114
sS'AGTGTC'
p1367
I374
sS'TCTTCC'
p1368
I1436
sS'TAAGTG'
p1369
I575
sS'ACTCAA'
p1370
I280
sS'TAAGTC'
p1371
I171
sS'AACGTT'
p1372
I113
sS'AGTAAA'
p1373
I813
sS'TCTTCT'
p1374
I474
sS'AGTGTT'
p1375
I151
sS'GTGCGC'
p1376
I308
sS'TTGGCA'
p1377
I486
sS'AAAGGT'
p1378
I116
sS'TTGGCC'
p1379
I722
sS'AGTAAC'
p1380
I622
sS'TTAACG'
p1381
I78
sS'TTGGCG'
p1382
I116
sS'GACTTC'
p1383
I3677
sS'TCGAGT'
p1384
I35
sS'GACTTA'
p1385
I3570
sS'GACTTG'
p1386
I5727
sS'ACGTAG'
p1387
I48
sS'AAAGGG'
p1388
I547
sS'AAAGGA'
p1389
I508
sS'TTGGCT'
p1390
I221
sS'AAAGGC'
p1391
I447
sS'AGTAAG'
p1392
I762
sS'GTCGAT'
p1393
I21
sS'GACTTT'
p1394
I1335
sS'TTCTTT'
p1395
I2175
sS'CAAGAA'
p1396
I116
sS'GACGTT'
p1397
I187
sS'CAAGAC'
p1398
I134
sS'CAAGAG'
p1399
I170
sS'TTCTTG'
p1400
I6693
sS'TTCTTC'
p1401
I4762
sS'TTCTTA'
p1402
I5867
sS'CAAGAT'
p1403
I30
sS'AGTTCC'
p1404
I1139
sS'TACGGG'
p1405
I346
sS'TACGGA'
p1406
I242
sS'TACGGC'
p1407
I291
sS'CCAACT'
p1408
I107
sS'TAGAGT'
p1409
I332
sS'TACGGT'
p1410
I100
sS'AGGGCG'
p1411
I296
sS'CCCGAA'
p1412
I141
sS'AGGGCC'
p1413
I844
sS'TCGAGA'
p1414
I67
sS'AGTTCG'
p1415
I297
sS'TAGAGA'
p1416
I979
sS'TAGAGG'
p1417
I1096
sS'GGCGAA'
p1418
I184
sS'GTGCTG'
p1419
I3440
sS'GTGCTA'
p1420
I1192
sS'ATCTGT'
p1421
I741
sS'GTGCTC'
p1422
I1179
sS'TTGCGC'
p1423
I155
sS'ATCTGA'
p1424
I1568
sS'GTGCTT'
p1425
I509
sS'ATCTGC'
p1426
I1782
sS'TCGAGG'
p1427
I135
sS'CGAATG'
p1428
I80
sS'ATCTGG'
p1429
I1647
sS'ATCATA'
p1430
I1060
sS'GATAGC'
p1431
I625
sS'AAGCAG'
p1432
I1012
sS'GATAGA'
p1433
I989
sS'AAGCAA'
p1434
I727
sS'GATAGG'
p1435
I1025
sS'AAGCAC'
p1436
I672
sS'GGCTCA'
p1437
I2074
sS'CATTTC'
p1438
I2258
sS'CTAGGT'
p1439
I60
sS'CATTTA'
p1440
I4003
sS'ACGCAT'
p1441
I12
sS'CATTTG'
p1442
I4082
sS'GTTATA'
p1443
I491
sS'CAAACA'
p1444
I1076
sS'TTTCAG'
p1445
I747
sS'CAAACC'
p1446
I418
sS'CTCGGG'
p1447
I890
sS'ATCATT'
p1448
I249
sS'GATAGT'
p1449
I338
sS'ACGCAG'
p1450
I59
sS'CTAGGG'
p1451
I238
sS'GTTATT'
p1452
I151
sS'CTAGGC'
p1453
I164
sS'CATTTT'
p1454
I628
sS'CTCGGA'
p1455
I400
sS'AAGTTT'
p1456
I238
sS'TACAGT'
p1457
I1265
sS'CTAACG'
p1458
I87
sS'CTAAGG'
p1459
I504
sS'GTATGG'
p1460
I327
sS'GGGGCT'
p1461
I156
sS'TACAGG'
p1462
I3117
sS'AAGTTG'
p1463
I1289
sS'GGATGC'
p1464
I160
sS'AAGTTA'
p1465
I1345
sS'TACAGC'
p1466
I2089
sS'AAGTTC'
p1467
I626
sS'TACAGA'
p1468
I2403
sS'GGGGCC'
p1469
I605
sS'CGGGGG'
p1470
I267
sS'GGGGCA'
p1471
I395
sS'GGGGCG'
p1472
I275
sS'ACAGTG'
p1473
I353
sS'TATATC'
p1474
I406
sS'TATATA'
p1475
I1696
sS'TATATG'
p1476
I1232
sS'AGTTCT'
p1477
I498
sS'GCTAGC'
p1478
I287
sS'GCCCAT'
p1479
I93
sS'TATATT'
p1480
I290
sS'GGACTA'
p1481
I92
sS'TGATGG'
p1482
I200
sS'CTCGGT'
p1483
I111
sS'TGATGC'
p1484
I160
sS'AGGTCT'
p1485
I281
sS'TGATGA'
p1486
I201
sS'TGTTTA'
p1487
I4032
sS'CACATC'
p1488
I1065
sS'TGTTTC'
p1489
I1802
sS'CACATA'
p1490
I2004
sS'TCATAA'
p1491
I78
sS'CACATG'
p1492
I2676
sS'TGTTTG'
p1493
I4823
sS'ATGAGA'
p1494
I479
sS'ATGAGC'
p1495
I407
sS'ATGAGG'
p1496
I656
sS'TTAATA'
p1497
I562
sS'ACTCTG'
p1498
I1185
sS'TGCCAG'
p1499
I1166
sS'ACTCTA'
p1500
I511
sS'TGTTTT'
p1501
I694
sS'ACTCTC'
p1502
I360
sS'TGCCAC'
p1503
I975
sS'AAATTC'
p1504
I182
sS'ACCGTA'
p1505
I245
sS'AAATTA'
p1506
I532
sS'AAATTG'
p1507
I436
sS'CCAGTA'
p1508
I142
sS'TTCAAT'
p1509
I397
sS'GTATTT'
p1510
I176
sS'TTAATC'
p1511
I171
sS'AAATTT'
p1512
I63
sS'GGGAAC'
p1513
I357
sS'GGTGCG'
p1514
I200
sS'GGGAAA'
p1515
I427
sS'GGGAAG'
p1516
I887
sS'GGTGCC'
p1517
I367
sS'TCGTCC'
p1518
I158
sS'TCCGGG'
p1519
I1065
sS'AGAGCG'
p1520
I112
sS'GCGACT'
p1521
I42
sS'AGCGAT'
p1522
I67
sS'AGAGCC'
p1523
I387
sS'AGAGCA'
p1524
I321
sS'GCGTAG'
p1525
I54
sS'GGTGCT'
p1526
I134
sS'GCGTAC'
p1527
I35
sS'TAATTT'
p1528
I99
sS'GGGAAT'
p1529
I95
sS'GCGACG'
p1530
I58
sS'AGAGCT'
p1531
I111
sS'GCGACA'
p1532
I66
sS'GTTACA'
p1533
I481
sS'GCGACC'
p1534
I152
sS'TCCGGC'
p1535
I641
sS'ACATCC'
p1536
I221
sS'GCAGGC'
p1537
I154
sS'GCAGGG'
p1538
I280
sS'AAATAA'
p1539
I283
sS'GCTCGC'
p1540
I431
sS'GCACTA'
p1541
I113
sS'CCGTGC'
p1542
I173
sS'GCTCGG'
p1543
I452
sS'TATTCT'
p1544
I756
sS'CCGTGG'
p1545
I234
sS'ACTTAC'
p1546
I264
sS'CTTTAG'
p1547
I753
sS'GCAGGT'
p1548
I37
sS'TCTTGA'
p1549
I666
sS'CTATAC'
p1550
I116
sS'TATTCC'
p1551
I1373
sS'GGCGAG'
p1552
I556
sS'TATTCA'
p1553
I1984
sS'CCGTGT'
p1554
I72
sS'TATTCG'
p1555
I311
sS'GGCGAC'
p1556
I346
sS'TGTAGA'
p1557
I751
sS'TTTACC'
p1558
I598
sS'TGTAGC'
p1559
I633
sS'GGCTCC'
p1560
I3091
sS'TTTACG'
p1561
I153
sS'TGTAGG'
p1562
I866
sS'GGCTCG'
p1563
I861
sS'TTCGGA'
p1564
I197
sS'TTCGGC'
p1565
I316
sS'CTTTAC'
p1566
I691
sS'TTCAAG'
p1567
I1731
sS'TTCGGG'
p1568
I448
sS'AGCATG'
p1569
I2301
sS'GGCTCT'
p1570
I908
sS'AGCATC'
p1571
I871
sS'TTTACT'
p1572
I431
sS'AGCATA'
p1573
I1311
sS'TCTTGG'
p1574
I971
sS'TTCGGT'
p1575
I71
sS'GTTTAT'
p1576
I397
sS'CTCTCA'
p1577
I3461
sS'GCACTC'
p1578
I80
sS'GCCTTT'
p1579
I862
sS'GTTTAA'
p1580
I908
sS'TCCAGG'
p1581
I2660
sS'CACGAA'
p1582
I200
sS'CAATCT'
p1583
I70
sS'GTTTAG'
p1584
I640
sS'TCCAGA'
p1585
I1650
sS'CTGGCT'
p1586
I306
sS'AGGCGG'
p1587
I726
sS'AGGCGA'
p1588
I255
sS'AGGCGC'
p1589
I460
sS'AGGAGT'
p1590
I448
sS'ACAGCC'
p1591
I186
sS'GATAAA'
p1592
I1178
sS'ACAGCA'
p1593
I218
sS'TCCAGC'
p1594
I2251
sS'ACAGCG'
p1595
I44
sS'AGGAGC'
p1596
I1110
sS'GTCGGA'
p1597
I240
sS'AGGAGA'
p1598
I1137
sS'CTGGCG'
p1599
I237
sS'AGGAGG'
p1600
I2260
sS'CTGGCA'
p1601
I830
sS'GTCGGG'
p1602
I595
sS'CGATAC'
p1603
I7
sS'ACCGGT'
p1604
I28
sS'GCTCTC'
p1605
I546
sS'ATTGGT'
p1606
I84
sS'AATTTT'
p1607
I337
sS'TGTCAA'
p1608
I503
sS'TGTCAC'
p1609
I788
sS'CCCTCT'
p1610
I918
sS'GCTCTA'
p1611
I728
sS'ATTTAT'
p1612
I255
sS'ATTGGG'
p1613
I243
sS'AATTTA'
p1614
I2582
sS'AATTTC'
p1615
I1066
sS'AACGCC'
p1616
I628
sS'ATTGGA'
p1617
I232
sS'AATTTG'
p1618
I2588
sS'ATTTAC'
p1619
I616
sS'CCCTCC'
p1620
I3671
sS'TGTCAT'
p1621
I175
sS'CCCTCG'
p1622
I763
sS'TCCAGT'
p1623
I732
sS'CACGAT'
p1624
I43
sS'GGCGTT'
p1625
I64
sS'TGACCA'
p1626
I67
sS'CATTCT'
p1627
I853
sS'TAAATC'
p1628
I211
sS'TGACCG'
p1629
I25
sS'ATGGTT'
p1630
I48
sS'TAGCGT'
p1631
I49
sS'CATTCG'
p1632
I404
sS'TGACCT'
p1633
I41
sS'CATTCA'
p1634
I2493
sS'TAAATG'
p1635
I948
sS'ACAAAT'
p1636
I80
sS'GATTAA'
p1637
I1244
sS'GTAGGC'
p1638
I151
sS'GATTAC'
p1639
I1478
sS'GTAGGA'
p1640
I143
sS'GTAGGG'
p1641
I230
sS'GATTAG'
p1642
I915
sS'GAATGA'
p1643
I685
sS'ACAAAC'
p1644
I203
sS'CAATTG'
p1645
I294
sS'ACAAAG'
p1646
I220
sS'GCGGGC'
p1647
I219
sS'GTCGGT'
p1648
I91
sS'GCGGGA'
p1649
I186
sS'GCGGGG'
p1650
I405
sS'GATTAT'
p1651
I301
sS'GTAGGT'
p1652
I55
sS'CCACGA'
p1653
I17
sS'AACCTG'
p1654
I2513
sS'TAATGA'
p1655
I401
sS'GATGTT'
p1656
I260
sS'TAATGC'
p1657
I352
sS'GGAGAT'
p1658
I17
sS'GCCCTT'
p1659
I305
sS'GCGCCG'
p1660
I118
sS'CAATAA'
p1661
I102
sS'GCCCTC'
p1662
I1214
sS'GATGTG'
p1663
I2305
sS'GCCCTA'
p1664
I1149
sS'GATGTA'
p1665
I1203
sS'GCCCTG'
p1666
I3502
sS'GATGTC'
p1667
I620
sS'AACCTC'
p1668
I1325
sS'TGAAAT'
p1669
I101
sS'TTCTAG'
p1670
I1873
sS'TTCTAA'
p1671
I2391
sS'ATCCGT'
p1672
I61
sS'TTCTAC'
p1673
I1493
sS'TGAAAA'
p1674
I187
sS'TTGGAT'
p1675
I36
sS'TGAAAC'
p1676
I193
sS'TGAAAG'
p1677
I265
sS'TTCTAT'
p1678
I572
sS'ATCCGC'
p1679
I362
sS'AGTAAT'
p1680
I182
sS'ATCCGA'
p1681
I173
sS'ATCCGG'
p1682
I351
sS'CGGATT'
p1683
I22
sS'TGGCTC'
p1684
I694
sS'TGGCTA'
p1685
I711
sS'TGGCTG'
p1686
I1979
sS'GGGTGA'
p1687
I519
sS'AGTTGT'
p1688
I449
sS'AGCTAT'
p1689
I350
sS'GTCGGC'
p1690
I441
sS'CGTCGA'
p1691
I92
sS'TGGCTT'
p1692
I208
sS'AGTTGG'
p1693
I1032
sS'AGCTAA'
p1694
I1504
sS'ACGCCG'
p1695
I39
sS'AGCTAC'
p1696
I1344
sS'AGTTGC'
p1697
I967
sS'AGTTGA'
p1698
I961
sS'AGCTAG'
p1699
I1203
sS'CGTTGA'
p1700
I283
sS'GCACCT'
p1701
I30
sS'CAGTGT'
p1702
I567
sS'TAACAA'
p1703
I143
sS'TCAGGT'
p1704
I46
sS'TCAAGG'
p1705
I309
sS'CTGGCC'
p1706
I1182
sS'TCAAGC'
p1707
I176
sS'CATGGA'
p1708
I593
sS'CTAATA'
p1709
I359
sS'CAGTGC'
p1710
I1143
sS'CTAATC'
p1711
I147
sS'CAGTGA'
p1712
I1158
sS'CAGTGG'
p1713
I1314
sS'CTAATG'
p1714
I506
sS'TCAAGT'
p1715
I122
sS'CATGGC'
p1716
I620
sS'CGCAGG'
p1717
I1457
sS'TCAGGC'
p1718
I111
sS'GTGGGT'
p1719
I163
sS'ATAGAG'
p1720
I91
sS'CGTTGG'
p1721
I471
sS'TAACAG'
p1722
I196
sS'TTCCCT'
p1723
I913
sS'CGTACG'
p1724
I61
sS'ACCACA'
p1725
I1199
sS'GTTAGT'
p1726
I221
sS'CGAGCA'
p1727
I63
sS'GAGCCG'
p1728
I780
sS'ACGCCA'
p1729
I76
sS'TTCCCA'
p1730
I2075
sS'TTCCCC'
p1731
I2051
sS'ACAGCT'
p1732
I64
sS'GTTCAC'
p1733
I369
sS'GTTCAA'
p1734
I366
sS'TGAGCA'
p1735
I220
sS'GGACCT'
p1736
I22
sS'CTTACT'
p1737
I320
sS'TACATG'
p1738
I2285
sS'AAGTAC'
p1739
I377
sS'CACACT'
p1740
I1038
sS'TACATC'
p1741
I845
sS'AAGTAG'
p1742
I422
sS'TACATA'
p1743
I2383
sS'GCACAC'
p1744
I61
sS'GGACCG'
p1745
I17
sS'AACGCT'
p1746
I225
sS'GGACCA'
p1747
I41
sS'TCATCA'
p1748
I257
sS'GGACCC'
p1749
I59
sS'CACACG'
p1750
I733
sS'TACATT'
p1751
I572
sS'CACACC'
p1752
I2184
sS'GCACAA'
p1753
I40
sS'CACACA'
p1754
I4042
sS'ACGGTC'
p1755
I41
sS'TCTGCC'
p1756
I627
sS'TCTGCA'
p1757
I646
sS'AGGTAG'
p1758
I274
sS'TCTGCG'
p1759
I206
sS'TAGATT'
p1760
I104
sS'CCCGTC'
p1761
I284
sS'TTAAGG'
p1762
I473
sS'CCCGTA'
p1763
I232
sS'TTAAGA'
p1764
I439
sS'CCCGTG'
p1765
I729
sS'TTAAGC'
p1766
I319
sS'TTACGT'
p1767
I21
sS'TAGATC'
p1768
I196
sS'AAACAG'
p1769
I249
sS'TAGATA'
p1770
I610
sS'TTTCGC'
p1771
I252
sS'TAGATG'
p1772
I879
sS'GCGCCT'
p1773
I61
sS'TCTGCT'
p1774
I185
sS'TTACGC'
p1775
I43
sS'TTAAGT'
p1776
I244
sS'TTACGA'
p1777
I27
sS'TTACGG'
p1778
I36
sS'CCCGTT'
p1779
I68
sS'AGTGAC'
p1780
I639
sS'AGTGAA'
p1781
I542
sS'AGTGAG'
p1782
I857
sS'GCGGTC'
p1783
I52
sS'CGGGCG'
p1784
I179
sS'AAACAC'
p1785
I210
sS'TAAGAG'
p1786
I201
sS'CGGGCC'
p1787
I448
sS'TAAGAA'
p1788
I171
sS'CGGGCA'
p1789
I224
sS'TAAGAC'
p1790
I181
sS'AAACAA'
p1791
I322
sS'AGTGAT'
p1792
I100
sS'TAAGAT'
p1793
I43
sS'CCTGAA'
p1794
I230
sS'CCTGAC'
p1795
I328
sS'CCTGAG'
p1796
I435
sS'GTTAGG'
p1797
I623
sS'GCCAAC'
p1798
I736
sS'TCATCT'
p1799
I152
sS'GTTAGC'
p1800
I406
sS'GTTAGA'
p1801
I530
sS'GCCAAA'
p1802
I694
sS'TGAATT'
p1803
I59
sS'TATACG'
p1804
I142
sS'GGTAGC'
p1805
I412
sS'TATACC'
p1806
I550
sS'TATACA'
p1807
I1055
sS'ATTGGC'
p1808
I349
sS'CGTATA'
p1809
I137
sS'ACTAGT'
p1810
I73
sS'TTTATT'
p1811
I270
sS'GTAATA'
p1812
I386
sS'AACGCA'
p1813
I485
sS'GTAATC'
p1814
I167
sS'TCTAAC'
p1815
I307
sS'CGTTCT'
p1816
I153
sS'TCTAAA'
p1817
I353
sS'GGTAGG'
p1818
I705
sS'TCTAAG'
p1819
I424
sS'CCACCC'
p1820
I124
sS'ATTACT'
p1821
I167
sS'TTTATG'
p1822
I1160
sS'ACTAGG'
p1823
I366
sS'CTACTG'
p1824
I406
sS'ACTAGC'
p1825
I209
sS'TTTATA'
p1826
I1202
sS'ACTAGA'
p1827
I313
sS'CCACCT'
p1828
I49
sS'CGTTCG'
p1829
I174
sS'ACTTGT'
p1830
I205
sS'CGTTCA'
p1831
I363
sS'CGTTCC'
p1832
I592
sS'TCTAAT'
p1833
I100
sS'TCGTCT'
p1834
I50
sS'CTTTGT'
p1835
I777
sS'ACTGGG'
p1836
I500
sS'ACTGGA'
p1837
I288
sS'ACTGGC'
p1838
I268
sS'TAGTCC'
p1839
I787
sS'GTGACC'
p1840
I782
sS'TAGTCA'
p1841
I1063
sS'AGGCGT'
p1842
I115
sS'TAGTCG'
p1843
I148
sS'GTGACG'
p1844
I236
sS'ATTTAG'
p1845
I452
sS'ACTGGT'
p1846
I66
sS'CTTTGG'
p1847
I1763
sS'CCTATG'
p1848
I463
sS'CTTTGC'
p1849
I1844
sS'CTTTGA'
p1850
I1624
sS'GTGACT'
p1851
I408
sS'TAGTCT'
p1852
I386
sS'GTGCAC'
p1853
I498
sS'CGACGG'
p1854
I30
sS'ACCTAG'
p1855
I551
sS'GCAATT'
p1856
I37
sS'GTGCAG'
p1857
I740
sS'CGACGC'
p1858
I39
sS'ACCTAC'
p1859
I566
sS'CCGCAG'
p1860
I72
sS'CCGCAA'
p1861
I23
sS'CCGCAC'
p1862
I50
sS'ACGTGG'
p1863
I204
sS'ACCTAT'
p1864
I111
sS'GCGCTG'
p1865
I461
sS'CGAAGA'
p1866
I77
sS'CCCCGT'
p1867
I115
sS'CGAAGG'
p1868
I160
sS'GCGCTC'
p1869
I124
sS'GTGCAT'
p1870
I145
sS'GCGCTA'
p1871
I126
sS'CCGCAT'
p1872
I8
sS'ATTACC'
p1873
I281
sS'GAAGAT'
p1874
I59
sS'GGATCT'
p1875
I50
sS'TCGTTT'
p1876
I35
sS'TCGGAC'
p1877
I34
sS'GAATCT'
p1878
I140
sS'CCTATA'
p1879
I337
sS'CGGTGA'
p1880
I177
sS'GGATCG'
p1881
I39
sS'GAAGAG'
p1882
I538
sS'GAAGAA'
p1883
I373
sS'GGATCC'
p1884
I145
sS'GAAGAC'
p1885
I346
sS'GGATCA'
p1886
I119
sS'GAATCA'
p1887
I634
sS'GAATCC'
p1888
I475
sS'TCGGAT'
p1889
I6
sS'GAATCG'
p1890
I104
sS'ATGGTC'
p1891
I120
sS'CAGATG'
p1892
I1084
sS'ATGGTA'
p1893
I300
sS'TGACCC'
p1894
I69
sS'ATGGTG'
p1895
I519
sS'CAGATC'
p1896
I260
sS'ACGCCC'
p1897
I121
sS'CAGATA'
p1898
I584
sS'TGTCAG'
p1899
I839
sS'CTCGAG'
p1900
I338
sS'CAGATT'
p1901
I100
sS'CTCGAC'
p1902
I245
sS'CTCGAA'
p1903
I161
sS'TCGCAA'
p1904
I18
sS'GCTATT'
p1905
I72
sS'TGCGTC'
p1906
I260
sS'CCGGTA'
p1907
I80
sS'GCGTGG'
p1908
I271
sS'AATGGT'
p1909
I195
sS'GTTACG'
p1910
I116
sS'ACGTGT'
p1911
I60
sS'CCCCGC'
p1912
I1198
sS'AATGGA'
p1913
I851
sS'AATGGG'
p1914
I954
sS'CCCCGA'
p1915
I303
sS'CAACTC'
p1916
I105
sS'AACGCG'
p1917
I302
sS'CAACTA'
p1918
I144
sS'ACGCAA'
p1919
I32
sS'GTGAAT'
p1920
I125
sS'AGCCAG'
p1921
I1938
sS'GGAGGG'
p1922
I339
sS'AAAAGT'
p1923
I261
sS'AGCCAC'
p1924
I1578
sS'AGCCAA'
p1925
I1386
sS'TGGTAG'
p1926
I207
sS'CGCCAT'
p1927
I69
sS'GAGTGT'
p1928
I683
sS'ATGATC'
p1929
I163
sS'GAGGTA'
p1930
I870
sS'TGGTAA'
p1931
I176
sS'AAAAGG'
p1932
I970
sS'GGAGGT'
p1933
I65
sS'AGCCAT'
p1934
I258
sS'AAAAGC'
p1935
I669
sS'AAAAGA'
p1936
I1017
sS'TCTATA'
p1937
I416
sS'GAGTGG'
p1938
I1909
sS'CGCCAG'
p1939
I556
sS'TGGTAT'
p1940
I99
sS'CGCCAA'
p1941
I269
sS'GAGTGC'
p1942
I1430
sS'CGCCAC'
p1943
I572
sS'GAGTGA'
p1944
I1706
sS'GCCAGG'
p1945
I2919
sS'GCCAGA'
p1946
I1350
sS'GCCAGC'
p1947
I1994
sS'GCCCGT'
p1948
I149
sS'CAATCC'
p1949
I250
sS'TACCGA'
p1950
I252
sS'TACCGC'
p1951
I451
sS'TACCGG'
p1952
I404
sS'GCCCGC'
p1953
I1318
sS'GCCAGT'
p1954
I578
sS'GCCCGA'
p1955
I445
sS'GCCCGG'
p1956
I1389
sS'TGCGAT'
p1957
I36
sS'CTTCAC'
p1958
I584
sS'CTTCAA'
p1959
I514
sS'CTTCAG'
p1960
I774
sS'TCCGAG'
p1961
I300
sS'TCCGAA'
p1962
I108
sS'TCCGAC'
p1963
I165
sS'AATTCA'
p1964
I1548
sS'AATTCC'
p1965
I1299
sS'AATTCG'
p1966
I240
sS'TCCGAT'
p1967
I14
sS'ACATAC'
p1968
I74
sS'TAGCGG'
p1969
I239
sS'AATTCT'
p1970
I547
sS'TAGCGC'
p1971
I230
sS'GTCATC'
p1972
I974
sS'GTCATA'
p1973
I1395
sS'GTCATG'
p1974
I2113
sS'AGCAGG'
p1975
I3500
sS'CCAGGT'
p1976
I49
sS'TTGGAA'
p1977
I217
sS'TTGGAG'
p1978
I306
sS'AGCAGA'
p1979
I2430
sS'GTCATT'
p1980
I453
sS'ACGACC'
p1981
I67
sS'CCAGGG'
p1982
I209
sS'AGCAGT'
p1983
I1074
sS'CCAGGA'
p1984
I124
sS'CCAGGC'
p1985
I164
sS'AGCGCT'
p1986
I282
sS'ACGGTA'
p1987
I66
sS'CATCTG'
p1988
I2644
sS'GATCGG'
p1989
I395
sS'CATCTA'
p1990
I1312
sS'GATCGA'
p1991
I201
sS'CATCTC'
p1992
I1219
sS'GATCGC'
p1993
I498
sS'ATTAGA'
p1994
I388
sS'ACAAAA'
p1995
I209
sS'GGATGG'
p1996
I178
sS'CCCTCA'
p1997
I1847
sS'CATCTT'
p1998
I313
sS'CAAGCA'
p1999
I274
sS'CAAGCG'
p2000
I78
sS'GTTCTT'
p2001
I150
sS'ACATGA'
p2002
I179
sS'CGTAAT'
p2003
I29
sS'ACATGC'
p2004
I161
sS'ACATGG'
p2005
I176
sS'CCCGCT'
p2006
I196
sS'GTACAT'
p2007
I24
sS'TGGCGG'
p2008
I346
sS'CGTAAG'
p2009
I163
sS'GTTCTG'
p2010
I1502
sS'ACATGT'
p2011
I112
sS'CGTAAC'
p2012
I131
sS'GTTCTC'
p2013
I648
sS'CCCGCG'
p2014
I477
sS'ACGGAA'
p2015
I44
sS'CCCGCC'
p2016
I1692
sS'AGACGC'
p2017
I75
sS'CCCGCA'
p2018
I478
sS'AAACTA'
p2019
I335
sS'TGTTGT'
p2020
I675
sS'GTTGTT'
p2021
I116
sS'ATTAGC'
p2022
I325
sS'ATCCTT'
p2023
I257
sS'TTGTCG'
p2024
I160
sS'TTGTCC'
p2025
I940
sS'TTGTCA'
p2026
I898
sS'ATCCTC'
p2027
I948
sS'GTTGTA'
p2028
I574
sS'ATCCTA'
p2029
I1077
sS'GTTGTC'
p2030
I273
sS'ATCCTG'
p2031
I2317
sS'GTTGTG'
p2032
I877
sS'TTGTCT'
p2033
I484
sS'ACCTCA'
p2034
I1466
sS'TGACTA'
p2035
I171
sS'TGGGCC'
p2036
I596
sS'TGACTC'
p2037
I108
sS'TGGGCA'
p2038
I595
sS'TGGGCG'
p2039
I206
sS'TGACTG'
p2040
I282
sS'AAGCCG'
p2041
I346
sS'AAGCCC'
p2042
I936
sS'AAGCCA'
p2043
I1049
sS'CAAAAT'
p2044
I82
sS'CTATGG'
p2045
I366
sS'TGGGCT'
p2046
I175
sS'CAAAAC'
p2047
I328
sS'CAAAAA'
p2048
I246
sS'AAGCCT'
p2049
I380
sS'CAAAAG'
p2050
I300
sS'TGATTT'
p2051
I51
sS'TCAATG'
p2052
I292
sS'AAACTT'
p2053
I38
sS'TCAATC'
p2054
I62
sS'TCAATA'
p2055
I246
sS'CAGTTC'
p2056
I680
sS'GACCCG'
p2057
I770
sS'GACCCA'
p2058
I1600
sS'GACCCC'
p2059
I1319
sS'CTCTGT'
p2060
I2018
sS'TCAATT'
p2061
I40
sS'TGGCGT'
p2062
I62
sS'CTCTGC'
p2063
I6018
sS'GACCCT'
p2064
I601
sS'CTCTGA'
p2065
I3812
sS'ACAATC'
p2066
I69
sS'CTCTGG'
p2067
I4843
sS'CAGTTT'
p2068
I217
sS'GCGAAG'
p2069
I107
sS'CTACTC'
p2070
I145
sS'TGCTGG'
p2071
I4005
sS'CGAGGT'
p2072
I15
sS'TGCTGA'
p2073
I2757
sS'GAGTCT'
p2074
I729
sS'TGCTGC'
p2075
I3928
sS'TAGGGA'
p2076
I489
sS'GCTGGT'
p2077
I116
sS'GTGATT'
p2078
I128
sS'ACGTTA'
p2079
I184
sS'TGCTGT'
p2080
I1535
sS'TAGGGC'
p2081
I498
sS'TAATGG'
p2082
I399
sS'TCGCTA'
p2083
I91
sS'GTGATG'
p2084
I1037
sS'GCTGGG'
p2085
I1179
sS'GTGATC'
p2086
I232
sS'GCTGGC'
p2087
I545
sS'GTGATA'
p2088
I465
sS'GCTGGA'
p2089
I488
sS'TGATAA'
p2090
I68
sS'TGTAGT'
p2091
I450
sS'TGATAC'
p2092
I39
sS'TGATAG'
p2093
I57
sS'CTTGTT'
p2094
I154
sS'GACGGT'
p2095
I236
sS'GCTAGG'
p2096
I539
sS'GCTAGA'
p2097
I329
sS'ATGAAT'
p2098
I121
sS'ACGCGT'
p2099
I15
sS'ATAGGG'
p2100
I107
sS'TGATAT'
p2101
I26
sS'GAGGTT'
p2102
I169
sS'GCTAGT'
p2103
I117
sS'ATGAAC'
p2104
I250
sS'GACGGG'
p2105
I1222
sS'CTTGTG'
p2106
I1256
sS'GACGGA'
p2107
I667
sS'CTTGTA'
p2108
I767
sS'GACGGC'
p2109
I899
sS'CTTGTC'
p2110
I399
sS'GCACTT'
p2111
I35
sS'CTACTT'
p2112
I58
sS'CAACGT'
p2113
I18
sS'GGTGAA'
p2114
I309
sS'GGTGAC'
p2115
I451
sS'GCGTCT'
p2116
I95
sS'TGTAAA'
p2117
I943
sS'GGTGAG'
p2118
I593
sS'GGAATG'
p2119
I433
sS'CGTCCT'
p2120
I103
sS'GGAATC'
p2121
I98
sS'GGAATA'
p2122
I232
sS'ACTGTA'
p2123
I683
sS'GCGTCC'
p2124
I337
sS'GGTGAT'
p2125
I52
sS'GCGTCG'
p2126
I95
sS'CGTCCG'
p2127
I119
sS'GGAATT'
p2128
I56
sS'CGTCCC'
p2129
I373
sS'CGTCCA'
p2130
I213
sS'TTTCGA'
p2131
I140
sS'CCGTAT'
p2132
I14
sS'GCCGTG'
p2133
I893
sS'GAAGTA'
p2134
I480
sS'GAAGTG'
p2135
I943
sS'GCCGTA'
p2136
I338
sS'CCGTAC'
p2137
I35
sS'CCGTAA'
p2138
I25
sS'TTCGAA'
p2139
I146
sS'CAAAGT'
p2140
I194
sS'GCCGTT'
p2141
I63
sS'GAAGTT'
p2142
I78
sS'GGCGCG'
p2143
I579
sS'ATGCCC'
p2144
I558
sS'TTAGTT'
p2145
I50
sS'TATTAG'
p2146
I921
sS'GGCGCC'
p2147
I962
sS'TATTAA'
p2148
I1532
sS'GGCGCA'
p2149
I473
sS'TATTAC'
p2150
I952
sS'ACTATG'
p2151
I441
sS'CCATAT'
p2152
I26
sS'TTTAAG'
p2153
I883
sS'ACTATC'
p2154
I114
sS'TTTAAA'
p2155
I1506
sS'ACTATA'
p2156
I334
sS'TTTAAC'
p2157
I654
sS'TATTAT'
p2158
I456
sS'TTAGTG'
p2159
I331
sS'GGCGCT'
p2160
I245
sS'TTAGTC'
p2161
I107
sS'ATGCCT'
p2162
I284
sS'TTAGTA'
p2163
I273
sS'TTTAAT'
p2164
I264
sS'GCACTG'
p2165
I299
sS'GGGCAT'
p2166
I59
sS'TCGATA'
p2167
I41
sS'TTTCCG'
p2168
I179
sS'TTTCCA'
p2169
I664
sS'TTTCCC'
p2170
I739
sS'GTACGT'
p2171
I12
sS'GTTTGT'
p2172
I1258
sS'TTTCCT'
p2173
I344
sS'GGGCAG'
p2174
I514
sS'CCTGGA'
p2175
I411
sS'GGGCAA'
p2176
I186
sS'GGGCAC'
p2177
I254
sS'GTTTGC'
p2178
I1667
sS'GTTTGA'
p2179
I1326
sS'GTTTGG'
p2180
I1348
sS'GTACGA'
p2181
I26
sS'CCGCTC'
p2182
I99
sS'GCATGT'
p2183
I102
sS'CCGCTA'
p2184
I126
sS'CCGCTG'
p2185
I313
sS'AGCATT'
p2186
I413
sS'GCGCGG'
p2187
I228
sS'GCGCGC'
p2188
I232
sS'GCGCGA'
p2189
I69
sS'GCATGG'
p2190
I195
sS'GCATGC'
p2191
I201
sS'CCGCTT'
p2192
I26
sS'GCATGA'
p2193
I169
sS'GTCGAC'
p2194
I137
sS'GTCGAA'
p2195
I110
sS'GTCGAG'
p2196
I235
sS'AGACAT'
p2197
I24
sS'GAGCTA'
p2198
I1299
sS'TGCGCT'
p2199
I176
sS'GAGCTC'
p2200
I1219
sS'ATTGAT'
p2201
I40
sS'GAGCTG'
p2202
I3873
sS'AAACGA'
p2203
I96
sS'AAACGC'
p2204
I99
sS'GTAACA'
p2205
I369
sS'GTAGTA'
p2206
I223
sS'AAACGG'
p2207
I125
sS'TGTCCC'
p2208
I648
sS'TGCGCG'
p2209
I352
sS'TGTCCA'
p2210
I566
sS'TGTCCG'
p2211
I180
sS'TGCGCC'
p2212
I612
sS'ATTGAG'
p2213
I225
sS'TGCGCA'
p2214
I447
sS'CACGCA'
p2215
I675
sS'AAACGT'
p2216
I35
sS'ATTTCG'
p2217
I131
sS'ATTTCA'
p2218
I924
sS'ATTTCC'
p2219
I882
sS'ATCAGT'
p2220
I422
sS'ATCGGG'
p2221
I141
sS'CATAGT'
p2222
I349
sS'ATCGGC'
p2223
I123
sS'ATCGGA'
p2224
I96
sS'TGGGTG'
p2225
I729
sS'CGATCA'
p2226
I30
sS'TGGGTC'
p2227
I177
sS'TGGGTA'
p2228
I393
sS'CATAGG'
p2229
I782
sS'ATCGGT'
p2230
I25
sS'ATCAGG'
p2231
I1157
sS'ATCAGA'
p2232
I1163
sS'ATCAGC'
p2233
I1273
sS'ACGGGT'
p2234
I19
sS'ATAATT'
p2235
I85
sS'GTCTGA'
p2236
I2304
sS'GATTCT'
p2237
I886
sS'CTTTTG'
p2238
I3195
sS'TACTAG'
p2239
I1070
sS'TACTAA'
p2240
I1750
sS'CAGCAA'
p2241
I421
sS'CTTTTA'
p2242
I2991
sS'GATTCC'
p2243
I1864
sS'GATTCA'
p2244
I2334
sS'GATTCG'
p2245
I458
sS'ACGGGC'
p2246
I73
sS'TACTAT'
p2247
I525
sS'CTTTTT'
p2248
I464
sS'ACCAAC'
p2249
I615
sS'CGTAGA'
p2250
I184
sS'TCACGA'
p2251
I31
sS'TCACGC'
p2252
I49
sS'CGATTG'
p2253
I76
sS'TCACGG'
p2254
I50
sS'ACCGAT'
p2255
I17
sS'TCACGT'
p2256
I24
sS'TTCCAC'
p2257
I1099
sS'TTCCAA'
p2258
I1132
sS'TTCCAG'
p2259
I1688
sS'ACCCTT'
p2260
I159
sS'TGAAGT'
p2261
I204
sS'CCACAT'
p2262
I19
sS'TTCCAT'
p2263
I322
sS'ACCCTA'
p2264
I774
sS'TGAAGA'
p2265
I397
sS'TGAAGG'
p2266
I496
sS'ACCCTG'
p2267
I1783
sS'CTGACT'
p2268
I343
sS'GCAGGA'
p2269
I167
sS'CCAGCA'
p2270
I203
sS'ATAATC'
p2271
I109
sS'CCCCTT'
p2272
I243
sS'AGTTAT'
p2273
I177
sS'CTGACG'
p2274
I223
sS'CTGACC'
p2275
I801
sS'CTGACA'
p2276
I648
sS'AGTTAA'
p2277
I811
sS'CCCCTG'
p2278
I1824
sS'AGTTAC'
p2279
I624
sS'CCCCTC'
p2280
I953
sS'AGTTAG'
p2281
I608
sS'CCCCTA'
p2282
I865
sS'ACACAG'
p2283
I74
sS'ACACAA'
p2284
I49
sS'ACACAC'
p2285
I107
sS'AATGTT'
p2286
I245
sS'CTGCAG'
p2287
I1036
sS'CATGGG'
p2288
I694
sS'CTGCAC'
p2289
I663
sS'CTGCAA'
p2290
I454
sS'AATGTC'
p2291
I531
sS'ACACAT'
p2292
I23
sS'AATGTA'
p2293
I1414
sS'AATGTG'
p2294
I1973
sS'CATGGT'
p2295
I196
sS'CTGCAT'
p2296
I157
sS'GCACAG'
p2297
I96
sS'CGATTC'
p2298
I43
sS'CCACAG'
p2299
I82
sS'CGAGAT'
p2300
I10
sS'GTTCGT'
p2301
I63
sS'CACAAT'
p2302
I350
sS'ACATTG'
p2303
I385
sS'GTACCA'
p2304
I106
sS'ACATTA'
p2305
I328
sS'ACATTC'
p2306
I160
sS'ATTACA'
p2307
I558
sS'CCACAC'
p2308
I48
sS'GTTCGC'
p2309
I228
sS'CGAGAC'
p2310
I39
sS'GTTCGG'
p2311
I256
sS'AAGTCT'
p2312
I464
sS'CCACAA'
p2313
I45
sS'GGACAT'
p2314
I7
sS'CAGCGT'
p2315
I86
sS'GCTATA'
p2316
I326
sS'GCTATC'
p2317
I133
sS'AAGTCG'
p2318
I255
sS'AAGTCA'
p2319
I1234
sS'GCTATG'
p2320
I498
sS'AAGTCC'
p2321
I1048
sS'GGACAG'
p2322
I55
sS'GGACAC'
p2323
I40
sS'GGACAA'
p2324
I23
sS'CTAATT'
p2325
I82
sS'AGGGTT'
p2326
I74
sS'GAGGCG'
p2327
I1020
sS'TGTTGG'
p2328
I1321
sS'GAGGCA'
p2329
I1925
sS'TGTTGA'
p2330
I1414
sS'GAGGCC'
p2331
I2526
sS'TGTTGC'
p2332
I1410
sS'ACTCGA'
p2333
I106
sS'TAAAAT'
p2334
I130
sS'ACTCGC'
p2335
I187
sS'AAGCTT'
p2336
I199
sS'ACTCGG'
p2337
I234
sS'AGCGCA'
p2338
I551
sS'GAGGCT'
p2339
I724
sS'AGCGCC'
p2340
I958
sS'AGGGTG'
p2341
I914
sS'AGGGTA'
p2342
I380
sS'AGCGCG'
p2343
I576
sS'AGGGTC'
p2344
I188
sS'TAAAAG'
p2345
I447
sS'ACTCGT'
p2346
I30
sS'TAAAAC'
p2347
I377
sS'TAAAAA'
p2348
I437
sS'CAATAC'
p2349
I84
sS'AGCTGC'
p2350
I4018
sS'CTACTA'
p2351
I279
sS'AGCTGA'
p2352
I2882
sS'ACGTTG'
p2353
I195
sS'AGCTGG'
p2354
I3985
sS'TAGGGG'
p2355
I552
sS'AGTGCG'
p2356
I198
sS'AGTGCA'
p2357
I592
sS'AGAGTT'
p2358
I51
sS'AGTGCC'
p2359
I560
sS'CCAAAA'
p2360
I74
sS'TAGGGT'
p2361
I113
sS'GCATAG'
p2362
I68
sS'AGCTGT'
p2363
I1371
sS'ACGTTT'
p2364
I36
sS'AGTGCT'
p2365
I246
sS'AGAGTC'
p2366
I123
sS'AGAGTA'
p2367
I243
sS'AGAGTG'
p2368
I401
sS'TAACCC'
p2369
I118
sS'GTTAAA'
p2370
I565
sS'CCTGGC'
p2371
I537
sS'GTTAAC'
p2372
I421
sS'GTCTGT'
p2373
I1293
sS'CCTGGG'
p2374
I892
sS'GTTAAG'
p2375
I588
sS'TAACCA'
p2376
I183
sS'GCACCC'
p2377
I82
sS'GTCTGG'
p2378
I3193
sS'GTCTGC'
p2379
I2746
sS'GTTAAT'
p2380
I132
sS'CCTGGT'
p2381
I102
sS'CCGGTC'
p2382
I56
sS'GGAAGG'
p2383
I759
sS'ATGCTT'
p2384
I230
sS'GGAAGC'
p2385
I441
sS'GCACCG'
p2386
I31
sS'GGAAGA'
p2387
I442
sS'GCGTTA'
p2388
I148
sS'TCCTCT'
p2389
I1497
sS'GCGTTC'
p2390
I139
sS'CAATGC'
p2391
I224
sS'GCGTTG'
p2392
I278
sS'CAATGG'
p2393
I311
sS'ATGCTG'
p2394
I1530
sS'GGAAGT'
p2395
I196
sS'ATGCTC'
p2396
I544
sS'ATGCTA'
p2397
I656
sS'TATCGT'
p2398
I81
sS'AAACCA'
p2399
I206
sS'TCCTCG'
p2400
I818
sS'TGTATG'
p2401
I990
sS'TCCTCA'
p2402
I2888
sS'TGTATA'
p2403
I824
sS'TCCTCC'
p2404
I4624
sS'TGTATC'
p2405
I377
sS'CGTTAG'
p2406
I175
sS'TAACCG'
p2407
I41
sS'TCATAG'
p2408
I74
sS'TTCGTG'
p2409
I528
sS'CGTTAC'
p2410
I195
sS'TTCGTA'
p2411
I334
sS'CGTTAA'
p2412
I197
sS'TTCGTC'
p2413
I196
sS'ACCGCT'
p2414
I95
sS'AACCCA'
p2415
I1226
sS'TCAGGA'
p2416
I114
sS'TTCGTT'
p2417
I72
sS'TACCCT'
p2418
I373
sS'TAACCT'
p2419
I45
sS'GTGAAG'
p2420
I576
sS'GTGAAA'
p2421
I352
sS'GTGAAC'
p2422
I346
sS'CAATAG'
p2423
I96
sS'TGCATA'
p2424
I1414
sS'ACCGCG'
p2425
I241
sS'ACCGCA'
p2426
I244
sS'CCCTAT'
p2427
I169
sS'ACCGCC'
p2428
I476
sS'CCGCCT'
p2429
I78
sS'AGGCTT'
p2430
I268
sS'CCTTCT'
p2431
I498
sS'CGAGCT'
p2432
I27
sS'GTTGCA'
p2433
I363
sS'AACGAA'
p2434
I289
sS'GATCAA'
p2435
I672
sS'GTGCCG'
p2436
I429
sS'GTGCCA'
p2437
I1113
sS'GTTGCG'
p2438
I120
sS'GTGCCC'
p2439
I1380
sS'CCTTCA'
p2440
I1043
sS'AGGCTA'
p2441
I810
sS'CCTTCC'
p2442
I1794
sS'AGGCTC'
p2443
I757
sS'CCGCCC'
p2444
I345
sS'TGTCGA'
p2445
I145
sS'CCTTCG'
p2446
I349
sS'AGGCTG'
p2447
I2622
sS'GTGCCT'
p2448
I638
sS'GTTGCT'
p2449
I164
sS'GGATAT'
p2450
I22
sS'ATAGGT'
p2451
I41
sS'TCGGGT'
p2452
I19
sS'AAACCT'
p2453
I62
sS'GCAGTT'
p2454
I33
sS'GAAGCT'
p2455
I195
sS'TCGGGC'
p2456
I94
sS'ATGCCA'
p2457
I631
sS'TCGGGA'
p2458
I74
sS'TCGGGG'
p2459
I145
sS'GGATAG'
p2460
I38
sS'GAAGCG'
p2461
I218
sS'GCAGTG'
p2462
I394
sS'GAAGCC'
p2463
I806
sS'GCAGTA'
p2464
I153
sS'GAAGCA'
p2465
I636
sS'GCAGTC'
p2466
I77
sS'CGCCCG'
p2467
I649
sS'GAGAGA'
p2468
I2714
sS'GTTCAT'
p2469
I97
sS'GAGAGG'
p2470
I3791
sS'CGCCCA'
p2471
I752
sS'CTACAA'
p2472
I99
sS'CTATAG'
p2473
I125
sS'NNNNNN'
p2474
I2
sS'ACGCAC'
p2475
I42
sS'GCATTA'
p2476
I291
sS'CTCGCA'
p2477
I475
sS'CTCGCC'
p2478
I1075
sS'CTCGCG'
p2479
I409
sS'AAACAT'
p2480
I48
sS'GCATTT'
p2481
I75
sS'AGTTTC'
p2482
I1156
sS'GCCGGG'
p2483
I1302
sS'GCCGGC'
p2484
I816
sS'CATGTT'
p2485
I189
sS'GCCGGA'
p2486
I477
sS'AGATCT'
p2487
I82
sS'AGTTTA'
p2488
I2156
sS'CGAGCG'
p2489
I55
sS'GCCACT'
p2490
I637
sS'CATGTA'
p2491
I1137
sS'CATGTC'
p2492
I461
sS'GCCGGT'
p2493
I100
sS'CATGTG'
p2494
I1794
sS'GTGCGA'
p2495
I143
sS'TACCCC'
p2496
I692
sS'GTTGCC'
p2497
I370
sS'GGCCTG'
p2498
I2870
sS'GGCCTC'
p2499
I1378
sS'GGCCTA'
p2500
I872
sS'TTTGTT'
p2501
I231
sS'AATCGG'
p2502
I348
sS'AATCGC'
p2503
I385
sS'AATCGA'
p2504
I237
sS'GTTCAG'
p2505
I545
sS'GGCCTT'
p2506
I265
sS'TCACTA'
p2507
I165
sS'AGGGCA'
p2508
I794
sS'CAGCGA'
p2509
I278
sS'AATCGT'
p2510
I104
sS'AGCCGA'
p2511
I722
sS'GAGCGT'
p2512
I199
sS'AGCCGC'
p2513
I1595
sS'TAATTG'
p2514
I579
sS'TAATTA'
p2515
I656
sS'AGCCGG'
p2516
I1504
sS'GTTTTT'
p2517
I372
sS'TGGTGA'
p2518
I585
sS'TCTCAT'
p2519
I97
sS'TGGTGC'
p2520
I561
sS'GATGGC'
p2521
I1014
sS'GGGCTG'
p2522
I1812
sS'TGGTGG'
p2523
I774
sS'GATGGG'
p2524
I1379
sS'GTTTTC'
p2525
I1332
sS'CAGCTG'
p2526
I2180
sS'GAGCGG'
p2527
I1184
sS'GGGCTC'
p2528
I569
sS'GTTTTG'
p2529
I2901
sS'TTCCCG'
p2530
I764
sS'GAGCGC'
p2531
I1093
sS'TGACAG'
p2532
I80
sS'CCAAGG'
p2533
I313
sS'ACGTAT'
p2534
I12
sS'TCTCAG'
p2535
I572
sS'TCTCAA'
p2536
I452
sS'TGGTGT'
p2537
I319
sS'GGGCTT'
p2538
I133
sS'ATTCGT'
p2539
I36
sS'AGAACT'
p2540
I178
sS'GCGTTT'
p2541
I51
sS'CCGCCA'
p2542
I119
sS'TACCAT'
p2543
I218
sS'GATTTC'
p2544
I1684
sS'CCTATT'
p2545
I71
sS'ACCCGG'
p2546
I508
sS'ACCCGA'
p2547
I244
sS'ATGTCT'
p2548
I325
sS'ACCCGC'
p2549
I494
sS'ACCAGT'
p2550
I359
sS'TACCAC'
p2551
I767
sS'AGAACG'
p2552
I95
sS'GTAACG'
p2553
I83
sS'AGAACA'
p2554
I442
sS'TACCAG'
p2555
I858
sS'AGAACC'
p2556
I358
sS'ACCAGC'
p2557
I1229
sS'CACTGG'
p2558
I3391
sS'ACCAGA'
p2559
I933
sS'ATCACG'
p2560
I271
sS'ACCAGG'
p2561
I1352
sS'CACTGC'
p2562
I4432
sS'ATGTCG'
p2563
I106
sS'CACTGA'
p2564
I3013
sS'TAGGTT'
p2565
I100
sS'GTTTAC'
p2566
I1023
sS'AATTAT'
p2567
I226
sS'CTGTTG'
p2568
I1914
sS'GTAACC'
p2569
I303
sS'TGGATC'
p2570
I175
sS'CGGGTT'
p2571
I19
sS'CTGTTA'
p2572
I1480
sS'AATTAC'
p2573
I764
sS'TAGGTG'
p2574
I745
sS'AATTAG'
p2575
I821
sS'TAGGTC'
p2576
I238
sS'CGGGTC'
p2577
I98
sS'CTGTTT'
p2578
I434
sS'CGGGTA'
p2579
I117
sS'CGGGTG'
p2580
I302
sS'ATTGTT'
p2581
I67
sS'AAGTAA'
p2582
I543
sS'CATTAC'
p2583
I893
sS'GCAATG'
p2584
I317
sS'TTAGGG'
p2585
I184
sS'ATATAT'
p2586
I85
sS'AGCAAC'
p2587
I1379
sS'TTAGGC'
p2588
I120
sS'AAAGCT'
p2589
I154
sS'TTAGGA'
p2590
I144
sS'AAAGCA'
p2591
I646
sS'AAAGCC'
p2592
I469
sS'TTAGGT'
p2593
I45
sS'ATATAA'
p2594
I140
sS'AGCAAT'
p2595
I393
sS'ATATAC'
p2596
I118
sS'TGCTAC'
p2597
I1139
sS'TACTTA'
p2598
I4011
sS'TACTTG'
p2599
I4087
sS'ATAGCG'
p2600
I22
sS'TCTCAC'
p2601
I400
sS'CAGCGC'
p2602
I500
sS'ATAGCT'
p2603
I38
sS'TACTTT'
p2604
I1134
sS'CTTCGA'
p2605
I193
sS'CCCGAT'
p2606
I19
sS'TCCAAT'
p2607
I241
sS'CGTACT'
p2608
I70
sS'TCCCGT'
p2609
I158
sS'TATGCT'
p2610
I265
sS'CTTAAG'
p2611
I561
sS'ACATAA'
p2612
I72
sS'CTTAAA'
p2613
I671
sS'ACATAG'
p2614
I77
sS'CTTAAC'
p2615
I483
sS'TCCAAG'
p2616
I1101
sS'CGTACC'
p2617
I136
sS'TCCAAC'
p2618
I823
sS'TCCAAA'
p2619
I984
sS'AGGGGA'
p2620
I480
sS'CTTAAT'
p2621
I148
sS'AGGGGC'
p2622
I499
sS'TATGCA'
p2623
I813
sS'AGGGGG'
p2624
I526
sS'CGTTTG'
p2625
I954
sS'CGACTT'
p2626
I5
sS'GGATAA'
p2627
I37
sS'TTGTAA'
p2628
I376
sS'TTGTAC'
p2629
I292
sS'GTACCT'
p2630
I42
sS'TTGTAG'
p2631
I377
sS'TGAATC'
p2632
I155
sS'ACAACA'
p2633
I250
sS'TGAATA'
p2634
I405
sS'GGATAC'
p2635
I40
sS'TGAATG'
p2636
I604
sS'AAGTAT'
p2637
I125
sS'CGGCTG'
p2638
I821
sS'TTGTAT'
p2639
I159
sS'ATCGTG'
p2640
I327
sS'GCTTCG'
p2641
I310
sS'GCTTCA'
p2642
I911
sS'GCTTCC'
p2643
I1401
sS'TGGGAG'
p2644
I395
sS'TGGGAA'
p2645
I226
sS'TGGGAC'
p2646
I186
sS'GCTTCT'
p2647
I415
sS'ATCGTT'
p2648
I33
sS'ACAACG'
p2649
I51
sS'TGGGAT'
p2650
I51
sS'ACGCGC'
p2651
I91
sS'CTAGCC'
p2652
I249
sS'GACCAT'
p2653
I222
sS'CTAGCG'
p2654
I68
sS'CGGTAG'
p2655
I62
sS'ACTTAG'
p2656
I365
sS'ACTTAA'
p2657
I448
sS'CGGTAC'
p2658
I53
sS'TACACT'
p2659
I867
sS'CGGTAA'
p2660
I56
sS'GACCAG'
p2661
I1630
sS'GACCAC'
p2662
I1129
sS'GACCAA'
p2663
I1210
sS'TACACC'
p2664
I1137
sS'CGGTAT'
p2665
I13
sS'TACACA'
p2666
I2475
sS'TACACG'
p2667
I429
sS'GCGAGA'
p2668
I112
sS'GAGAGC'
p2669
I2005
sS'GCGAGC'
p2670
I178
sS'GGCCGT'
p2671
I178
sS'GCGAGG'
p2672
I333
sS'CAGCCG'
p2673
I346
sS'CAGCCA'
p2674
I922
sS'GGTATT'
p2675
I66
sS'CAGCCC'
p2676
I1154
sS'GCGAGT'
p2677
I44
sS'CGCCCC'
p2678
I1412
sS'GAACTC'
p2679
I207
sS'GAACTA'
p2680
I386
sS'GGACTT'
p2681
I22
sS'CACCTA'
p2682
I1598
sS'AACTAT'
p2683
I359
sS'CACCTC'
p2684
I1694
sS'CACCTG'
p2685
I2880
sS'TGATCC'
p2686
I141
sS'AACACT'
p2687
I999
sS'TGATCA'
p2688
I152
sS'ATTTAA'
p2689
I805
sS'AACTAG'
p2690
I1095
sS'GGACTG'
p2691
I198
sS'CACCTT'
p2692
I402
sS'AACTAC'
p2693
I1296
sS'AACTAA'
p2694
I1632
sS'AACGAT'
p2695
I67
sS'AACACG'
p2696
I583
sS'AACACA'
p2697
I2716
sS'AACACC'
p2698
I1586
sS'TGATCT'
p2699
I73
sS'TGTAAT'
p2700
I264
sS'GCATTC'
p2701
I175
sS'CAACAG'
p2702
I114
sS'GACAGT'
p2703
I1300
sS'CAACAA'
p2704
I82
sS'CCAGCC'
p2705
I315
sS'CAACAC'
p2706
I104
sS'GCTGAT'
p2707
I59
sS'CTATAA'
p2708
I134
sS'GACAGG'
p2709
I4147
sS'ATATCC'
p2710
I247
sS'GACAGC'
p2711
I3436
sS'GACAGA'
p2712
I3595
sS'GTATTA'
p2713
I730
sS'GTATTC'
p2714
I289
sS'GTAAGT'
p2715
I158
sS'CCAGCG'
p2716
I62
sS'GTATTG'
p2717
I633
sS'GGTGGC'
p2718
I594
sS'TCCCCT'
p2719
I368
sS'GGTGGA'
p2720
I443
sS'CGTCAT'
p2721
I43
sS'GGTGGG'
p2722
I866
sS'AGAGGC'
p2723
I270
sS'GTAAGA'
p2724
I363
sS'AGAGGA'
p2725
I257
sS'CGCCCT'
p2726
I350
sS'AGAGGG'
p2727
I412
sS'ACCGAG'
p2728
I224
sS'GTAAGG'
p2729
I450
sS'TATCTA'
p2730
I1278
sS'CGTCAC'
p2731
I270
sS'TCCCCC'
p2732
I810
sS'GGTGGT'
p2733
I111
sS'TCCCCA'
p2734
I1166
sS'GTCGCG'
p2735
I276
sS'GTGACA'
p2736
I734
sS'GTCGCC'
p2737
I591
sS'TCGGTC'
p2738
I50
sS'TCGGTA'
p2739
I62
sS'GAGAGT'
p2740
I668
sS'TCGGTG'
p2741
I146
sS'GTCGCT'
p2742
I185
sS'CCGTCG'
p2743
I64
sS'CCGTCA'
p2744
I124
sS'CCGTCC'
p2745
I288
sS'GGCTGT'
p2746
I1010
sS'CGCGTG'
p2747
I609
sS'CTATAT'
p2748
I70
sS'CGCGTC'
p2749
I219
sS'CGCGTA'
p2750
I228
sS'CCACTG'
p2751
I285
sS'ATGCAA'
p2752
I255
sS'ATGCAC'
p2753
I251
sS'CGCGTT'
p2754
I49
sS'GGCTGG'
p2755
I3950
sS'GGCTGA'
p2756
I2376
sS'GGCTGC'
p2757
I3791
sS'ATGCAT'
p2758
I69
sS'CCTACC'
p2759
I455
sS'TTTCAT'
p2760
I157
sS'ATGACG'
p2761
I96
sS'GGAGTT'
p2762
I26
sS'ATGACA'
p2763
I475
sS'ATGACC'
p2764
I358
sS'CCTGAT'
p2765
I47
sS'GGGCCT'
p2766
I217
sS'ATGACT'
p2767
I272
sS'GGAGTA'
p2768
I147
sS'CTACGC'
p2769
I65
sS'GGAGTC'
p2770
I85
sS'GGAGTG'
p2771
I274
sS'GGGCCG'
p2772
I276
sS'GGGCCC'
p2773
I577
sS'GGGCCA'
p2774
I454
sS'CTGATC'
p2775
I213
sS'ACGAGT'
p2776
I18
sS'AGGCCA'
p2777
I763
sS'GCGCAC'
p2778
I62
sS'AGGCCG'
p2779
I369
sS'ACGAGG'
p2780
I142
sS'ACGAGC'
p2781
I81
sS'ACGAGA'
p2782
I61
sS'CTGATG'
p2783
I861
sS'AGGCCT'
p2784
I325
sS'AGACGG'
p2785
I68
sS'GGGTTG'
p2786
I813
sS'GACTAC'
p2787
I1700
sS'GGGTTA'
p2788
I512
sS'GGGTTC'
p2789
I300
sS'TTTGAT'
p2790
I105
sS'TGAACT'
p2791
I165
sS'CTACGA'
p2792
I39
sS'AACGGT'
p2793
I108
sS'GGGTTT'
p2794
I128
sS'TGCGAC'
p2795
I219
sS'AGAAAT'
p2796
I102
sS'TGCGAG'
p2797
I319
sS'ATTGCC'
p2798
I201
sS'TTTGAG'
p2799
I525
sS'AACGGA'
p2800
I380
sS'GACTAG'
p2801
I1583
sS'AACGGG'
p2802
I500
sS'TTTGAC'
p2803
I367
sS'TTTGAA'
p2804
I548
sS'ATCATC'
p2805
I597
sS'CGGGCT'
p2806
I78
sS'CTCGTA'
p2807
I311
sS'CTCGTC'
p2808
I265
sS'CCCTGG'
p2809
I2828
sS'CCCTGA'
p2810
I1657
sS'CTCGTG'
p2811
I717
sS'CCCTGC'
p2812
I3094
sS'CCCTGT'
p2813
I773
sS'AAGCTC'
p2814
I718
sS'GATATA'
p2815
I857
sS'AAGCTA'
p2816
I925
sS'GATATG'
p2817
I1025
sS'AAGCTG'
p2818
I2236
sS'TGACGC'
p2819
I55
sS'TACTCT'
p2820
I1147
sS'CATCGT'
p2821
I117
sS'GATGGT'
p2822
I300
sS'CAGGGT'
p2823
I175
sS'CTACGG'
p2824
I64
sS'CCAGTC'
p2825
I84
sS'TACGAT'
p2826
I45
sS'CCAGTG'
p2827
I298
sS'TACTCG'
p2828
I554
sS'CATCGA'
p2829
I233
sS'CATCGC'
p2830
I388
sS'TACTCC'
p2831
I1991
sS'TACTCA'
p2832
I3025
sS'CATCGG'
p2833
I279
sS'CAGGGG'
p2834
I795
sS'GAACCT'
p2835
I89
sS'CAGGGA'
p2836
I786
sS'CAGGGC'
p2837
I936
sS'AATCTG'
p2838
I1917
sS'CTTACG'
p2839
I146
sS'AATCTC'
p2840
I803
sS'AATCTA'
p2841
I1128
sS'TGAACG'
p2842
I63
sS'TCACAC'
p2843
I57
sS'TCACAA'
p2844
I61
sS'TCACAG'
p2845
I90
sS'GCCATA'
p2846
I835
sS'CGGACG'
p2847
I119
sS'TCCACC'
p2848
I1760
sS'CGGACA'
p2849
I151
sS'CGGACC'
p2850
I243
sS'GCCATG'
p2851
I1744
sS'CTTACC'
p2852
I570
sS'CTCGGC'
p2853
I858
sS'TCACAT'
p2854
I17
sS'ACATCA'
p2855
I219
sS'ATTAAC'
p2856
I383
sS'ATTAAA'
p2857
I624
sS'ATTAAG'
p2858
I453
sS'TTTTAC'
p2859
I638
sS'TCACTT'
p2860
I30
sS'ACTCCT'
p2861
I96
sS'TGAACA'
p2862
I331
sS'ATTAAT'
p2863
I106
sS'GAACCA'
p2864
I235
sS'GGTATG'
p2865
I436
sS'GGTATA'
p2866
I301
sS'GGTATC'
p2867
I128
sS'GAACCG'
p2868
I77
sS'CAATGA'
p2869
I269
sS'ACGAAT'
p2870
I15
sS'CTGAAA'
p2871
I365
sS'CTGAAC'
p2872
I306
sS'CTGAAG'
p2873
I502
sS'ATTGTA'
p2874
I458
sS'NNNNGA'
p2875
I1
sS'TAGGTA'
p2876
I510
sS'CATTGC'
p2877
I1631
sS'CCCGGC'
p2878
I875
sS'CATTGA'
p2879
I1252
sS'CTAGTT'
p2880
I38
sS'CATTGG'
p2881
I1633
sS'TCAACT'
p2882
I109
sS'ACCATC'
p2883
I440
sS'ACACCG'
p2884
I19
sS'CTGCCA'
p2885
I1731
sS'CTGCCC'
p2886
I2502
sS'ACACCC'
p2887
I90
sS'ACACCA'
p2888
I69
sS'CTGCCG'
p2889
I673
sS'CTAGTG'
p2890
I325
sS'TCAACC'
p2891
I174
sS'ATGTTC'
p2892
I422
sS'CTAGTC'
p2893
I110
sS'TCAACG'
p2894
I29
sS'CTAGTA'
p2895
I192
sS'CATTGT'
p2896
I815
sS'TATGAC'
p2897
I591
sS'GTAATG'
p2898
I477
sS'ACACCT'
p2899
I33
sS'CTGCCT'
p2900
I991
sS'TATCAC'
p2901
I594
sS'CCTCGT'
p2902
I58
sS'TATGAA'
p2903
I570
sS'AGACTG'
p2904
I320
sS'TCACTG'
p2905
I419
sS'AGACTA'
p2906
I170
sS'CCTCGG'
p2907
I435
sS'CCTCGC'
p2908
I442
sS'CCCGAC'
p2909
I266
sS'CCTCGA'
p2910
I160
sS'CGAGGA'
p2911
I65
sS'CGAGGC'
p2912
I98
sS'CGAGGG'
p2913
I98
sS'ACTTTC'
p2914
I700
sS'ACTTTA'
p2915
I1461
sS'ACTTTG'
p2916
I1780
sS'GACCTG'
p2917
I3826
sS'GACCTA'
p2918
I1669
sS'GACCTC'
p2919
I1743
sS'CACCGG'
p2920
I763
sS'CTATTG'
p2921
I767
sS'CACCGA'
p2922
I457
sS'CACCGC'
p2923
I1220
sS'GACCTT'
p2924
I579
sS'GGACGC'
p2925
I64
sS'GGACGG'
p2926
I56
sS'ACGCTA'
p2927
I93
sS'CACAGC'
p2928
I3339
sS'CTTATC'
p2929
I304
sS'CACAGA'
p2930
I2847
sS'CTTATA'
p2931
I634
sS'CACAGG'
p2932
I3253
sS'CTTATG'
p2933
I745
sS'ACTCAT'
p2934
I72
sS'GAGGAG'
p2935
I1952
sS'GACGTA'
p2936
I550
sS'CTTGAC'
p2937
I367
sS'GACGTC'
p2938
I482
sS'GAGGAC'
p2939
I927
sS'GAGGAA'
p2940
I1137
sS'GACGTG'
p2941
I1475
sS'TTAACA'
p2942
I424
sS'ACTCAC'
p2943
I356
sS'TTAACC'
p2944
I331
sS'TATGAT'
p2945
I166
sS'ACTCAG'
p2946
I475
sS'CTTATT'
p2947
I153
sS'CACAGT'
p2948
I1181
sS'AGCGAC'
p2949
I335
sS'TAAACA'
p2950
I1485
sS'AGCGAA'
p2951
I278
sS'TAAACC'
p2952
I432
sS'AGCGAG'
p2953
I582
sS'CGTATT'
p2954
I36
sS'TAAACG'
p2955
I97
sS'CTGTGG'
p2956
I1808
sS'GTATGT'
p2957
I280
sS'AGTTCA'
p2958
I1331
sS'CTGTGC'
p2959
I1427
sS'TAGCCC'
p2960
I506
sS'CTGTGA'
p2961
I1161
sS'CGGGGT'
p2962
I62
sS'GTCGCA'
p2963
I276
sS'TAGGAC'
p2964
I314
sS'GCAAAG'
p2965
I197
sS'TAGGAA'
p2966
I355
sS'GCAAAA'
p2967
I116
sS'TAGGAG'
p2968
I467
sS'GCAAAC'
p2969
I167
sS'CGGGGC'
p2970
I339
sS'CGGGGA'
p2971
I202
sS'CTGTGT'
p2972
I896
sS'GTATGA'
p2973
I308
sS'GTATGC'
p2974
I259
sS'AGTGGA'
p2975
I515
sS'GCAAAT'
p2976
I54
sS'CGAGAA'
p2977
I25
sS'TAGGAT'
p2978
I55
sS'AAAAAT'
p2979
I114
sS'GCATAT'
p2980
I39
sS'TGCTTT'
p2981
I1307
sS'GTCTAT'
p2982
I312
sS'GTAATT'
p2983
I75
sS'GTTACC'
p2984
I411
sS'TATCGG'
p2985
I172
sS'TAATTC'
p2986
I271
sS'TATCGA'
p2987
I144
sS'TATCGC'
p2988
I218
sS'TATAGT'
p2989
I389
sS'GTCTAA'
p2990
I1130
sS'TGCTTA'
p2991
I4060
sS'GTCTAC'
p2992
I893
sS'TGCTTC'
p2993
I3473
sS'TTCAAA'
p2994
I2005
sS'TTCAAC'
p2995
I1255
sS'TGCTTG'
p2996
I5214
sS'TATAGC'
p2997
I632
sS'TTTATC'
p2998
I419
sS'TATAGA'
p2999
I875
sS'AGCTCA'
p3000
I2967
sS'TATAGG'
p3001
I821
sS'GTTACT'
p3002
I263
sS'GGAAAA'
p3003
I183
sS'AACCTT'
p3004
I397
sS'GGGCTA'
p3005
I460
sS'GCTCTG'
p3006
I1991
sS'CCACGT'
p3007
I18
sS'GGAAAG'
p3008
I280
sS'CAGGAG'
p3009
I667
sS'GAATGG'
p3010
I647
sS'GGCTTT'
p3011
I701
sS'ACTACT'
p3012
I110
sS'GAATGC'
p3013
I517
sS'GCATAA'
p3014
I77
sS'GGCGTC'
p3015
I253
sS'CCACGC'
p3016
I51
sS'GGCGTA'
p3017
I275
sS'GGCGTG'
p3018
I1094
sS'CCACGG'
p3019
I44
sS'AACCTA'
p3020
I1498
sS'GGCTTA'
p3021
I2361
sS'ACTACC'
p3022
I217
sS'GGCTTC'
p3023
I2642
sS'ACTACA'
p3024
I362
sS'ACTACG'
p3025
I90
sS'GGCTTG'
p3026
I3976
sS'TCCTAG'
p3027
I1114
sS'AGTCAG'
p3028
I1000
sS'CGTTGC'
p3029
I521
sS'TAACAC'
p3030
I110
sS'TCCTAC'
p3031
I960
sS'AGTCAC'
p3032
I876
sS'TCCTAA'
p3033
I1212
sS'AGTCAA'
p3034
I536
sS'TCATCG'
p3035
I58
sS'AAGCGT'
p3036
I102
sS'TCATCC'
p3037
I315
sS'GTTTTA'
p3038
I2537
sS'CTTTCT'
p3039
I758
sS'AGTCAT'
p3040
I193
sS'TCCTAT'
p3041
I315
sS'TAACAT'
p3042
I33
sS'CGTTGT'
p3043
I158
sS'CTTTCC'
p3044
I2168
sS'CTTTCA'
p3045
I1613
sS'CTTTCG'
p3046
I353
sS'GCGGGT'
p3047
I35
sS'AGCCGT'
p3048
I262
sS'AAAAAG'
p3049
I474
sS'GTTGAT'
p3050
I58
sS'CGACCA'
p3051
I21
sS'CGACCC'
p3052
I40
sS'GCATAC'
p3053
I48
sS'CGACCG'
p3054
I7
sS'CCTTAT'
p3055
I108
sS'GTTGAC'
p3056
I368
sS'GTTGAA'
p3057
I264
sS'CGTCAA'
p3058
I109
sS'GTTGAG'
p3059
I355
sS'CCTTAC'
p3060
I324
sS'TTCGAT'
p3061
I39
sS'CCTTAA'
p3062
I455
sS'CCTTAG'
p3063
I500
sS'CGACCT'
p3064
I6
sS'AATAGA'
p3065
I1012
sS'AATAGC'
p3066
I807
sS'CAACTG'
p3067
I307
sS'AATAGG'
p3068
I978
sS'AATATC'
p3069
I389
sS'TCGCTC'
p3070
I79
sS'GGGGTT'
p3071
I46
sS'GGATGT'
p3072
I82
sS'AATAGT'
p3073
I393
sS'CCAAGA'
p3074
I219
sS'CAACTT'
p3075
I23
sS'GGGGTG'
p3076
I621
sS'GGATGA'
p3077
I130
sS'GGGGTC'
p3078
I108
sS'GGGGTA'
p3079
I196
sS'TCTCCG'
p3080
I168
sS'GAGTCC'
p3081
I1863
sS'GAGTCA'
p3082
I2421
sS'TCTCCC'
p3083
I518
sS'GAGTCG'
p3084
I535
sS'TCTCCA'
p3085
I502
sS'AAACTC'
p3086
I163
sS'CTATGA'
p3087
I339
sS'AGTACG'
p3088
I115
sS'CTATGC'
p3089
I316
sS'AGTACC'
p3090
I412
sS'ACGCGG'
p3091
I86
sS'AGTACA'
p3092
I647
sS'CCCTTA'
p3093
I2329
sS'CCCTTC'
p3094
I2671
sS'TCTCCT'
p3095
I154
sS'CCCTTG'
p3096
I3671
sS'AGTACT'
p3097
I236
sS'CTATGT'
p3098
I262
sS'GCCGAA'
p3099
I176
sS'GTGGAG'
p3100
I444
sS'GCCGAC'
p3101
I309
sS'GTGGAC'
p3102
I247
sS'GCCGAG'
p3103
I578
sS'GTGGAA'
p3104
I260
sS'GTGGAT'
p3105
I57
sS'GCCGAT'
p3106
I24
sS'AGATAG'
p3107
I60
sS'TATCTG'
p3108
I2072
sS'CACTGT'
p3109
I1648
sS'GTAGTC'
p3110
I102
sS'AAATCG'
p3111
I62
sS'CACGCG'
p3112
I397
sS'TTATCG'
p3113
I57
sS'GTAGTG'
p3114
I316
sS'AAATCC'
p3115
I317
sS'CACGCC'
p3116
I896
sS'AAATCA'
p3117
I400
sS'CTACGT'
p3118
I24
sS'CTCGTT'
p3119
I80
sS'CACGCT'
p3120
I227
sS'AAATCT'
p3121
I143
sS'AAAGTC'
p3122
I167
sS'GTAGTT'
p3123
I47
sS'AGATAA'
p3124
I103
sS'CGTTAT'
p3125
I54
sS'GATGAT'
p3126
I216
sS'GGAGCA'
p3127
I194
sS'GGAGCC'
p3128
I282
sS'CCGGCT'
p3129
I64
sS'CCAAAT'
p3130
I45
sS'GGAGCG'
p3131
I74
sS'AAAACT'
p3132
I205
sS'GATGAC'
p3133
I998
sS'GATGAA'
p3134
I936
sS'GCTCTT'
p3135
I111
sS'GATGAG'
p3136
I1324
sS'AAAACC'
p3137
I473
sS'ACTAAC'
p3138
I240
sS'AAAACA'
p3139
I1141
sS'AAAACG'
p3140
I112
sS'GGAGCT'
p3141
I69
sS'CCAAAG'
p3142
I133
sS'TCGCGG'
p3143
I91
sS'CTAGAG'
p3144
I128
sS'TCGCGC'
p3145
I64
sS'TCGCGA'
p3146
I26
sS'GCCACA'
p3147
I1520
sS'AGATCA'
p3148
I229
sS'GCCACC'
p3149
I1762
sS'AGATCC'
p3150
I204
sS'GCGCTT'
p3151
I33
sS'GCCACG'
p3152
I611
sS'AGATCG'
p3153
I47
sS'ATGTCA'
p3154
I681
sS'TCGCGT'
p3155
I17
sS'GTGCAA'
p3156
I345
sS'ACCCGT'
p3157
I67
sS'AGAAAG'
p3158
I419
sS'CGACGA'
p3159
I10
sS'TACCCG'
p3160
I265
sS'AGAAAC'
p3161
I313
sS'TACCCA'
p3162
I948
sS'AGAAAA'
p3163
I319
sS'ACCTAA'
p3164
I618
sS'ATGTAC'
p3165
I178
sS'ACTTCG'
p3166
I151
sS'ATGTAA'
p3167
I273
sS'ATGTAG'
p3168
I213
sS'CAAGCC'
p3169
I315
sS'GAGGAT'
p3170
I146
sS'CGAAGT'
p3171
I39
sS'ATTAGG'
p3172
I373
sS'CCCAAG'
p3173
I966
sS'CCTATC'
p3174
I152
sS'ATGTAT'
p3175
I102
sS'GTTCCA'
p3176
I356
sS'ACTTCA'
p3177
I744
sS'ATCCAT'
p3178
I71
sS'AGCACT'
p3179
I1015
sS'TTAGAA'
p3180
I108
sS'GACGAG'
p3181
I646
sS'TTAGAC'
p3182
I85
sS'CGGCTC'
p3183
I318
sS'TTAGAG'
p3184
I117
sS'CGGCTA'
p3185
I187
sS'AGCACC'
p3186
I1807
sS'AGCACA'
p3187
I2157
sS'AGCACG'
p3188
I600
sS'CGGCTT'
p3189
I63
sS'TTAGAT'
p3190
I29
sS'AAAGAC'
p3191
I249
sS'CGAAGC'
p3192
I121
sS'AAAGAA'
p3193
I370
sS'AAAGAG'
p3194
I376
sS'ATATCA'
p3195
I282
sS'CGACGT'
p3196
I7
sS'TTATTT'
p3197
I231
sS'TGTGAG'
p3198
I849
sS'TGTGAA'
p3199
I539
sS'ACGTCT'
p3200
I61
sS'TGTGAC'
p3201
I666
sS'ATATCT'
p3202
I134
sS'CCAGCT'
p3203
I87
sS'CACGGT'
p3204
I135
sS'AAAGAT'
p3205
I54
sS'TGTGAT'
p3206
I135
sS'TTATTG'
p3207
I876
sS'TTATTA'
p3208
I987
sS'CATGAT'
p3209
I94
sS'TTATTC'
p3210
I366
sS'ACATCT'
p3211
I82
sS'TTTTAT'
p3212
I304
sS'GCGAAC'
p3213
I61
sS'TACAAG'
p3214
I1402
sS'TCCACT'
p3215
I746
sS'TACAAA'
p3216
I1871
sS'AGACGA'
p3217
I46
sS'TACAAC'
p3218
I1131
sS'CCTCTG'
p3219
I1968
sS'AGGTGG'
p3220
I1033
sS'CCTCTC'
p3221
I676
sS'AGGTGC'
p3222
I579
sS'CCTCTA'
p3223
I759
sS'AGGTGA'
p3224
I636
sS'TACAAT'
p3225
I474
sS'TCCACA'
p3226
I1530
sS'TTTTAG'
p3227
I739
sS'ACATCG'
p3228
I39
sS'TTTTAA'
p3229
I1583
sS'CCAAAC'
p3230
I124
sS'CTTACA'
p3231
I580
sS'TCCACG'
p3232
I496
sS'AGGTGT'
p3233
I345
sS'CCTCTT'
p3234
I136
sS'GCGTGA'
p3235
I165
sS'TATGAG'
p3236
I632
sS'CCCGGA'
p3237
I400
sS'CCCGGG'
p3238
I954
sS'TTGTGT'
p3239
I581
sS'TGGAAT'
p3240
I183
sS'AATTAA'
p3241
I1112
sS'TTGTGC'
p3242
I694
sS'TTGTGA'
p3243
I685
sS'TTGTGG'
p3244
I1080
sS'CCCGGT'
p3245
I100
sS'TGGAAG'
p3246
I599
sS'TGGAAC'
p3247
I324
sS'TGGAAA'
p3248
I408
sS'TGAGGA'
p3249
I180
sS'AAGAGG'
p3250
I2108
sS'TGAGGC'
p3251
I192
sS'AAGAGA'
p3252
I1588
sS'AAGAGC'
p3253
I1131
sS'TGAGGG'
p3254
I246
sS'GCTTAG'
p3255
I443
sS'GCTTAC'
p3256
I282
sS'GCTTAA'
p3257
I410
sS'TCTGAT'
p3258
I68
sS'AAGCGC'
p3259
I444
sS'AAGAGT'
p3260
I445
sS'AAGCGA'
p3261
I285
sS'AAGCGG'
p3262
I551
sS'GCTTAT'
p3263
I96
sS'CTGCTA'
p3264
I1208
sS'GCGTGT'
p3265
I98
sS'CTGCTC'
p3266
I1753
sS'ACTTCT'
p3267
I247
sS'GACCGT'
p3268
I266
sS'CTGCTG'
p3269
I4157
sS'CGGTCA'
p3270
I178
sS'GGTCGT'
p3271
I65
sS'CGGTCC'
p3272
I323
sS'CTAGAA'
p3273
I86
sS'CATGAC'
p3274
I601
sS'GACCGA'
p3275
I627
sS'GACCGC'
p3276
I1140
sS'ACTTCC'
p3277
I966
sS'CTGCTT'
p3278
I587
sS'GACCGG'
p3279
I1107
sS'TCGGAA'
p3280
I29
sS'CTAGAT'
p3281
I22
sS'GGTCGG'
p3282
I353
sS'CGGTCT'
p3283
I80
sS'GGTCGC'
p3284
I362
sS'GGTCGA'
p3285
I158
sS'CGTCGC'
p3286
I346
sS'CAGCAT'
p3287
I102
sS'TGAAGC'
p3288
I296
sS'CGTCGG'
p3289
I281
sS'GCGTGC'
p3290
I207
sS'TGCTCA'
p3291
I2812
sS'TTCATC'
p3292
I1255
sS'TGCTCC'
p3293
I2740
sS'TTCATA'
p3294
I2152
sS'TTCATG'
p3295
I2768
sS'TGCTCG'
p3296
I675
sS'GTACAA'
p3297
I63
sS'CAGCAG'
p3298
I759
sS'GCGGCT'
p3299
I69
sS'CAGCAC'
p3300
I507
sS'CGTCGT'
p3301
I49
sS'TCGGAG'
p3302
I53
sS'TGCTCT'
p3303
I1329
sS'CTGTTC'
p3304
I832
sS'GTAGCC'
p3305
I210
sS'TGGCCG'
p3306
I255
sS'GCTGCA'
p3307
I636
sS'AACTCT'
p3308
I1112
sS'GCTGCG'
p3309
I320
sS'TGGCCA'
p3310
I586
sS'AAGGTC'
p3311
I369
sS'GTAGCA'
p3312
I195
sS'AGCAAA'
p3313
I1781
sS'TGGCCT'
p3314
I270
sS'AACTCC'
p3315
I2589
sS'TTCATT'
p3316
I749
sS'GCTGCT'
p3317
I210
sS'AACTCG'
p3318
I590
sS'CAGTCG'
p3319
I222
sS'AATATT'
p3320
I265
sS'GTTCGA'
p3321
I137
sS'CAACCT'
p3322
I33
sS'GCTGCC'
p3323
I642
sS'GGCACG'
p3324
I471
sS'GGAGGA'
p3325
I247
sS'GGCACA'
p3326
I1203
sS'GACAAT'
p3327
I516
sS'GGCACC'
p3328
I1329
sS'CAACCG'
p3329
I25
sS'ACTGAA'
p3330
I234
sS'AATATG'
p3331
I1172
sS'CGGTCG'
p3332
I80
sS'AATATA'
p3333
I1119
sS'AGCAAG'
p3334
I1927
sS'CAACCA'
p3335
I112
sS'CTTCGT'
p3336
I93
sS'GACAAA'
p3337
I2247
sS'GGCACT'
p3338
I535
sS'GACAAC'
p3339
I1504
sS'ACGACA'
p3340
I64
sS'GACAAG'
p3341
I2200
sS'TGGCCC'
p3342
I684
sS'GCAATC'
p3343
I71
sS'GCAATA'
p3344
I164
sS'GAATTT'
p3345
I81
sS'CGATGG'
p3346
I60
sS'TCCCAT'
p3347
I166
sS'CGATGC'
p3348
I39
sS'GTAAAT'
p3349
I93
sS'CGATGA'
p3350
I40
sS'GAATTA'
p3351
I622
sS'GAATTC'
p3352
I288
sS'GAATTG'
p3353
I603
sS'GTAAAC'
p3354
I313
sS'CTACAC'
p3355
I72
sS'GTAAAA'
p3356
I214
sS'GTAAAG'
p3357
I259
sS'TCCCAG'
p3358
I1162
sS'GGATTT'
p3359
I38
sS'GTGCGT'
p3360
I91
sS'CTATCG'
p3361
I63
sS'GGATTC'
p3362
I74
sS'GGATTA'
p3363
I300
sS'GGATTG'
p3364
I235
sS'ACCTCT'
p3365
I551
sS'TCAAAT'
p3366
I66
sS'CTATCA'
p3367
I386
sS'ACGTTC'
p3368
I96
sS'ATATAG'
p3369
I90
sS'TCTGTG'
p3370
I1702
sS'TCTGTC'
p3371
I466
sS'TCTGTA'
p3372
I942
sS'GGCGGC'
p3373
I1018
sS'CTCCTT'
p3374
I829
sS'GGCGGA'
p3375
I564
sS'GGCGGG'
p3376
I1728
sS'AACCGA'
p3377
I396
sS'CTATCC'
p3378
I389
sS'TCTGTT'
p3379
I143
sS'AAAGCG'
p3380
I150
sS'CTCCTG'
p3381
I5485
sS'AACCGT'
p3382
I162
sS'CTCCTA'
p3383
I2428
sS'CTCCTC'
p3384
I3158
sS'GGCGGT'
p3385
I158
sS'GACGCA'
p3386
I934
sS'GACGCC'
p3387
I1279
sS'AACAAC'
p3388
I1574
sS'CCCACC'
p3389
I2031
sS'TACTTC'
p3390
I2642
sS'AGCCTT'
p3391
I520
sS'CCGATT'
p3392
I11
sS'CCCACT'
p3393
I576
sS'AACAAT'
p3394
I583
sS'GACGCT'
p3395
I432
sS'AGCGGT'
p3396
I142
sS'CCGATA'
p3397
I38
sS'AGCCTG'
p3398
I4513
sS'AGCCTA'
p3399
I1591
sS'CCGATG'
p3400
I86
sS'GTACCC'
p3401
I99
sS'TGGTTG'
p3402
I949
sS'TGGTTA'
p3403
I772
sS'CGCCTT'
p3404
I224
sS'AGGCAT'
p3405
I116
sS'CAGAGT'
p3406
I448
sS'GCATCT'
p3407
I105
sS'ACCTCG'
p3408
I467
sS'GAGTTG'
p3409
I2120
sS'CGCCTC'
p3410
I1244
sS'GCGCCA'
p3411
I117
sS'CGCCTA'
p3412
I673
sS'GAGTTC'
p3413
I977
sS'CGCCTG'
p3414
I2099
sS'GAGTTA'
p3415
I1562
sS'CAGAGG'
p3416
I1847
sS'GCATCC'
p3417
I229
sS'GTGCGG'
p3418
I388
sS'CAGAGC'
p3419
I1327
sS'GCATCG'
p3420
I48
sS'CAGAGA'
p3421
I1248
sS'AATCAT'
p3422
I219
sS'TAGCTA'
p3423
I707
sS'CCGATC'
p3424
I11
sS'AGACTC'
p3425
I119
sS'CCTAGA'
p3426
I378
sS'CCTAGC'
p3427
I345
sS'TTTGCT'
p3428
I253
sS'TAGCTC'
p3429
I511
sS'TGCGGT'
p3430
I122
sS'CCTAGG'
p3431
I543
sS'TAAGCA'
p3432
I416
sS'GTCTAG'
p3433
I1127
sS'TTTGCA'
p3434
I668
sS'TGCGGA'
p3435
I293
sS'CCTAGT'
p3436
I150
sS'TGCGGG'
p3437
I632
sS'TTTGCG'
p3438
I126
sS'TGAGTT'
p3439
I41
sS'CGGGAC'
p3440
I154
sS'ATCGCT'
p3441
I73
sS'ATCGCC'
p3442
I235
sS'CAATTA'
p3443
I333
sS'ATCGCA'
p3444
I152
sS'TGAGTA'
p3445
I207
sS'ATCGCG'
p3446
I91
sS'TGAGTC'
p3447
I149
sS'AAGGTG'
p3448
I1029
sS'ACGGCT'
p3449
I30
sS'CATCAT'
p3450
I209
sS'AAGGTA'
p3451
I657
sS'ACGGCA'
p3452
I73
sS'CATCAC'
p3453
I893
sS'ACGGCC'
p3454
I147
sS'CATCAA'
p3455
I728
sS'CATCAG'
p3456
I999
sS'ACGGCG'
p3457
I52
sS'TCACCT'
p3458
I36
sS'CGGAAT'
p3459
I29
sS'CAATTC'
p3460
I149
sS'ATCGAT'
p3461
I10
sS'TCACCG'
p3462
I31
sS'TCACCA'
p3463
I107
sS'TCACCC'
p3464
I117
sS'CGGAAG'
p3465
I346
sS'CAACCC'
p3466
I123
sS'CGGCCT'
p3467
I117
sS'CGGAAC'
p3468
I123
sS'CGGAAA'
p3469
I105
sS'TAGCTT'
p3470
I147
sS'TGTGTC'
p3471
I549
sS'TGTGTA'
p3472
I1304
sS'CCGTAG'
p3473
I38
sS'ATGGCC'
p3474
I371
sS'ATGGCA'
p3475
I458
sS'ATCCCT'
p3476
I286
sS'ATGGCT'
p3477
I114
sS'TGTGTT'
p3478
I171
sS'CCAAGT'
p3479
I113
sS'AGATTA'
p3480
I314
sS'GAAACG'
p3481
I207
sS'GAAACA'
p3482
I890
sS'GAAACC'
p3483
I737
sS'AGATAC'
p3484
I73
sS'CTGAGT'
p3485
I346
sS'GAAACT'
p3486
I302
sS'AAGATC'
p3487
I271
sS'AGAATA'
p3488
I409
sS'AGAATC'
p3489
I170
sS'CTGAGC'
p3490
I793
sS'CTGAGA'
p3491
I805
sS'CTGAGG'
p3492
I1256
sS'CATACC'
p3493
I577
sS'CATACA'
p3494
I898
sS'GCGCGT'
p3495
I27
sS'CATACG'
p3496
I156
sS'TGCCTA'
p3497
I1646
sS'CGAGCC'
p3498
I119
sS'GTCCAT'
p3499
I137
sS'AGGGGT'
p3500
I113
sS'TCGGTT'
p3501
I8
sS'CAGGAC'
p3502
I447
sS'CATACT'
p3503
I307
sS'AATGGC'
p3504
I677
sS'GTCCAG'
p3505
I1092
sS'CAAGCT'
p3506
I101
sS'TCAAAG'
p3507
I189
sS'CACGAG'
p3508
I309
sS'GTCCAC'
p3509
I685
sS'GTCCAA'
p3510
I624
sS'CGGCGG'
p3511
I414
sS'TTGATG'
p3512
I671
sS'CTCATT'
p3513
I559
sS'CGGCGC'
p3514
I341
sS'TTGATC'
p3515
I174
sS'CGGCGA'
p3516
I108
sS'TTGATA'
p3517
I410
sS'CTATCT'
p3518
I188
sS'TTGATT'
p3519
I89
sS'CGAGTG'
p3520
I107
sS'GTACGC'
p3521
I49
sS'ATCGAC'
p3522
I70
sS'CCATTA'
p3523
I339
sS'TGACTT'
p3524
I37
sS'CGAGTA'
p3525
I35
sS'CGGTTA'
p3526
I201
sS'GGTTTA'
p3527
I1426
sS'CGGTTC'
p3528
I136
sS'GGTTTC'
p3529
I893
sS'TTTACA'
p3530
I1042
sS'CGGTTG'
p3531
I286
sS'GGTTTG'
p3532
I1998
sS'TATAAA'
p3533
I1177
sS'ATCCCA'
p3534
I733
sS'GCTGTG'
p3535
I1644
sS'GGTTTT'
p3536
I232
sS'CGGTTT'
p3537
I37
sS'GCTGTA'
p3538
I737
sS'TATGCG'
p3539
I134
sS'AGGTTG'
p3540
I975
sS'AGGTTC'
p3541
I350
sS'AGGTTA'
p3542
I796
sS'GAGGGA'
p3543
I1852
sS'TTTTTC'
p3544
I1363
sS'GAGGGC'
p3545
I1670
sS'TTTTTA'
p3546
I3392
sS'TTTTTG'
p3547
I2849
sS'GAGGGG'
p3548
I2245
sS'TTAAAT'
p3549
I150
sS'AGGTTT'
p3550
I173
sS'TAAGCG'
p3551
I77
sS'ACATAT'
p3552
I50
sS'TTAAAC'
p3553
I277
sS'ATACGT'
p3554
I14
sS'TTAAAA'
p3555
I386
sS'ACTCCG'
p3556
I92
sS'TTAAAG'
p3557
I398
sS'ACTCCA'
p3558
I257
sS'TTTTTT'
p3559
I615
sS'ACTCCC'
p3560
I257
sS'CTGTAA'
p3561
I416
sS'GTCACG'
p3562
I587
sS'CTGTAC'
p3563
I357
sS'GCAACT'
p3564
I70
sS'GTCACC'
p3565
I1815
sS'CTGTAG'
p3566
I403
sS'GTCACA'
p3567
I1910
sS'GCAACG'
p3568
I49
sS'GGTCTT'
p3569
I91
sS'GTCACT'
p3570
I946
sS'TAGGCG'
p3571
I200
sS'ACGAAA'
p3572
I40
sS'TAGGCA'
p3573
I713
sS'GCAACA'
p3574
I228
sS'TAGGCC'
p3575
I635
sS'CGATGT'
p3576
I34
sS'ATTCAT'
p3577
I105
sS'TCCCAC'
p3578
I738
sS'GCGATT'
p3579
I16
sS'TCGTGT'
p3580
I59
sS'TTCACT'
p3581
I1119
sS'GTCTCT'
p3582
I1570
sS'AACATT'
p3583
I497
sS'ATTCAG'
p3584
I424
sS'ATTCAA'
p3585
I375
sS'ATTCAC'
p3586
I336
sS'GTCTCC'
p3587
I3537
sS'CCACTA'
p3588
I99
sS'GTCTCA'
p3589
I3172
sS'GCGATG'
p3590
I134
sS'GTCTCG'
p3591
I998
sS'GCGATA'
p3592
I52
sS'TTCACA'
p3593
I2234
sS'GCGATC'
p3594
I30
sS'GAAGGC'
p3595
I646
sS'GAAGGA'
p3596
I717
sS'GAAGGG'
p3597
I955
sS'CGATTA'
p3598
I47
sS'GGAACC'
p3599
I261
sS'AGACTT'
p3600
I33
sS'GGAACA'
p3601
I224
sS'GGAACG'
p3602
I67
sS'TACTGC'
p3603
I2419
sS'TCATAC'
p3604
I82
sS'GAAGGT'
p3605
I137
sS'CTCGCT'
p3606
I316
sS'CAATCG'
p3607
I60
sS'ATAGTC'
p3608
I66
sS'GGAACT'
p3609
I121
sS'TCCTGA'
p3610
I2357
sS'AGTCCA'
p3611
I544
sS'TCCTGC'
p3612
I3771
sS'AGTCCC'
p3613
I695
sS'ACTAAA'
p3614
I295
sS'TCCTGG'
p3615
I4005
sS'CGACTA'
p3616
I32
sS'TAACGC'
p3617
I74
sS'TAACGA'
p3618
I45
sS'TAACGG'
p3619
I94
sS'CAGCTC'
p3620
I787
sS'ACTAAT'
p3621
I62
sS'CGACTC'
p3622
I26
sS'AGTCCT'
p3623
I207
sS'TCCTGT'
p3624
I1631
sS'TAATGT'
p3625
I199
sS'CAGCTT'
p3626
I180
sS'TAACGT'
p3627
I23
sS'TTGACC'
p3628
I410
sS'GTACTT'
p3629
I37
sS'TTGTTC'
p3630
I718
sS'TTGTTA'
p3631
I1305
sS'CGACTG'
p3632
I70
sS'CCGAGA'
p3633
I128
sS'TTGACA'
p3634
I477
sS'CCGAGC'
p3635
I152
sS'CCGCGT'
p3636
I17
sS'GTACTG'
p3637
I329
sS'CGACAA'
p3638
I5
sS'GTACTC'
p3639
I102
sS'GTACTA'
p3640
I173
sS'CCGCGC'
p3641
I158
sS'TTGACG'
p3642
I104
sS'CCGCGA'
p3643
I52
sS'CCGCGG'
p3644
I147
sS'TTGTTT'
p3645
I466
sS'TCCGTT'
p3646
I82
sS'AGGAAC'
p3647
I496
sS'AATAAC'
p3648
I885
sS'AATAAA'
p3649
I1723
sS'AATAAG'
p3650
I1029
sS'TGGTAC'
p3651
I164
sS'CATTCC'
p3652
I2008
sS'AATAAT'
p3653
I331
sS'ACGGTG'
p3654
I137
sS'CCAACC'
p3655
I278
sS'CTCAGT'
p3656
I1158
sS'CCAACG'
p3657
I56
sS'GGGATT'
p3658
I86
sS'CGCCGC'
p3659
I2198
sS'GTGTAT'
p3660
I177
sS'CGCCGA'
p3661
I450
sS'GAGTAG'
p3662
I708
sS'CGCCGG'
p3663
I1282
sS'GAGTAA'
p3664
I710
sS'GAGTAC'
p3665
I465
sS'CTCAGG'
p3666
I3467
sS'CTCAGC'
p3667
I3471
sS'CTCAGA'
p3668
I2546
sS'GAGTAT'
p3669
I141
sS'ATCGTC'
p3670
I82
sS'GTGTAG'
p3671
I376
sS'TCGAGC'
p3672
I68
sS'GTGTAA'
p3673
I364
sS'GTGTAC'
p3674
I352
sS'CGCCGT'
p3675
I209
sS'GTGGCA'
p3676
I864
sS'GTGGCC'
p3677
I1001
sS'ATCGTA'
p3678
I173
sS'GTGGCG'
p3679
I313
sS'GCCGCC'
p3680
I1353
sS'GCCGCA'
p3681
I582
sS'GCCGCG'
p3682
I634
sS'ACACTT'
p3683
I22
sS'CATATG'
p3684
I1000
sS'AGATAT'
p3685
I48
sS'GTGGCT'
p3686
I301
sS'CATATA'
p3687
I978
sS'TCAGCA'
p3688
I191
sS'TACTAC'
p3689
I1099
sS'ACACTC'
p3690
I73
sS'ACACTA'
p3691
I139
sS'ACACTG'
p3692
I295
sS'GCCGCT'
p3693
I276
sS'ACCGGA'
p3694
I203
sS'TAGTAA'
p3695
I399
sS'ACCGGC'
p3696
I234
sS'AAATAC'
p3697
I190
sS'CTTTAA'
p3698
I1154
sS'ACCGGG'
p3699
I332
sS'AAATAG'
p3700
I158
sS'AACTTA'
p3701
I3059
sS'CAGGTA'
p3702
I446
sS'AACTTC'
p3703
I2459
sS'CAGGTC'
p3704
I287
sS'CACGAC'
p3705
I281
sS'AACTTG'
p3706
I4227
sS'CAGGTG'
p3707
I923
sS'CTTTAT'
p3708
I256
sS'AATCCC'
p3709
I678
sS'GCTCGT'
p3710
I44
sS'AATCCA'
p3711
I671
sS'AAATAT'
p3712
I86
sS'AATCCG'
p3713
I186
sS'GCAAGT'
p3714
I130
sS'CAGGTT'
p3715
I68
sS'AACTTT'
p3716
I746
sS'GGGATA'
p3717
I317
sS'GGGATC'
p3718
I157
sS'GGGTGT'
p3719
I283
sS'GGGATG'
p3720
I734
sS'GATGCT'
p3721
I436
sS'CGCAGT'
p3722
I366
sS'GAGCCT'
p3723
I548
sS'GGAGAC'
p3724
I117
sS'AACCGG'
p3725
I618
sS'GGAGAA'
p3726
I92
sS'GGGTGC'
p3727
I457
sS'GGAGAG'
p3728
I146
sS'GGGTGG'
p3729
I1008
sS'GAGCCA'
p3730
I1589
sS'GAGCCC'
p3731
I1782
sS'GATGCG'
p3732
I339
sS'CGCAGA'
p3733
I660
sS'GATGCA'
p3734
I1096
sS'CGCAGC'
p3735
I1450
sS'GATGCC'
p3736
I1015
sS'ACGAAC'
p3737
I43
sS'GGTAGT'
p3738
I152
sS'ACCCCT'
p3739
I182
sS'GCCAAT'
p3740
I320
sS'AACCGC'
p3741
I661
sS'AGAAGT'
p3742
I211
sS'ACCCCA'
p3743
I492
sS'GGTAGA'
p3744
I472
sS'ACCCCC'
p3745
I369
sS'CGGATG'
p3746
I216
sS'GCCAAG'
p3747
I1240
sS'CGGATA'
p3748
I90
sS'ACCCCG'
p3749
I210
sS'CGGATC'
p3750
I64
sS'AGAAGA'
p3751
I531
sS'AGAAGC'
p3752
I521
sS'CAGTCT'
p3753
I447
sS'AGAAGG'
p3754
I806
sS'CACTCC'
p3755
I3161
sS'CACTCA'
p3756
I3289
sS'CACTCG'
p3757
I771
sS'TGCGTT'
p3758
I66
sS'TCAGCT'
p3759
I54
sS'AGCTTT'
p3760
I927
sS'CCCCGG'
p3761
I716
sS'TGCGTA'
p3762
I339
sS'TGCGTG'
p3763
I946
sS'CACTCT'
p3764
I1217
sS'AGCTTC'
p3765
I3071
sS'AGCTTA'
p3766
I3060
sS'AGCTTG'
p3767
I4380
sS'ATACGA'
p3768
I22
sS'AGACCA'
p3769
I92
sS'CCACTT'
p3770
I35
sS'TTAGCT'
p3771
I74
sS'GTATAA'
p3772
I150
sS'TTAGCC'
p3773
I175
sS'TTAGCA'
p3774
I212
sS'CTAGCA'
p3775
I220
sS'TTAGCG'
p3776
I52
sS'CGATCC'
p3777
I43
sS'TCATAT'
p3778
I44
sS'AAGGGG'
p3779
I1180
sS'ATAAGG'
p3780
I331
sS'TGTGCT'
p3781
I272
sS'AAGGGC'
p3782
I912
sS'ATAAGC'
p3783
I224
sS'AAGGGA'
p3784
I1076
sS'ATAAGA'
p3785
I279
sS'CCAGAC'
p3786
I63
sS'CCAGAA'
p3787
I55
sS'CCAGAG'
p3788
I99
sS'TGTGCG'
p3789
I263
sS'CTACCT'
p3790
I61
sS'ATAAGT'
p3791
I105
sS'AAGGGT'
p3792
I205
sS'TGTGCC'
p3793
I604
sS'ATAGGA'
p3794
I124
sS'TGTGCA'
p3795
I693
sS'ATAGGC'
p3796
I77
sS'TAAGTT'
p3797
I51
sS'AGACCG'
p3798
I26
sS'CCAGAT'
p3799
I26
sS'AGACAA'
p3800
I70
sS'AACAAG'
p3801
I1790
sS'CGTGGT'
p3802
I99
sS'AGACAG'
p3803
I125
sS'TTTTCT'
p3804
I696
sS'CGCTGT'
p3805
I465
sS'CCCACG'
p3806
I498
sS'TCAAGA'
p3807
I203
sS'CGTGGG'
p3808
I417
sS'CGTGGC'
p3809
I320
sS'CGTGGA'
p3810
I193
sS'TTTTCG'
p3811
I233
sS'CGCTGA'
p3812
I972
sS'CGCTGC'
p3813
I2191
sS'TTTTCC'
p3814
I1588
sS'TTTTCA'
p3815
I1432
sS'CGCTGG'
p3816
I1734
sS'TATGGA'
p3817
I472
sS'TATGGC'
p3818
I461
sS'CGTAGG'
p3819
I254
sS'GACGCG'
p3820
I795
sS'TATGGG'
p3821
I543
sS'CGTAGC'
p3822
I213
sS'TACCGT'
p3823
I151
sS'AAGTGT'
p3824
I465
sS'TGGACT'
p3825
I217
sS'CGTAGT'
p3826
I98
sS'GCTCGA'
p3827
I148
sS'TATGGT'
p3828
I207
sS'ATTCCT'
p3829
I92
sS'TGGACA'
p3830
I491
sS'TGGACC'
p3831
I387
sS'TGGACG'
p3832
I168
sS'CCGGTT'
p3833
I16
sS'CTAGCT'
p3834
I78
sS'GCTTGA'
p3835
I601
sS'TGAGAC'
p3836
I90
sS'GCTTGC'
p3837
I766
sS'TGAGAA'
p3838
I96
sS'TGAGAG'
p3839
I108
sS'GCTTGG'
p3840
I1007
sS'CCTGTT'
p3841
I95
sS'CCGGTG'
p3842
I162
sS'AGGATT'
p3843
I134
sS'ACTTAT'
p3844
I66
sS'CCTGTC'
p3845
I324
sS'CCTGTA'
p3846
I677
sS'CCTGTG'
p3847
I1323
sS'GCTTGT'
p3848
I266
sS'TGAGAT'
p3849
I32
sS'TACCAA'
p3850
I766
sS'GGTTGT'
p3851
I325
sS'ACTGCG'
p3852
I157
sS'AGGGAT'
p3853
I57
sS'TAAACT'
p3854
I253
sS'TATCAG'
p3855
I770
sS'ACAATA'
p3856
I287
sS'GGTTGG'
p3857
I1060
sS'GGTTGA'
p3858
I676
sS'GGTTGC'
p3859
I854
sS'ACTATT'
p3860
I71
sS'GGAAAC'
p3861
I192
sS'TCCCGC'
p3862
I1066
sS'TCCCGA'
p3863
I383
sS'TCCCGG'
p3864
I1012
sS'TGCTAT'
p3865
I373
sS'CGTTTT'
p3866
I111
sS'ATTCTC'
p3867
I415
sS'AGGGAA'
p3868
I304
sS'ATTCTA'
p3869
I661
sS'ATTCTG'
p3870
I1050
sS'TCATTT'
p3871
I121
sS'GTAACT'
p3872
I156
sS'TGCTAA'
p3873
I1587
sS'TATACT'
p3874
I366
sS'TGCTAG'
p3875
I1192
sS'CAGCGG'
p3876
I502
sS'AGGATC'
p3877
I235
sS'TCATTC'
p3878
I287
sS'TCATTA'
p3879
I465
sS'TCATTG'
p3880
I636
sS'ATTCTT'
p3881
I111
sS'CGTTTC'
p3882
I488
sS'CCACTC'
p3883
I85
sS'TGGCAA'
p3884
I240
sS'TGGCAC'
p3885
I276
sS'TGGCAG'
p3886
I470
sS'GCTGAG'
p3887
I701
sS'GCTGAA'
p3888
I278
sS'GCTGAC'
p3889
I382
sS'TGGCAT'
p3890
I84
sS'GGCCGG'
p3891
I1407
sS'TCCGGT'
p3892
I200
sS'AGCCTC'
p3893
I2188
sS'GGCCGC'
p3894
I1628
sS'GAACTT'
p3895
I58
sS'GGCCGA'
p3896
I585
sS'GGCAAT'
p3897
I178
sS'CTGATT'
p3898
I119
sS'CCATCG'
p3899
I52
sS'CTAAAT'
p3900
I70
sS'CCATCC'
p3901
I317
sS'CCATCA'
p3902
I220
sS'GGCAAG'
p3903
I1200
sS'CTGATA'
p3904
I476
sS'GAGTTT'
p3905
I360
sS'GGCAAC'
p3906
I918
sS'GGCAAA'
p3907
I935
sS'CTAAAG'
p3908
I262
sS'CCATCT'
p3909
I156
sS'CTAAAC'
p3910
I172
sS'CTAAAA'
p3911
I200
sS'GACACC'
p3912
I2230
sS'GACACA'
p3913
I3124
sS'GACACG'
p3914
I891
sS'TGGTTC'
p3915
I429
sS'TAGCGA'
p3916
I168
sS'TACGAG'
p3917
I214
sS'TACGAC'
p3918
I136
sS'GACACT'
p3919
I1219
sS'CCGTGA'
p3920
I106
sS'AGTCCG'
p3921
I187
sS'ACGCTG'
p3922
I253
sS'CTATTA'
p3923
I733
sS'CTATTC'
p3924
I307
sS'TCGATG'
p3925
I69
sS'GGCGAT'
p3926
I43
sS'TCGATC'
p3927
I22
sS'CTATTT'
p3928
I181
sS'CGCGAA'
p3929
I119
sS'GCATTG'
p3930
I415
sS'CAGCCT'
p3931
I394
sS'TCGATT'
p3932
I7
sS'CTACCG'
p3933
I35
sS'TCGGCA'
p3934
I81
sS'GCGCCC'
p3935
I287
sS'ACAATG'
p3936
I325
sS'AACCAA'
p3937
I1111
sS'TGCCGG'
p3938
I852
sS'AACCAC'
p3939
I1192
sS'TGCCGC'
p3940
I991
sS'AACCAG'
p3941
I1220
sS'TGCCGA'
p3942
I355
sS'TTGGAC'
p3943
I191
sS'TCTGGA'
p3944
I321
sS'AGGCAG'
p3945
I794
sS'TGCCGT'
p3946
I182
sS'AACCAT'
p3947
I203
sS'AACAGA'
p3948
I2567
sS'GGGAGT'
p3949
I280
sS'AACAGC'
p3950
I2529
sS'ACGTCC'
p3951
I131
sS'AACAGG'
p3952
I2526
sS'ACGTCA'
p3953
I148
sS'GACGAC'
p3954
I503
sS'AGCAGC'
p3955
I3478
sS'GACGAA'
p3956
I360
sS'CCCAAC'
p3957
I706
sS'CCCAAA'
p3958
I681
sS'CAATAT'
p3959
I23
sS'GGGAGG'
p3960
I2010
sS'GGGAGA'
p3961
I858
sS'AACAGT'
p3962
I1076
sS'GGGAGC'
p3963
I819
sS'ACGAAG'
p3964
I81
sS'CCCAAT'
p3965
I141
sS'GACGAT'
p3966
I63
sS'GGGCGC'
p3967
I415
sS'GGGCGA'
p3968
I239
sS'GCATCA'
p3969
I209
sS'GGGCGG'
p3970
I852
sS'TCTCTT'
p3971
I190
sS'GTACAG'
p3972
I96
sS'CAGAAT'
p3973
I146
sS'GTACAC'
p3974
I78
sS'TCTCTC'
p3975
I842
sS'TCTCTA'
p3976
I1093
sS'TCTCTG'
p3977
I2196
sS'GGGCGT'
p3978
I81
sS'CAGAAA'
p3979
I551
sS'CAGAAC'
p3980
I496
sS'ACGACG'
p3981
I36
sS'CAGAAG'
p3982
I775
sS'CACTTT'
p3983
I958
sS'CATATT'
p3984
I194
sS'CCTAAT'
p3985
I60
sS'TGATCG'
p3986
I25
sS'CACTTG'
p3987
I4822
sS'CCTAAC'
p3988
I227
sS'CTACCC'
p3989
I171
sS'CCTAAA'
p3990
I269
sS'CACTTC'
p3991
I3464
sS'CCTAAG'
p3992
I316
sS'CACTTA'
p3993
I4036
sS'GCGGAT'
p3994
I8
sS'AATCCT'
p3995
I275
sS'CTGCGG'
p3996
I494
sS'AAGATT'
p3997
I128
sS'CTCATG'
p3998
I2524
sS'GACTCG'
p3999
I1337
sS'CTCATC'
p4000
I1172
sS'GACTCC'
p4001
I3985
sS'CTCATA'
p4002
I1668
sS'GACTCA'
p4003
I5438
sS'AAGATA'
p4004
I810
sS'AGTCGG'
p4005
I443
sS'AAGATG'
p4006
I1290
sS'GACTCT'
p4007
I1839
sS'GTCCCG'
p4008
I725
sS'ATCGAA'
p4009
I86
sS'AGTCGA'
p4010
I199
sS'ATATTT'
p4011
I144
sS'CCGAGG'
p4012
I255
sS'GGACTC'
p4013
I53
sS'ATAGTT'
p4014
I32
sS'CTACCA'
p4015
I165
sS'TACTGT'
p4016
I1496
sS'ATATTC'
p4017
I231
sS'ATATTA'
p4018
I588
sS'ATATTG'
p4019
I479
sS'ATAGTA'
p4020
I179
sS'TACTGA'
p4021
I2470
sS'TACTGG'
p4022
I2264
sS'ATAGTG'
p4023
I221
sS'ATAGAC'
p4024
I75
sS'CAGGCA'
p4025
I1171
sS'AGGAAG'
p4026
I1254
sS'CATCCG'
p4027
I213
sS'AGGAAA'
p4028
I690
sS'CATCCA'
p4029
I746
sS'CAGGCG'
p4030
I430
sS'CATCCC'
p4031
I817
sS'TTATGA'
p4032
I330
sS'TTATGC'
p4033
I259
sS'CGGAGT'
p4034
I104
sS'TTATGG'
p4035
I293
sS'CATCCT'
p4036
I302
sS'AGGAAT'
p4037
I195
sS'CAGGCT'
p4038
I360
sS'ACGGAT'
p4039
I3
sS'CGGAGA'
p4040
I247
sS'CGGAGC'
p4041
I411
sS'TTATGT'
p4042
I257
sS'CAGGCC'
p4043
I1302
sS'CGGAGG'
p4044
I580
sS'ATGGAA'
p4045
I200
sS'ATGGAC'
p4046
I115
sS'ATGGAG'
p4047
I224
sS'CGCTTG'
p4048
I1610
sS'CGCTTA'
p4049
I902
sS'CGCTTC'
p4050
I1285
sS'ATGGAT'
p4051
I35
sS'TGCGGC'
p4052
I545
sS'CGCTTT'
p4053
I354
sS'GATCGT'
p4054
I126
sS'TTTGCC'
p4055
I469
sS'GAAAAG'
p4056
I790
sS'GAAAAC'
p4057
I557
sS'ATAGAT'
p4058
I16
sS'GAAAAA'
p4059
I496
sS'GTTCCT'
p4060
I167
sS'TAAGTA'
p4061
I400
sS'AGACCT'
p4062
I32
sS'ACGGTT'
p4063
I10
sS'GAAAAT'
p4064
I138
sS'TGAGGT'
p4065
I51
sS'ACAAGG'
p4066
I276
sS'ACAAGA'
p4067
I224
sS'AAAAAA'
p4068
I741
sS'ACAAGC'
p4069
I152
sS'ACACGT'
p4070
I18
sS'CTGCGT'
p4071
I92
sS'GCGGAG'
p4072
I145
sS'CATAAG'
p4073
I634
sS'GTCCCT'
p4074
I640
sS'CATAAA'
p4075
I902
sS'AGGTAC'
p4076
I183
sS'CATAAC'
p4077
I563
sS'ACACGC'
p4078
I50
sS'ACAAGT'
p4079
I88
sS'ACACGA'
p4080
I35
sS'ACACGG'
p4081
I53
sS'CCTCCC'
p4082
I773
sS'CATAAT'
p4083
I180
sS'GTCCCA'
p4084
I1298
sS'GCACAT'
p4085
I14
sS'GTCCCC'
p4086
I1507
sS'CTGCGA'
p4087
I188
sS'CTGCGC'
p4088
I429
sS'CGGCAA'
p4089
I61
sS'CGGCAC'
p4090
I123
sS'CGGCAG'
p4091
I192
sS'CCTCCT'
p4092
I259
sS'NNNGAA'
p4093
I1
sS'CGGCAT'
p4094
I21
sS'AGGCAC'
p4095
I422
sS'CCTCCA'
p4096
I433
sS'CCTCCG'
p4097
I220
sS'CGTGAT'
p4098
I22
s.