(dp0
S'AAAAAC'
p1
I2326
sS'GAACGT'
p2
I387
sS'CTTCTT'
p3
I1305
sS'CACCCT'
p4
I3734
sS'ATTGAA'
p5
I1299
sS'GAACGG'
p6
I1329
sS'GAACGC'
p7
I1597
sS'GAACGA'
p8
I680
sS'CAACAT'
p9
I317
sS'CACCCA'
p10
I7370
sS'CTTCTA'
p11
I3139
sS'CACCCC'
p12
I10625
sS'CTTCTC'
p13
I6429
sS'CACCCG'
p14
I5340
sS'CTTCTG'
p15
I8072
sS'CGTGTG'
p16
I3278
sS'TAAGGT'
p17
I413
sS'ACATGG'
p18
I1667
sS'CGTGTC'
p19
I1492
sS'CGTGTA'
p20
I889
sS'AGGCAA'
p21
I2548
sS'GGAAAT'
p22
I830
sS'TAAGGG'
p23
I1844
sS'CGTGTT'
p24
I329
sS'TAAGGC'
p25
I1595
sS'TAAGGA'
p26
I1631
sS'GTCAAA'
p27
I2982
sS'GTCAAC'
p28
I2281
sS'GTCAAG'
p29
I3287
sS'CTGTCC'
p30
I10314
sS'TCAGAG'
p31
I1578
sS'CTGTCA'
p32
I5986
sS'CTGTCG'
p33
I2248
sS'TCAGAC'
p34
I967
sS'TCAGAA'
p35
I874
sS'TCATAA'
p36
I835
sS'GTCAAT'
p37
I953
sS'GTATCA'
p38
I1233
sS'GTATCC'
p39
I1405
sS'GTATCG'
p40
I318
sS'CTGTCT'
p41
I4052
sS'GGTGTC'
p42
I2661
sS'GGTGTA'
p43
I1460
sS'GGTGTG'
p44
I5164
sS'TATCCT'
p45
I1175
sS'CCGGGG'
p46
I6042
sS'TTCTGT'
p47
I5568
sS'GTATTG'
p48
I1232
sS'CCGGGC'
p49
I5900
sS'CCGGGA'
p50
I3690
sS'TATCCA'
p51
I2237
sS'TATCCC'
p52
I2317
sS'TATCCG'
p53
I646
sS'GGTGTT'
p54
I546
sS'ATTCCG'
p55
I700
sS'TTCTGG'
p56
I10673
sS'CCGGGT'
p57
I1235
sS'ATTCCC'
p58
I2383
sS'TTCTGC'
p59
I11661
sS'CCACAG'
p60
I1955
sS'TTCTGA'
p61
I7683
sS'CTTGGA'
p62
I2818
sS'CGTCAT'
p63
I456
sS'GTTCTC'
p64
I3388
sS'CCCGCG'
p65
I9070
sS'CGCGGG'
p66
I12100
sS'NCCGCC'
p67
I1
sS'CGCGGC'
p68
I12426
sS'CGCGGA'
p69
I4239
sS'ACCTGT'
p70
I1985
sS'TCATGT'
p71
I876
sS'AGGGAC'
p72
I3679
sS'TTACAG'
p73
I1189
sS'CTCCGC'
p74
I13476
sS'TTACAA'
p75
I783
sS'TTACAC'
p76
I676
sS'CTCCGG'
p77
I9822
sS'TCATGC'
p78
I1380
sS'ACCTGG'
p79
I7738
sS'TCATGA'
p80
I1027
sS'GTAAGC'
p81
I1226
sS'TCATGG'
p82
I1416
sS'ACCTGC'
p83
I8360
sS'ACCTGA'
p84
I3726
sS'TTACAT'
p85
I395
sS'CTCGAT'
p86
I341
sS'CTCCGT'
p87
I2038
sS'GAATTT'
p88
I397
sS'GCCTGA'
p89
I8723
sS'GCCTGC'
p90
I19297
sS'GCCTGG'
p91
I23980
sS'TAAAGG'
p92
I2753
sS'CAAATT'
p93
I355
sS'TAAAGA'
p94
I2629
sS'GCATAA'
p95
I679
sS'TAAAGC'
p96
I2447
sS'GCCTGT'
p97
I5730
sS'TATCTA'
p98
I2962
sS'TAAAGT'
p99
I1000
sS'CAAATA'
p100
I1936
sS'CAAATC'
p101
I1152
sS'CGTGCT'
p102
I995
sS'CAAATG'
p103
I2435
sS'AATACT'
p104
I1357
sS'CGTCAC'
p105
I2179
sS'CGTCAA'
p106
I671
sS'GGCATG'
p107
I5162
sS'GGCATA'
p108
I2093
sS'GGCATC'
p109
I3646
sS'AATACG'
p110
I587
sS'AATACA'
p111
I3657
sS'AATACC'
p112
I1943
sS'GGCATT'
p113
I1090
sS'TATCTG'
p114
I5104
sS'CTTGGT'
p115
I1141
sS'GAGCAC'
p116
I4946
sS'GAGCAA'
p117
I3932
sS'CATATC'
p118
I1224
sS'GAGCAG'
p119
I11351
sS'AGTAGT'
p120
I961
sS'TCTCGC'
p121
I2576
sS'TCTCGA'
p122
I802
sS'TCTCGG'
p123
I2656
sS'ACTGAG'
p124
I2471
sS'AGTAGA'
p125
I2242
sS'AGTAGG'
p126
I2777
sS'GAGCAT'
p127
I1274
sS'AAGGTT'
p128
I663
sS'TCTCGT'
p129
I473
sS'GTGTCG'
p130
I1873
sS'TCGAAC'
p131
I303
sS'TCGAAA'
p132
I225
sS'GTGTCC'
p133
I7614
sS'TCGAAG'
p134
I538
sS'GTGTCA'
p135
I4079
sS'CTTGCT'
p136
I1855
sS'AGACAC'
p137
I1457
sS'TCGGTC'
p138
I802
sS'GTGTCT'
p139
I3521
sS'TTGAAG'
p140
I1919
sS'TCGAAT'
p141
I86
sS'CTTGCG'
p142
I1639
sS'CTTGCA'
p143
I2932
sS'CTTGCC'
p144
I4260
sS'CGAAAG'
p145
I661
sS'CGAAAA'
p146
I308
sS'CGAAAC'
p147
I436
sS'CACGGA'
p148
I2495
sS'AAATGC'
p149
I2515
sS'CACGGC'
p150
I4951
sS'AAATGA'
p151
I2778
sS'AAATGG'
p152
I2533
sS'CACGGG'
p153
I4384
sS'ACAGTA'
p154
I949
sS'CGAAAT'
p155
I126
sS'ACAGTT'
p156
I311
sS'AATCAG'
p157
I4136
sS'CACGGT'
p158
I1122
sS'AAATGT'
p159
I1357
sS'AATCAC'
p160
I3334
sS'GGGTCT'
p161
I2822
sS'TCTAGT'
p162
I729
sS'TTGCCG'
p163
I1804
sS'TTGCCA'
p164
I3718
sS'TTGCCC'
p165
I4511
sS'TTGCCT'
p166
I2336
sS'TCTAGG'
p167
I2296
sS'GGGTAA'
p168
I1152
sS'TCTAGA'
p169
I1589
sS'GGGTAG'
p170
I1923
sS'TCTAGC'
p171
I1818
sS'ATACGG'
p172
I279
sS'TGACTA'
p173
I674
sS'AATTGG'
p174
I2600
sS'AGATGT'
p175
I1216
sS'TCGCCC'
p176
I2414
sS'TCGCCA'
p177
I1020
sS'ATAGTC'
p178
I405
sS'TCGCCG'
p179
I1475
sS'GGTAAT'
p180
I679
sS'ACCCAT'
p181
I673
sS'GTGTAT'
p182
I793
sS'ACCCAC'
p183
I3527
sS'GGTAAC'
p184
I1646
sS'ACCCAA'
p185
I2063
sS'AGATGG'
p186
I3111
sS'ACCCAG'
p187
I5019
sS'AGATGA'
p188
I1789
sS'TCGCCT'
p189
I806
sS'AGATGC'
p190
I2491
sS'TTTGAG'
p191
I2258
sS'CCCCAT'
p192
I1279
sS'TTGGGT'
p193
I905
sS'CACTAG'
p194
I3102
sS'CACTAA'
p195
I3834
sS'CACTAC'
p196
I2938
sS'CCCCAA'
p197
I3485
sS'CCCCAC'
p198
I7260
sS'CCCCAG'
p199
I9059
sS'CACTAT'
p200
I1109
sS'TTGGGG'
p201
I4060
sS'TCGGTT'
p202
I158
sS'TTGGGA'
p203
I2332
sS'TTGGGC'
p204
I2777
sS'ATAAAA'
p205
I1946
sS'TGCCTG'
p206
I15204
sS'TGCAGA'
p207
I9889
sS'TTTCTG'
p208
I6987
sS'TGCAGC'
p209
I14633
sS'TTTCTA'
p210
I4030
sS'TTTCTC'
p211
I5169
sS'TGCAGG'
p212
I14725
sS'GTATCT'
p213
I899
sS'TTTCTT'
p214
I1398
sS'ACGTGC'
p215
I1588
sS'TGCCTT'
p216
I2315
sS'TGCAGT'
p217
I4469
sS'ACGATG'
p218
I678
sS'ACAATT'
p219
I294
sS'AAGGAA'
p220
I4547
sS'AAGGAC'
p221
I3489
sS'AAGGAG'
p222
I6021
sS'ATATGC'
p223
I1151
sS'ATATGA'
p224
I1151
sS'TACGAA'
p225
I568
sS'ATATGG'
p226
I1164
sS'GATGGA'
p227
I5205
sS'AAGGAT'
p228
I784
sS'CTATCA'
p229
I1470
sS'TGGTTT'
p230
I1010
sS'ATATGT'
p231
I851
sS'ACTATT'
p232
I250
sS'GGTCCC'
p233
I6402
sS'GCCCAG'
p234
I12833
sS'GGTCCA'
p235
I2473
sS'GCCCAA'
p236
I3341
sS'GGTCCG'
p237
I2621
sS'GCCCAC'
p238
I6502
sS'ATGGCG'
p239
I1809
sS'AGACCC'
p240
I2216
sS'CTTCGG'
p241
I2639
sS'AGACCG'
p242
I831
sS'CTTCGC'
p243
I2881
sS'CCACTA'
p244
I845
sS'AGGTCC'
p245
I4876
sS'AGGTCA'
p246
I3721
sS'AAAGTT'
p247
I315
sS'TCCGGC'
p248
I5227
sS'GGTCCT'
p249
I1815
sS'TCCGGA'
p250
I2490
sS'CTTAGC'
p251
I2382
sS'TCTTGA'
p252
I2303
sS'CTTAGA'
p253
I2064
sS'CCACTC'
p254
I1699
sS'CTTAGG'
p255
I2457
sS'ATTGTC'
p256
I1122
sS'TCTTGG'
p257
I3572
sS'CGCTAC'
p258
I1834
sS'ATTTTG'
p259
I3696
sS'TCCAGG'
p260
I12823
sS'ATTTTA'
p261
I5325
sS'CGCTAG'
p262
I1959
sS'ATTTTC'
p263
I2862
sS'TCCAGC'
p264
I11521
sS'TAGCAG'
p265
I2614
sS'GATACT'
p266
I1251
sS'TAGCAC'
p267
I1664
sS'TAGCAA'
p268
I1889
sS'TCCAGT'
p269
I2920
sS'CGCTAA'
p270
I1318
sS'GCCTTG'
p271
I12440
sS'TAGTGT'
p272
I1224
sS'GCCTTA'
p273
I4950
sS'TTGACA'
p274
I1983
sS'GCCTTC'
p275
I10753
sS'GATACG'
p276
I704
sS'TAGCAT'
p277
I649
sS'GATACC'
p278
I2074
sS'GATTTC'
p279
I4288
sS'TGAGCT'
p280
I1184
sS'ACGGAC'
p281
I522
sS'GATCAT'
p282
I937
sS'AAGACA'
p283
I4579
sS'AAGACC'
p284
I3865
sS'GTGGGC'
p285
I6384
sS'AAGACG'
p286
I1809
sS'GATCAG'
p287
I3623
sS'TGAGCG'
p288
I1552
sS'GATCAC'
p289
I2862
sS'TGAGCC'
p290
I3334
sS'AAGACT'
p291
I1646
sS'GCGGTC'
p292
I1597
sS'GCGGTA'
p293
I830
sS'GCGGTG'
p294
I4242
sS'CGGTGT'
p295
I1084
sS'TCGTTA'
p296
I459
sS'TCGTTC'
p297
I610
sS'CTTCCC'
p298
I9963
sS'TCGTTG'
p299
I730
sS'GAGTTT'
p300
I1218
sS'GCGGTT'
p301
I367
sS'ACTTGC'
p302
I2522
sS'ATGTGA'
p303
I2699
sS'ACTTGA'
p304
I2030
sS'CGGTGG'
p305
I4167
sS'ACTTGG'
p306
I2665
sS'CGGTGA'
p307
I1791
sS'CGGTGC'
p308
I3589
sS'TTCCTA'
p309
I5513
sS'TAGACT'
p310
I1036
sS'TTCCTC'
p311
I10377
sS'ACCACA'
p312
I4235
sS'TTCCTG'
p313
I15101
sS'TCCTTT'
p314
I3381
sS'CAGTTG'
p315
I3394
sS'TAGACG'
p316
I811
sS'TTCCTT'
p317
I2958
sS'TAGACC'
p318
I1839
sS'TAGACA'
p319
I2440
sS'TCCTTG'
p320
I10057
sS'TCCTTA'
p321
I6038
sS'TCCTTC'
p322
I10819
sS'ATCTCT'
p323
I3191
sS'ACCGTT'
p324
I328
sS'TGGCGC'
p325
I3609
sS'TTTACG'
p326
I571
sS'TGGCGA'
p327
I1332
sS'TGGCGG'
p328
I4948
sS'ATCTCG'
p329
I1807
sS'ATCTCA'
p330
I5075
sS'ATCTCC'
p331
I6415
sS'GGCCAA'
p332
I4560
sS'ACGGAG'
p333
I1022
sS'GGCCAC'
p334
I7728
sS'ACCGTG'
p335
I2203
sS'ACCGTA'
p336
I630
sS'GGCCAG'
p337
I11815
sS'ACCGTC'
p338
I1259
sS'ACCGAC'
p339
I1079
sS'AGAATT'
p340
I371
sS'GGCAGT'
p341
I4411
sS'CCATAA'
p342
I603
sS'CAAAGG'
p343
I3769
sS'CCATAC'
p344
I529
sS'CAAAGA'
p345
I2878
sS'AGATTC'
p346
I856
sS'CAAAGC'
p347
I3568
sS'CCATAG'
p348
I635
sS'GGCAGA'
p349
I10523
sS'GGCAGC'
p350
I19699
sS'AACGTA'
p351
I889
sS'GGCAGG'
p352
I21933
sS'CAACGC'
p353
I886
sS'GCACTA'
p354
I783
sS'CAACGA'
p355
I409
sS'CTAACC'
p356
I1508
sS'CAACGG'
p357
I724
sS'GCACTG'
p358
I2972
sS'GGGGGT'
p359
I1804
sS'TACGCT'
p360
I536
sS'AGATTG'
p361
I1183
sS'CGATCT'
p362
I225
sS'NNNNNC'
p363
I1
sS'CTCTAG'
p364
I4910
sS'CTCTAA'
p365
I4719
sS'CTCTAC'
p366
I4377
sS'GGGGGG'
p367
I3842
sS'CGATCC'
p368
I706
sS'TACGCC'
p369
I1351
sS'GGGGGC'
p370
I7288
sS'ATTCCA'
p371
I1895
sS'GGGGGA'
p372
I4130
sS'TACGCG'
p373
I999
sS'CTCTAT'
p374
I1576
sS'ACCGAA'
p375
I675
sS'CAGACC'
p376
I6024
sS'CAGACA'
p377
I6149
sS'CAGACG'
p378
I2634
sS'TAGTTG'
p379
I1868
sS'GCTAAT'
p380
I707
sS'TAGTTC'
p381
I1585
sS'TAGTTA'
p382
I2132
sS'CAGACT'
p383
I2132
sS'GCGAAC'
p384
I763
sS'TAGTTT'
p385
I722
sS'GCTAAC'
p386
I1295
sS'GCTAAA'
p387
I1539
sS'TGCATT'
p388
I1619
sS'GCGAAA'
p389
I531
sS'AACCCT'
p390
I2455
sS'AACCCC'
p391
I5875
sS'AACCCA'
p392
I4943
sS'AACCCG'
p393
I3045
sS'TGCATC'
p394
I3615
sS'AGATTT'
p395
I356
sS'AGTTTG'
p396
I4292
sS'AACTGG'
p397
I6148
sS'AGTTTC'
p398
I3586
sS'AACTGC'
p399
I6925
sS'CCCAGA'
p400
I9104
sS'CCCAGC'
p401
I19734
sS'CCCAGG'
p402
I18445
sS'AACTGT'
p403
I3074
sS'AGTTTT'
p404
I984
sS'CTACAT'
p405
I350
sS'CAATTT'
p406
I329
sS'CCCAGT'
p407
I3856
sS'TTGACG'
p408
I678
sS'CGCATA'
p409
I641
sS'ATACTG'
p410
I1009
sS'CGCATC'
p411
I2008
sS'ATACTA'
p412
I582
sS'ATACTC'
p413
I433
sS'CGCATG'
p414
I2571
sS'GCGCAA'
p415
I634
sS'GCGAAT'
p416
I178
sS'ATACTT'
p417
I189
sS'CTATCT'
p418
I979
sS'GCGCAC'
p419
I1820
sS'GCTCCG'
p420
I5763
sS'TATTGT'
p421
I2090
sS'GCTCCC'
p422
I8905
sS'GCTCCA'
p423
I5042
sS'CCTACT'
p424
I979
sS'TGTACT'
p425
I1151
sS'TTTAGT'
p426
I983
sS'TATTGG'
p427
I2317
sS'GCTCCT'
p428
I3322
sS'TATTGC'
p429
I2705
sS'TATTGA'
p430
I2817
sS'TTTAGG'
p431
I2170
sS'TGTACG'
p432
I650
sS'CCTACG'
p433
I898
sS'TGTACA'
p434
I2467
sS'CCTACA'
p435
I1603
sS'TGTACC'
p436
I1853
sS'CCTACC'
p437
I2866
sS'ACTTCA'
p438
I2645
sS'TTCGCG'
p439
I1545
sS'TTCGCA'
p440
I1241
sS'CTGCGC'
p441
I6818
sS'CGTACA'
p442
I646
sS'GACTAA'
p443
I3837
sS'AGTATA'
p444
I1353
sS'TTTGGG'
p445
I3022
sS'AGTATG'
p446
I1563
sS'TTTGGA'
p447
I2145
sS'GACTAG'
p448
I3378
sS'ACGAAC'
p449
I347
sS'TTTGGT'
p450
I874
sS'GACTAT'
p451
I1315
sS'AGTATT'
p452
I464
sS'TTACTC'
p453
I854
sS'TTACTA'
p454
I927
sS'TTACTG'
p455
I1617
sS'ACCTTG'
p456
I6005
sS'ACCTTC'
p457
I4836
sS'ACCTTA'
p458
I3001
sS'TATATC'
p459
I1181
sS'GTAAAC'
p460
I1113
sS'TAGGGC'
p461
I2791
sS'ACAGGG'
p462
I2488
sS'CTGGGA'
p463
I7570
sS'CTGGGC'
p464
I10470
sS'ACAGGC'
p465
I2484
sS'CTTTTA'
p466
I6395
sS'ACAGGA'
p467
I2226
sS'CTGGGG'
p468
I11505
sS'CAGGAC'
p469
I4507
sS'GCAGCT'
p470
I3314
sS'CAGGAA'
p471
I4547
sS'TTTCAT'
p472
I1198
sS'CAGGAG'
p473
I6913
sS'AGGACA'
p474
I5166
sS'GCGCAT'
p475
I470
sS'TTATAC'
p476
I775
sS'TTATAA'
p477
I1255
sS'CTGGGT'
p478
I2665
sS'TTATAG'
p479
I792
sS'CTCCGA'
p480
I3802
sS'TCGCTG'
p481
I2352
sS'GCAGCG'
p482
I4488
sS'AGGACT'
p483
I2240
sS'GCAGCA'
p484
I5553
sS'GCAGCC'
p485
I8881
sS'CAGGAT'
p486
I956
sS'CCTCAG'
p487
I5025
sS'CCTCAA'
p488
I1848
sS'CCTCAC'
p489
I3795
sS'TATGTT'
p490
I724
sS'ATGGGC'
p491
I2265
sS'TCTTTG'
p492
I5719
sS'ATGGGA'
p493
I2348
sS'TCTTTA'
p494
I4559
sS'ATGGGG'
p495
I3350
sS'TCTTTC'
p496
I4790
sS'CCTCAT'
p497
I896
sS'NNNAGC'
p498
I1
sS'TCTTTT'
p499
I1427
sS'TATGTG'
p500
I3412
sS'TATGTA'
p501
I2999
sS'ATGGGT'
p502
I645
sS'TATGTC'
p503
I1568
sS'GAAAGA'
p504
I5319
sS'ATCAAG'
p505
I2502
sS'GAAAGC'
p506
I5265
sS'ATCAAC'
p507
I2060
sS'GAAAGG'
p508
I7370
sS'ATCAAA'
p509
I3122
sS'GGAACT'
p510
I1177
sS'CTATTC'
p511
I1070
sS'CATGAG'
p512
I2841
sS'ATCAAT'
p513
I859
sS'TCAAAC'
p514
I908
sS'CATGAC'
p515
I2469
sS'CATGAA'
p516
I2476
sS'GTAGCG'
p517
I998
sS'CAAGTT'
p518
I296
sS'GCTTTG'
p519
I7445
sS'GCTTTA'
p520
I4323
sS'GCTTTC'
p521
I5057
sS'AAAGTA'
p522
I1459
sS'GCGGCG'
p523
I7281
sS'CAAGTG'
p524
I1975
sS'GTAGCT'
p525
I989
sS'GCGGCC'
p526
I8886
sS'CAAGTC'
p527
I1274
sS'GCGGCA'
p528
I3115
sS'CAAGTA'
p529
I997
sS'ATTGCT'
p530
I777
sS'CGTACG'
p531
I440
sS'GGGGAA'
p532
I2892
sS'TAATCG'
p533
I311
sS'GGTCTT'
p534
I867
sS'TAATCA'
p535
I1899
sS'TAATCC'
p536
I1434
sS'CTAAGC'
p537
I1621
sS'CGGCCC'
p538
I9098
sS'CGACTA'
p539
I258
sS'CGGCCA'
p540
I3769
sS'CGCTAT'
p541
I474
sS'CGGCCG'
p542
I5989
sS'TCGTGA'
p543
I509
sS'CTTGTA'
p544
I2081
sS'GGTCTG'
p545
I7160
sS'TAATCT'
p546
I912
sS'AGTTTA'
p547
I3728
sS'GGTCTC'
p548
I4638
sS'GGTCTA'
p549
I1568
sS'AAAATG'
p550
I3029
sS'AAAATC'
p551
I1125
sS'CGGCCT'
p552
I2713
sS'TTCAGC'
p553
I7172
sS'TCGTCC'
p554
I1680
sS'TTCAGG'
p555
I7203
sS'GAACAT'
p556
I453
sS'TCGTCG'
p557
I620
sS'TTTAGC'
p558
I1990
sS'TGTTTT'
p559
I2191
sS'GAACAA'
p560
I1436
sS'ATCCCG'
p561
I2486
sS'GAACAC'
p562
I1516
sS'ATCCCC'
p563
I4490
sS'GAACAG'
p564
I2404
sS'ATCCCA'
p565
I3725
sS'ATTGCA'
p566
I1579
sS'AGTCAT'
p567
I975
sS'CACCAC'
p568
I5870
sS'CACCAA'
p569
I3478
sS'CACCAG'
p570
I7366
sS'TCCGTG'
p571
I3224
sS'AACGGG'
p572
I2435
sS'AGGCGT'
p573
I1190
sS'TCCGTC'
p574
I2124
sS'TCCGTA'
p575
I862
sS'CACCAT'
p576
I1534
sS'AACATG'
p577
I4993
sS'AACATA'
p578
I3970
sS'AACATC'
p579
I3173
sS'GTCAGC'
p580
I8042
sS'GCACGG'
p581
I1476
sS'GTCAGA'
p582
I5553
sS'GCACGA'
p583
I551
sS'GTCAGG'
p584
I9146
sS'GCACGC'
p585
I1650
sS'CAGTCA'
p586
I4297
sS'AACAAC'
p587
I4274
sS'GCACCA'
p588
I1898
sS'GCAAGC'
p589
I2169
sS'GCACGT'
p590
I523
sS'GCAAGA'
p591
I1760
sS'GCAAGG'
p592
I3071
sS'GTCAGT'
p593
I2884
sS'GTATAC'
p594
I480
sS'TTCCGT'
p595
I1063
sS'ACGGCT'
p596
I545
sS'GTATAG'
p597
I491
sS'CCGGAA'
p598
I1250
sS'CCGGAC'
p599
I1247
sS'CCGGAG'
p600
I2271
sS'CGTCTT'
p601
I525
sS'CTCGTA'
p602
I973
sS'TTCCGG'
p603
I4919
sS'TTCCGA'
p604
I1678
sS'TTCCGC'
p605
I4504
sS'GTATAT'
p606
I418
sS'CGTCTC'
p607
I3230
sS'CGTCTA'
p608
I901
sS'CGTCTG'
p609
I3925
sS'CCGGAT'
p610
I259
sS'CTCTTC'
p611
I13231
sS'TGTTAT'
p612
I1295
sS'CTCTTA'
p613
I7089
sS'CTCTTG'
p614
I11348
sS'CCCGAT'
p615
I349
sS'TACGTA'
p616
I824
sS'TACGTC'
p617
I871
sS'TCTGGT'
p618
I1432
sS'AACAAA'
p619
I8216
sS'CGCGAT'
p620
I468
sS'TACGTG'
p621
I1706
sS'TGTTAG'
p622
I2299
sS'GCTGTT'
p623
I1012
sS'TGTTAC'
p624
I2370
sS'CTCTTT'
p625
I4408
sS'TGTTAA'
p626
I3397
sS'TCTGGG'
p627
I6364
sS'CGCGAC'
p628
I2299
sS'GATATT'
p629
I656
sS'TCTGGC'
p630
I4904
sS'TACGTT'
p631
I273
sS'CGCGAG'
p632
I4358
sS'AGTCGT'
p633
I604
sS'TTACCT'
p634
I601
sS'CTCCAT'
p635
I2193
sS'ACTAGA'
p636
I1190
sS'TATGCC'
p637
I1890
sS'TTACCG'
p638
I417
sS'CTCCAC'
p639
I7863
sS'AGTCGG'
p640
I2513
sS'TTACCC'
p641
I1179
sS'CTCCAG'
p642
I12111
sS'TTACCA'
p643
I1033
sS'AGTCGC'
p644
I2453
sS'CCGACT'
p645
I670
sS'GCCTAC'
p646
I3108
sS'GCCTAA'
p647
I2758
sS'GCCTAG'
p648
I4404
sS'CCGACA'
p649
I835
sS'GATATC'
p650
I1263
sS'CCGACC'
p651
I2194
sS'CCGACG'
p652
I995
sS'GCCTAT'
p653
I1068
sS'TGACGG'
p654
I746
sS'CCCGAG'
p655
I4853
sS'CTCGTT'
p656
I552
sS'CTAAGT'
p657
I731
sS'CCCGAA'
p658
I1370
sS'CGCACA'
p659
I3799
sS'ATACAC'
p660
I650
sS'CGCACC'
p661
I5703
sS'GGGTCG'
p662
I2729
sS'ACTGCT'
p663
I1288
sS'GGGTCA'
p664
I3379
sS'CGCACG'
p665
I3686
sS'GGGTCC'
p666
I7349
sS'GAGCGT'
p667
I1638
sS'CTCACT'
p668
I4475
sS'TTTGTA'
p669
I2971
sS'ACTGCA'
p670
I3111
sS'TTTGTC'
p671
I2255
sS'ACTGCC'
p672
I3522
sS'CGCACT'
p673
I2195
sS'TTTGTG'
p674
I4099
sS'ACTGCG'
p675
I2007
sS'CTCACC'
p676
I10905
sS'CTCACA'
p677
I7546
sS'CTCACG'
p678
I3692
sS'TAGTGG'
p679
I2480
sS'GTGAGG'
p680
I7178
sS'GATTTT'
p681
I1464
sS'TAGTGC'
p682
I2198
sS'GTGAGC'
p683
I4918
sS'TAGTGA'
p684
I2088
sS'GTGAGA'
p685
I3447
sS'TCGACG'
p686
I367
sS'TCGACA'
p687
I317
sS'TCGACC'
p688
I700
sS'GATTTG'
p689
I6127
sS'GTGAGT'
p690
I2133
sS'GTGGGG'
p691
I10300
sS'GTGGGA'
p692
I5438
sS'ACAATG'
p693
I1540
sS'TCGACT'
p694
I242
sS'GTGGGN'
p695
I1
sS'CTGGTT'
p696
I901
sS'TTGAGT'
p697
I951
sS'ATACAT'
p698
I256
sS'TCAAAA'
p699
I837
sS'CGAACG'
p700
I475
sS'CGAACC'
p701
I937
sS'CGAACA'
p702
I555
sS'CTGGTG'
p703
I6144
sS'CTGGTA'
p704
I2182
sS'CTGGTC'
p705
I2926
sS'CGAACT'
p706
I348
sS'TTGCAT'
p707
I794
sS'GACGAG'
p708
I3534
sS'GCGGAA'
p709
I1250
sS'TTGCAG'
p710
I3227
sS'ACTCCT'
p711
I1180
sS'CTTGAT'
p712
I484
sS'TTGCAC'
p713
I1749
sS'TTGCAA'
p714
I1652
sS'AAGATC'
p715
I1403
sS'GAGGGC'
p716
I13195
sS'TCGCAT'
p717
I125
sS'GTCGTG'
p718
I2104
sS'GTCGTA'
p719
I725
sS'GTCGTC'
p720
I1614
sS'CCGTTT'
p721
I331
sS'ACTGAT'
p722
I463
sS'ATATCG'
p723
I180
sS'GTCGTT'
p724
I373
sS'TCAGAT'
p725
I355
sS'TCGCAG'
p726
I1063
sS'TCCATG'
p727
I5336
sS'TCGCAC'
p728
I544
sS'CCGTTG'
p729
I1259
sS'CCGTTA'
p730
I690
sS'CCGTTC'
p731
I1107
sS'AATGCT'
p732
I1649
sS'GGTACG'
p733
I752
sS'GGTACA'
p734
I1459
sS'GGTACC'
p735
I1913
sS'TATTTG'
p736
I6134
sS'CCAGTT'
p737
I367
sS'TATTTC'
p738
I4527
sS'TATTTA'
p739
I8769
sS'CCCCCT'
p740
I3645
sS'GGTACT'
p741
I793
sS'AATGCG'
p742
I1237
sS'AATCTT'
p743
I763
sS'AATGCC'
p744
I3313
sS'GCCGTG'
p745
I5646
sS'CCCCCC'
p746
I4722
sS'CCCCCA'
p747
I6942
sS'TATTTT'
p748
I2343
sS'CCCCCG'
p749
I6720
sS'CTTGAG'
p750
I2304
sS'ATGATG'
p751
I2336
sS'CTTGAC'
p752
I1676
sS'CTTGAA'
p753
I1788
sS'CGGACT'
p754
I1011
sS'TGCAAC'
p755
I3308
sS'TGCAAA'
p756
I5360
sS'TGCAAG'
p757
I4726
sS'GAAGTG'
p758
I4113
sS'ATGATT'
p759
I399
sS'TATCAC'
p760
I2225
sS'CGAATC'
p761
I368
sS'TTGAGG'
p762
I2954
sS'AATCTC'
p763
I2711
sS'CAATGT'
p764
I644
sS'TTGAGC'
p765
I2221
sS'TGCAAT'
p766
I1679
sS'GAGAAT'
p767
I1520
sS'TGTCTT'
p768
I1143
sS'CGAATA'
p769
I246
sS'AGTAGC'
p770
I2500
sS'AAGGCC'
p771
I7329
sS'ATAACC'
p772
I1019
sS'AAGGCA'
p773
I6146
sS'ATAACA'
p774
I1598
sS'AAGGCG'
p775
I3885
sS'TCCAGA'
p776
I6897
sS'TGTGGT'
p777
I1515
sS'TGTCTG'
p778
I9270
sS'GAGAAG'
p779
I10163
sS'GAGAAA'
p780
I7160
sS'TGTCTC'
p781
I5301
sS'GAGAAC'
p782
I4919
sS'TGTCTA'
p783
I2793
sS'TGTGGC'
p784
I4985
sS'TGTGGA'
p785
I3302
sS'TGTGGG'
p786
I5950
sS'ATAACT'
p787
I590
sS'ACTGAC'
p788
I1752
sS'CTGTAA'
p789
I2196
sS'GCCCCG'
p790
I14531
sS'ACCAAG'
p791
I2923
sS'GGTCAG'
p792
I4237
sS'GCCCCC'
p793
I12852
sS'GGTCAA'
p794
I1451
sS'GCCCCA'
p795
I9797
sS'GGTCAC'
p796
I3435
sS'GATCGC'
p797
I1933
sS'GGTCAT'
p798
I670
sS'CGTGCC'
p799
I2622
sS'GCCCCT'
p800
I5939
sS'CGTGCG'
p801
I2469
sS'CAAACT'
p802
I899
sS'TTTTGC'
p803
I3765
sS'TCTTAC'
p804
I1672
sS'TTTTGA'
p805
I3553
sS'TCTTAA'
p806
I2258
sS'AATTGA'
p807
I3139
sS'TCTTAG'
p808
I1618
sS'AATTGC'
p809
I2971
sS'AATGCA'
p810
I4286
sS'TGGGGT'
p811
I1663
sS'CGCTCG'
p812
I5909
sS'GATAAT'
p813
I1519
sS'CGCTCA'
p814
I4891
sS'CGCTCC'
p815
I12740
sS'AATTGT'
p816
I1673
sS'GCCATC'
p817
I4442
sS'TCTTAT'
p818
I970
sS'GTTATG'
p819
I1529
sS'CGCTCT'
p820
I4012
sS'TGGGGG'
p821
I6101
sS'GATAAC'
p822
I2689
sS'TAGCCT'
p823
I1233
sS'TGGGGC'
p824
I6275
sS'GATAAG'
p825
I3778
sS'GATCCT'
p826
I1990
sS'AAGAAT'
p827
I1039
sS'CGAAGT'
p828
I415
sS'CATTTG'
p829
I7273
sS'AAGAAC'
p830
I3063
sS'GATCCA'
p831
I3146
sS'AAGAAA'
p832
I5506
sS'GATCCC'
p833
I5124
sS'AAGAAG'
p834
I4936
sS'GATCCG'
p835
I2307
sS'TATTAA'
p836
I4942
sS'CAAGGG'
p837
I3116
sS'CAAGGC'
p838
I3356
sS'GGTTCT'
p839
I1926
sS'CAAGGA'
p840
I2542
sS'GGTTCA'
p841
I2711
sS'GGTTCC'
p842
I5402
sS'AAGGCT'
p843
I2678
sS'GGTTCG'
p844
I1702
sS'CTGTAT'
p845
I972
sS'ATTATA'
p846
I1897
sS'ATTATC'
p847
I1281
sS'TAGAAT'
p848
I764
sS'CAAACG'
p849
I774
sS'ATTATG'
p850
I1703
sS'AGTCTT'
p851
I845
sS'TAGAAA'
p852
I2926
sS'TAGAAC'
p853
I1595
sS'ATTATT'
p854
I613
sS'TAGAAG'
p855
I2563
sS'AGTCTA'
p856
I1995
sS'AGTCTC'
p857
I3924
sS'AGTCTG'
p858
I5749
sS'TAACTC'
p859
I876
sS'TAACTA'
p860
I953
sS'TAACTG'
p861
I1525
sS'ATCTAT'
p862
I949
sS'AGGTAT'
p863
I427
sS'TAACTT'
p864
I275
sS'ATCTAG'
p865
I1924
sS'ATCTAC'
p866
I2081
sS'ATCTAA'
p867
I3109
sS'CCATGT'
p868
I1245
sS'ACCAAA'
p869
I2283
sS'TGGAGG'
p870
I8698
sS'TGGAGA'
p871
I5225
sS'TGGAGC'
p872
I6412
sS'CCATGC'
p873
I2042
sS'CCATGA'
p874
I1286
sS'CCATGG'
p875
I2588
sS'TGGAGT'
p876
I2128
sS'ATTACG'
p877
I339
sS'TCAGTA'
p878
I871
sS'TCAGTC'
p879
I1066
sS'CTCTCT'
p880
I8515
sS'GGGGAT'
p881
I711
sS'TCAGTG'
p882
I2094
sS'CGATAT'
p883
I62
sS'CTCTCG'
p884
I6191
sS'GGGGAC'
p885
I3910
sS'CTCTCC'
p886
I21947
sS'TCAGTT'
p887
I288
sS'CTCTCA'
p888
I9796
sS'CGATAG'
p889
I147
sS'CGATAA'
p890
I139
sS'TATCAA'
p891
I2214
sS'CTAAGG'
p892
I1905
sS'GTGTTT'
p893
I1587
sS'GCTACT'
p894
I1044
sS'GTGGTT'
p895
I703
sS'GTGTTC'
p896
I3156
sS'GTGTTA'
p897
I2684
sS'GTGTTG'
p898
I4256
sS'ACCAAT'
p899
I1197
sS'GTGGTA'
p900
I1688
sS'GCTACA'
p901
I1757
sS'GTGGTC'
p902
I2247
sS'GCTACC'
p903
I2114
sS'GTGGTG'
p904
I5576
sS'GCTACG'
p905
I1037
sS'CGTGCA'
p906
I1910
sS'TTTCGT'
p907
I354
sS'TGCCCT'
p908
I4254
sS'AGCGTT'
p909
I675
sS'AAGTTG'
p910
I2812
sS'AGGTAA'
p911
I1444
sS'AATCAT'
p912
I1211
sS'TGCCCA'
p913
I7420
sS'TGCCCG'
p914
I5931
sS'TTTCGG'
p915
I1226
sS'AGCGTA'
p916
I1013
sS'AGCGTC'
p917
I2852
sS'AGCGTG'
p918
I4098
sS'GGCCCC'
p919
I15180
sS'AACGTT'
p920
I416
sS'GGCCCA'
p921
I7899
sS'CACGTG'
p922
I5573
sS'GGCCCG'
p923
I10032
sS'CACGTA'
p924
I1513
sS'CACGTC'
p925
I2600
sS'CTACGC'
p926
I768
sS'ACGTGA'
p927
I1144
sS'GGGACT'
p928
I2863
sS'ACAGTC'
p929
I976
sS'CACGTT'
p930
I691
sS'GTCTCC'
p931
I13378
sS'GGCCCT'
p932
I4927
sS'GGGACA'
p933
I5011
sS'TTTTGG'
p934
I2844
sS'GGGACC'
p935
I7456
sS'GTCTCA'
p936
I6739
sS'GGGACG'
p937
I4535
sS'AGAGAG'
p938
I3235
sS'AGAGAA'
p939
I2179
sS'AGAGAC'
p940
I1948
sS'TTCACC'
p941
I5194
sS'GTCTTT'
p942
I2767
sS'TCTATC'
p943
I920
sS'TCTATG'
p944
I1569
sS'AGAGAT'
p945
I584
sS'TCGTGC'
p946
I1026
sS'TAGCCA'
p947
I2507
sS'GTCTTG'
p948
I7580
sS'TCTATT'
p949
I498
sS'GTCTTC'
p950
I7359
sS'GTCTTA'
p951
I4432
sS'GCAGAG'
p952
I3968
sS'CGATTG'
p953
I659
sS'GCTCAC'
p954
I3362
sS'GCAGAC'
p955
I1718
sS'GCAGAA'
p956
I1759
sS'GCTCAG'
p957
I5824
sS'AGACGT'
p958
I351
sS'ATGCGT'
p959
I338
sS'TTGCTG'
p960
I6895
sS'TTGCTA'
p961
I2901
sS'TTGCTC'
p962
I3676
sS'GCAGAT'
p963
I676
sS'GCTCAT'
p964
I839
sS'CGAATT'
p965
I94
sS'GTACGG'
p966
I535
sS'TTGCTT'
p967
I1341
sS'ATGCGG'
p968
I1267
sS'TAGCCG'
p969
I1297
sS'ATGCGC'
p970
I1435
sS'ATGCGA'
p971
I477
sS'TGTAAG'
p972
I2351
sS'GGCTAG'
p973
I3826
sS'TGTAAC'
p974
I2176
sS'GGCTAC'
p975
I3543
sS'TGTAAA'
p976
I3444
sS'GGCTAA'
p977
I3302
sS'ACTGTA'
p978
I1955
sS'TTGGTA'
p979
I1207
sS'ACTGTC'
p980
I1797
sS'TTGGTC'
p981
I1527
sS'TTCGAC'
p982
I683
sS'ACTGTG'
p983
I3735
sS'TTGGTG'
p984
I2906
sS'GACTGC'
p985
I10795
sS'GGCTAT'
p986
I1054
sS'GACTGA'
p987
I8047
sS'GACTGG'
p988
I12018
sS'TTCGAT'
p989
I191
sS'TTGGTT'
p990
I520
sS'ACTGTT'
p991
I458
sS'GTTTCT'
p992
I2722
sS'TTTTGT'
p993
I2358
sS'CCTTTT'
p994
I1551
sS'GTTTCG'
p995
I1195
sS'GTTTCC'
p996
I6506
sS'GATAAA'
p997
I4917
sS'ATAATG'
p998
I1677
sS'CCTTTA'
p999
I4294
sS'CCTTTC'
p1000
I5834
sS'ATAATC'
p1001
I722
sS'ATAATA'
p1002
I1687
sS'CCTTTG'
p1003
I6811
sS'ACAGAA'
p1004
I1317
sS'ACAGAC'
p1005
I1345
sS'ACAGAG'
p1006
I1998
sS'TTATCT'
p1007
I1690
sS'CTGGAC'
p1008
I3042
sS'CTGGAA'
p1009
I3110
sS'CTGGAG'
p1010
I5979
sS'ATATAA'
p1011
I1144
sS'GTAAAT'
p1012
I550
sS'ACAGAT'
p1013
I543
sS'TGGGGA'
p1014
I4675
sS'TTATCA'
p1015
I2062
sS'CTGGAT'
p1016
I735
sS'TTATCC'
p1017
I1769
sS'CCAATG'
p1018
I1860
sS'AAACCG'
p1019
I691
sS'ATTTGT'
p1020
I1537
sS'CCAATC'
p1021
I1683
sS'AAACCC'
p1022
I2001
sS'CCAATA'
p1023
I934
sS'TGTCGG'
p1024
I1938
sS'GAGATC'
p1025
I2413
sS'AACGAG'
p1026
I1565
sS'GAGATA'
p1027
I3543
sS'TGTCGC'
p1028
I2024
sS'GAGATG'
p1029
I6858
sS'AACGAC'
p1030
I1068
sS'ATTTGA'
p1031
I2810
sS'CCAATT'
p1032
I374
sS'ATTTGC'
p1033
I3043
sS'GTCGAT'
p1034
I203
sS'ATTTGG'
p1035
I2387
sS'CCCTAG'
p1036
I3710
sS'TGTCGT'
p1037
I569
sS'CCCTAC'
p1038
I3490
sS'CATGGA'
p1039
I3051
sS'CCCTAA'
p1040
I3032
sS'CATTAT'
p1041
I1606
sS'TGGATT'
p1042
I525
sS'ATCACA'
p1043
I3867
sS'ATCACC'
p1044
I3445
sS'CATGCT'
p1045
I1859
sS'TGACAC'
p1046
I872
sS'ATCACG'
p1047
I1264
sS'TGGATA'
p1048
I1554
sS'CATTAG'
p1049
I3237
sS'CATTAA'
p1050
I4414
sS'TGGATG'
p1051
I3476
sS'CATGCA'
p1052
I3992
sS'TGACAT'
p1053
I395
sS'CATGCC'
p1054
I3881
sS'ATCACT'
p1055
I1927
sS'CATGCG'
p1056
I2006
sS'GTAGAA'
p1057
I900
sS'GTAGAC'
p1058
I655
sS'GTAGAG'
p1059
I1179
sS'GATTGG'
p1060
I4985
sS'ACAACC'
p1061
I1267
sS'GATTGC'
p1062
I3246
sS'GATTGA'
p1063
I2933
sS'ACTAAG'
p1064
I1166
sS'GTAGAT'
p1065
I270
sS'TGCTAC'
p1066
I3396
sS'GGGTAC'
p1067
I1219
sS'ATGAGT'
p1068
I841
sS'CATGGC'
p1069
I4962
sS'GATTGT'
p1070
I1842
sS'ACAACT'
p1071
I655
sS'AGGATT'
p1072
I644
sS'GTCGAA'
p1073
I588
sS'TAATAG'
p1074
I937
sS'GTCCGG'
p1075
I5550
sS'TAATAC'
p1076
I908
sS'GTCCGA'
p1077
I2030
sS'TAATAA'
p1078
I1680
sS'GTCCGC'
p1079
I5641
sS'TGCCAT'
p1080
I1701
sS'TCAACA'
p1081
I1212
sS'ACTCTT'
p1082
I546
sS'GTCCGT'
p1083
I1223
sS'TAATAT'
p1084
I560
sS'GGGNCC'
p1085
I1
sS'ATTCGC'
p1086
I642
sS'TTCTCC'
p1087
I14064
sS'ATTCGA'
p1088
I447
sS'TTCTCA'
p1089
I8812
sS'ATCCAT'
p1090
I871
sS'TTCTCG'
p1091
I3655
sS'GAGCTA'
p1092
I3797
sS'TCGTAC'
p1093
I241
sS'TACCTT'
p1094
I1174
sS'TCGTAA'
p1095
I223
sS'TCGTAG'
p1096
I324
sS'TCGTCA'
p1097
I635
sS'CAGCTA'
p1098
I3484
sS'ATCCAA'
p1099
I1993
sS'ATCCAC'
p1100
I2383
sS'TGAACC'
p1101
I1500
sS'TTCTCT'
p1102
I7049
sS'TGAACA'
p1103
I1678
sS'GAACCC'
p1104
I2339
sS'TTATAT'
p1105
I595
sS'GAACCA'
p1106
I1806
sS'TACCTA'
p1107
I2348
sS'TACCTC'
p1108
I3236
sS'TCGTAT'
p1109
I82
sS'ACCATC'
p1110
I2285
sS'ACCATA'
p1111
I1877
sS'ACCATG'
p1112
I3570
sS'ATGTTG'
p1113
I2712
sS'AGCTCT'
p1114
I6521
sS'TGTCCT'
p1115
I2350
sS'AGTGGT'
p1116
I1150
sS'TGATGT'
p1117
I922
sS'ATGTTT'
p1118
I872
sS'ACCATT'
p1119
I676
sS'AGTGGA'
p1120
I3168
sS'AGTGGC'
p1121
I4511
sS'AGCTCC'
p1122
I16264
sS'AGTGGG'
p1123
I5630
sS'ATAGCC'
p1124
I1116
sS'CAGTAA'
p1125
I2056
sS'CAGTAC'
p1126
I1594
sS'CAGTAG'
p1127
I1930
sS'CGCGGT'
p1128
I1956
sS'TTAATA'
p1129
I2319
sS'CAGTAT'
p1130
I670
sS'GTTCCT'
p1131
I1751
sS'AAAGTC'
p1132
I1106
sS'CCGGCT'
p1133
I1876
sS'GATCTA'
p1134
I2217
sS'GATCTC'
p1135
I3764
sS'ATTGAC'
p1136
I871
sS'GATCTG'
p1137
I6818
sS'TGCCAA'
p1138
I3596
sS'CCGGCC'
p1139
I7980
sS'ATTAGG'
p1140
I1621
sS'CCGGCG'
p1141
I3810
sS'CACATT'
p1142
I1502
sS'GTTCCC'
p1143
I4475
sS'TCCCTC'
p1144
I11216
sS'GAGCTT'
p1145
I1869
sS'TCCCTA'
p1146
I4220
sS'TGCCAC'
p1147
I5215
sS'TCCCTG'
p1148
I14629
sS'GATCTT'
p1149
I974
sS'CTAGAC'
p1150
I742
sS'ATAGAA'
p1151
I825
sS'CACAAT'
p1152
I1624
sS'AAGTGC'
p1153
I4220
sS'TGTTCT'
p1154
I2849
sS'AAGTGG'
p1155
I4895
sS'TGATTG'
p1156
I1760
sS'TCTGAT'
p1157
I679
sS'TGTATT'
p1158
I771
sS'CGAGGT'
p1159
I610
sS'TGTTCA'
p1160
I4324
sS'CACAAG'
p1161
I4662
sS'TGTTCC'
p1162
I5650
sS'AAGTGT'
p1163
I1830
sS'CACAAC'
p1164
I3831
sS'TGTTCG'
p1165
I1257
sS'TCTGAA'
p1166
I1913
sS'TCTGAC'
p1167
I2242
sS'TCTGAG'
p1168
I3284
sS'CGCGCC'
p1169
I12652
sS'CGCGCA'
p1170
I5208
sS'GGTAAA'
p1171
I1740
sS'CGCGCG'
p1172
I9279
sS'CTCCCT'
p1173
I8320
sS'AGCGGG'
p1174
I8112
sS'GTGCGT'
p1175
I1099
sS'ACCTCT'
p1176
I2732
sS'GGTAAG'
p1177
I2087
sS'CGCGCT'
p1178
I3846
sS'ACCTCC'
p1179
I8408
sS'ACCTCA'
p1180
I4814
sS'CTATTG'
p1181
I1598
sS'ACCTCG'
p1182
I3342
sS'CTCCCC'
p1183
I19189
sS'GCCTCT'
p1184
I7590
sS'TAAGCC'
p1185
I1798
sS'CGGGAG'
p1186
I4774
sS'CCCATG'
p1187
I5376
sS'CGGGAA'
p1188
I1745
sS'CCCATA'
p1189
I2295
sS'TAGCTG'
p1190
I3941
sS'CCCATC'
p1191
I4727
sS'CCGAGA'
p1192
I1490
sS'CCTGCT'
p1193
I3206
sS'CCGAAT'
p1194
I166
sS'CCCATT'
p1195
I1473
sS'CGGGAT'
p1196
I502
sS'GCCTCG'
p1197
I9637
sS'GCCTCA'
p1198
I9918
sS'TAAGCT'
p1199
I636
sS'GCCTCC'
p1200
I22813
sS'CCGAAC'
p1201
I602
sS'CCTGCG'
p1202
I5081
sS'CCGAAA'
p1203
I406
sS'CCGAAG'
p1204
I1119
sS'CCTGCC'
p1205
I10123
sS'CCTGCA'
p1206
I5907
sS'CGACAC'
p1207
I417
sS'CAAGGT'
p1208
I880
sS'CCATTC'
p1209
I1359
sS'CCATTA'
p1210
I1619
sS'ATTTCC'
p1211
I4525
sS'TATAAA'
p1212
I4133
sS'TATAAC'
p1213
I1793
sS'TAACGA'
p1214
I275
sS'TATAAT'
p1215
I1493
sS'GTTCTA'
p1216
I2080
sS'CCATTT'
p1217
I684
sS'TCTACA'
p1218
I1584
sS'TCTACC'
p1219
I1819
sS'CTAACT'
p1220
I720
sS'TCTACG'
p1221
I657
sS'ACTTTC'
p1222
I2492
sS'CGCAAC'
p1223
I1642
sS'TGCTTA'
p1224
I7018
sS'CGCAAA'
p1225
I1439
sS'ATACCG'
p1226
I213
sS'CGCAAG'
p1227
I2317
sS'ATACCA'
p1228
I733
sS'ATACCC'
p1229
I657
sS'TCTACT'
p1230
I830
sS'CCGAGT'
p1231
I798
sS'ATACCT'
p1232
I309
sS'CGCAAT'
p1233
I444
sS'AAACTG'
p1234
I2166
sS'ATTTCT'
p1235
I1731
sS'TAGTAC'
p1236
I963
sS'CTCAAG'
p1237
I4551
sS'CTCAAA'
p1238
I4386
sS'TAGTAG'
p1239
I1079
sS'CTCAAC'
p1240
I3455
sS'GTGTGC'
p1241
I6174
sS'GTGTGA'
p1242
I3953
sS'GTGTGG'
p1243
I7210
sS'CTCAAT'
p1244
I1296
sS'ATTACA'
p1245
I2123
sS'TAGTAT'
p1246
I542
sS'GTGTGT'
p1247
I4910
sS'ATCTTT'
p1248
I1744
sS'GTTGGG'
p1249
I3692
sS'GTTGGA'
p1250
I1989
sS'GTTGGC'
p1251
I2530
sS'CCTTGG'
p1252
I5453
sS'CCTTGA'
p1253
I2880
sS'GCGTAT'
p1254
I132
sS'CCTTGC'
p1255
I5192
sS'GGACGT'
p1256
I400
sS'GTTGGT'
p1257
I803
sS'ATCTTG'
p1258
I5678
sS'ATCTTA'
p1259
I4494
sS'ATCTTC'
p1260
I4689
sS'AGGATC'
p1261
I1714
sS'AGGATA'
p1262
I1941
sS'AAACTA'
p1263
I1241
sS'AGGATG'
p1264
I4701
sS'GACATG'
p1265
I6206
sS'GACATC'
p1266
I4256
sS'GACATA'
p1267
I3488
sS'TCGGCG'
p1268
I1529
sS'GAATAT'
p1269
I427
sS'TCGGCC'
p1270
I2942
sS'CATAGC'
p1271
I2254
sS'TTGCGA'
p1272
I562
sS'GACATT'
p1273
I1684
sS'TTGCGG'
p1274
I1478
sS'GAATAG'
p1275
I887
sS'TCGGCT'
p1276
I828
sS'ATCAGC'
p1277
I4603
sS'GAATAC'
p1278
I918
sS'GAATAA'
p1279
I1478
sS'CGTCGT'
p1280
I544
sS'CGACAG'
p1281
I582
sS'ATACAA'
p1282
I654
sS'GGACGA'
p1283
I650
sS'AAAATT'
p1284
I395
sS'TGCCTC'
p1285
I9158
sS'ACGTCG'
p1286
I642
sS'GGACGC'
p1287
I2057
sS'GAAATG'
p1288
I4101
sS'AATGAT'
p1289
I975
sS'GAAATA'
p1290
I2651
sS'GAAATC'
p1291
I1525
sS'CGCATT'
p1292
I510
sS'ACCGGT'
p1293
I451
sS'GAAATT'
p1294
I462
sS'AATGAA'
p1295
I4513
sS'ATGTCC'
p1296
I3266
sS'AATGAC'
p1297
I3116
sS'AATGAG'
p1298
I4091
sS'GCGTAC'
p1299
I445
sS'TGCACT'
p1300
I3330
sS'CTTGGC'
p1301
I4570
sS'GTCCTT'
p1302
I2288
sS'CTTGGG'
p1303
I4907
sS'ATACAG'
p1304
I789
sS'AGCCCT'
p1305
I5561
sS'GCGTAA'
p1306
I299
sS'TTGAAT'
p1307
I721
sS'GTCCTA'
p1308
I3383
sS'GTCCTC'
p1309
I8602
sS'TGCACG'
p1310
I3274
sS'TGCACA'
p1311
I7107
sS'GTCCTG'
p1312
I13286
sS'TGCACC'
p1313
I6708
sS'TTGAAA'
p1314
I2226
sS'AGCCCG'
p1315
I8510
sS'AGCCCA'
p1316
I9727
sS'AGCCCC'
p1317
I15698
sS'CTTATG'
p1318
I1695
sS'ATAAAT'
p1319
I762
sS'TGGTCG'
p1320
I1184
sS'TGGTCA'
p1321
I2840
sS'TGGTCC'
p1322
I4175
sS'ACGATT'
p1323
I96
sS'GAGACT'
p1324
I3154
sS'GATTCA'
p1325
I4458
sS'TGGTCT'
p1326
I1853
sS'ATAAAG'
p1327
I1465
sS'AGGAAC'
p1328
I3360
sS'TCAGCC'
p1329
I3516
sS'ATAAAC'
p1330
I1363
sS'GAGACG'
p1331
I4192
sS'ACGGGA'
p1332
I1050
sS'GAGACC'
p1333
I7964
sS'ACGATC'
p1334
I256
sS'GAGACA'
p1335
I7380
sS'ACGATA'
p1336
I217
sS'GGTTAC'
p1337
I1626
sS'ATGTGT'
p1338
I1922
sS'GGTTAA'
p1339
I2041
sS'ACCACT'
p1340
I1893
sS'GGTTAG'
p1341
I1749
sS'CTTCCT'
p1342
I4030
sS'TAAACT'
p1343
I992
sS'CGTGAA'
p1344
I828
sS'CCAACA'
p1345
I1499
sS'TCCGCT'
p1346
I2113
sS'ACCACG'
p1347
I2475
sS'ATGTGG'
p1348
I3670
sS'ACCACC'
p1349
I5334
sS'CGTATG'
p1350
I499
sS'ATGTGC'
p1351
I3059
sS'GGTTAT'
p1352
I651
sS'TCCGCC'
p1353
I8014
sS'TCCGCA'
p1354
I2891
sS'TCCGCG'
p1355
I4452
sS'AACGTC'
p1356
I1253
sS'CGTGAG'
p1357
I1899
sS'AACGTG'
p1358
I2383
sS'CGTGAC'
p1359
I1709
sS'AGTGTG'
p1360
I5176
sS'TCTTCG'
p1361
I1649
sS'AGTGTA'
p1362
I2027
sS'TCTTCA'
p1363
I3875
sS'AGTGTC'
p1364
I2461
sS'TCTTCC'
p1365
I7515
sS'TAAGTG'
p1366
I1949
sS'ACTCAA'
p1367
I1290
sS'TAAGTC'
p1368
I771
sS'TAAGTA'
p1369
I1367
sS'GCTCGC'
p1370
I4822
sS'TCTTCT'
p1371
I2581
sS'AGTGTT'
p1372
I728
sS'GTGCGC'
p1373
I4158
sS'CTTCCA'
p1374
I4547
sS'TTGGCA'
p1375
I2742
sS'AAAGGT'
p1376
I753
sS'TTGGCC'
p1377
I4448
sS'AGTAAC'
p1378
I2136
sS'TTAACG'
p1379
I398
sS'TTGGCG'
p1380
I1648
sS'GACTTC'
p1381
I7986
sS'TCGAGT'
p1382
I268
sS'GACTTA'
p1383
I5141
sS'GACTTG'
p1384
I9459
sS'ACGTAG'
p1385
I437
sS'AAAGGG'
p1386
I3931
sS'AAAGGA'
p1387
I3488
sS'TTGGCT'
p1388
I2020
sS'AAAGGC'
p1389
I3431
sS'AGTAAG'
p1390
I2168
sS'GTATGG'
p1391
I1054
sS'GACTTT'
p1392
I2697
sS'TTCTTT'
p1393
I4253
sS'TGAAAA'
p1394
I1566
sS'CAAGAA'
p1395
I1353
sS'GACGTT'
p1396
I744
sS'CAAGAC'
p1397
I1157
sS'CAAGAG'
p1398
I1902
sS'CGTATT'
p1399
I144
sS'TTCTTG'
p1400
I9495
sS'TTCTTC'
p1401
I9522
sS'TTCTTA'
p1402
I8004
sS'CAAGAT'
p1403
I395
sS'AGTTCC'
p1404
I4640
sS'TACGGG'
p1405
I1431
sS'TACGGA'
p1406
I883
sS'TACGGC'
p1407
I1319
sS'CTAACA'
p1408
I1578
sS'CCAACT'
p1409
I765
sS'TAGAGT'
p1410
I1156
sS'TACGGT'
p1411
I413
sS'AGGGCG'
p1412
I5330
sS'AGGGCA'
p1413
I5771
sS'AGGGCC'
p1414
I8689
sS'TCGAGA'
p1415
I550
sS'TAGAGC'
p1416
I3025
sS'TAGAGA'
p1417
I3384
sS'TAGAGG'
p1418
I3831
sS'CCGTGT'
p1419
I899
sS'GTGCTG'
p1420
I11715
sS'GTGCTA'
p1421
I2760
sS'ATCTGT'
p1422
I3551
sS'GTGCTC'
p1423
I5611
sS'TTGCGC'
p1424
I1434
sS'ATCTGA'
p1425
I4832
sS'GTGCTT'
p1426
I1785
sS'ATCTGC'
p1427
I7394
sS'TCGAGG'
p1428
I1390
sS'CGAATG'
p1429
I589
sS'ATCTGG'
p1430
I7256
sS'CAATTA'
p1431
I1688
sS'ATCATA'
p1432
I2412
sS'GATAGC'
p1433
I2119
sS'AAGCAG'
p1434
I6256
sS'GATAGA'
p1435
I2764
sS'AAGCAA'
p1436
I3476
sS'GATAGG'
p1437
I2728
sS'AAGCAC'
p1438
I3457
sS'GGCTCA'
p1439
I9122
sS'CATTTC'
p1440
I5938
sS'CTAGGT'
p1441
I665
sS'CATTTA'
p1442
I7828
sS'ACGCAT'
p1443
I188
sS'GTTATC'
p1444
I1164
sS'GTTATA'
p1445
I1285
sS'CAAACA'
p1446
I2867
sS'AAGCAT'
p1447
I1051
sS'CAAACC'
p1448
I2367
sS'GTGGCC'
p1449
I8850
sS'ATCATT'
p1450
I907
sS'GATAGT'
p1451
I1035
sS'ACGCAG'
p1452
I1322
sS'CTAGGG'
p1453
I2296
sS'GTTATT'
p1454
I642
sS'CTAGGC'
p1455
I2016
sS'CATTTT'
p1456
I2137
sS'CTAGGA'
p1457
I1705
sS'AAGTTT'
p1458
I761
sS'TACAGT'
p1459
I2730
sS'GTGGCG'
p1460
I4432
sS'CTAAGA'
p1461
I1435
sS'GGGGCT'
p1462
I3868
sS'TACAGG'
p1463
I5170
sS'CTTCCG'
p1464
I3839
sS'AAGTTA'
p1465
I2630
sS'TACAGC'
p1466
I5508
sS'AAGTTC'
p1467
I2051
sS'TACAGA'
p1468
I5926
sS'GGGGCC'
p1469
I10753
sS'GTATGA'
p1470
I978
sS'GGGGCA'
p1471
I5149
sS'GGGGCG'
p1472
I9123
sS'ACAGTG'
p1473
I1998
sS'AGCGGT'
p1474
I1369
sS'TATATA'
p1475
I3633
sS'TGTATA'
p1476
I2035
sS'TATATG'
p1477
I2187
sS'TCCGGT'
p1478
I1093
sS'GCCCAT'
p1479
I1453
sS'TATATT'
p1480
I867
sS'TAGTAA'
p1481
I1566
sS'TGATGG'
p1482
I1730
sS'CTCGGT'
p1483
I1565
sS'TGATGC'
p1484
I1556
sS'AGGTCT'
p1485
I2105
sS'TGATGA'
p1486
I1288
sS'TGTTTA'
p1487
I6722
sS'CACATC'
p1488
I4414
sS'TGTTTC'
p1489
I5608
sS'CACATA'
p1490
I4372
sS'TTAATT'
p1491
I723
sS'CACATG'
p1492
I7450
sS'TGTTTG'
p1493
I7243
sS'ATGAGA'
p1494
I2527
sS'ATGAGC'
p1495
I2354
sS'ATGAGG'
p1496
I3302
sS'TTTCAC'
p1497
I2605
sS'ACTCTG'
p1498
I4343
sS'TGCCAG'
p1499
I7942
sS'ACTCTA'
p1500
I1474
sS'TTTCAG'
p1501
I3521
sS'ACTCTC'
p1502
I2279
sS'TTAATG'
p1503
I2223
sS'TGTAAT'
p1504
I1446
sS'AAATTA'
p1505
I2365
sS'AAATTG'
p1506
I1608
sS'CCAGTA'
p1507
I897
sS'CTTCGA'
p1508
I1070
sS'CGTACC'
p1509
I812
sS'TTAATC'
p1510
I1016
sS'AAATTT'
p1511
I373
sS'TTCGAA'
p1512
I626
sS'CTTAGT'
p1513
I846
sS'GTCTAT'
p1514
I1096
sS'GGGAAC'
p1515
I3666
sS'GGTGCG'
p1516
I3234
sS'GGGAAA'
p1517
I3928
sS'GGGAAG'
p1518
I8194
sS'GGTGCC'
p1519
I4767
sS'GGTGCA'
p1520
I3085
sS'AGAGCG'
p1521
I2339
sS'GCGACT'
p1522
I672
sS'AGCGAT'
p1523
I505
sS'AGAGCC'
p1524
I5222
sS'AGAGCA'
p1525
I3420
sS'GCGTAG'
p1526
I616
sS'GGTGCT'
p1527
I1895
sS'CTTGTG'
p1528
I3626
sS'ACTGAA'
p1529
I1567
sS'GGGAAT'
p1530
I991
sS'GCGACG'
p1531
I1505
sS'AGAGCT'
p1532
I1726
sS'GCGACA'
p1533
I1088
sS'TATCGG'
p1534
I567
sS'GCGACC'
p1535
I2207
sS'AGGTCG'
p1536
I1699
sS'GCAGGA'
p1537
I4561
sS'GCAGGC'
p1538
I5355
sS'GCAGGG'
p1539
I7134
sS'CCGTGA'
p1540
I1123
sS'CCGTGC'
p1541
I2254
sS'GCTCGG'
p1542
I5927
sS'TATTCT'
p1543
I2160
sS'CCGTGG'
p1544
I2592
sS'ACTTAC'
p1545
I1488
sS'CTTTAG'
p1546
I2318
sS'GCAGGT'
p1547
I1566
sS'ATTGTG'
p1548
I2019
sS'ACGTCT'
p1549
I556
sS'TATTCC'
p1550
I3300
sS'GGCGAG'
p1551
I6195
sS'TATTCA'
p1552
I4087
sS'GGCGAA'
p1553
I1721
sS'TATTCG'
p1554
I625
sS'GGCGAC'
p1555
I3457
sS'TGTAGA'
p1556
I2420
sS'TTTACC'
p1557
I1994
sS'TGTAGC'
p1558
I2647
sS'GGCTCC'
p1559
I21343
sS'AATCCT'
p1560
I1527
sS'TGTAGG'
p1561
I2779
sS'GGCTCG'
p1562
I7636
sS'TTCGGA'
p1563
I1156
sS'TTCGGC'
p1564
I2152
sS'CTTTAC'
p1565
I2349
sS'TTCAAG'
p1566
I4092
sS'TTCGGG'
p1567
I2747
sS'AGCATG'
p1568
I6217
sS'GGCTCT'
p1569
I7141
sS'AGCATC'
p1570
I4670
sS'TTTACT'
p1571
I1400
sS'AGCATA'
p1572
I3061
sS'AGACCT'
p1573
I746
sS'TTCGGT'
p1574
I560
sS'GTTTAT'
p1575
I1205
sS'GGGGAG'
p1576
I7386
sS'GCACTC'
p1577
I1429
sS'GCCTTT'
p1578
I3382
sS'AGGCAT'
p1579
I996
sS'GTTTAA'
p1580
I2933
sS'GAGGTG'
p1581
I9882
sS'CACGAA'
p1582
I1123
sS'CAATCT'
p1583
I650
sS'GTTTAG'
p1584
I1770
sS'CTTATA'
p1585
I1536
sS'CAGGTG'
p1586
I6218
sS'TAAATT'
p1587
I578
sS'CTGGCT'
p1588
I4435
sS'AGGCGG'
p1589
I8383
sS'AGGCGA'
p1590
I2283
sS'AGGCGC'
p1591
I6133
sS'AGGAGT'
p1592
I2319
sS'ACAGCC'
p1593
I3910
sS'ACAGCA'
p1594
I2983
sS'GAGGTC'
p1595
I4129
sS'ACAGCG'
p1596
I1615
sS'AGGAGC'
p1597
I9173
sS'GTCGGA'
p1598
I1670
sS'AGGAGA'
p1599
I7098
sS'CTGGCG'
p1600
I4895
sS'AGGAGG'
p1601
I15583
sS'CTGGCA'
p1602
I6594
sS'CTGGCC'
p1603
I12406
sS'GCGCCC'
p1604
I6819
sS'CGATAC'
p1605
I118
sS'ACAGCT'
p1606
I1381
sS'GGAAAA'
p1607
I1904
sS'AACGCT'
p1608
I1177
sS'AATTTT'
p1609
I1029
sS'AAACAG'
p1610
I2607
sS'TGTCAC'
p1611
I4074
sS'CCCTCT'
p1612
I6405
sS'AACCTT'
p1613
I1226
sS'ATTTAT'
p1614
I1537
sS'AACGCG'
p1615
I1957
sS'AATTTA'
p1616
I6109
sS'AATTTC'
p1617
I3002
sS'ATTGGC'
p1618
I2707
sS'AACGCA'
p1619
I1946
sS'AATTTG'
p1620
I4408
sS'CCCTCA'
p1621
I8695
sS'CCCTCC'
p1622
I24481
sS'TGTCAT'
p1623
I1302
sS'CCCTCG'
p1624
I7345
sS'TAAATA'
p1625
I3378
sS'CACGAT'
p1626
I387
sS'GGAAAG'
p1627
I3257
sS'ATTTTT'
p1628
I970
sS'TGACCA'
p1629
I999
sS'TGACCC'
p1630
I1568
sS'TAAATC'
p1631
I1279
sS'TGACCG'
p1632
I567
sS'ATGGTT'
p1633
I354
sS'CATTCG'
p1634
I1264
sS'TGACCT'
p1635
I709
sS'CATTCA'
p1636
I5600
sS'TCCATA'
p1637
I2651
sS'ACGAAA'
p1638
I323
sS'TAAATG'
p1639
I2916
sS'ACAAAT'
p1640
I446
sS'GATTAA'
p1641
I4057
sS'GTAGGC'
p1642
I1459
sS'GATTAC'
p1643
I2483
sS'GTAGGA'
p1644
I1433
sS'GTAGGG'
p1645
I2178
sS'GATTAG'
p1646
I2771
sS'GAATGA'
p1647
I2452
sS'ACAAAC'
p1648
I1289
sS'TTTCAA'
p1649
I2943
sS'CAATTG'
p1650
I1031
sS'ACAAAG'
p1651
I1739
sS'GCGGGC'
p1652
I6820
sS'GTCGGT'
p1653
I892
sS'GCGGGA'
p1654
I4314
sS'GCGGGG'
p1655
I11181
sS'GATTAT'
p1656
I1262
sS'GTAGGT'
p1657
I587
sS'AACCTG'
p1658
I6417
sS'TAATGA'
p1659
I2021
sS'GATGTT'
p1660
I1086
sS'TAATGC'
p1661
I1594
sS'GGAGAT'
p1662
I536
sS'GCCCTT'
p1663
I2506
sS'GCGCCG'
p1664
I4968
sS'GGCGTA'
p1665
I1118
sS'GCCCTC'
p1666
I11432
sS'GATGTG'
p1667
I6387
sS'GCCCTA'
p1668
I3994
sS'GATGTA'
p1669
I3133
sS'GCCCTG'
p1670
I19325
sS'GATGTC'
p1671
I3319
sS'AACCTC'
p1672
I4424
sS'TGAAAT'
p1673
I708
sS'AACCTA'
p1674
I2867
sS'TTCTAA'
p1675
I5612
sS'ATCCGT'
p1676
I444
sS'TTCTAC'
p1677
I3649
sS'GAATGT'
p1678
I1069
sS'TGAAAC'
p1679
I1463
sS'TGAAAG'
p1680
I1830
sS'TTCTAT'
p1681
I1821
sS'ATCCGC'
p1682
I2102
sS'AGTAAT'
p1683
I1040
sS'ATCCGA'
p1684
I909
sS'ATCCGG'
p1685
I2069
sS'TGGCTC'
p1686
I5598
sS'TGGCTA'
p1687
I2590
sS'NNNNCT'
p1688
I1
sS'TGGCTG'
p1689
I10771
sS'GGGTGA'
p1690
I3655
sS'AGTTGT'
p1691
I1552
sS'AGCTAT'
p1692
I1459
sS'ATTAGT'
p1693
I785
sS'GTCGGC'
p1694
I3469
sS'TGGCTT'
p1695
I1497
sS'AGTTGG'
p1696
I3438
sS'AGCTAA'
p1697
I4384
sS'AGCTAC'
p1698
I3839
sS'AGTTGC'
p1699
I3287
sS'AGTTGA'
p1700
I2514
sS'AGCTAG'
p1701
I3753
sS'CGTTGA'
p1702
I955
sS'GCACCT'
p1703
I1257
sS'CAGTGT'
p1704
I2762
sS'TAACAA'
p1705
I951
sS'TCAGGT'
p1706
I557
sS'TCAAGG'
p1707
I1524
sS'GTCGGG'
p1708
I4896
sS'TCAAGC'
p1709
I1223
sS'TCAAGA'
p1710
I964
sS'CTAATA'
p1711
I1409
sS'CAGTGC'
p1712
I6580
sS'GCACCC'
p1713
I2616
sS'CAGTGA'
p1714
I4982
sS'CAGTGG'
p1715
I6551
sS'GCACCG'
p1716
I1824
sS'TCAAGT'
p1717
I557
sS'TCAGGG'
p1718
I2520
sS'CGCAGG'
p1719
I10506
sS'ACTAGT'
p1720
I387
sS'TCAGGC'
p1721
I2188
sS'GTGGGT'
p1722
I2116
sS'TCCTAA'
p1723
I3515
sS'TAACAG'
p1724
I1257
sS'TTCCCT'
p1725
I5136
sS'CGAGCG'
p1726
I1947
sS'GTTAGT'
p1727
I706
sS'CGAGCA'
p1728
I1336
sS'CGCAGC'
p1729
I12361
sS'CGAGCC'
p1730
I3021
sS'TTCCCA'
p1731
I8565
sS'TTCCCC'
p1732
I10351
sS'GTTCAC'
p1733
I1912
sS'GTTCAA'
p1734
I1558
sS'TGAGCA'
p1735
I2323
sS'GGACCT'
p1736
I803
sS'CTTACT'
p1737
I1082
sS'TACATG'
p1738
I4006
sS'AAGTAC'
p1739
I1613
sS'CACACT'
p1740
I4076
sS'TACATC'
p1741
I2524
sS'AAGTAG'
p1742
I1735
sS'TACATA'
p1743
I4095
sS'GCACAC'
p1744
I1355
sS'GGACCG'
p1745
I1131
sS'ATTGGT'
p1746
I842
sS'GGACCA'
p1747
I1282
sS'TCATCA'
p1748
I1642
sS'GGACCC'
p1749
I2491
sS'CACACG'
p1750
I4568
sS'TACATT'
p1751
I1587
sS'CACACC'
p1752
I8258
sS'GCACAA'
p1753
I777
sS'CACACA'
p1754
I14544
sS'ACGGTC'
p1755
I543
sS'TCTGCC'
p1756
I5730
sS'TCTGCA'
p1757
I4584
sS'AGGTAG'
p1758
I1564
sS'TCTGCG'
p1759
I2883
sS'TGCCCC'
p1760
I9531
sS'ATTGCC'
p1761
I1424
sS'CCCGTC'
p1762
I3350
sS'TTAAGG'
p1763
I1630
sS'CCCGTA'
p1764
I1127
sS'CGTCGA'
p1765
I635
sS'CCCGTG'
p1766
I4305
sS'TTAAGC'
p1767
I1371
sS'TTACGT'
p1768
I213
sS'TAGATC'
p1769
I943
sS'TGTCAA'
p1770
I2177
sS'TAGATA'
p1771
I2002
sS'TTTCGC'
p1772
I1200
sS'TAGATG'
p1773
I2264
sS'TGGTTA'
p1774
I2172
sS'TCTGCT'
p1775
I2257
sS'TTACGC'
p1776
I340
sS'TTAAGT'
p1777
I912
sS'TTACGA'
p1778
I196
sS'TTACGG'
p1779
I368
sS'CCCGTT'
p1780
I626
sS'AGTGAC'
p1781
I3555
sS'AGTGAA'
p1782
I2760
sS'AGTGAG'
p1783
I4305
sS'CGGGCG'
p1784
I5563
sS'AAACAC'
p1785
I1844
sS'TAAGAG'
p1786
I1351
sS'CGGGCC'
p1787
I7974
sS'TAAGAA'
p1788
I1200
sS'CGGGCA'
p1789
I3492
sS'TAAGAC'
p1790
I832
sS'TGTCAG'
p1791
I4473
sS'AGTGAT'
p1792
I830
sS'CTTTCC'
p1793
I8793
sS'TAAGAT'
p1794
I320
sS'CCTGAA'
p1795
I1887
sS'CCTGAC'
p1796
I2804
sS'CCTGAG'
p1797
I4158
sS'GTTAGG'
p1798
I2033
sS'GCCAAC'
p1799
I3495
sS'TCATCT'
p1800
I1235
sS'GTTAGC'
p1801
I1565
sS'GTTAGA'
p1802
I1674
sS'ACCCCC'
p1803
I4880
sS'TGAATT'
p1804
I394
sS'TATACG'
p1805
I333
sS'CGGATG'
p1806
I1622
sS'TATACC'
p1807
I1305
sS'TATACA'
p1808
I2482
sS'AACGCC'
p1809
I2865
sS'CGTATA'
p1810
I321
sS'TCTTGT'
p1811
I1656
sS'GTAATG'
p1812
I1574
sS'TTTATT'
p1813
I1224
sS'GTAATA'
p1814
I1285
sS'ATTGGA'
p1815
I1329
sS'GTAATC'
p1816
I739
sS'TCTAAC'
p1817
I1237
sS'CGTTCT'
p1818
I1032
sS'CCACCG'
p1819
I1777
sS'CGGATC'
p1820
I1027
sS'CCACCA'
p1821
I2443
sS'CCACCC'
p1822
I4499
sS'ATTACT'
p1823
I905
sS'TTTATG'
p1824
I2927
sS'ACTAGG'
p1825
I1544
sS'GTAACG'
p1826
I577
sS'TTTATC'
p1827
I2021
sS'ACTAGC'
p1828
I1104
sS'TTTATA'
p1829
I3249
sS'ATTTAC'
p1830
I2211
sS'CCACCT'
p1831
I1797
sS'CGTTCG'
p1832
I1041
sS'ACTTGT'
p1833
I1149
sS'CGTTCA'
p1834
I1348
sS'CGTTCC'
p1835
I3002
sS'TCTAAT'
p1836
I749
sS'TCGTCT'
p1837
I516
sS'CTTTGT'
p1838
I3107
sS'ATTTAA'
p1839
I3935
sS'CGCCAA'
p1840
I2067
sS'ACTGGA'
p1841
I2129
sS'ACTGGC'
p1842
I2872
sS'TAGTCC'
p1843
I2578
sS'GTGACC'
p1844
I4514
sS'TAGTCA'
p1845
I2201
sS'GTGACA'
p1846
I3836
sS'TAGTCG'
p1847
I659
sS'GTGACG'
p1848
I2468
sS'ATTTAG'
p1849
I1852
sS'ACTGGT'
p1850
I627
sS'CTTTGG'
p1851
I5245
sS'CCTATG'
p1852
I1365
sS'GTATTT'
p1853
I655
sS'GGGTTT'
p1854
I923
sS'CTTTGC'
p1855
I6011
sS'CTTTGA'
p1856
I4271
sS'TTCTAG'
p1857
I4019
sS'GTGACT'
p1858
I2010
sS'TAGTCT'
p1859
I1266
sS'GTGCAC'
p1860
I3004
sS'GCGCTT'
p1861
I652
sS'GTGCAA'
p1862
I1774
sS'GCAATT'
p1863
I330
sS'ACCTAA'
p1864
I2032
sS'CGACGC'
p1865
I938
sS'ACCTAC'
p1866
I2019
sS'CCGCAG'
p1867
I2641
sS'CCGCAA'
p1868
I562
sS'CCGCAC'
p1869
I1420
sS'ACGTGG'
p1870
I1994
sS'CGAAGC'
p1871
I1553
sS'GCGCTG'
p1872
I6506
sS'CGAAGA'
p1873
I849
sS'CCCCGT'
p1874
I1615
sS'CGAAGG'
p1875
I1822
sS'GCGCTC'
p1876
I4033
sS'GTGCAT'
p1877
I932
sS'GCGCTA'
p1878
I1071
sS'NCTGAC'
p1879
I1
sS'CCGCAT'
p1880
I242
sS'GTTCGC'
p1881
I1520
sS'GAAGAT'
p1882
I591
sS'GGATCT'
p1883
I725
sS'TCGTTT'
p1884
I238
sS'TCGGAC'
p1885
I534
sS'GAATCT'
p1886
I966
sS'TCGGAG'
p1887
I1165
sS'GGATCG'
p1888
I510
sS'GAAGAG'
p1889
I4451
sS'GGTATA'
p1890
I846
sS'GAAGAA'
p1891
I2844
sS'GGATCC'
p1892
I2120
sS'GAAGAC'
p1893
I2431
sS'GGATCA'
p1894
I910
sS'GAATCA'
p1895
I2018
sS'GAATCC'
p1896
I2583
sS'TCGGAT'
p1897
I110
sS'GAATCG'
p1898
I657
sS'ATGGTC'
p1899
I996
sS'CAGATG'
p1900
I6714
sS'ACGCCG'
p1901
I1428
sS'CATTCT'
p1902
I2460
sS'ACGCCA'
p1903
I1191
sS'CAGATC'
p1904
I2011
sS'ACGCCC'
p1905
I2262
sS'CAGATA'
p1906
I2868
sS'GGGTAT'
p1907
I395
sS'CTCGAG'
p1908
I2333
sS'CAGATT'
p1909
I603
sS'TGATTA'
p1910
I1395
sS'CTCGAC'
p1911
I1440
sS'CTCGAA'
p1912
I955
sS'TCGCAA'
p1913
I270
sS'AAATTC'
p1914
I968
sS'GCTATT'
p1915
I470
sS'TGCGTC'
p1916
I2508
sS'AATGGT'
p1917
I996
sS'ATGATA'
p1918
I1562
sS'GTTACG'
p1919
I547
sS'ACGTGT'
p1920
I622
sS'CCCCGC'
p1921
I18134
sS'AATGGA'
p1922
I3551
sS'AATGGG'
p1923
I3840
sS'CAATAC'
p1924
I589
sS'GATCAA'
p1925
I2233
sS'CACTCT'
p1926
I4447
sS'CAACTC'
p1927
I1145
sS'ACAATA'
p1928
I1021
sS'AATAGC'
p1929
I2502
sS'GTGAAT'
p1930
I691
sS'AGCCAG'
p1931
I12222
sS'GGAGGG'
p1932
I8543
sS'AAAAGT'
p1933
I1006
sS'GGAGGA'
p1934
I5259
sS'GGAGGC'
p1935
I6251
sS'TGGTAG'
p1936
I1267
sS'CGCCAT'
p1937
I1428
sS'GAGTGT'
p1938
I3111
sS'TGGTAC'
p1939
I1102
sS'GAGGTA'
p1940
I2960
sS'TGGTAA'
p1941
I1243
sS'AAAAGG'
p1942
I4052
sS'GGAGGT'
p1943
I1420
sS'AGCCAT'
p1944
I2053
sS'AAAAGC'
p1945
I3743
sS'AAAAGA'
p1946
I3912
sS'TTGACT'
p1947
I935
sS'GAGTGG'
p1948
I8698
sS'CGCCAG'
p1949
I6075
sS'TGGTAT'
p1950
I487
sS'ACGCCT'
p1951
I707
sS'GAGTGC'
p1952
I6254
sS'CGCCAC'
p1953
I4824
sS'GAGTGA'
p1954
I5712
sS'GCCAGG'
p1955
I19165
sS'GCCAGA'
p1956
I8477
sS'GCCAGC'
p1957
I14925
sS'GCCCGT'
p1958
I1748
sS'TACCGA'
p1959
I787
sS'TACCGC'
p1960
I1769
sS'TACCGG'
p1961
I1565
sS'GCCCGC'
p1962
I15096
sS'GCCAGT'
p1963
I3500
sS'GCCCGA'
p1964
I4234
sS'GCCCGG'
p1965
I15251
sS'TGCGAT'
p1966
I340
sS'CTTCAC'
p1967
I3000
sS'CTTCAA'
p1968
I2309
sS'CTTCAG'
p1969
I4030
sS'TCCGAG'
p1970
I2706
sS'TCCGAA'
p1971
I827
sS'TCCGAC'
p1972
I1352
sS'AATTCA'
p1973
I4345
sS'TATTAG'
p1974
I2459
sS'AATTCC'
p1975
I3659
sS'AATTCG'
p1976
I750
sS'TCCGAT'
p1977
I293
sS'GGACAA'
p1978
I705
sS'ACATAC'
p1979
I808
sS'TAGCGG'
p1980
I1575
sS'AATTCT'
p1981
I1875
sS'TAGCGC'
p1982
I1446
sS'GTCATC'
p1983
I3326
sS'GTCATA'
p1984
I2623
sS'GTCATG'
p1985
I4365
sS'AGCAGG'
p1986
I17647
sS'CCAGGT'
p1987
I1459
sS'TTGGAA'
p1988
I1555
sS'AGCAGC'
p1989
I19697
sS'AGCAGA'
p1990
I11124
sS'GGGGTG'
p1991
I6535
sS'CCAGGG'
p1992
I5764
sS'AGCAGT'
p1993
I4621
sS'CCAGGA'
p1994
I4119
sS'CCAGGC'
p1995
I6256
sS'TTGGAT'
p1996
I402
sS'ACGGTA'
p1997
I347
sS'CATCTG'
p1998
I10721
sS'GATCGG'
p1999
I1722
sS'CATCTA'
p2000
I2983
sS'GATCGA'
p2001
I804
sS'CATCTC'
p2002
I5173
sS'CAAGCT'
p2003
I1281
sS'ATTAGA'
p2004
I2085
sS'ACAAAA'
p2005
I1353
sS'GGATGG'
p2006
I2403
sS'CAAGCC'
p2007
I3935
sS'CATCTT'
p2008
I1551
sS'CAAGCA'
p2009
I2748
sS'CAAGCG'
p2010
I1442
sS'GTTCTT'
p2011
I842
sS'ACATGA'
p2012
I1273
sS'CGTAAT'
p2013
I223
sS'ACATGC'
p2014
I1637
sS'GCTCAA'
p2015
I1776
sS'CCCGCT'
p2016
I3424
sS'GTACAT'
p2017
I249
sS'GGCCAT'
p2018
I1678
sS'CGTAAG'
p2019
I648
sS'GTTCTG'
p2020
I5519
sS'ACATGT'
p2021
I975
sS'CGTAAC'
p2022
I562
sS'CGTAAA'
p2023
I626
sS'AGGGAG'
p2024
I7368
sS'ACGGAA'
p2025
I497
sS'GGATAC'
p2026
I465
sS'CCCGCC'
p2027
I21271
sS'CCCGCA'
p2028
I5412
sS'CCCTTT'
p2029
I3170
sS'TGTTGT'
p2030
I2512
sS'GTTGTT'
p2031
I563
sS'TGGATC'
p2032
I1300
sS'TTGTCG'
p2033
I868
sS'TTGTCC'
p2034
I4262
sS'TTGTCA'
p2035
I3273
sS'ATCCTC'
p2036
I4064
sS'GTTGTA'
p2037
I1537
sS'ATCCTA'
p2038
I2426
sS'GTTGTC'
p2039
I1455
sS'ATCCTG'
p2040
I6308
sS'GTTGTG'
p2041
I2836
sS'TTGTCT'
p2042
I2284
sS'ACGCGC'
p2043
I1942
sS'CCACTG'
p2044
I2587
sS'TCTTGC'
p2045
I3596
sS'TGGGCC'
p2046
I6735
sS'TGACTC'
p2047
I1213
sS'TGGGCA'
p2048
I4321
sS'TGGGCG'
p2049
I3974
sS'TGACTG'
p2050
I1832
sS'AAGCCG'
p2051
I3353
sS'AAGCCC'
p2052
I7042
sS'AAGCCA'
p2053
I5756
sS'CAAAAT'
p2054
I569
sS'ACGCGG'
p2055
I1835
sS'TGGGCT'
p2056
I2498
sS'CAAAAC'
p2057
I1796
sS'CAAAAA'
p2058
I1400
sS'AAGCCT'
p2059
I2553
sS'CAAAAG'
p2060
I1820
sS'TGATTT'
p2061
I417
sS'TCAATG'
p2062
I1081
sS'AAACTT'
p2063
I341
sS'TCAATC'
p2064
I583
sS'AAGGGA'
p2065
I5983
sS'TCAATA'
p2066
I931
sS'CAGTTC'
p2067
I3191
sS'GACCCG'
p2068
I6972
sS'GACCCA'
p2069
I7651
sS'GACCCC'
p2070
I11829
sS'CTCTGT'
p2071
I7441
sS'TCAATT'
p2072
I327
sS'TGGCGT'
p2073
I881
sS'CTCTGC'
p2074
I22335
sS'GACCCT'
p2075
I4384
sS'CTCTGA'
p2076
I10717
sS'ACAATC'
p2077
I617
sS'CTCTGG'
p2078
I18326
sS'CAGTTT'
p2079
I971
sS'GCGAAG'
p2080
I1502
sS'CTACTC'
p2081
I1053
sS'TGCTGG'
p2082
I15951
sS'TGCTGA'
p2083
I9403
sS'GAGTCT'
p2084
I3358
sS'TGCTGC'
p2085
I18544
sS'TAGGGA'
p2086
I2721
sS'GCTGGT'
p2087
I1879
sS'GTGATT'
p2088
I648
sS'ACGTTA'
p2089
I474
sS'TGCTGT'
p2090
I6638
sS'TCCCCA'
p2091
I8141
sS'TAATGG'
p2092
I1827
sS'TCGCTA'
p2093
I517
sS'GTGATG'
p2094
I3772
sS'GCTGGG'
p2095
I12900
sS'GTGATC'
p2096
I1198
sS'GCTGGC'
p2097
I7988
sS'GTGATA'
p2098
I1728
sS'GCTGGA'
p2099
I5695
sS'TGATAA'
p2100
I900
sS'TGTAGT'
p2101
I1551
sS'TGATAC'
p2102
I511
sS'TGATAG'
p2103
I610
sS'CTTGTT'
p2104
I704
sS'GACGGT'
p2105
I1493
sS'GCTAGG'
p2106
I2996
sS'GCTAGA'
p2107
I1793
sS'ATGAAT'
p2108
I695
sS'GCTAGC'
p2109
I1803
sS'AAGGGT'
p2110
I1514
sS'TGATAT'
p2111
I373
sS'GTAGTG'
p2112
I1212
sS'GCTAGT'
p2113
I688
sS'ATGAAC'
p2114
I1421
sS'GACGGG'
p2115
I6865
sS'ATGAAA'
p2116
I2276
sS'GACGGA'
p2117
I3312
sS'ATGAAG'
p2118
I2068
sS'GACGGC'
p2119
I5830
sS'CTTGTC'
p2120
I2324
sS'GCACTT'
p2121
I481
sS'GNCCGC'
p2122
I1
sS'CAACGT'
p2123
I236
sS'GGTGAA'
p2124
I2047
sS'GGTGAC'
p2125
I3371
sS'GCGTCT'
p2126
I1367
sS'GACTGT'
p2127
I4950
sS'GGTGAG'
p2128
I5133
sS'GGAATG'
p2129
I2046
sS'CGTCCT'
p2130
I1464
sS'GGAATC'
p2131
I999
sS'GGAATA'
p2132
I1005
sS'GCGTCA'
p2133
I1542
sS'GCGTCC'
p2134
I4502
sS'GGTGAT'
p2135
I715
sS'GCGTCG'
p2136
I1478
sS'CGTCCG'
p2137
I2289
sS'GGAATT'
p2138
I342
sS'CGTCCC'
p2139
I4811
sS'CGTCCA'
p2140
I1979
sS'TTTCGA'
p2141
I625
sS'CCGTAT'
p2142
I126
sS'GAAGTC'
p2143
I2053
sS'GAAGTA'
p2144
I1723
sS'GCCGTC'
p2145
I3555
sS'GCCGTA'
p2146
I1267
sS'CCGTAC'
p2147
I364
sS'CCGTAA'
p2148
I276
sS'CCGTAG'
p2149
I546
sS'CAAAGT'
p2150
I1000
sS'CTAAAA'
p2151
I1180
sS'GAAGTT'
p2152
I472
sS'GGCGCG'
p2153
I10548
sS'ATGCCC'
p2154
I3439
sS'TTAGTT'
p2155
I245
sS'ATGCCA'
p2156
I2841
sS'GGCGCC'
p2157
I12864
sS'ATGCCG'
p2158
I1367
sS'GGCGCA'
p2159
I5219
sS'TATTAC'
p2160
I2657
sS'ACTATG'
p2161
I985
sS'CCATAT'
p2162
I432
sS'TTTAAG'
p2163
I2761
sS'ACTATC'
p2164
I573
sS'TTTAAA'
p2165
I6231
sS'ACTATA'
p2166
I887
sS'TTTAAC'
p2167
I2463
sS'TATTAT'
p2168
I2046
sS'TTAGTG'
p2169
I1306
sS'GGCGCT'
p2170
I4124
sS'TTAGTC'
p2171
I600
sS'ATGCCT'
p2172
I1546
sS'TTAGTA'
p2173
I918
sS'TTTAAT'
p2174
I1661
sS'CTAACG'
p2175
I530
sS'GGGCAT'
p2176
I829
sS'TTTCCG'
p2177
I1799
sS'TTTCCA'
p2178
I4212
sS'TTTCCC'
p2179
I5955
sS'GTACGT'
p2180
I208
sS'GTTTGT'
p2181
I2012
sS'TTTCCT'
p2182
I2797
sS'GGGCAG'
p2183
I7543
sS'CCTGGA'
p2184
I4896
sS'GGGCAA'
p2185
I1813
sS'GGGCAC'
p2186
I3576
sS'GTTTGC'
p2187
I3954
sS'CTATTT'
p2188
I658
sS'GTTTGA'
p2189
I2963
sS'GTTTGG'
p2190
I3845
sS'GTACGA'
p2191
I234
sS'CCGCTC'
p2192
I3525
sS'GCATGT'
p2193
I1056
sS'CCGCTA'
p2194
I989
sS'CCGCTG'
p2195
I4976
sS'AGCATT'
p2196
I1351
sS'GCGCGG'
p2197
I6817
sS'GCGCGC'
p2198
I6655
sS'GCGCGA'
p2199
I1722
sS'GCATGG'
p2200
I1973
sS'GCATGC'
p2201
I2188
sS'CCGCTT'
p2202
I611
sS'GCATGA'
p2203
I1215
sS'GTCGAC'
p2204
I752
sS'GCGCGT'
p2205
I1048
sS'GTCGAG'
p2206
I1440
sS'AGACAT'
p2207
I434
sS'ACCGAG'
p2208
I2020
sS'TGCGCT'
p2209
I2129
sS'GAGCTC'
p2210
I8224
sS'ATTGAT'
p2211
I334
sS'GAGCTG'
p2212
I17388
sS'AAACGA'
p2213
I575
sS'AAACGC'
p2214
I1100
sS'GTAACA'
p2215
I1526
sS'CACGCG'
p2216
I3784
sS'AAACGG'
p2217
I917
sS'TGTCCC'
p2218
I6053
sS'TGCGCG'
p2219
I4916
sS'TGTCCA'
p2220
I3820
sS'TGTCCG'
p2221
I2161
sS'TGCGCC'
p2222
I6072
sS'ATTGAG'
p2223
I1189
sS'TGCGCA'
p2224
I3524
sS'GCGCAG'
p2225
I3549
sS'AAACGT'
p2226
I315
sS'TGGGTT'
p2227
I588
sS'ATTTCA'
p2228
I3748
sS'TACGCA'
p2229
I1039
sS'ATCAGT'
p2230
I1674
sS'ATCGGG'
p2231
I1248
sS'CATAGT'
p2232
I916
sS'ATCGGC'
p2233
I1085
sS'ATCGGA'
p2234
I576
sS'TGGGTG'
p2235
I4915
sS'CGATCA'
p2236
I300
sS'TGGGTC'
p2237
I2232
sS'TGGGTA'
p2238
I1709
sS'CATAGG'
p2239
I2000
sS'ATCGGT'
p2240
I246
sS'ATCAGG'
p2241
I4164
sS'ATCAGA'
p2242
I4023
sS'CATAGA'
p2243
I2155
sS'ACGGGT'
p2244
I292
sS'ATAATT'
p2245
I441
sS'CCTGGT'
p2246
I1694
sS'ATTCGG'
p2247
I687
sS'GATTCT'
p2248
I2592
sS'CTTTTG'
p2249
I5976
sS'TACTAG'
p2250
I1947
sS'CTTTTC'
p2251
I5604
sS'TACTAC'
p2252
I2285
sS'GATTCC'
p2253
I5261
sS'ACGGGG'
p2254
I2021
sS'GATTCG'
p2255
I1521
sS'ACGGGC'
p2256
I1463
sS'TACTAT'
p2257
I1253
sS'CTTTTT'
p2258
I1488
sS'ACCAAC'
p2259
I2193
sS'CGTAGA'
p2260
I743
sS'TCACGA'
p2261
I281
sS'TCACGC'
p2262
I851
sS'AGAGTG'
p2263
I2509
sS'TCACGG'
p2264
I784
sS'TCTCAT'
p2265
I796
sS'TCACGT'
p2266
I407
sS'TTCCAC'
p2267
I4655
sS'TTCCAA'
p2268
I3976
sS'TTCCAG'
p2269
I7664
sS'GTTTCA'
p2270
I3623
sS'ACCCTT'
p2271
I1053
sS'TGAAGT'
p2272
I948
sS'AAACAA'
p2273
I2137
sS'ATGCTT'
p2274
I794
sS'TTCCAT'
p2275
I1685
sS'TGAAGC'
p2276
I2438
sS'ACCCTC'
p2277
I4729
sS'TGAAGG'
p2278
I2891
sS'ACCCTG'
p2279
I7628
sS'CTGACT'
p2280
I1922
sS'CCCCTT'
p2281
I2543
sS'AGTTAT'
p2282
I789
sS'CTGACG'
p2283
I2040
sS'CTGACC'
p2284
I4922
sS'CTGACA'
p2285
I3751
sS'AGTTAA'
p2286
I2850
sS'CCCCTG'
p2287
I11822
sS'AGTTAC'
p2288
I2003
sS'CCCCTC'
p2289
I12922
sS'AGTTAG'
p2290
I1795
sS'CCCCTA'
p2291
I3775
sS'ACACAG'
p2292
I1782
sS'ACACAA'
p2293
I860
sS'ACACAC'
p2294
I1728
sS'AATGTT'
p2295
I799
sS'CTGCAG'
p2296
I9259
sS'CATGGG'
p2297
I3777
sS'CTGCAC'
p2298
I4773
sS'CTGCAA'
p2299
I2886
sS'AATGTC'
p2300
I2116
sS'ACACAT'
p2301
I461
sS'AATGTA'
p2302
I3483
sS'AATGTG'
p2303
I4555
sS'CATGGT'
p2304
I1317
sS'CTGCAT'
p2305
I1246
sS'GCACAG'
p2306
I2235
sS'CGATTC'
p2307
I362
sS'ACATTT'
p2308
I570
sS'CGAGAT'
p2309
I137
sS'GTTCGT'
p2310
I354
sS'ACATTG'
p2311
I1184
sS'GTACCA'
p2312
I914
sS'ACATTA'
p2313
I1456
sS'ACATTC'
p2314
I971
sS'CGAGAG'
p2315
I1203
sS'CCACAC'
p2316
I1359
sS'ATTACC'
p2317
I1499
sS'CGAGAC'
p2318
I721
sS'GTTCGG'
p2319
I1611
sS'AAGTCT'
p2320
I1815
sS'ACCCTA'
p2321
I2186
sS'CCACAA'
p2322
I751
sS'GGACAT'
p2323
I325
sS'CAGCGT'
p2324
I1409
sS'GCTATA'
p2325
I1068
sS'GCTATC'
p2326
I800
sS'AAGTCG'
p2327
I1357
sS'AAGTCA'
p2328
I3852
sS'GCTATG'
p2329
I1671
sS'AAGTCC'
p2330
I4411
sS'GGACAG'
p2331
I1951
sS'GGACAC'
p2332
I1238
sS'CTATCG'
p2333
I364
sS'CTAATT'
p2334
I555
sS'AGGGTT'
p2335
I678
sS'GAGGCG'
p2336
I11335
sS'TGTTGG'
p2337
I4060
sS'GAGGCA'
p2338
I10122
sS'TGTTGA'
p2339
I3500
sS'GAGGCC'
p2340
I17543
sS'TGTTGC'
p2341
I4310
sS'ACTCGA'
p2342
I684
sS'TAAAAT'
p2343
I1060
sS'ACTCGC'
p2344
I1746
sS'AAGCTT'
p2345
I1007
sS'ACTCGG'
p2346
I2034
sS'AGCGCA'
p2347
I4061
sS'GAGGCT'
p2348
I6043
sS'AGCGCC'
p2349
I8758
sS'AGGGTG'
p2350
I5283
sS'AGGGTA'
p2351
I1752
sS'AGCGCG'
p2352
I6829
sS'AGGGTC'
p2353
I2696
sS'TAAAAG'
p2354
I2337
sS'ACTCGT'
p2355
I328
sS'TAAAAC'
p2356
I2169
sS'TAAAAA'
p2357
I2590
sS'ACGTTC'
p2358
I648
sS'AGCTGC'
p2359
I19956
sS'CTACTA'
p2360
I806
sS'AGCTGA'
p2361
I9847
sS'ACGTTG'
p2362
I838
sS'AGCTGG'
p2363
I17977
sS'TAGGGG'
p2364
I3351
sS'AGTGCG'
p2365
I2348
sS'AGTGCA'
p2366
I3530
sS'AGAGTT'
p2367
I351
sS'AGTGCC'
p2368
I4160
sS'CCAAAA'
p2369
I698
sS'TAGGGT'
p2370
I847
sS'AGCTGT'
p2371
I6382
sS'CTACTT'
p2372
I382
sS'AGTGCT'
p2373
I1839
sS'AGAGTC'
p2374
I1307
sS'AGAGTA'
p2375
I1104
sS'AAAACA'
p2376
I4614
sS'TAACCC'
p2377
I1044
sS'GTTAAA'
p2378
I2397
sS'CCTGGC'
p2379
I8311
sS'GTTAAC'
p2380
I1524
sS'GTCTGT'
p2381
I5445
sS'CCTGGG'
p2382
I9861
sS'GTTAAG'
p2383
I1909
sS'TTCGTC'
p2384
I1054
sS'CTAATC'
p2385
I877
sS'GTCTGG'
p2386
I13179
sS'GTCTGC'
p2387
I11275
sS'GTTAAT'
p2388
I857
sS'GTCTGA'
p2389
I6563
sS'GGAAGG'
p2390
I7361
sS'CCACAT'
p2391
I500
sS'GGAAGC'
p2392
I5441
sS'CTAATG'
p2393
I2038
sS'GGAAGA'
p2394
I3670
sS'GCGTTA'
p2395
I620
sS'TCCTCT'
p2396
I6326
sS'GCGTTC'
p2397
I1416
sS'CAATGC'
p2398
I1410
sS'GCGTTG'
p2399
I1528
sS'CAATGG'
p2400
I1859
sS'ATGCTG'
p2401
I5450
sS'GGAAGT'
p2402
I1777
sS'ATGCTC'
p2403
I2619
sS'ATGCTA'
p2404
I1967
sS'AAACCA'
p2405
I1874
sS'TCCTCG'
p2406
I6032
sS'TGTATG'
p2407
I2382
sS'TCCTCA'
p2408
I8822
sS'GCGTTT'
p2409
I429
sS'TCCTCC'
p2410
I19812
sS'TGTATC'
p2411
I1339
sS'CGTTAG'
p2412
I801
sS'TAACCG'
p2413
I320
sS'TCATAG'
p2414
I598
sS'TTCGTG'
p2415
I1653
sS'CGTTAC'
p2416
I677
sS'TTCGTA'
p2417
I627
sS'CGTTAA'
p2418
I650
sS'TAACCA'
p2419
I998
sS'ACCGCT'
p2420
I1068
sS'TCGCGA'
p2421
I614
sS'TGCATG'
p2422
I5631
sS'TCAGGA'
p2423
I1711
sS'TTCGTT'
p2424
I309
sS'TACCCT'
p2425
I1660
sS'TAACCT'
p2426
I457
sS'GTGAAG'
p2427
I3120
sS'GTGAAA'
p2428
I2153
sS'GTGAAC'
p2429
I1797
sS'CAATAG'
p2430
I734
sS'TGCATA'
p2431
I3216
sS'ACCGCG'
p2432
I2791
sS'ACCGCA'
p2433
I1958
sS'CCCTAT'
p2434
I867
sS'ACCGCC'
p2435
I4767
sS'CCGCCT'
p2436
I2754
sS'AGGCTT'
p2437
I1510
sS'CCTTCT'
p2438
I3242
sS'CGAGCT'
p2439
I898
sS'GTTGCA'
p2440
I2036
sS'AACGAA'
p2441
I1023
sS'GTTGCC'
p2442
I2909
sS'GTGCCG'
p2443
I3838
sS'GTGCCA'
p2444
I4915
sS'GTTGCG'
p2445
I1186
sS'GTGCCC'
p2446
I8543
sS'CCGCCG'
p2447
I5477
sS'AGGCTA'
p2448
I2530
sS'CCTTCC'
p2449
I11345
sS'AGGCTC'
p2450
I6278
sS'CCGCCC'
p2451
I10347
sS'TGTCGA'
p2452
I645
sS'CCGCCA'
p2453
I3127
sS'AGGCTG'
p2454
I12919
sS'GTGCCT'
p2455
I3646
sS'TCCAAA'
p2456
I3395
sS'GTTGCT'
p2457
I1417
sS'NNNGCG'
p2458
I1
sS'GCCGTT'
p2459
I707
sS'ATAGGT'
p2460
I261
sS'TCGGGT'
p2461
I457
sS'AAACCT'
p2462
I684
sS'GCAGTT'
p2463
I446
sS'GAAGCT'
p2464
I2183
sS'TCGGGC'
p2465
I2085
sS'TCGGGA'
p2466
I1247
sS'NNNNNG'
p2467
I1
sS'TCGGGG'
p2468
I2673
sS'GGATAG'
p2469
I534
sS'GAAGCG'
p2470
I3326
sS'GCAGTG'
p2471
I3646
sS'GAAGCC'
p2472
I7197
sS'GCAGTA'
p2473
I1083
sS'GAAGCA'
p2474
I4723
sS'GCAGTC'
p2475
I1566
sS'CGCCCG'
p2476
I10168
sS'GAGAGA'
p2477
I11901
sS'GTTCAT'
p2478
I634
sS'GAGAGG'
p2479
I18035
sS'CGCCCA'
p2480
I6463
sS'ACGTAA'
p2481
I373
sS'CTATAG'
p2482
I534
sS'NNNNNN'
p2483
I5
sS'ACGCAC'
p2484
I901
sS'CTATAA'
p2485
I961
sS'CTCGCA'
p2486
I3106
sS'ACGTAC'
p2487
I356
sS'GAGAGT'
p2488
I3142
sS'AAACAT'
p2489
I586
sS'GCATTT'
p2490
I651
sS'AACTGA'
p2491
I5668
sS'GCCGGG'
p2492
I16532
sS'GCCGGC'
p2493
I11044
sS'CATGTT'
p2494
I878
sS'GCCGGA'
p2495
I4663
sS'AGATCT'
p2496
I739
sS'CTACAG'
p2497
I1215
sS'GCCACT'
p2498
I3960
sS'CATGTA'
p2499
I2805
sS'CATGTC'
p2500
I2482
sS'GCCGGT'
p2501
I1691
sS'GAGATT'
p2502
I881
sS'CATGTG'
p2503
I5912
sS'AGTTCG'
p2504
I1262
sS'GGCCTG'
p2505
I18479
sS'GGCCTC'
p2506
I12553
sS'GGCCTA'
p2507
I3373
sS'TTTGTT'
p2508
I1006
sS'AATCGG'
p2509
I1182
sS'AATCGC'
p2510
I1302
sS'AATCGA'
p2511
I699
sS'GTTCAG'
p2512
I2816
sS'GGCCTT'
p2513
I2356
sS'TCACTA'
p2514
I751
sS'TCACTC'
p2515
I1373
sS'AATCGT'
p2516
I364
sS'AGCCGA'
p2517
I3859
sS'CCTTCA'
p2518
I4195
sS'AGCCGC'
p2519
I11520
sS'TAATTG'
p2520
I2073
sS'TAATTA'
p2521
I2853
sS'AGCCGG'
p2522
I9907
sS'GTTTTT'
p2523
I1182
sS'TGGTGA'
p2524
I3230
sS'GGGCTC'
p2525
I7871
sS'TGGTGC'
p2526
I4253
sS'GATGGC'
p2527
I5913
sS'GGGCTG'
p2528
I15437
sS'TGGTGG'
p2529
I5431
sS'GATGGG'
p2530
I7519
sS'GTTTTC'
p2531
I4270
sS'GTTTTA'
p2532
I5103
sS'GTTTTG'
p2533
I5102
sS'TTCCCG'
p2534
I5702
sS'GAGCGC'
p2535
I9295
sS'TGACAG'
p2536
I1632
sS'CCAAGG'
p2537
I2773
sS'ACGTAT'
p2538
I139
sS'TCTCAG'
p2539
I3604
sS'GATGGT'
p2540
I1778
sS'TGGTGT'
p2541
I2047
sS'GGGCTT'
p2542
I1690
sS'ATTCGT'
p2543
I214
sS'AGAACT'
p2544
I1140
sS'GCATTA'
p2545
I1351
sS'CCTTCG'
p2546
I2739
sS'TACCAT'
p2547
I1027
sS'AGATAG'
p2548
I784
sS'ACCCGG'
p2549
I4842
sS'ATCCTT'
p2550
I1025
sS'ACCCGA'
p2551
I1732
sS'ATGTCT'
p2552
I1558
sS'ACCCGC'
p2553
I4843
sS'ACTCCA'
p2554
I2400
sS'TACCAC'
p2555
I2509
sS'AGAACG'
p2556
I996
sS'TACCAA'
p2557
I2167
sS'AGAACA'
p2558
I2749
sS'TACCAG'
p2559
I3365
sS'AGAACC'
p2560
I2530
sS'ACCAGC'
p2561
I6578
sS'CACTGG'
p2562
I10903
sS'ACCAGA'
p2563
I4542
sS'TGACAA'
p2564
I748
sS'ACCAGG'
p2565
I7257
sS'CACTGC'
p2566
I13703
sS'ATGTCG'
p2567
I770
sS'CACTGA'
p2568
I8049
sS'CGATTT'
p2569
I101
sS'TAGGTT'
p2570
I373
sS'CTATAC'
p2571
I480
sS'GTTTAC'
p2572
I2159
sS'AATTAT'
p2573
I1650
sS'CTGTTG'
p2574
I5314
sS'TGCTAT'
p2575
I1683
sS'CTGTTC'
p2576
I4213
sS'CGGGTT'
p2577
I487
sS'CTGTTA'
p2578
I3774
sS'AATTAC'
p2579
I3254
sS'AATTAA'
p2580
I5200
sS'TAGGTA'
p2581
I1282
sS'TAGGTC'
p2582
I1194
sS'CGGGTC'
p2583
I2372
sS'CTGTTT'
p2584
I1972
sS'CGGGTA'
p2585
I1020
sS'CGGGTG'
p2586
I3576
sS'ATTGTT'
p2587
I401
sS'AAGTAA'
p2588
I2210
sS'CATTAC'
p2589
I2835
sS'TTAGGG'
p2590
I1347
sS'ATATAT'
p2591
I607
sS'AGCAAC'
p2592
I5031
sS'TTAGGC'
p2593
I1002
sS'AAAGCT'
p2594
I1290
sS'TTAGGA'
p2595
I1247
sS'AAAGCA'
p2596
I3879
sS'GGATAT'
p2597
I240
sS'AAAGCC'
p2598
I4097
sS'TTAGGT'
p2599
I418
sS'TCATTG'
p2600
I1843
sS'AGCAAT'
p2601
I1857
sS'AAAGCG'
p2602
I1403
sS'TACTTC'
p2603
I4229
sS'TACTTA'
p2604
I5628
sS'TACTTG'
p2605
I5143
sS'ATAGCG'
p2606
I373
sS'TGCTAA'
p2607
I4790
sS'ATAGCT'
p2608
I505
sS'TACTTT'
p2609
I2077
sS'CGAGTT'
p2610
I182
sS'TCCAAT'
p2611
I1230
sS'CGTACT'
p2612
I355
sS'TCCCGT'
p2613
I1294
sS'TATGCT'
p2614
I1139
sS'CTTAAG'
p2615
I1698
sS'ACATAA'
p2616
I1050
sS'CTTAAA'
p2617
I2482
sS'ACATAG'
p2618
I523
sS'CTTAAC'
p2619
I1738
sS'TCCAAG'
p2620
I4327
sS'CGAGTG'
p2621
I1245
sS'TTGTTA'
p2622
I3240
sS'TCCAAC'
p2623
I2995
sS'CGAGTC'
p2624
I893
sS'AGGGGA'
p2625
I5634
sS'CTTAAT'
p2626
I859
sS'AGGGGC'
p2627
I8116
sS'TATGCA'
p2628
I2568
sS'AGGGGG'
p2629
I6729
sS'CGTTTG'
p2630
I2139
sS'CGACTT'
p2631
I164
sS'GGATAA'
p2632
I543
sS'TTGTAA'
p2633
I1677
sS'TTGTAC'
p2634
I1181
sS'GTACCT'
p2635
I572
sS'TTGTAG'
p2636
I1588
sS'TGAATC'
p2637
I926
sS'ACAACA'
p2638
I1583
sS'TGAATA'
p2639
I1386
sS'CGACTC'
p2640
I698
sS'TGAATG'
p2641
I2128
sS'AAGTAT'
p2642
I573
sS'CGACTG'
p2643
I911
sS'TTGTAT'
p2644
I722
sS'ATCGTG'
p2645
I1047
sS'GCTTCG'
p2646
I2745
sS'GCTTCA'
p2647
I4222
sS'GCTTCC'
p2648
I9593
sS'TGGGAG'
p2649
I4903
sS'TGGGAA'
p2650
I2615
sS'TGGGAC'
p2651
I2591
sS'GCTTCT'
p2652
I3219
sS'ATCGTT'
p2653
I154
sS'ACAACG'
p2654
I462
sS'TGGGAT'
p2655
I740
sS'CTAGCC'
p2656
I2223
sS'CTAGCA'
p2657
I1644
sS'CTAGCG'
p2658
I1043
sS'CGGTAG'
p2659
I747
sS'ACTTAG'
p2660
I1424
sS'TAGATT'
p2661
I465
sS'ACTTAA'
p2662
I2154
sS'CGGTAC'
p2663
I551
sS'TACACT'
p2664
I2163
sS'CGGTAA'
p2665
I437
sS'GACCAG'
p2666
I8161
sS'GACCAC'
p2667
I5597
sS'GACCAA'
p2668
I3978
sS'TTCGAG'
p2669
I1180
sS'TACACC'
p2670
I2885
sS'CGGTAT'
p2671
I141
sS'TACACA'
p2672
I5536
sS'TACACG'
p2673
I1474
sS'GCGAGA'
p2674
I1811
sS'GAGAGC'
p2675
I10923
sS'GCGAGC'
p2676
I3532
sS'GCTGAG'
p2677
I6377
sS'GCGAGG'
p2678
I5377
sS'TTAAGA'
p2679
I1689
sS'CAGCCG'
p2680
I5895
sS'CAGCCA'
p2681
I8016
sS'CAGCCC'
p2682
I13644
sS'GCTGAA'
p2683
I2531
sS'TCCGGG'
p2684
I6994
sS'GCGAGT'
p2685
I794
sS'GAACTG'
p2686
I2938
sS'GAACTC'
p2687
I1547
sS'GAACTA'
p2688
I1233
sS'GGACTT'
p2689
I345
sS'CACCTA'
p2690
I3506
sS'AACTAT'
p2691
I1127
sS'CACCTC'
p2692
I8885
sS'NAGCGA'
p2693
I1
sS'CACCTG'
p2694
I11883
sS'TGATCC'
p2695
I1215
sS'AACACT'
p2696
I3095
sS'TGATCA'
p2697
I877
sS'TGATCG'
p2698
I259
sS'AACTAG'
p2699
I2500
sS'GGACTG'
p2700
I2378
sS'CACCTT'
p2701
I1734
sS'GGACTA'
p2702
I731
sS'GGACTC'
p2703
I1397
sS'AACGAT'
p2704
I270
sS'AACACG'
p2705
I2253
sS'AACACA'
p2706
I7831
sS'AACACC'
p2707
I5080
sS'TGATCT'
p2708
I650
sS'AAAGAC'
p2709
I1822
sS'GCATTC'
p2710
I1134
sS'CAACAG'
p2711
I1429
sS'GACAGT'
p2712
I4661
sS'CAACAA'
p2713
I943
sS'AAAGAA'
p2714
I2632
sS'CAACAC'
p2715
I978
sS'GCTGAT'
p2716
I767
sS'ACGCAA'
p2717
I399
sS'GACAGG'
p2718
I15388
sS'ATATCC'
p2719
I1256
sS'GACAGC'
p2720
I13759
sS'GACAGA'
p2721
I12137
sS'GTATTA'
p2722
I1645
sS'ACGAAT'
p2723
I94
sS'GTATTC'
p2724
I897
sS'GTAAGT'
p2725
I750
sS'CCAGCG'
p2726
I3413
sS'AGAGGT'
p2727
I967
sS'GGTGGC'
p2728
I6577
sS'TCCCCT'
p2729
I4169
sS'GGTGGA'
p2730
I3970
sS'TATCTT'
p2731
I1035
sS'GGTGGG'
p2732
I9636
sS'NNNGAA'
p2733
I1
sS'AGAGGC'
p2734
I4710
sS'GTAAGA'
p2735
I1366
sS'AGAGGA'
p2736
I3511
sS'CTCGCC'
p2737
I8050
sS'AGAGGG'
p2738
I4878
sS'ANTCCC'
p2739
I1
sS'GTAAGG'
p2740
I1700
sS'TCCCCG'
p2741
I7775
sS'TATCTC'
p2742
I2996
sS'TCCCCC'
p2743
I7488
sS'GGTGGT'
p2744
I1595
sS'CGTCAG'
p2745
I2084
sS'GTCGCG'
p2746
I2873
sS'GTCGCA'
p2747
I1715
sS'GTCGCC'
p2748
I4753
sS'CCGTCT'
p2749
I1007
sS'TCGGTA'
p2750
I386
sS'CTCGCG'
p2751
I4764
sS'TCGGTG'
p2752
I1515
sS'GTCGCT'
p2753
I1618
sS'GTAACT'
p2754
I775
sS'CCGTCG'
p2755
I1193
sS'CCGTCA'
p2756
I1172
sS'CCGTCC'
p2757
I3562
sS'GGCTGT'
p2758
I6925
sS'CGCGTG'
p2759
I4283
sS'CTATAT'
p2760
I354
sS'CGCGTC'
p2761
I3822
sS'CGCGTA'
p2762
I958
sS'ATGCAG'
p2763
I2634
sS'ATGCAA'
p2764
I1500
sS'ATGCAC'
p2765
I1711
sS'CGCGTT'
p2766
I706
sS'GGCTGG'
p2767
I24417
sS'GGCTGA'
p2768
I10752
sS'GGCTGC'
p2769
I25388
sS'CCACTT'
p2770
I499
sS'TTTAGA'
p2771
I2658
sS'ATGACG'
p2772
I928
sS'GGAGTT'
p2773
I389
sS'ATGACA'
p2774
I2461
sS'ATGACC'
p2775
I1988
sS'CCTGAT'
p2776
I586
sS'GGGCCT'
p2777
I3983
sS'ATGACT'
p2778
I1000
sS'GGAGTA'
p2779
I835
sS'GGAGTC'
p2780
I1612
sS'GGAGTG'
p2781
I2613
sS'GGGCCG'
p2782
I7131
sS'GGGCCC'
p2783
I9581
sS'GGGCCA'
p2784
I5209
sS'TCNTGC'
p2785
I1
sS'CTGATC'
p2786
I1329
sS'ACGAGT'
p2787
I273
sS'TTCGCC'
p2788
I2668
sS'AGGCCA'
p2789
I6108
sS'AGGCCC'
p2790
I9697
sS'AGGCCG'
p2791
I5560
sS'ACGAGG'
p2792
I1632
sS'AGTATC'
p2793
I942
sS'ACGAGC'
p2794
I1050
sS'ACGAGA'
p2795
I661
sS'CTGATG'
p2796
I3756
sS'AGGCCT'
p2797
I3727
sS'GCTCTA'
p2798
I2765
sS'GATTTA'
p2799
I5881
sS'ACATCT'
p2800
I1213
sS'GGGTTG'
p2801
I3746
sS'GACTAC'
p2802
I3210
sS'GGGTTA'
p2803
I1943
sS'GGGTTC'
p2804
I2671
sS'TTTGAT'
p2805
I644
sS'TGAACT'
p2806
I885
sS'CTACGA'
p2807
I391
sS'AACGGT'
p2808
I634
sS'TGCGAA'
p2809
I971
sS'TGCGAC'
p2810
I1499
sS'AGAAAT'
p2811
I729
sS'TGCGAG'
p2812
I2635
sS'AACGGC'
p2813
I2211
sS'TCCACT'
p2814
I2921
sS'AACGGA'
p2815
I1437
sS'TTTGGC'
p2816
I2396
sS'ATTGCG'
p2817
I496
sS'TTTGAC'
p2818
I1604
sS'TTTGAA'
p2819
I2589
sS'ATCATC'
p2820
I2233
sS'CGGGCT'
p2821
I2411
sS'TTCGCT'
p2822
I1071
sS'TGACGT'
p2823
I511
sS'CTCGTC'
p2824
I2465
sS'CCCTGG'
p2825
I16572
sS'CCCTGA'
p2826
I7853
sS'CTCGTG'
p2827
I2788
sS'CCCTGC'
p2828
I19866
sS'CCCTGT'
p2829
I4483
sS'AAGCTC'
p2830
I3893
sS'GATATA'
p2831
I2087
sS'AAGCTA'
p2832
I2740
sS'GATATG'
p2833
I2236
sS'AAGCTG'
p2834
I7957
sS'TGACGC'
p2835
I1003
sS'TACTCT'
p2836
I2537
sS'CATCGT'
p2837
I582
sS'CAGGGT'
p2838
I2235
sS'CTACGG'
p2839
I748
sS'CCAGTC'
p2840
I1599
sS'TACGAT'
p2841
I199
sS'CCAGTG'
p2842
I2802
sS'TACTCG'
p2843
I1435
sS'CATCGA'
p2844
I890
sS'CATCGC'
p2845
I2185
sS'TACTCC'
p2846
I4344
sS'NGAATT'
p2847
I1
sS'TACTCA'
p2848
I4644
sS'CATCGG'
p2849
I1408
sS'CAGGGG'
p2850
I8598
sS'GAACCT'
p2851
I883
sS'CAGGGA'
p2852
I7445
sS'CAGGGC'
p2853
I10979
sS'AATCTG'
p2854
I4596
sS'CTTACG'
p2855
I628
sS'GCCATT'
p2856
I1433
sS'AGTCGA'
p2857
I859
sS'AATCTA'
p2858
I2802
sS'TGAACG'
p2859
I584
sS'TCACAC'
p2860
I1008
sS'TCACAA'
p2861
I651
sS'TCACAG'
p2862
I1453
sS'GCCATA'
p2863
I2492
sS'CGGACG'
p2864
I1891
sS'TCCACC'
p2865
I7919
sS'CGGACA'
p2866
I1600
sS'CGGACC'
p2867
I2966
sS'GCCATG'
p2868
I7401
sS'TTTTAA'
p2869
I6116
sS'TCACAT'
p2870
I398
sS'ATTAAC'
p2871
I1908
sS'ATTAAA'
p2872
I3661
sS'ATTAAG'
p2873
I2051
sS'CTTACA'
p2874
I1930
sS'TCACTT'
p2875
I450
sS'TCCACG'
p2876
I3471
sS'GTGCAG'
p2877
I5554
sS'ATTAAT'
p2878
I901
sS'ATCATG'
p2879
I3090
sS'TACCTG'
p2880
I5018
sS'GGTATG'
p2881
I1210
sS'CTGAAT'
p2882
I731
sS'GGTATC'
p2883
I840
sS'GAACCG'
p2884
I1110
sS'CAATGA'
p2885
I1522
sS'TCGCTT'
p2886
I329
sS'GGTATT'
p2887
I293
sS'CTGAAC'
p2888
I2077
sS'CTGAAG'
p2889
I3482
sS'ATTGTA'
p2890
I1429
sS'CATTGC'
p2891
I4022
sS'TATGAG'
p2892
I1902
sS'CATTGA'
p2893
I2941
sS'CTAGTT'
p2894
I258
sS'CATTGG'
p2895
I3906
sS'TCAACT'
p2896
I479
sS'ATGTTA'
p2897
I2604
sS'ACACCG'
p2898
I751
sS'CTGCCA'
p2899
I9095
sS'CTGCCC'
p2900
I16592
sS'ACACCC'
p2901
I1756
sS'ACACCA'
p2902
I1239
sS'CTGCCG'
p2903
I7407
sS'CTAGTG'
p2904
I1378
sS'TCAACC'
p2905
I1141
sS'ATGTTC'
p2906
I1835
sS'CTAGTC'
p2907
I809
sS'TCAACG'
p2908
I381
sS'CTAGTA'
p2909
I710
sS'CATTGT'
p2910
I2431
sS'TATGAC'
p2911
I1736
sS'ACACCT'
p2912
I615
sS'CTGCCT'
p2913
I6890
sS'CCTCGT'
p2914
I855
sS'TATGAA'
p2915
I2268
sS'AGACTG'
p2916
I2205
sS'TCACTG'
p2917
I2276
sS'AGACTA'
p2918
I835
sS'CCTCGG'
p2919
I5278
sS'CCTCGC'
p2920
I5503
sS'CCCGAC'
p2921
I3043
sS'CCTCGA'
p2922
I1474
sS'CGAGGA'
p2923
I1846
sS'CGAGGC'
p2924
I2904
sS'NNNNAG'
p2925
I1
sS'CGAGGG'
p2926
I3066
sS'CACCGT'
p2927
I1441
sS'ACTTTA'
p2928
I2932
sS'ACTTTG'
p2929
I3460
sS'GACCTG'
p2930
I12352
sS'GACCTA'
p2931
I3482
sS'GACCTC'
p2932
I7473
sS'CACCGG'
p2933
I4584
sS'GCATAG'
p2934
I647
sS'CACCGA'
p2935
I2526
sS'CACCGC'
p2936
I7856
sS'GACCTT'
p2937
I2175
sS'CGCCCC'
p2938
I18244
sS'GGACGG'
p2939
I1733
sS'CTATTA'
p2940
I2090
sS'CACAGC'
p2941
I14899
sS'CTTATC'
p2942
I1667
sS'CACAGA'
p2943
I10945
sS'ACCTTT'
p2944
I1267
sS'CACAGG'
p2945
I12808
sS'TTAACT'
p2946
I939
sS'ACTCAT'
p2947
I552
sS'GAGGAG'
p2948
I15344
sS'GACGTA'
p2949
I1200
sS'CGTATC'
p2950
I378
sS'GACGTC'
p2951
I3191
sS'GAGGAC'
p2952
I6629
sS'GAGGAA'
p2953
I7311
sS'GACGTG'
p2954
I4594
sS'TTAACA'
p2955
I1907
sS'ACTCAC'
p2956
I2460
sS'TTAACC'
p2957
I1416
sS'TTGTGA'
p2958
I2508
sS'ACTCAG'
p2959
I2746
sS'CTTATT'
p2960
I633
sS'CACAGT'
p2961
I4170
sS'AGCGAC'
p2962
I2358
sS'TAAACA'
p2963
I3254
sS'AGCGAA'
p2964
I1537
sS'GAGGAT'
p2965
I1419
sS'AGCGAG'
p2966
I4665
sS'TCTAAA'
p2967
I1768
sS'TAAACG'
p2968
I540
sS'CTGTGG'
p2969
I9009
sS'GTATGT'
p2970
I851
sS'AGTTCA'
p2971
I3462
sS'TAATTT'
p2972
I642
sS'CTGTGC'
p2973
I8409
sS'TAGCCC'
p2974
I2948
sS'CTGTGA'
p2975
I5592
sS'CGGGGT'
p2976
I1704
sS'TAGGAC'
p2977
I1579
sS'GCAAAG'
p2978
I1945
sS'TAGGAA'
p2979
I2099
sS'GCAAAA'
p2980
I1044
sS'TAGGAG'
p2981
I2486
sS'GCAAAC'
p2982
I1293
sS'CGGGGC'
p2983
I9278
sS'CGGGGA'
p2984
I4546
sS'CTGTGT'
p2985
I4387
sS'CGGGGG'
p2986
I5852
sS'GTATGC'
p2987
I956
sS'AGTTCT'
p2988
I2024
sS'GCAAAT'
p2989
I519
sS'CGAGAA'
p2990
I648
sS'TAGGAT'
p2991
I478
sS'AAAAAT'
p2992
I839
sS'TTCAAT'
p2993
I1584
sS'TGCTTT'
p2994
I3960
sS'TTATCG'
p2995
I296
sS'TGGGNC'
p2996
I1
sS'GTAATT'
p2997
I500
sS'GTTACC'
p2998
I1682
sS'GTTACA'
p2999
I1774
sS'TAATTC'
p3000
I1247
sS'TATCGA'
p3001
I376
sS'TATCGC'
p3002
I675
sS'TATAGT'
p3003
I1007
sS'GTCTAA'
p3004
I2840
sS'AGGACG'
p3005
I3388
sS'GTCTAC'
p3006
I2495
sS'TGCTTC'
p3007
I9950
sS'TTCAAA'
p3008
I5616
sS'TTCAAC'
p3009
I3231
sS'TGCTTG'
p3010
I9917
sS'TATAGC'
p3011
I1607
sS'TATCGT'
p3012
I254
sS'TATAGA'
p3013
I2025
sS'AGCTCA'
p3014
I9254
sS'TATAGG'
p3015
I1383
sS'GTTACT'
p3016
I978
sS'GCTCTC'
p3017
I5774
sS'GGAAAC'
p3018
I2384
sS'GGGCTA'
p3019
I2356
sS'GCTCTG'
p3020
I11929
sS'CCACGT'
p3021
I640
sS'GGCGTT'
p3022
I792
sS'AGGACC'
p3023
I5559
sS'GAATGG'
p3024
I2608
sS'GGCTTT'
p3025
I3322
sS'ACTACT'
p3026
I564
sS'GAATGC'
p3027
I2158
sS'CCACGA'
p3028
I622
sS'GGCGTC'
p3029
I4286
sS'CCACGC'
p3030
I1839
sS'CAATAA'
p3031
I926
sS'GTTCCG'
p3032
I1867
sS'GGCGTG'
p3033
I6192
sS'CCACGG'
p3034
I1405
sS'GCTCTT'
p3035
I1243
sS'GGCTTA'
p3036
I4995
sS'ACTACC'
p3037
I1092
sS'GGCTTC'
p3038
I11724
sS'ACTACA'
p3039
I1655
sS'ACTACG'
p3040
I551
sS'GGCTTG'
p3041
I10944
sS'TCCTAG'
p3042
I3481
sS'AGTCAG'
p3043
I4087
sS'CGTTGC'
p3044
I2105
sS'TAACAC'
p3045
I809
sS'TCCTAC'
p3046
I3069
sS'AGTCAC'
p3047
I3666
sS'CGTTGG'
p3048
I1886
sS'AGTCAA'
p3049
I1996
sS'TCATCG'
p3050
I499
sS'AAGCGT'
p3051
I714
sS'TCATCC'
p3052
I2269
sS'GAGCGG'
p3053
I9522
sS'CTTTCT'
p3054
I3767
sS'GCGGGT'
p3055
I1302
sS'ACAGGT'
p3056
I604
sS'TAACAT'
p3057
I369
sS'CGTTGT'
p3058
I691
sS'GAGCGA'
p3059
I3785
sS'TCCCTT'
p3060
I2468
sS'CTTTCA'
p3061
I5072
sS'CTTTCG'
p3062
I1708
sS'AGCCGT'
p3063
I1794
sS'AAAAAG'
p3064
I2857
sS'GTTGAT'
p3065
I438
sS'CGACCA'
p3066
I530
sS'CGACCC'
p3067
I1324
sS'GCATAC'
p3068
I529
sS'CGACCG'
p3069
I562
sS'CCTTAT'
p3070
I817
sS'GTTGAC'
p3071
I1219
sS'GTTGAA'
p3072
I1446
sS'ACTGGG'
p3073
I3779
sS'GTTGAG'
p3074
I1915
sS'CCTTAC'
p3075
I1692
sS'CCTTAA'
p3076
I1785
sS'CCTTAG'
p3077
I1871
sS'CGACCT'
p3078
I401
sS'AATAGA'
p3079
I3116
sS'CAACTA'
p3080
I708
sS'CAACTG'
p3081
I1552
sS'AATAGG'
p3082
I2395
sS'AATATC'
p3083
I1383
sS'TCGCTC'
p3084
I1742
sS'GGGGTT'
p3085
I700
sS'GGATGT'
p3086
I884
sS'AATAGT'
p3087
I1082
sS'TCTCAC'
p3088
I2441
sS'CAACTT'
p3089
I226
sS'GGATGC'
p3090
I2121
sS'GGATGA'
p3091
I1274
sS'GGGGTC'
p3092
I2984
sS'GGGGTA'
p3093
I1440
sS'TCTCCG'
p3094
I2765
sS'GAGTCC'
p3095
I8381
sS'GAGTCA'
p3096
I5881
sS'TCTCCC'
p3097
I6426
sS'GAGTCG'
p3098
I3114
sS'TCTCCA'
p3099
I4039
sS'AAACTC'
p3100
I1170
sS'ACGCGA'
p3101
I625
sS'AGTACG'
p3102
I666
sS'CTATGC'
p3103
I1265
sS'GCTAAG'
p3104
I1940
sS'AGTACC'
p3105
I1813
sS'CTATGG'
p3106
I1474
sS'AGTACA'
p3107
I1992
sS'CCCTTA'
p3108
I4750
sS'CCCTTC'
p3109
I12002
sS'TCTCCT'
p3110
I2266
sS'CCCTTG'
p3111
I9719
sS'AGTACT'
p3112
I1000
sS'ACGCGT'
p3113
I302
sS'GCCGAA'
p3114
I1495
sS'GTGGAG'
p3115
I4704
sS'GCCGAC'
p3116
I2781
sS'GTGGAC'
p3117
I2083
sS'GCCGAG'
p3118
I6634
sS'GTGGAA'
p3119
I2243
sS'TATCAT'
p3120
I1037
sS'GTGGAT'
p3121
I547
sS'GCCGAT'
p3122
I428
sS'CCTATT'
p3123
I417
sS'CACTGT'
p3124
I5210
sS'GTAGTC'
p3125
I838
sS'AAATCG'
p3126
I470
sS'GTAGTA'
p3127
I750
sS'CACGCA'
p3128
I3863
sS'AAATCC'
p3129
I2134
sS'CACGCC'
p3130
I6120
sS'AAATCA'
p3131
I2312
sS'CTACGT'
p3132
I282
sS'AGATAC'
p3133
I837
sS'CACGCT'
p3134
I1899
sS'AAATCT'
p3135
I979
sS'ACCGAT'
p3136
I143
sS'TCCTAT'
p3137
I1131
sS'ACCAGT'
p3138
I1574
sS'CGTTAT'
p3139
I275
sS'GATGAT'
p3140
I1177
sS'GGAGCA'
p3141
I3431
sS'GGAGCC'
p3142
I6955
sS'AAAGTG'
p3143
I2283
sS'CCAAAT'
p3144
I420
sS'GGAGCG'
p3145
I3532
sS'AAAACT'
p3146
I1030
sS'GATGAC'
p3147
I3839
sS'GATGAA'
p3148
I3964
sS'GATGAG'
p3149
I5378
sS'AAAACC'
p3150
I2700
sS'ACTAAC'
p3151
I946
sS'CCAAAC'
p3152
I1110
sS'AAAACG'
p3153
I857
sS'GGAGCT'
p3154
I2091
sS'CCAAAG'
p3155
I1360
sS'TCGCGG'
p3156
I1848
sS'CGGTCC'
p3157
I3578
sS'TCGCGC'
p3158
I1710
sS'CTACCG'
p3159
I765
sS'GCCACA'
p3160
I7488
sS'AGATCA'
p3161
I1323
sS'GCCACC'
p3162
I11315
sS'AGATCC'
p3163
I1821
sS'CGACGG'
p3164
I815
sS'GCCACG'
p3165
I5735
sS'AGATCG'
p3166
I456
sS'ATGTCA'
p3167
I3295
sS'TCGCGT'
p3168
I328
sS'ACCTAG'
p3169
I1869
sS'ACCCGT'
p3170
I654
sS'AGAAAG'
p3171
I3274
sS'CGACGA'
p3172
I318
sS'TACCCG'
p3173
I1837
sS'AGAAAC'
p3174
I2426
sS'TACCCA'
p3175
I3188
sS'AGAAAA'
p3176
I2614
sS'TACCCC'
p3177
I3198
sS'ATGTAC'
p3178
I1082
sS'ACTTCG'
p3179
I1079
sS'ATGTAA'
p3180
I1768
sS'ATGTAG'
p3181
I1198
sS'CCTATA'
p3182
I891
sS'ACGTCA'
p3183
I1478
sS'CCGGCA'
p3184
I2358
sS'GACGAC'
p3185
I2305
sS'CCTATC'
p3186
I987
sS'CTATGA'
p3187
I1229
sS'ATGTAT'
p3188
I673
sS'GTTCCA'
p3189
I2560
sS'ATTAGC'
p3190
I1812
sS'AGCACT'
p3191
I4175
sS'TTAGAA'
p3192
I1090
sS'CGGCTG'
p3193
I7926
sS'TTAGAC'
p3194
I623
sS'CGGCTC'
p3195
I6101
sS'TTAGAG'
p3196
I1041
sS'CGGCTA'
p3197
I1274
sS'AGCACC'
p3198
I9025
sS'AGCACA'
p3199
I8483
sS'AGCACG'
p3200
I3932
sS'GGTCGG'
p3201
I3519
sS'CGGCTT'
p3202
I1004
sS'CGCCCT'
p3203
I4557
sS'TTAGAT'
p3204
I286
sS'CCAGCA'
p3205
I4888
sS'ACCTAT'
p3206
I543
sS'CCAGCC'
p3207
I8661
sS'AAAGAG'
p3208
I2815
sS'AACTAC'
p3209
I2915
sS'ATATCA'
p3210
I1318
sS'CGACGT'
p3211
I238
sS'TTATTT'
p3212
I964
sS'TGTGAG'
p3213
I4226
sS'TGTGAA'
p3214
I2742
sS'CTACCT'
p3215
I814
sS'TGTGAC'
p3216
I3256
sS'ATATCT'
p3217
I818
sS'CCAGCT'
p3218
I2739
sS'AAAGAT'
p3219
I514
sS'TGTGAT'
p3220
I965
sS'TTATTG'
p3221
I2007
sS'TTATTA'
p3222
I3220
sS'CATGAT'
p3223
I670
sS'TTATTC'
p3224
I1404
sS'AGACGG'
p3225
I1250
sS'TTTTAT'
p3226
I1688
sS'TACAAG'
p3227
I3167
sS'AGACGC'
p3228
I1542
sS'TACAAA'
p3229
I4831
sS'AGACGA'
p3230
I519
sS'TACAAC'
p3231
I2748
sS'CCTCTG'
p3232
I10347
sS'AGGTGG'
p3233
I7086
sS'CCTCTC'
p3234
I7454
sS'AGGTGC'
p3235
I4820
sS'CCTCTA'
p3236
I2902
sS'AGGTGA'
p3237
I3588
sS'TACAAT'
p3238
I1616
sS'TCCACA'
p3239
I5717
sS'TTTTAG'
p3240
I2258
sS'ACATCG'
p3241
I437
sS'CTTACC'
p3242
I2334
sS'ACATCA'
p3243
I1637
sS'TTTTAC'
p3244
I2596
sS'ACATCC'
p3245
I1896
sS'AGGTGT'
p3246
I1781
sS'CCTCTT'
p3247
I1396
sS'CGTCGG'
p3248
I2298
sS'CCCGGC'
p3249
I13265
sS'CCCGGA'
p3250
I4724
sS'NNCTGA'
p3251
I1
sS'CCCGGG'
p3252
I13311
sS'TTGTGT'
p3253
I2113
sS'TGGAAT'
p3254
I862
sS'TAGGTG'
p3255
I2178
sS'TTGTGC'
p3256
I3047
sS'TATGAT'
p3257
I668
sS'TTGTGG'
p3258
I3413
sS'CCCGGT'
p3259
I1434
sS'TGGAAG'
p3260
I4258
sS'GGTTTT'
p3261
I1048
sS'TGGAAC'
p3262
I2235
sS'TGGAAA'
p3263
I3166
sS'TGAGGA'
p3264
I2262
sS'AAGAGG'
p3265
I8452
sS'TGAGGC'
p3266
I2973
sS'AAGAGA'
p3267
I6346
sS'AAGAGC'
p3268
I5979
sS'TGAGGG'
p3269
I3127
sS'GCTTAG'
p3270
I1998
sS'GCTTAC'
p3271
I1603
sS'GCTTAA'
p3272
I2076
sS'TGATTC'
p3273
I962
sS'AAGCGC'
p3274
I3388
sS'AAGAGT'
p3275
I1706
sS'AAGCGA'
p3276
I1612
sS'AAGCGG'
p3277
I3708
sS'GCTTAT'
p3278
I814
sS'CTGCTA'
p3279
I4050
sS'GCGTGT'
p3280
I1124
sS'CTGCTC'
p3281
I10422
sS'ACTTCT'
p3282
I1479
sS'GACCGT'
p3283
I1355
sS'CTGCTG'
p3284
I18292
sS'CGGTCA'
p3285
I1438
sS'GGTCGT'
p3286
I622
sS'CTAGAG'
p3287
I1392
sS'CTAGAA'
p3288
I978
sS'CGGTCG'
p3289
I1267
sS'GACCGA'
p3290
I2696
sS'GACCGC'
p3291
I5927
sS'ACTTCC'
p3292
I5197
sS'CTGCTT'
p3293
I2609
sS'GACCGG'
p3294
I5306
sS'TCGGAA'
p3295
I440
sS'CTAGAT'
p3296
I263
sS'CACAAA'
p3297
I5606
sS'CGGTCT'
p3298
I1054
sS'GGTCGC'
p3299
I3447
sS'GGTCGA'
p3300
I966
sS'CGTCGC'
p3301
I2901
sS'GCGTGG'
p3302
I3657
sS'ACGTTT'
p3303
I234
sS'GCGTGA'
p3304
I1337
sS'GCGTGC'
p3305
I2914
sS'TGCTCA'
p3306
I8772
sS'TTCATC'
p3307
I3768
sS'TGCTCC'
p3308
I13173
sS'TTCATA'
p3309
I4060
sS'TTCATG'
p3310
I5102
sS'TGCTCG'
p3311
I4258
sS'GTACAA'
p3312
I556
sS'CAGCAG'
p3313
I9069
sS'GCGGCT'
p3314
I2283
sS'CAGCAC'
p3315
I5024
sS'CAGCAA'
p3316
I3243
sS'ACGACT'
p3317
I289
sS'TGCTCT'
p3318
I6084
sS'TTCATT'
p3319
I2266
sS'GTAGCC'
p3320
I2087
sS'TGGCCG'
p3321
I3978
sS'GCTGCA'
p3322
I6898
sS'AACTCT'
p3323
I3128
sS'TGGCCC'
p3324
I6997
sS'TGGCCA'
p3325
I4945
sS'GTAGCA'
p3326
I1518
sS'AGCAAA'
p3327
I6432
sS'TGGCCT'
p3328
I2868
sS'AACTCC'
p3329
I6800
sS'GCTGCT'
p3330
I4107
sS'AACTCG'
p3331
I2282
sS'CAGTCG'
p3332
I1921
sS'CTACAA'
p3333
I853
sS'TGAAGA'
p3334
I1918
sS'AATATT'
p3335
I821
sS'GTTCGA'
p3336
I597
sS'CAACCT'
p3337
I633
sS'CAGTTA'
p3338
I3002
sS'GCTGCC'
p3339
I10369
sS'GGCACG'
p3340
I4063
sS'GGCACA'
p3341
I6679
sS'GACAAT'
p3342
I1954
sS'GGCACC'
p3343
I8947
sS'CAACCG'
p3344
I717
sS'ACGACC'
p3345
I830
sS'AATATG'
p3346
I2591
sS'CAACCC'
p3347
I1947
sS'AGCAAG'
p3348
I6690
sS'CAACCA'
p3349
I1312
sS'CTTCGT'
p3350
I710
sS'GACAAA'
p3351
I6623
sS'GGCACT'
p3352
I3658
sS'GACAAC'
p3353
I4360
sS'ACGACA'
p3354
I503
sS'GACAAG'
p3355
I6961
sS'GCTGCG'
p3356
I6642
sS'GCTTTT'
p3357
I1543
sS'GCAATA'
p3358
I871
sS'GCAATG'
p3359
I1595
sS'TTGAAC'
p3360
I1353
sS'CGATGG'
p3361
I722
sS'TCCCAT'
p3362
I1272
sS'CGATGC'
p3363
I627
sS'CAGCAT'
p3364
I1234
sS'CGATGA'
p3365
I401
sS'GAATTA'
p3366
I2099
sS'GAATTC'
p3367
I1278
sS'GAATTG'
p3368
I1681
sS'TCCCAA'
p3369
I2898
sS'CTACAC'
p3370
I790
sS'TCCCAC'
p3371
I5149
sS'GTAAAG'
p3372
I1242
sS'TCCCAG'
p3373
I8658
sS'GGATTT'
p3374
I340
sS'AGCGGA'
p3375
I3506
sS'ATGGTA'
p3376
I1261
sS'GGATTC'
p3377
I979
sS'AATTAG'
p3378
I3139
sS'GGATTA'
p3379
I839
sS'GGATTG'
p3380
I1361
sS'AGCGGC'
p3381
I8368
sS'TCAAAT'
p3382
I457
sS'ATGGTG'
p3383
I2689
sS'ATATAG'
p3384
I615
sS'TCTGTG'
p3385
I6685
sS'TCTGTC'
p3386
I3393
sS'ATAACG'
p3387
I305
sS'AACTCA'
p3388
I5584
sS'GGCGGC'
p3389
I17841
sS'CTCCTT'
p3390
I3882
sS'GGCGGA'
p3391
I6297
sS'GGCGGG'
p3392
I22208
sS'AACCGA'
p3393
I1515
sS'CTATCC'
p3394
I1696
sS'TCTGTT'
p3395
I925
sS'ATATAC'
p3396
I747
sS'CTCCTG'
p3397
I19801
sS'AACCGT'
p3398
I766
sS'CTCCTA'
p3399
I5649
sS'CTCCTC'
p3400
I18984
sS'GGCGGT'
p3401
I2713
sS'AACAAG'
p3402
I5057
sS'CCCACG'
p3403
I5326
sS'CCCACA'
p3404
I7483
sS'CCCACC'
p3405
I14441
sS'ATAGCA'
p3406
I1251
sS'AGCCTT'
p3407
I2511
sS'CCGATT'
p3408
I182
sS'CCCACT'
p3409
I3863
sS'ACTTTT'
p3410
I654
sS'AACAAT'
p3411
I2050
sS'GACGCT'
p3412
I2766
sS'GTGCGA'
p3413
I1286
sS'CCGATA'
p3414
I242
sS'AGCCTG'
p3415
I16679
sS'AGCCTA'
p3416
I3976
sS'CCGATG'
p3417
I760
sS'GTACCC'
p3418
I1117
sS'CTCCCG'
p3419
I11573
sS'GTACCG'
p3420
I554
sS'CGCCTT'
p3421
I2111
sS'TGGTTC'
p3422
I2338
sS'CAGAGT'
p3423
I2449
sS'GCATCT'
p3424
I1437
sS'CTCCCA'
p3425
I11922
sS'GAGTTG'
p3426
I4964
sS'CGCCTC'
p3427
I11847
sS'GCGCCA'
p3428
I2541
sS'CGCCTA'
p3429
I2249
sS'AGGCAG'
p3430
I7588
sS'CGCCTG'
p3431
I10996
sS'GAGTTA'
p3432
I3209
sS'CAGAGG'
p3433
I11438
sS'GCATCC'
p3434
I2959
sS'GTGCGG'
p3435
I4304
sS'CAGAGC'
p3436
I10508
sS'GCATCG'
p3437
I713
sS'CAGAGA'
p3438
I7171
sS'TAGCTA'
p3439
I1895
sS'CCGATC'
p3440
I455
sS'AGACTC'
p3441
I1278
sS'CCTAGA'
p3442
I1831
sS'CCTAGC'
p3443
I2461
sS'TTTGCT'
p3444
I1672
sS'TAGCTC'
p3445
I2402
sS'TGCGGT'
p3446
I1211
sS'CCTAGG'
p3447
I2901
sS'TAAGCA'
p3448
I1966
sS'GTCTAG'
p3449
I2820
sS'TGCGGC'
p3450
I6060
sS'TGCGGA'
p3451
I2687
sS'CCTAGT'
p3452
I816
sS'TGCGGG'
p3453
I6746
sS'TTTGCG'
p3454
I1047
sS'TGAGTT'
p3455
I274
sS'CGGGAC'
p3456
I2663
sS'ATCGCT'
p3457
I589
sS'ATCGCC'
p3458
I1593
sS'TGAGTG'
p3459
I2379
sS'ATCGCA'
p3460
I827
sS'TGAGTA'
p3461
I925
sS'ATCGCG'
p3462
I1032
sS'TGAGTC'
p3463
I1254
sS'GAGGTT'
p3464
I967
sS'AAGGTG'
p3465
I4463
sS'AAGGTC'
p3466
I2213
sS'CATCAT'
p3467
I1267
sS'AAGGTA'
p3468
I2096
sS'ATTTCG'
p3469
I569
sS'ACGGCA'
p3470
I951
sS'CATCAC'
p3471
I3768
sS'ACGGCC'
p3472
I2165
sS'CATCAA'
p3473
I2717
sS'CATCAG'
p3474
I4203
sS'ACGGCG'
p3475
I1444
sS'TCACCT'
p3476
I863
sS'TCTAAG'
p3477
I1476
sS'CGGAAT'
p3478
I333
sS'CAATTC'
p3479
I890
sS'ATCGAT'
p3480
I115
sS'TCACCG'
p3481
I962
sS'TCACCA'
p3482
I1462
sS'TCACCC'
p3483
I2013
sS'CGGAAG'
p3484
I3269
sS'AATATA'
p3485
I3112
sS'AAAATA'
p3486
I2819
sS'CGGAAC'
p3487
I1459
sS'AGCTCG'
p3488
I5465
sS'CGGAAA'
p3489
I1285
sS'TAGCTT'
p3490
I716
sS'ATCCAG'
p3491
I3467
sS'TGTGTC'
p3492
I3449
sS'TGTGTA'
p3493
I3344
sS'TGTGTG'
p3494
I10509
sS'ATGGCA'
p3495
I2841
sS'TTACTT'
p3496
I367
sS'TTCAGA'
p3497
I6422
sS'ATGGCT'
p3498
I1349
sS'TGTGTT'
p3499
I1020
sS'CCAAGT'
p3500
I852
sS'AGATTA'
p3501
I1269
sS'GAAACG'
p3502
I1663
sS'GAAACA'
p3503
I4344
sS'GAAACC'
p3504
I3922
sS'ATGCAT'
p3505
I590
sS'CTATGT'
p3506
I754
sS'CTGAGT'
p3507
I1980
sS'AGGTAC'
p3508
I1182
sS'GAAACT'
p3509
I1627
sS'AGAATG'
p3510
I2245
sS'AGAATA'
p3511
I1497
sS'AGAATC'
p3512
I1054
sS'CTGAGC'
p3513
I6908
sS'CTGAGA'
p3514
I4235
sS'CTGAGG'
p3515
I8150
sS'CATACC'
p3516
I1601
sS'CATACA'
p3517
I2603
sS'CATACG'
p3518
I510
sS'GCAATC'
p3519
I680
sS'TGCCTA'
p3520
I3780
sS'GTCCAT'
p3521
I1159
sS'AGGGGT'
p3522
I1766
sS'CATACT'
p3523
I925
sS'AATGGC'
p3524
I3375
sS'GTCCAG'
p3525
I6874
sS'TCAAAG'
p3526
I1155
sS'CACGAG'
p3527
I2059
sS'GTCCAC'
p3528
I4057
sS'GTCCAA'
p3529
I2556
sS'CGGCGG'
p3530
I9828
sS'TTGATG'
p3531
I2265
sS'CTCATT'
p3532
I2039
sS'CGGCGC'
p3533
I7370
sS'TTGATC'
p3534
I780
sS'CGGCGA'
p3535
I2222
sS'TTGATA'
p3536
I1485
sS'AGATAA'
p3537
I1445
sS'AAGTGA'
p3538
I4137
sS'TTGATT'
p3539
I498
sS'CGGCGT'
p3540
I1259
sS'ATGGCC'
p3541
I3646
sS'GTACGC'
p3542
I525
sS'TATAAG'
p3543
I1822
sS'TGACTT'
p3544
I299
sS'CGAGTA'
p3545
I377
sS'CGGTTA'
p3546
I712
sS'GGTTTA'
p3547
I2890
sS'CGGTTC'
p3548
I1571
sS'GGTTTC'
p3549
I3888
sS'TTTACA'
p3550
I3035
sS'CGGTTG'
p3551
I1531
sS'GGTTTG'
p3552
I4788
sS'CCATTG'
p3553
I1930
sS'TTCAGT'
p3554
I3188
sS'GCTGTG'
p3555
I9249
sS'GCTGTC'
p3556
I4110
sS'CGGTTT'
p3557
I410
sS'GCTGTA'
p3558
I2873
sS'TATGCG'
p3559
I613
sS'TCTCAA'
p3560
I1880
sS'AGGTTG'
p3561
I2887
sS'AGGTTC'
p3562
I2134
sS'AGGTTA'
p3563
I2011
sS'GAGGGA'
p3564
I12642
sS'TTTTTC'
p3565
I4318
sS'TCCATC'
p3566
I4154
sS'TTTTTA'
p3567
I7118
sS'TTTTTG'
p3568
I4650
sS'GAGGGG'
p3569
I18942
sS'TTAAAT'
p3570
I868
sS'AGGTTT'
p3571
I831
sS'TAAGCG'
p3572
I621
sS'ACATAT'
p3573
I510
sS'TTAAAC'
p3574
I1446
sS'ATACGT'
p3575
I105
sS'TTAAAA'
p3576
I2837
sS'ACTCCG'
p3577
I1663
sS'TTAAAG'
p3578
I1830
sS'GAGGGT'
p3579
I3287
sS'TTTTTT'
p3580
I1837
sS'ACTCCC'
p3581
I3281
sS'TAGGCT'
p3582
I1257
sS'GTCACG'
p3583
I3240
sS'CTGTAC'
p3584
I1876
sS'GCAACT'
p3585
I727
sS'GTCACC'
p3586
I7407
sS'CTGTAG'
p3587
I2246
sS'GTCACA'
p3588
I5913
sS'ACTTAT'
p3589
I673
sS'GCAACG'
p3590
I912
sS'GTCACT'
p3591
I3752
sS'TAGGCG'
p3592
I1523
sS'GCAACC'
p3593
I1911
sS'TAGGCA'
p3594
I2654
sS'GCAACA'
p3595
I1712
sS'TAGGCC'
p3596
I3155
sS'GTAGTT'
p3597
I309
sS'CGATGT'
p3598
I225
sS'ATTCAT'
p3599
I777
sS'GTAAAA'
p3600
I1288
sS'GCGATT'
p3601
I220
sS'TCGTGT'
p3602
I409
sS'TTCACT'
p3603
I3260
sS'GTCTCT'
p3604
I5929
sS'AACATT'
p3605
I1416
sS'ATTCAG'
p3606
I2045
sS'ATTCAA'
p3607
I1705
sS'ATTCAC'
p3608
I1664
sS'TTCACG'
p3609
I1842
sS'TCGTGG'
p3610
I1293
sS'GCGATG'
p3611
I1362
sS'GTCTCG'
p3612
I4201
sS'GCGATA'
p3613
I348
sS'TTCACA'
p3614
I5744
sS'GCGATC'
p3615
I633
sS'GAAGGC'
p3616
I5627
sS'GAAGGA'
p3617
I5462
sS'GAAGGG'
p3618
I7968
sS'CGATTA'
p3619
I252
sS'GGAACC'
p3620
I2823
sS'AGACTT'
p3621
I290
sS'GGAACA'
p3622
I2224
sS'GGAACG'
p3623
I1265
sS'TGACGA'
p3624
I342
sS'ATAGTA'
p3625
I632
sS'TCATAC'
p3626
I570
sS'GAAGGT'
p3627
I1396
sS'CTCGCT'
p3628
I2880
sS'CAATCG'
p3629
I630
sS'CAATCA'
p3630
I1883
sS'CAATCC'
p3631
I1707
sS'TCCTGA'
p3632
I7224
sS'AGTCCA'
p3633
I3151
sS'TCCTGC'
p3634
I15821
sS'AGTCCC'
p3635
I5942
sS'ACTAAA'
p3636
I1384
sS'TCCTGG'
p3637
I15178
sS'AGTCCG'
p3638
I2107
sS'TAACGC'
p3639
I484
sS'CAGCTG'
p3640
I14256
sS'TAACGG'
p3641
I524
sS'CAGCTC'
p3642
I8353
sS'ACTAAT'
p3643
I508
sS'AGTCCT'
p3644
I1933
sS'TCCTGT'
p3645
I5050
sS'TAATGT'
p3646
I1072
sS'CAGCTT'
p3647
I1524
sS'TAACGT'
p3648
I185
sS'TTGACC'
p3649
I1695
sS'GTACTT'
p3650
I323
sS'CGACAT'
p3651
I123
sS'TTGTTC'
p3652
I2573
sS'CCGAGG'
p3653
I4195
sS'TTGTTG'
p3654
I3482
sS'AGGAAG'
p3655
I8045
sS'CCGAGC'
p3656
I3524
sS'CCGCGT'
p3657
I796
sS'GTACTG'
p3658
I1385
sS'CGACAA'
p3659
I187
sS'GTACTC'
p3660
I699
sS'GTACTA'
p3661
I572
sS'CCGCGC'
p3662
I5383
sS'AGCCAC'
p3663
I8056
sS'CCGCGA'
p3664
I1480
sS'CCGCGG'
p3665
I4982
sS'TTGTTT'
p3666
I1592
sS'GCATAT'
p3667
I415
sS'TCCGTT'
p3668
I453
sS'AGCCAA'
p3669
I5820
sS'AATAAC'
p3670
I3001
sS'AATAAA'
p3671
I6949
sS'AATAAG'
p3672
I3058
sS'CATTCC'
p3673
I5272
sS'TACTAA'
p3674
I3327
sS'AATAAT'
p3675
I1807
sS'CCAACC'
p3676
I2392
sS'CTCAGT'
p3677
I4097
sS'TTATGC'
p3678
I1165
sS'CCAACG'
p3679
I718
sS'GGGATT'
p3680
I717
sS'CGCCGC'
p3681
I22184
sS'AGTAAA'
p3682
I3043
sS'CGCCGA'
p3683
I3889
sS'GAGTAG'
p3684
I2497
sS'CGCCGG'
p3685
I10951
sS'GAGTAA'
p3686
I2405
sS'GAGTAC'
p3687
I1852
sS'CTCAGG'
p3688
I13169
sS'CTCAGC'
p3689
I14322
sS'CTCAGA'
p3690
I8541
sS'GAGTAT'
p3691
I703
sS'ATCGTC'
p3692
I596
sS'GTGTAG'
p3693
I1663
sS'TCGAGC'
p3694
I866
sS'GTGTAA'
p3695
I1573
sS'GTGTAC'
p3696
I1345
sS'CGCCGT'
p3697
I2181
sS'GTGGCA'
p3698
I5005
sS'CTCGGG'
p3699
I8039
sS'CTCGGA'
p3700
I3272
sS'CTCGGC'
p3701
I8312
sS'GCCGCC'
p3702
I19823
sS'GCCGCA'
p3703
I5677
sS'GCCGCG'
p3704
I11363
sS'ACACTT'
p3705
I327
sS'CATATG'
p3706
I2851
sS'AGATAT'
p3707
I366
sS'GTGGCT'
p3708
I3285
sS'CATATA'
p3709
I2031
sS'TCAGCA'
p3710
I2385
sS'ACACTC'
p3711
I1074
sS'ACACTA'
p3712
I668
sS'ACACTG'
p3713
I1978
sS'GCCGCT'
p3714
I4361
sS'ACCGGA'
p3715
I1515
sS'AAATAA'
p3716
I2264
sS'ACCGGC'
p3717
I2836
sS'AAATAC'
p3718
I1369
sS'CTTTAA'
p3719
I4013
sS'ACCGGG'
p3720
I3206
sS'AAATAG'
p3721
I1257
sS'AACTTA'
p3722
I4320
sS'CAGGTA'
p3723
I2239
sS'AACTTC'
p3724
I4686
sS'CAGGTC'
p3725
I3293
sS'CACGAC'
p3726
I1464
sS'AACTTG'
p3727
I6189
sS'CAGTCC'
p3728
I6871
sS'CTTTAT'
p3729
I1367
sS'AATCCC'
p3730
I3466
sS'GCTCGT'
p3731
I731
sS'AATCCA'
p3732
I3098
sS'AAATAT'
p3733
I708
sS'AATCCG'
p3734
I1217
sS'GATACA'
p3735
I2742
sS'TCAGCG'
p3736
I1336
sS'CAGGTT'
p3737
I725
sS'AACTTT'
p3738
I1564
sS'GGGATA'
p3739
I1468
sS'GGGATC'
p3740
I2049
sS'GGGTGT'
p3741
I2386
sS'GGGATG'
p3742
I4917
sS'GATGCT'
p3743
I2885
sS'CGCAGT'
p3744
I2504
sS'TCTGTA'
p3745
I3041
sS'ATTGGG'
p3746
I1364
sS'GAGCCT'
p3747
I4918
sS'GGAGAC'
p3748
I2012
sS'AACCGG'
p3749
I2459
sS'GGAGAA'
p3750
I1984
sS'GGGTGC'
p3751
I5583
sS'GGAGAG'
p3752
I3702
sS'AATCAA'
p3753
I3289
sS'GGGTGG'
p3754
I9588
sS'GAGCCA'
p3755
I8816
sS'GAGCCC'
p3756
I14552
sS'GATGCG'
p3757
I2736
sS'CGCAGA'
p3758
I4690
sS'GATGCA'
p3759
I4851
sS'GAGCCG'
p3760
I9197
sS'GATGCC'
p3761
I5463
sS'CGGATT'
p3762
I259
sS'GGTAGT'
p3763
I817
sS'ACCCCT'
p3764
I2088
sS'GCCAAT'
p3765
I2309
sS'AACCGC'
p3766
I2873
sS'AGAAGT'
p3767
I1190
sS'ACCCCA'
p3768
I4520
sS'GGTAGA'
p3769
I2050
sS'GCCAAA'
p3770
I3382
sS'GGTAGC'
p3771
I2363
sS'GCCAAG'
p3772
I6526
sS'CGGATA'
p3773
I437
sS'ACCCCG'
p3774
I4183
sS'GGTAGG'
p3775
I3506
sS'AGAAGA'
p3776
I3104
sS'AGAAGC'
p3777
I4288
sS'CAGTCT'
p3778
I2481
sS'AGAAGG'
p3779
I5145
sS'CACTCC'
p3780
I10901
sS'CACTCA'
p3781
I9120
sS'CACTCG'
p3782
I4246
sS'TGCGTT'
p3783
I503
sS'TCAGCT'
p3784
I1205
sS'AGCTTT'
p3785
I2968
sS'CCCCGG'
p3786
I10578
sS'TGCGTA'
p3787
I937
sS'TGCGTG'
p3788
I4029
sS'CCCCGA'
p3789
I3903
sS'AGCTTC'
p3790
I9256
sS'AGCTTA'
p3791
I5059
sS'AGCTTG'
p3792
I9242
sS'ATACGA'
p3793
I145
sS'AGACCA'
p3794
I1317
sS'TTAGCT'
p3795
I711
sS'GTATAA'
p3796
I795
sS'TTAGCC'
p3797
I1528
sS'TTAGCA'
p3798
I1663
sS'GACCAT'
p3799
I1502
sS'TTAGCG'
p3800
I554
sS'CTTCAT'
p3801
I951
sS'TCATAT'
p3802
I449
sS'AAGGGG'
p3803
I7767
sS'ATAAGG'
p3804
I1402
sS'TGTGCT'
p3805
I2096
sS'AAGGGC'
p3806
I6116
sS'ATAAGC'
p3807
I1149
sS'ATCCCT'
p3808
I1906
sS'ATAAGA'
p3809
I1347
sS'CCAGAC'
p3810
I1715
sS'CCAGAA'
p3811
I1549
sS'CCAGAG'
p3812
I2821
sS'GCAAGT'
p3813
I792
sS'TGTGCG'
p3814
I2658
sS'ATAAGT'
p3815
I459
sS'ATAGGG'
p3816
I839
sS'TGTGCC'
p3817
I4371
sS'ATAGGA'
p3818
I839
sS'TGTGCA'
p3819
I4082
sS'ATAGGC'
p3820
I766
sS'TAAGTT'
p3821
I220
sS'ATACGC'
p3822
I221
sS'CCAGAT'
p3823
I634
sS'AGACAA'
p3824
I967
sS'GACGCA'
p3825
I3909
sS'CGTGGT'
p3826
I890
sS'TCCATT'
p3827
I1524
sS'AGACAG'
p3828
I2168
sS'TTTTCT'
p3829
I3248
sS'CGCTGT'
p3830
I3326
sS'GACGCC'
p3831
I7520
sS'CGTGGG'
p3832
I4150
sS'CGTGGC'
p3833
I3644
sS'CGTGGA'
p3834
I1835
sS'TTTTCG'
p3835
I949
sS'CGCTGA'
p3836
I4590
sS'CGCTGC'
p3837
I14343
sS'TTTTCC'
p3838
I6631
sS'TTTTCA'
p3839
I4869
sS'CGCTGG'
p3840
I10177
sS'TATGGA'
p3841
I1836
sS'TATGGC'
p3842
I1916
sS'CGTAGG'
p3843
I1405
sS'GACGCG'
p3844
I5911
sS'TATGGG'
p3845
I1963
sS'CGTAGC'
p3846
I1383
sS'TACCGT'
p3847
I517
sS'TGGACT'
p3848
I1614
sS'CGTAGT'
p3849
I502
sS'GCTCGA'
p3850
I1313
sS'TATGGT'
p3851
I795
sS'ATTCCT'
p3852
I926
sS'TGGACA'
p3853
I3270
sS'TGGACC'
p3854
I3246
sS'TGGACG'
p3855
I1816
sS'CCGGTT'
p3856
I299
sS'CTAGCT'
p3857
I931
sS'GCTTGA'
p3858
I2598
sS'TGAGAC'
p3859
I1048
sS'GCTTGC'
p3860
I4390
sS'TGAGAA'
p3861
I1280
sS'TGAGAG'
p3862
I1724
sS'GCTTGG'
p3863
I5686
sS'CCTGTT'
p3864
I758
sS'CCGGTG'
p3865
I2277
sS'CGATCG'
p3866
I228
sS'CCGGTC'
p3867
I1298
sS'CCGGTA'
p3868
I586
sS'CCTGTC'
p3869
I3626
sS'CCTGTA'
p3870
I2285
sS'CCTGTG'
p3871
I6925
sS'GCTTGT'
p3872
I1815
sS'TGAGAT'
p3873
I433
sS'ATCGTA'
p3874
I394
sS'GGTTGT'
p3875
I1505
sS'AGGGAT'
p3876
I765
sS'TATCAG'
p3877
I2838
sS'TAGCGT'
p3878
I410
sS'GGTTGG'
p3879
I4618
sS'GGTTGA'
p3880
I2239
sS'GGTTGC'
p3881
I3883
sS'GAAAGT'
p3882
I1520
sS'TCCCGC'
p3883
I9487
sS'TCCCGA'
p3884
I2531
sS'TCCCGG'
p3885
I8836
sS'GTAACC'
p3886
I1390
sS'CGTTTT'
p3887
I561
sS'ATTCTC'
p3888
I1891
sS'AGGGAA'
p3889
I3566
sS'ATTCTA'
p3890
I1831
sS'ATTCTG'
p3891
I3161
sS'TCATTT'
p3892
I699
sS'CAGCGA'
p3893
I2621
sS'CAGCGC'
p3894
I7079
sS'TATACT'
p3895
I1021
sS'TGCTAG'
p3896
I3491
sS'CAGCGG'
p3897
I6412
sS'CCTTGT'
p3898
I2010
sS'TCATTC'
p3899
I1405
sS'TCATTA'
p3900
I1891
sS'CGTTTA'
p3901
I1219
sS'ATTCTT'
p3902
I449
sS'CGTTTC'
p3903
I2155
sS'TGGCAA'
p3904
I1829
sS'TGGCAC'
p3905
I2519
sS'TGGCAG'
p3906
I4866
sS'GGCCGT'
p3907
I2301
sS'CCAAGC'
p3908
I2449
sS'GCTGAC'
p3909
I3260
sS'TGGCAT'
p3910
I811
sS'GGCCGG'
p3911
I15403
sS'NNGATC'
p3912
I1
sS'AGCCTC'
p3913
I11610
sS'GGCCGC'
p3914
I17156
sS'GAACTT'
p3915
I390
sS'GGCCGA'
p3916
I5045
sS'GGCAAT'
p3917
I1253
sS'CTGATT'
p3918
I851
sS'CCATCG'
p3919
I754
sS'CTAAAT'
p3920
I525
sS'CCATCC'
p3921
I3397
sS'CCATCA'
p3922
I1776
sS'GGCAAG'
p3923
I6051
sS'CTGATA'
p3924
I2108
sS'TGGTTG'
p3925
I2971
sS'GGCAAC'
p3926
I4026
sS'GGCAAA'
p3927
I4222
sS'CTAAAG'
p3928
I1219
sS'CCATCT'
p3929
I1830
sS'CTAAAC'
p3930
I993
sS'TTGCGT'
p3931
I436
sS'GACACC'
p3932
I8923
sS'GACACA'
p3933
I10035
sS'GACACG'
p3934
I4518
sS'CCAAGA'
p3935
I1551
sS'GCGCCT'
p3936
I2188
sS'TAGCGA'
p3937
I752
sS'TACGAG'
p3938
I820
sS'TACGAC'
p3939
I641
sS'GACACT'
p3940
I4448
sS'GGCGAT'
p3941
I571
sS'ACGCTG'
p3942
I2162
sS'ACGCTA'
p3943
I501
sS'ACGCTC'
p3944
I1152
sS'TCGATG'
p3945
I547
sS'TCGATA'
p3946
I182
sS'TCGATC'
p3947
I245
sS'ACGCTT'
p3948
I262
sS'CGCGAA'
p3949
I1289
sS'GCATTG'
p3950
I1629
sS'CAGCCT'
p3951
I4562
sS'TCGATT'
p3952
I86
sS'TCGGCA'
p3953
I968
sS'AGGCAC'
p3954
I3612
sS'AACCAA'
p3955
I3717
sS'TGCCGG'
p3956
I5800
sS'AACCAC'
p3957
I4123
sS'TGCCGC'
p3958
I7226
sS'AACCAG'
p3959
I5636
sS'TGCCGA'
p3960
I1991
sS'TTGGAC'
p3961
I1208
sS'TCTGGA'
p3962
I3509
sS'ATGATC'
p3963
I764
sS'GAGTTC'
p3964
I3380
sS'TGCCGT'
p3965
I1277
sS'AACCAT'
p3966
I1254
sS'AACAGA'
p3967
I8741
sS'GGGAGT'
p3968
I2694
sS'AACAGC'
p3969
I8549
sS'ACGTCC'
p3970
I1519
sS'AACAGG'
p3971
I7842
sS'CTACCA'
p3972
I1291
sS'CCCAAG'
p3973
I5238
sS'TTGGAG'
p3974
I2407
sS'GACGAA'
p3975
I1422
sS'CCCAAC'
p3976
I4010
sS'CCCAAA'
p3977
I2966
sS'CAATAT'
p3978
I317
sS'GGGAGG'
p3979
I19646
sS'GGGAGA'
p3980
I7339
sS'AACAGT'
p3981
I3017
sS'GGGAGC'
p3982
I10832
sS'ACGAAG'
p3983
I683
sS'CCCAAT'
p3984
I930
sS'GACGAT'
p3985
I482
sS'GGGCGC'
p3986
I8811
sS'GGGCGA'
p3987
I2948
sS'GCATCA'
p3988
I1562
sS'GGGCGG'
p3989
I14848
sS'TCTCTT'
p3990
I1125
sS'GTACAG'
p3991
I934
sS'CAGAAT'
p3992
I999
sS'GTACAC'
p3993
I520
sS'TCTCTC'
p3994
I5495
sS'TCTCTA'
p3995
I3102
sS'TCTCTG'
p3996
I8093
sS'GGGCGT'
p3997
I1735
sS'CAGAAA'
p3998
I4099
sS'CAGAAC'
p3999
I3510
sS'ACGACG'
p4000
I553
sS'CAGAAG'
p4001
I5186
sS'CACTTT'
p4002
I2550
sS'CATATT'
p4003
I646
sS'CCTAAT'
p4004
I568
sS'TCTATA'
p4005
I1260
sS'GTCATT'
p4006
I1403
sS'CACTTG'
p4007
I8380
sS'CCTAAC'
p4008
I1286
sS'CTACCC'
p4009
I1892
sS'CCTAAA'
p4010
I1270
sS'CACTTC'
p4011
I8377
sS'CCTAAG'
p4012
I1633
sS'CACTTA'
p4013
I7149
sS'GCGGAT'
p4014
I237
sS'GTCCCC'
p4015
I11972
sS'AAGATT'
p4016
I444
sS'CTCATG'
p4017
I5461
sS'GACTCG'
p4018
I5226
sS'CTCATC'
p4019
I4667
sS'GACTCC'
p4020
I12003
sS'CTCATA'
p4021
I3129
sS'GACTCA'
p4022
I9093
sS'AAGATA'
p4023
I2802
sS'CTCCAA'
p4024
I4806
sS'AAGATG'
p4025
I4218
sS'GACTCT'
p4026
I5523
sS'ATCGAG'
p4027
I664
sS'TTGAGA'
p4028
I2182
sS'ATCGAA'
p4029
I372
sS'ATCGAC'
p4030
I439
sS'ATATTT'
p4031
I564
sS'ATAGAG'
p4032
I715
sS'AACTAA'
p4033
I3842
sS'ATAGTT'
p4034
I154
sS'TACTGT'
p4035
I3140
sS'ATATTC'
p4036
I886
sS'ATATTA'
p4037
I1870
sS'ATATTG'
p4038
I1231
sS'TACTGC'
p4039
I5228
sS'TACTGA'
p4040
I4652
sS'TACTGG'
p4041
I4485
sS'ATAGTG'
p4042
I799
sS'ATAGAC'
p4043
I509
sS'CAGGCA'
p4044
I8432
sS'CAGGCC'
p4045
I13578
sS'CATCCG'
p4046
I1962
sS'AGGAAA'
p4047
I4762
sS'CATCCA'
p4048
I3854
sS'CAGGCG'
p4049
I6060
sS'CATCCC'
p4050
I6000
sS'TTATGA'
p4051
I1353
sS'ACGGTG'
p4052
I1224
sS'CGGAGT'
p4053
I1335
sS'TTATGG'
p4054
I1197
sS'CATCCT'
p4055
I2357
sS'AGGAAT'
p4056
I1010
sS'CAGGCT'
p4057
I4019
sS'ACGGAT'
p4058
I109
sS'CGGAGA'
p4059
I2949
sS'CTGAAA'
p4060
I2441
sS'CGGAGC'
p4061
I6688
sS'TTATGT'
p4062
I989
sS'CGGAGG'
p4063
I7222
sS'AGGGCT'
p4064
I3201
sS'ATGGAA'
p4065
I1577
sS'ATGGAC'
p4066
I1126
sS'ATGGAG'
p4067
I2297
sS'CGCTTG'
p4068
I4314
sS'CGCTTA'
p4069
I1860
sS'CGCTTC'
p4070
I6117
sS'ATGGAT'
p4071
I359
sS'TTTGCA'
p4072
I3415
sS'CGCTTT'
p4073
I1667
sS'GATCGT'
p4074
I543
sS'TTTGCC'
p4075
I3046
sS'GAAAAG'
p4076
I4102
sS'TAAACC'
p4077
I1753
sS'GAAAAC'
p4078
I3242
sS'ATAGAT'
p4079
I220
sS'GAAAAA'
p4080
I3022
sS'ACGGTT'
p4081
I138
sS'GAAAAT'
p4082
I984
sS'TGAGGT'
p4083
I814
sS'CTACTG'
p4084
I1723
sS'ACAAGG'
p4085
I1801
sS'ACAAGA'
p4086
I1278
sS'AAAAAA'
p4087
I4467
sS'ACAAGC'
p4088
I1555
sS'ACACGT'
p4089
I350
sS'CTGCGT'
p4090
I1462
sS'GCGGAG'
p4091
I4026
sS'CATAAG'
p4092
I1687
sS'GTCCCT'
p4093
I4975
sS'CATAAA'
p4094
I3384
sS'GCGGAC'
p4095
I1508
sS'CATAAC'
p4096
I1771
sS'ACACGC'
p4097
I1027
sS'ACAAGT'
p4098
I566
sS'ACACGA'
p4099
I324
sS'ACACGG'
p4100
I788
sS'CATAAT'
p4101
I1033
sS'GTCCCA'
p4102
I6495
sS'GCACAT'
p4103
I469
sS'CTGCGG'
p4104
I6954
sS'CTGCGA'
p4105
I2162
sS'GTCCCG'
p4106
I7164
sS'CGGCAA'
p4107
I828
sS'CGGCAC'
p4108
I1714
sS'CGGCAG'
p4109
I3663
sS'CCTCCT'
p4110
I4380
sS'AGCGCT'
p4111
I2738
sS'CGGCAT'
p4112
I376
sS'CCTCCC'
p4113
I12964
sS'CCTCCA'
p4114
I5294
sS'CCTCCG'
p4115
I4792
sS'CGTGAT'
p4116
I278
s.