(dp0
S'GAACGT'
p1
I5117
sS'ACATGA'
p2
I15863
sS'CTTCTT'
p3
I29076
sS'CACCCT'
p4
I40172
sS'GAACGG'
p5
I7913
sS'GAACGC'
p6
I8051
sS'GAACGA'
p7
I4762
sS'CACCCA'
p8
I43520
sS'CTTCTA'
p9
I15025
sS'CACCCC'
p10
I60468
sS'CTTCTC'
p11
I41406
sS'CACCCG'
p12
I22999
sS'CTTCTG'
p13
I39917
sS'CGTGTG'
p14
I16179
sS'TAAGGT'
p15
I8582
sS'CGTGTC'
p16
I10162
sS'CGTGTA'
p17
I4138
sS'AGGCAA'
p18
I25454
sS'TAAGGG'
p19
I13074
sS'CGTGTT'
p20
I7116
sS'TAAGGC'
p21
I11832
sS'TAAGGA'
p22
I15214
sS'GTCAAA'
p23
I12638
sS'CCCGCT'
p24
I28116
sS'GTCAAG'
p25
I12730
sS'CTGTCC'
p26
I43797
sS'TCAGAG'
p27
I36676
sS'CTGTCA'
p28
I28886
sS'CTCGCC'
p29
I25293
sS'CTGTCG'
p30
I9984
sS'TCAGAC'
p31
I19477
sS'TCAGAA'
p32
I27928
sS'GTCAAT'
p33
I7678
sS'GTATCA'
p34
I7184
sS'GTATCC'
p35
I7016
sS'GTATCG'
p36
I1690
sS'CTGTCT'
p37
I38859
sS'GGTGTC'
p38
I22241
sS'TACCCT'
p39
I12107
sS'GGTGTA'
p40
I8146
sS'GGTGTG'
p41
I31956
sS'TATCCT'
p42
I11493
sS'CCGGGG'
p43
I54593
sS'TTCTGT'
p44
I32548
sS'ATTCCT'
p45
I21056
sS'CCGGGC'
p46
I55170
sS'CCGGGA'
p47
I35312
sS'TATCCA'
p48
I11133
sS'TATCCC'
p49
I10222
sS'GTTCTG'
p50
I25617
sS'TATCCG'
p51
I2533
sS'GGTGTT'
p52
I16002
sS'ATTCCG'
p53
I4958
sS'TTCTGG'
p54
I36823
sS'CCGGGT'
p55
I21622
sS'ATTCCC'
p56
I19977
sS'TTCTGC'
p57
I34295
sS'ATTCCA'
p58
I20574
sS'TTCTGA'
p59
I27651
sS'TGCACT'
p60
I21990
sS'GGNCCG'
p61
I1
sS'CGTCAT'
p62
I5024
sS'GTTCTC'
p63
I20351
sS'CCCGCG'
p64
I39734
sS'CGCGGG'
p65
I39298
sS'NCCGCC'
p66
I1
sS'CGCGGC'
p67
I39144
sS'CGCGGA'
p68
I15874
sS'ACCTGT'
p69
I19418
sS'TCATGT'
p70
I15991
sS'CTCCGA'
p71
I13371
sS'TTACAG'
p72
I20330
sS'CTCCGC'
p73
I34611
sS'TTACAA'
p74
I15197
sS'CCGGCA'
p75
I20279
sS'TTACAC'
p76
I10191
sS'CTCCGG'
p77
I29852
sS'TCATGC'
p78
I15268
sS'TGCGAT'
p79
I4130
sS'CCGTGT'
p80
I12004
sS'TCATGG'
p81
I18028
sS'ACCTGC'
p82
I36075
sS'ACCTGA'
p83
I19831
sS'GTATTT'
p84
I18548
sS'CTCGAT'
p85
I4307
sS'CTCCGT'
p86
I13916
sS'GCCTGA'
p87
I35120
sS'GCCTGC'
p88
I61283
sS'GCCTGG'
p89
I92173
sS'TCTTGC'
p90
I20050
sS'TAAAGG'
p91
I16320
sS'CAAATT'
p92
I19278
sS'TAAAGA'
p93
I19227
sS'TAAAGC'
p94
I15104
sS'GCCTGT'
p95
I37916
sS'CGTCAA'
p96
I3664
sS'TAAAGT'
p97
I14160
sS'CAAATA'
p98
I19022
sS'ACGTCC'
p99
I8985
sS'CAAATC'
p100
I17076
sS'CAAATG'
p101
I23951
sS'AATACT'
p102
I11873
sS'AATCCG'
p103
I4887
sS'TATCTC'
p104
I14620
sS'CCGGCG'
p105
I30394
sS'GGCATG'
p106
I23043
sS'GTCCTC'
p107
I30676
sS'GGCATC'
p108
I22017
sS'AATACG'
p109
I2863
sS'AATACA'
p110
I18070
sS'AATACC'
p111
I8709
sS'GGCATT'
p112
I17828
sS'TCCCCA'
p113
I60769
sS'TGCACA'
p114
I29564
sS'GAGCAC'
p115
I24332
sS'ACTGAT'
p116
I13920
sS'GAGCAG'
p117
I54595
sS'AGTAGT'
p118
I8185
sS'TCTCGC'
p119
I12163
sS'TCTCGA'
p120
I5613
sS'TCTCGG'
p121
I15503
sS'ACTGAG'
p122
I27364
sS'CCTACT'
p123
I12769
sS'AGTAGA'
p124
I12476
sS'AGTAGG'
p125
I13175
sS'ACTGAA'
p126
I20994
sS'ACGGCC'
p127
I16431
sS'TCTCGT'
p128
I6000
sS'GTGTCG'
p129
I6378
sS'TCGAAC'
p130
I3427
sS'TCGAAA'
p131
I3503
sS'GTGTCC'
p132
I27797
sS'TCGAAG'
p133
I5394
sS'GTGTCA'
p134
I17434
sS'CTTGCT'
p135
I27129
sS'CCGTCT'
p136
I13306
sS'CCACAA'
p137
I20867
sS'GTGTCT'
p138
I25797
sS'AGCCCC'
p139
I68930
sS'TCGAAT'
p140
I2739
sS'CTTGCG'
p141
I8154
sS'CTTGCA'
p142
I20203
sS'CTTGCC'
p143
I27574
sS'CGAAAG'
p144
I6354
sS'CGAAAA'
p145
I4968
sS'CGAAAC'
p146
I4658
sS'CACGGA'
p147
I12793
sS'AAATGC'
p148
I25301
sS'CACGGC'
p149
I20572
sS'AAATGA'
p150
I32942
sS'AAATGG'
p151
I26724
sS'CACGGG'
p152
I20322
sS'ACAGTA'
p153
I13305
sS'CGAAAT'
p154
I3846
sS'ACAGTT'
p155
I16782
sS'AATCAG'
p156
I20803
sS'CACGGT'
p157
I10062
sS'AAATGT'
p158
I29464
sS'AATCAC'
p159
I15767
sS'TTTGTA'
p160
I18378
sS'GCTCAA'
p161
I15843
sS'TCTAGT'
p162
I10272
sS'TTGCCG'
p163
I7932
sS'TTGCCA'
p164
I22541
sS'GGGTAT'
p165
I7714
sS'GGGTAC'
p166
I9555
sS'TCTAGG'
p167
I15523
sS'GGGTAA'
p168
I11264
sS'TCTAGA'
p169
I13420
sS'GGGTAG'
p170
I16166
sS'TCTAGC'
p171
I11546
sS'ATACGG'
p172
I2576
sS'TGACTA'
p173
I9023
sS'ATACAT'
p174
I13161
sS'TGGGCC'
p175
I50868
sS'AGATGT'
p176
I21296
sS'TCGCCC'
p177
I19539
sS'TCGCCA'
p178
I9760
sS'TCGCCG'
p179
I12015
sS'GGTAAT'
p180
I9143
sS'ACCCAT'
p181
I13961
sS'GTCAAC'
p182
I8046
sS'ACCCAC'
p183
I29887
sS'GGTAAC'
p184
I8004
sS'ACCCAA'
p185
I16997
sS'AGATGG'
p186
I32452
sS'ACCCAG'
p187
I45404
sS'GGTAAG'
p188
I11277
sS'TCGCCT'
p189
I12748
sS'AGATGC'
p190
I23776
sS'TTTGAG'
p191
I22123
sS'CCCCAT'
p192
I32177
sS'TTGGGT'
p193
I16780
sS'CACTAG'
p194
I11392
sS'CACTAA'
p195
I11628
sS'CACTAC'
p196
I8639
sS'CCCCAA'
p197
I36442
sS'CCCCAC'
p198
I71974
sS'CCCCAG'
p199
I95123
sS'CACTAT'
p200
I8639
sS'TTGGGG'
p201
I36316
sS'CCGTCC'
p202
I20102
sS'TTGGGA'
p203
I25100
sS'TTGGGC'
p204
I22131
sS'TGCCTG'
p205
I59047
sS'TGCAGA'
p206
I40869
sS'TTTCTG'
p207
I42566
sS'TGCAGC'
p208
I50914
sS'TTTCTA'
p209
I23649
sS'TTTCTC'
p210
I39819
sS'TGCAGG'
p211
I55804
sS'GGGTCA'
p212
I25219
sS'GTATCT'
p213
I10299
sS'TTTCTT'
p214
I44313
sS'TGCCTT'
p215
I31551
sS'TGCAGT'
p216
I28664
sS'TAGTGC'
p217
I8706
sS'AAGGAA'
p218
I37554
sS'AAGGAC'
p219
I21023
sS'AATGTC'
p220
I15750
sS'AAGGAG'
p221
I39339
sS'ATATGC'
p222
I9508
sS'GTTCCA'
p223
I18460
sS'ATATGA'
p224
I11784
sS'TACGAA'
p225
I2367
sS'ATATGG'
p226
I10539
sS'AAGGAT'
p227
I16388
sS'CTATCA'
p228
I9333
sS'ATATGT'
p229
I13668
sS'GGTCCC'
p230
I40649
sS'TCCGGT'
p231
I7465
sS'CCACTG'
p232
I40395
sS'GCCCAA'
p233
I22419
sS'GGTCCG'
p234
I13058
sS'AGGTCT'
p235
I21818
sS'ATGGCG'
p236
I10426
sS'AGACCC'
p237
I31033
sS'ATTGTT'
p238
I16024
sS'CTTCGA'
p239
I5294
sS'CTTCGC'
p240
I10735
sS'CCACTA'
p241
I11714
sS'GCCCAT'
p242
I21344
sS'AGGTCA'
p243
I25174
sS'TCCGGC'
p244
I19376
sS'GGTCCT'
p245
I27569
sS'TCCGGA'
p246
I11945
sS'CTTAGC'
p247
I12736
sS'ATTGTG'
p248
I14283
sS'CTTAGA'
p249
I12607
sS'ATGCAC'
p250
I15333
sS'CTTAGG'
p251
I13769
sS'TCAGAT'
p252
I20261
sS'TCTTGG'
p253
I25074
sS'GCCTTT'
p254
I27946
sS'ATTTTG'
p255
I24178
sS'GAGGTG'
p256
I40319
sS'ATTTTA'
p257
I32549
sS'TAAATT'
p258
I22965
sS'ATTTTC'
p259
I29707
sS'GAGGTC'
p260
I24628
sS'TAGCAG'
p261
I17224
sS'GATACT'
p262
I7622
sS'TAGCAC'
p263
I10228
sS'TAGCAA'
p264
I12874
sS'GAGGTT'
p265
I18302
sS'ATTTTT'
p266
I44351
sS'GCCTTG'
p267
I31470
sS'TAGTGT'
p268
I9138
sS'GCCTTA'
p269
I11685
sS'TTGACA'
p270
I14020
sS'GCCTTC'
p271
I34421
sS'GATACG'
p272
I2268
sS'TAGCAT'
p273
I10469
sS'GATACC'
p274
I6433
sS'GATTTC'
p275
I17835
sS'TGAGCT'
p276
I30084
sS'GATCAT'
p277
I9497
sS'ACCGAG'
p278
I11560
sS'AAGACC'
p279
I16901
sS'GATTTA'
p280
I14861
sS'AAACAT'
p281
I24227
sS'AAGACG'
p282
I7611
sS'GATCAG'
p283
I14177
sS'TGAGCG'
p284
I13603
sS'CTCGAG'
p285
I10584
sS'TGAGCA'
p286
I29136
sS'TGAGCC'
p287
I36524
sS'AAGACT'
p288
I15567
sS'ACCACG'
p289
I11407
sS'GCGGTA'
p290
I4739
sS'CGTGCA'
p291
I11932
sS'GCGGTG'
p292
I23968
sS'CGGTGT'
p293
I9280
sS'TCGTTA'
p294
I2490
sS'TCGTTC'
p295
I4728
sS'CTTCCC'
p296
I60875
sS'ACTTGT'
p297
I13207
sS'TGTGTG'
p298
I67776
sS'GCGGTT'
p299
I7750
sS'ACTTGC'
p300
I15358
sS'ACCACC'
p301
I26061
sS'ACTTGA'
p302
I14232
sS'CGGTGG'
p303
I23404
sS'TCGTTT'
p304
I5834
sS'CGGTGA'
p305
I11396
sS'CGGTGC'
p306
I17797
sS'TTCCTA'
p307
I18114
sS'TAGACT'
p308
I8678
sS'TTCCTC'
p309
I42771
sS'ACTGAC'
p310
I16110
sS'ATGTGC'
p311
I18314
sS'TTCCTG'
p312
I50729
sS'TCCTTT'
p313
I33458
sS'GACCCA'
p314
I26650
sS'ACGCTA'
p315
I2910
sS'TAGACG'
p316
I3273
sS'TTCCTT'
p317
I37361
sS'TAGACC'
p318
I7424
sS'TAGACA'
p319
I11716
sS'TCCTTG'
p320
I26988
sS'TCCTTA'
p321
I14937
sS'TCCTTC'
p322
I37674
sS'ATCTCT'
p323
I24114
sS'ACCGTT'
p324
I3948
sS'TGGCGC'
p325
I20304
sS'TGGCGA'
p326
I10004
sS'GGCCAT'
p327
I23688
sS'ATCTCG'
p328
I5994
sS'TCGGGA'
p329
I12662
sS'ATCTCC'
p330
I23133
sS'GGCCAA'
p331
I26345
sS'GGCCAC'
p332
I46715
sS'ACCGTG'
p333
I10347
sS'ACCGTA'
p334
I2529
sS'TGGCGT'
p335
I10098
sS'ACCGTC'
p336
I6963
sS'ACCGAC'
p337
I5685
sS'AGAATT'
p338
I19856
sS'GGCAGT'
p339
I30220
sS'CCATAA'
p340
I11071
sS'CAAAGG'
p341
I28734
sS'CCATAC'
p342
I7377
sS'CAAAGA'
p343
I26299
sS'AGATTC'
p344
I15018
sS'CAAAGC'
p345
I28068
sS'CAACGT'
p346
I4916
sS'GGCAGA'
p347
I49588
sS'GGCAGC'
p348
I71609
sS'TAAGTT'
p349
I10090
sS'CGAACA'
p350
I4443
sS'GGCAGG'
p351
I87681
sS'CAACGC'
p352
I6920
sS'CTAACA'
p353
I11810
sS'CAACGA'
p354
I4253
sS'GCACTC'
p355
I21762
sS'CCATAT'
p356
I10614
sS'GCACTG'
p357
I33523
sS'GGGGGT'
p358
I40983
sS'TACGCT'
p359
I2678
sS'GAAACC'
p360
I21779
sS'CGATCT'
p361
I4925
sS'NNNNNC'
p362
I1
sS'CTCTAG'
p363
I16949
sS'CTCTAA'
p364
I15183
sS'CTCTAC'
p365
I13630
sS'GGGGGG'
p366
I45959
sS'CGATCC'
p367
I5740
sS'TACGCC'
p368
I3639
sS'GGGGGC'
p369
I77233
sS'CGATCG'
p370
I2120
sS'GGGGGA'
p371
I50788
sS'TACGCG'
p372
I2399
sS'CTCTAT'
p373
I11317
sS'CAGACC'
p374
I31894
sS'CAGACA'
p375
I38581
sS'CAGACG'
p376
I14163
sS'CGCTAA'
p377
I3695
sS'TAGTTG'
p378
I7841
sS'GCTAAT'
p379
I11987
sS'TAGTTC'
p380
I8369
sS'TAGTTA'
p381
I8078
sS'CAGACT'
p382
I24503
sS'GCTAAG'
p383
I12632
sS'TAGTTT'
p384
I13699
sS'GCTAAC'
p385
I7856
sS'GCTAAA'
p386
I12525
sS'CGTGAT'
p387
I5346
sS'TGCTGC'
p388
I53451
sS'AACCCT'
p389
I19344
sS'AACCCC'
p390
I24150
sS'TGCATG'
p391
I21631
sS'AACCCG'
p392
I10011
sS'TTTCCG'
p393
I9632
sS'TGCATC'
p394
I17950
sS'AGAATA'
p395
I15841
sS'CTACAA'
p396
I11418
sS'ACGTAC'
p397
I2748
sS'AACGTT'
p398
I4304
sS'AGTTTA'
p399
I14011
sS'CCCAGA'
p400
I56837
sS'CCCAGC'
p401
I98413
sS'AGAATC'
p402
I16528
sS'CCCAGG'
p403
I104308
sS'AACTGT'
p404
I16787
sS'AGTTTT'
p405
I22190
sS'CTACAT'
p406
I10512
sS'CCCAGT'
p407
I34761
sS'CGCATA'
p408
I2281
sS'ATACTG'
p409
I10805
sS'CGCATC'
p410
I8134
sS'ATACTA'
p411
I6619
sS'ATACTC'
p412
I7107
sS'CGCATG'
p413
I7890
sS'GCGCAA'
p414
I6389
sS'GCGAAT'
p415
I3458
sS'NNNNNN'
p416
I853
sS'ATACTT'
p417
I10684
sS'CGCATT'
p418
I4891
sS'AGGCCC'
p419
I58932
sS'GCTCCG'
p420
I30599
sS'TATTGT'
p421
I12105
sS'GCTCCC'
p422
I61481
sS'GCTCCA'
p423
I41046
sS'CCTACA'
p424
I13294
sS'TGTACT'
p425
I11306
sS'TTTAGT'
p426
I13855
sS'TATTGG'
p427
I8743
sS'GCTCCT'
p428
I48430
sS'TATTGC'
p429
I9151
sS'TATTGA'
p430
I10268
sS'TTTAGG'
p431
I14597
sS'TGTACG'
p432
I3017
sS'CCTACG'
p433
I5128
sS'TGTACA'
p434
I13375
sS'TTTAGC'
p435
I12314
sS'TGTACC'
p436
I9444
sS'CCTACC'
p437
I16980
sS'TTCGCG'
p438
I4789
sS'TTCGCA'
p439
I4852
sS'TTCGCC'
p440
I8508
sS'CGTACA'
p441
I3234
sS'GACTAA'
p442
I8190
sS'AGTATA'
p443
I7371
sS'TTTGGG'
p444
I28465
sS'AGTATG'
p445
I8394
sS'TTTGGA'
p446
I22700
sS'TTTGGC'
p447
I20355
sS'ACGAAC'
p448
I3386
sS'GATCNN'
p449
I1
sS'TTTGGT'
p450
I17675
sS'GACTAT'
p451
I6300
sS'AGTATT'
p452
I11602
sS'TTACTC'
p453
I11043
sS'TTACTA'
p454
I9394
sS'TTACTG'
p455
I16196
sS'ACCTTG'
p456
I19066
sS'ACCTTC'
p457
I20351
sS'ACCTTA'
p458
I8755
sS'TTACTT'
p459
I16268
sS'ACCTTT'
p460
I16755
sS'ACAGGG'
p461
I38926
sS'CTGGGA'
p462
I66740
sS'CTGGGC'
p463
I85880
sS'ACAGGC'
p464
I37995
sS'TTATAT'
p465
I15291
sS'CTGGGG'
p466
I95273
sS'AGGACG'
p467
I15559
sS'GCAGCT'
p468
I54903
sS'CAGGAA'
p469
I50993
sS'TCGCTT'
p470
I7075
sS'CAGGAG'
p471
I68493
sS'AGGACA'
p472
I33804
sS'GCGCAT'
p473
I7297
sS'TTATAC'
p474
I7699
sS'ACAGGT'
p475
I19750
sS'CTGGGT'
p476
I45050
sS'TTATAG'
p477
I9968
sS'TCGCTG'
p478
I15003
sS'GAGTTG'
p479
I16153
sS'GCAGCG'
p480
I34443
sS'AGGACT'
p481
I24205
sS'GCAGCA'
p482
I53131
sS'GCAGCC'
p483
I76428
sS'CAGGAT'
p484
I26350
sS'CCTCAG'
p485
I55450
sS'CCTCAA'
p486
I20796
sS'CCTCAC'
p487
I37886
sS'TATGTT'
p488
I13493
sS'ATGGGC'
p489
I20890
sS'TCTTTG'
p490
I25505
sS'ATGGGA'
p491
I23556
sS'TCTTTA'
p492
I19054
sS'ATGGGG'
p493
I31819
sS'TCTTTC'
p494
I32346
sS'CCTCAT'
p495
I23491
sS'NNNAGC'
p496
I1
sS'TCTTTT'
p497
I36525
sS'TATGTG'
p498
I14509
sS'TATGTA'
p499
I11428
sS'ATGGGT'
p500
I14038
sS'TATGTC'
p501
I8887
sS'ACCTGG'
p502
I40526
sS'GAAAGA'
p503
I32487
sS'ATCAAG'
p504
I13034
sS'CATGAT'
p505
I12743
sS'TCATGA'
p506
I14354
sS'GAAAGG'
p507
I35834
sS'GTCCAC'
p508
I19398
sS'GTCAGG'
p509
I30657
sS'ACGTGG'
p510
I15261
sS'CATGAG'
p511
I19196
sS'ATCAAT'
p512
I10406
sS'GTCCAA'
p513
I11980
sS'GAAAGT'
p514
I18873
sS'CATGAA'
p515
I18022
sS'GTAGCG'
p516
I4646
sS'CAAGTT'
p517
I14978
sS'GCGGCT'
p518
I29893
sS'GTAGCC'
p519
I11905
sS'GCTTTC'
p520
I26955
sS'AAAGTA'
p521
I16373
sS'GCGGCG'
p522
I52536
sS'CAAGTG'
p523
I20606
sS'GTAGCT'
p524
I12291
sS'GCGGCC'
p525
I50506
sS'CAAGTC'
p526
I17451
sS'GCGGCA'
p527
I21724
sS'TTACAT'
p528
I15770
sS'AACGGT'
p529
I3910
sS'CGTACG'
p530
I1483
sS'TAATCG'
p531
I2198
sS'CTTGTG'
p532
I20294
sS'TAATCA'
p533
I14314
sS'TAATCC'
p534
I11464
sS'TGCGAA'
p535
I4814
sS'CGGCCC'
p536
I49801
sS'CGACTA'
p537
I2091
sS'CGGCCA'
p538
I25318
sS'GATTTG'
p539
I17018
sS'CGGCCG'
p540
I35829
sS'TCGTGA'
p541
I4619
sS'CTTGTA'
p542
I10698
sS'GGTCTG'
p543
I32261
sS'TAATCT'
p544
I14149
sS'TGCGAC'
p545
I5665
sS'GGTCTC'
p546
I27507
sS'CTGAAT'
p547
I20292
sS'GGTCTA'
p548
I7510
sS'AAAATG'
p549
I37590
sS'AAAATC'
p550
I23551
sS'CGGCCT'
p551
I29764
sS'TTCAGC'
p552
I25489
sS'CTAACC'
p553
I9144
sS'TTCAGA'
p554
I26970
sS'TTCAGG'
p555
I27676
sS'GAACAT'
p556
I14174
sS'TCGTCG'
p557
I3509
sS'TGTTTT'
p558
I42715
sS'GAACAA'
p559
I17317
sS'ATCCCG'
p560
I10243
sS'GAACAC'
p561
I16660
sS'ATCCCC'
p562
I24329
sS'GAACAG'
p563
I25725
sS'TTCAGT'
p564
I20854
sS'AACGGA'
p565
I5741
sS'CACCAC'
p566
I32384
sS'NNNCTG'
p567
I1
sS'CACCAA'
p568
I19523
sS'CACCAG'
p569
I42748
sS'TCCGTG'
p570
I12447
sS'ATTGCG'
p571
I3092
sS'TCCGTC'
p572
I9759
sS'GAGTTA'
p573
I10455
sS'TCCGTA'
p574
I3170
sS'ACCAGA'
p575
I25832
sS'CGGCGT'
p576
I10533
sS'ACGCGA'
p577
I3863
sS'CACCAT'
p578
I20500
sS'AACATG'
p579
I17795
sS'AACATA'
p580
I13485
sS'AACATC'
p581
I15251
sS'GTCAGC'
p582
I25140
sS'GCACGG'
p583
I17583
sS'GTCAGA'
p584
I20613
sS'GCACGA'
p585
I6899
sS'CAGTCC'
p586
I29885
sS'GCACGC'
p587
I15569
sS'CAGTCA'
p588
I22993
sS'GCACCA'
p589
I26606
sS'GCAAGC'
p590
I19456
sS'GCACGT'
p591
I10717
sS'CAGTCT'
p592
I24012
sS'TCAGCT'
p593
I32765
sS'GTCAGT'
p594
I15899
sS'TATCTA'
p595
I9925
sS'GTATAC'
p596
I4065
sS'TTCCGT'
p597
I6714
sS'ACGGCT'
p598
I10208
sS'GTATAG'
p599
I4568
sS'CCGGAA'
p600
I13430
sS'CCGGAC'
p601
I14545
sS'CCGGAG'
p602
I29718
sS'TATCAT'
p603
I11211
sS'CTCGTA'
p604
I3195
sS'TTCCGG'
p605
I13474
sS'TTCCGA'
p606
I6434
sS'TTCCGC'
p607
I11798
sS'GTATAT'
p608
I7985
sS'CGTCTC'
p609
I14038
sS'CGTCTA'
p610
I3280
sS'CGTCTG'
p611
I14198
sS'CCGGAT'
p612
I7684
sS'CTCTTC'
p613
I36680
sS'TGTTAT'
p614
I14610
sS'CTCTTA'
p615
I14626
sS'CTCTTG'
p616
I25072
sS'CCCGAT'
p617
I6060
sS'TACGTA'
p618
I2163
sS'TACGTC'
p619
I2575
sS'TCTGGT'
p620
I25712
sS'AACAAA'
p621
I33591
sS'CGCGAT'
p622
I4031
sS'TACGTG'
p623
I4729
sS'TGTTAG'
p624
I11668
sS'GGTTTC'
p625
I21428
sS'CTCGTG'
p626
I10216
sS'CTCTTT'
p627
I32096
sS'TGTTAA'
p628
I16015
sS'TCTGGG'
p629
I56714
sS'CGCGAC'
p630
I7429
sS'GATATT'
p631
I11343
sS'TCTGGC'
p632
I40886
sS'TACGTT'
p633
I2772
sS'TCTGGA'
p634
I36912
sS'AGTCGT'
p635
I4077
sS'GGTACT'
p636
I8240
sS'TTACCT'
p637
I13526
sS'CTCCAT'
p638
I27398
sS'ACTAGA'
p639
I10282
sS'TTACCG'
p640
I3514
sS'CTCCAC'
p641
I41009
sS'CTCCAA'
p642
I26690
sS'TTACCC'
p643
I11399
sS'CTCCAG'
p644
I68369
sS'TTACCA'
p645
I12553
sS'AGTCGC'
p646
I7661
sS'CTCCAN'
p647
I1
sS'GTACCG'
p648
I3479
sS'CCGACT'
p649
I9006
sS'GCCTAC'
p650
I10496
sS'GCCTAA'
p651
I10180
sS'CCGAGG'
p652
I33536
sS'GCCTAG'
p653
I15783
sS'CCGACA'
p654
I8280
sS'CCCTGT'
p655
I38822
sS'CCGACC'
p656
I14563
sS'CCGACG'
p657
I7779
sS'AACTCA'
p658
I17556
sS'GCCTAT'
p659
I8193
sS'AAGCTA'
p660
I11857
sS'CCCGAG'
p661
I30492
sS'AAGCTG'
p662
I33636
sS'TCAGCG'
p663
I13920
sS'CTAAGT'
p664
I10598
sS'GCTGTC'
p665
I32941
sS'CGCACA'
p666
I14046
sS'ATACAC'
p667
I11016
sS'CGCACC'
p668
I17549
sS'GGGTCG'
p669
I15103
sS'ACTGCT'
p670
I25418
sS'ATACAG'
p671
I13756
sS'CGCACG'
p672
I11022
sS'GGGTCC'
p673
I39320
sS'GAGCGT'
p674
I9295
sS'CTCACT'
p675
I29920
sS'GGCATA'
p676
I8881
sS'GGGTCT'
p677
I30998
sS'ACTGCA'
p678
I28652
sS'TTTGTC'
p679
I19896
sS'ACTGCC'
p680
I30092
sS'CGCACT'
p681
I9903
sS'TTTGTG'
p682
I25526
sS'ACTGCG'
p683
I11606
sS'CTCACC'
p684
I38164
sS'CTCACA'
p685
I29829
sS'CTCACG'
p686
I12770
sS'TAGTGG'
p687
I11587
sS'GTGAGG'
p688
I37396
sS'GATTTT'
p689
I23310
sS'ACAATT'
p690
I14667
sS'GTGAGC'
p691
I28226
sS'TAGTGA'
p692
I10627
sS'GTGAGA'
p693
I22991
sS'TCGACG'
p694
I2470
sS'TCGACA'
p695
I2971
sS'TCGACC'
p696
I4533
sS'ACAATA'
p697
I12215
sS'GTGAGT'
p698
I20883
sS'GTGGGG'
p699
I71644
sS'GTGGGA'
p700
I39152
sS'GTGGGC'
p701
I43875
sS'TCGACT'
p702
I3419
sS'GTGGGN'
p703
I1
sS'ACGTAA'
p704
I3149
sS'CTGGTT'
p705
I25233
sS'TGCAAA'
p706
I26521
sS'CGAACG'
p707
I3059
sS'CGAACC'
p708
I5776
sS'ACTTGG'
p709
I20569
sS'CTGGTG'
p710
I42361
sS'CTGGTA'
p711
I13861
sS'CTGGTC'
p712
I28408
sS'CTGCAA'
p713
I28176
sS'CGAACT'
p714
I4748
sS'CGCTGA'
p715
I13805
sS'TTGCAT'
p716
I16064
sS'GACGAG'
p717
I9681
sS'NNGAAT'
p718
I1
sS'GCGGAA'
p719
I11875
sS'CGTCTT'
p720
I7555
sS'TTGCAG'
p721
I28331
sS'ACTCCT'
p722
I24438
sS'TTGCAC'
p723
I13792
sS'TTGCAA'
p724
I16687
sS'AAGATC'
p725
I12041
sS'TCCATC'
p726
I23500
sS'TCGCAT'
p727
I3449
sS'GAGCGG'
p728
I27208
sS'GTCGTG'
p729
I6309
sS'GTCGTA'
p730
I2075
sS'GTCGTC'
p731
I5764
sS'CCGTTT'
p732
I7881
sS'GAGCAA'
p733
I21037
sS'GTCGTT'
p734
I3737
sS'TCGCAG'
p735
I12332
sS'CGAATT'
p736
I3264
sS'CCAAGC'
p737
I30133
sS'TCGCAC'
p738
I6160
sS'CCGTTG'
p739
I6107
sS'CCGTTA'
p740
I3164
sS'CCGTTC'
p741
I8090
sS'GATCGG'
p742
I4768
sS'AATGCT'
p743
I19052
sS'GGTACG'
p744
I3329
sS'GGTACA'
p745
I9395
sS'GGTACC'
p746
I9376
sS'TATTTG'
p747
I18965
sS'CCAGTT'
p748
I20979
sS'TATTTC'
p749
I21648
sS'TATTTA'
p750
I24650
sS'CCCCCT'
p751
I51460
sS'GCCACT'
p752
I30363
sS'AATGCG'
p753
I4968
sS'AATCTT'
p754
I15607
sS'AATGCC'
p755
I17906
sS'AATGCA'
p756
I22223
sS'CCCCCC'
p757
I45857
sS'CCCCCA'
p758
I70643
sS'TATTTT'
p759
I39836
sS'CCCCCG'
p760
I46785
sS'CTTGAG'
p761
I20857
sS'ATGATG'
p762
I16317
sS'ATGATA'
p763
I11192
sS'GCGTTA'
p764
I3008
sS'CTTGAA'
p765
I18346
sS'CGGACT'
p766
I8336
sS'TGCAAC'
p767
I13232
sS'TTGAGT'
p768
I13604
sS'TGCAAG'
p769
I20481
sS'GCCGTC'
p770
I14952
sS'ATGATT'
p771
I15508
sS'CTTGAT'
p772
I12991
sS'ACGGGA'
p773
I11060
sS'CGAATC'
p774
I3750
sS'TTGAGG'
p775
I20674
sS'AATCTC'
p776
I16406
sS'CAATGT'
p777
I12762
sS'TTGAGC'
p778
I15657
sS'TTGAGA'
p779
I18986
sS'GAGAAT'
p780
I18967
sS'TGTCTT'
p781
I24005
sS'CGAATA'
p782
I2080
sS'AGTAGC'
p783
I11687
sS'AAGGCC'
p784
I32530
sS'TATCGA'
p785
I1502
sS'AAGGCA'
p786
I31707
sS'ATAACA'
p787
I14754
sS'AAGGCG'
p788
I15189
sS'ATAACG'
p789
I2695
sS'TGTGGT'
p790
I23779
sS'TGTCTG'
p791
I38420
sS'ACGTAG'
p792
I3774
sS'GAGAAA'
p793
I40235
sS'TGTCTC'
p794
I29263
sS'GAGAAC'
p795
I20478
sS'TGTCTA'
p796
I11653
sS'TGTGGC'
p797
I36459
sS'TGTGGA'
p798
I27797
sS'TGTGGG'
p799
I44830
sS'ATAACT'
p800
I10871
sS'AAGGCT'
p801
I27304
sS'CTGTAA'
p802
I20213
sS'GCCCCG'
p803
I63207
sS'ACCAAG'
p804
I19054
sS'GAGCAT'
p805
I16317
sS'GCCCCC'
p806
I77128
sS'GGTCAA'
p807
I10942
sS'CGTGCT'
p808
I12020
sS'GGTCAC'
p809
I22660
sS'GATCGC'
p810
I5463
sS'GGTCAT'
p811
I13092
sS'CGTGCC'
p812
I15663
sS'AGGTAG'
p813
I14187
sS'AGGTAA'
p814
I13130
sS'CAAACT'
p815
I17855
sS'TTTTGC'
p816
I22291
sS'TCTTAC'
p817
I10579
sS'AATTGG'
p818
I12675
sS'TCTTAA'
p819
I15758
sS'AATTGA'
p820
I14292
sS'TCTTAG'
p821
I12421
sS'AATTGC'
p822
I13098
sS'TAGCCA'
p823
I14208
sS'TGGGGT'
p824
I39875
sS'CGCTCG'
p825
I13332
sS'GATAAT'
p826
I13507
sS'GAGAAG'
p827
I41431
sS'TAGCCG'
p828
I5412
sS'AATTGT'
p829
I14393
sS'CGAGAG'
p830
I14435
sS'GCCATC'
p831
I24075
sS'TCTTAT'
p832
I13897
sS'TTTTGT'
p833
I31399
sS'CGCTCT'
p834
I16680
sS'TGGGGG'
p835
I70828
sS'GATAAC'
p836
I8743
sS'TAGCCT'
p837
I13117
sS'TGGGGC'
p838
I64328
sS'GATAAG'
p839
I13066
sS'CTCTCA'
p840
I30352
sS'GATCCT'
p841
I15804
sS'AAGAAT'
p842
I19450
sS'CGAAGT'
p843
I5454
sS'GTTATC'
p844
I8644
sS'AAGAAC'
p845
I17717
sS'GATCCA'
p846
I13526
sS'AAGAAA'
p847
I44548
sS'ATGCCA'
p848
I21841
sS'AAGAAG'
p849
I29393
sS'GATCCG'
p850
I7173
sS'NGATCT'
p851
I2
sS'GCCCCA'
p852
I64280
sS'ATGCCG'
p853
I6951
sS'CAAGGG'
p854
I29273
sS'CAAGGC'
p855
I31482
sS'GGTTCT'
p856
I19901
sS'CAAGGA'
p857
I27326
sS'GGTTCA'
p858
I14333
sS'TGACCT'
p859
I25272
sS'CAAGGT'
p860
I19006
sS'TGCATT'
p861
I22209
sS'AACCTT'
p862
I14048
sS'TAGGCA'
p863
I13825
sS'ATTATA'
p864
I14747
sS'ATTATC'
p865
I13306
sS'TAGAAT'
p866
I13030
sS'CAAACG'
p867
I6652
sS'ATTATG'
p868
I13278
sS'CCAGCA'
p869
I58181
sS'TAGAAA'
p870
I23445
sS'TAGAAC'
p871
I9221
sS'ATTATT'
p872
I23051
sS'TAGAAG'
p873
I15079
sS'AGTCTA'
p874
I8610
sS'AGTCTC'
p875
I21178
sS'AGTCTG'
p876
I24478
sS'TAACTC'
p877
I10434
sS'TAACTA'
p878
I8260
sS'TAACTG'
p879
I13433
sS'ATCTAT'
p880
I10066
sS'ACGCGT'
p881
I3915
sS'AGGTAT'
p882
I7994
sS'TAACTT'
p883
I12322
sS'ATCTAG'
p884
I9428
sS'ATCTAC'
p885
I8440
sS'ATCTAA'
p886
I12014
sS'GGTCAG'
p887
I31300
sS'CCATGT'
p888
I21289
sS'ACCAAA'
p889
I17449
sS'TGGAGG'
p890
I55657
sS'TGGAGA'
p891
I41008
sS'TGGAGC'
p892
I40726
sS'CCATGC'
p893
I23650
sS'TCCAGA'
p894
I36853
sS'CCATGA'
p895
I18442
sS'CCATGG'
p896
I29950
sS'TGGAGT'
p897
I25518
sS'ATTACG'
p898
I2348
sS'TCAGTA'
p899
I12709
sS'TCAGTC'
p900
I18585
sS'CTCTCT'
p901
I51676
sS'GGGGAT'
p902
I24086
sS'TCAGTG'
p903
I27236
sS'CGATAT'
p904
I1557
sS'GGGGAA'
p905
I44724
sS'GGGGAC'
p906
I45405
sS'CTCTCC'
p907
I61654
sS'TCAGTT'
p908
I19884
sS'GGGGAG'
p909
I85607
sS'CGATAG'
p910
I1950
sS'CGATAA'
p911
I2308
sS'TATCAA'
p912
I10161
sS'CTAAGG'
p913
I13842
sS'GTGTTT'
p914
I24919
sS'ATAACC'
p915
I8633
sS'GCTACT'
p916
I11709
sS'GTGGTT'
p917
I17457
sS'GTGTTC'
p918
I16456
sS'GTGTTA'
p919
I9856
sS'GTGTTG'
p920
I16263
sS'ACCAAT'
p921
I9651
sS'GTGGTA'
p922
I9828
sS'GCTACA'
p923
I12032
sS'GTGGTC'
p924
I18549
sS'CTAAGC'
p925
I12098
sS'GTGGTG'
p926
I32685
sS'GCTACG'
p927
I4800
sS'GCCCCT'
p928
I62947
sS'TTTCGT'
p929
I4481
sS'GATCGT'
p930
I2918
sS'TGCCCT'
p931
I47577
sS'AGCGTT'
p932
I6302
sS'CGTGCG'
p933
I10606
sS'TTTCGA'
p934
I3494
sS'TGCCCA'
p935
I46276
sS'TGCCCG'
p936
I25327
sS'ACAGTG'
p937
I27935
sS'AGCGTA'
p938
I2862
sS'AGCGTC'
p939
I10614
sS'AGCGTG'
p940
I13144
sS'GGCCCC'
p941
I79839
sS'GGCCCA'
p942
I51734
sS'CACGTG'
p943
I18693
sS'GGCCCG'
p944
I43096
sS'CACGTA'
p945
I4779
sS'CACGTC'
p946
I10530
sS'ACGTGC'
p947
I10639
sS'ACGTGA'
p948
I8046
sS'CTACGG'
p949
I5020
sS'ACAGTC'
p950
I17363
sS'CACGTT'
p951
I7880
sS'TTCACG'
p952
I6756
sS'GGCCCT'
p953
I55153
sS'GGGACA'
p954
I37805
sS'TTTTGG'
p955
I21820
sS'GGGACC'
p956
I40425
sS'AGGGAC'
p957
I34755
sS'GTCTCA'
p958
I19807
sS'ACGTGT'
p959
I7886
sS'AGAGAG'
p960
I51618
sS'AGAGAA'
p961
I41565
sS'AGAGAC'
p962
I28397
sS'TCTATA'
p963
I8685
sS'GTCTTT'
p964
I19691
sS'TCTATC'
p965
I9378
sS'TCTATG'
p966
I10361
sS'AGAGAT'
p967
I23861
sS'TTCACA'
p968
I23282
sS'GTCTTG'
p969
I16007
sS'TCTATT'
p970
I14641
sS'GTCTTC'
p971
I19322
sS'GTCTTA'
p972
I8754
sS'GCAGAG'
p973
I62624
sS'TGCCCC'
p974
I53571
sS'GCTCAC'
p975
I28868
sS'GCAGAC'
p976
I28384
sS'GCAGAA'
p977
I34439
sS'GCTCAG'
p978
I47732
sS'AGACGT'
p979
I6601
sS'ATGCGT'
p980
I4407
sS'TTGCTG'
p981
I31266
sS'CTTGAC'
p982
I13034
sS'TTGCTA'
p983
I12717
sS'CGCTCA'
p984
I13531
sS'GCAGAT'
p985
I24830
sS'GCTCAT'
p986
I17331
sS'GTTTGC'
p987
I17099
sS'TTGCTT'
p988
I24681
sS'ATGCGG'
p989
I8030
sS'CGCTCC'
p990
I30572
sS'ATGCGC'
p991
I7301
sS'ATGCGA'
p992
I3326
sS'TGTAAG'
p993
I12289
sS'GGCTAG'
p994
I13703
sS'TGTAAC'
p995
I10183
sS'GGCTAC'
p996
I12099
sS'GACTGT'
p997
I17421
sS'CTGAAA'
p998
I30826
sS'TTCGAG'
p999
I6170
sS'TTGGTA'
p1000
I9000
sS'ACTGTC'
p1001
I18385
sS'TTGGTC'
p1002
I12940
sS'TTCGAC'
p1003
I2722
sS'ACTGTG'
p1004
I26917
sS'TTGGTG'
p1005
I19755
sS'GACTGC'
p1006
I22073
sS'GGCTAT'
p1007
I9137
sS'GACTGA'
p1008
I18505
sS'GACTGG'
p1009
I26947
sS'TTCGAT'
p1010
I2445
sS'TTGGTT'
p1011
I16502
sS'ACTGTT'
p1012
I16797
sS'GTTTCT'
p1013
I28498
sS'ATAATT'
p1014
I21637
sS'CCTTTT'
p1015
I30189
sS'GTTTCG'
p1016
I4599
sS'ATAGAC'
p1017
I7145
sS'GTTTCC'
p1018
I28616
sS'GTTTCA'
p1019
I18478
sS'ATAATG'
p1020
I15409
sS'CCTTTA'
p1021
I16310
sS'CCTTTC'
p1022
I35006
sS'ATAATC'
p1023
I10920
sS'NNNNGA'
p1024
I3
sS'ATAATA'
p1025
I17129
sS'CCTTTG'
p1026
I28000
sS'ACAGAA'
p1027
I32874
sS'CTCTCG'
p1028
I14513
sS'ACAGAC'
p1029
I25878
sS'ACAGAG'
p1030
I41968
sS'TTATCT'
p1031
I23739
sS'CTGGAC'
p1032
I33120
sS'CTGGAA'
p1033
I42903
sS'CTGGAG'
p1034
I68355
sS'ACAGAT'
p1035
I24974
sS'CAAAGT'
p1036
I20184
sS'TGGGGA'
p1037
I60017
sS'TTATCA'
p1038
I16514
sS'CTGGAT'
p1039
I24480
sS'TTATCC'
p1040
I11205
sS'CCAATG'
p1041
I13311
sS'AAACCG'
p1042
I6838
sS'ATTTGT'
p1043
I21492
sS'CCAATC'
p1044
I12755
sS'AAACCC'
p1045
I22277
sS'CCAATA'
p1046
I8806
sS'TGTCGG'
p1047
I8335
sS'GAGATC'
p1048
I14699
sS'CCCTAT'
p1049
I9446
sS'GAGATA'
p1050
I14495
sS'TGTCGC'
p1051
I7879
sS'GAGATG'
p1052
I27926
sS'TGTCGA'
p1053
I3097
sS'AAACCT'
p1054
I19718
sS'CCAATT'
p1055
I12743
sS'CTAGTT'
p1056
I9052
sS'TTGCCC'
p1057
I24179
sS'ATTTGG'
p1058
I19774
sS'CCCTAG'
p1059
I18784
sS'TGTCGT'
p1060
I4708
sS'CCCTAC'
p1061
I15801
sS'GAGATT'
p1062
I16248
sS'CCCTAA'
p1063
I14753
sS'CATTAT'
p1064
I15175
sS'TGTTTG'
p1065
I25923
sS'TGGATT'
p1066
I18049
sS'ATCACA'
p1067
I19250
sS'ATCACC'
p1068
I15324
sS'CATGCT'
p1069
I21379
sS'TGACAC'
p1070
I17625
sS'ATCACG'
p1071
I5348
sS'TGGATA'
p1072
I11088
sS'AGGAAC'
p1073
I23240
sS'CATTAG'
p1074
I12824
sS'CATTAA'
p1075
I16822
sS'TGGATG'
p1076
I23855
sS'CATGCA'
p1077
I21976
sS'TGACAT'
p1078
I18057
sS'CATGCC'
p1079
I23044
sS'ATCACT'
p1080
I16299
sS'AATTAG'
p1081
I16429
sS'GTAGAA'
p1082
I11889
sS'GTAGAC'
p1083
I7102
sS'GTAGAG'
p1084
I13470
sS'GATTGG'
p1085
I12629
sS'ACAACC'
p1086
I12827
sS'GATTGC'
p1087
I9563
sS'GATTGA'
p1088
I9033
sS'ACTAAG'
p1089
I9397
sS'GTAGAT'
p1090
I8352
sS'TGCTAC'
p1091
I10794
sS'TTGCCT'
p1092
I25041
sS'TGATGC'
p1093
I16229
sS'GATCAA'
p1094
I8792
sS'ACAACT'
p1095
I12692
sS'GCGCGT'
p1096
I11276
sS'TAATAG'
p1097
I10376
sS'GTCCGG'
p1098
I14521
sS'TAATAC'
p1099
I8335
sS'GTCCGA'
p1100
I6144
sS'TAATAA'
p1101
I20540
sS'GTCCGC'
p1102
I13374
sS'TGCCAT'
p1103
I22626
sS'GATCCC'
p1104
I18432
sS'CACATC'
p1105
I21159
sS'GTCCGT'
p1106
I6494
sS'TAATAT'
p1107
I14570
sS'GGGNCC'
p1108
I1
sS'ATTCGC'
p1109
I3465
sS'TTCTCC'
p1110
I40988
sS'TGAACT'
p1111
I16714
sS'TTCTCA'
p1112
I29198
sS'ATTCGG'
p1113
I4173
sS'TTCTCG'
p1114
I9048
sS'TCGTAC'
p1115
I1896
sS'TACCTT'
p1116
I11016
sS'TCGTAA'
p1117
I2310
sS'TCGTAG'
p1118
I3235
sS'TCGTCA'
p1119
I4394
sS'GAACCT'
p1120
I15913
sS'ATCCAA'
p1121
I13289
sS'ATCCAC'
p1122
I15434
sS'TGAACC'
p1123
I14392
sS'TTCTCT'
p1124
I41165
sS'ATCCAG'
p1125
I24096
sS'GAACCC'
p1126
I21105
sS'TACCTG'
p1127
I15181
sS'TACCTA'
p1128
I6776
sS'TACCTC'
p1129
I12058
sS'TCGTAT'
p1130
I1920
sS'ATGTTA'
p1131
I13199
sS'ACCATA'
p1132
I8498
sS'ACCATG'
p1133
I17272
sS'ATGTTG'
p1134
I14785
sS'AGCTCT'
p1135
I35672
sS'TGTCCT'
p1136
I33322
sS'AGTGGT'
p1137
I17587
sS'CGTGGT'
p1138
I11177
sS'TGATGT'
p1139
I17480
sS'ATGTTT'
p1140
I24010
sS'ACCATT'
p1141
I12858
sS'AGTGGA'
p1142
I23618
sS'AGTGGC'
p1143
I30169
sS'AGCTCC'
p1144
I45999
sS'AGTGGG'
p1145
I38145
sS'TCCATG'
p1146
I21667
sS'CAGTAA'
p1147
I16093
sS'CAGTAC'
p1148
I10241
sS'CAGTAG'
p1149
I14463
sS'CGCGGT'
p1150
I12026
sS'TTTCAC'
p1151
I21405
sS'CAGTAT'
p1152
I10804
sS'GTTCCT'
p1153
I23109
sS'TGCCAG'
p1154
I47906
sS'CCGGCT'
p1155
I29944
sS'GATCTA'
p1156
I6732
sS'GATCTC'
p1157
I14717
sS'ATTGAC'
p1158
I7602
sS'GATCTG'
p1159
I19887
sS'TTTCAG'
p1160
I30888
sS'CCGGCC'
p1161
I53507
sS'ATTAGG'
p1162
I11484
sS'AAAGTT'
p1163
I17406
sS'CACATT'
p1164
I21409
sS'ATTAGC'
p1165
I11882
sS'TCCCTC'
p1166
I56832
sS'TGTCCG'
p1167
I9773
sS'TCCCTA'
p1168
I16659
sS'TGCCAC'
p1169
I30439
sS'TCCCTG'
p1170
I63964
sS'GATCTT'
p1171
I12144
sS'AAGTGA'
p1172
I22750
sS'AAGTGC'
p1173
I20624
sS'TGTTCT'
p1174
I26395
sS'AAGTGG'
p1175
I24759
sS'TGATTG'
p1176
I13206
sS'TCTGAT'
p1177
I20199
sS'TGATTA'
p1178
I14163
sS'TGTTCA'
p1179
I19122
sS'CACAAG'
p1180
I20598
sS'TGTTCC'
p1181
I23562
sS'AAGTGT'
p1182
I16636
sS'CACAAC'
p1183
I14521
sS'TGTTCG'
p1184
I4295
sS'TCTGAA'
p1185
I26847
sS'TCTGAC'
p1186
I20608
sS'TCCANT'
p1187
I1
sS'TCTGAG'
p1188
I35939
sS'CGCGCC'
p1189
I37716
sS'CGCGCA'
p1190
I15618
sS'GGTAAA'
p1191
I11940
sS'CGCGCG'
p1192
I30540
sS'CTCCCT'
p1193
I71333
sS'AGCGGG'
p1194
I28020
sS'GTGCGT'
p1195
I9675
sS'ACCTCT'
p1196
I24598
sS'AGATGA'
p1197
I24645
sS'GACGTG'
p1198
I10802
sS'CGCGCT'
p1199
I18563
sS'GTGCGA'
p1200
I6109
sS'ACCTCA'
p1201
I23161
sS'CTCCCA'
p1202
I60696
sS'GTGCGG'
p1203
I18986
sS'GCCTCT'
p1204
I48461
sS'TAAGCC'
p1205
I12340
sS'TAGCTC'
p1206
I12629
sS'TAAGCA'
p1207
I15162
sS'CGGGAA'
p1208
I19244
sS'TAATTT'
p1209
I28440
sS'TAGCTG'
p1210
I17533
sS'CCCATC'
p1211
I32513
sS'CCGAGA'
p1212
I15428
sS'CCTGCT'
p1213
I59719
sS'CCGAAT'
p1214
I4193
sS'CCCATT'
p1215
I21439
sS'CGGGAT'
p1216
I10244
sS'GCCTCG'
p1217
I27544
sS'TAGCTT'
p1218
I11763
sS'TAAGCT'
p1219
I10955
sS'GCCTCC'
p1220
I74784
sS'CCGAAC'
p1221
I5992
sS'CCTGCG'
p1222
I31754
sS'CCGAAA'
p1223
I6499
sS'CCGAAG'
p1224
I11552
sS'CCTGCC'
p1225
I88345
sS'CCTGCA'
p1226
I55401
sS'GTACTG'
p1227
I10133
sS'CCATTC'
p1228
I18874
sS'TATAAG'
p1229
I7948
sS'TATAAA'
p1230
I19934
sS'TATAAC'
p1231
I6834
sS'TAACGA'
p1232
I2579
sS'CATTTC'
p1233
I29203
sS'GGTTCG'
p1234
I5806
sS'TATAAT'
p1235
I14790
sS'GTTCTA'
p1236
I9418
sS'CCATTT'
p1237
I26852
sS'TCTACA'
p1238
I13004
sS'TCTACC'
p1239
I11865
sS'CTAACT'
p1240
I9811
sS'TCTACG'
p1241
I3649
sS'ACTTTC'
p1242
I18984
sS'CGCAAC'
p1243
I5236
sS'ACTCCA'
p1244
I25460
sS'CGCAAA'
p1245
I6011
sS'ATACCG'
p1246
I2147
sS'CGCAAG'
p1247
I7996
sS'ATACCA'
p1248
I9592
sS'ATACCC'
p1249
I7683
sS'TCTACT'
p1250
I12662
sS'CCGAGT'
p1251
I11781
sS'ATACCT'
p1252
I8056
sS'CGCAAT'
p1253
I3069
sS'TAGTAA'
p1254
I9603
sS'TGGGTG'
p1255
I43349
sS'TAGTAC'
p1256
I4601
sS'CTCAAG'
p1257
I21062
sS'CTCAAA'
p1258
I22624
sS'TAGTAG'
p1259
I6985
sS'CTCAAC'
p1260
I13899
sS'GTGTGC'
p1261
I28171
sS'GTGTGA'
p1262
I22190
sS'GTGTGG'
p1263
I35825
sS'TAACGG'
p1264
I3245
sS'CTCAAT'
p1265
I12325
sS'TAGTAT'
p1266
I6651
sS'CTCCCG'
p1267
I40014
sS'GTGTGT'
p1268
I55363
sS'ATCTTT'
p1269
I21340
sS'GTTGGG'
p1270
I23959
sS'GTTGGA'
p1271
I14424
sS'GTTGGC'
p1272
I16788
sS'CCTTGG'
p1273
I37782
sS'CCTTGA'
p1274
I19896
sS'GCGTAT'
p1275
I2166
sS'AGGATT'
p1276
I17188
sS'GACCTA'
p1277
I8220
sS'GTTGGT'
p1278
I11887
sS'ATCTTG'
p1279
I15518
sS'ATCTTA'
p1280
I11519
sS'ATCTTC'
p1281
I17254
sS'CCTTGT'
p1282
I21269
sS'AGGATA'
p1283
I11756
sS'AGGATG'
p1284
I28788
sS'GACATG'
p1285
I16045
sS'ATCAGG'
p1286
I18673
sS'TTGCGT'
p1287
I4255
sS'GACATA'
p1288
I8982
sS'TCGGCG'
p1289
I11586
sS'GAATAT'
p1290
I11840
sS'TCGGCC'
p1291
I20265
sS'ATCAGA'
p1292
I20524
sS'TTGCGA'
p1293
I3399
sS'GACATT'
p1294
I15363
sS'TTGCGG'
p1295
I8144
sS'GAATAG'
p1296
I9399
sS'TCGGCT'
p1297
I12622
sS'ATCAGC'
p1298
I18881
sS'GAATAC'
p1299
I7791
sS'GAATAA'
p1300
I16016
sS'ACTTTT'
p1301
I21839
sS'ATACAA'
p1302
I12975
sS'GGACGA'
p1303
I9101
sS'TGCCTC'
p1304
I42994
sS'TTATAA'
p1305
I16838
sS'GAAATG'
p1306
I29499
sS'AATGAT'
p1307
I16602
sS'GAAATA'
p1308
I21417
sS'GAAATC'
p1309
I17951
sS'GAAATT'
p1310
I20344
sS'AATGAA'
p1311
I28804
sS'ATGTCC'
p1312
I16610
sS'AATGAC'
p1313
I16253
sS'AATGAG'
p1314
I23406
sS'TCATTG'
p1315
I14980
sS'AGGAAA'
p1316
I48303
sS'ATGGTA'
p1317
I9236
sS'CTTGGA'
p1318
I24474
sS'CTTGGC'
p1319
I33865
sS'GTCCTT'
p1320
I20423
sS'CTTGGG'
p1321
I36069
sS'AGCCCT'
p1322
I47644
sS'GGGAAT'
p1323
I19813
sS'TTGAAT'
p1324
I16537
sS'GTCCTA'
p1325
I9579
sS'CAAGCT'
p1326
I21286
sS'TGCACG'
p1327
I11924
sS'CTTGGT'
p1328
I19036
sS'GTCCTG'
p1329
I39439
sS'TGCACC'
p1330
I25178
sS'TTGAAA'
p1331
I25110
sS'TTGAAC'
p1332
I11484
sS'AGCCCA'
p1333
I47896
sS'TTGAAG'
p1334
I17403
sS'TTAACT'
p1335
I14195
sS'ATAAAT'
p1336
I27612
sS'TGGTCG'
p1337
I6206
sS'TGGTCA'
p1338
I19615
sS'TGGTCC'
p1339
I22567
sS'ACGATT'
p1340
I2917
sS'GAGACT'
p1341
I20828
sS'GATTCA'
p1342
I13764
sS'TGGTCT'
p1343
I22565
sS'ATAAAG'
p1344
I18958
sS'ATAAAA'
p1345
I33800
sS'TCAGCC'
p1346
I41776
sS'ATAAAC'
p1347
I15547
sS'GAGACG'
p1348
I13872
sS'ACGATG'
p1349
I5226
sS'CTACAG'
p1350
I17168
sS'GAGACC'
p1351
I27348
sS'ACGATC'
p1352
I2914
sS'GAGACA'
p1353
I29453
sS'ACGATA'
p1354
I1814
sS'GGTTAC'
p1355
I7648
sS'ATGTGT'
p1356
I22095
sS'GGTTAA'
p1357
I10601
sS'GACGTC'
p1358
I8114
sS'GGTTAG'
p1359
I9451
sS'CTTCCT'
p1360
I56879
sS'GAATGT'
p1361
I15655
sS'GAGGAC'
p1362
I31191
sS'CGTGAA'
p1363
I6779
sS'CTCAGT'
p1364
I27525
sS'TCCGCT'
p1365
I13075
sS'CTTCCA'
p1366
I35529
sS'ATGTGG'
p1367
I23819
sS'ATGTGA'
p1368
I19388
sS'CGTATG'
p1369
I2415
sS'CTTCCG'
p1370
I15547
sS'GGTTAT'
p1371
I8688
sS'TCCGCC'
p1372
I25920
sS'TCCGCA'
p1373
I12436
sS'TCCGCG'
p1374
I16037
sS'AACGTC'
p1375
I4791
sS'AACGTA'
p1376
I2771
sS'AACGTG'
p1377
I7603
sS'CGTGAC'
p1378
I8650
sS'GGTAGC'
p1379
I10925
sS'AGTGTG'
p1380
I25658
sS'TCTTCG'
p1381
I7095
sS'AGTGTA'
p1382
I9841
sS'TCTTCA'
p1383
I23904
sS'AGTGTC'
p1384
I18358
sS'TCTTCC'
p1385
I39706
sS'TAAGTG'
p1386
I14771
sS'ACTCAA'
p1387
I13867
sS'TAAGTC'
p1388
I8508
sS'TAAGTA'
p1389
I10298
sS'CCGTGA'
p1390
I10526
sS'TCTTCT'
p1391
I32020
sS'AGTGTT'
p1392
I17418
sS'AACCGG'
p1393
I7326
sS'GTGCGC'
p1394
I16802
sS'TTGGCA'
p1395
I22766
sS'AAAGGT'
p1396
I17045
sS'TTGGCC'
p1397
I26277
sS'AGTAAC'
p1398
I9915
sS'CTTATT'
p1399
I15503
sS'TTGGCG'
p1400
I9341
sS'GACTTC'
p1401
I17879
sS'TCGAGT'
p1402
I4435
sS'GACTTA'
p1403
I8750
sS'GACTTG'
p1404
I17096
sS'AAAGGG'
p1405
I31974
sS'AAAGGA'
p1406
I33768
sS'TTGGCT'
p1407
I25785
sS'AAAGGC'
p1408
I28944
sS'GAGTAC'
p1409
I7081
sS'GTATGG'
p1410
I7278
sS'GTCGAT'
p1411
I2294
sS'GACTTT'
p1412
I16769
sS'TTCTTT'
p1413
I40439
sS'CAAGAA'
p1414
I22603
sS'AGCGAG'
p1415
I16874
sS'CAAGAC'
p1416
I16372
sS'CAAGAG'
p1417
I25315
sS'CGTATT'
p1418
I2911
sS'TTCTTG'
p1419
I22680
sS'TTCTTC'
p1420
I29544
sS'TTCTTA'
p1421
I17757
sS'TAAACG'
p1422
I3934
sS'CAAGAT'
p1423
I15631
sS'AGGGCT'
p1424
I48132
sS'TACGGG'
p1425
I4387
sS'TACGGA'
p1426
I3195
sS'TACGGC'
p1427
I3910
sS'CCAACT'
p1428
I17073
sS'TAGAGT'
p1429
I9781
sS'TACGGT'
p1430
I2527
sS'AGGGCG'
p1431
I30557
sS'AGGGCA'
p1432
I47447
sS'AGGGCC'
p1433
I54812
sS'TCGAGA'
p1434
I5581
sS'TAGAGC'
p1435
I12865
sS'TAGAGA'
p1436
I17467
sS'TAGAGG'
p1437
I16749
sS'AGTAAT'
p1438
I12995
sS'GTGCTG'
p1439
I43607
sS'GTGCTA'
p1440
I10236
sS'ATCTGT'
p1441
I24993
sS'GTGCTC'
p1442
I24671
sS'CAATTC'
p1443
I12379
sS'ATCTGA'
p1444
I20260
sS'GTGCTT'
p1445
I20758
sS'ATCTGC'
p1446
I25287
sS'TCGAGG'
p1447
I10197
sS'CGAATG'
p1448
I4422
sS'ATCTGG'
p1449
I28465
sS'ATCATA'
p1450
I10055
sS'GATAGC'
p1451
I7199
sS'AAGCAG'
p1452
I39815
sS'GATAGA'
p1453
I9550
sS'AAGCAA'
p1454
I25170
sS'GATAGG'
p1455
I8901
sS'AAGCAC'
p1456
I20850
sS'TTTACC'
p1457
I12197
sS'GTTATG'
p1458
I7738
sS'CTAGGT'
p1459
I10525
sS'CATTTA'
p1460
I23402
sS'ACGCAT'
p1461
I4439
sS'CATTTG'
p1462
I24096
sS'GTTATA'
p1463
I6977
sS'CAAACA'
p1464
I26162
sS'AAGCAT'
p1465
I17675
sS'CAAACC'
p1466
I19065
sS'GTGGCC'
p1467
I46033
sS'ATCATT'
p1468
I16510
sS'GATAGT'
p1469
I6279
sS'ACGCAG'
p1470
I14910
sS'CTAGGG'
p1471
I18679
sS'GTTATT'
p1472
I13614
sS'CTAGGC'
p1473
I15836
sS'CATTTT'
p1474
I37736
sS'CTAGGA'
p1475
I16245
sS'AAGTTT'
p1476
I17586
sS'TACAGT'
p1477
I12808
sS'CTCGAA'
p1478
I6113
sS'CTAACG'
p1479
I3333
sS'GCGCCT'
p1480
I26555
sS'CTAAGA'
p1481
I12357
sS'GGGGCT'
p1482
I68871
sS'TACAGG'
p1483
I16759
sS'AAGTTG'
p1484
I13881
sS'GGATGC'
p1485
I22798
sS'AAGTTA'
p1486
I12577
sS'TACAGC'
p1487
I15320
sS'AAGTTC'
p1488
I13985
sS'TACAGA'
p1489
I18747
sS'GGGGCC'
p1490
I79451
sS'GTATGA'
p1491
I7370
sS'GGGGCA'
p1492
I54005
sS'GGGGCG'
p1493
I64680
sS'TATATC'
p1494
I7384
sS'TATATA'
p1495
I15310
sS'TGTATA'
p1496
I10407
sS'TATATG'
p1497
I9698
sS'GCCCAG'
p1498
I86246
sS'GGTCCA'
p1499
I20049
sS'TATATT'
p1500
I16196
sS'GGACTA'
p1501
I8798
sS'CANTCC'
p1502
I1
sS'TGATGG'
p1503
I21401
sS'CATATG'
p1504
I12983
sS'ATGAGT'
p1505
I13937
sS'GCCCAC'
p1506
I43974
sS'TGATGA'
p1507
I18688
sS'TGTTTA'
p1508
I21695
sS'ACTCTT'
p1509
I16036
sS'TGTTTC'
p1510
I28654
sS'CACATA'
p1511
I14650
sS'TTAATT'
p1512
I26366
sS'CACATG'
p1513
I26908
sS'TTTCAT'
p1514
I27388
sS'ATGAGA'
p1515
I20946
sS'ATGAGC'
p1516
I17525
sS'ATGAGG'
p1517
I23549
sS'TTAATA'
p1518
I17900
sS'ACTCTG'
p1519
I28389
sS'TTAATC'
p1520
I12912
sS'ACTCTA'
p1521
I9750
sS'TGCCAA'
p1522
I22865
sS'ACTCTC'
p1523
I19422
sS'TTAATG'
p1524
I17262
sS'AAATTC'
p1525
I19302
sS'AAATTA'
p1526
I28610
sS'AAATTG'
p1527
I18762
sS'CCAGTA'
p1528
I12678
sS'TTCAAT'
p1529
I14753
sS'AGACCG'
p1530
I8399
sS'AAATTT'
p1531
I25905
sS'TTCGAA'
p1532
I3554
sS'CTTAGT'
p1533
I9553
sS'GTCTAT'
p1534
I6985
sS'GGGAAC'
p1535
I26417
sS'GGTGCG'
p1536
I17446
sS'GGGAAA'
p1537
I41562
sS'GGGAAG'
p1538
I61129
sS'GGTGCC'
p1539
I36241
sS'GGTGCA'
p1540
I25002
sS'AGAGCG'
p1541
I16679
sS'GCGACT'
p1542
I7415
sS'AGAGCC'
p1543
I44284
sS'AGAGCA'
p1544
I36178
sS'GCGTAG'
p1545
I4513
sS'GGTGCT'
p1546
I30882
sS'GCGTAC'
p1547
I2704
sS'GCGTAA'
p1548
I2444
sS'GCGACG'
p1549
I8231
sS'AGAGCT'
p1550
I35451
sS'GCGACA'
p1551
I7947
sS'TATCGG'
p1552
I2033
sS'GCGACC'
p1553
I11543
sS'AGGTCG'
p1554
I8726
sS'GCAGGA'
p1555
I55161
sS'GCAGGC'
p1556
I61406
sS'GCAGGG'
p1557
I83084
sS'GGCGAT'
p1558
I6816
sS'CCGTGC'
p1559
I17251
sS'GCTCGG'
p1560
I24474
sS'TATTCT'
p1561
I16000
sS'CCGTGG'
p1562
I22892
sS'CTTTAG'
p1563
I13589
sS'GCAGGT'
p1564
I35891
sS'ACCCTA'
p1565
I10140
sS'TATTCC'
p1566
I12193
sS'GGCGAG'
p1567
I25358
sS'TATTCA'
p1568
I14561
sS'CAATTA'
p1569
I14769
sS'TATTCG'
p1570
I2020
sS'GGCGAC'
p1571
I13552
sS'TGTAGA'
p1572
I12894
sS'GGCTCA'
p1573
I37126
sS'TGTAGC'
p1574
I12183
sS'GGCTCC'
p1575
I64493
sS'TTTACG'
p1576
I3274
sS'TGTAGG'
p1577
I13308
sS'GGCTCG'
p1578
I19748
sS'TTCGGA'
p1579
I5719
sS'TTCGGC'
p1580
I7582
sS'CTTTAC'
p1581
I11944
sS'TTCAAG'
p1582
I18151
sS'TTCGGG'
p1583
I10541
sS'ATTGTC'
p1584
I11076
sS'AGCATG'
p1585
I21079
sS'GGCTCT'
p1586
I44446
sS'TGTAGT'
p1587
I10931
sS'TTTACT'
p1588
I18153
sS'AGCATA'
p1589
I10567
sS'AGACCT'
p1590
I21683
sS'TTCGGT'
p1591
I4529
sS'GTTTAT'
p1592
I15661
sS'GTCTAG'
p1593
I8967
sS'CGCTAC'
p1594
I4751
sS'TGCTTG'
p1595
I23343
sS'GTTTAA'
p1596
I14913
sS'TCCAGG'
p1597
I58424
sS'AACTTG'
p1598
I15103
sS'CAATCT'
p1599
I12774
sS'GTTTAG'
p1600
I10212
sS'GAGGTA'
p1601
I11847
sS'CTGGCT'
p1602
I60562
sS'AGGCGG'
p1603
I38489
sS'AGGCGA'
p1604
I12597
sS'AGGCGC'
p1605
I26481
sS'AGGAGT'
p1606
I24522
sS'ACAGCC'
p1607
I42256
sS'GATAAA'
p1608
I18734
sS'ACAGCA'
p1609
I37059
sS'TCCAGC'
p1610
I50131
sS'ACAGCG'
p1611
I15011
sS'AGGAGC'
p1612
I48119
sS'AGGCGT'
p1613
I11701
sS'AGGAGA'
p1614
I46207
sS'GTGGGT'
p1615
I29527
sS'AGGAGG'
p1616
I77023
sS'CTGGCA'
p1617
I47871
sS'CTGGCC'
p1618
I73285
sS'GCGCCC'
p1619
I48294
sS'GCATCG'
p1620
I6480
sS'CGATAC'
p1621
I1611
sS'ACAGCT'
p1622
I34095
sS'GGAAAA'
p1623
I39951
sS'ATTGGT'
p1624
I9641
sS'AATTTT'
p1625
I30063
sS'TGTCAA'
p1626
I13869
sS'TGTCAC'
p1627
I22676
sS'CCCTCT'
p1628
I53818
sS'GCTCTA'
p1629
I12807
sS'TGTCAG'
p1630
I26668
sS'ATTGGG'
p1631
I11895
sS'AATTTA'
p1632
I22800
sS'AATTTC'
p1633
I20464
sS'AACGCC'
p1634
I8337
sS'AACGCA'
p1635
I6233
sS'AATTTG'
p1636
I19349
sS'ATTTAC'
p1637
I14896
sS'ATTTAA'
p1638
I27931
sS'TGTCAT'
p1639
I19163
sS'CCCTCG'
p1640
I26507
sS'TAAATA'
p1641
I24541
sS'CAATAT'
p1642
I10413
sS'TGACCA'
p1643
I19798
sS'TGACCC'
p1644
I25453
sS'TAAATC'
p1645
I14844
sS'TGACCG'
p1646
I7928
sS'CATTCG'
p1647
I4278
sS'CATTCC'
p1648
I21481
sS'CATTCA'
p1649
I21079
sS'TCCATA'
p1650
I10651
sS'TAAATG'
p1651
I23351
sS'ACAAAT'
p1652
I21522
sS'GATTAA'
p1653
I12846
sS'GTAGGC'
p1654
I10587
sS'GATTAC'
p1655
I8915
sS'GTAGGA'
p1656
I12527
sS'GTAGGG'
p1657
I16269
sS'GATTAG'
p1658
I9276
sS'GGCTTT'
p1659
I30286
sS'ACAAAC'
p1660
I18725
sS'TTTCAA'
p1661
I24964
sS'ACAAAA'
p1662
I31626
sS'ACAAAG'
p1663
I26343
sS'GCGGGC'
p1664
I47507
sS'GTCGGT'
p1665
I5629
sS'GCGGGA'
p1666
I32329
sS'GCGGGG'
p1667
I73225
sS'GATTAT'
p1668
I10918
sS'GTAGGT'
p1669
I9442
sS'GGCGTC'
p1670
I16902
sS'TAATGA'
p1671
I16884
sS'GATGTT'
p1672
I15483
sS'TAATGC'
p1673
I11093
sS'GGGATG'
p1674
I33110
sS'TAATGG'
p1675
I13112
sS'CAATAA'
p1676
I14827
sS'GCCCTC'
p1677
I55235
sS'GATGTG'
p1678
I21032
sS'GCCCTA'
p1679
I14442
sS'GATGTA'
p1680
I9503
sS'TAATGT'
p1681
I14168
sS'GATGTC'
p1682
I15207
sS'AACCTC'
p1683
I18430
sS'TGAAAT'
p1684
I27204
sS'AACCTA'
p1685
I9011
sS'TTCTAA'
p1686
I19089
sS'ATCCGT'
p1687
I4001
sS'TTCTAC'
p1688
I12026
sS'TGAAAA'
p1689
I33332
sS'TGAAAC'
p1690
I18615
sS'TGAAAG'
p1691
I25760
sS'TTCTAT'
p1692
I14709
sS'ATCCGC'
p1693
I7685
sS'ATCCGA'
p1694
I4079
sS'ATCCGG'
p1695
I7519
sS'TGGCTC'
p1696
I41583
sS'TGGCTA'
p1697
I14526
sS'GCTACC'
p1698
I11215
sS'TGGCTG'
p1699
I59753
sS'GACCGG'
p1700
I12041
sS'GTCGGA'
p1701
I6509
sS'GGAATA'
p1702
I12215
sS'AGTTGT'
p1703
I12513
sS'AGCTAT'
p1704
I10850
sS'CCCGCA'
p1705
I27584
sS'AAGACA'
p1706
I24170
sS'CTGGCG'
p1707
I27000
sS'CGTCGA'
p1708
I2372
sS'TGGCTT'
p1709
I33023
sS'AGTTGG'
p1710
I16985
sS'AGCTAA'
p1711
I13946
sS'AGCTAC'
p1712
I12113
sS'AGTTGC'
p1713
I13209
sS'AGTTGA'
p1714
I12170
sS'AGCTAG'
p1715
I12435
sS'CGTTGA'
p1716
I3868
sS'TCCAGT'
p1717
I23255
sS'GCACCT'
p1718
I28583
sS'CAGTGT'
p1719
I26863
sS'TAACAA'
p1720
I14435
sS'TCAGGT'
p1721
I19353
sS'TCAAGG'
p1722
I19709
sS'GTCGGG'
p1723
I16360
sS'TCAAGC'
p1724
I14999
sS'CATGGA'
p1725
I21473
sS'CTAATA'
p1726
I9725
sS'CAGTGC'
p1727
I33450
sS'GCACCC'
p1728
I36702
sS'CAGTGA'
p1729
I32078
sS'CAGTGG'
p1730
I40433
sS'GCACCG'
p1731
I17910
sS'TCAAGT'
p1732
I14243
sS'TCAGGG'
p1733
I41810
sS'GAGCCC'
p1734
I55330
sS'TCAGGC'
p1735
I34882
sS'CGAGCT'
p1736
I12521
sS'CGTTGG'
p1737
I7109
sS'GTCGGC'
p1738
I11265
sS'AGTCAA'
p1739
I12586
sS'TTCCCT'
p1740
I43400
sS'ACCACA'
p1741
I23947
sS'CGAGCA'
p1742
I10501
sS'GAGCCG'
p1743
I29845
sS'CGAGCC'
p1744
I19710
sS'GTTCAG'
p1745
I18705
sS'TTCCCC'
p1746
I44382
sS'GTTCAC'
p1747
I12749
sS'TTCCCG'
p1748
I19362
sS'GATCAC'
p1749
I11506
sS'GGACCT'
p1750
I24554
sS'TACATG'
p1751
I11641
sS'AAGTAC'
p1752
I9559
sS'AAGTAA'
p1753
I16156
sS'TACATC'
p1754
I9580
sS'AAGTAG'
p1755
I12422
sS'TACATA'
p1756
I11485
sS'GCACAC'
p1757
I28266
sS'GGACCG'
p1758
I14767
sS'AACGCT'
p1759
I6181
sS'GGACCA'
p1760
I22941
sS'TCATCA'
p1761
I18947
sS'GGACCC'
p1762
I39236
sS'CACACG'
p1763
I16659
sS'TACATT'
p1764
I15446
sS'CACACC'
p1765
I31899
sS'CTGCAT'
p1766
I26466
sS'AAGTAT'
p1767
I10295
sS'TCTGCC'
p1768
I49458
sS'TCTGCA'
p1769
I40994
sS'TCTGCG'
p1770
I16869
sS'TAGATT'
p1771
I11401
sS'ATTGCC'
p1772
I12468
sS'CCCGTC'
p1773
I17767
sS'TTAAGG'
p1774
I12855
sS'CCCGTA'
p1775
I4256
sS'TTAAGA'
p1776
I15780
sS'CCCGTG'
p1777
I19808
sS'TTAAGC'
p1778
I11265
sS'TTACGT'
p1779
I3131
sS'TAGATC'
p1780
I6802
sS'AAACAG'
p1781
I35776
sS'TAGATA'
p1782
I9961
sS'TTTCGC'
p1783
I5257
sS'TAGATG'
p1784
I11783
sS'TCTGCT'
p1785
I43273
sS'TTACGC'
p1786
I2440
sS'TTAAGT'
p1787
I14429
sS'TTACGA'
p1788
I2259
sS'TTACGG'
p1789
I3206
sS'CCCGTT'
p1790
I8415
sS'AGTGAC'
p1791
I21081
sS'AGTGAA'
p1792
I21267
sS'GGACGT'
p1793
I9133
sS'AGTGAG'
p1794
I29599
sS'ACATTT'
p1795
I29228
sS'CGGGCG'
p1796
I37271
sS'AAACAC'
p1797
I24925
sS'TAAGAG'
p1798
I14780
sS'CCTGAT'
p1799
I18646
sS'TAAGAA'
p1800
I17787
sS'CGGGCA'
p1801
I25355
sS'TAAGAC'
p1802
I8652
sS'ATTTAT'
p1803
I27726
sS'AGTGAT'
p1804
I16148
sS'CTTTCC'
p1805
I40527
sS'TAAGAT'
p1806
I11216
sS'CCTGAA'
p1807
I28310
sS'CCTGAC'
p1808
I30823
sS'AGTAAA'
p1809
I18195
sS'CCTGAG'
p1810
I52139
sS'GTTAGG'
p1811
I10005
sS'AACGCG'
p1812
I5061
sS'TCATCT'
p1813
I24836
sS'GTTAGC'
p1814
I7755
sS'GTTAGA'
p1815
I9200
sS'ACCCCC'
p1816
I40805
sS'TATACG'
p1817
I1489
sS'GTTAGT'
p1818
I7041
sS'TATACC'
p1819
I5081
sS'TATACA'
p1820
I10414
sS'ATTGGC'
p1821
I13192
sS'CGTATA'
p1822
I1463
sS'TCTTGT'
p1823
I18020
sS'TCCACG'
p1824
I13868
sS'ACTAGT'
p1825
I5885
sS'TTTATT'
p1826
I38926
sS'GTAATA'
p1827
I8984
sS'ATTGGA'
p1828
I12443
sS'GTAATC'
p1829
I8773
sS'TCTAAC'
p1830
I9115
sS'CGTTCT'
p1831
I7519
sS'CCACCG'
p1832
I23528
sS'GGTAGG'
p1833
I17052
sS'CCACCA'
p1834
I41284
sS'CCACCC'
p1835
I71497
sS'GTTCGT'
p1836
I3324
sS'TTTATG'
p1837
I18658
sS'GTAATT'
p1838
I14515
sS'TTTATC'
p1839
I18643
sS'ACTAGC'
p1840
I7332
sS'TTTATA'
p1841
I20169
sS'ATAGAA'
p1842
I14852
sS'CCACCT'
p1843
I47243
sS'CGTTCG'
p1844
I3154
sS'TCGTTG'
p1845
I4152
sS'CGTTCA'
p1846
I5407
sS'CGTTCC'
p1847
I10183
sS'TCTAAT'
p1848
I14683
sS'TCGTCT'
p1849
I6141
sS'CTTTGT'
p1850
I25662
sS'ACTGGG'
p1851
I34608
sS'ACTGGA'
p1852
I23168
sS'ACTGGC'
p1853
I25671
sS'TAGTCC'
p1854
I8820
sS'GTGACC'
p1855
I22691
sS'TAGTCA'
p1856
I9033
sS'GTGACA'
p1857
I22329
sS'TAGTCG'
p1858
I2227
sS'GTGACG'
p1859
I9106
sS'ATTTAG'
p1860
I15142
sS'ACTGGT'
p1861
I14045
sS'CTTTGG'
p1862
I28233
sS'CTTTGC'
p1863
I26586
sS'CTTTGA'
p1864
I20831
sS'GTGACT'
p1865
I20371
sS'TAGTCT'
p1866
I9031
sS'GTGCAC'
p1867
I20003
sS'GCGCTT'
p1868
I11561
sS'GTGCAA'
p1869
I13833
sS'GCAATT'
p1870
I13243
sS'ACCTAA'
p1871
I9648
sS'CGACGC'
p1872
I7814
sS'ACCTAC'
p1873
I9429
sS'CCGCAG'
p1874
I36391
sS'CCGCAA'
p1875
I8213
sS'CCGCAC'
p1876
I19323
sS'GGGACT'
p1877
I29811
sS'CGAAGC'
p1878
I10234
sS'GCGCTG'
p1879
I32566
sS'CGAAGA'
p1880
I7007
sS'CACTCA'
p1881
I27166
sS'CGAAGG'
p1882
I11539
sS'GCGCTC'
p1883
I25271
sS'GTGCAT'
p1884
I15106
sS'GCGCTA'
p1885
I4933
sS'NCTGAC'
p1886
I1
sS'CCGCAT'
p1887
I8010
sS'ATTACC'
p1888
I9372
sS'GAAGAT'
p1889
I17213
sS'GGATCT'
p1890
I16431
sS'TCGGAA'
p1891
I6470
sS'TCGGAC'
p1892
I5977
sS'GAATCT'
p1893
I14870
sS'CCTATA'
p1894
I6278
sS'TCGGAG'
p1895
I13500
sS'GGATCG'
p1896
I5828
sS'GAAGAG'
p1897
I36374
sS'GAAGAA'
p1898
I29690
sS'GGATCC'
p1899
I19626
sS'GAAGAC'
p1900
I19543
sS'GGATCA'
p1901
I13122
sS'GGATCN'
p1902
I1
sS'GAATCA'
p1903
I15023
sS'GAATCC'
p1904
I15517
sS'TCGGAT'
p1905
I4149
sS'GAATCG'
p1906
I4355
sS'ATGGTC'
p1907
I11037
sS'CAGATG'
p1908
I40273
sS'ACGCCG'
p1909
I10575
sS'CATTCT'
p1910
I22572
sS'ACGCCA'
p1911
I10373
sS'CAGATC'
p1912
I19730
sS'ACGCCC'
p1913
I18848
sS'TGCGTG'
p1914
I14555
sS'ACGCCT'
p1915
I11785
sS'CAGATT'
p1916
I20805
sS'CTCGAC'
p1917
I5712
sS'ATGGTT'
p1918
I12811
sS'TCGCAA'
p1919
I3403
sS'TTGCGC'
p1920
I6407
sS'TGCGTC'
p1921
I9483
sS'CCGGTA'
p1922
I4088
sS'AATGGT'
p1923
I12603
sS'GGGACG'
p1924
I22774
sS'AATGGC'
p1925
I17942
sS'AATGGA'
p1926
I21187
sS'AATGGG'
p1927
I21398
sS'CAATAC'
p1928
I6794
sS'CCCCGA'
p1929
I24454
sS'AATAGA'
p1930
I15034
sS'CAATCA'
p1931
I13685
sS'AATAGC'
p1932
I11486
sS'CGTTAG'
p1933
I3244
sS'TTGACC'
p1934
I11014
sS'GGAGGG'
p1935
I99121
sS'AAAAGT'
p1936
I22083
sS'GGAGGA'
p1937
I68447
sS'GGAGGC'
p1938
I74831
sS'TGGTAG'
p1939
I12106
sS'CGCCAT'
p1940
I10391
sS'GAGTGT'
p1941
I18658
sS'TGGTAC'
p1942
I8108
sS'TGGTAA'
p1943
I12416
sS'AAAAGG'
p1944
I30807
sS'GGAGGT'
p1945
I35689
sS'AGCCAT'
p1946
I22726
sS'AAAAGC'
p1947
I28637
sS'AAAAGA'
p1948
I36458
sS'TTGACT'
p1949
I12531
sS'GAGTGG'
p1950
I32771
sS'CGCCAG'
p1951
I27385
sS'TGGTAT'
p1952
I9325
sS'CGCCAA'
p1953
I9331
sS'GAGTGC'
p1954
I21540
sS'CGCCAC'
p1955
I21027
sS'GAGTGA'
p1956
I22610
sS'GCCAGG'
p1957
I82429
sS'GCCAGA'
p1958
I40761
sS'GCCAGC'
p1959
I59898
sS'GCCCGT'
p1960
I14066
sS'CAATCC'
p1961
I12160
sS'TACCGA'
p1962
I2556
sS'TACCGC'
p1963
I4662
sS'CTTCAT'
p1964
I20321
sS'GCCCGC'
p1965
I47604
sS'GCCAGT'
p1966
I25566
sS'GCCCGA'
p1967
I17643
sS'GCCCGG'
p1968
I55222
sS'CTTCAC'
p1969
I22013
sS'CTTCAA'
p1970
I17461
sS'CTTCAG'
p1971
I31392
sS'TCCGAG'
p1972
I14234
sS'TCCGAA'
p1973
I5666
sS'TCCGAC'
p1974
I6503
sS'AATTCA'
p1975
I20264
sS'AATTCC'
p1976
I16946
sS'AATTCG'
p1977
I3311
sS'TCCGAT'
p1978
I3627
sS'NNNGAT'
p1979
I2
sS'TAGCGG'
p1980
I5531
sS'TAGCGA'
p1981
I3058
sS'TAGCGC'
p1982
I5075
sS'GTCATC'
p1983
I14678
sS'GTCATA'
p1984
I8022
sS'GTCATG'
p1985
I13568
sS'AGCAGG'
p1986
I60194
sS'CCAGGT'
p1987
I40425
sS'TTGGAA'
p1988
I22704
sS'AGCAGC'
p1989
I61542
sS'AGCAGA'
p1990
I43281
sS'GTCATT'
p1991
I16263
sS'ACGACC'
p1992
I5638
sS'CCAGGG'
p1993
I85095
sS'AGCAGT'
p1994
I25320
sS'CCAGGA'
p1995
I64478
sS'CCAGGC'
p1996
I92433
sS'TTGGAT'
p1997
I13146
sS'ATAGAG'
p1998
I11573
sS'CATCTG'
p1999
I40467
sS'ACGGTC'
p2000
I5687
sS'CATCTA'
p2001
I11750
sS'GATCGA'
p2002
I2725
sS'CATCTC'
p2003
I28002
sS'ACGGTG'
p2004
I10862
sS'GGATGG'
p2005
I33324
sS'CCCTCA'
p2006
I40989
sS'CATCTT'
p2007
I22118
sS'CAAGCA'
p2008
I23357
sS'ACGGTT'
p2009
I4056
sS'GTTCTT'
p2010
I17783
sS'ACCTCC'
p2011
I35765
sS'CGTAAT'
p2012
I2416
sS'ACATGC'
p2013
I17635
sS'TCTTGA'
p2014
I16106
sS'ACATGG'
p2015
I21268
sS'AGGGAT'
p2016
I21856
sS'GTAAAC'
p2017
I9702
sS'TGGCGG'
p2018
I27479
sS'CGTAAG'
p2019
I2995
sS'GAGTCA'
p2020
I20810
sS'ACATGT'
p2021
I17627
sS'CGTAAC'
p2022
I2215
sS'CGTAAA'
p2023
I3417
sS'AGGGAG'
p2024
I70976
sS'ATCCTT'
p2025
I16420
sS'CTCGTT'
p2026
I5991
sS'CCCGCC'
p2027
I78514
sS'AGGGAA'
p2028
I43692
sS'CCCTTT'
p2029
I31383
sS'AGCGCA'
p2030
I13354
sS'GTTGTT'
p2031
I14271
sS'TGGATC'
p2032
I13842
sS'TTGTCG'
p2033
I3880
sS'TTGTCC'
p2034
I18516
sS'TTGTCA'
p2035
I17643
sS'ATCCTC'
p2036
I20919
sS'GTTGTA'
p2037
I7817
sS'ATCCTA'
p2038
I9815
sS'GTTGTC'
p2039
I11149
sS'ATCCTG'
p2040
I26817
sS'GTTGTG'
p2041
I14224
sS'ATCTCA'
p2042
I20487
sS'TTGTCT'
p2043
I21285
sS'CTATGC'
p2044
I8403
sS'CTGTGG'
p2045
I52674
sS'ATAGGT'
p2046
I6549
sS'TGACTC'
p2047
I20915
sS'TGGGCA'
p2048
I46042
sS'TGGGCG'
p2049
I28163
sS'TGACTG'
p2050
I23212
sS'AAGCCG'
p2051
I13672
sS'NNNNGC'
p2052
I1
sS'AAGCCC'
p2053
I33822
sS'AAGCCA'
p2054
I33235
sS'CAAAAT'
p2055
I24208
sS'TGACTT'
p2056
I19801
sS'TGGGCT'
p2057
I47720
sS'CAAAAC'
p2058
I21713
sS'CAAAAA'
p2059
I29776
sS'AAGCCT'
p2060
I27083
sS'CAAAAG'
p2061
I23919
sS'TGATTT'
p2062
I26299
sS'TCAATG'
p2063
I11660
sS'CCCTTA'
p2064
I13038
sS'TCAATC'
p2065
I9104
sS'TCAATA'
p2066
I10290
sS'CAGTTC'
p2067
I21720
sS'GACCCG'
p2068
I17688
sS'CAGTTG'
p2069
I16999
sS'GACCCC'
p2070
I38907
sS'CTCTGT'
p2071
I41451
sS'TCAATT'
p2072
I14123
sS'GGCCAG'
p2073
I72694
sS'CTCTGC'
p2074
I62846
sS'GACCCT'
p2075
I27578
sS'CTCTGA'
p2076
I36559
sS'ACAATC'
p2077
I10247
sS'CTCTGG'
p2078
I58978
sS'CAGTTT'
p2079
I25513
sS'GCGAAG'
p2080
I10596
sS'ACGTTC'
p2081
I5295
sS'TGCTGG'
p2082
I57824
sS'CGAGGT'
p2083
I11866
sS'TGCTGA'
p2084
I33116
sS'CCCTTG'
p2085
I29436
sS'GCGAAA'
p2086
I5249
sS'AGCTGC'
p2087
I54917
sS'GCTGGT'
p2088
I32935
sS'GTGATT'
p2089
I15663
sS'CTACTA'
p2090
I7019
sS'TGCTGT'
p2091
I36716
sS'AGCTGA'
p2092
I33353
sS'GCCCTT'
p2093
I30932
sS'TCGCTA'
p2094
I3001
sS'GTGATG'
p2095
I19455
sS'GCTGGG'
p2096
I98045
sS'GTGATC'
p2097
I11467
sS'GCTGGC'
p2098
I59537
sS'GTGATA'
p2099
I9487
sS'GCTGGA'
p2100
I50439
sS'TGATAA'
p2101
I16570
sS'TGATAC'
p2102
I7107
sS'TGATAG'
p2103
I9244
sS'CTTGTT'
p2104
I19372
sS'GACGGT'
p2105
I6794
sS'GCTAGG'
p2106
I15323
sS'GCTAGA'
p2107
I11308
sS'ATGAAT'
p2108
I18841
sS'GCTAGC'
p2109
I9582
sS'ATAGGG'
p2110
I9355
sS'TGATAT'
p2111
I10981
sS'GCTAGT'
p2112
I7590
sS'ATGAAC'
p2113
I12392
sS'GACGGG'
p2114
I18102
sS'ATGAAA'
p2115
I27440
sS'GACGGA'
p2116
I9791
sS'ATGAAG'
p2117
I20245
sS'GACGGC'
p2118
I14863
sS'CTTGTC'
p2119
I19249
sS'GCACTT'
p2120
I20550
sS'CTACTT'
p2121
I12330
sS'NNNGAA'
p2122
I1
sS'GNCCGC'
p2123
I1
sS'CCATAG'
p2124
I10097
sS'GGTGAA'
p2125
I18947
sS'GGTGAC'
p2126
I23776
sS'GCGTCT'
p2127
I12929
sS'TGTAAA'
p2128
I20880
sS'GGTGAG'
p2129
I37561
sS'GGAATG'
p2130
I21591
sS'CGTCCT'
p2131
I15476
sS'GGCTAA'
p2132
I12178
sS'GGAATC'
p2133
I15710
sS'GCCCTG'
p2134
I80434
sS'GCGTCA'
p2135
I7878
sS'GCGTCC'
p2136
I20358
sS'GGTGAT'
p2137
I15365
sS'GCGTCG'
p2138
I7608
sS'CGTCCG'
p2139
I9251
sS'GGAATT'
p2140
I16840
sS'CGTCCC'
p2141
I22558
sS'CGTCCA'
p2142
I11396
sS'CCGTAT'
p2143
I2494
sS'GAAGTC'
p2144
I17917
sS'GAAGTA'
p2145
I11347
sS'GAAGTG'
p2146
I24776
sS'GCCGTA'
p2147
I3954
sS'CCGTAC'
p2148
I3123
sS'CCGTAA'
p2149
I3129
sS'CCGTAG'
p2150
I5157
sS'GCACTA'
p2151
I8597
sS'GCCGTT'
p2152
I7170
sS'CCCTCC'
p2153
I99708
sS'GAAGTT'
p2154
I15564
sS'GGCGCG'
p2155
I37469
sS'ATGCCC'
p2156
I22104
sS'TTAGTT'
p2157
I11686
sS'TATTAG'
p2158
I9746
sS'GGCGCC'
p2159
I44935
sS'TATTAA'
p2160
I17700
sS'GGCGCA'
p2161
I20465
sS'TATTAC'
p2162
I9054
sS'ACTATG'
p2163
I8061
sS'CAACGG'
p2164
I6106
sS'TTTAAG'
p2165
I18433
sS'ACTATC'
p2166
I6278
sS'TTTAAA'
p2167
I44537
sS'ACTATA'
p2168
I6711
sS'TTTAAC'
p2169
I14689
sS'TATTAT'
p2170
I16949
sS'TTAGTG'
p2171
I11727
sS'GGCGCT'
p2172
I27080
sS'TCAACA'
p2173
I15499
sS'TTAGTC'
p2174
I8141
sS'ATGCCT'
p2175
I21024
sS'TTAGTA'
p2176
I9141
sS'TTTAAT'
p2177
I28893
sS'ACTATT'
p2178
I9930
sS'TTTTGA'
p2179
I23212
sS'GGGCAT'
p2180
I22086
sS'CCANTC'
p2181
I1
sS'TTCTAG'
p2182
I15425
sS'TTTCCA'
p2183
I37673
sS'TTTCCC'
p2184
I41560
sS'GTACGT'
p2185
I2728
sS'GTTTGT'
p2186
I18363
sS'TTTCCT'
p2187
I48039
sS'GGGCAG'
p2188
I86831
sS'CCTGGA'
p2189
I58340
sS'GGGCAA'
p2190
I24434
sS'GGGCAC'
p2191
I39533
sS'GTACGG'
p2192
I3219
sS'GTTTGA'
p2193
I14264
sS'GTTTGG'
p2194
I19487
sS'GTACGA'
p2195
I1915
sS'CCGCTC'
p2196
I27243
sS'GCATGT'
p2197
I17545
sS'CCGCTA'
p2198
I5653
sS'CCGCTG'
p2199
I31417
sS'AGCATT'
p2200
I19192
sS'GCGCGG'
p2201
I41358
sS'GCGCGC'
p2202
I38816
sS'ATCAAC'
p2203
I9208
sS'GCGCGA'
p2204
I10507
sS'GCATGG'
p2205
I23272
sS'GCATGC'
p2206
I17696
sS'CCGCTT'
p2207
I13129
sS'GCATGA'
p2208
I15139
sS'GTCGAC'
p2209
I2685
sS'GTCGAA'
p2210
I2837
sS'GTCGAG'
p2211
I5560
sS'AGACAT'
p2212
I17420
sS'GAGCTA'
p2213
I12303
sS'TGCGCT'
p2214
I13299
sS'GAGCTC'
p2215
I33124
sS'ATTGAT'
p2216
I10446
sS'GAGCTG'
p2217
I56723
sS'AAACGA'
p2218
I5774
sS'AAACGC'
p2219
I7811
sS'GTAACA'
p2220
I10511
sS'CACGCG'
p2221
I12259
sS'AAACGG'
p2222
I7741
sS'ATTGAA'
p2223
I14689
sS'TGCGCG'
p2224
I15411
sS'TGTCCA'
p2225
I25997
sS'GAGCTT'
p2226
I21498
sS'TGCGCC'
p2227
I20466
sS'ATTGAG'
p2228
I12345
sS'TGCGCA'
p2229
I12067
sS'GCGCAG'
p2230
I30890
sS'AAACGT'
p2231
I6418
sS'TGGGTT'
p2232
I22353
sS'ACGGAA'
p2233
I6726
sS'ATTTCA'
p2234
I27102
sS'ATTTCC'
p2235
I27868
sS'ATCAGT'
p2236
I14159
sS'ATCGGG'
p2237
I6077
sS'CATAGT'
p2238
I7907
sS'ATCGGC'
p2239
I4992
sS'ATCGGA'
p2240
I3559
sS'ATTTCT'
p2241
I30310
sS'CGATCA'
p2242
I3160
sS'TGGGTC'
p2243
I26025
sS'TTTCGG'
p2244
I6519
sS'TGGGTA'
p2245
I13665
sS'CATAGG'
p2246
I9360
sS'ATCGGT'
p2247
I2837
sS'CATGAC'
p2248
I13871
sS'CATAGC'
p2249
I10503
sS'CATAGA'
p2250
I10424
sS'ACGGGT'
p2251
I6490
sS'GTCTGA'
p2252
I19100
sS'GATTCT'
p2253
I16374
sS'CTTTTG'
p2254
I23595
sS'TACTAG'
p2255
I5588
sS'CTTTTC'
p2256
I33329
sS'CAGCAA'
p2257
I30930
sS'CTTTTA'
p2258
I22798
sS'GATTCC'
p2259
I15962
sS'ACGGGG'
p2260
I19226
sS'NNNNCT'
p2261
I1
sS'GATTCG'
p2262
I3760
sS'ACGGGC'
p2263
I14329
sS'TACTAT'
p2264
I7431
sS'CTTTTT'
p2265
I37150
sS'ACCAAC'
p2266
I11791
sS'CGTAGA'
p2267
I3498
sS'TCACGA'
p2268
I4853
sS'TCACGC'
p2269
I10232
sS'CGATTG'
p2270
I3071
sS'TCACGG'
p2271
I10568
sS'TCTCAT'
p2272
I21115
sS'TCACGT'
p2273
I7879
sS'TTCCAC'
p2274
I23617
sS'TTCCAA'
p2275
I23087
sS'TTCCAG'
p2276
I42981
sS'CGAGGC'
p2277
I27382
sS'ACCCTT'
p2278
I17570
sS'TGAAGT'
p2279
I17856
sS'AAACAA'
p2280
I34546
sS'CCACAT'
p2281
I24027
sS'AGGCAC'
p2282
I31169
sS'TTCCAT'
p2283
I22559
sS'TGAAGC'
p2284
I23044
sS'TGAAGA'
p2285
I23962
sS'TGAAGG'
p2286
I26918
sS'ACCCTG'
p2287
I40121
sS'CTGACT'
p2288
I24687
sS'CCCCTT'
p2289
I37592
sS'AGTTAT'
p2290
I10940
sS'ACATAT'
p2291
I13714
sS'CTGACG'
p2292
I10208
sS'CTGACC'
p2293
I31319
sS'CTGACA'
p2294
I26489
sS'AGTTAA'
p2295
I14395
sS'CCCCTG'
p2296
I64323
sS'AGTTAC'
p2297
I9589
sS'CCCCTC'
p2298
I77598
sS'AGTTAG'
p2299
I9641
sS'CCCCTA'
p2300
I17509
sS'ACACAG'
p2301
I40984
sS'ACACAA'
p2302
I21080
sS'ACACAC'
p2303
I56422
sS'AATGTT'
p2304
I19465
sS'CTGCAG'
p2305
I81977
sS'CATGGG'
p2306
I26040
sS'CTGCAC'
p2307
I39513
sS'CATGGC'
p2308
I27772
sS'TGTAAT'
p2309
I17617
sS'ACACAT'
p2310
I22347
sS'AATGTA'
p2311
I15462
sS'AATGTG'
p2312
I21328
sS'CATGGT'
p2313
I17218
sS'GCACAA'
p2314
I16397
sS'GCACAG'
p2315
I44944
sS'CGATTC'
p2316
I4394
sS'ATGCTG'
p2317
I27871
sS'CGAGAT'
p2318
I5976
sS'ATTACT'
p2319
I13252
sS'CACAAT'
p2320
I14587
sS'ACATTG'
p2321
I12727
sS'GTACCA'
p2322
I8268
sS'ACATTA'
p2323
I14190
sS'ACATTC'
p2324
I15744
sS'ATTACA'
p2325
I17941
sS'ATGCTC'
p2326
I16267
sS'GTTCGC'
p2327
I5216
sS'CGAGAC'
p2328
I9718
sS'CGAGAA'
p2329
I9008
sS'AAGTCT'
p2330
I16730
sS'GCTATT'
p2331
I11682
sS'GGACAT'
p2332
I16148
sS'GCTATA'
p2333
I6402
sS'GCTATC'
p2334
I7113
sS'AAGTCG'
p2335
I5553
sS'AAGTCA'
p2336
I19838
sS'GCTATG'
p2337
I10060
sS'AAGTCC'
p2338
I18642
sS'GGACAG'
p2339
I44111
sS'GGACAC'
p2340
I28094
sS'GGACAA'
p2341
I18707
sS'CTAATT'
p2342
I16518
sS'AGGGTT'
p2343
I19181
sS'GAGGCG'
p2344
I35567
sS'TGTTGG'
p2345
I20317
sS'GAGGCA'
p2346
I43553
sS'TGTTGA'
p2347
I15436
sS'GAGGCC'
p2348
I62751
sS'TGTTGC'
p2349
I17378
sS'ACTCGA'
p2350
I4326
sS'TAAAAT'
p2351
I32587
sS'ACTCGC'
p2352
I8647
sS'ACTCGG'
p2353
I11863
sS'TGTTGT'
p2354
I17937
sS'GAGGCT'
p2355
I48917
sS'AGCGCC'
p2356
I26918
sS'AGGGTG'
p2357
I39850
sS'AGGGTA'
p2358
I12212
sS'AGCGCG'
p2359
I18536
sS'AGGGTC'
p2360
I27545
sS'TAAAAG'
p2361
I22976
sS'ACTCGT'
p2362
I4095
sS'TAAAAC'
p2363
I19467
sS'TAAAAA'
p2364
I39698
sS'ACCCTC'
p2365
I31392
sS'TAGGGA'
p2366
I16615
sS'ACGTTA'
p2367
I3014
sS'TAGGGC'
p2368
I14343
sS'ACGTTG'
p2369
I4806
sS'AGCTGG'
p2370
I60588
sS'TAGGGG'
p2371
I17508
sS'AGTGCG'
p2372
I9713
sS'AGTGCA'
p2373
I22099
sS'AGAGTT'
p2374
I17271
sS'AGTGCC'
p2375
I27042
sS'AAAACC'
p2376
I22498
sS'TAGGGT'
p2377
I10120
sS'GCATAG'
p2378
I8377
sS'AGCTGT'
p2379
I33980
sS'ACGTTT'
p2380
I6462
sS'AGTGCT'
p2381
I25453
sS'AGAGTC'
p2382
I19265
sS'AGAGTA'
p2383
I11550
sS'AGAGTG'
p2384
I25216
sS'TTCGTA'
p2385
I2293
sS'GTTAAA'
p2386
I14594
sS'CCTGGC'
p2387
I82670
sS'GTTAAC'
p2388
I7490
sS'GTCTGT'
p2389
I26087
sS'CCTGGG'
p2390
I103594
sS'GTTAAG'
p2391
I10095
sS'AGCCCG'
p2392
I28994
sS'TTCGTC'
p2393
I4426
sS'CTAATC'
p2394
I9535
sS'GTCTGG'
p2395
I36021
sS'NNNNNA'
p2396
I1
sS'GTCTGC'
p2397
I28156
sS'GTTAAT'
p2398
I11889
sS'CCTGGT'
p2399
I37221
sS'CCGGTC'
p2400
I12246
sS'GGAAGG'
p2401
I61422
sS'ATGCTT'
p2402
I17673
sS'GGAAGC'
p2403
I43010
sS'CTAATG'
p2404
I12747
sS'GGAAGA'
p2405
I40023
sS'TGTATT'
p2406
I18012
sS'TCCTCT'
p2407
I45119
sS'GCGTTC'
p2408
I8151
sS'CAATGC'
p2409
I12994
sS'GCGTTG'
p2410
I6965
sS'CAATGG'
p2411
I14523
sS'CCACAG'
p2412
I53139
sS'GGAAGT'
p2413
I25705
sS'CCACAC'
p2414
I36632
sS'ATGCTA'
p2415
I10566
sS'AAACCA'
p2416
I25514
sS'TCCTCG'
p2417
I17546
sS'TGTATG'
p2418
I12913
sS'TCCTCA'
p2419
I34476
sS'GCGTTT'
p2420
I8093
sS'TCCTCC'
p2421
I68172
sS'TGTATC'
p2422
I9715
sS'GTGAAT'
p2423
I14176
sS'TAACCG'
p2424
I2860
sS'TCATAG'
p2425
I9836
sS'TTCGTG'
p2426
I5977
sS'TCATAA'
p2427
I13406
sS'TAACCC'
p2428
I10192
sS'CGTTAA'
p2429
I3060
sS'TAACCA'
p2430
I11838
sS'ACCGCT'
p2431
I8791
sS'TCGCGA'
p2432
I3672
sS'AACCCA'
p2433
I22238
sS'TCAGGA'
p2434
I32618
sS'TTCGTT'
p2435
I4591
sS'TCATAT'
p2436
I11704
sS'TAACCT'
p2437
I10856
sS'GTGAAG'
p2438
I21873
sS'GTGAAA'
p2439
I21397
sS'GTGAAC'
p2440
I12744
sS'CAATAG'
p2441
I8552
sS'TGCATA'
p2442
I11505
sS'ACCGCG'
p2443
I11940
sS'ACCGCA'
p2444
I9814
sS'AACGAG'
p2445
I6076
sS'ACCGCC'
p2446
I18298
sS'CCGCCT'
p2447
I38594
sS'AGGCTT'
p2448
I27265
sS'CCTTCT'
p2449
I39489
sS'GTTGCA'
p2450
I13275
sS'AACGAA'
p2451
I4658
sS'GTTGCC'
p2452
I16578
sS'GTGCCG'
p2453
I14282
sS'GTGCCA'
p2454
I26797
sS'GTTGCG'
p2455
I5013
sS'GTGCCC'
p2456
I39104
sS'CCTTCA'
p2457
I26770
sS'AGGCTA'
p2458
I13395
sS'CCTTCC'
p2459
I60597
sS'AGGCTC'
p2460
I39013
sS'CCGCCC'
p2461
I74314
sS'AACGAC'
p2462
I3705
sS'CCGCCA'
p2463
I27642
sS'AGGCTG'
p2464
I68340
sS'GTGCCT'
p2465
I31497
sS'GGCGAA'
p2466
I8407
sS'GTTGCT'
p2467
I17396
sS'NNNGCG'
p2468
I1
sS'GGATAT'
p2469
I8539
sS'TCGGGT'
p2470
I8450
sS'ATTTGA'
p2471
I19509
sS'GCAGTT'
p2472
I20071
sS'GAAGCT'
p2473
I27749
sS'GGATAA'
p2474
I11476
sS'ATTTGC'
p2475
I18597
sS'NNNNNG'
p2476
I4
sS'TCGGGG'
p2477
I24544
sS'GGATAG'
p2478
I8789
sS'GAAGCG'
p2479
I15100
sS'GCAGTG'
p2480
I40701
sS'GAAGCC'
p2481
I37542
sS'GCAGTA'
p2482
I12884
sS'GAAGCA'
p2483
I30220
sS'GCAGTC'
p2484
I21895
sS'CGCCCG'
p2485
I37098
sS'GAGAGA'
p2486
I45833
sS'GTTCAT'
p2487
I12446
sS'GAGAGG'
p2488
I56600
sS'CGCCCA'
p2489
I28017
sS'AGTTTG'
p2490
I17663
sS'CTATAG'
p2491
I6072
sS'CGCTAT'
p2492
I2770
sS'GCATTC'
p2493
I14675
sS'CTATAA'
p2494
I9828
sS'CTCGCA'
p2495
I10707
sS'CGCCCT'
p2496
I30663
sS'CTCGCG'
p2497
I13657
sS'GTCTCG'
p2498
I9754
sS'CTATAT'
p2499
I7641
sS'AGTTTC'
p2500
I20892
sS'GCCGGG'
p2501
I59709
sS'AGCATC'
p2502
I21502
sS'GCCGGC'
p2503
I41907
sS'CATGTT'
p2504
I17758
sS'GCCGGA'
p2505
I19336
sS'AGATCT'
p2506
I16473
sS'AACTGC'
p2507
I20121
sS'CGAGCG'
p2508
I13262
sS'TACCCA'
p2509
I13779
sS'CATGTA'
p2510
I11553
sS'NNAGCG'
p2511
I1
sS'CATGTC'
p2512
I16355
sS'GCCGGT'
p2513
I13345
sS'CATGTG'
p2514
I26790
sS'AGTTCG'
p2515
I4677
sS'GTACTC'
p2516
I7088
sS'GGCCTG'
p2517
I75923
sS'GGCCTC'
p2518
I62078
sS'NNGCGC'
p2519
I1
sS'GGCCTA'
p2520
I12770
sS'TTTGTT'
p2521
I32955
sS'AATCGG'
p2522
I4178
sS'AATCGC'
p2523
I4332
sS'AATCGA'
p2524
I2925
sS'TTCCCA'
p2525
I41685
sS'GGCCTT'
p2526
I31981
sS'TCACTA'
p2527
I10677
sS'TCACTC'
p2528
I22964
sS'AATCGT'
p2529
I2833
sS'AGCCGA'
p2530
I12765
sS'CCGCCG'
p2531
I48120
sS'AGCCGC'
p2532
I29877
sS'TAATTG'
p2533
I14752
sS'AAAAAT'
p2534
I44089
sS'AGCCGG'
p2535
I29668
sS'GTTTTT'
p2536
I28693
sS'TGGTGA'
p2537
I25751
sS'GGGCTC'
p2538
I55296
sS'TGGTGC'
p2539
I26332
sS'GATGGC'
p2540
I24020
sS'GGGCTG'
p2541
I90711
sS'TGGTGG'
p2542
I41245
sS'GATGGG'
p2543
I32499
sS'AAAAAA'
p2544
I103609
sS'GTTTTA'
p2545
I19402
sS'GTTTTG'
p2546
I21458
sS'GTTCAA'
p2547
I11531
sS'AAAAAG'
p2548
I37627
sS'TGACAG'
p2549
I28788
sS'CCAAGG'
p2550
I37925
sS'ACGTAT'
p2551
I2569
sS'TCTCAG'
p2552
I36437
sS'GATGGT'
p2553
I15341
sS'TGGTGT'
p2554
I21807
sS'GGGCTT'
p2555
I33958
sS'ATTCGT'
p2556
I2973
sS'AGAACT'
p2557
I19386
sS'GCATTA'
p2558
I10911
sS'CCTTCG'
p2559
I11535
sS'TACCAT'
p2560
I9442
sS'AGATAG'
p2561
I11940
sS'ACCCGG'
p2562
I21734
sS'ACCCGA'
p2563
I8446
sS'ATGTCT'
p2564
I17407
sS'ACCCGC'
p2565
I19592
sS'ACCAGT'
p2566
I14180
sS'TACCAC'
p2567
I9970
sS'AGAACG'
p2568
I7551
sS'TACCAA'
p2569
I9193
sS'AGAACA'
p2570
I26495
sS'TACCAG'
p2571
I13968
sS'AGAACC'
p2572
I19784
sS'ATGTCA'
p2573
I18358
sS'CACTGG'
p2574
I37115
sS'CCTATG'
p2575
I9619
sS'TGACAA'
p2576
I17506
sS'ACCAGG'
p2577
I37283
sS'CACTGC'
p2578
I40727
sS'CCTATC'
p2579
I9030
sS'CAGCGT'
p2580
I15025
sS'TAGGTT'
p2581
I8939
sS'GTTTAC'
p2582
I10066
sS'AATTAT'
p2583
I21385
sS'CTGTTG'
p2584
I23358
sS'GTAACC'
p2585
I7550
sS'CTGTTC'
p2586
I25518
sS'CGGGTT'
p2587
I10083
sS'CTGTTA'
p2588
I15330
sS'AATTAC'
p2589
I14829
sS'AATTAA'
p2590
I26442
sS'TAGGTA'
p2591
I6779
sS'TAGGTC'
p2592
I8245
sS'CGGGTC'
p2593
I17834
sS'CTGTTT'
p2594
I35678
sS'CGGGTA'
p2595
I5672
sS'CGGGTG'
p2596
I22845
sS'CTTCGG'
p2597
I11660
sS'CACACT'
p2598
I26113
sS'CATTAC'
p2599
I10132
sS'GCAATG'
p2600
I14875
sS'TTAGGG'
p2601
I14293
sS'ATATAT'
p2602
I17642
sS'AGCAAC'
p2603
I17507
sS'TTAGGC'
p2604
I10538
sS'AAAGCT'
p2605
I24856
sS'TTAGGA'
p2606
I15311
sS'AAAGCA'
p2607
I34720
sS'ATATAG'
p2608
I7549
sS'TTAGGT'
p2609
I9658
sS'ATATAA'
p2610
I15206
sS'AGCAAT'
p2611
I16348
sS'ATATAC'
p2612
I8103
sS'ATAGCA'
p2613
I12653
sS'ATAGCC'
p2614
I9318
sS'TACTTG'
p2615
I10725
sS'ATAGCG'
p2616
I2846
sS'TCTCAC'
p2617
I22962
sS'CAGCAT'
p2618
I27916
sS'CAGCGC'
p2619
I32697
sS'ATAGCT'
p2620
I10859
sS'TACTTT'
p2621
I16270
sS'CATGCG'
p2622
I7834
sS'GTTTTC'
p2623
I26138
sS'CGAGTT'
p2624
I5826
sS'TCCAAT'
p2625
I12594
sS'CGTACT'
p2626
I2541
sS'TCCCGT'
p2627
I10760
sS'TATGCT'
p2628
I10423
sS'CTTAAG'
p2629
I11449
sS'ACATAA'
p2630
I14857
sS'CTTAAA'
p2631
I18515
sS'ACATAG'
p2632
I9881
sS'CTTAAC'
p2633
I9832
sS'TCCAAG'
p2634
I24737
sS'CGTACC'
p2635
I3215
sS'CGAGTA'
p2636
I3395
sS'TCCAAA'
p2637
I23038
sS'AGGGGA'
p2638
I51285
sS'CTTAAT'
p2639
I14488
sS'TATGCG'
p2640
I2310
sS'TATGCA'
p2641
I11720
sS'AGGGGG'
p2642
I51428
sS'TCATTA'
p2643
I16709
sS'CGACTT'
p2644
I5474
sS'TGAATT'
p2645
I20388
sS'TTGTAA'
p2646
I14905
sS'CACAAA'
p2647
I26116
sS'TTGTAC'
p2648
I8147
sS'GTACCT'
p2649
I9296
sS'TTGTAG'
p2650
I11548
sS'TGAATC'
p2651
I13803
sS'ACAACA'
p2652
I17975
sS'TGAATA'
p2653
I14884
sS'CGACTC'
p2654
I8418
sS'TGAATG'
p2655
I20815
sS'CACACA'
p2656
I69067
sS'CGACTG'
p2657
I7948
sS'TTGTAT'
p2658
I12852
sS'ATCGTG'
p2659
I4719
sS'GCTTCG'
p2660
I10295
sS'ATCGTC'
p2661
I3443
sS'GCTTCC'
p2662
I42942
sS'TGGGAG'
p2663
I59723
sS'TGGGAA'
p2664
I41237
sS'TGGGAC'
p2665
I29076
sS'GCTTCT'
p2666
I33803
sS'TGGCAC'
p2667
I27127
sS'ACAACG'
p2668
I4507
sS'TGGGAT'
p2669
I24574
sS'CTAGCC'
p2670
I13403
sS'GACCAT'
p2671
I11341
sS'CTAGCG'
p2672
I5348
sS'CGGTAG'
p2673
I4928
sS'ACTTAG'
p2674
I10695
sS'ACTTAA'
p2675
I14395
sS'CGGTAC'
p2676
I3445
sS'ACTTAC'
p2677
I9540
sS'CGGTAA'
p2678
I3547
sS'GACCAG'
p2679
I28589
sS'GACCAC'
p2680
I18866
sS'CTAGCT'
p2681
I12698
sS'TACACC'
p2682
I8188
sS'CGGTAT'
p2683
I2190
sS'TACACA'
p2684
I17327
sS'TACACG'
p2685
I4192
sS'GCGAGA'
p2686
I12066
sS'GAGAGC'
p2687
I35300
sS'GCGAGC'
p2688
I18395
sS'GGCCGT'
p2689
I16114
sS'GCGAGG'
p2690
I27652
sS'CAGCCG'
p2691
I33638
sS'CAGCCA'
p2692
I59903
sS'CAGCCC'
p2693
I90474
sS'TCCGGG'
p2694
I26587
sS'GCGAGT'
p2695
I8695
sS'GAACTG'
p2696
I21614
sS'GAACTC'
p2697
I16241
sS'GAACTA'
p2698
I8569
sS'GGACTT'
p2699
I18687
sS'CACCTA'
p2700
I12233
sS'AACTAT'
p2701
I8596
sS'CACCTC'
p2702
I40392
sS'NAGCGA'
p2703
I1
sS'CACCTG'
p2704
I47716
sS'TGATCC'
p2705
I13197
sS'AACACT'
p2706
I17198
sS'TGATCA'
p2707
I12037
sS'TGATCG'
p2708
I3130
sS'AACTAG'
p2709
I9043
sS'GGACTG'
p2710
I29927
sS'CACCTT'
p2711
I23113
sS'AACTAC'
p2712
I8545
sS'GGACTC'
p2713
I25019
sS'AACGAT'
p2714
I2931
sS'AACACG'
p2715
I7221
sS'TGCAAT'
p2716
I14845
sS'AACACC'
p2717
I16184
sS'TGATCT'
p2718
I15673
sS'AAAGAC'
p2719
I19689
sS'ACGCAC'
p2720
I10110
sS'CAACAG'
p2721
I23656
sS'GACAGT'
p2722
I18275
sS'CAACAA'
p2723
I16967
sS'CCAGCC'
p2724
I91992
sS'CAACAC'
p2725
I16274
sS'GCTGAT'
p2726
I19039
sS'ACGCAA'
p2727
I4307
sS'GACAGG'
p2728
I37952
sS'CAACAT'
p2729
I14627
sS'GACAGC'
p2730
I32669
sS'GACAGA'
p2731
I32917
sS'GTATTA'
p2732
I8191
sS'GTATTC'
p2733
I7549
sS'GTAAGT'
p2734
I9464
sS'CCAGCG'
p2735
I30624
sS'GTATTG'
p2736
I6718
sS'GGTGGC'
p2737
I48728
sS'TCCCCT'
p2738
I51314
sS'GGTGGA'
p2739
I33555
sS'TATCTT'
p2740
I15804
sS'GGTGGG'
p2741
I75510
sS'ATCCCT'
p2742
I21845
sS'AGAGGC'
p2743
I49085
sS'GTAAGA'
p2744
I10503
sS'AGAGGA'
p2745
I44594
sS'GTAAGC'
p2746
I8056
sS'AGAGGG'
p2747
I53627
sS'ANTCCC'
p2748
I1
sS'GTAAGG'
p2749
I10391
sS'TCCCCG'
p2750
I37755
sS'CGTCAC'
p2751
I9041
sS'TCCCCC'
p2752
I50958
sS'GGTGGT'
p2753
I26032
sS'CGTCAG'
p2754
I10024
sS'GTCGCG'
p2755
I7711
sS'GTCGCA'
p2756
I5678
sS'GTCGCC'
p2757
I13457
sS'TCGGTC'
p2758
I6879
sS'TCGGTA'
p2759
I2599
sS'GAGAGT'
p2760
I19311
sS'TCGGTG'
p2761
I10068
sS'GTCGCT'
p2762
I8445
sS'GTAACT'
p2763
I9535
sS'CCGTCG'
p2764
I7419
sS'CCGTCA'
p2765
I8624
sS'TCGGTT'
p2766
I4950
sS'GGCTGT'
p2767
I42107
sS'CGCGTG'
p2768
I12197
sS'GCATTT'
p2769
I25501
sS'CGCGTC'
p2770
I11776
sS'CGCGTA'
p2771
I2391
sS'ATGCAG'
p2772
I26552
sS'ATGCAA'
p2773
I16321
sS'CCACTC'
p2774
I32991
sS'CGCGTT'
p2775
I5258
sS'GGCTGG'
p2776
I92068
sS'GGCTGA'
p2777
I42045
sS'GGCTGC'
p2778
I76025
sS'ATGCAT'
p2779
I15617
sS'TTTAGA'
p2780
I17343
sS'ATGACG'
p2781
I5005
sS'GGAGTT'
p2782
I20040
sS'ATGACA'
p2783
I19089
sS'ATGACC'
p2784
I13385
sS'CGGGCC'
p2785
I42929
sS'GGGCCT'
p2786
I57900
sS'TACTAC'
p2787
I5630
sS'ATGACT'
p2788
I15371
sS'GGAGTA'
p2789
I10759
sS'CTACGC'
p2790
I4476
sS'GGAGTC'
p2791
I25615
sS'GGAGTG'
p2792
I33076
sS'GGGCCG'
p2793
I49046
sS'GGGCCC'
p2794
I70165
sS'GGGCCA'
p2795
I50913
sS'CTGATC'
p2796
I14171
sS'ACGAGT'
p2797
I4089
sS'TTCNNN'
p2798
I1
sS'AGGCCA'
p2799
I47478
sS'GCGCAC'
p2800
I16928
sS'AAAGTC'
p2801
I16905
sS'AGGCCG'
p2802
I29916
sS'ACGAGG'
p2803
I11984
sS'AGTATC'
p2804
I7587
sS'ACGAGC'
p2805
I6999
sS'ACGAGA'
p2806
I6033
sS'GGCAAC'
p2807
I16577
sS'AGGCCT'
p2808
I47799
sS'ACATCT'
p2809
I21139
sS'GGGTTG'
p2810
I22103
sS'GACTAC'
p2811
I6758
sS'GGGTTA'
p2812
I10497
sS'CTCGGG'
p2813
I30297
sS'GGGTTC'
p2814
I20887
sS'TTTGAT'
p2815
I17577
sS'ATTCGA'
p2816
I2756
sS'CTACGA'
p2817
I3247
sS'ATTGCT'
p2818
I16131
sS'GGGTTT'
p2819
I22406
sS'TACAAG'
p2820
I10646
sS'AGATCC'
p2821
I16356
sS'TGCGAG'
p2822
I10821
sS'AACGGC'
p2823
I7055
sS'AGACGC'
p2824
I12688
sS'ATTGCA'
p2825
I14896
sS'GACTAG'
p2826
I7926
sS'AACGGG'
p2827
I8298
sS'TTTGAC'
p2828
I12590
sS'TTTGAA'
p2829
I25485
sS'ATCATC'
p2830
I13371
sS'CGGGCT'
p2831
I29054
sS'TTCGCT'
p2832
I6518
sS'TGACGT'
p2833
I6811
sS'CTCGTC'
p2834
I9662
sS'CCCTGG'
p2835
I85118
sS'CCCTGA'
p2836
I42196
sS'AAGCTT'
p2837
I17807
sS'CCCTGC'
p2838
I82721
sS'GATATC'
p2839
I6294
sS'AAGCTC'
p2840
I21530
sS'GATATA'
p2841
I7440
sS'TGACGG'
p2842
I8659
sS'GATATG'
p2843
I8436
sS'TGACGA'
p2844
I4520
sS'TGACGC'
p2845
I8002
sS'TACTCT'
p2846
I11471
sS'CATCGT'
p2847
I5207
sS'CAGGGT'
p2848
I39583
sS'CCAGTC'
p2849
I27123
sS'GACACA'
p2850
I26884
sS'CCAGTG'
p2851
I36968
sS'TACTCG'
p2852
I3210
sS'CATCGA'
p2853
I3994
sS'CATCGC'
p2854
I8140
sS'TACTCC'
p2855
I10591
sS'NGAATT'
p2856
I1
sS'TACTCA'
p2857
I11573
sS'CATCGG'
p2858
I6484
sS'CAGGGG'
p2859
I65033
sS'CAGGGA'
p2860
I63893
sS'CAGGGC'
p2861
I80410
sS'AATCTG'
p2862
I20838
sS'TACAAT'
p2863
I10664
sS'GCCATT'
p2864
I18117
sS'AGTCGA'
p2865
I3419
sS'AATCTA'
p2866
I11562
sS'TGAACG'
p2867
I5377
sS'TCACAC'
p2868
I22364
sS'CCCATA'
p2869
I10550
sS'TCACAA'
p2870
I17407
sS'TCACAG'
p2871
I34525
sS'GCCATA'
p2872
I9422
sS'CGGACG'
p2873
I9284
sS'ACATCG'
p2874
I4313
sS'CGGACA'
p2875
I9705
sS'CGGACC'
p2876
I13091
sS'GCCATG'
p2877
I27838
sS'CTTACC'
p2878
I11447
sS'CTCGGC'
p2879
I29016
sS'TCACAT'
p2880
I19549
sS'ATTAAC'
p2881
I11749
sS'ATTAAA'
p2882
I28447
sS'ATTAAG'
p2883
I14396
sS'CTTACA'
p2884
I12414
sS'TCACTT'
p2885
I22938
sS'TGAACA'
p2886
I18990
sS'GTGCAG'
p2887
I39305
sS'ATTAAT'
p2888
I19238
sS'ATCATG'
p2889
I12876
sS'GAACCA'
p2890
I17667
sS'GGTATG'
p2891
I7261
sS'GGTATA'
p2892
I4947
sS'GGTATC'
p2893
I6516
sS'GAACCG'
p2894
I8251
sS'CAATGA'
p2895
I15053
sS'ACGAAT'
p2896
I3116
sS'GGTATT'
p2897
I8497
sS'CTGAAC'
p2898
I18839
sS'CTGAAG'
p2899
I32187
sS'ATTGTA'
p2900
I10564
sS'CCCGAA'
p2901
I10335
sS'CATTGC'
p2902
I14781
sS'CCCGGC'
p2903
I59449
sS'CATTGA'
p2904
I11502
sS'AGAGGT'
p2905
I24716
sS'CATTGG'
p2906
I13150
sS'TCAACT'
p2907
I12152
sS'ACCATC'
p2908
I15444
sS'ACACCG'
p2909
I9233
sS'CTGCCA'
p2910
I52603
sS'CTGCCC'
p2911
I87355
sS'ACACCC'
p2912
I27555
sS'ACACCA'
p2913
I21783
sS'CTGCCG'
p2914
I30160
sS'CTAGTG'
p2915
I11257
sS'TCAACC'
p2916
I11579
sS'ATGTTC'
p2917
I14162
sS'CTAGTC'
p2918
I7936
sS'TCAACG'
p2919
I3957
sS'CTAGTA'
p2920
I5742
sS'CATTGT'
p2921
I15715
sS'TATGAC'
p2922
I8150
sS'ACACCT'
p2923
I19964
sS'CTGCCT'
p2924
I69452
sS'CCTCGT'
p2925
I11942
sS'TTGTGT'
p2926
I20496
sS'AGACTG'
p2927
I23859
sS'TCACTG'
p2928
I31934
sS'AGACTA'
p2929
I9236
sS'CCTCGG'
p2930
I33323
sS'CCTCGC'
p2931
I27813
sS'CCCGAC'
p2932
I16334
sS'CCTCGA'
p2933
I10340
sS'CGAGGA'
p2934
I17683
sS'AGACTT'
p2935
I16571
sS'NNNNAG'
p2936
I1
sS'CGAGGG'
p2937
I26443
sS'CACCGT'
p2938
I11076
sS'ACTTTA'
p2939
I14316
sS'ACTTTG'
p2940
I19786
sS'GACCTG'
p2941
I30940
sS'GTAATG'
p2942
I9854
sS'GACCTC'
p2943
I24508
sS'CACCGG'
p2944
I16956
sS'ACGCTG'
p2945
I14891
sS'CACCGA'
p2946
I10327
sS'CACCGC'
p2947
I24165
sS'GACCTT'
p2948
I16756
sS'GGACGC'
p2949
I20372
sS'GGACGG'
p2950
I20130
sS'CTATTA'
p2951
I10464
sS'CACAGC'
p2952
I53616
sS'CTTATC'
p2953
I13307
sS'CACAGA'
p2954
I43375
sS'CTTATA'
p2955
I7912
sS'CACAGG'
p2956
I49289
sS'CTTATG'
p2957
I9019
sS'ACTCAT'
p2958
I14018
sS'GAGGAG'
p2959
I70362
sS'GACGTA'
p2960
I2517
sS'CGTATC'
p2961
I2375
sS'ACGCTC'
p2962
I9205
sS'TAAACT'
p2963
I13879
sS'GAGGAA'
p2964
I42694
sS'AGCGAT'
p2965
I5294
sS'TTAACA'
p2966
I15967
sS'ACTCAC'
p2967
I21032
sS'TTAACC'
p2968
I10419
sS'TTGTGA'
p2969
I16991
sS'ACTCAG'
p2970
I27585
sS'TTAACG'
p2971
I3136
sS'CACAGT'
p2972
I27339
sS'AGCGAC'
p2973
I8495
sS'TAAACA'
p2974
I21596
sS'AGCGAA'
p2975
I6407
sS'GAGGAT'
p2976
I20680
sS'GACGTT'
p2977
I4617
sS'TCTAAA'
p2978
I17709
sS'GAGTTC'
p2979
I16223
sS'AGTTCC'
p2980
I19642
sS'GTATGT'
p2981
I10239
sS'AGTTCA'
p2982
I16590
sS'TACTTA'
p2983
I10376
sS'CTGTGC'
p2984
I43958
sS'TAGCCC'
p2985
I13874
sS'CTGTGA'
p2986
I34634
sS'CGGGGT'
p2987
I24436
sS'TAGGAC'
p2988
I9442
sS'GCAAAG'
p2989
I27223
sS'TAGGAA'
p2990
I18292
sS'GCAAAA'
p2991
I22618
sS'TAGGAG'
p2992
I17678
sS'GCAAAC'
p2993
I16948
sS'CGGGGC'
p2994
I62712
sS'CGGGGA'
p2995
I37699
sS'CTGTGT'
p2996
I40417
sS'CGGGGG'
p2997
I46750
sS'GTATGC'
p2998
I6090
sS'AGTTCT'
p2999
I19360
sS'GCAAAT'
p3000
I18465
sS'TAGGAT'
p3001
I9869
sS'TAATTA'
p3002
I21553
sS'CTATTT'
p3003
I18821
sS'TGCTTT'
p3004
I34436
sS'ACAGGA'
p3005
I33438
sS'TGGGNC'
p3006
I1
sS'ACTAGG'
p3007
I10459
sS'GTTACC'
p3008
I8010
sS'GTTACA'
p3009
I10290
sS'TAATTC'
p3010
I14319
sS'GTTACG'
p3011
I2267
sS'TATCGC'
p3012
I2239
sS'TATAGT'
p3013
I6791
sS'GTCTAA'
p3014
I7990
sS'CAGGAC'
p3015
I39912
sS'GTCTAC'
p3016
I7104
sS'TGCTTC'
p3017
I30018
sS'TTCAAA'
p3018
I25471
sS'TTCAAC'
p3019
I12018
sS'GATGGA'
p3020
I23278
sS'TATAGC'
p3021
I6502
sS'TATCGT'
p3022
I1890
sS'TATAGA'
p3023
I8676
sS'AGCTCA'
p3024
I29669
sS'TATAGG'
p3025
I6180
sS'GTTACT'
p3026
I9718
sS'GCTCTC'
p3027
I35588
sS'GGAAAC'
p3028
I28399
sS'GGGCTA'
p3029
I13793
sS'GCTCTG'
p3030
I58684
sS'CCACGT'
p3031
I15324
sS'GGCGTT'
p3032
I8430
sS'AGGACC'
p3033
I27983
sS'GAATGG'
p3034
I18798
sS'GAATGA'
p3035
I20157
sS'ACTACT'
p3036
I8126
sS'GAATGC'
p3037
I14765
sS'CCACGA'
p3038
I10251
sS'AACCTG'
p3039
I22020
sS'CCACGC'
p3040
I24505
sS'GGCGTA'
p3041
I3581
sS'GGAAAT'
p3042
I27296
sS'CCACGG'
p3043
I23289
sS'GCTCTT'
p3044
I25851
sS'GGCTTA'
p3045
I12344
sS'ACTACC'
p3046
I7290
sS'GGCTTC'
p3047
I37595
sS'ACTACA'
p3048
I11117
sS'ACTACG'
p3049
I3024
sS'GGCTTG'
p3050
I27901
sS'TCCTAG'
p3051
I16038
sS'AGTCAG'
p3052
I24355
sS'CGTTGC'
p3053
I6624
sS'TAACAC'
p3054
I10216
sS'TCCTAC'
p3055
I12445
sS'AGTCAC'
p3056
I20518
sS'TCCTAA'
p3057
I15318
sS'TAACAG'
p3058
I15284
sS'TCATCG'
p3059
I5193
sS'AAGCGT'
p3060
I5639
sS'TCATCC'
p3061
I20533
sS'AAAAAC'
p3062
I28831
sS'CTTTCT'
p3063
I40765
sS'AGTCAT'
p3064
I15251
sS'TCCTAT'
p3065
I11348
sS'TAACAT'
p3066
I13147
sS'CGTTGT'
p3067
I4429
sS'GAGCGA'
p3068
I12195
sS'TCCCTT'
p3069
I33776
sS'CTTTCA'
p3070
I25511
sS'CTTTCG'
p3071
I6393
sS'GCGGGT'
p3072
I19884
sS'AGCCGT'
p3073
I10255
sS'GAGCGC'
p3074
I24941
sS'GTTGAT'
p3075
I8995
sS'CGACCA'
p3076
I6489
sS'CGACCC'
p3077
I15101
sS'GCATAC'
p3078
I6035
sS'CGACCG'
p3079
I5815
sS'CCTTAT'
p3080
I11766
sS'GTTGAC'
p3081
I8040
sS'GTTGAA'
p3082
I12029
sS'GTTGAG'
p3083
I13648
sS'CCTTAC'
p3084
I10438
sS'CCTTAA'
p3085
I12736
sS'CCTTAG'
p3086
I13473
sS'CGACCT'
p3087
I8886
sS'CAACTC'
p3088
I16233
sS'CAACTA'
p3089
I7864
sS'CAACTG'
p3090
I17222
sS'AATAGG'
p3091
I10903
sS'AATATC'
p3092
I11209
sS'TCGCTC'
p3093
I12403
sS'GGGGTT'
p3094
I24277
sS'ATTCNN'
p3095
I1
sS'GGATGT'
p3096
I18014
sS'AATAGT'
p3097
I9808
sS'CCAAGA'
p3098
I25593
sS'CAACTT'
p3099
I14037
sS'ACTGTA'
p3100
I13037
sS'GGGGTG'
p3101
I60654
sS'GGATGA'
p3102
I20524
sS'GGGGTC'
p3103
I39215
sS'GGGGTA'
p3104
I13132
sS'TCTCCG'
p3105
I17288
sS'GAGTCC'
p3106
I25132
sS'AAACTG'
p3107
I25397
sS'TCTCCC'
p3108
I55155
sS'AAACTA'
p3109
I13576
sS'TCTCCA'
p3110
I41006
sS'AAACTC'
p3111
I18274
sS'CTATGA'
p3112
I9719
sS'AGTACG'
p3113
I2755
sS'ACGCGC'
p3114
I11391
sS'AGTACC'
p3115
I8281
sS'ACGCGG'
p3116
I12530
sS'AGTACA'
p3117
I11220
sS'AAACTT'
p3118
I17406
sS'CCCTTC'
p3119
I45998
sS'TCTCCT'
p3120
I46251
sS'GAGTCT'
p3121
I19994
sS'AGTACT'
p3122
I9218
sS'CTATGT'
p3123
I9838
sS'GCCGAA'
p3124
I7637
sS'GTGGAG'
p3125
I40865
sS'GCCGAC'
p3126
I11120
sS'GTGGAC'
p3127
I19038
sS'GCCGAG'
p3128
I28824
sS'GTGGAA'
p3129
I23557
sS'CGCCCC'
p3130
I65224
sS'GTGGAT'
p3131
I15579
sS'GCCGAT'
p3132
I4949
sS'CCTATT'
p3133
I10948
sS'TATCTG'
p3134
I17843
sS'CACTGT'
p3135
I27852
sS'GTAGTC'
p3136
I6847
sS'AAATCG'
p3137
I4561
sS'GTAGTA'
p3138
I5644
sS'TTATCG'
p3139
I2399
sS'GTAGTG'
p3140
I8636
sS'AAATCC'
p3141
I20039
sS'ACCGAA'
p3142
I4589
sS'AAATCA'
p3143
I26212
sS'CTACGT'
p3144
I3856
sS'AGATAC'
p3145
I10421
sS'TCCCGA'
p3146
I12674
sS'CACGCT'
p3147
I13299
sS'AAATCT'
p3148
I22617
sS'ACCGAT'
p3149
I2718
sS'GTAGTT'
p3150
I8428
sS'AGATAA'
p3151
I23688
sS'CGTTAT'
p3152
I2732
sS'GATGAT'
p3153
I13350
sS'GGAGCA'
p3154
I40449
sS'GGAGCC'
p3155
I64340
sS'AAAGTG'
p3156
I24630
sS'CCAAAT'
p3157
I19821
sS'GGAGCG'
p3158
I30078
sS'AAAACT'
p3159
I22333
sS'GATGAC'
p3160
I14607
sS'TGTCCC'
p3161
I37658
sS'GATGAA'
p3162
I18358
sS'GATGAG'
p3163
I22735
sS'CAATTT'
p3164
I19017
sS'ACTAAC'
p3165
I7200
sS'CCAAAC'
p3166
I19754
sS'AAAACG'
p3167
I8018
sS'GGAGCT'
p3168
I45601
sS'CCAAAG'
p3169
I28327
sS'TCGCGG'
p3170
I12184
sS'CTAGAG'
p3171
I16708
sS'TCGCGC'
p3172
I10387
sS'ACGTCG'
p3173
I3487
sS'GCCACA'
p3174
I36885
sS'AGATCA'
p3175
I15643
sS'GCCACC'
p3176
I48398
sS'AGAAAT'
p3177
I30765
sS'CGACGG'
p3178
I7325
sS'GCCACG'
p3179
I21854
sS'AGATCG'
p3180
I4793
sS'TGCCTA'
p3181
I13427
sS'ACCAGC'
p3182
I33184
sS'TCGCGT'
p3183
I3855
sS'ACCTAG'
p3184
I10318
sS'ACCCGT'
p3185
I6477
sS'AGAAAG'
p3186
I40950
sS'CGACGA'
p3187
I3611
sS'TACCCG'
p3188
I5534
sS'AGAAAC'
p3189
I28527
sS'AGATAT'
p3190
I12412
sS'AGAAAA'
p3191
I51140
sS'TACCCC'
p3192
I12900
sS'ATGTAC'
p3193
I8558
sS'ACTTCG'
p3194
I5294
sS'ATGTAA'
p3195
I15681
sS'ACCACT'
p3196
I17402
sS'ATGTAG'
p3197
I10324
sS'GTTCGA'
p3198
I3359
sS'CTACCA'
p3199
I12101
sS'GTTCCG'
p3200
I8285
sS'NTCCCC'
p3201
I1
sS'GACGAC'
p3202
I5962
sS'ATGTCG'
p3203
I3791
sS'ATGTAT'
p3204
I13394
sS'ATTAGA'
p3205
I14590
sS'CACTGA'
p3206
I27101
sS'GTTCCC'
p3207
I26493
sS'ATCCAT'
p3208
I13787
sS'AGCACT'
p3209
I25385
sS'TTAGAA'
p3210
I18651
sS'CGGCTG'
p3211
I33429
sS'TTAGAC'
p3212
I8023
sS'GGATAC'
p3213
I6905
sS'CGGCTC'
p3214
I29956
sS'TTAGAG'
p3215
I15093
sS'CGGCTA'
p3216
I5393
sS'AGCACC'
p3217
I30546
sS'AGCACA'
p3218
I31095
sS'AGCACG'
p3219
I12019
sS'CCAAAA'
p3220
I21953
sS'CGGCTT'
p3221
I13892
sS'TTAGAT'
p3222
I11959
sS'ATATCG'
p3223
I1556
sS'ACCTAT'
p3224
I6886
sS'AAAGAA'
p3225
I40922
sS'AAAGAG'
p3226
I32450
sS'ATATCA'
p3227
I10957
sS'CGACGT'
p3228
I3501
sS'TTATTT'
p3229
I39869
sS'TGTGAG'
p3230
I29835
sS'TGTGAA'
p3231
I23183
sS'ACGTCT'
p3232
I6692
sS'TGTGAC'
p3233
I21021
sS'ATATCT'
p3234
I12325
sS'CCAGCT'
p3235
I60774
sS'AAAGAT'
p3236
I21509
sS'TGTGAT'
p3237
I19218
sS'TTATTG'
p3238
I14857
sS'TTATTA'
p3239
I20417
sS'GAAAGC'
p3240
I26746
sS'TTATTC'
p3241
I15813
sS'AGACGG'
p3242
I13431
sS'TTTTAT'
p3243
I34087
sS'GCGAAC'
p3244
I5225
sS'CTTACT'
p3245
I11845
sS'TCCACT'
p3246
I23696
sS'TACAAA'
p3247
I18623
sS'AGACGA'
p3248
I6209
sS'TACAAC'
p3249
I8015
sS'CCTCTG'
p3250
I63235
sS'AGGTGG'
p3251
I47636
sS'ATTAGT'
p3252
I10294
sS'CCTCTC'
p3253
I57350
sS'AGGTGC'
p3254
I28756
sS'CCTCTA'
p3255
I16735
sS'AGGTGA'
p3256
I27396
sS'CTTACG'
p3257
I3143
sS'TCCACA'
p3258
I28264
sS'TTTTAG'
p3259
I19206
sS'TCCACC'
p3260
I33610
sS'TTTTAA'
p3261
I43276
sS'ACATCA'
p3262
I17422
sS'TTTTAC'
p3263
I17635
sS'ACATCC'
p3264
I17929
sS'AGGTGT'
p3265
I19832
sS'CCTCTT'
p3266
I34664
sS'CGTCGG'
p3267
I7928
sS'TATGAG'
p3268
I10617
sS'CCCGGA'
p3269
I26625
sS'NNCTGA'
p3270
I1
sS'CCCGGG'
p3271
I65049
sS'TATGAA'
p3272
I13710
sS'TGGAAT'
p3273
I20422
sS'TAGGTG'
p3274
I12207
sS'TTGTGC'
p3275
I16258
sS'TATGAT'
p3276
I9943
sS'TTGTGG'
p3277
I20529
sS'CCCGGT'
p3278
I15435
sS'GGCGTG'
p3279
I21928
sS'TGGAAG'
p3280
I35953
sS'TATCAC'
p3281
I9496
sS'TGGAAA'
p3282
I37072
sS'TGAGGA'
p3283
I34142
sS'AAGAGG'
p3284
I34720
sS'TGAGGC'
p3285
I39508
sS'AAGAGA'
p3286
I32493
sS'AAGAGC'
p3287
I25701
sS'TGAGGG'
p3288
I40751
sS'GCTTAG'
p3289
I12113
sS'GCTTAC'
p3290
I8314
sS'GCTTAA'
p3291
I11389
sS'TGATTC'
p3292
I15103
sS'AAGCGC'
p3293
I11487
sS'AAGAGT'
p3294
I16036
sS'AAGCGA'
p3295
I7043
sS'NGCGCC'
p3296
I1
sS'TGAGGT'
p3297
I22828
sS'GCTTAT'
p3298
I10723
sS'GTTCGG'
p3299
I6032
sS'CTGCTA'
p3300
I17256
sS'GCGTGT'
p3301
I12285
sS'CTGCTC'
p3302
I54879
sS'ACTTCT'
p3303
I20179
sS'GACCGT'
p3304
I5843
sS'CTGCTG'
p3305
I78355
sS'CGGTCA'
p3306
I7949
sS'GGTCGT'
p3307
I5441
sS'CGGTCC'
p3308
I14711
sS'CTAGAA'
p3309
I15310
sS'CTAGAC'
p3310
I8848
sS'GACCGA'
p3311
I6708
sS'GACCGC'
p3312
I12313
sS'ACTTCC'
p3313
I25648
sS'CTGCTT'
p3314
I39951
sS'ACTTCA'
p3315
I17798
sS'CTAGAT'
p3316
I9516
sS'GGTCGG'
p3317
I14214
sS'CGGTCT'
p3318
I8618
sS'GGTCGC'
p3319
I11705
sS'GGTCGA'
p3320
I4481
sS'CGTCGC'
p3321
I8055
sS'GCGTGG'
p3322
I24152
sS'GCGTGA'
p3323
I10054
sS'GCGTGC'
p3324
I15323
sS'TGCTCA'
p3325
I29437
sS'TTCATC'
p3326
I18656
sS'TGCTCC'
p3327
I40524
sS'TTCATA'
p3328
I13653
sS'TTCATG'
p3329
I17897
sS'TGCTCG'
p3330
I10643
sS'GTACAA'
p3331
I8269
sS'CAGCAG'
p3332
I78710
sS'TACACT'
p3333
I9866
sS'GCTTTG'
p3334
I28098
sS'CAGCAC'
p3335
I43631
sS'CGTCGT'
p3336
I3673
sS'ATATCC'
p3337
I8537
sS'ACGACT'
p3338
I4084
sS'TGCTCT'
p3339
I36135
sS'TTCATT'
p3340
I28690
sS'GCTTTA'
p3341
I15383
sS'GCTGCC'
p3342
I71688
sS'GCTGCA'
p3343
I51069
sS'AACTCT'
p3344
I17507
sS'TGGCCC'
p3345
I50935
sS'TGGCCA'
p3346
I45715
sS'GTAGCA'
p3347
I10845
sS'AGCAAA'
p3348
I29279
sS'TGGCCT'
p3349
I47305
sS'AACTCC'
p3350
I20246
sS'GCTGCT'
p3351
I62076
sS'AACACA'
p3352
I27474
sS'CAGTCG'
p3353
I8056
sS'AATATT'
p3354
I22530
sS'CAACCT'
p3355
I17022
sS'CAGTTA'
p3356
I13442
sS'TGGCCG'
p3357
I25267
sS'GGCACG'
p3358
I15801
sS'GGCACA'
p3359
I33028
sS'GACAAT'
p3360
I11202
sS'GGCACC'
p3361
I36540
sS'CAACCG'
p3362
I6125
sS'GTACAT'
p3363
I8666
sS'AATATG'
p3364
I14421
sS'CGGTCG'
p3365
I5803
sS'AATATA'
p3366
I16170
sS'AGCAAG'
p3367
I26925
sS'CAACCA'
p3368
I16685
sS'CTTCGT'
p3369
I6528
sS'GACAAA'
p3370
I19820
sS'GGCACT'
p3371
I27131
sS'GACAAC'
p3372
I11187
sS'ACGACA'
p3373
I4554
sS'GACAAG'
p3374
I19265
sS'GCTGCG'
p3375
I34318
sS'GCTTTT'
p3376
I28530
sS'GCAATA'
p3377
I9268
sS'GAATTT'
p3378
I19359
sS'CGATGG'
p3379
I7981
sS'TCCCAT'
p3380
I23523
sS'CGATGC'
p3381
I6520
sS'GTAAAT'
p3382
I14829
sS'CGATGA'
p3383
I5174
sS'GAATTA'
p3384
I14128
sS'GAATTC'
p3385
I14517
sS'GAATTG'
p3386
I12343
sS'TCCCAA'
p3387
I25383
sS'CGATGT'
p3388
I4435
sS'GTAAAA'
p3389
I18009
sS'GTAAAG'
p3390
I11907
sS'TCCCAG'
p3391
I67528
sS'GGATTT'
p3392
I20007
sS'AGCGGA'
p3393
I12868
sS'CAAGTA'
p3394
I10380
sS'CTATCG'
p3395
I2017
sS'GGATTC'
p3396
I15343
sS'GGATTA'
p3397
I11618
sS'AGGTCC'
p3398
I24710
sS'AGCGGC'
p3399
I27746
sS'ATGGTG'
p3400
I20348
sS'AAAGCC'
p3401
I29862
sS'TCTGTG'
p3402
I43280
sS'TCTGTC'
p3403
I32648
sS'TCTGTA'
p3404
I18693
sS'GGCGGC'
p3405
I65681
sS'CTCCTT'
p3406
I38923
sS'GGCGGA'
p3407
I25691
sS'CAGATA'
p3408
I17969
sS'GGCGGG'
p3409
I78238
sS'AACCGA'
p3410
I4951
sS'CTATCC'
p3411
I8607
sS'TCTGTT'
p3412
I30423
sS'AAAGCG'
p3413
I9159
sS'CTCCTG'
p3414
I68285
sS'AACCGT'
p3415
I4102
sS'CTCCTA'
p3416
I17622
sS'CTCCTC'
p3417
I70987
sS'GGCGGT'
p3418
I18377
sS'GACGCA'
p3419
I9402
sS'GACGCC'
p3420
I17054
sS'AACAAC'
p3421
I14280
sS'CCCACC'
p3422
I75469
sS'TACTTC'
p3423
I11364
sS'AGCCTT'
p3424
I27179
sS'AACTCG'
p3425
I5872
sS'CCGATT'
p3426
I4152
sS'CCCACT'
p3427
I37894
sS'GGTCTT'
p3428
I16753
sS'GACGCT'
p3429
I10450
sS'AGCGGT'
p3430
I8781
sS'CCGATA'
p3431
I2052
sS'AGCCTG'
p3432
I58574
sS'AGCCTA'
p3433
I12610
sS'AGCCTC'
p3434
I48603
sS'GTACCC'
p3435
I9247
sS'GAGTTT'
p3436
I18006
sS'TGGTTA'
p3437
I12027
sS'CGCCTT'
p3438
I14841
sS'TGGTTC'
p3439
I17821
sS'TCNNNN'
p3440
I2
sS'CAGAGT'
p3441
I28188
sS'GCATCT'
p3442
I23718
sS'ACCTCG'
p3443
I11823
sS'TGGTTT'
p3444
I25630
sS'CGCCTC'
p3445
I36096
sS'GCGCCA'
p3446
I20338
sS'CGCCTA'
p3447
I5827
sS'GCGCCG'
p3448
I34844
sS'CGCCTG'
p3449
I32922
sS'CAATTG'
p3450
I8621
sS'CAGAGG'
p3451
I63961
sS'GCATCC'
p3452
I23113
sS'CTCCCC'
p3453
I86310
sS'CAGAGC'
p3454
I58725
sS'AAAATT'
p3455
I30006
sS'CAGAGA'
p3456
I49561
sS'AATCAT'
p3457
I15542
sS'TAGCTA'
p3458
I7880
sS'AGACTC'
p3459
I19911
sS'CCTAGA'
p3460
I15351
sS'CCTAGC'
p3461
I15325
sS'TTTGCT'
p3462
I28989
sS'CGGGAG'
p3463
I40312
sS'TGCGGT'
p3464
I9541
sS'CCTAGG'
p3465
I19997
sS'CCCATG'
p3466
I26550
sS'TTTGCA'
p3467
I26496
sS'TTTGCC'
p3468
I23099
sS'CCTAGT'
p3469
I10261
sS'TGCGGG'
p3470
I27391
sS'TTTGCG'
p3471
I5938
sS'TGAGTT'
p3472
I17704
sS'CGGGAC'
p3473
I21578
sS'ATCGCT'
p3474
I5311
sS'ATCGCC'
p3475
I6814
sS'TGAGTG'
p3476
I26869
sS'ATCGCA'
p3477
I4110
sS'TGAGTA'
p3478
I11308
sS'ATCGCG'
p3479
I3938
sS'TGAGTC'
p3480
I20332
sS'AAGGTG'
p3481
I23319
sS'AAGGTC'
p3482
I16850
sS'CATCAT'
p3483
I16573
sS'AAGGTA'
p3484
I10876
sS'ATTTCG'
p3485
I3753
sS'AAGCGG'
p3486
I13155
sS'ACGGCA'
p3487
I9189
sS'CATCAC'
p3488
I19485
sS'AAGGTT'
p3489
I14023
sS'CATCAA'
p3490
I14077
sS'CATCAG'
p3491
I24094
sS'ACGGCG'
p3492
I10569
sS'TCACCT'
p3493
I27680
sS'TCTAAG'
p3494
I12829
sS'CGGAAT'
p3495
I4950
sS'GTGGCT'
p3496
I39579
sS'ATCGAT'
p3497
I2171
sS'TCACCG'
p3498
I11837
sS'TCACCA'
p3499
I25425
sS'TCACCC'
p3500
I31403
sS'CGGAAG'
p3501
I16058
sS'CAACCC'
p3502
I22179
sS'AACTGG'
p3503
I20843
sS'AAAATA'
p3504
I39553
sS'CGGAAC'
p3505
I8080
sS'AGCTCG'
p3506
I12468
sS'CGGAAA'
p3507
I9418
sS'GCCTCA'
p3508
I38960
sS'TGTGTC'
p3509
I26644
sS'TGTGTA'
p3510
I16951
sS'ATGGCC'
p3511
I23618
sS'ATGGCA'
p3512
I22437
sS'TCGTCC'
p3513
I9229
sS'ATGGCT'
p3514
I22917
sS'TGTGTT'
p3515
I26994
sS'CCAAGT'
p3516
I20803
sS'GCGGTC'
p3517
I12270
sS'AGATTA'
p3518
I13994
sS'GAAACG'
p3519
I9149
sS'GAAACA'
p3520
I28697
sS'AGATTG'
p3521
I12680
sS'CTGAGT'
p3522
I27786
sS'AGGTAC'
p3523
I9244
sS'GAAACT'
p3524
I20584
sS'AGAATG'
p3525
I22509
sS'AGATTT'
p3526
I22163
sS'AACTGA'
p3527
I19892
sS'ACATAC'
p3528
I10184
sS'CTGAGC'
p3529
I47896
sS'CTGAGA'
p3530
I36327
sS'CTGAGG'
p3531
I55552
sS'CATACC'
p3532
I7267
sS'CATACA'
p3533
I12725
sS'CATACG'
p3534
I2517
sS'GCAATC'
p3535
I9648
sS'TCAAAT'
p3536
I19486
sS'GTCCAT'
p3537
I12929
sS'AGGGGT'
p3538
I31965
sS'CATACT'
p3539
I8308
sS'GTCCAG'
p3540
I33212
sS'TCAAAG'
p3541
I21304
sS'CACGAG'
p3542
I10297
sS'TCAAAA'
p3543
I23246
sS'TCAAAC'
p3544
I14297
sS'CGGCGG'
p3545
I47760
sS'TTGATG'
p3546
I14169
sS'ATCGAG'
p3547
I4144
sS'CGGCGC'
p3548
I34673
sS'TTGATC'
p3549
I8807
sS'CGGCGA'
p3550
I12123
sS'TTGATA'
p3551
I10046
sS'CTATCT'
p3552
I11824
sS'TTGATT'
p3553
I16935
sS'CGAGTG'
p3554
I10424
sS'GTACGC'
p3555
I2719
sS'CCATTA'
p3556
I13088
sS'TCCAAC'
p3557
I14725
sS'CGGTTA'
p3558
I2942
sS'GGTTTA'
p3559
I11151
sS'CGGTTC'
p3560
I8364
sS'GCTGTT'
p3561
I26674
sS'TTTACA'
p3562
I20840
sS'CGGTTG'
p3563
I6078
sS'GGTTTG'
p3564
I18918
sS'CCATTG'
p3565
I14449
sS'CGAGTC'
p3566
I9348
sS'GCTGTG'
p3567
I52590
sS'GGTTTT'
p3568
I22617
sS'CGGTTT'
p3569
I6672
sS'GCTGTA'
p3570
I15381
sS'AGGGGC'
p3571
I62693
sS'TCTCAA'
p3572
I19356
sS'AGGTTG'
p3573
I16921
sS'AGGTTC'
p3574
I15962
sS'AGGTTA'
p3575
I10898
sS'CNNNNN'
p3576
I2
sS'GAGGGA'
p3577
I56354
sS'TTTTTC'
p3578
I40486
sS'GAGGGC'
p3579
I55003
sS'TTTTTA'
p3580
I39507
sS'TTTTTG'
p3581
I29616
sS'GAGGGG'
p3582
I77051
sS'TTAAAT'
p3583
I27918
sS'AGGTTT'
p3584
I19395
sS'TAAGCG'
p3585
I3736
sS'TATGCC'
p3586
I9053
sS'TTAAAC'
p3587
I14727
sS'ATACGT'
p3588
I2529
sS'TTAAAA'
p3589
I43286
sS'ACTCCG'
p3590
I10792
sS'TTAAAG'
p3591
I20196
sS'GAGGGT'
p3592
I31536
sS'TTTTTT'
p3593
I103632
sS'ACTCCC'
p3594
I29153
sS'TAGGCT'
p3595
I12719
sS'GTCACG'
p3596
I8658
sS'CTGTAC'
p3597
I12514
sS'GCAACT'
p3598
I13421
sS'GTCACC'
p3599
I23694
sS'CTGTAG'
p3600
I17166
sS'GTCACA'
p3601
I21473
sS'GCAACG'
p3602
I6605
sS'GTCACT'
p3603
I21032
sS'TAGGCG'
p3604
I5860
sS'GCAACC'
p3605
I14839
sS'CTGTAT'
p3606
I13972
sS'GCAACA'
p3607
I17682
sS'TAGGCC'
p3608
I12809
sS'ATTCAT'
p3609
I18784
sS'TCCCAC'
p3610
I39285
sS'GCGATT'
p3611
I4359
sS'TCGTGT'
p3612
I5429
sS'TTCACT'
p3613
I21278
sS'GTCTCT'
p3614
I28458
sS'AACATT'
p3615
I19663
sS'ATTCAG'
p3616
I20081
sS'ATTCAA'
p3617
I16463
sS'ATTCAC'
p3618
I14347
sS'GTCTCC'
p3619
I33938
sS'TCGTGG'
p3620
I10182
sS'GCGATG'
p3621
I8305
sS'TTCACC'
p3622
I19176
sS'GCGATA'
p3623
I2098
sS'TCGTGC'
p3624
I6993
sS'GCGATC'
p3625
I5514
sS'GAAGGC'
p3626
I34466
sS'GAAGGA'
p3627
I37949
sS'GAAGGG'
p3628
I46569
sS'CGATTA'
p3629
I2148
sS'GGAACC'
p3630
I22964
sS'GGAACA'
p3631
I23907
sS'GGAACG'
p3632
I9857
sS'AGCCAC'
p3633
I39279
sS'TACTGC'
p3634
I12868
sS'CGATTT'
p3635
I4598
sS'AAAACA'
p3636
I42910
sS'GAAGGT'
p3637
I20450
sS'CTCGCT'
p3638
I17209
sS'CAATCG'
p3639
I3147
sS'ATAGTC'
p3640
I6189
sS'GGAACT'
p3641
I19455
sS'TCCTGA'
p3642
I32722
sS'AGTCCA'
p3643
I20060
sS'TCCTGC'
p3644
I55158
sS'AGTCCC'
p3645
I30163
sS'ACTAAA'
p3646
I14036
sS'TCCTGG'
p3647
I64026
sS'AGTCCG'
p3648
I8452
sS'TAACGC'
p3649
I3036
sS'CAGCTG'
p3650
I74960
sS'CAGCTA'
p3651
I17284
sS'CAGCTC'
p3652
I56556
sS'ACTAAT'
p3653
I10349
sS'GATTGT'
p3654
I9802
sS'AGTCCT'
p3655
I23779
sS'TCCTGT'
p3656
I33335
sS'CAGCTT'
p3657
I33737
sS'TAACGT'
p3658
I3025
sS'AGCCAG'
p3659
I60634
sS'GTACTT'
p3660
I9459
sS'CGACAT'
p3661
I3558
sS'TTGTTC'
p3662
I17232
sS'TTGTTA'
p3663
I14244
sS'TTGTTG'
p3664
I16646
sS'AGGAAG'
p3665
I56954
sS'CCGAGC'
p3666
I24362
sS'CCGCGT'
p3667
I12578
sS'CGACAC'
p3668
I6468
sS'CGACAA'
p3669
I3826
sS'CGACAG'
p3670
I9924
sS'GTACTA'
p3671
I4608
sS'CCGCGC'
p3672
I41840
sS'TTGACG'
p3673
I3676
sS'CCGCGA'
p3674
I12065
sS'TACGCA'
p3675
I3039
sS'CCGCGG'
p3676
I40271
sS'TTGTTT'
p3677
I34407
sS'GCATAT'
p3678
I9475
sS'TCCGTT'
p3679
I5724
sS'AGCCAA'
p3680
I26147
sS'AATAAC'
p3681
I13553
sS'AATAAA'
p3682
I38534
sS'AATAAG'
p3683
I15430
sS'ATCGTT'
p3684
I2887
sS'GGATTG'
p3685
I12074
sS'TACTAA'
p3686
I9035
sS'AATAAT'
p3687
I23444
sS'CCAACC'
p3688
I22764
sS'CCAACA'
p3689
I20328
sS'CCAACG'
p3690
I7131
sS'GGGATT'
p3691
I18991
sS'CGCCGC'
p3692
I53011
sS'GTGTAT'
p3693
I10787
sS'CGCCGA'
p3694
I11579
sS'GAGTAG'
p3695
I11635
sS'CGCCGG'
p3696
I30472
sS'GAGTAA'
p3697
I11104
sS'AGTAAG'
p3698
I11867
sS'CTCAGG'
p3699
I51680
sS'CTAAAA'
p3700
I19373
sS'CTCAGC'
p3701
I51744
sS'CTCAGA'
p3702
I36202
sS'GAGTAT'
p3703
I7214
sS'GCTTCA'
p3704
I22729
sS'GTGTAG'
p3705
I10257
sS'TCGAGC'
p3706
I6238
sS'GTGTAA'
p3707
I10116
sS'GTGTAC'
p3708
I7914
sS'CGCCGT'
p3709
I10490
sS'GTGGCA'
p3710
I30086
sS'CATATT'
p3711
I14457
sS'CTCGGA'
p3712
I14320
sS'GTGGCG'
p3713
I21119
sS'GCCGCC'
p3714
I65943
sS'GCCGCA'
p3715
I22090
sS'GCCGCG'
p3716
I39035
sS'ACACTT'
p3717
I16601
sS'CTCGGT'
p3718
I11501
sS'CATATC'
p3719
I8478
sS'CATATA'
p3720
I9587
sS'TCAGCA'
p3721
I32775
sS'TGCTTA'
p3722
I15235
sS'ACACTC'
p3723
I18826
sS'ACACTA'
p3724
I9281
sS'ACACTG'
p3725
I26919
sS'GCCGCT'
p3726
I27472
sS'ACCGGA'
p3727
I7461
sS'AAATAA'
p3728
I39544
sS'ACCGGC'
p3729
I13404
sS'AAATAC'
p3730
I18595
sS'CTTTAA'
p3731
I20413
sS'AATCCT'
p3732
I17404
sS'AAATAG'
p3733
I18916
sS'AACTTA'
p3734
I10056
sS'CAGGTA'
p3735
I15032
sS'AACTTC'
p3736
I15259
sS'CAGGTC'
p3737
I30711
sS'CACGAC'
p3738
I6332
sS'CACGAA'
p3739
I6233
sS'CAGGTG'
p3740
I47771
sS'CTTTAT'
p3741
I19083
sS'AATCCC'
p3742
I18818
sS'GCTCGT'
p3743
I7039
sS'AATCCA'
p3744
I18068
sS'AAATAT'
p3745
I27531
sS'ACCGGT'
p3746
I4382
sS'GATACA'
p3747
I9695
sS'CACGAT'
p3748
I4726
sS'CAGGTT'
p3749
I21913
sS'AACTTT'
p3750
I17250
sS'GGGATA'
p3751
I10359
sS'GGGATC'
p3752
I18317
sS'GGGTGT'
p3753
I27415
sS'GGAGAT'
p3754
I23216
sS'GATGCT'
p3755
I21551
sS'CGCAGT'
p3756
I11390
sS'GAGTCG'
p3757
I8610
sS'GAGCCT'
p3758
I38330
sS'GGAGAC'
p3759
I33603
sS'GGGTGA'
p3760
I31043
sS'GGAGAA'
p3761
I41106
sS'GGGTGC'
p3762
I36688
sS'GGAGAG'
p3763
I61129
sS'TGGAAC'
p3764
I18447
sS'AATCAA'
p3765
I17144
sS'GGGTGG'
p3766
I71540
sS'GAGCCA'
p3767
I41390
sS'CGCAGG'
p3768
I31847
sS'GATGCG'
p3769
I7941
sS'CGCAGA'
p3770
I16478
sS'GATGCA'
p3771
I17908
sS'CGCAGC'
p3772
I34830
sS'GATGCC'
p3773
I21925
sS'CGGATT'
p3774
I4814
sS'GGTAGT'
p3775
I7474
sS'ACCCCT'
p3776
I31277
sS'GCCAAT'
p3777
I13296
sS'TTGCTC'
p3778
I20924
sS'AACCGC'
p3779
I7701
sS'AGAAGT'
p3780
I20566
sS'ACCCCA'
p3781
I39988
sS'GGTAGA'
p3782
I11932
sS'GCCAAA'
p3783
I20786
sS'CGGATG'
p3784
I8887
sS'GCCAAG'
p3785
I34237
sS'CGGATA'
p3786
I2479
sS'ACCCCG'
p3787
I24352
sS'CGGATC'
p3788
I7290
sS'AGAAGA'
p3789
I31756
sS'AGAAGC'
p3790
I34300
sS'GCAAGA'
p3791
I20132
sS'AGAAGG'
p3792
I39536
sS'CACTCC'
p3793
I33562
sS'CCCCGT'
p3794
I18952
sS'CACTCG'
p3795
I10495
sS'TGCGTT'
p3796
I6224
sS'GCAAGG'
p3797
I28197
sS'AGCTTT'
p3798
I24945
sS'CCCCGG'
p3799
I54138
sS'TGCGTA'
p3800
I2995
sS'CCCCGC'
p3801
I74557
sS'CACTCT'
p3802
I25322
sS'AGCTTC'
p3803
I27316
sS'AGCTTA'
p3804
I11193
sS'AGCTTG'
p3805
I21313
sS'ATACGA'
p3806
I1918
sS'AGACCA'
p3807
I22448
sS'CCACTT'
p3808
I24303
sS'TTAGCT'
p3809
I13937
sS'GTATAA'
p3810
I7582
sS'TTAGCC'
p3811
I11977
sS'TTAGCA'
p3812
I14945
sS'CTAGCA'
p3813
I12327
sS'TTAGCG'
p3814
I3788
sS'CTCATT'
p3815
I23351
sS'TACCGG'
p3816
I4289
sS'AAGGGG'
p3817
I37773
sS'ATAAGG'
p3818
I11590
sS'TGTGCT'
p3819
I30903
sS'AAGGGC'
p3820
I31188
sS'ATAAGC'
p3821
I10760
sS'AAGGGA'
p3822
I34350
sS'ATAAGA'
p3823
I13739
sS'CCAGAC'
p3824
I35435
sS'CTACTC'
p3825
I11608
sS'CCAGAA'
p3826
I37028
sS'CCAGAG'
p3827
I59146
sS'GCAAGT'
p3828
I15223
sS'TGTGCG'
p3829
I13801
sS'CTACCT'
p3830
I14116
sS'ATAAGT'
p3831
I9177
sS'AAGGGT'
p3832
I17571
sS'TGTGCC'
p3833
I32778
sS'ATAGGA'
p3834
I11156
sS'TGTGCA'
p3835
I29220
sS'ATAGGC'
p3836
I8268
sS'GCTCGC'
p3837
I18258
sS'ATACGC'
p3838
I2118
sS'CCAGAT'
p3839
I28740
sS'AGACAA'
p3840
I21390
sS'AACAAG'
p3841
I19355
sS'AGACAC'
p3842
I26102
sS'TCCATT'
p3843
I20852
sS'AGACAG'
p3844
I38990
sS'TTTTCT'
p3845
I50933
sS'CGCTGT'
p3846
I14811
sS'CCCACG'
p3847
I26244
sS'TCAAGA'
p3848
I16030
sS'CGTGGG'
p3849
I25725
sS'CGTGGC'
p3850
I21506
sS'CGTGGA'
p3851
I14077
sS'TTTTCG'
p3852
I5014
sS'CCCACA'
p3853
I45503
sS'CGCTGC'
p3854
I34804
sS'TTTTCC'
p3855
I40009
sS'TTTTCA'
p3856
I33572
sS'CGCTGG'
p3857
I30472
sS'TATGGA'
p3858
I10624
sS'TATGGC'
p3859
I9664
sS'CGTAGG'
p3860
I5286
sS'GACGCG'
p3861
I11982
sS'TATGGG'
p3862
I10383
sS'CGTAGC'
p3863
I4905
sS'TACCGT'
p3864
I2768
sS'TGGACT'
p3865
I20072
sS'CGTAGT'
p3866
I2993
sS'GCTCGA'
p3867
I6424
sS'TATGGT'
p3868
I8293
sS'TGGACA'
p3869
I25721
sS'TGGACC'
p3870
I20006
sS'TGGACG'
p3871
I11121
sS'CGTTAC'
p3872
I2658
sS'CCGGTT'
p3873
I7311
sS'GACCAA'
p3874
I12899
sS'GCTTGA'
p3875
I14984
sS'TGAGAC'
p3876
I19802
sS'GCTTGC'
p3877
I19681
sS'TGAGAA'
p3878
I29357
sS'GCCAAC'
p3879
I16418
sS'TGAGAG'
p3880
I29852
sS'GCTTGG'
p3881
I30048
sS'CCTGTT'
p3882
I26069
sS'CCGGTG'
p3883
I16976
sS'CCTTGC'
p3884
I28030
sS'ACTTAT'
p3885
I9393
sS'CCTGTC'
p3886
I37588
sS'CCTGTA'
p3887
I16769
sS'CCTGTG'
p3888
I48982
sS'GCTTGT'
p3889
I17204
sS'TGAGAT'
p3890
I20314
sS'ATCGTA'
p3891
I1793
sS'GGTTGT'
p3892
I12612
sS'TATCAG'
p3893
I13170
sS'AATTCN'
p3894
I1
sS'TAGCGT'
p3895
I2972
sS'GGTTGG'
p3896
I22656
sS'AACAAT'
p3897
I16160
sS'GGTTGA'
p3898
I11243
sS'GGTTGC'
p3899
I15071
sS'TCCCGC'
p3900
I32219
sS'GTAACG'
p3901
I2715
sS'TCCCGG'
p3902
I35433
sS'TGCTAT'
p3903
I12493
sS'CGTTTT'
p3904
I8278
sS'ATTCTC'
p3905
I18934
sS'CTATAC'
p3906
I4541
sS'ATTCTA'
p3907
I13169
sS'ATTCTG'
p3908
I23320
sS'TCATTT'
p3909
I32931
sS'CAGCGA'
p3910
I14762
sS'TGCTAA'
p3911
I15135
sS'TATACT'
p3912
I7439
sS'TGCTAG'
p3913
I12394
sS'CAGCGG'
p3914
I31521
sS'AGGATC'
p3915
I15569
sS'TCATTC'
p3916
I20143
sS'CGTTTG'
p3917
I6750
sS'CGTTTA'
p3918
I3992
sS'ATTCTT'
p3919
I19401
sS'CGTTTC'
p3920
I9250
sS'ACCGGG'
p3921
I15350
sS'TGGCAA'
p3922
I22679
sS'CCGATC'
p3923
I4748
sS'TGGCAG'
p3924
I51879
sS'GCTGAG'
p3925
I52164
sS'GCTGAA'
p3926
I25951
sS'GCTGAC'
p3927
I25186
sS'TGGCAT'
p3928
I21496
sS'GGCCGG'
p3929
I53496
sS'NNGATC'
p3930
I2
sS'CCGATG'
p3931
I6403
sS'GGCCGC'
p3932
I50354
sS'GAACTT'
p3933
I13911
sS'GGCCGA'
p3934
I20090
sS'GGCAAT'
p3935
I12756
sS'ATCNNN'
p3936
I1
sS'CTGATT'
p3937
I20645
sS'CCATCG'
p3938
I7837
sS'CTAAAT'
p3939
I15278
sS'CCATCC'
p3940
I33519
sS'CCATCA'
p3941
I21530
sS'GGCAAG'
p3942
I27570
sS'CTGATA'
p3943
I13133
sS'TGGTTG'
p3944
I16478
sS'CTGATG'
p3945
I23846
sS'GGCAAA'
p3946
I23378
sS'CTAAAG'
p3947
I13662
sS'CCATCT'
p3948
I32620
sS'CTAAAC'
p3949
I10414
sS'GACATC'
p3950
I14818
sS'GACACC'
p3951
I22263
sS'TACGAT'
p3952
I1877
sS'GACACG'
p3953
I10682
sS'CTACAC'
p3954
I10362
sS'AGGCAT'
p3955
I21195
sS'AATTCT'
p3956
I19941
sS'TACGAG'
p3957
I3047
sS'TACGAC'
p3958
I2057
sS'GGAAAG'
p3959
I40802
sS'GACACT'
p3960
I18444
sS'CGTGAG'
p3961
I12485
sS'TGTTAC'
p3962
I10386
sS'CTATTG'
p3963
I8364
sS'GCATAA'
p3964
I9347
sS'CTATTC'
p3965
I9519
sS'GGTTCC'
p3966
I22994
sS'TCGATG'
p3967
I4187
sS'TCGATA'
p3968
I1469
sS'TCGATC'
p3969
I2768
sS'ACGCTT'
p3970
I5594
sS'CGCGAA'
p3971
I4893
sS'GCATTG'
p3972
I12999
sS'CAGCCT'
p3973
I68437
sS'TCGATT'
p3974
I2789
sS'CTACCG'
p3975
I5123
sS'TCGGCA'
p3976
I8374
sS'ACGAAA'
p3977
I4560
sS'ACAATG'
p3978
I15490
sS'AACCAA'
p3979
I16288
sS'TGCCGG'
p3980
I20664
sS'AACCAC'
p3981
I17562
sS'TGCCGC'
p3982
I21292
sS'AACCAG'
p3983
I25157
sS'TGCCGA'
p3984
I8098
sS'TTGGAC'
p3985
I11819
sS'TCGGGC'
p3986
I17601
sS'CGCGAG'
p3987
I13754
sS'ATGATC'
p3988
I9596
sS'AGGCAG'
p3989
I70166
sS'TGCCGT'
p3990
I9289
sS'AACCAT'
p3991
I12731
sS'AACAGA'
p3992
I30580
sS'GGGAGT'
p3993
I28643
sS'AACAGC'
p3994
I26823
sS'CTACCC'
p3995
I15984
sS'AACAGG'
p3996
I26089
sS'ACGTCA'
p3997
I6843
sS'CCCAAG'
p3998
I36370
sS'TTGGAG'
p3999
I26360
sS'GACGAA'
p4000
I4476
sS'CCCAAC'
p4001
I24383
sS'CCCAAA'
p4002
I28504
sS'GGGAGG'
p4003
I112298
sS'GGGAGA'
p4004
I54511
sS'AACAGT'
p4005
I16975
sS'GGGAGC'
p4006
I61210
sS'ACGAAG'
p4007
I6680
sS'CCCAAT'
p4008
I12056
sS'AGTCTT'
p4009
I15500
sS'GACGAT'
p4010
I3333
sS'GGGCGC'
p4011
I48508
sS'GGGCGA'
p4012
I19399
sS'GCATCA'
p4013
I16283
sS'GGGCGG'
p4014
I74251
sS'TCTCTT'
p4015
I32016
sS'GTACAG'
p4016
I12306
sS'TCATAC'
p4017
I7208
sS'CAGAAT'
p4018
I23248
sS'GTACAC'
p4019
I7984
sS'TCTCTC'
p4020
I45926
sS'TCTCTA'
p4021
I17794
sS'TCTCTG'
p4022
I49622
sS'GGGCGT'
p4023
I18521
sS'CAGAAA'
p4024
I43032
sS'CAGAAC'
p4025
I25796
sS'ACGACG'
p4026
I3770
sS'CAGAAG'
p4027
I40260
sS'CACTTT'
p4028
I24695
sS'CCTAAT'
p4029
I11508
sS'CGCTAG'
p4030
I5289
sS'CACTTG'
p4031
I20441
sS'CCTAAC'
p4032
I9958
sS'CCTAAA'
p4033
I14432
sS'CACTTC'
p4034
I24455
sS'CCTAAG'
p4035
I14046
sS'CACTTA'
p4036
I14791
sS'GTCCCA'
p4037
I29052
sS'CTGCGG'
p4038
I36300
sS'AAGATT'
p4039
I15377
sS'CTCATG'
p4040
I19313
sS'GACTCG'
p4041
I9354
sS'CTCATC'
p4042
I22869
sS'GACTCC'
p4043
I25422
sS'CTCATA'
p4044
I10389
sS'GACTCA'
p4045
I20185
sS'AAGATA'
p4046
I16017
sS'AGTCGG'
p4047
I9289
sS'AAGATG'
p4048
I22143
sS'GACTCT'
p4049
I19293
sS'GTCCCG'
p4050
I21474
sS'ATCGAA'
p4051
I2552
sS'ATCGAC'
p4052
I2277
sS'CAGGCA'
p4053
I58856
sS'ATATTT'
p4054
I27908
sS'ACGGTA'
p4055
I2673
sS'AACTAA'
p4056
I12090
sS'ATAGTT'
p4057
I8833
sS'TACTGT'
p4058
I13101
sS'ATATTC'
p4059
I11920
sS'ATATTA'
p4060
I14290
sS'ATATTG'
p4061
I10336
sS'ATAGTA'
p4062
I7283
sS'TACTGA'
p4063
I12838
sS'TACTGG'
p4064
I12608
sS'ATAGTG'
p4065
I8425
sS'CTATGG'
p4066
I10118
sS'ACGGAC'
p4067
I6578
sS'CAGGCC'
p4068
I76040
sS'CATCCG'
p4069
I8688
sS'ACGGAG'
p4070
I14051
sS'CATCCA'
p4071
I23867
sS'CAGGCG'
p4072
I32650
sS'CATCCC'
p4073
I33229
sS'TTATGA'
p4074
I13523
sS'TTATGC'
p4075
I9501
sS'CGGAGT'
p4076
I10807
sS'TTATGG'
p4077
I11034
sS'CATCCT'
p4078
I29294
sS'AGGAAT'
p4079
I21126
sS'CAGGCT'
p4080
I59103
sS'ACGGAT'
p4081
I4162
sS'CGGAGA'
p4082
I17206
sS'CGGAGC'
p4083
I30394
sS'TTATGT'
p4084
I14588
sS'CGGAGG'
p4085
I33084
sS'ATGGAA'
p4086
I22662
sS'ATGGAC'
p4087
I12957
sS'ATGGAG'
p4088
I27312
sS'CGCTTG'
p4089
I9372
sS'CGCTTA'
p4090
I3758
sS'CGCTTC'
p4091
I14874
sS'ATGGAT'
p4092
I13640
sS'TGCGGC'
p4093
I22088
sS'CGCTTT'
p4094
I9354
sS'GCCGTG'
p4095
I20077
sS'CAAGCC'
p4096
I28073
sS'TGCGGA'
p4097
I12438
sS'GAAAAG'
p4098
I33398
sS'TAAACC'
p4099
I11013
sS'GAAAAC'
p4100
I25704
sS'ATAGAT'
p4101
I10121
sS'GAAAAA'
p4102
I40675
sS'CAAGCG'
p4103
I9317
sS'GAAAAT'
p4104
I29770
sS'CACGCA'
p4105
I15095
sS'CTACTG'
p4106
I14268
sS'ACAAGG'
p4107
I21239
sS'ACAAGA'
p4108
I18097
sS'ACAAGC'
p4109
I17440
sS'ACACGT'
p4110
I7962
sS'CTGCGT'
p4111
I14909
sS'GCGGAG'
p4112
I34220
sS'CATAAG'
p4113
I8833
sS'GTCCCT'
p4114
I34668
sS'CATAAA'
p4115
I18688
sS'GCGGAC'
p4116
I13315
sS'CATAAC'
p4117
I7850
sS'ACACGC'
p4118
I12889
sS'ACAAGT'
p4119
I13123
sS'ACACGA'
p4120
I5573
sS'ACACGG'
p4121
I12328
sS'CATAAT'
p4122
I13381
sS'GCGGAT'
p4123
I7476
sS'GCACAT'
p4124
I18159
sS'GTCCCC'
p4125
I45813
sS'ATCCCA'
p4126
I24253
sS'CTGCGA'
p4127
I12592
sS'CTGCGC'
p4128
I30739
sS'CGGCAA'
p4129
I7704
sS'CGGCAC'
p4130
I14679
sS'CGGCAG'
p4131
I30181
sS'CCTCCT'
p4132
I76740
sS'ATCAAA'
p4133
I17526
sS'AGCGCT'
p4134
I15387
sS'CGGCAT'
p4135
I6997
sS'CCTCCC'
p4136
I112615
sS'CCTCCA'
p4137
I55936
sS'CACGCC'
p4138
I22554
sS'CCTCCG'
p4139
I33089
s.