(dp0
S'GAACGT'
p1
I375
sS'CTTCTT'
p2
I1374
sS'CACCCT'
p3
I3770
sS'ATTGAA'
p4
I1309
sS'GAACGG'
p5
I1390
sS'GAACGC'
p6
I1607
sS'GAACGA'
p7
I722
sS'CAACAT'
p8
I332
sS'CACCCA'
p9
I7397
sS'CTTCTA'
p10
I3122
sS'CACCCC'
p11
I10860
sS'CTTCTC'
p12
I6395
sS'CACCCG'
p13
I5350
sS'CTTCTG'
p14
I8086
sS'CGTGTG'
p15
I3323
sS'TAAGGT'
p16
I431
sS'CGTGTC'
p17
I1642
sS'CGTGTA'
p18
I875
sS'AGGCAA'
p19
I2489
sS'GGAAAT'
p20
I770
sS'TAAGGG'
p21
I1696
sS'CGTGTT'
p22
I360
sS'TAAGGC'
p23
I1521
sS'TAAGGA'
p24
I1613
sS'TCACTG'
p25
I2241
sS'GTCAAA'
p26
I2980
sS'GTCAAC'
p27
I2365
sS'GTCAAG'
p28
I3411
sS'CTGTCC'
p29
I10196
sS'TCAGAG'
p30
I1579
sS'CTGTCA'
p31
I5923
sS'CTGTCG'
p32
I2267
sS'TCAGAC'
p33
I874
sS'TCAGAA'
p34
I926
sS'CTTGGT'
p35
I1151
sS'TCATAA'
p36
I826
sS'GTCAAT'
p37
I939
sS'GTATCA'
p38
I1137
sS'GTATCC'
p39
I1443
sS'GTATCG'
p40
I320
sS'CTGTCT'
p41
I4175
sS'GGTGTC'
p42
I2700
sS'GGTGTA'
p43
I1471
sS'GGTGTG'
p44
I5111
sS'TATCCT'
p45
I1135
sS'CCGGGG'
p46
I6021
sS'TTCTGT'
p47
I5356
sS'ATTCCT'
p48
I927
sS'CCGGGC'
p49
I6048
sS'CCGGGA'
p50
I3544
sS'TATCCA'
p51
I2237
sS'TATCCC'
p52
I2316
sS'TATCCG'
p53
I661
sS'GGTGTT'
p54
I587
sS'ATTCCG'
p55
I672
sS'TTCTGG'
p56
I10605
sS'CCGGGT'
p57
I1165
sS'ATTCCC'
p58
I2459
sS'TTCTGC'
p59
I11552
sS'ATTCCA'
p60
I1854
sS'TTCTGA'
p61
I7565
sS'TGCACT'
p62
I3367
sS'GGNCCC'
p63
I1
sS'CGTCAT'
p64
I477
sS'CGCGGT'
p65
I1891
sS'AGGGAG'
p66
I7542
sS'CGCGGG'
p67
I12167
sS'CGCGGC'
p68
I12441
sS'CGCGGA'
p69
I4342
sS'GTCCTT'
p70
I2213
sS'ACCTGT'
p71
I1997
sS'TCATGT'
p72
I911
sS'AGGGAC'
p73
I3760
sS'TTACAG'
p74
I1183
sS'CTCCGC'
p75
I13254
sS'TTACAA'
p76
I810
sS'TTACAC'
p77
I674
sS'CTCCGG'
p78
I9923
sS'TCATGC'
p79
I1396
sS'ACCTGG'
p80
I7735
sS'CCGTGT'
p81
I834
sS'GTAAGC'
p82
I1306
sS'TCATGG'
p83
I1491
sS'ACCTGC'
p84
I8303
sS'ACCTGA'
p85
I3709
sS'TCACTC'
p86
I1330
sS'GTATTT'
p87
I618
sS'CTCGAT'
p88
I307
sS'CTCCGT'
p89
I2162
sS'GAATTT'
p90
I419
sS'GCCTGA'
p91
I8692
sS'GCCTGC'
p92
I19372
sS'GCCTGG'
p93
I24286
sS'TAAAGG'
p94
I2735
sS'CAAATT'
p95
I352
sS'TAAAGA'
p96
I2631
sS'TAAAGC'
p97
I2429
sS'GCCTGT'
p98
I5796
sS'TATCTA'
p99
I3037
sS'TAAAGT'
p100
I1013
sS'CAAATA'
p101
I1937
sS'CAAATC'
p102
I1121
sS'TGCAAT'
p103
I1697
sS'CAAATG'
p104
I2451
sS'AATACT'
p105
I1280
sS'CGTCAC'
p106
I2145
sS'GGCATG'
p107
I5176
sS'GGCATA'
p108
I2101
sS'GGCATC'
p109
I3705
sS'AATACG'
p110
I599
sS'AATACA'
p111
I3642
sS'AATACC'
p112
I1923
sS'GGCATT'
p113
I1031
sS'CGTCAG'
p114
I2086
sS'TGCTTA'
p115
I6964
sS'GAGCAC'
p116
I5114
sS'GAGCAA'
p117
I3794
sS'CATATC'
p118
I1234
sS'GAGCAG'
p119
I11370
sS'AGTAGT'
p120
I994
sS'TCTCGC'
p121
I2543
sS'TCTCGA'
p122
I794
sS'TCTCGG'
p123
I2739
sS'AGTAGC'
p124
I2502
sS'AGTAGA'
p125
I2307
sS'AGTAGG'
p126
I2677
sS'ACTGAA'
p127
I1524
sS'AAGGTT'
p128
I555
sS'ATACAG'
p129
I770
sS'GTGTCG'
p130
I1842
sS'TCGAAC'
p131
I292
sS'TCGAAA'
p132
I240
sS'GTGTCC'
p133
I7680
sS'TCGAAG'
p134
I527
sS'GTGTCA'
p135
I4229
sS'ATTTGC'
p136
I2981
sS'CTTGCT'
p137
I1874
sS'TCGGTC'
p138
I741
sS'GTGTCT'
p139
I3611
sS'TTGAAG'
p140
I2025
sS'TCGAAT'
p141
I103
sS'CTTGCG'
p142
I1729
sS'CTTGCA'
p143
I2886
sS'CTTGCC'
p144
I4180
sS'CGAAAG'
p145
I639
sS'CGAAAA'
p146
I311
sS'CGAAAC'
p147
I410
sS'CACGGA'
p148
I2485
sS'AAATGC'
p149
I2572
sS'CACGGC'
p150
I4870
sS'AAATGA'
p151
I2774
sS'ACAGTC'
p152
I943
sS'CACGGG'
p153
I4421
sS'ACAGTA'
p154
I955
sS'CGAAAT'
p155
I128
sS'ACAGTT'
p156
I274
sS'AATCAG'
p157
I4060
sS'CACGGT'
p158
I1126
sS'AAATGT'
p159
I1348
sS'AATCAC'
p160
I3417
sS'GGGTCT'
p161
I2741
sS'TCTAGT'
p162
I648
sS'TTGCCG'
p163
I1747
sS'TTGCCA'
p164
I3709
sS'TTGCCC'
p165
I4498
sS'GGGTAC'
p166
I1179
sS'TCTAGG'
p167
I2295
sS'ATACGC'
p168
I232
sS'TCTAGA'
p169
I1534
sS'GGGTAG'
p170
I1801
sS'TCTAGC'
p171
I1721
sS'ATACGG'
p172
I255
sS'GGCTCC'
p173
I21315
sS'AGATGT'
p174
I1205
sS'TCGCCC'
p175
I2355
sS'TCGCCA'
p176
I1030
sS'ATAGTC'
p177
I423
sS'TCGCCG'
p178
I1467
sS'GGTAAT'
p179
I691
sS'ACCCAT'
p180
I636
sS'GTGTAT'
p181
I849
sS'ACCCAC'
p182
I3418
sS'GGTAAC'
p183
I1579
sS'ACCCAA'
p184
I2038
sS'AGATGG'
p185
I3013
sS'ACCCAG'
p186
I5023
sS'AGATGA'
p187
I1894
sS'TCGCCT'
p188
I797
sS'AGATGC'
p189
I2538
sS'CCCCAT'
p190
I1289
sS'TTGGGT'
p191
I894
sS'CACTAG'
p192
I3053
sS'CACTAA'
p193
I3965
sS'CACTAC'
p194
I3047
sS'CCCCAA'
p195
I3388
sS'CCCCAC'
p196
I7232
sS'CCCCAG'
p197
I8981
sS'CACTAT'
p198
I1181
sS'TTGGGG'
p199
I4069
sS'TCGGTT'
p200
I177
sS'TTGGGA'
p201
I2427
sS'TTGGGC'
p202
I2795
sS'TGCCTG'
p203
I15055
sS'TGCAGA'
p204
I9768
sS'TTTCTG'
p205
I7036
sS'TGCAGC'
p206
I14614
sS'TGCCTC'
p207
I8985
sS'TGCCTA'
p208
I3840
sS'TGCAGG'
p209
I14476
sS'ACGCCT'
p210
I695
sS'GTATCT'
p211
I954
sS'TTTCTT'
p212
I1398
sS'TGCCTT'
p213
I2312
sS'TGCAGT'
p214
I4493
sS'ACAATT'
p215
I285
sS'AAGGAA'
p216
I4537
sS'AAGGAC'
p217
I3398
sS'AAGGAG'
p218
I6208
sS'ATATGC'
p219
I1195
sS'ATATGA'
p220
I1171
sS'TACGAA'
p221
I543
sS'ATATGG'
p222
I1176
sS'AAGGAT'
p223
I806
sS'CTATCA'
p224
I1456
sS'ACATTT'
p225
I607
sS'TGGTTT'
p226
I982
sS'ATATGT'
p227
I833
sS'ACTATT'
p228
I263
sS'GGTCCC'
p229
I6462
sS'GCCCAG'
p230
I12791
sS'GGTCCA'
p231
I2490
sS'GCCCAA'
p232
I3291
sS'GGTCCG'
p233
I2526
sS'GCCCAC'
p234
I6694
sS'ATGGCG'
p235
I1861
sS'AGACCC'
p236
I2395
sS'AGACCA'
p237
I1310
sS'CTTCGA'
p238
I1045
sS'CTTCGC'
p239
I2764
sS'CTTAGT'
p240
I824
sS'AGGTCC'
p241
I4856
sS'AGGTCA'
p242
I3723
sS'AAAGTT'
p243
I288
sS'TCCGGC'
p244
I5248
sS'GGTCCT'
p245
I1896
sS'TCCGGA'
p246
I2476
sS'CTACCT'
p247
I774
sS'ATTGTG'
p248
I1987
sS'CTTAGA'
p249
I1976
sS'TCTTGC'
p250
I3612
sS'CTTAGG'
p251
I2490
sS'ATTGTC'
p252
I1047
sS'TCTTGG'
p253
I3741
sS'GCCTTT'
p254
I3405
sS'ATTTTG'
p255
I3574
sS'GAGGTG'
p256
I9990
sS'ATTTTA'
p257
I5300
sS'TCCAGA'
p258
I7240
sS'ATTTTC'
p259
I2822
sS'TCCAGC'
p260
I11729
sS'TAGCAG'
p261
I2768
sS'GATACT'
p262
I1249
sS'TAGCAC'
p263
I1692
sS'TAGCAA'
p264
I1813
sS'TAAATA'
p265
I3241
sS'CGCTAA'
p266
I1333
sS'GCCTTG'
p267
I12337
sS'ACAATC'
p268
I582
sS'GCCTTA'
p269
I4998
sS'TTGACA'
p270
I1874
sS'TAAATG'
p271
I2968
sS'GATACG'
p272
I697
sS'TAGCAT'
p273
I655
sS'GATACC'
p274
I2052
sS'GATTTC'
p275
I4312
sS'TGAGCT'
p276
I1127
sS'ACGGAC'
p277
I543
sS'GATCAT'
p278
I939
sS'AAGACA'
p279
I4486
sS'AAGACC'
p280
I3704
sS'ACAATG'
p281
I1552
sS'AAGACG'
p282
I1822
sS'GATCAG'
p283
I3622
sS'TGAGCG'
p284
I1444
sS'TGAGCA'
p285
I2366
sS'TGAGCC'
p286
I3324
sS'AAGACT'
p287
I1564
sS'ACCACG'
p288
I2533
sS'GCGGTA'
p289
I785
sS'GCGGTG'
p290
I4278
sS'CTATCG'
p291
I367
sS'CGGTGT'
p292
I1055
sS'TCGTTA'
p293
I494
sS'TCGTTC'
p294
I646
sS'CTTCCC'
p295
I9834
sS'TCGTTG'
p296
I778
sS'GAGTTT'
p297
I1190
sS'GCGGTT'
p298
I371
sS'AGTAAA'
p299
I2906
sS'ATGTGA'
p300
I2831
sS'ACTTGA'
p301
I2015
sS'CGGTGG'
p302
I4066
sS'ACTTGG'
p303
I2729
sS'CGGTGA'
p304
I1885
sS'CGGTGC'
p305
I3743
sS'TTCCTA'
p306
I5530
sS'TAGACT'
p307
I965
sS'TTCCTC'
p308
I10231
sS'ACTGAC'
p309
I1779
sS'CTTCCG'
p310
I3936
sS'TGGGTT'
p311
I599
sS'TTCCTG'
p312
I14956
sS'TCCTTT'
p313
I3437
sS'CAGTTG'
p314
I3451
sS'ACGCTA'
p315
I510
sS'TAGACG'
p316
I806
sS'TTCCTT'
p317
I3117
sS'TAGACC'
p318
I1730
sS'TAGACA'
p319
I2471
sS'TCCTTG'
p320
I10094
sS'TCCTTA'
p321
I6099
sS'TCCTTC'
p322
I11032
sS'ATCTCT'
p323
I3068
sS'ACCGTT'
p324
I286
sS'TGGCGC'
p325
I3615
sS'TGGCGA'
p326
I1413
sS'TGGCGG'
p327
I5003
sS'ATCTCG'
p328
I1792
sS'ATCTCA'
p329
I4938
sS'ATCTCC'
p330
I6465
sS'GGCCAA'
p331
I4681
sS'GTAAAT'
p332
I566
sS'GGCCAC'
p333
I7448
sS'ACCGTG'
p334
I2089
sS'ACCGTA'
p335
I616
sS'GGCCAG'
p336
I11821
sS'ACCGTC'
p337
I1310
sS'ACCGAC'
p338
I1096
sS'AGAATT'
p339
I391
sS'GGCAGT'
p340
I4517
sS'CCATAA'
p341
I628
sS'CAAAGG'
p342
I3718
sS'CCATAC'
p343
I516
sS'CAAAGA'
p344
I2734
sS'AGATTC'
p345
I870
sS'CAAAGC'
p346
I3651
sS'CAACGT'
p347
I248
sS'GGCAGA'
p348
I10385
sS'GGCAGC'
p349
I20014
sS'AACGTA'
p350
I918
sS'GGCAGG'
p351
I21969
sS'CAACGC'
p352
I866
sS'CAAAGT'
p353
I960
sS'CAACGA'
p354
I391
sS'CTAACC'
p355
I1579
sS'CCATAT'
p356
I444
sS'CTAACG'
p357
I532
sS'GGGGGT'
p358
I1790
sS'TACGCT'
p359
I579
sS'AGATTG'
p360
I1177
sS'CGATCT'
p361
I232
sS'CTCTAG'
p362
I4842
sS'CTCTAA'
p363
I4744
sS'CTCTAC'
p364
I4057
sS'GGGGGG'
p365
I3880
sS'TACGCA'
p366
I978
sS'TACGCC'
p367
I1322
sS'GGGGGC'
p368
I7369
sS'CGATCG'
p369
I241
sS'GGGGGA'
p370
I4061
sS'TACGCG'
p371
I946
sS'CTCTAT'
p372
I1636
sS'ACCGAA'
p373
I630
sS'CAGACC'
p374
I6348
sS'CAGACA'
p375
I6209
sS'CAGACG'
p376
I2692
sS'ACGTGA'
p377
I1110
sS'TAGTTG'
p378
I1862
sS'GCTAAT'
p379
I726
sS'TAGTTC'
p380
I1596
sS'TAGTTA'
p381
I2168
sS'CAGACT'
p382
I2091
sS'TGCTGA'
p383
I9232
sS'TAGTTT'
p384
I713
sS'GCTAAC'
p385
I1232
sS'TCAGGG'
p386
I2595
sS'GCTAAA'
p387
I1560
sS'CGAGTA'
p388
I362
sS'TGCATT'
p389
I1538
sS'GCGAAA'
p390
I528
sS'AACCCT'
p391
I2584
sS'AACCCC'
p392
I5887
sS'AACCCA'
p393
I4970
sS'TGCATA'
p394
I3317
sS'ATGCAC'
p395
I1606
sS'TGCATC'
p396
I3508
sS'AGATTT'
p397
I386
sS'ACGTAA'
p398
I368
sS'CTACAC'
p399
I773
sS'AGTTTC'
p400
I3452
sS'AGTTTA'
p401
I3700
sS'CCCAGA'
p402
I9257
sS'CCCAGC'
p403
I19259
sS'CCCAGG'
p404
I18300
sS'AACTGT'
p405
I3073
sS'AGTTTT'
p406
I981
sS'CTACAT'
p407
I330
sS'CGAGTC'
p408
I824
sS'CCCAGT'
p409
I3812
sS'TTGACG'
p410
I681
sS'TATAAT'
p411
I1481
sS'CGCATA'
p412
I670
sS'ATACTG'
p413
I1003
sS'CGCATC'
p414
I1882
sS'ATACTA'
p415
I563
sS'ATACTC'
p416
I498
sS'CGCATG'
p417
I2602
sS'GCGCAA'
p418
I665
sS'GCGAAT'
p419
I181
sS'ACTTGC'
p420
I2509
sS'ATACTT'
p421
I150
sS'CTTTTC'
p422
I5542
sS'GCGCAC'
p423
I1813
sS'GCTCCG'
p424
I5716
sS'TATTGT'
p425
I2090
sS'GCTCCC'
p426
I8818
sS'GCTCCA'
p427
I5042
sS'CCTACT'
p428
I1015
sS'TGTACT'
p429
I1161
sS'TTTAGT'
p430
I1073
sS'TATTGG'
p431
I2425
sS'GCTCCT'
p432
I3403
sS'GCGCAG'
p433
I3551
sS'TATTGA'
p434
I2778
sS'TTTAGG'
p435
I2117
sS'TGTACG'
p436
I717
sS'CCTACG'
p437
I916
sS'TGTACA'
p438
I2501
sS'CCTACA'
p439
I1547
sS'ACAGTG'
p440
I2065
sS'TTTAGA'
p441
I2660
sS'TTCGCG'
p442
I1590
sS'TTCGCA'
p443
I1203
sS'TTCGCC'
p444
I2530
sS'AGTATC'
p445
I969
sS'GACTAA'
p446
I3849
sS'AGTATA'
p447
I1315
sS'GACTAC'
p448
I3232
sS'AGTATG'
p449
I1528
sS'TTTGGA'
p450
I2288
sS'TTTGGC'
p451
I2477
sS'TTCGCT'
p452
I1086
sS'CTTTTA'
p453
I6211
sS'GACTAT'
p454
I1323
sS'AGTATT'
p455
I454
sS'TTACTC'
p456
I859
sS'TTACTA'
p457
I1019
sS'TTACTG'
p458
I1688
sS'ACCTTG'
p459
I6010
sS'ACCTTC'
p460
I4898
sS'ACCTTA'
p461
I2935
sS'GTAAAC'
p462
I1213
sS'ACCTTT'
p463
I1278
sS'ACAGGG'
p464
I2588
sS'CTGGGA'
p465
I7720
sS'CTGGGC'
p466
I10534
sS'ACAGGC'
p467
I2481
sS'ACAGGA'
p468
I2163
sS'CTGGGG'
p469
I11427
sS'AGGACG'
p470
I3300
sS'GCAGCT'
p471
I3247
sS'CAGGAA'
p472
I4442
sS'TTTCAT'
p473
I1181
sS'AGGACC'
p474
I5542
sS'AGGACA'
p475
I5075
sS'GCGCAT'
p476
I503
sS'TTATAC'
p477
I765
sS'ACAGGT'
p478
I605
sS'CTGGGT'
p479
I2655
sS'TTATAG'
p480
I792
sS'CTCCGA'
p481
I3806
sS'TCGCTG'
p482
I2370
sS'GCAGCG'
p483
I4478
sS'AGGACT'
p484
I2274
sS'TCGCTC'
p485
I1668
sS'GCAGCC'
p486
I8797
sS'CAGGAT'
p487
I959
sS'CCTCAG'
p488
I5114
sS'CCTCAA'
p489
I1907
sS'CCTCAC'
p490
I3713
sS'TATGTT'
p491
I693
sS'ATGGGC'
p492
I2350
sS'TCTTTG'
p493
I5935
sS'ATGGGA'
p494
I2397
sS'TCTTTA'
p495
I4596
sS'ATGGGG'
p496
I3315
sS'TCTTTC'
p497
I4936
sS'CCTCAT'
p498
I858
sS'TGCGAT'
p499
I362
sS'TATGTG'
p500
I3458
sS'TATGTA'
p501
I3064
sS'ATGGGT'
p502
I655
sS'TATGTC'
p503
I1602
sS'GAAAGA'
p504
I5245
sS'ATCAAG'
p505
I2551
sS'GAAAGC'
p506
I5459
sS'TCATGA'
p507
I1016
sS'GAAAGG'
p508
I7238
sS'ATCAAA'
p509
I3203
sS'GGAACT'
p510
I1148
sS'CATGAG'
p511
I2836
sS'ATCAAT'
p512
I839
sS'TCAAAC'
p513
I905
sS'CATGAC'
p514
I2396
sS'CATGAA'
p515
I2377
sS'GTAGCG'
p516
I991
sS'CAAGTT'
p517
I283
sS'GCTTTG'
p518
I7236
sS'GTAGCC'
p519
I2070
sS'GTAGCA'
p520
I1527
sS'AGCGGT'
p521
I1356
sS'AAAGTA'
p522
I1538
sS'GCGGCG'
p523
I7383
sS'CAAGTG'
p524
I1952
sS'GTAGCT'
p525
I913
sS'GCGGCC'
p526
I8819
sS'CAAGTC'
p527
I1314
sS'GCGGCA'
p528
I3077
sS'CAAGTA'
p529
I1084
sS'AACGGT'
p530
I664
sS'CGTACG'
p531
I439
sS'GGGGAA'
p532
I2929
sS'TAATCG'
p533
I277
sS'GGTCTT'
p534
I827
sS'TAATCA'
p535
I1873
sS'TAATCC'
p536
I1472
sS'GGGTTT'
p537
I900
sS'CGGCCC'
p538
I8809
sS'CGGCCA'
p539
I3638
sS'CGCTAT'
p540
I466
sS'CGGCCG'
p541
I6021
sS'TCGTGA'
p542
I525
sS'CTTGTA'
p543
I1890
sS'GGTCTG'
p544
I6913
sS'TAATCT'
p545
I919
sS'GGTCTC'
p546
I4576
sS'GGTCTA'
p547
I1627
sS'CAGTCA'
p548
I4407
sS'AAAATG'
p549
I2965
sS'AAAATC'
p550
I1005
sS'TCAATA'
p551
I921
sS'CGGCCT'
p552
I2680
sS'TTCAGC'
p553
I7318
sS'TTCAGA'
p554
I6225
sS'TTCAGG'
p555
I7454
sS'GAACAT'
p556
I416
sS'TCGTCG'
p557
I611
sS'TTTAGC'
p558
I2058
sS'TGCCAA'
p559
I3630
sS'GAACAA'
p560
I1481
sS'ATCCCG'
p561
I2479
sS'GAACAC'
p562
I1542
sS'ATCCCC'
p563
I4603
sS'GAACAG'
p564
I2250
sS'TTTGAG'
p565
I2383
sS'GAAAGT'
p566
I1582
sS'AACGGA'
p567
I1460
sS'CACCAC'
p568
I5846
sS'CACCAA'
p569
I3571
sS'CACCAG'
p570
I7228
sS'TCCGTG'
p571
I3255
sS'AACGGG'
p572
I2442
sS'TCCGTC'
p573
I2095
sS'TCCGTA'
p574
I896
sS'ACCAGA'
p575
I4694
sS'CACCAT'
p576
I1521
sS'AACATG'
p577
I5068
sS'AACATA'
p578
I3878
sS'AACATC'
p579
I3258
sS'GTCAGC'
p580
I7913
sS'GCACGG'
p581
I1457
sS'TCAGCC'
p582
I3576
sS'GCACGA'
p583
I574
sS'GTCAGG'
p584
I9171
sS'GCACGC'
p585
I1717
sS'TCAGCG'
p586
I1388
sS'AACAAC'
p587
I4236
sS'GCACCA'
p588
I1919
sS'GCAAGC'
p589
I2233
sS'GCACGT'
p590
I470
sS'CAGTCT'
p591
I2413
sS'GCAAGG'
p592
I3037
sS'GTCAGT'
p593
I2909
sS'GTATAC'
p594
I458
sS'TTCCGT'
p595
I1160
sS'CCACCA'
p596
I2407
sS'GTATAG'
p597
I423
sS'CCGGAA'
p598
I1292
sS'CCGGAC'
p599
I1248
sS'CCGGAG'
p600
I2352
sS'CGTCTT'
p601
I583
sS'CTCGTA'
p602
I922
sS'TTCCGG'
p603
I4762
sS'TTCCGA'
p604
I1753
sS'TTCCGC'
p605
I4450
sS'GTATAT'
p606
I369
sS'TATCAC'
p607
I2263
sS'CGTCTA'
p608
I969
sS'CGTCTG'
p609
I3830
sS'CCGGAT'
p610
I250
sS'CTCTTC'
p611
I12783
sS'TGTTAT'
p612
I1291
sS'CTCTTA'
p613
I7240
sS'CTCTTG'
p614
I11159
sS'AGGGCT'
p615
I3125
sS'TACGTA'
p616
I815
sS'TACGTC'
p617
I814
sS'TCTGGT'
p618
I1336
sS'CGCGAT'
p619
I459
sS'TACGTG'
p620
I1730
sS'TGTTAG'
p621
I2424
sS'GCTGTT'
p622
I1024
sS'CTCGTG'
p623
I2812
sS'CTCTTT'
p624
I4417
sS'TGTTAA'
p625
I3344
sS'TCTGGG'
p626
I6262
sS'CGCGAC'
p627
I2355
sS'GATATT'
p628
I707
sS'TCTGGC'
p629
I4854
sS'TACGTT'
p630
I270
sS'TCTGGA'
p631
I3444
sS'AGTCGT'
p632
I593
sS'TTACCT'
p633
I609
sS'CTCCAT'
p634
I2169
sS'ACTAGA'
p635
I1232
sS'TTACCG'
p636
I393
sS'CTCCAC'
p637
I7694
sS'AGTCGG'
p638
I2446
sS'TTACCC'
p639
I1197
sS'CTCCAG'
p640
I12345
sS'TTACCA'
p641
I1009
sS'AGTCGC'
p642
I2355
sS'CCGACT'
p643
I702
sS'GCCTAC'
p644
I3056
sS'AATGCA'
p645
I4218
sS'GCCTAG'
p646
I4359
sS'CCGACA'
p647
I914
sS'GATATC'
p648
I1197
sS'CCGACC'
p649
I2149
sS'CCGACG'
p650
I1028
sS'GCCTAT'
p651
I997
sS'TGACGG'
p652
I768
sS'AGGGCG'
p653
I5404
sS'CTCGTT'
p654
I562
sS'CTAAGT'
p655
I755
sS'CCCGAA'
p656
I1384
sS'CGCACA'
p657
I3689
sS'ATACAC'
p658
I603
sS'CGCACC'
p659
I5607
sS'GGGTCG'
p660
I2738
sS'ACTGCT'
p661
I1284
sS'GGGTCA'
p662
I3422
sS'CGCACG'
p663
I3599
sS'GGGTCC'
p664
I7292
sS'GAGCGT'
p665
I1681
sS'CTCACT'
p666
I4378
sS'TTTGTA'
p667
I2874
sS'ACTGCA'
p668
I3008
sS'TTTGTC'
p669
I2299
sS'ACTGCC'
p670
I3520
sS'CGCACT'
p671
I2152
sS'TTTGTG'
p672
I4218
sS'ACTGCG'
p673
I1936
sS'CTCACC'
p674
I10615
sS'CTCACA'
p675
I7495
sS'CTCACG'
p676
I3589
sS'TAGTGG'
p677
I2430
sS'GTGAGG'
p678
I7432
sS'GATTTT'
p679
I1495
sS'TAGTGC'
p680
I2138
sS'GTGAGC'
p681
I5125
sS'TAGTGA'
p682
I2139
sS'GTGAGA'
p683
I3463
sS'TCGACG'
p684
I340
sS'TCGACA'
p685
I319
sS'TCGACC'
p686
I657
sS'GATTTG'
p687
I6083
sS'GTGAGT'
p688
I2179
sS'GTGGGG'
p689
I10464
sS'GTGGGA'
p690
I5286
sS'GTGGGC'
p691
I6371
sS'TCGACT'
p692
I262
sS'CTGGTT'
p693
I860
sS'TTGAGT'
p694
I1011
sS'TCAAAA'
p695
I861
sS'CGAACG'
p696
I476
sS'CGAACC'
p697
I959
sS'CGAACA'
p698
I535
sS'CGGNCC'
p699
I1
sS'CTGGTG'
p700
I6147
sS'CTGGTA'
p701
I2163
sS'CTGGTC'
p702
I2897
sS'CTGCAA'
p703
I3004
sS'CGAACT'
p704
I372
sS'TTGCAT'
p705
I771
sS'GACGAG'
p706
I3513
sS'GCGGAA'
p707
I1228
sS'TTGCAG'
p708
I3187
sS'GAGGGA'
p709
I12906
sS'TTGCAC'
p710
I1709
sS'TTGCAA'
p711
I1719
sS'AAGATC'
p712
I1373
sS'TCCATC'
p713
I4049
sS'TCGCAT'
p714
I103
sS'GTCGTG'
p715
I2123
sS'ATTGTT'
p716
I407
sS'GTCGTA'
p717
I696
sS'GTCGTC'
p718
I1649
sS'CCGTTT'
p719
I346
sS'ACTGAT'
p720
I454
sS'ATATCG'
p721
I194
sS'GTCGTT'
p722
I372
sS'TCGCAG'
p723
I1053
sS'TCCATG'
p724
I5277
sS'CCAAGC'
p725
I2495
sS'TCGCAC'
p726
I506
sS'CCGTTG'
p727
I1227
sS'CCGTTA'
p728
I712
sS'CCGTTC'
p729
I1061
sS'AATGCT'
p730
I1669
sS'GGTACG'
p731
I693
sS'GGTACA'
p732
I1474
sS'GGTACC'
p733
I1825
sS'TATTTG'
p734
I6121
sS'CCAGTT'
p735
I377
sS'TATTTC'
p736
I4496
sS'TATTTA'
p737
I8818
sS'CCCCCT'
p738
I3648
sS'GGTACT'
p739
I814
sS'AATGCG'
p740
I1206
sS'AATGCC'
p741
I3320
sS'GAAGTC'
p742
I2047
sS'CCCCCC'
p743
I4683
sS'CCCCCA'
p744
I6945
sS'TATTTT'
p745
I2236
sS'CCCCCG'
p746
I6539
sS'CTTGAG'
p747
I2306
sS'ATGATG'
p748
I2515
sS'CTTGAC'
p749
I1680
sS'GCGTTA'
p750
I669
sS'CTTGAA'
p751
I1799
sS'TGCAAC'
p752
I3383
sS'TGCAAA'
p753
I5461
sS'TGCAAG'
p754
I4652
sS'GAAGTG'
p755
I4201
sS'ATGATT'
p756
I421
sS'CTTGAT'
p757
I520
sS'CGAATC'
p758
I349
sS'TTGAGG'
p759
I3026
sS'GCCATT'
p760
I1456
sS'CAATGT'
p761
I650
sS'TTGAGC'
p762
I2228
sS'TTGAGA'
p763
I2229
sS'GAGAAT'
p764
I1522
sS'TGTCTT'
p765
I1141
sS'CGAATA'
p766
I244
sS'ACTGAG'
p767
I2500
sS'AAGGCC'
p768
I7504
sS'ATAACC'
p769
I1029
sS'AAGGCA'
p770
I6151
sS'ATAACA'
p771
I1616
sS'AAGGCG'
p772
I3916
sS'ATAACG'
p773
I310
sS'TGTGGT'
p774
I1506
sS'TGTCTG'
p775
I9225
sS'GAGAAG'
p776
I10097
sS'GAGAAA'
p777
I7324
sS'TGTCTC'
p778
I5187
sS'GAGAAC'
p779
I4893
sS'TGTCTA'
p780
I2888
sS'TGTGGC'
p781
I5102
sS'TGTGGA'
p782
I3277
sS'TGTGGG'
p783
I6015
sS'ATAACT'
p784
I565
sS'AAGGCT'
p785
I2666
sS'TAGGCT'
p786
I1315
sS'CAATTT'
p787
I339
sS'GCCCCG'
p788
I14427
sS'ACCAAG'
p789
I2922
sS'GGTCAG'
p790
I4083
sS'GCCCCC'
p791
I12736
sS'ATCATC'
p792
I2147
sS'CGTGCT'
p793
I1041
sS'GGTCAC'
p794
I3265
sS'GGTCAT'
p795
I650
sS'ACCAAT'
p796
I1177
sS'GCCCCT'
p797
I5825
sS'GAACTG'
p798
I2913
sS'CGTGCG'
p799
I2598
sS'AGGTAC'
p800
I1221
sS'TTTTGC'
p801
I3744
sS'TCTTAC'
p802
I1638
sS'TTTTGA'
p803
I3482
sS'GTCGGA'
p804
I1699
sS'TTTTGG'
p805
I2840
sS'AAGCAC'
p806
I3538
sS'AATTGC'
p807
I3107
sS'TAGCCA'
p808
I2499
sS'TGGGGT'
p809
I1674
sS'CGCTCG'
p810
I5836
sS'GATAAT'
p811
I1607
sS'CGCTCA'
p812
I4780
sS'CGCTCC'
p813
I12692
sS'AATTGT'
p814
I1652
sS'AATCTT'
p815
I734
sS'TCTTAT'
p816
I960
sS'TTTTGT'
p817
I2459
sS'CGCTCT'
p818
I3876
sS'TGGGGG'
p819
I6027
sS'GATAAC'
p820
I2627
sS'TAGCCT'
p821
I1230
sS'TGGGGC'
p822
I6381
sS'GATAAG'
p823
I3736
sS'GATCCT'
p824
I1944
sS'AAGAAT'
p825
I1030
sS'GGGGCT'
p826
I3838
sS'GTTATC'
p827
I1157
sS'AAGAAC'
p828
I3183
sS'GATCCA'
p829
I3234
sS'AAGAAA'
p830
I5472
sS'ATGCCA'
p831
I2842
sS'AAGAAG'
p832
I5050
sS'GATCCG'
p833
I2258
sS'GCCCCA'
p834
I9634
sS'ATGCCG'
p835
I1340
sS'CAAGGG'
p836
I3243
sS'ATCGAG'
p837
I701
sS'CAAGGC'
p838
I3412
sS'GGTTCT'
p839
I1920
sS'CAAGGA'
p840
I2523
sS'TTGATA'
p841
I1494
sS'GGTTCA'
p842
I2635
sS'GGTTCC'
p843
I5399
sS'CAAGGT'
p844
I924
sS'GGTTCG'
p845
I1652
sS'CTGTAT'
p846
I905
sS'ATTATA'
p847
I1924
sS'ATTATC'
p848
I1242
sS'TAGAAT'
p849
I715
sS'CAAACG'
p850
I851
sS'CCCCGC'
p851
I17670
sS'AGTCTT'
p852
I877
sS'TAGAAA'
p853
I2975
sS'TAGAAC'
p854
I1731
sS'ATTATT'
p855
I630
sS'TAGAAG'
p856
I2591
sS'AGTCTA'
p857
I2074
sS'AGTCTC'
p858
I3822
sS'AGTCTG'
p859
I5930
sS'TAACTC'
p860
I888
sS'TAACTA'
p861
I928
sS'TAACTG'
p862
I1551
sS'ATCTAT'
p863
I993
sS'ACGCGT'
p864
I318
sS'AGGTAT'
p865
I431
sS'TAACTT'
p866
I268
sS'ATCTAG'
p867
I1998
sS'ATCTAC'
p868
I2067
sS'ATCTAA'
p869
I3131
sS'CCATGT'
p870
I1236
sS'ACCAAA'
p871
I2319
sS'TGGAGG'
p872
I8793
sS'TGGAGA'
p873
I5141
sS'TGGAGC'
p874
I6588
sS'CCATGC'
p875
I1926
sS'CCATGA'
p876
I1233
sS'CCATGG'
p877
I2505
sS'TGGAGT'
p878
I2070
sS'ATTACG'
p879
I373
sS'TCAGTA'
p880
I890
sS'TCAGTC'
p881
I1094
sS'CTCTCT'
p882
I8559
sS'GGGGAT'
p883
I779
sS'TCAGTG'
p884
I2042
sS'CGATAT'
p885
I65
sS'CTCTCG'
p886
I6216
sS'GGGGAC'
p887
I3891
sS'CTCTCC'
p888
I21590
sS'TCAGTT'
p889
I289
sS'GGGGAG'
p890
I7290
sS'ATGCAG'
p891
I2728
sS'CGATAG'
p892
I166
sS'CGATAA'
p893
I147
sS'CGATAC'
p894
I146
sS'CTAAGG'
p895
I1889
sS'GTGTTT'
p896
I1702
sS'GCTACT'
p897
I1004
sS'GTGGTT'
p898
I720
sS'GTGTTC'
p899
I3191
sS'GTGTTA'
p900
I2775
sS'GTGTTG'
p901
I4243
sS'CGTGCC'
p902
I2547
sS'GTGGTA'
p903
I1722
sS'GCTACA'
p904
I1744
sS'GTGGTC'
p905
I2231
sS'GCTACC'
p906
I2050
sS'GTGGTG'
p907
I5657
sS'GCTACG'
p908
I1032
sS'CGTGCA'
p909
I1858
sS'TTTCGT'
p910
I401
sS'TGCCCT'
p911
I4123
sS'AGCGTT'
p912
I696
sS'AGGTAA'
p913
I1465
sS'TGCCCC'
p914
I9523
sS'TGCCCA'
p915
I7226
sS'TGCCCG'
p916
I5925
sS'TTTCGG'
p917
I1322
sS'AGCGTA'
p918
I912
sS'AGCGTC'
p919
I2841
sS'ACAACA'
p920
I1593
sS'AGCGTG'
p921
I4192
sS'GGCCCC'
p922
I15030
sS'GGCCCA'
p923
I7722
sS'CACGTG'
p924
I5481
sS'GGCCCG'
p925
I9883
sS'CACGTA'
p926
I1533
sS'CACGTC'
p927
I2558
sS'ACGTGC'
p928
I1571
sS'CTACGA'
p929
I395
sS'ACGTGG'
p930
I1994
sS'AAATGG'
p931
I2564
sS'CACGTT'
p932
I643
sS'TTCACG'
p933
I1929
sS'TCTTAA'
p934
I2303
sS'GNCCCA'
p935
I1
sS'GGCCCT'
p936
I4890
sS'GGGACA'
p937
I4937
sS'AATTGA'
p938
I3124
sS'GGGACC'
p939
I7647
sS'GTCTCA'
p940
I6678
sS'GGGACG'
p941
I4414
sS'TCTTAG'
p942
I1754
sS'AGAGAG'
p943
I3332
sS'AGAGAA'
p944
I2191
sS'AGAGAC'
p945
I2044
sS'TTCACC'
p946
I5068
sS'GTCTTT'
p947
I2785
sS'TCTATC'
p948
I983
sS'TCTATG'
p949
I1531
sS'AGAGAT'
p950
I559
sS'TCGTGC'
p951
I1014
sS'ATGCTC'
p952
I2577
sS'GTCTTG'
p953
I7705
sS'TCTATT'
p954
I507
sS'GTCTTC'
p955
I7429
sS'GTCTTA'
p956
I4328
sS'GCAGAG'
p957
I3893
sS'GCTCAA'
p958
I1788
sS'GCTCAC'
p959
I3312
sS'GCAGAC'
p960
I1770
sS'GCAGAA'
p961
I1818
sS'GCTCAG'
p962
I5990
sS'AGACGT'
p963
I356
sS'ATGCGT'
p964
I355
sS'TTGCTG'
p965
I6684
sS'TTGCTA'
p966
I2797
sS'TTGCTC'
p967
I3613
sS'GCAGAT'
p968
I620
sS'GCTCAT'
p969
I800
sS'CGAATT'
p970
I95
sS'GTACGG'
p971
I481
sS'TTGCTT'
p972
I1342
sS'ATGCGG'
p973
I1245
sS'TAGCCG'
p974
I1286
sS'ATGCGC'
p975
I1507
sS'ATGCGA'
p976
I462
sS'TGTAAG'
p977
I2297
sS'GGCTAG'
p978
I3722
sS'TGTAAC'
p979
I2214
sS'GGCTAC'
p980
I3519
sS'GACTGT'
p981
I4894
sS'GGCTAA'
p982
I3228
sS'TTCGAG'
p983
I1203
sS'TTGGTA'
p984
I1251
sS'ACTGTC'
p985
I1737
sS'TTGGTC'
p986
I1463
sS'TTCGAC'
p987
I615
sS'ACTGTG'
p988
I3725
sS'TTGGTG'
p989
I2808
sS'GACTGC'
p990
I10746
sS'GGCTAT'
p991
I1119
sS'GACTGA'
p992
I8134
sS'GACTGG'
p993
I11984
sS'GTACGA'
p994
I249
sS'TTGGTT'
p995
I563
sS'ACTGTT'
p996
I447
sS'GTTTCT'
p997
I2622
sS'GAATGA'
p998
I2515
sS'ATAATT'
p999
I453
sS'CCTTTT'
p1000
I1511
sS'GTTTCG'
p1001
I1156
sS'GTTTCC'
p1002
I6389
sS'GATAAA'
p1003
I4814
sS'ATAATG'
p1004
I1722
sS'CCTTTA'
p1005
I4183
sS'CCTTTC'
p1006
I6042
sS'ATAATC'
p1007
I702
sS'ATAATA'
p1008
I1739
sS'CCTTTG'
p1009
I6934
sS'ACAGAA'
p1010
I1377
sS'ACAGAC'
p1011
I1362
sS'ACAGAG'
p1012
I1954
sS'TTATCT'
p1013
I1604
sS'CTGGAC'
p1014
I3038
sS'CTGGAA'
p1015
I3085
sS'CTGGAG'
p1016
I6064
sS'ATATAA'
p1017
I1183
sS'CGATTT'
p1018
I99
sS'ACAGAT'
p1019
I545
sS'TGGGGA'
p1020
I4753
sS'TTATCA'
p1021
I2153
sS'CTGGAT'
p1022
I702
sS'TTATCC'
p1023
I1765
sS'CCAATG'
p1024
I1872
sS'AAACCG'
p1025
I635
sS'AAACCA'
p1026
I1841
sS'CCAATC'
p1027
I1726
sS'AAACCC'
p1028
I1996
sS'CCAATA'
p1029
I932
sS'TGTCGG'
p1030
I1888
sS'GAGATC'
p1031
I2433
sS'AACGAG'
p1032
I1598
sS'GAGATA'
p1033
I3603
sS'TGTCGC'
p1034
I2138
sS'GAGATG'
p1035
I6935
sS'AACGAC'
p1036
I1068
sS'ATTTGA'
p1037
I2813
sS'CCAATT'
p1038
I354
sS'TCCATA'
p1039
I2669
sS'GCGCGA'
p1040
I1718
sS'ATTTGG'
p1041
I2445
sS'CCCTAG'
p1042
I3627
sS'TGTCGT'
p1043
I535
sS'CCCTAC'
p1044
I3453
sS'GAGATT'
p1045
I847
sS'CCCTAA'
p1046
I2951
sS'CATTAT'
p1047
I1543
sS'ACTTCA'
p1048
I2648
sS'ATCACA'
p1049
I3936
sS'ATCACC'
p1050
I3527
sS'CATGCT'
p1051
I1881
sS'TGACAC'
p1052
I934
sS'ATCACG'
p1053
I1227
sS'TGGATA'
p1054
I1606
sS'CATTAG'
p1055
I3200
sS'CATTAA'
p1056
I4460
sS'TGGATG'
p1057
I3489
sS'CATGCA'
p1058
I3861
sS'TGACAT'
p1059
I397
sS'CATGCC'
p1060
I3880
sS'ATCACT'
p1061
I1974
sS'CATGCG'
p1062
I1905
sS'GTAGAA'
p1063
I861
sS'GTAGAC'
p1064
I642
sS'CCGCTT'
p1065
I632
sS'GTAGAG'
p1066
I1241
sS'GATTGG'
p1067
I5041
sS'ACAACC'
p1068
I1288
sS'GATTGC'
p1069
I3219
sS'GATTGA'
p1070
I2968
sS'TAAATT'
p1071
I583
sS'ACTAAG'
p1072
I1168
sS'GTAGAT'
p1073
I264
sS'TGCTAC'
p1074
I3436
sS'TTGCCT'
p1075
I2334
sS'ATGAGT'
p1076
I858
sS'GATCAA'
p1077
I2321
sS'TTCAGT'
p1078
I2969
sS'ACAACT'
p1079
I630
sS'AGGATT'
p1080
I581
sS'GGGTAA'
p1081
I1136
sS'TAATAG'
p1082
I979
sS'GTCCGG'
p1083
I5482
sS'TGAGGT'
p1084
I805
sS'GTCCGA'
p1085
I1917
sS'TAATAA'
p1086
I1764
sS'GTCCGC'
p1087
I5669
sS'TGTTTA'
p1088
I6695
sS'GATCCC'
p1089
I5058
sS'ACTCTT'
p1090
I556
sS'GTCCGT'
p1091
I1232
sS'TAATAT'
p1092
I583
sS'CGTAAC'
p1093
I558
sS'ATTCGC'
p1094
I663
sS'TTCTCC'
p1095
I13718
sS'TGAACT'
p1096
I829
sS'TTCTCA'
p1097
I8796
sS'ATCCAT'
p1098
I810
sS'TTCTCG'
p1099
I3710
sS'GAGCTA'
p1100
I3984
sS'TCGTAC'
p1101
I235
sS'TACCTT'
p1102
I1105
sS'TCGTAA'
p1103
I186
sS'TCGTAG'
p1104
I353
sS'TCGTCA'
p1105
I686
sS'GAACCT'
p1106
I786
sS'TGAACG'
p1107
I597
sS'ATCCAC'
p1108
I2324
sS'TGAACC'
p1109
I1466
sS'TTCTCT'
p1110
I7050
sS'TGAACA'
p1111
I1746
sS'GAACCC'
p1112
I2500
sS'TTATAT'
p1113
I618
sS'TACCTG'
p1114
I4946
sS'GAACCG'
p1115
I1138
sS'TACCTC'
p1116
I3196
sS'TCGTAT'
p1117
I87
sS'ACCATC'
p1118
I2259
sS'ACCATA'
p1119
I1803
sS'ACCATG'
p1120
I3603
sS'ATGTTG'
p1121
I2664
sS'AGCTCT'
p1122
I6425
sS'TGTCCT'
p1123
I2372
sS'AGTGGT'
p1124
I1167
sS'CGTGGT'
p1125
I912
sS'TGATGT'
p1126
I924
sS'ATGTTT'
p1127
I957
sS'ACCATT'
p1128
I739
sS'AGTGGA'
p1129
I3090
sS'AGTGGC'
p1130
I4599
sS'AGCTCC'
p1131
I15884
sS'AGCTCA'
p1132
I9502
sS'CAGTAA'
p1133
I2110
sS'CAGTAC'
p1134
I1697
sS'CAGTAG'
p1135
I1959
sS'AACGTT'
p1136
I423
sS'TTTCAC'
p1137
I2553
sS'CAGTAT'
p1138
I595
sS'GTTCCT'
p1139
I1823
sS'TGCCAG'
p1140
I7823
sS'CCGGCT'
p1141
I1856
sS'GATCTA'
p1142
I2385
sS'GATCTC'
p1143
I3697
sS'ATTGAC'
p1144
I871
sS'GATCTG'
p1145
I6699
sS'TCCCTT'
p1146
I2432
sS'CCGGCC'
p1147
I7778
sS'GTTCCG'
p1148
I1809
sS'CCGGCG'
p1149
I3745
sS'CACATT'
p1150
I1561
sS'GTTCCC'
p1151
I4505
sS'TCCCTC'
p1152
I10915
sS'TGTCCG'
p1153
I2085
sS'TCCCTA'
p1154
I4094
sS'TTAATG'
p1155
I2207
sS'TCCCTG'
p1156
I14341
sS'GATCTT'
p1157
I1015
sS'CTAGAC'
p1158
I733
sS'ATAGAA'
p1159
I846
sS'CACAAT'
p1160
I1578
sS'AAGTGC'
p1161
I4205
sS'TGTTCT'
p1162
I2928
sS'AAGTGG'
p1163
I4882
sS'TGATTG'
p1164
I1686
sS'TCTGAT'
p1165
I682
sS'AGACTC'
p1166
I1328
sS'TGTTCA'
p1167
I4236
sS'CACAAG'
p1168
I4671
sS'TGTTCC'
p1169
I5681
sS'CACAAA'
p1170
I5438
sS'CACAAC'
p1171
I3757
sS'TGTTCG'
p1172
I1261
sS'TCTGAA'
p1173
I1963
sS'TCTGAC'
p1174
I2161
sS'TCTGAG'
p1175
I3202
sS'CGCGCC'
p1176
I12566
sS'CGCGCA'
p1177
I5047
sS'GGTAAA'
p1178
I1775
sS'CGCGCG'
p1179
I9378
sS'CTCCCT'
p1180
I8182
sS'AGCGGG'
p1181
I8103
sS'AGCGGA'
p1182
I3604
sS'AGCGGC'
p1183
I8500
sS'GGTAAG'
p1184
I2093
sS'GAAATA'
p1185
I2651
sS'GACGTG'
p1186
I4473
sS'GACATT'
p1187
I1709
sS'CGCGCT'
p1188
I3740
sS'ACCTCC'
p1189
I8439
sS'CTCCCG'
p1190
I11612
sS'CTCCCA'
p1191
I11646
sS'CTCCCC'
p1192
I18957
sS'GCCTCT'
p1193
I7666
sS'TAAGCC'
p1194
I1866
sS'CGGGAG'
p1195
I4611
sS'TAAGCA'
p1196
I1942
sS'CGGGAA'
p1197
I1797
sS'TAAGCG'
p1198
I675
sS'CGGGAC'
p1199
I2627
sS'CCCATC'
p1200
I4628
sS'TTGTTG'
p1201
I3567
sS'CCTGCT'
p1202
I3159
sS'ANTGGA'
p1203
I1
sS'CCGAAT'
p1204
I156
sS'CCCATT'
p1205
I1450
sS'CGGGAT'
p1206
I488
sS'GCCTCG'
p1207
I9634
sS'GCCTCA'
p1208
I9793
sS'TAAGCT'
p1209
I614
sS'GCCTCC'
p1210
I23010
sS'CCGAAC'
p1211
I613
sS'CCTGCG'
p1212
I5110
sS'CCGAAA'
p1213
I418
sS'CCGAAG'
p1214
I1105
sS'CCTGCC'
p1215
I9953
sS'CCTGCA'
p1216
I5809
sS'GTACTG'
p1217
I1365
sS'CTTCAT'
p1218
I931
sS'CCATTC'
p1219
I1376
sS'CCATTA'
p1220
I1518
sS'TATAAA'
p1221
I4258
sS'TATAAC'
p1222
I1840
sS'TAACGA'
p1223
I285
sS'GTACTC'
p1224
I734
sS'CCATTT'
p1225
I669
sS'TCTACA'
p1226
I1533
sS'TCTACC'
p1227
I1788
sS'CTAACT'
p1228
I710
sS'TCTACG'
p1229
I575
sS'ACTTTC'
p1230
I2349
sS'CGCAAC'
p1231
I1603
sS'ACTCCA'
p1232
I2461
sS'CGCAAA'
p1233
I1407
sS'ATACCG'
p1234
I214
sS'GACGCG'
p1235
I5756
sS'ATACCA'
p1236
I727
sS'ATACCC'
p1237
I647
sS'TCTACT'
p1238
I867
sS'CCGAGT'
p1239
I737
sS'ATACCT'
p1240
I298
sS'CGCAAT'
p1241
I479
sS'TAGTAA'
p1242
I1544
sS'ATTTCT'
p1243
I1775
sS'TAGTAC'
p1244
I960
sS'CTCAAG'
p1245
I4418
sS'GTTTTG'
p1246
I5255
sS'CTCAAA'
p1247
I4298
sS'TAGTAG'
p1248
I1066
sS'CTCAAC'
p1249
I3444
sS'GTGTGC'
p1250
I6150
sS'GTGTGA'
p1251
I4097
sS'ATTATG'
p1252
I1848
sS'GTGTGG'
p1253
I7212
sS'TAACGG'
p1254
I482
sS'TTGCGT'
p1255
I443
sS'CTCAAT'
p1256
I1270
sS'TAGTAT'
p1257
I487
sS'GTTCTC'
p1258
I3467
sS'GTGTGT'
p1259
I5109
sS'ATCTTT'
p1260
I1780
sS'GTTGGG'
p1261
I3715
sS'GTTGGA'
p1262
I1948
sS'GTTGGC'
p1263
I2542
sS'CCTTGG'
p1264
I5515
sS'CCTTGA'
p1265
I2844
sS'GCGTAT'
p1266
I137
sS'CCTTGC'
p1267
I5044
sS'GGACGT'
p1268
I392
sS'GTTGGT'
p1269
I792
sS'ATCTTG'
p1270
I5700
sS'ATCTTA'
p1271
I4283
sS'ATCTTC'
p1272
I4498
sS'CCTTGT'
p1273
I1869
sS'AGGATA'
p1274
I1875
sS'AGGATG'
p1275
I4960
sS'GACATG'
p1276
I6323
sS'GACATC'
p1277
I4451
sS'GACATA'
p1278
I3474
sS'TCGGCG'
p1279
I1606
sS'GAATAT'
p1280
I422
sS'GGTGCA'
p1281
I3166
sS'TCGGCC'
p1282
I2906
sS'CATAGC'
p1283
I2137
sS'TTGCGA'
p1284
I551
sS'TTGCGC'
p1285
I1322
sS'TTGCGG'
p1286
I1479
sS'GAATAG'
p1287
I912
sS'TCGGCT'
p1288
I791
sS'CATAGA'
p1289
I2158
sS'GAATAC'
p1290
I864
sS'GAATAA'
p1291
I1413
sS'ACTTTT'
p1292
I730
sS'ATACAA'
p1293
I637
sS'GGACGA'
p1294
I663
sS'AAAATT'
p1295
I446
sS'TTTCTA'
p1296
I4055
sS'ACGTCG'
p1297
I662
sS'TTATAA'
p1298
I1288
sS'GAAATG'
p1299
I4115
sS'AATGAT'
p1300
I1004
sS'TTTCTC'
p1301
I5020
sS'GAAATC'
p1302
I1568
sS'ACCGGT'
p1303
I405
sS'GAAATT'
p1304
I464
sS'AATGAA'
p1305
I4439
sS'AATGAC'
p1306
I3127
sS'AATGAG'
p1307
I4155
sS'TCATTG'
p1308
I1842
sS'AGGAAA'
p1309
I4810
sS'TCAGCA'
p1310
I2470
sS'CTTGGA'
p1311
I2805
sS'CTTGGC'
p1312
I4550
sS'GTATTG'
p1313
I1298
sS'GTTTTC'
p1314
I4233
sS'CTTGGG'
p1315
I4868
sS'AGCCCT'
p1316
I5533
sS'GCGTAA'
p1317
I345
sS'TTGAAT'
p1318
I677
sS'GTCCTA'
p1319
I3363
sS'GTCCTC'
p1320
I8743
sS'TGCACG'
p1321
I3290
sS'TGCACA'
p1322
I6956
sS'GTCCTG'
p1323
I13247
sS'TGCACC'
p1324
I6619
sS'TTGAAA'
p1325
I2109
sS'AGCCCG'
p1326
I8553
sS'AGCCCA'
p1327
I9678
sS'AGCCCC'
p1328
I15347
sS'TTAACT'
p1329
I935
sS'ATAAAT'
p1330
I777
sS'TGGTCG'
p1331
I1236
sS'TGGTCA'
p1332
I2757
sS'TGGTCC'
p1333
I4327
sS'ACGATT'
p1334
I83
sS'GAGACT'
p1335
I3302
sS'GATTCA'
p1336
I4415
sS'TGGTCT'
p1337
I1823
sS'ATAAAG'
p1338
I1499
sS'ATAAAA'
p1339
I1886
sS'ATAAAC'
p1340
I1420
sS'GAGACG'
p1341
I4317
sS'ACGATG'
p1342
I627
sS'GAGACC'
p1343
I8171
sS'ACGATC'
p1344
I241
sS'GAGACA'
p1345
I7394
sS'ACGATA'
p1346
I236
sS'GGTTAC'
p1347
I1593
sS'ATGTGT'
p1348
I1892
sS'GGTTAA'
p1349
I2080
sS'ACCACT'
p1350
I1853
sS'GGTTAG'
p1351
I1741
sS'CTTCCT'
p1352
I4277
sS'GAGGAC'
p1353
I6507
sS'CGTGAA'
p1354
I809
sS'CTCAGT'
p1355
I4225
sS'TCCGCT'
p1356
I2060
sS'CTTCCA'
p1357
I4667
sS'ATGTGG'
p1358
I3647
sS'ACCACC'
p1359
I5186
sS'CGTATG'
p1360
I482
sS'ATGTGC'
p1361
I2970
sS'GGTTAT'
p1362
I611
sS'TCCGCC'
p1363
I7910
sS'TCCGCA'
p1364
I2881
sS'TCCGCG'
p1365
I4413
sS'AACGTC'
p1366
I1244
sS'CGTGAG'
p1367
I2011
sS'AACGTG'
p1368
I2534
sS'CGTGAC'
p1369
I1741
sS'AGTGTG'
p1370
I5364
sS'TCTTCG'
p1371
I1665
sS'AGTGTA'
p1372
I1987
sS'TCTTCA'
p1373
I3880
sS'AGTGTC'
p1374
I2555
sS'TCTTCC'
p1375
I7516
sS'TAAGTG'
p1376
I1986
sS'ACTCAA'
p1377
I1316
sS'TAAGTC'
p1378
I807
sS'TAAGTA'
p1379
I1348
sS'GGCGAT'
p1380
I616
sS'TCTTCT'
p1381
I2479
sS'AGTGTT'
p1382
I707
sS'GTGCGC'
p1383
I4437
sS'TTGGCA'
p1384
I2816
sS'AAAGGT'
p1385
I709
sS'TTGGCC'
p1386
I4445
sS'CCGTGC'
p1387
I2387
sS'TTAACG'
p1388
I383
sS'TTGGCG'
p1389
I1601
sS'GACTTC'
p1390
I7991
sS'TCGAGT'
p1391
I254
sS'GACTTA'
p1392
I4865
sS'GACTTG'
p1393
I9613
sS'ACGTAG'
p1394
I382
sS'AAAGGG'
p1395
I3890
sS'AAAGGA'
p1396
I3389
sS'TTGGCT'
p1397
I2138
sS'AAAGGC'
p1398
I3411
sS'GAGTAC'
p1399
I1784
sS'GTATGG'
p1400
I1085
sS'GACTTT'
p1401
I2726
sS'TTCTTT'
p1402
I4343
sS'TGAAAA'
p1403
I1513
sS'CAAGAA'
p1404
I1370
sS'GACGTT'
p1405
I757
sS'CAAGAC'
p1406
I1187
sS'CAAGAG'
p1407
I1900
sS'CGTATT'
p1408
I162
sS'TTCTTG'
p1409
I9609
sS'TTCTTC'
p1410
I9488
sS'TTCTTA'
p1411
I8070
sS'CAAGAT'
p1412
I412
sS'CTGTGG'
p1413
I9073
sS'TACGGG'
p1414
I1371
sS'TACGGA'
p1415
I842
sS'TACGGC'
p1416
I1392
sS'CTAACA'
p1417
I1487
sS'CCAACT'
p1418
I771
sS'TAGAGT'
p1419
I1106
sS'TACGGT'
p1420
I376
sS'GAGTAT'
p1421
I675
sS'CCCGAG'
p1422
I4652
sS'AGGGCA'
p1423
I5792
sS'AGGGCC'
p1424
I8734
sS'TCGAGA'
p1425
I551
sS'TAGAGC'
p1426
I3025
sS'TAGAGA'
p1427
I3376
sS'TAGAGG'
p1428
I3874
sS'GGCGAA'
p1429
I1856
sS'GTGCTG'
p1430
I11602
sS'GTGCTA'
p1431
I2656
sS'ATCTGT'
p1432
I3567
sS'GTGCTC'
p1433
I5371
sS'GCTCGT'
p1434
I724
sS'ATCTGA'
p1435
I4798
sS'GTGCTT'
p1436
I1707
sS'ATCTGC'
p1437
I7184
sS'TCGAGG'
p1438
I1420
sS'CGAATG'
p1439
I563
sS'ATCTGG'
p1440
I7227
sS'ATCATA'
p1441
I2365
sS'GATAGC'
p1442
I2106
sS'AAGCAG'
p1443
I6251
sS'GATAGA'
p1444
I2578
sS'AAGCAA'
p1445
I3530
sS'GATAGG'
p1446
I2710
sS'ATCATG'
p1447
I3023
sS'GGCTCA'
p1448
I9114
sS'CATTTC'
p1449
I6075
sS'CTAGGT'
p1450
I574
sS'CATTTA'
p1451
I7802
sS'ACGCAT'
p1452
I191
sS'CATTTG'
p1453
I7391
sS'GTTATA'
p1454
I1281
sS'CAAACA'
p1455
I2902
sS'AAGCAT'
p1456
I1026
sS'CAAACC'
p1457
I2367
sS'GTGGCC'
p1458
I9116
sS'ATCATT'
p1459
I909
sS'GATAGT'
p1460
I1026
sS'CTAGGG'
p1461
I2303
sS'GTTATT'
p1462
I580
sS'CTAGGC'
p1463
I2042
sS'CATTTT'
p1464
I2041
sS'CTAGGA'
p1465
I1751
sS'AAGTTT'
p1466
I718
sS'TACAGT'
p1467
I2904
sS'CTCGGC'
p1468
I8199
sS'CTAAGA'
p1469
I1508
sS'CTAAGC'
p1470
I1603
sS'TACAGG'
p1471
I5145
sS'AAGTTG'
p1472
I2728
sS'AAGTTA'
p1473
I2531
sS'TACAGC'
p1474
I5422
sS'AAGTTC'
p1475
I2061
sS'TACAGA'
p1476
I5966
sS'GGGGCC'
p1477
I10952
sS'GTATGA'
p1478
I939
sS'GGGGCA'
p1479
I4985
sS'GGGGCG'
p1480
I9207
sS'TTCAAC'
p1481
I3179
sS'TATATC'
p1482
I1184
sS'TATATA'
p1483
I3718
sS'TATATG'
p1484
I2136
sS'ACATCG'
p1485
I425
sS'AGTTCT'
p1486
I2057
sS'TCCGGT'
p1487
I1136
sS'TATATT'
p1488
I881
sS'TGATGG'
p1489
I1801
sS'CATATG'
p1490
I2843
sS'TGATGC'
p1491
I1618
sS'AGGTCT'
p1492
I2043
sS'TGATGA'
p1493
I1385
sS'TGCCAT'
p1494
I1603
sS'CACATC'
p1495
I4343
sS'TGTTTC'
p1496
I5519
sS'CACATA'
p1497
I4238
sS'TTAATT'
p1498
I690
sS'CACATG'
p1499
I7513
sS'TGTTTG'
p1500
I7363
sS'ATGAGA'
p1501
I2460
sS'ATGAGC'
p1502
I2394
sS'AGTAAC'
p1503
I1998
sS'ATGAGG'
p1504
I3308
sS'TTAATA'
p1505
I2201
sS'ACTCTG'
p1506
I4295
sS'TTTCAA'
p1507
I2940
sS'ACTCTA'
p1508
I1536
sS'TTTCAG'
p1509
I3494
sS'ACTCTC'
p1510
I2329
sS'TGCCAC'
p1511
I5097
sS'TGTAAT'
p1512
I1426
sS'AAATTA'
p1513
I2306
sS'AAATTG'
p1514
I1618
sS'CCAGTA'
p1515
I929
sS'AGACCG'
p1516
I775
sS'CGTACC'
p1517
I909
sS'TTAATC'
p1518
I1030
sS'AAATTT'
p1519
I408
sS'GGGAAC'
p1520
I3703
sS'GGTGCG'
p1521
I3240
sS'GGGAAA'
p1522
I3904
sS'GGGAAG'
p1523
I8429
sS'GGTGCC'
p1524
I4891
sS'GCCCAT'
p1525
I1287
sS'AGAGCG'
p1526
I2359
sS'GCGACT'
p1527
I742
sS'AGAGCC'
p1528
I5068
sS'AGAGCA'
p1529
I3445
sS'GCGTAG'
p1530
I662
sS'GGTGCT'
p1531
I1748
sS'GCGTAC'
p1532
I446
sS'TAATTT'
p1533
I585
sS'GGGAAT'
p1534
I987
sS'GCGACG'
p1535
I1411
sS'AGAGCT'
p1536
I1707
sS'GCGACA'
p1537
I1034
sS'GTTACA'
p1538
I1746
sS'GCGACC'
p1539
I2255
sS'AGGTCG'
p1540
I1731
sS'GCAGGA'
p1541
I4608
sS'GCAGGC'
p1542
I5399
sS'GCAGGG'
p1543
I7164
sS'GCTCGC'
p1544
I4813
sS'GCTCGA'
p1545
I1333
sS'GCTCGG'
p1546
I5904
sS'TATTCT'
p1547
I2106
sS'CCGTGG'
p1548
I2644
sS'CTTAGC'
p1549
I2359
sS'CTTTAG'
p1550
I2296
sS'GCAGGT'
p1551
I1606
sS'TGAAGC'
p1552
I2472
sS'CTATAC'
p1553
I518
sS'TATTCC'
p1554
I3391
sS'GGCGAG'
p1555
I6397
sS'TATTCA'
p1556
I4237
sS'CAATTA'
p1557
I1681
sS'TATTCG'
p1558
I584
sS'GGCGAC'
p1559
I3460
sS'TGTAGA'
p1560
I2362
sS'TTTACC'
p1561
I1929
sS'TGTAGC'
p1562
I2587
sS'ACCCTC'
p1563
I4999
sS'TTTACG'
p1564
I598
sS'TGTAGG'
p1565
I2748
sS'GGCTCG'
p1566
I7620
sS'TTCGGA'
p1567
I1147
sS'TTCGGC'
p1568
I2184
sS'CTTTAC'
p1569
I2286
sS'TTCAAG'
p1570
I3991
sS'TTCGGG'
p1571
I2642
sS'AGCATG'
p1572
I6223
sS'GGCTCT'
p1573
I7037
sS'AGCATC'
p1574
I4596
sS'TTTACT'
p1575
I1377
sS'AGCATA'
p1576
I3091
sS'AACCTT'
p1577
I1258
sS'AGACCT'
p1578
I737
sS'TTCGGT'
p1579
I595
sS'GAGCAT'
p1580
I1356
sS'GTTTAT'
p1581
I1228
sS'CTCTCA'
p1582
I9734
sS'ATACAT'
p1583
I316
sS'CGCTAC'
p1584
I1762
sS'AGGCAT'
p1585
I982
sS'GTTTAA'
p1586
I2884
sS'TCCAGG'
p1587
I12791
sS'CACGAA'
p1588
I1105
sS'CAATCT'
p1589
I679
sS'GTTTAG'
p1590
I1819
sS'CAGGTG'
p1591
I6254
sS'TCTTTT'
p1592
I1400
sS'CGCTAG'
p1593
I1964
sS'CTGGCT'
p1594
I4414
sS'AGGCGG'
p1595
I8758
sS'AGGCGA'
p1596
I2375
sS'AGGCGC'
p1597
I6030
sS'AGGAGT'
p1598
I2293
sS'ACAGCC'
p1599
I3817
sS'ACAGCA'
p1600
I2949
sS'GAGGTC'
p1601
I4174
sS'ACAGCG'
p1602
I1635
sS'AGGAGC'
p1603
I9180
sS'AGGCGT'
p1604
I1199
sS'AGGAGA'
p1605
I7091
sS'CTGGCG'
p1606
I5122
sS'AGGAGG'
p1607
I15733
sS'CTGGCA'
p1608
I6675
sS'GTCGGG'
p1609
I4873
sS'GCGCCC'
p1610
I6898
sS'ACAGCT'
p1611
I1514
sS'GGAAAA'
p1612
I1982
sS'AACGCT'
p1613
I1192
sS'AATTTT'
p1614
I1037
sS'TGTCAA'
p1615
I2300
sS'TGTCAC'
p1616
I4031
sS'AAACAC'
p1617
I1901
sS'GGAAAC'
p1618
I2382
sS'ATTTAT'
p1619
I1446
sS'AACGCG'
p1620
I1992
sS'AATTTA'
p1621
I5994
sS'AATTTC'
p1622
I2930
sS'AACGCC'
p1623
I2917
sS'AACGCA'
p1624
I1847
sS'AATTTG'
p1625
I4444
sS'CCCTCA'
p1626
I8497
sS'CCCTCC'
p1627
I24310
sS'ATTTAG'
p1628
I1841
sS'CCCTCG'
p1629
I7478
sS'ACCGAT'
p1630
I173
sS'TCCAGT'
p1631
I2966
sS'CACGAT'
p1632
I378
sS'GGCGTT'
p1633
I841
sS'ATTTTT'
p1634
I948
sS'TGACCA'
p1635
I1047
sS'CATTCT'
p1636
I2572
sS'TAAATC'
p1637
I1247
sS'TGACCG'
p1638
I615
sS'ATGGTT'
p1639
I280
sS'GCGCCA'
p1640
I2545
sS'CATTCG'
p1641
I1292
sS'TGACCT'
p1642
I695
sS'CATTCA'
p1643
I5360
sS'GCAATT'
p1644
I354
sS'ACGAAA'
p1645
I300
sS'GCCTTC'
p1646
I10644
sS'ACAAAT'
p1647
I475
sS'GATTAA'
p1648
I4140
sS'GTAGGC'
p1649
I1480
sS'GATTAC'
p1650
I2404
sS'CTGACA'
p1651
I3801
sS'GTAGGG'
p1652
I2195
sS'GATTAG'
p1653
I2793
sS'GCGGGT'
p1654
I1211
sS'ACAAAC'
p1655
I1213
sS'ACAAAA'
p1656
I1283
sS'ACAAAG'
p1657
I1728
sS'GCGGGC'
p1658
I6806
sS'GTCGGT'
p1659
I805
sS'GCGGGA'
p1660
I4455
sS'GCGGGG'
p1661
I11390
sS'GATTAT'
p1662
I1328
sS'GTAGGT'
p1663
I599
sS'CGAAGT'
p1664
I402
sS'GGCGTC'
p1665
I4413
sS'TAATGA'
p1666
I2011
sS'GATGTT'
p1667
I1080
sS'TAATGC'
p1668
I1565
sS'GGAGAT'
p1669
I498
sS'GCCCTT'
p1670
I2628
sS'GCGCCG'
p1671
I4963
sS'CAATAA'
p1672
I956
sS'CAATTG'
p1673
I1025
sS'GCCCTC'
p1674
I11188
sS'GATGTG'
p1675
I6462
sS'GCCCTA'
p1676
I3858
sS'GATGTA'
p1677
I3154
sS'GCCCTG'
p1678
I19071
sS'GATGTC'
p1679
I3150
sS'AACCTC'
p1680
I4244
sS'TGAAAT'
p1681
I692
sS'TTCTAG'
p1682
I3969
sS'TTCTAA'
p1683
I5536
sS'ATCCGT'
p1684
I485
sS'TTCTAC'
p1685
I3527
sS'GAATGT'
p1686
I1119
sS'TTGGAT'
p1687
I374
sS'TGAAAC'
p1688
I1385
sS'TGAAAG'
p1689
I1832
sS'TTCTAT'
p1690
I1908
sS'ATCCGC'
p1691
I2008
sS'ATCCGA'
p1692
I916
sS'ATCCGG'
p1693
I2047
sS'CGGATT'
p1694
I264
sS'TGGCTC'
p1695
I5741
sS'TGGCTA'
p1696
I2503
sS'TGGCTG'
p1697
I10877
sS'GGGTGA'
p1698
I3759
sS'AGTTGT'
p1699
I1592
sS'AGCTAT'
p1700
I1507
sS'ATTAGT'
p1701
I746
sS'GTCGGC'
p1702
I3487
sS'CGTCGA'
p1703
I643
sS'TGGCTT'
p1704
I1523
sS'AGTTGG'
p1705
I3404
sS'AGCTAA'
p1706
I4457
sS'AGCTAC'
p1707
I3723
sS'AGTTGC'
p1708
I3312
sS'AGTTGA'
p1709
I2493
sS'AGCTAG'
p1710
I3807
sS'CGTTGA'
p1711
I1001
sS'GCACCT'
p1712
I1210
sS'CAGTGT'
p1713
I2693
sS'TAACAA'
p1714
I986
sS'TCAGGT'
p1715
I602
sS'TCAAGG'
p1716
I1605
sS'CTGGCC'
p1717
I12153
sS'TCAAGC'
p1718
I1209
sS'CATGGA'
p1719
I3112
sS'CTAATA'
p1720
I1439
sS'CAGTGC'
p1721
I6567
sS'GCACCC'
p1722
I2741
sS'CAGTGA'
p1723
I5045
sS'CAGTGG'
p1724
I6679
sS'CTAATG'
p1725
I2011
sS'TCAAGT'
p1726
I548
sS'GCACAT'
p1727
I508
sS'TCAGGA'
p1728
I1723
sS'TCAGGC'
p1729
I2301
sS'GTGGGT'
p1730
I2049
sS'TCCTAA'
p1731
I3506
sS'CAACCA'
p1732
I1313
sS'GTTCAT'
p1733
I657
sS'TTCCCT'
p1734
I5136
sS'TAACAG'
p1735
I1258
sS'ACCACA'
p1736
I4289
sS'GTTAGT'
p1737
I725
sS'CGAGCA'
p1738
I1302
sS'GAGCCG'
p1739
I9134
sS'CGAGCC'
p1740
I2999
sS'TTCCCA'
p1741
I8479
sS'TTCCCC'
p1742
I10433
sS'GTTCAC'
p1743
I1799
sS'TTCCCG'
p1744
I5661
sS'GATCAC'
p1745
I2805
sS'GGACCT'
p1746
I805
sS'CTTACT'
p1747
I1124
sS'TACATG'
p1748
I3888
sS'AAGTAC'
p1749
I1612
sS'CACACT'
p1750
I3911
sS'TACATC'
p1751
I2397
sS'AAGTAG'
p1752
I1783
sS'TACATA'
p1753
I4164
sS'GCACAC'
p1754
I1334
sS'GGACCG'
p1755
I1130
sS'ATTGGT'
p1756
I797
sS'GGACCA'
p1757
I1258
sS'TCATCA'
p1758
I1532
sS'GGACCC'
p1759
I2543
sS'CACACG'
p1760
I4607
sS'TACATT'
p1761
I1541
sS'CACACC'
p1762
I8400
sS'GCACAA'
p1763
I700
sS'CACACA'
p1764
I14088
sS'TCTGCC'
p1765
I5695
sS'TCTGCA'
p1766
I4761
sS'TCTGCG'
p1767
I2771
sS'TTTCGA'
p1768
I565
sS'CCCGTC'
p1769
I3443
sS'TTAAGG'
p1770
I1606
sS'CCCGTA'
p1771
I1176
sS'TTAAGA'
p1772
I1665
sS'CCCGTG'
p1773
I4456
sS'TTAAGC'
p1774
I1346
sS'TTACGT'
p1775
I204
sS'TAGATC'
p1776
I931
sS'AAACAG'
p1777
I2585
sS'ACGCCC'
p1778
I2424
sS'TTTCGC'
p1779
I1183
sS'TAGATG'
p1780
I2225
sS'TGGTTA'
p1781
I2257
sS'TCTGCT'
p1782
I2361
sS'TTACGC'
p1783
I337
sS'TTAAGT'
p1784
I942
sS'TTACGA'
p1785
I204
sS'TTACGG'
p1786
I334
sS'CCCGTT'
p1787
I592
sS'AGTGAC'
p1788
I3426
sS'AGTGAA'
p1789
I2713
sS'GCTAGT'
p1790
I661
sS'AGTGAG'
p1791
I4591
sS'GCGGTC'
p1792
I1511
sS'CGGGCG'
p1793
I5734
sS'CCCTCT'
p1794
I6251
sS'TAAGAG'
p1795
I1327
sS'CGGGCC'
p1796
I8151
sS'TAAGAA'
p1797
I1238
sS'CGGGCA'
p1798
I3336
sS'TAAGAC'
p1799
I898
sS'TGTCAG'
p1800
I4412
sS'AGTGAT'
p1801
I844
sS'TAAGAT'
p1802
I328
sS'CCTGAA'
p1803
I1893
sS'CCTGAC'
p1804
I2897
sS'CCTGAG'
p1805
I4228
sS'GTTAGG'
p1806
I2051
sS'GCCAAC'
p1807
I3608
sS'TATACT'
p1808
I1005
sS'GTTAGC'
p1809
I1620
sS'GTTAGA'
p1810
I1705
sS'GCCAAA'
p1811
I3365
sS'TGAATT'
p1812
I359
sS'TATACG'
p1813
I333
sS'GGTAGC'
p1814
I2350
sS'TATACC'
p1815
I1321
sS'TATACA'
p1816
I2497
sS'ATTGGC'
p1817
I2678
sS'CGTATA'
p1818
I291
sS'TCTTGT'
p1819
I1598
sS'ACTAGT'
p1820
I366
sS'TTTATT'
p1821
I1197
sS'GTAATA'
p1822
I1344
sS'ATTGGA'
p1823
I1318
sS'GTAATC'
p1824
I747
sS'TCTAAC'
p1825
I1240
sS'CGTTCT'
p1826
I1033
sS'CCACCG'
p1827
I1854
sS'GGTAGG'
p1828
I3475
sS'TCTAAG'
p1829
I1518
sS'CCACCC'
p1830
I4543
sS'ATTACT'
p1831
I898
sS'TTTATG'
p1832
I2959
sS'ACTAGG'
p1833
I1471
sS'GTAACG'
p1834
I521
sS'TTTATC'
p1835
I2059
sS'ACTAGC'
p1836
I1155
sS'TTTATA'
p1837
I3259
sS'ATTTAC'
p1838
I2158
sS'CCACCT'
p1839
I1770
sS'CGTTCG'
p1840
I1100
sS'ACTTGT'
p1841
I1105
sS'CGTTCA'
p1842
I1328
sS'CGTTCC'
p1843
I2830
sS'TCTAAT'
p1844
I776
sS'CTTTGT'
p1845
I3204
sS'ACTGGG'
p1846
I3708
sS'ACTGGA'
p1847
I2130
sS'ACTGGC'
p1848
I2835
sS'TAGTCC'
p1849
I2523
sS'GTGACC'
p1850
I4644
sS'TAGTCA'
p1851
I2167
sS'GTGACA'
p1852
I3895
sS'TAGTCG'
p1853
I594
sS'GTGACG'
p1854
I2519
sS'TGTCAT'
p1855
I1333
sS'ACTGGT'
p1856
I611
sS'CTTTGG'
p1857
I5151
sS'CCTATG'
p1858
I1230
sS'CTTTGC'
p1859
I6025
sS'CTTTGA'
p1860
I4299
sS'ACATTA'
p1861
I1485
sS'GTGACT'
p1862
I1952
sS'TAGTCT'
p1863
I1280
sS'GTGCAC'
p1864
I2941
sS'CGACGG'
p1865
I853
sS'ACCTAG'
p1866
I1921
sS'CGACGA'
p1867
I309
sS'GTGCAG'
p1868
I5695
sS'CGACGC'
p1869
I961
sS'ACCTAC'
p1870
I1955
sS'CCGCAG'
p1871
I2648
sS'CCGCAA'
p1872
I576
sS'CCGCAC'
p1873
I1339
sS'GGGACT'
p1874
I2835
sS'CGAAGC'
p1875
I1544
sS'GCGCTG'
p1876
I6438
sS'CGAAGA'
p1877
I866
sS'CCCCGT'
p1878
I1805
sS'CGAAGG'
p1879
I1856
sS'GCGCTC'
p1880
I4065
sS'GTGCAT'
p1881
I952
sS'GCGCTA'
p1882
I1020
sS'CCGCAT'
p1883
I258
sS'ATTACC'
p1884
I1469
sS'GAAGAT'
p1885
I597
sS'GGATCT'
p1886
I687
sS'TCGTTT'
p1887
I207
sS'TCGGAC'
p1888
I553
sS'GAATCT'
p1889
I993
sS'CCTATA'
p1890
I888
sS'TCGGAG'
p1891
I1168
sS'GGATCG'
p1892
I542
sS'GAAGAG'
p1893
I4648
sS'GGTATA'
p1894
I812
sS'GAAGAA'
p1895
I2712
sS'GGATCC'
p1896
I2107
sS'GAAGAC'
p1897
I2492
sS'GGATCA'
p1898
I843
sS'GAATCA'
p1899
I2123
sS'GAATCC'
p1900
I2470
sS'TCGGAT'
p1901
I125
sS'GAATCG'
p1902
I685
sS'ATGGTC'
p1903
I1021
sS'CAGATG'
p1904
I6657
sS'ATGGTA'
p1905
I1215
sS'TGACCC'
p1906
I1544
sS'ATGGTG'
p1907
I2692
sS'CAGATC'
p1908
I2122
sS'CTATCC'
p1909
I1616
sS'CAGATA'
p1910
I2955
sS'GGGTAT'
p1911
I406
sS'CTCGAG'
p1912
I2339
sS'CAGATT'
p1913
I609
sS'CTCGAC'
p1914
I1387
sS'CTCGAA'
p1915
I950
sS'TCGCAA'
p1916
I242
sS'AAATTC'
p1917
I1020
sS'CCTTAA'
p1918
I1865
sS'GCTATT'
p1919
I498
sS'TGCGTC'
p1920
I2418
sS'AATGGT'
p1921
I1041
sS'ATGATA'
p1922
I1510
sS'CTACGT'
p1923
I299
sS'AATGGC'
p1924
I3479
sS'AATGGA'
p1925
I3368
sS'AATGGG'
p1926
I3831
sS'CAATAC'
p1927
I564
sS'CCCCGA'
p1928
I3822
sS'CAACTC'
p1929
I1126
sS'ACAATA'
p1930
I1079
sS'AATAGC'
p1931
I2546
sS'TTACAT'
p1932
I416
sS'GTGAAT'
p1933
I733
sS'AGCCAG'
p1934
I12124
sS'GGAGGG'
p1935
I8573
sS'AAAAGT'
p1936
I1043
sS'GGAGGA'
p1937
I5350
sS'GGAGGC'
p1938
I6196
sS'TGGTAG'
p1939
I1283
sS'CATTCC'
p1940
I5345
sS'GAGTGT'
p1941
I3088
sS'ACGGGA'
p1942
I1038
sS'GAGGTA'
p1943
I2990
sS'TGGTAA'
p1944
I1265
sS'AAAAGG'
p1945
I4094
sS'GGAGGT'
p1946
I1488
sS'AGCCAT'
p1947
I2113
sS'AAAAGC'
p1948
I3832
sS'AGCCAA'
p1949
I5785
sS'AAAAGA'
p1950
I4000
sS'TTGACT'
p1951
I931
sS'GAGTGG'
p1952
I8949
sS'CGCCAG'
p1953
I6026
sS'TGGTAT'
p1954
I497
sS'CGCCAA'
p1955
I2138
sS'GAGTGC'
p1956
I6320
sS'CGCCAC'
p1957
I4758
sS'GAGTGA'
p1958
I5832
sS'GCCAGG'
p1959
I19324
sS'GCCAGA'
p1960
I8627
sS'GCCAGC'
p1961
I14658
sS'GCCCGT'
p1962
I1858
sS'TACCGA'
p1963
I750
sS'TACCGC'
p1964
I1869
sS'TACCGG'
p1965
I1487
sS'GCCCGC'
p1966
I14910
sS'GCCAGT'
p1967
I3614
sS'GCCCGA'
p1968
I4219
sS'GCCCGG'
p1969
I15267
sS'CTTCAC'
p1970
I3004
sS'CTTCAA'
p1971
I2164
sS'CTTCAG'
p1972
I4101
sS'TCCGAG'
p1973
I2737
sS'TCCGAA'
p1974
I850
sS'TCCGAC'
p1975
I1405
sS'AATTCA'
p1976
I4407
sS'TATTAG'
p1977
I2445
sS'AATTCC'
p1978
I3593
sS'ATTAGG'
p1979
I1683
sS'AATTCG'
p1980
I769
sS'TCCGAT'
p1981
I233
sS'ACATAC'
p1982
I779
sS'TAGCGG'
p1983
I1573
sS'TAGCGA'
p1984
I713
sS'TAGCGC'
p1985
I1482
sS'GTCATC'
p1986
I3294
sS'GTCATA'
p1987
I2680
sS'GTAGGA'
p1988
I1470
sS'GTCATG'
p1989
I4425
sS'AGCAGG'
p1990
I17535
sS'CCAGGT'
p1991
I1588
sS'TTGGAA'
p1992
I1571
sS'AGCAGC'
p1993
I19948
sS'AGCAGA'
p1994
I11352
sS'GGGGTG'
p1995
I6672
sS'CCAGGG'
p1996
I5604
sS'AGCAGT'
p1997
I4625
sS'CCAGGA'
p1998
I4126
sS'CCAGGC'
p1999
I6289
sS'TGTTGA'
p2000
I3374
sS'ATAGAG'
p2001
I755
sS'CATCTG'
p2002
I10692
sS'GATCGG'
p2003
I1715
sS'CATCTA'
p2004
I3128
sS'GATCGA'
p2005
I893
sS'CATCTC'
p2006
I5243
sS'GATCGC'
p2007
I1930
sS'ATTAGA'
p2008
I2059
sS'GGGGTC'
p2009
I3029
sS'CAAGCC'
p2010
I3740
sS'CATCTT'
p2011
I1507
sS'CAAGCA'
p2012
I2690
sS'CAAGCG'
p2013
I1450
sS'GTTCTT'
p2014
I820
sS'ACATGA'
p2015
I1182
sS'CGTAAT'
p2016
I228
sS'ACATGC'
p2017
I1661
sS'TCTTGA'
p2018
I2275
sS'ACATGG'
p2019
I1717
sS'CCCGCT'
p2020
I3284
sS'GTACAT'
p2021
I233
sS'GGCCAT'
p2022
I1663
sS'CGTAAG'
p2023
I674
sS'GTTCTG'
p2024
I5410
sS'ACATGT'
p2025
I938
sS'GTTCTA'
p2026
I1955
sS'CGTAAA'
p2027
I608
sS'CCCGCG'
p2028
I8848
sS'ACGGAA'
p2029
I496
sS'ACTCGG'
p2030
I2046
sS'CCCGCC'
p2031
I20732
sS'CCCGCA'
p2032
I5354
sS'AAACTA'
p2033
I1210
sS'TGTTGT'
p2034
I2441
sS'GTTGTT'
p2035
I528
sS'TGGATC'
p2036
I1276
sS'TTGTCG'
p2037
I836
sS'TTGTCC'
p2038
I4225
sS'TTGTCA'
p2039
I3291
sS'ATCCTC'
p2040
I3969
sS'GTTGTA'
p2041
I1580
sS'ATCCTA'
p2042
I2412
sS'GTTGTC'
p2043
I1526
sS'ATCCTG'
p2044
I6330
sS'GTTGTG'
p2045
I2828
sS'TTGTCT'
p2046
I2241
sS'CTATGC'
p2047
I1247
sS'TGACTA'
p2048
I642
sS'TGGGCC'
p2049
I6771
sS'TGACTC'
p2050
I1186
sS'TGGGCA'
p2051
I4458
sS'TGGGCG'
p2052
I3879
sS'TGACTG'
p2053
I1771
sS'AAGCCG'
p2054
I3445
sS'AAGCCC'
p2055
I7065
sS'AAGCCA'
p2056
I5693
sS'CAAAAT'
p2057
I539
sS'TGACTT'
p2058
I314
sS'TGGGCT'
p2059
I2532
sS'CAAAAC'
p2060
I1909
sS'CAAAAA'
p2061
I1408
sS'AAGCCT'
p2062
I2582
sS'CAAAAG'
p2063
I1877
sS'TGATTT'
p2064
I433
sS'TCAATG'
p2065
I1001
sS'AAACTT'
p2066
I330
sS'TCAATC'
p2067
I609
sS'CGTCGT'
p2068
I606
sS'CAGTTC'
p2069
I3240
sS'GACCCG'
p2070
I7050
sS'GACCCA'
p2071
I7453
sS'GACCCC'
p2072
I12100
sS'CTCTGT'
p2073
I7454
sS'TCAATT'
p2074
I336
sS'TGGCGT'
p2075
I894
sS'CTCTGC'
p2076
I22149
sS'GACCCT'
p2077
I4617
sS'CTCTGA'
p2078
I10700
sS'CTCTGG'
p2079
I18324
sS'CAGTTT'
p2080
I1031
sS'GCGAAG'
p2081
I1584
sS'ACGTTC'
p2082
I639
sS'TGCTGG'
p2083
I16150
sS'GCGAAC'
p2084
I726
sS'GAGTCT'
p2085
I3228
sS'TGCTGC'
p2086
I18559
sS'TAGGGA'
p2087
I2695
sS'GCTGGT'
p2088
I1976
sS'GTGATT'
p2089
I732
sS'ACGTTA'
p2090
I514
sS'TGCTGT'
p2091
I6717
sS'TAGGGC'
p2092
I2884
sS'TAATGG'
p2093
I1824
sS'TCGCTA'
p2094
I552
sS'TGTACC'
p2095
I1845
sS'GTGATG'
p2096
I3764
sS'GCTGGG'
p2097
I13363
sS'GTGATC'
p2098
I1248
sS'GCTGGC'
p2099
I8013
sS'GTGATA'
p2100
I1792
sS'GCTGGA'
p2101
I5688
sS'TGATAA'
p2102
I900
sS'TGTAGT'
p2103
I1613
sS'TGATAC'
p2104
I525
sS'TGATAG'
p2105
I611
sS'CTTGTT'
p2106
I711
sS'GACGGT'
p2107
I1480
sS'GCTAGG'
p2108
I2958
sS'GCTAGA'
p2109
I1756
sS'ATGAAT'
p2110
I708
sS'GCTAGC'
p2111
I1854
sS'ATAGGG'
p2112
I863
sS'TGATAT'
p2113
I334
sS'GAGGTT'
p2114
I1123
sS'TTTGGT'
p2115
I832
sS'ATGAAC'
p2116
I1366
sS'GACGGG'
p2117
I6722
sS'CTTGTG'
p2118
I3732
sS'GACGGA'
p2119
I3374
sS'ATGAAG'
p2120
I2124
sS'GACGGC'
p2121
I6091
sS'CTTGTC'
p2122
I2366
sS'GCACTT'
p2123
I480
sS'CTACTT'
p2124
I377
sS'CCATAG'
p2125
I669
sS'GGTGAA'
p2126
I2006
sS'GGTGAC'
p2127
I3520
sS'GCGTCT'
p2128
I1417
sS'TGTAAA'
p2129
I3329
sS'GGTGAG'
p2130
I5193
sS'GGAATG'
p2131
I1977
sS'CGTCCT'
p2132
I1473
sS'GGAATC'
p2133
I1037
sS'GGAATA'
p2134
I1020
sS'GCGTCA'
p2135
I1601
sS'GTTATG'
p2136
I1524
sS'GCGTCC'
p2137
I4443
sS'GGTGAT'
p2138
I728
sS'GCGTCG'
p2139
I1559
sS'CAAACT'
p2140
I948
sS'CGTCCG'
p2141
I2240
sS'GGAATT'
p2142
I328
sS'CGTCCC'
p2143
I4967
sS'CGTCCA'
p2144
I1864
sS'CCGTAT'
p2145
I112
sS'GCCGTG'
p2146
I5768
sS'GAAGTA'
p2147
I1650
sS'GCCGTC'
p2148
I3432
sS'GCCGTA'
p2149
I1206
sS'CCGTAC'
p2150
I432
sS'CCGTAA'
p2151
I248
sS'TTCGAA'
p2152
I610
sS'GCACTA'
p2153
I867
sS'GCCGTT'
p2154
I726
sS'GAAGTT'
p2155
I481
sS'GGCGCG'
p2156
I10469
sS'ATGCCC'
p2157
I3477
sS'TTAGTT'
p2158
I262
sS'GCACTC'
p2159
I1485
sS'GGCGCC'
p2160
I12822
sS'TATTAA'
p2161
I5081
sS'GGCGCA'
p2162
I5473
sS'TATTAC'
p2163
I2609
sS'ACTATG'
p2164
I1038
sS'CAACGG'
p2165
I736
sS'TTTAAG'
p2166
I2736
sS'ACTATC'
p2167
I567
sS'TTTAAA'
p2168
I6260
sS'ACTATA'
p2169
I888
sS'TTTAAC'
p2170
I2562
sS'TATTAT'
p2171
I1987
sS'TTAGTG'
p2172
I1256
sS'GGCGCT'
p2173
I4027
sS'TCAACA'
p2174
I1194
sS'TTAGTC'
p2175
I616
sS'ATGCCT'
p2176
I1545
sS'TTAGTA'
p2177
I919
sS'TTTAAT'
p2178
I1660
sS'GCACTG'
p2179
I2991
sS'GGANTG'
p2180
I1
sS'GGGCAT'
p2181
I834
sS'TTTCCG'
p2182
I1725
sS'TTTCCA'
p2183
I4243
sS'TTTCCC'
p2184
I5974
sS'GTACGT'
p2185
I202
sS'TATCGA'
p2186
I349
sS'GTTTGT'
p2187
I2038
sS'TTTCCT'
p2188
I2712
sS'GGGCAG'
p2189
I7611
sS'GTCTGT'
p2190
I5306
sS'GGGCAA'
p2191
I1830
sS'GGGCAC'
p2192
I3506
sS'GTTTGC'
p2193
I3986
sS'GTTTGA'
p2194
I3003
sS'GTTTGG'
p2195
I3811
sS'ACATCC'
p2196
I2022
sS'CCGCTC'
p2197
I3444
sS'GCATGT'
p2198
I1026
sS'CCGCTA'
p2199
I1012
sS'CCGCTG'
p2200
I4930
sS'AGCATT'
p2201
I1415
sS'GCGCGG'
p2202
I6895
sS'GCGCGC'
p2203
I6618
sS'TGTTTT'
p2204
I2307
sS'GTCGAT'
p2205
I218
sS'GCATGG'
p2206
I2075
sS'GCATGC'
p2207
I2199
sS'TTAGGG'
p2208
I1355
sS'GCATGA'
p2209
I1269
sS'GTCGAC'
p2210
I737
sS'GTCGAA'
p2211
I566
sS'GTCGAG'
p2212
I1451
sS'AGACAT'
p2213
I403
sS'GTAGTC'
p2214
I858
sS'TGCGCT'
p2215
I2131
sS'GAGCTC'
p2216
I8034
sS'ATTGAT'
p2217
I301
sS'GAGCTG'
p2218
I17420
sS'AAACGA'
p2219
I570
sS'AAACGC'
p2220
I1153
sS'GTAACA'
p2221
I1473
sS'GTAGTA'
p2222
I709
sS'AAACGG'
p2223
I903
sS'TGTCCC'
p2224
I5925
sS'TGCGCG'
p2225
I4938
sS'TGTCCA'
p2226
I3614
sS'GAGCTT'
p2227
I1899
sS'TGCGCC'
p2228
I6060
sS'ATTGAG'
p2229
I1152
sS'TGCGCA'
p2230
I3612
sS'GTGAAG'
p2231
I3114
sS'AAACGT'
p2232
I319
sS'ATTTCG'
p2233
I580
sS'ATTTCA'
p2234
I3661
sS'ATTTCC'
p2235
I4379
sS'ATCAGT'
p2236
I1636
sS'ATCGGG'
p2237
I1220
sS'CATAGT'
p2238
I900
sS'ATCGGC'
p2239
I1032
sS'ATCGGA'
p2240
I663
sS'TGGGTG'
p2241
I4959
sS'CGATCA'
p2242
I289
sS'TGGGTC'
p2243
I2290
sS'TGGGTA'
p2244
I1669
sS'CATAGG'
p2245
I1983
sS'ATCGGT'
p2246
I230
sS'ATCAGG'
p2247
I4223
sS'ATCAGA'
p2248
I4000
sS'ATCAGC'
p2249
I4592
sS'GGTCAA'
p2250
I1456
sS'ACGGGT'
p2251
I309
sS'CCTGGT'
p2252
I1756
sS'ATTCGG'
p2253
I685
sS'GATTCT'
p2254
I2585
sS'CTTTTG'
p2255
I5875
sS'TACTAG'
p2256
I1878
sS'TACTAA'
p2257
I3397
sS'TACTAC'
p2258
I2241
sS'GATTCC'
p2259
I5118
sS'ACGGGG'
p2260
I2027
sS'GATTCG'
p2261
I1482
sS'ACGGGC'
p2262
I1501
sS'TACTAT'
p2263
I1287
sS'CTTTTT'
p2264
I1587
sS'ACCAAC'
p2265
I2064
sS'CGTAGA'
p2266
I838
sS'TCACGA'
p2267
I258
sS'TCACGC'
p2268
I799
sS'CGATTG'
p2269
I648
sS'TCACGG'
p2270
I774
sS'TCTCAT'
p2271
I776
sS'TCACGT'
p2272
I398
sS'TTCCAC'
p2273
I4597
sS'TTCCAA'
p2274
I3931
sS'TTCCAG'
p2275
I7646
sS'GTTTCA'
p2276
I3776
sS'ACCCTT'
p2277
I1043
sS'TGAAGT'
p2278
I913
sS'AAACAA'
p2279
I2127
sS'CCACAT'
p2280
I511
sS'TTCCAT'
p2281
I1726
sS'ACCCTA'
p2282
I2169
sS'TGAAGA'
p2283
I2080
sS'TGAAGG'
p2284
I2869
sS'ACCCTG'
p2285
I7605
sS'CTGACT'
p2286
I1850
sS'TAGTGT'
p2287
I1300
sS'CCCCTT'
p2288
I2490
sS'AGTTAT'
p2289
I807
sS'ACATAT'
p2290
I562
sS'CTGACG'
p2291
I1974
sS'CTGACC'
p2292
I4981
sS'CAATGA'
p2293
I1547
sS'AGTTAA'
p2294
I2850
sS'CCCCTG'
p2295
I12042
sS'AGTTAC'
p2296
I1939
sS'CCCCTC'
p2297
I12857
sS'AGTTAG'
p2298
I1833
sS'CCCCTA'
p2299
I3832
sS'ACACAG'
p2300
I1695
sS'ACACAA'
p2301
I840
sS'ACACAC'
p2302
I1666
sS'AATGTT'
p2303
I780
sS'CTGCAG'
p2304
I9510
sS'CATGGG'
p2305
I3798
sS'CTGCAC'
p2306
I4717
sS'CATGGC'
p2307
I4884
sS'AATGTC'
p2308
I2173
sS'ACACAT'
p2309
I485
sS'AATGTA'
p2310
I3443
sS'AATGTG'
p2311
I4451
sS'CATGGT'
p2312
I1279
sS'CTGCAT'
p2313
I1244
sS'GCACAG'
p2314
I2123
sS'CGATTC'
p2315
I370
sS'CCACAG'
p2316
I1975
sS'CGAGAT'
p2317
I167
sS'GTTCGT'
p2318
I381
sS'ACATTG'
p2319
I1201
sS'GTACCA'
p2320
I864
sS'ACGCTC'
p2321
I1252
sS'ACATTC'
p2322
I952
sS'ATTACA'
p2323
I2156
sS'GATACA'
p2324
I2849
sS'GTTCGC'
p2325
I1533
sS'CGAGAC'
p2326
I755
sS'GTTCGG'
p2327
I1673
sS'AAGTCT'
p2328
I1798
sS'ATGCTA'
p2329
I2034
sS'GGACAT'
p2330
I396
sS'GCTATA'
p2331
I1093
sS'GCTATC'
p2332
I793
sS'AAGTCG'
p2333
I1340
sS'AACCTA'
p2334
I2785
sS'AAGTCA'
p2335
I3863
sS'GCTATG'
p2336
I1662
sS'AAGTCC'
p2337
I4500
sS'GGACAG'
p2338
I1967
sS'GGACAC'
p2339
I1296
sS'GGACAA'
p2340
I716
sS'CTAATT'
p2341
I558
sS'AGGGTT'
p2342
I652
sS'GAGGCG'
p2343
I11357
sS'TGTTGG'
p2344
I3946
sS'GAGGCA'
p2345
I9999
sS'AGCGCT'
p2346
I2759
sS'GAGGCC'
p2347
I17261
sS'TGTTGC'
p2348
I4243
sS'ACTCGA'
p2349
I685
sS'TAAAAT'
p2350
I1031
sS'ACTCGC'
p2351
I1704
sS'TGTATA'
p2352
I1999
sS'AGCGCA'
p2353
I4085
sS'GAGGCT'
p2354
I6045
sS'AGCGCC'
p2355
I8878
sS'AGGGTG'
p2356
I5400
sS'AGGGTA'
p2357
I1703
sS'AGCGCG'
p2358
I6785
sS'AGGGTC'
p2359
I2568
sS'TAAAAG'
p2360
I2405
sS'ACTCGT'
p2361
I301
sS'TAAAAC'
p2362
I2093
sS'TAAAAA'
p2363
I2531
sS'CTACTC'
p2364
I1045
sS'AGCTGC'
p2365
I19911
sS'CTACTA'
p2366
I788
sS'AGCTGA'
p2367
I9739
sS'CTACTG'
p2368
I1714
sS'AGCTGG'
p2369
I18316
sS'TAGGGG'
p2370
I3378
sS'AGTGCG'
p2371
I2374
sS'AGTGCA'
p2372
I3447
sS'AGAGTT'
p2373
I350
sS'AGTGCC'
p2374
I4258
sS'CCAAAA'
p2375
I720
sS'TAGGGT'
p2376
I815
sS'GCATAG'
p2377
I588
sS'AGCTGT'
p2378
I6508
sS'ACGTTT'
p2379
I250
sS'AGTGCT'
p2380
I1759
sS'AGAGTC'
p2381
I1346
sS'TCAAGA'
p2382
I1041
sS'AGAGTG'
p2383
I2493
sS'TTCGTA'
p2384
I631
sS'GTTAAA'
p2385
I2372
sS'CCTGGC'
p2386
I8300
sS'GTTAAC'
p2387
I1556
sS'CCTGGA'
p2388
I4878
sS'CCTGGG'
p2389
I9832
sS'GTTAAG'
p2390
I1872
sS'CCGGTG'
p2391
I2371
sS'TTCGTC'
p2392
I1054
sS'CTAATC'
p2393
I885
sS'GTCTGG'
p2394
I12740
sS'GTCTGC'
p2395
I11166
sS'GTTAAT'
p2396
I857
sS'GTCTGA'
p2397
I6452
sS'GCGGNC'
p2398
I1
sS'GGAAGG'
p2399
I7406
sS'ATGCTT'
p2400
I795
sS'GGAAGC'
p2401
I5348
sS'GCACCG'
p2402
I1770
sS'GGAAGA'
p2403
I3721
sS'TGTATT'
p2404
I725
sS'TCCTCT'
p2405
I6173
sS'GCGTTC'
p2406
I1397
sS'CAATGC'
p2407
I1413
sS'GCGTTG'
p2408
I1627
sS'CAATGG'
p2409
I1913
sS'ATGCTG'
p2410
I5493
sS'GGAAGT'
p2411
I1788
sS'CCACAC'
p2412
I1304
sS'CCACAA'
p2413
I759
sS'ATTTGT'
p2414
I1579
sS'TCCTCG'
p2415
I5874
sS'TGTATG'
p2416
I2387
sS'TCCTCA'
p2417
I8648
sS'GCGTTT'
p2418
I392
sS'TCCTCC'
p2419
I19999
sS'TGTATC'
p2420
I1344
sS'CGTTAG'
p2421
I807
sS'TAACCG'
p2422
I339
sS'TCATAG'
p2423
I629
sS'TTCGTG'
p2424
I1699
sS'CGTTAC'
p2425
I748
sS'TAACCC'
p2426
I1114
sS'CGTTAA'
p2427
I713
sS'TAACCA'
p2428
I1077
sS'ACCGCT'
p2429
I1072
sS'TCGCGA'
p2430
I611
sS'TGCATG'
p2431
I5783
sS'GCTTGT'
p2432
I1892
sS'TTCGTT'
p2433
I340
sS'TACCCT'
p2434
I1682
sS'TAACCT'
p2435
I476
sS'CGTTAT'
p2436
I280
sS'GTGAAA'
p2437
I2226
sS'GTGAAC'
p2438
I1788
sS'CAATAG'
p2439
I722
sS'AACCCG'
p2440
I3095
sS'ACCGCG'
p2441
I2914
sS'ACCGCA'
p2442
I1900
sS'CCCTAT'
p2443
I820
sS'ACCGCC'
p2444
I4764
sS'CCGCCT'
p2445
I2722
sS'AGGCTT'
p2446
I1526
sS'CCTTCT'
p2447
I3304
sS'CGAGCT'
p2448
I878
sS'GTTGCA'
p2449
I1947
sS'AACGAA'
p2450
I996
sS'GTTGCC'
p2451
I2908
sS'GTGCCG'
p2452
I3996
sS'GTGCCA'
p2453
I4966
sS'GTTGCG'
p2454
I1123
sS'GTGCCC'
p2455
I8649
sS'CCGCCG'
p2456
I5232
sS'AGGCTA'
p2457
I2433
sS'CCTTCC'
p2458
I11613
sS'AGGCTC'
p2459
I6276
sS'CCGCCC'
p2460
I10104
sS'TGTCGA'
p2461
I614
sS'CCGCCA'
p2462
I3057
sS'AGGCTG'
p2463
I12894
sS'GTGCCT'
p2464
I3684
sS'GTTGCT'
p2465
I1392
sS'GGATAT'
p2466
I254
sS'ATAGGT'
p2467
I286
sS'TCGGGT'
p2468
I483
sS'AAACCT'
p2469
I677
sS'GCAGTT'
p2470
I463
sS'GAAGCT'
p2471
I2242
sS'TCGGGC'
p2472
I2117
sS'TCGGGA'
p2473
I1276
sS'NNNNNG'
p2474
I1
sS'TCGGGG'
p2475
I2751
sS'GGATAG'
p2476
I556
sS'GAAGCG'
p2477
I3354
sS'GCAGTG'
p2478
I3755
sS'GAAGCC'
p2479
I7158
sS'GCAGTA'
p2480
I1185
sS'GAAGCA'
p2481
I4769
sS'GCAGTC'
p2482
I1627
sS'CGCCCG'
p2483
I10001
sS'GAGAGA'
p2484
I11951
sS'GAGAGG'
p2485
I18303
sS'CGCCCA'
p2486
I6556
sS'AGTTTG'
p2487
I4291
sS'ACGCAG'
p2488
I1188
sS'GCATTC'
p2489
I1168
sS'GCATTA'
p2490
I1376
sS'CTCGCA'
p2491
I3108
sS'ACGTAC'
p2492
I356
sS'CTCGCG'
p2493
I4905
sS'AAACAT'
p2494
I535
sS'CTATAT'
p2495
I388
sS'AACTGA'
p2496
I5666
sS'GCCGGG'
p2497
I16517
sS'GCCGGC'
p2498
I11083
sS'CATGTT'
p2499
I885
sS'GCCGGA'
p2500
I4603
sS'AGATCT'
p2501
I709
sS'AACTGC'
p2502
I6830
sS'CGAGCG'
p2503
I1882
sS'GCCACT'
p2504
I3827
sS'CATGTA'
p2505
I2786
sS'CATGTC'
p2506
I2381
sS'GCCGGT'
p2507
I1669
sS'CATGTG'
p2508
I5839
sS'AGTTCG'
p2509
I1264
sS'TACCCC'
p2510
I3290
sS'GGCCTG'
p2511
I18769
sS'GGCCTC'
p2512
I12824
sS'CAAGCT'
p2513
I1333
sS'TTTGTT'
p2514
I962
sS'AATCGG'
p2515
I1218
sS'AATCGC'
p2516
I1248
sS'AATCGA'
p2517
I655
sS'GTTCAG'
p2518
I2652
sS'GGCCTT'
p2519
I2432
sS'TCACTA'
p2520
I780
sS'CAGCGA'
p2521
I2642
sS'AATCGT'
p2522
I391
sS'TGGATT'
p2523
I490
sS'AGCCGA'
p2524
I3776
sS'CCTTCA'
p2525
I4365
sS'AGCCGC'
p2526
I11592
sS'TAATTG'
p2527
I2011
sS'TAATTA'
p2528
I2933
sS'AGCCGG'
p2529
I10018
sS'GTTTTT'
p2530
I1173
sS'TGGTGA'
p2531
I3051
sS'GATGGA'
p2532
I5309
sS'TGGTGC'
p2533
I4230
sS'GATGGC'
p2534
I5867
sS'GGGCTG'
p2535
I15698
sS'TGGTGG'
p2536
I5571
sS'GATGGG'
p2537
I7458
sS'AAAAAA'
p2538
I4318
sS'GAGCGG'
p2539
I9657
sS'GGGCTC'
p2540
I7881
sS'GAGCGA'
p2541
I3946
sS'AGCCGT'
p2542
I1749
sS'GAGCGC'
p2543
I9331
sS'TGACAG'
p2544
I1655
sS'CCAAGG'
p2545
I2944
sS'ACGTAT'
p2546
I121
sS'TCTCAG'
p2547
I3602
sS'GATGGT'
p2548
I1810
sS'TGGTGT'
p2549
I1929
sS'GGGCTT'
p2550
I1673
sS'ATTCGT'
p2551
I205
sS'AGAACT'
p2552
I1106
sS'CCTTCG'
p2553
I2630
sS'TACCAT'
p2554
I1013
sS'CCTATT'
p2555
I450
sS'ACCCGG'
p2556
I4906
sS'ATCCTT'
p2557
I1028
sS'ACCCGA'
p2558
I1642
sS'AGATAC'
p2559
I780
sS'ACCCGC'
p2560
I4936
sS'ACCAGT'
p2561
I1546
sS'TACCAC'
p2562
I2474
sS'AGAACG'
p2563
I1013
sS'TACCAA'
p2564
I2063
sS'ATTGCC'
p2565
I1466
sS'TACCAG'
p2566
I3284
sS'AGAACC'
p2567
I2542
sS'ATGTCA'
p2568
I3144
sS'CACTGG'
p2569
I10806
sS'ATGTCC'
p2570
I3180
sS'TGACAA'
p2571
I719
sS'ACCAGG'
p2572
I7346
sS'CACTGC'
p2573
I13646
sS'CCTATC'
p2574
I982
sS'CAGCGT'
p2575
I1353
sS'GAGTCA'
p2576
I6034
sS'TAGGTT'
p2577
I388
sS'GTTTAC'
p2578
I2004
sS'AATTAT'
p2579
I1647
sS'CTGTTG'
p2580
I5466
sS'GTAACC'
p2581
I1441
sS'CTGTTC'
p2582
I4102
sS'CGGGTT'
p2583
I455
sS'CTGTTA'
p2584
I3875
sS'AATTAC'
p2585
I3256
sS'AATTAA'
p2586
I5302
sS'TAGGTA'
p2587
I1309
sS'TAGGTC'
p2588
I1160
sS'CGGGTC'
p2589
I2348
sS'CTGTTT'
p2590
I1918
sS'CGGGTA'
p2591
I973
sS'CGGGTG'
p2592
I3679
sS'CCAAAC'
p2593
I1086
sS'CTTCGG'
p2594
I2701
sS'AAGTAA'
p2595
I2236
sS'CATTAC'
p2596
I2743
sS'AGCAAA'
p2597
I6311
sS'ATATAT'
p2598
I637
sS'AGCAAC'
p2599
I4996
sS'TTAGGC'
p2600
I998
sS'AAAGCT'
p2601
I1304
sS'AGCAAG'
p2602
I6928
sS'AAAGCA'
p2603
I3775
sS'AAAGCC'
p2604
I4258
sS'TTAGGT'
p2605
I441
sS'GAGTCG'
p2606
I2975
sS'AGCAAT'
p2607
I1822
sS'ATATAC'
p2608
I720
sS'TACTTC'
p2609
I4241
sS'ATAGCC'
p2610
I1035
sS'TACTTG'
p2611
I4880
sS'ATAGCG'
p2612
I356
sS'TCTCAC'
p2613
I2330
sS'TGCTAA'
p2614
I4849
sS'ACGGCT'
p2615
I565
sS'ATAGCT'
p2616
I543
sS'TACTTT'
p2617
I2112
sS'CCCGAT'
p2618
I358
sS'TCCAAT'
p2619
I1192
sS'CGTACT'
p2620
I387
sS'TCCCGT'
p2621
I1315
sS'TATGCT'
p2622
I1132
sS'CTTAAG'
p2623
I1757
sS'ACATAA'
p2624
I1036
sS'CTTAAA'
p2625
I2482
sS'AGGGGT'
p2626
I1761
sS'CTTAAC'
p2627
I1725
sS'TCCAAG'
p2628
I4289
sS'CGAGTG'
p2629
I1264
sS'TTGTTA'
p2630
I3237
sS'TCCAAC'
p2631
I2927
sS'TCCAAA'
p2632
I3284
sS'AGGGGA'
p2633
I5453
sS'CTTAAT'
p2634
I896
sS'AGGGGC'
p2635
I7931
sS'TATGCA'
p2636
I2488
sS'TATGCC'
p2637
I1894
sS'TCATTA'
p2638
I1995
sS'CGACTT'
p2639
I157
sS'GGATAA'
p2640
I550
sS'TTGTAA'
p2641
I1695
sS'TTGTAC'
p2642
I1153
sS'GTACCT'
p2643
I550
sS'TTGTAG'
p2644
I1527
sS'TGAATC'
p2645
I837
sS'CGACTA'
p2646
I287
sS'TGAATA'
p2647
I1357
sS'CGACTC'
p2648
I763
sS'TGAATG'
p2649
I2124
sS'AAGTAT'
p2650
I626
sS'CGACTG'
p2651
I962
sS'TTGTAT'
p2652
I751
sS'ATCGTG'
p2653
I1006
sS'GCTTCG'
p2654
I2717
sS'GCTTCA'
p2655
I4262
sS'GCTTCC'
p2656
I9613
sS'TGGGAG'
p2657
I5051
sS'TGGGAA'
p2658
I2768
sS'TGGGAC'
p2659
I2490
sS'GCTTCT'
p2660
I3385
sS'ATCGTT'
p2661
I167
sS'ACAACG'
p2662
I479
sS'TGGGAT'
p2663
I666
sS'CTAGCC'
p2664
I2269
sS'CTAGCA'
p2665
I1668
sS'CTAGCG'
p2666
I1005
sS'CGCATT'
p2667
I497
sS'ACTTAG'
p2668
I1378
sS'TAGATT'
p2669
I449
sS'ACTTAA'
p2670
I2158
sS'CGGTAC'
p2671
I565
sS'ACTTAC'
p2672
I1483
sS'CGGTAA'
p2673
I420
sS'GACCAG'
p2674
I8105
sS'GACCAC'
p2675
I5462
sS'GACCAA'
p2676
I4031
sS'TACACC'
p2677
I2860
sS'CGGTAT'
p2678
I142
sS'TACACA'
p2679
I5371
sS'TACACG'
p2680
I1431
sS'GCGAGA'
p2681
I1904
sS'GAGAGC'
p2682
I11119
sS'GCGAGC'
p2683
I3567
sS'GGCCGT'
p2684
I2342
sS'GCGAGG'
p2685
I5385
sS'CAGCCG'
p2686
I5891
sS'CAGCCA'
p2687
I8155
sS'GGTATT'
p2688
I294
sS'CAGCCC'
p2689
I13577
sS'TCCGGG'
p2690
I7073
sS'GCGAGT'
p2691
I805
sS'CGCCCC'
p2692
I17933
sS'GAACTC'
p2693
I1561
sS'GAACTA'
p2694
I1201
sS'GGACTT'
p2695
I339
sS'CACCTA'
p2696
I3408
sS'AACTAT'
p2697
I1113
sS'CACCTC'
p2698
I8680
sS'CACCTG'
p2699
I11865
sS'TGATCC'
p2700
I1281
sS'AACACT'
p2701
I3093
sS'TGATCA'
p2702
I899
sS'ATTTAA'
p2703
I3838
sS'TAGATA'
p2704
I1905
sS'CTATAG'
p2705
I553
sS'GGACTG'
p2706
I2356
sS'CACCTT'
p2707
I1840
sS'GGACTA'
p2708
I796
sS'AACTAA'
p2709
I3845
sS'AACGAT'
p2710
I266
sS'AACACG'
p2711
I2215
sS'AACACA'
p2712
I7791
sS'AACACC'
p2713
I4963
sS'TGATCT'
p2714
I658
sS'AAAGAC'
p2715
I1701
sS'ACGCAC'
p2716
I828
sS'CAACAG'
p2717
I1452
sS'GACAGT'
p2718
I4615
sS'CAACAA'
p2719
I896
sS'AAAGAA'
p2720
I2645
sS'CAACAC'
p2721
I997
sS'GCTGAT'
p2722
I821
sS'ACGCAA'
p2723
I401
sS'GACAGG'
p2724
I15219
sS'ATATCC'
p2725
I1253
sS'GACAGC'
p2726
I13869
sS'GACAGA'
p2727
I12102
sS'GTATTA'
p2728
I1634
sS'ACGAAT'
p2729
I126
sS'GTATTC'
p2730
I938
sS'GTAAGT'
p2731
I763
sS'ATATCA'
p2732
I1347
sS'AGAGGT'
p2733
I1000
sS'GGTGGC'
p2734
I6564
sS'TCCCCT'
p2735
I4080
sS'GGTGGA'
p2736
I4136
sS'TATCTT'
p2737
I1107
sS'GGTGGG'
p2738
I9699
sS'ATCCCT'
p2739
I2030
sS'AGAGGC'
p2740
I4567
sS'GTAAGA'
p2741
I1392
sS'AGAGGA'
p2742
I3672
sS'CTCGCC'
p2743
I7974
sS'AGAGGG'
p2744
I5064
sS'GTAAGG'
p2745
I1768
sS'TCCCCG'
p2746
I7788
sS'TATCTC'
p2747
I3022
sS'TCCCCC'
p2748
I7484
sS'GGTGGT'
p2749
I1493
sS'TCCCCA'
p2750
I8007
sS'GTCGCG'
p2751
I2694
sS'GTCGCA'
p2752
I1700
sS'GTCGCC'
p2753
I4750
sS'CCGTCT'
p2754
I994
sS'TAATAC'
p2755
I894
sS'TCGGTA'
p2756
I383
sS'GAGAGT'
p2757
I3139
sS'TCGGTG'
p2758
I1467
sS'GTCGCT'
p2759
I1588
sS'TACCTA'
p2760
I2333
sS'CCGTCG'
p2761
I1097
sS'CCGTCA'
p2762
I1163
sS'CCGTCC'
p2763
I3536
sS'GGCTGT'
p2764
I6771
sS'CGCGTG'
p2765
I4310
sS'GCATTT'
p2766
I623
sS'CGCGTC'
p2767
I3834
sS'CGCGTA'
p2768
I995
sS'GTTTTA'
p2769
I5044
sS'CCACTG'
p2770
I2526
sS'ATGCAA'
p2771
I1527
sS'CCACTC'
p2772
I1678
sS'CGCGTT'
p2773
I708
sS'GGCTGG'
p2774
I24529
sS'GGCTGA'
p2775
I10677
sS'GGCTGC'
p2776
I25650
sS'ATGCAT'
p2777
I598
sS'CCTACC'
p2778
I2776
sS'ATGACG'
p2779
I926
sS'GGAGTT'
p2780
I367
sS'ATGACA'
p2781
I2430
sS'ATGACC'
p2782
I1930
sS'CCTGAT'
p2783
I559
sS'GGGCCT'
p2784
I4080
sS'ATGACT'
p2785
I964
sS'GGAGTA'
p2786
I798
sS'CTACGC'
p2787
I757
sS'GGAGTC'
p2788
I1627
sS'GGAGTG'
p2789
I2679
sS'GGGCCG'
p2790
I7426
sS'GGGCCC'
p2791
I9588
sS'GGGCCA'
p2792
I5271
sS'CTGATC'
p2793
I1388
sS'ACGAGT'
p2794
I296
sS'AGGCCA'
p2795
I6061
sS'AGGCCC'
p2796
I9543
sS'AGGCCG'
p2797
I5498
sS'ACGAGG'
p2798
I1616
sS'ACGAGC'
p2799
I1017
sS'ACGAGA'
p2800
I662
sS'GGCAAC'
p2801
I4125
sS'AGGCCT'
p2802
I3696
sS'GATTTA'
p2803
I5712
sS'AGACGG'
p2804
I1204
sS'GGGTTG'
p2805
I3923
sS'TTTGGG'
p2806
I3011
sS'GGGTTA'
p2807
I1812
sS'GGGTTC'
p2808
I2754
sS'AATTGG'
p2809
I2520
sS'TTTGAT'
p2810
I664
sS'ATTCGA'
p2811
I403
sS'ATTGCT'
p2812
I803
sS'TGCGAA'
p2813
I983
sS'TGCGAC'
p2814
I1413
sS'AGAAAT'
p2815
I751
sS'TGCGAG'
p2816
I2675
sS'AACGGC'
p2817
I2213
sS'AGACGC'
p2818
I1522
sS'ATTGCA'
p2819
I1578
sS'GACTAG'
p2820
I3473
sS'ATTGCG'
p2821
I478
sS'TTTGAC'
p2822
I1607
sS'TTTGAA'
p2823
I2599
sS'CGGGCT'
p2824
I2446
sS'TGACGT'
p2825
I502
sS'CTCGTC'
p2826
I2416
sS'CCCTGG'
p2827
I16586
sS'CCCTGA'
p2828
I7891
sS'AAGCTT'
p2829
I1014
sS'CCCTGC'
p2830
I19954
sS'GTGTAA'
p2831
I1546
sS'CCCTGT'
p2832
I4423
sS'AAGCTC'
p2833
I3853
sS'GATATA'
p2834
I2122
sS'AAGCTA'
p2835
I2831
sS'GATATG'
p2836
I2259
sS'AAGCTG'
p2837
I7867
sS'TGACGC'
p2838
I1039
sS'TACTCT'
p2839
I2585
sS'CATCGT'
p2840
I547
sS'CAGGGT'
p2841
I2243
sS'CTACGG'
p2842
I762
sS'CCAGTC'
p2843
I1619
sS'TACGAT'
p2844
I173
sS'CCAGTG'
p2845
I2801
sS'TACTCG'
p2846
I1524
sS'CATCGA'
p2847
I962
sS'CATCGC'
p2848
I2252
sS'TACTCC'
p2849
I4317
sS'TACTCA'
p2850
I4473
sS'CATCGG'
p2851
I1448
sS'CAGGGG'
p2852
I8499
sS'CAGGGA'
p2853
I7595
sS'CAGGGC'
p2854
I10940
sS'AATCTG'
p2855
I4724
sS'CGGACT'
p2856
I1045
sS'AGGTAG'
p2857
I1619
sS'AGTCGA'
p2858
I833
sS'AATCTA'
p2859
I2788
sS'ATCCAA'
p2860
I1955
sS'TCACAC'
p2861
I966
sS'TCACAA'
p2862
I622
sS'TCACAG'
p2863
I1437
sS'GCCATA'
p2864
I2479
sS'CGGACG'
p2865
I1859
sS'GCCATC'
p2866
I4416
sS'CGGACA'
p2867
I1553
sS'CGGACC'
p2868
I2965
sS'GCCATG'
p2869
I7412
sS'TTTTAA'
p2870
I6075
sS'TCACAT'
p2871
I390
sS'ATTAAC'
p2872
I1869
sS'ATTAAA'
p2873
I3809
sS'ATTAAG'
p2874
I2010
sS'TTTTAC'
p2875
I2557
sS'TCACTT'
p2876
I448
sS'ATCCAG'
p2877
I3657
sS'ATTAAT'
p2878
I919
sS'GAACCA'
p2879
I1905
sS'GGTATG'
p2880
I1165
sS'CTGAAT'
p2881
I693
sS'GGTATC'
p2882
I789
sS'CGAGAG'
p2883
I1198
sS'GGCCTA'
p2884
I3347
sS'TCGCTT'
p2885
I317
sS'CTGAAA'
p2886
I2389
sS'CTGAAC'
p2887
I2131
sS'CTGAAG'
p2888
I3269
sS'ATTGTA'
p2889
I1455
sS'NNNNGA'
p2890
I1
sS'CATTGC'
p2891
I4088
sS'TATGAG'
p2892
I1860
sS'CATTGA'
p2893
I2992
sS'CTAGTT'
p2894
I279
sS'CATTGG'
p2895
I3766
sS'TCAACT'
p2896
I509
sS'ATGTTA'
p2897
I2626
sS'ACACCG'
p2898
I722
sS'CTGCCA'
p2899
I9020
sS'CTGCCC'
p2900
I16380
sS'ACACCC'
p2901
I1796
sS'ACACCA'
p2902
I1316
sS'CTGCCG'
p2903
I7339
sS'CTAGTG'
p2904
I1412
sS'TCAACC'
p2905
I1157
sS'ATGTTC'
p2906
I1858
sS'CTAGTC'
p2907
I753
sS'TCAACG'
p2908
I373
sS'CTAGTA'
p2909
I781
sS'CATTGT'
p2910
I2426
sS'CCCGGG'
p2911
I13187
sS'GTAATG'
p2912
I1564
sS'ACACCT'
p2913
I600
sS'CTGCCT'
p2914
I6876
sS'CCTCGT'
p2915
I901
sS'TTGTGT'
p2916
I2246
sS'AGACTG'
p2917
I2159
sS'CGAGGT'
p2918
I681
sS'AGACTA'
p2919
I803
sS'CCTCGG'
p2920
I5379
sS'CCTCGC'
p2921
I5548
sS'CCCGAC'
p2922
I2987
sS'CCTCGA'
p2923
I1406
sS'CGAGGA'
p2924
I1808
sS'CGAGGC'
p2925
I2931
sS'CGAGGG'
p2926
I2993
sS'CACCGT'
p2927
I1521
sS'ACTTTA'
p2928
I2916
sS'ACTTTG'
p2929
I3505
sS'GACCTG'
p2930
I12012
sS'GACCTA'
p2931
I3367
sS'GACCTC'
p2932
I7421
sS'CACCGG'
p2933
I4560
sS'CTATTG'
p2934
I1642
sS'CACCGA'
p2935
I2588
sS'CACCGC'
p2936
I7899
sS'GACCTT'
p2937
I2164
sS'GGACGC'
p2938
I1965
sS'GGACGG'
p2939
I1751
sS'GCATAA'
p2940
I684
sS'CACAGC'
p2941
I14679
sS'CTTATC'
p2942
I1646
sS'CACAGA'
p2943
I10641
sS'CTTATA'
p2944
I1513
sS'CACAGG'
p2945
I12861
sS'CTTATG'
p2946
I1574
sS'ACTCAT'
p2947
I539
sS'GAGGAG'
p2948
I15781
sS'GACGTA'
p2949
I1228
sS'CGTATC'
p2950
I358
sS'GACGTC'
p2951
I3233
sS'TAAACT'
p2952
I962
sS'GAGGAA'
p2953
I7255
sS'AGCGAT'
p2954
I511
sS'TTAACA'
p2955
I1996
sS'ACTCAC'
p2956
I2426
sS'TTAACC'
p2957
I1480
sS'TATGAT'
p2958
I713
sS'ACTCAG'
p2959
I2789
sS'CTTATT'
p2960
I688
sS'CACAGT'
p2961
I4077
sS'AGCGAC'
p2962
I2396
sS'TAAACA'
p2963
I3189
sS'AGCGAA'
p2964
I1556
sS'GAGGAT'
p2965
I1332
sS'AGCGAG'
p2966
I4728
sS'TCTAAA'
p2967
I1712
sS'TAAACG'
p2968
I560
sS'AGTTCC'
p2969
I4635
sS'GTATGT'
p2970
I841
sS'AGTTCA'
p2971
I3612
sS'TACTTA'
p2972
I5598
sS'CTGTGC'
p2973
I8469
sS'TAGCCC'
p2974
I2905
sS'CTGTGA'
p2975
I5373
sS'CGGGGT'
p2976
I1637
sS'TAGGAC'
p2977
I1679
sS'GCAAAG'
p2978
I1924
sS'TAGGAA'
p2979
I1998
sS'GCAAAA'
p2980
I1069
sS'TAGGAG'
p2981
I2666
sS'GCAAAC'
p2982
I1370
sS'CGGGGC'
p2983
I9425
sS'CGGGGA'
p2984
I4440
sS'CTGTGT'
p2985
I4307
sS'CGGGGG'
p2986
I5907
sS'CGAGTT'
p2987
I169
sS'GTATGC'
p2988
I918
sS'AGCTCG'
p2989
I5260
sS'GCAAAT'
p2990
I505
sS'AATCTC'
p2991
I2696
sS'CGAGAA'
p2992
I562
sS'TAGGAT'
p2993
I450
sS'AAAAAT'
p2994
I806
sS'TTCAAT'
p2995
I1631
sS'TGCTTT'
p2996
I3943
sS'GTCTAT'
p2997
I1090
sS'GTAATT'
p2998
I456
sS'GTTACC'
p2999
I1743
sS'TATCGG'
p3000
I543
sS'TAATTC'
p3001
I1215
sS'GTTACG'
p3002
I504
sS'TATCGC'
p3003
I663
sS'TATAGT'
p3004
I986
sS'GTCTAA'
p3005
I2824
sS'CAGGAC'
p3006
I4564
sS'GTCTAC'
p3007
I2424
sS'TGCTTC'
p3008
I9964
sS'TTCAAA'
p3009
I5593
sS'GTCTAG'
p3010
I2841
sS'TGCTTG'
p3011
I9899
sS'TATAGC'
p3012
I1573
sS'TATCGT'
p3013
I232
sS'TATAGA'
p3014
I2020
sS'AGTGGG'
p3015
I5622
sS'TATAGG'
p3016
I1486
sS'GTTACT'
p3017
I982
sS'GCTCTC'
p3018
I5702
sS'GCTCTA'
p3019
I2663
sS'GGGCTA'
p3020
I2461
sS'GCTCTG'
p3021
I11761
sS'CCACGT'
p3022
I650
sS'GGAAAG'
p3023
I3235
sS'CAGGAG'
p3024
I7046
sS'GAATGG'
p3025
I2514
sS'GGCTTT'
p3026
I3269
sS'ACTACT'
p3027
I570
sS'GAATGC'
p3028
I2158
sS'CCACGA'
p3029
I567
sS'AACCTG'
p3030
I6297
sS'CCACGC'
p3031
I1822
sS'GGCGTA'
p3032
I1164
sS'GGCGTG'
p3033
I6202
sS'CCACGG'
p3034
I1433
sS'GCTCTT'
p3035
I1208
sS'GGCTTA'
p3036
I5016
sS'ACTACC'
p3037
I1147
sS'GGCTTC'
p3038
I11581
sS'ACTACA'
p3039
I1686
sS'ACTACG'
p3040
I558
sS'GGCTTG'
p3041
I11006
sS'TCCTAG'
p3042
I3422
sS'AGTCAG'
p3043
I4096
sS'CGTTGC'
p3044
I2112
sS'TAACAC'
p3045
I808
sS'TCCTAC'
p3046
I3075
sS'AGTCAC'
p3047
I3703
sS'CGTTGG'
p3048
I1834
sS'AGTCAA'
p3049
I2052
sS'TCATCG'
p3050
I560
sS'AAGCGT'
p3051
I761
sS'TCATCC'
p3052
I2264
sS'AAAAAC'
p3053
I2314
sS'CTTTCT'
p3054
I3705
sS'AGTCAT'
p3055
I976
sS'TCCTAT'
p3056
I1168
sS'TAACAT'
p3057
I376
sS'CGTTGT'
p3058
I722
sS'CTTTCC'
p3059
I8989
sS'CTTTCA'
p3060
I5060
sS'CTTTCG'
p3061
I1704
sS'AAAAAG'
p3062
I2778
sS'GTTGAT'
p3063
I397
sS'CGACCA'
p3064
I514
sS'CGACCC'
p3065
I1295
sS'GCATAC'
p3066
I507
sS'CGACCG'
p3067
I564
sS'CCTTAT'
p3068
I829
sS'GTTGAC'
p3069
I1208
sS'GTTGAA'
p3070
I1432
sS'CGTCAA'
p3071
I684
sS'GTTGAG'
p3072
I2020
sS'CCTTAC'
p3073
I1615
sS'TTCGAT'
p3074
I182
sS'CTATTT'
p3075
I718
sS'CCTTAG'
p3076
I1881
sS'CGACCT'
p3077
I373
sS'AATAGA'
p3078
I3130
sS'CAACTA'
p3079
I686
sS'CAACTG'
p3080
I1523
sS'AATAGG'
p3081
I2400
sS'GCAGCA'
p3082
I5629
sS'GGGGTT'
p3083
I670
sS'GGATGT'
p3084
I867
sS'AATAGT'
p3085
I1084
sS'CCAAGA'
p3086
I1486
sS'CAACTT'
p3087
I235
sS'ACTGTA'
p3088
I1913
sS'GGATGC'
p3089
I2205
sS'GGATGA'
p3090
I1281
sS'GGATGG'
p3091
I2554
sS'GGGGTA'
p3092
I1524
sS'TCTCCG'
p3093
I2700
sS'GAGTCC'
p3094
I8345
sS'AAACTG'
p3095
I2246
sS'TCTCCC'
p3096
I6191
sS'CCCTTT'
p3097
I3102
sS'TCTCCA'
p3098
I4071
sS'AAACTC'
p3099
I1256
sS'ACGCGA'
p3100
I635
sS'AGTACG'
p3101
I648
sS'ACGCGC'
p3102
I1808
sS'GCTAAG'
p3103
I1980
sS'AGTACC'
p3104
I1743
sS'ACGCGG'
p3105
I1830
sS'AGTACA'
p3106
I2080
sS'CCCTTA'
p3107
I4791
sS'CCCTTC'
p3108
I12173
sS'TCTCCT'
p3109
I2317
sS'CCCTTG'
p3110
I9599
sS'AGTACT'
p3111
I1046
sS'CTATGT'
p3112
I806
sS'GCCGAA'
p3113
I1491
sS'GTGGAG'
p3114
I4629
sS'GCCGAC'
p3115
I2810
sS'GCTTAT'
p3116
I827
sS'GTGGAC'
p3117
I2087
sS'GCCGAG'
p3118
I6605
sS'GTGGAA'
p3119
I2186
sS'TATCAT'
p3120
I1089
sS'GTGGAT'
p3121
I558
sS'GCCGAT'
p3122
I407
sS'AGATAG'
p3123
I731
sS'TATCTG'
p3124
I5008
sS'CACTGT'
p3125
I5052
sS'ACCGAG'
p3126
I1961
sS'AAATCG'
p3127
I429
sS'CACGCG'
p3128
I3705
sS'TTATCG'
p3129
I310
sS'CACGCA'
p3130
I3666
sS'AAATCC'
p3131
I2136
sS'CACGCC'
p3132
I6097
sS'AAATCA'
p3133
I2286
sS'ATGTCT'
p3134
I1559
sS'CACGCT'
p3135
I1863
sS'AAATCT'
p3136
I965
sS'AAAGTC'
p3137
I1168
sS'GTAGTT'
p3138
I320
sS'AGATAA'
p3139
I1465
sS'GATGAT'
p3140
I1235
sS'GGAGCA'
p3141
I3407
sS'GGAGCC'
p3142
I7059
sS'AAAGTG'
p3143
I2309
sS'CCAAAT'
p3144
I383
sS'GGAGCG'
p3145
I3608
sS'AAAACT'
p3146
I1096
sS'GATGAC'
p3147
I3820
sS'GATGAA'
p3148
I4082
sS'GATGAG'
p3149
I5463
sS'AAAACC'
p3150
I2824
sS'AGAACA'
p3151
I2792
sS'AAAACA'
p3152
I4474
sS'AAAACG'
p3153
I866
sS'GGAGCT'
p3154
I2174
sS'CCAAAG'
p3155
I1301
sS'TCGCGG'
p3156
I1756
sS'CTAGAG'
p3157
I1428
sS'TCGCGC'
p3158
I1699
sS'CTACCG'
p3159
I719
sS'GCCACA'
p3160
I7423
sS'AGATCA'
p3161
I1348
sS'GCCACC'
p3162
I11457
sS'AGATCC'
p3163
I1859
sS'GCGCTT'
p3164
I705
sS'GCCACG'
p3165
I5598
sS'AGATCG'
p3166
I445
sS'ACCAGC'
p3167
I6547
sS'TCGCGT'
p3168
I376
sS'GTGCAA'
p3169
I1831
sS'ACCCGT'
p3170
I606
sS'AGAAAG'
p3171
I3236
sS'TACCCG'
p3172
I1800
sS'AGAAAC'
p3173
I2399
sS'TACCCA'
p3174
I3209
sS'AGAAAA'
p3175
I2571
sS'ACCTAA'
p3176
I1926
sS'ATGTAC'
p3177
I1183
sS'GACCGA'
p3178
I2720
sS'ATGTAA'
p3179
I1831
sS'ATGTAG'
p3180
I1173
sS'GTTCGA'
p3181
I583
sS'CTACCA'
p3182
I1152
sS'CCGGCA'
p3183
I2302
sS'GACGAC'
p3184
I2242
sS'ATGTCG'
p3185
I701
sS'CTATGA'
p3186
I1218
sS'ATGTAT'
p3187
I633
sS'GGTCGT'
p3188
I662
sS'GTTCCA'
p3189
I2514
sS'CACTGA'
p3190
I8259
sS'ATTAGC'
p3191
I1821
sS'AGCACT'
p3192
I4238
sS'TTAGAA'
p3193
I1097
sS'CGGCTG'
p3194
I7870
sS'TTAGAC'
p3195
I573
sS'GGATAC'
p3196
I512
sS'CGGCTC'
p3197
I5997
sS'TTAGAG'
p3198
I1064
sS'CGGCTA'
p3199
I1320
sS'AGCACC'
p3200
I9213
sS'AGCACA'
p3201
I8317
sS'AGCACG'
p3202
I3984
sS'CGGCTT'
p3203
I904
sS'CGCCCT'
p3204
I4439
sS'TTAGAT'
p3205
I293
sS'CCAGCA'
p3206
I4840
sS'ACCTAT'
p3207
I538
sS'CCAGCC'
p3208
I8614
sS'AAAGAG'
p3209
I2822
sS'AACTAC'
p3210
I2923
sS'CCAGCG'
p3211
I3471
sS'CGACGT'
p3212
I222
sS'TTATTT'
p3213
I891
sS'TGTGAG'
p3214
I4351
sS'TGTGAA'
p3215
I2852
sS'ACGTCT'
p3216
I582
sS'TGTGAC'
p3217
I3254
sS'ATATCT'
p3218
I739
sS'CCAGCT'
p3219
I2859
sS'AAAGAT'
p3220
I536
sS'TGTGAT'
p3221
I1071
sS'TTATTG'
p3222
I2126
sS'TTATTA'
p3223
I3179
sS'CATGAT'
p3224
I727
sS'TTATTC'
p3225
I1430
sS'ACATCT'
p3226
I1223
sS'TTTTAT'
p3227
I1726
sS'TACAAG'
p3228
I3231
sS'TCCACT'
p3229
I2891
sS'TACAAA'
p3230
I4857
sS'AGACGA'
p3231
I522
sS'TACAAC'
p3232
I2668
sS'CCTCTG'
p3233
I10171
sS'AGGTGG'
p3234
I7095
sS'CCTCTC'
p3235
I7287
sS'AGGTGC'
p3236
I4850
sS'CCTCTA'
p3237
I2790
sS'AGGTGA'
p3238
I3718
sS'CTTACG'
p3239
I627
sS'TCCACA'
p3240
I5485
sS'TTTTAG'
p3241
I2328
sS'TCCACC'
p3242
I7747
sS'CTTACC'
p3243
I2239
sS'ACATCA'
p3244
I1602
sS'CTTACA'
p3245
I1919
sS'TCCACG'
p3246
I3420
sS'AGGTGT'
p3247
I1862
sS'CCTCTT'
p3248
I1437
sS'GCGTGA'
p3249
I1389
sS'CCCGGC'
p3250
I13221
sS'CCCGGA'
p3251
I4707
sS'CCCAAT'
p3252
I1026
sS'TATGAC'
p3253
I1754
sS'TATGAA'
p3254
I2340
sS'TGGAAT'
p3255
I854
sS'TAGGTG'
p3256
I2163
sS'TTGTGC'
p3257
I3058
sS'TTGTGA'
p3258
I2571
sS'TTGTGG'
p3259
I3404
sS'CCCGGT'
p3260
I1429
sS'TGGAAG'
p3261
I4287
sS'GGTTTT'
p3262
I1026
sS'TGGAAC'
p3263
I2279
sS'TGGAAA'
p3264
I3190
sS'TGAGGA'
p3265
I2321
sS'AAGAGG'
p3266
I8671
sS'TGAGGC'
p3267
I2948
sS'AAGAGA'
p3268
I6413
sS'AAGAGC'
p3269
I5970
sS'TGAGGG'
p3270
I3163
sS'GCTTAG'
p3271
I2009
sS'GCTTAC'
p3272
I1527
sS'GCTTAA'
p3273
I2011
sS'TGATTC'
p3274
I926
sS'AAGCGC'
p3275
I3456
sS'AAGAGT'
p3276
I1766
sS'AAGCGA'
p3277
I1667
sS'AAGCGG'
p3278
I3659
sS'TGATTA'
p3279
I1425
sS'CTGCTA'
p3280
I4115
sS'GCGTGT'
p3281
I1174
sS'CTGCTC'
p3282
I10358
sS'ACTTCT'
p3283
I1539
sS'GACCGT'
p3284
I1344
sS'CTGCTG'
p3285
I18429
sS'CGGTCA'
p3286
I1291
sS'CTATGG'
p3287
I1440
sS'CGGTCC'
p3288
I3561
sS'CTAGAA'
p3289
I1047
sS'CGGTCG'
p3290
I1294
sS'ACTTCG'
p3291
I1072
sS'GACCGC'
p3292
I5844
sS'ACTTCC'
p3293
I5039
sS'CTGCTT'
p3294
I2565
sS'GACCGG'
p3295
I5399
sS'TCGGAA'
p3296
I458
sS'CTAGAT'
p3297
I239
sS'GGTCGG'
p3298
I3487
sS'CGGTCT'
p3299
I1039
sS'GGTCGC'
p3300
I3351
sS'GGTCGA'
p3301
I1020
sS'CGTCGC'
p3302
I2855
sS'GCGTGG'
p3303
I3617
sS'CGTCGG'
p3304
I2291
sS'GCGTGC'
p3305
I2934
sS'TGCTCA'
p3306
I8741
sS'TTCATC'
p3307
I3676
sS'TGCTCC'
p3308
I13223
sS'TTCATA'
p3309
I4075
sS'TTCATG'
p3310
I5117
sS'TGCTCG'
p3311
I4147
sS'GTACAA'
p3312
I578
sS'CAGCAG'
p3313
I9336
sS'TACACT'
p3314
I2079
sS'GCGGCT'
p3315
I2325
sS'CAGCAC'
p3316
I5128
sS'CAGCAA'
p3317
I3307
sS'ACGACT'
p3318
I297
sS'TGCTCT'
p3319
I6148
sS'TTCATT'
p3320
I2249
sS'GCTTTA'
p3321
I4152
sS'GCTGCC'
p3322
I10179
sS'GCTGCA'
p3323
I6931
sS'AACTCT'
p3324
I3056
sS'GCTGCG'
p3325
I6526
sS'TGGCCA'
p3326
I5002
sS'GCTTTC'
p3327
I4893
sS'TCATCT'
p3328
I1216
sS'AACTCA'
p3329
I5691
sS'TGGCCT'
p3330
I2977
sS'AACTCC'
p3331
I6758
sS'GCTGCT'
p3332
I4163
sS'AACTCG'
p3333
I2287
sS'CTACAA'
p3334
I858
sS'AATATT'
p3335
I799
sS'CAACCT'
p3336
I622
sS'CAGTTA'
p3337
I3004
sS'TGGCCG'
p3338
I4123
sS'GGCACG'
p3339
I3996
sS'GGCACA'
p3340
I6724
sS'GACAAT'
p3341
I2086
sS'GGCACC'
p3342
I8926
sS'CAACCG'
p3343
I677
sS'ACGACC'
p3344
I788
sS'AATATG'
p3345
I2525
sS'CAACCC'
p3346
I1888
sS'TTAGGA'
p3347
I1172
sS'AATATC'
p3348
I1361
sS'CTTCGT'
p3349
I639
sS'GACAAA'
p3350
I6726
sS'GGCACT'
p3351
I3712
sS'GACAAC'
p3352
I4334
sS'ACGACA'
p3353
I520
sS'GACAAG'
p3354
I7192
sS'TGGCCC'
p3355
I6906
sS'GCTTTT'
p3356
I1551
sS'GCAATA'
p3357
I876
sS'GCAATG'
p3358
I1608
sS'TTGAAC'
p3359
I1394
sS'CGATGG'
p3360
I720
sS'TCCCAT'
p3361
I1285
sS'CGATGC'
p3362
I682
sS'CAGCAT'
p3363
I1234
sS'CGATGA'
p3364
I394
sS'GAATTA'
p3365
I2036
sS'GAATTC'
p3366
I1288
sS'GAATTG'
p3367
I1690
sS'TCCCAA'
p3368
I2895
sS'CGATGT'
p3369
I233
sS'TCCCAC'
p3370
I5305
sS'GTAAAG'
p3371
I1254
sS'TCCCAG'
p3372
I8523
sS'GGATTT'
p3373
I318
sS'GTGCGT'
p3374
I1180
sS'ACGCCG'
p3375
I1423
sS'GGATTC'
p3376
I956
sS'AATTAG'
p3377
I3149
sS'GGATTA'
p3378
I780
sS'GGATTG'
p3379
I1276
sS'ACCTCT'
p3380
I2661
sS'ACGCCA'
p3381
I1089
sS'ATATAG'
p3382
I560
sS'TCTGTG'
p3383
I6705
sS'TCTGTC'
p3384
I3256
sS'TCTGTA'
p3385
I3005
sS'GGCGGC'
p3386
I18056
sS'CTCCTT'
p3387
I3802
sS'GGCGGA'
p3388
I6551
sS'GGCGGG'
p3389
I22666
sS'AACCGA'
p3390
I1470
sS'TCTGTT'
p3391
I892
sS'AAAGCG'
p3392
I1562
sS'CTCCTG'
p3393
I19666
sS'AACCGT'
p3394
I701
sS'CTCCTA'
p3395
I5585
sS'CTCCTC'
p3396
I18814
sS'GGCGGT'
p3397
I2706
sS'GACGCA'
p3398
I3889
sS'CCCACG'
p3399
I5351
sS'CCCACA'
p3400
I7398
sS'CCCACC'
p3401
I14369
sS'ATAGCA'
p3402
I1230
sS'AGCCTT'
p3403
I2631
sS'CCGATT'
p3404
I165
sS'CCCACT'
p3405
I4007
sS'AACAAT'
p3406
I1963
sS'GACGCT'
p3407
I2763
sS'AAATAC'
p3408
I1468
sS'GTGCGA'
p3409
I1297
sS'CCGATA'
p3410
I243
sS'AGCCTG'
p3411
I17049
sS'AGCCTA'
p3412
I3944
sS'AGCCTC'
p3413
I11759
sS'GTACCC'
p3414
I1142
sS'ACCTCA'
p3415
I4769
sS'GTACCG'
p3416
I547
sS'CGCCTT'
p3417
I2014
sS'GCGCCT'
p3418
I2303
sS'CAGAGT'
p3419
I2458
sS'GCATCT'
p3420
I1498
sS'ACCTCG'
p3421
I3185
sS'AGGCAC'
p3422
I3624
sS'CGCCTC'
p3423
I11630
sS'CTACAG'
p3424
I1275
sS'CGCCTA'
p3425
I2113
sS'GAGTTC'
p3426
I3463
sS'CGCCTG'
p3427
I10954
sS'GAGTTA'
p3428
I3268
sS'CAGAGG'
p3429
I11366
sS'GCATCC'
p3430
I2850
sS'GTGCGG'
p3431
I4413
sS'CAGAGC'
p3432
I10596
sS'GCATCG'
p3433
I757
sS'CAGAGA'
p3434
I7579
sS'AATCAT'
p3435
I1183
sS'TAGCTA'
p3436
I1854
sS'CCGATC'
p3437
I457
sS'CCTAGA'
p3438
I1822
sS'CCTAGC'
p3439
I2431
sS'TTTGCT'
p3440
I1710
sS'TAGCTC'
p3441
I2295
sS'TGCGGT'
p3442
I1230
sS'CCTAGG'
p3443
I2820
sS'CCCATG'
p3444
I5056
sS'ACGTTG'
p3445
I795
sS'TGCGGC'
p3446
I6052
sS'TGCGGA'
p3447
I2680
sS'CCTAGT'
p3448
I841
sS'TGCGGG'
p3449
I6764
sS'CCCATA'
p3450
I2321
sS'TGAGTT'
p3451
I291
sS'TAGCTG'
p3452
I3988
sS'ATCGCT'
p3453
I583
sS'TCTCGT'
p3454
I439
sS'ATCGCC'
p3455
I1605
sS'TGAGTG'
p3456
I2382
sS'ATCGCA'
p3457
I834
sS'TGAGTA'
p3458
I1008
sS'ATCGCG'
p3459
I1036
sS'TGAGTC'
p3460
I1218
sS'AAGGTG'
p3461
I4290
sS'AAGGTC'
p3462
I2240
sS'CATCAT'
p3463
I1171
sS'AAGGTA'
p3464
I2098
sS'ACGGCA'
p3465
I989
sS'CATCAC'
p3466
I3720
sS'ACGGCC'
p3467
I2200
sS'CATCAA'
p3468
I2701
sS'CATCAG'
p3469
I4325
sS'ACGGCG'
p3470
I1482
sS'TCACCT'
p3471
I801
sS'CGGAAT'
p3472
I326
sS'CAATTC'
p3473
I912
sS'ATCGAT'
p3474
I119
sS'TCACCG'
p3475
I924
sS'TCACCA'
p3476
I1447
sS'TCACCC'
p3477
I1963
sS'CGGAAG'
p3478
I3208
sS'AATATA'
p3479
I3047
sS'AACTGG'
p3480
I6157
sS'AAAATA'
p3481
I2775
sS'CGGAAC'
p3482
I1550
sS'CGGAAA'
p3483
I1269
sS'TAGCTT'
p3484
I672
sS'TGTGTC'
p3485
I3550
sS'TGTGTA'
p3486
I3471
sS'CCGTAG'
p3487
I573
sS'TGTGTG'
p3488
I10802
sS'ATGGCA'
p3489
I2843
sS'TTACTT'
p3490
I352
sS'TCGTCC'
p3491
I1682
sS'ATGGCT'
p3492
I1408
sS'TGTGTT'
p3493
I1065
sS'CCAAGT'
p3494
I805
sS'AGATTA'
p3495
I1302
sS'GAAACG'
p3496
I1589
sS'GAAACA'
p3497
I4289
sS'GAAACC'
p3498
I3884
sS'CTGAGT'
p3499
I1904
sS'GAAACT'
p3500
I1628
sS'AGAATG'
p3501
I2306
sS'AGAATA'
p3502
I1450
sS'AGAATC'
p3503
I1049
sS'CTGAGC'
p3504
I6818
sS'CTGAGA'
p3505
I4437
sS'CTGAGG'
p3506
I8020
sS'CATACC'
p3507
I1607
sS'CATACA'
p3508
I2596
sS'GCGCGT'
p3509
I1089
sS'CATACG'
p3510
I498
sS'GCAATC'
p3511
I721
sS'TCAAAT'
p3512
I419
sS'GTCCAT'
p3513
I1160
sS'ACATAG'
p3514
I609
sS'CATACT'
p3515
I996
sS'GTCCAG'
p3516
I7051
sS'TCAAAG'
p3517
I1098
sS'CACGAG'
p3518
I2098
sS'GTCCAC'
p3519
I3902
sS'GTCCAA'
p3520
I2580
sS'CGGCGG'
p3521
I10161
sS'TTGATG'
p3522
I2240
sS'CTCATT'
p3523
I2049
sS'CGGCGC'
p3524
I7179
sS'TTGATC'
p3525
I764
sS'CGGCGA'
p3526
I2300
sS'CGTACA'
p3527
I631
sS'CTATCT'
p3528
I987
sS'AAGTGA'
p3529
I4131
sS'TTGATT'
p3530
I515
sS'CGGCGT'
p3531
I1236
sS'ATGGCC'
p3532
I3670
sS'GTACGC'
p3533
I488
sS'TATAAG'
p3534
I1818
sS'TCGTCT'
p3535
I519
sS'CGGTTA'
p3536
I678
sS'GGTTTA'
p3537
I2919
sS'CGGTTC'
p3538
I1487
sS'GGTTTC'
p3539
I3857
sS'TTTACA'
p3540
I3070
sS'CGGTTG'
p3541
I1551
sS'GGTTTG'
p3542
I4676
sS'CCATTG'
p3543
I1934
sS'ATCCCA'
p3544
I3741
sS'GCTGTG'
p3545
I9284
sS'GCTGTC'
p3546
I4099
sS'CGGTTT'
p3547
I403
sS'GCTGTA'
p3548
I2930
sS'ACGTGT'
p3549
I610
sS'TATGCG'
p3550
I557
sS'TCTCAA'
p3551
I1774
sS'AGGTTG'
p3552
I2996
sS'AGGTTC'
p3553
I2140
sS'AGGTTA'
p3554
I2065
sS'ATGAAA'
p3555
I2225
sS'ACTCCT'
p3556
I1172
sS'TTTTTC'
p3557
I4377
sS'GAGGGC'
p3558
I13212
sS'TTTTTA'
p3559
I7327
sS'TTTTTG'
p3560
I4497
sS'GAGGGG'
p3561
I19097
sS'TTAAAT'
p3562
I923
sS'AGGTTT'
p3563
I777
sS'AGGGGG'
p3564
I6684
sS'TTAAAC'
p3565
I1488
sS'ATACGT'
p3566
I100
sS'TTAAAA'
p3567
I2763
sS'ACTCCG'
p3568
I1607
sS'TTAAAG'
p3569
I1824
sS'GAGGGT'
p3570
I3367
sS'TTTTTT'
p3571
I1846
sS'ACTCCC'
p3572
I3275
sS'CTGTAA'
p3573
I2308
sS'GTCACG'
p3574
I3231
sS'CTGTAC'
p3575
I1849
sS'GCAACT'
p3576
I799
sS'GTCACC'
p3577
I7478
sS'CTGTAG'
p3578
I2286
sS'GTCACA'
p3579
I5825
sS'ACTTAT'
p3580
I692
sS'GCAACG'
p3581
I866
sS'GTCACT'
p3582
I3734
sS'TAGGCG'
p3583
I1543
sS'GCAACC'
p3584
I2025
sS'TAGGCA'
p3585
I2589
sS'GCAACA'
p3586
I1691
sS'TAGGCC'
p3587
I3037
sS'ATTCAT'
p3588
I730
sS'GTAAAA'
p3589
I1208
sS'GCGATT'
p3590
I224
sS'TCGTGT'
p3591
I407
sS'TTCACT'
p3592
I3189
sS'GTCTCT'
p3593
I5805
sS'AACATT'
p3594
I1347
sS'ATTCAG'
p3595
I2099
sS'ATATTA'
p3596
I1975
sS'ATTCAA'
p3597
I1843
sS'ATTCAC'
p3598
I1616
sS'GTCTCC'
p3599
I13184
sS'CCACTA'
p3600
I831
sS'TCGTGG'
p3601
I1252
sS'GCGATG'
p3602
I1400
sS'GTCTCG'
p3603
I4161
sS'GCGATA'
p3604
I384
sS'TTCACA'
p3605
I5736
sS'GCGATC'
p3606
I594
sS'GAAGGC'
p3607
I5682
sS'GAAGGA'
p3608
I5459
sS'GAAGGG'
p3609
I7790
sS'CGATTA'
p3610
I238
sS'GGAACC'
p3611
I2977
sS'AGACTT'
p3612
I277
sS'GGAACA'
p3613
I2138
sS'GGAACG'
p3614
I1308
sS'TGACGA'
p3615
I311
sS'ATAGTA'
p3616
I636
sS'TCATAC'
p3617
I646
sS'GAAGGT'
p3618
I1380
sS'CTCGCT'
p3619
I2783
sS'CAATCG'
p3620
I612
sS'CAATCA'
p3621
I1856
sS'CAATCC'
p3622
I1705
sS'TCCTGA'
p3623
I7086
sS'AGTCCA'
p3624
I3116
sS'TCCTGC'
p3625
I15699
sS'AGTCCC'
p3626
I5798
sS'ACTAAA'
p3627
I1379
sS'TCCTGG'
p3628
I15230
sS'ACTAAC'
p3629
I963
sS'TAACGC'
p3630
I471
sS'CAGCTG'
p3631
I14369
sS'CAGCTA'
p3632
I3356
sS'CAGCTC'
p3633
I8219
sS'ACTAAT'
p3634
I502
sS'GATTGT'
p3635
I1900
sS'AGTCCT'
p3636
I1932
sS'TCCTGT'
p3637
I4923
sS'TAATGT'
p3638
I1012
sS'CAGCTT'
p3639
I1518
sS'TAACGT'
p3640
I204
sS'TTGACC'
p3641
I1680
sS'GTACTT'
p3642
I287
sS'CGACAT'
p3643
I113
sS'TTGTTC'
p3644
I2611
sS'CGCAAG'
p3645
I2425
sS'CCGAGG'
p3646
I4286
sS'CCGAGA'
p3647
I1507
sS'CAGGCC'
p3648
I13332
sS'CCGAGC'
p3649
I3512
sS'CCGCGT'
p3650
I842
sS'CGACAC'
p3651
I380
sS'CGACAA'
p3652
I214
sS'CGACAG'
p3653
I579
sS'GTACTA'
p3654
I611
sS'CCGCGC'
p3655
I5369
sS'AGCCAC'
p3656
I8135
sS'CCGCGA'
p3657
I1448
sS'CCGCGG'
p3658
I4860
sS'TTGTTT'
p3659
I1559
sS'GCATAT'
p3660
I443
sS'TCCGTT'
p3661
I449
sS'AGGAAC'
p3662
I3252
sS'AATAAC'
p3663
I2971
sS'AATAAA'
p3664
I6785
sS'AATAAG'
p3665
I3014
sS'CGCCAT'
p3666
I1339
sS'TACAAT'
p3667
I1633
sS'AATAAT'
p3668
I1753
sS'ACGGTG'
p3669
I1287
sS'CCAACC'
p3670
I2370
sS'CCAACA'
p3671
I1488
sS'CCAACG'
p3672
I735
sS'GGGATT'
p3673
I712
sS'CGCCGC'
p3674
I21605
sS'TGGTAC'
p3675
I1060
sS'CGCCGA'
p3676
I3855
sS'GAGTAG'
p3677
I2578
sS'CGCCGG'
p3678
I10919
sS'GAGTAA'
p3679
I2358
sS'AGTAAG'
p3680
I2242
sS'CTCAGG'
p3681
I13280
sS'CTCAGC'
p3682
I14577
sS'CTCAGA'
p3683
I8409
sS'TATTGC'
p3684
I2751
sS'ATCGTC'
p3685
I577
sS'GTGTAG'
p3686
I1704
sS'TCGAGC'
p3687
I964
sS'AGTAAT'
p3688
I1104
sS'GTGTAC'
p3689
I1397
sS'CGCCGT'
p3690
I2232
sS'GTGGCA'
p3691
I5071
sS'CTCGGG'
p3692
I8067
sS'CTCGGA'
p3693
I3153
sS'GTGGCG'
p3694
I4343
sS'GCCGCC'
p3695
I19515
sS'GCCGCA'
p3696
I5731
sS'GCCGCG'
p3697
I11368
sS'ACACTT'
p3698
I312
sS'CTCGGT'
p3699
I1569
sS'AGATAT'
p3700
I388
sS'GTGGCT'
p3701
I3231
sS'CATATA'
p3702
I2126
sS'CAGTCG'
p3703
I1859
sS'ACACTC'
p3704
I1035
sS'ACACTA'
p3705
I702
sS'ACACTG'
p3706
I1974
sS'GCCGCT'
p3707
I4261
sS'ACCGGA'
p3708
I1493
sS'AAATAA'
p3709
I2269
sS'ACCGGC'
p3710
I2709
sS'GTCAGA'
p3711
I5483
sS'CTTTAA'
p3712
I3948
sS'ACCGGG'
p3713
I3198
sS'AAATAG'
p3714
I1236
sS'AACTTA'
p3715
I4297
sS'CAGGTA'
p3716
I2206
sS'AACTTC'
p3717
I4821
sS'CAGGTC'
p3718
I3352
sS'CACGAC'
p3719
I1505
sS'AACTTG'
p3720
I6082
sS'CAGTCC'
p3721
I6810
sS'CTTTAT'
p3722
I1300
sS'AATCCC'
p3723
I3559
sS'AATCCA'
p3724
I3064
sS'AAATAT'
p3725
I679
sS'AATCCG'
p3726
I1132
sS'GCAAGT'
p3727
I787
sS'CAGGTT'
p3728
I688
sS'AACTTT'
p3729
I1508
sS'GGCGGN'
p3730
I1
sS'GGGATA'
p3731
I1495
sS'GGGATC'
p3732
I2039
sS'GGGTGT'
p3733
I2477
sS'GGGATG'
p3734
I5055
sS'GATGCT'
p3735
I2833
sS'CGCAGT'
p3736
I2650
sS'ATTGGG'
p3737
I1362
sS'GAGCCT'
p3738
I5031
sS'GGAGAC'
p3739
I2032
sS'AACCGG'
p3740
I2496
sS'GGAGAA'
p3741
I1964
sS'GGGTGC'
p3742
I5568
sS'GGAGAG'
p3743
I3855
sS'AATCAA'
p3744
I3270
sS'GGGTGG'
p3745
I9801
sS'GAGCCA'
p3746
I8789
sS'CGCAGG'
p3747
I10547
sS'GATGCG'
p3748
I2787
sS'CGCAGA'
p3749
I4802
sS'GATGCA'
p3750
I4811
sS'CGCAGC'
p3751
I12164
sS'GATGCC'
p3752
I5684
sS'ACGAAC'
p3753
I345
sS'GGTAGT'
p3754
I861
sS'ACCCCT'
p3755
I2136
sS'GCCAAT'
p3756
I2301
sS'AACCGC'
p3757
I3047
sS'AGAAGT'
p3758
I1085
sS'ACCCCA'
p3759
I4574
sS'GGTAGA'
p3760
I2018
sS'ACCCCC'
p3761
I4903
sS'CGGATG'
p3762
I1644
sS'GCCAAG'
p3763
I6512
sS'CGGATA'
p3764
I478
sS'ACCCCG'
p3765
I4346
sS'CGGATC'
p3766
I952
sS'AGAAGA'
p3767
I3183
sS'AGAAGC'
p3768
I4395
sS'GCAAGA'
p3769
I1757
sS'AGAAGG'
p3770
I5136
sS'CACTCC'
p3771
I10654
sS'CACTCA'
p3772
I9025
sS'CACTCG'
p3773
I4169
sS'TGCGTT'
p3774
I532
sS'TCAGCT'
p3775
I1204
sS'AGCTTT'
p3776
I3057
sS'CCCCGG'
p3777
I10573
sS'TGCGTA'
p3778
I989
sS'TGATCG'
p3779
I294
sS'TGCGTG'
p3780
I4097
sS'CACTCT'
p3781
I4497
sS'AGCTTC'
p3782
I9246
sS'GAGCCC'
p3783
I14399
sS'AGCTTA'
p3784
I4967
sS'AGCTTG'
p3785
I9093
sS'ATACGA'
p3786
I163
sS'CCACTT'
p3787
I532
sS'AGAGTA'
p3788
I1085
sS'TTAGCT'
p3789
I773
sS'GTATAA'
p3790
I759
sS'TTAGCC'
p3791
I1444
sS'TTAGCA'
p3792
I1658
sS'GACCAT'
p3793
I1362
sS'TTAGCG'
p3794
I513
sS'CGATCC'
p3795
I719
sS'TCATAT'
p3796
I464
sS'AAGGGG'
p3797
I7667
sS'ATAAGG'
p3798
I1373
sS'TGTGCT'
p3799
I2084
sS'AAGGGC'
p3800
I6047
sS'ATAAGC'
p3801
I1163
sS'AAGGGA'
p3802
I5967
sS'ATAAGA'
p3803
I1286
sS'CCAGAC'
p3804
I1807
sS'CCAGAA'
p3805
I1585
sS'CCAGAG'
p3806
I2916
sS'TGTGCG'
p3807
I2772
sS'ATAAGT'
p3808
I490
sS'AAGGGT'
p3809
I1485
sS'TGTGCC'
p3810
I4348
sS'ATAGGA'
p3811
I884
sS'TGTGCA'
p3812
I4196
sS'ATAGGC'
p3813
I831
sS'TAAGTT'
p3814
I243
sS'CCAGAT'
p3815
I654
sS'AGACAA'
p3816
I1018
sS'AACAAG'
p3817
I5163
sS'AGACAC'
p3818
I1464
sS'TCCATT'
p3819
I1491
sS'AGACAG'
p3820
I2163
sS'TTTTCT'
p3821
I3220
sS'CGCTGT'
p3822
I3376
sS'GACGCC'
p3823
I7569
sS'CGTGGG'
p3824
I4081
sS'CGTGGC'
p3825
I3575
sS'CGTGGA'
p3826
I1827
sS'TTTTCG'
p3827
I866
sS'CGCTGA'
p3828
I4636
sS'CGCTGC'
p3829
I14139
sS'TTTTCC'
p3830
I6679
sS'TTTTCA'
p3831
I4804
sS'CGCTGG'
p3832
I10428
sS'TATGGA'
p3833
I1827
sS'TATGGC'
p3834
I1873
sS'CGTAGG'
p3835
I1329
sS'AACAAA'
p3836
I8111
sS'TATGGG'
p3837
I1932
sS'CGTAGC'
p3838
I1345
sS'TACCGT'
p3839
I483
sS'AAGTGT'
p3840
I1893
sS'TGGACT'
p3841
I1556
sS'CGTAGT'
p3842
I551
sS'TATGGT'
p3843
I840
sS'TGGACA'
p3844
I3306
sS'TGGACC'
p3845
I3211
sS'TGGACG'
p3846
I1865
sS'CCGGTT'
p3847
I293
sS'CTAGCT'
p3848
I973
sS'GCTTGA'
p3849
I2655
sS'TGAGAC'
p3850
I1063
sS'GCTTGC'
p3851
I4295
sS'TGAGAA'
p3852
I1302
sS'TGAGAG'
p3853
I1760
sS'GCTTGG'
p3854
I5563
sS'CCTGTT'
p3855
I740
sS'CGTCTC'
p3856
I3053
sS'CCGGTC'
p3857
I1290
sS'CCGGTA'
p3858
I635
sS'CCTGTC'
p3859
I3668
sS'CCTGTA'
p3860
I2323
sS'CCTGTG'
p3861
I6883
sS'TATCAA'
p3862
I2284
sS'TGAGAT'
p3863
I397
sS'ATCGTA'
p3864
I422
sS'GGTTGT'
p3865
I1507
sS'AGGGAT'
p3866
I805
sS'TATCAG'
p3867
I2807
sS'TAGCGT'
p3868
I415
sS'GGTTGG'
p3869
I4713
sS'GGTTGA'
p3870
I2339
sS'GGTTGC'
p3871
I3765
sS'CGGTAG'
p3872
I742
sS'TCCCGC'
p3873
I9309
sS'TCCCGA'
p3874
I2541
sS'TCCCGG'
p3875
I8834
sS'TGCTAT'
p3876
I1683
sS'CGTTTT'
p3877
I493
sS'ATTCTC'
p3878
I1951
sS'AGGGAA'
p3879
I3559
sS'ATTCTA'
p3880
I1811
sS'ATTCTG'
p3881
I3259
sS'TCATTT'
p3882
I703
sS'GTAACT'
p3883
I791
sS'CAGCGC'
p3884
I7283
sS'TGCTAG'
p3885
I3434
sS'CAGCGG'
p3886
I6432
sS'AGGATC'
p3887
I1774
sS'TCATTC'
p3888
I1357
sS'CGTTTG'
p3889
I2004
sS'CGTTTA'
p3890
I1239
sS'ATTCTT'
p3891
I473
sS'CGTTTC'
p3892
I2152
sS'TGGCAA'
p3893
I1802
sS'TGGCAC'
p3894
I2430
sS'TGGCAG'
p3895
I5032
sS'GCTGAG'
p3896
I6371
sS'GCTGAA'
p3897
I2432
sS'GCTGAC'
p3898
I3448
sS'TGGCAT'
p3899
I848
sS'GGCCGG'
p3900
I15704
sS'GTTCAA'
p3901
I1541
sS'CCGATG'
p3902
I812
sS'GGCCGC'
p3903
I17315
sS'GAACTT'
p3904
I389
sS'GGCCGA'
p3905
I4938
sS'GGCAAT'
p3906
I1226
sS'CTATAA'
p3907
I947
sS'CTGATT'
p3908
I836
sS'NCCCAC'
p3909
I1
sS'CCATCG'
p3910
I741
sS'CTAAAT'
p3911
I492
sS'CCATCC'
p3912
I3319
sS'CCATCA'
p3913
I1713
sS'GGCAAG'
p3914
I6018
sS'CTGATA'
p3915
I2072
sS'TGGTTG'
p3916
I2988
sS'CTGATG'
p3917
I3818
sS'GGCAAA'
p3918
I4233
sS'CTAAAG'
p3919
I1180
sS'CCATCT'
p3920
I1792
sS'CTAAAC'
p3921
I1038
sS'CTAAAA'
p3922
I1189
sS'GACACC'
p3923
I8990
sS'GACACA'
p3924
I9953
sS'GAAAAT'
p3925
I971
sS'GACACG'
p3926
I4338
sS'TGGTTC'
p3927
I2251
sS'AATTCT'
p3928
I1931
sS'TACGAG'
p3929
I909
sS'TACGAC'
p3930
I635
sS'GACACT'
p3931
I4600
sS'CCGTGA'
p3932
I1125
sS'AGTCCG'
p3933
I2082
sS'TGTTAC'
p3934
I2373
sS'ACGCTG'
p3935
I2265
sS'CTATTA'
p3936
I2092
sS'CTATTC'
p3937
I1080
sS'TCGATG'
p3938
I540
sS'TCGATA'
p3939
I190
sS'TCGATC'
p3940
I234
sS'ACGCTT'
p3941
I257
sS'CGCGAA'
p3942
I1226
sS'GCATTG'
p3943
I1600
sS'CAGCCT'
p3944
I4683
sS'TCGATT'
p3945
I87
sS'TCGGCA'
p3946
I953
sS'GAGTTG'
p3947
I4896
sS'AACCAA'
p3948
I3698
sS'TGCCGG'
p3949
I5617
sS'AACCAC'
p3950
I4239
sS'TGCCGC'
p3951
I7095
sS'AACCAG'
p3952
I5527
sS'TGCCGA'
p3953
I2008
sS'TTGGAC'
p3954
I1225
sS'CGCGAG'
p3955
I4401
sS'ATGATC'
p3956
I775
sS'AGGCAG'
p3957
I7611
sS'TGCCGT'
p3958
I1228
sS'AACCAT'
p3959
I1259
sS'AACAGA'
p3960
I8609
sS'GGGAGT'
p3961
I2760
sS'AACAGC'
p3962
I8605
sS'ATCAAC'
p3963
I2043
sS'ACGTCC'
p3964
I1559
sS'AACAGG'
p3965
I7883
sS'ACGTCA'
p3966
I1379
sS'CCCAAG'
p3967
I5167
sS'TTGGAG'
p3968
I2460
sS'GACGAA'
p3969
I1452
sS'CCCAAC'
p3970
I3892
sS'CCCAAA'
p3971
I3057
sS'CAATAT'
p3972
I307
sS'GGGAGG'
p3973
I19643
sS'GGGAGA'
p3974
I7549
sS'AACAGT'
p3975
I2909
sS'GGGAGC'
p3976
I10969
sS'ACGAAG'
p3977
I675
sS'TCAGAT'
p3978
I319
sS'GACGAT'
p3979
I492
sS'GGGCGC'
p3980
I8725
sS'GGGCGA'
p3981
I3058
sS'GCATCA'
p3982
I1536
sS'GGGCGG'
p3983
I14938
sS'TCTCTT'
p3984
I1138
sS'GTACAG'
p3985
I913
sS'CAGAAT'
p3986
I980
sS'GTACAC'
p3987
I629
sS'TCTCTC'
p3988
I5435
sS'TCTCTA'
p3989
I3062
sS'TCTCTG'
p3990
I8161
sS'GGGCGT'
p3991
I1721
sS'CAGAAA'
p3992
I3898
sS'CAGAAC'
p3993
I3510
sS'ACGACG'
p3994
I556
sS'CAGAAG'
p3995
I5201
sS'CACTTT'
p3996
I2544
sS'CATATT'
p3997
I669
sS'CCTAAT'
p3998
I538
sS'TCTATA'
p3999
I1281
sS'GTCATT'
p4000
I1400
sS'CACTTG'
p4001
I8520
sS'CCTAAC'
p4002
I1252
sS'CTACCC'
p4003
I1963
sS'CCTAAA'
p4004
I1308
sS'CACTTC'
p4005
I8440
sS'CCTAAG'
p4006
I1524
sS'CACTTA'
p4007
I7021
sS'GCGGAT'
p4008
I259
sS'AATCCT'
p4009
I1451
sS'GTCCCC'
p4010
I12270
sS'AAGATT'
p4011
I470
sS'AACTAG'
p4012
I2496
sS'CTCATG'
p4013
I5401
sS'GACTCG'
p4014
I5215
sS'CTCATC'
p4015
I4582
sS'GACTCC'
p4016
I12099
sS'CTCATA'
p4017
I3219
sS'GACTCA'
p4018
I9056
sS'AAGATA'
p4019
I2748
sS'CTCCAA'
p4020
I4695
sS'AAGATG'
p4021
I4291
sS'GACTCT'
p4022
I5276
sS'CTGCGC'
p4023
I6660
sS'ATCGAA'
p4024
I329
sS'ATCGAC'
p4025
I434
sS'ATATTT'
p4026
I590
sS'ACGGTA'
p4027
I365
sS'GGACTC'
p4028
I1423
sS'ATAGTT'
p4029
I161
sS'TACTGT'
p4030
I3159
sS'ATATTC'
p4031
I918
sS'ACGGTC'
p4032
I531
sS'ATATTG'
p4033
I1225
sS'TACTGC'
p4034
I5365
sS'TACTGA'
p4035
I4582
sS'TACTGG'
p4036
I4416
sS'ATAGTG'
p4037
I804
sS'ATAGAC'
p4038
I444
sS'CAGGCA'
p4039
I8494
sS'AGGAAG'
p4040
I8014
sS'CATCCG'
p4041
I1986
sS'ACGGAG'
p4042
I1101
sS'CATCCA'
p4043
I3878
sS'CAGGCG'
p4044
I6098
sS'CATCCC'
p4045
I5859
sS'TTATGA'
p4046
I1397
sS'TTATGC'
p4047
I1139
sS'CGGAGT'
p4048
I1295
sS'TTATGG'
p4049
I1201
sS'CATCCT'
p4050
I2253
sS'AGGAAT'
p4051
I984
sS'CAGGCT'
p4052
I4024
sS'ACGGAT'
p4053
I108
sS'CGGAGA'
p4054
I3028
sS'CGGAGC'
p4055
I6871
sS'TTATGT'
p4056
I1089
sS'CGGAGG'
p4057
I7256
sS'ATGGAA'
p4058
I1571
sS'ATGGAC'
p4059
I1178
sS'ATGGAG'
p4060
I2288
sS'CGCTTG'
p4061
I4342
sS'CGCTTA'
p4062
I1850
sS'CGCTTC'
p4063
I6384
sS'ATGGAT'
p4064
I372
sS'TTTGCA'
p4065
I3344
sS'CGCTTT'
p4066
I1601
sS'GTAGTG'
p4067
I1300
sS'GATCGT'
p4068
I514
sS'TTTGCC'
p4069
I3001
sS'GAAAAG'
p4070
I4164
sS'TAAACC'
p4071
I1835
sS'GAAAAC'
p4072
I3225
sS'ATAGAT'
p4073
I211
sS'GAAAAA'
p4074
I3046
sS'ACGGTT'
p4075
I120
sS'TTTGCG'
p4076
I1004
sS'ACAAGG'
p4077
I1892
sS'GCCTAA'
p4078
I2769
sS'ACAAGA'
p4079
I1300
sS'ACAAGC'
p4080
I1638
sS'ACACGT'
p4081
I318
sS'CTGCGT'
p4082
I1440
sS'GCGGAG'
p4083
I4075
sS'CATAAG'
p4084
I1771
sS'GTCCCT'
p4085
I4826
sS'CATAAA'
p4086
I3307
sS'GCGGAC'
p4087
I1494
sS'CATAAC'
p4088
I1737
sS'ACACGC'
p4089
I1012
sS'ACAAGT'
p4090
I553
sS'ACACGA'
p4091
I358
sS'ACACGG'
p4092
I760
sS'CATAAT'
p4093
I1063
sS'GTCCCA'
p4094
I6702
sS'CTGCGG'
p4095
I6889
sS'CTGCGA'
p4096
I2215
sS'GTCCCG'
p4097
I7325
sS'CGGCAA'
p4098
I839
sS'CGGCAC'
p4099
I1712
sS'CGGCAG'
p4100
I3752
sS'CCTCCT'
p4101
I4104
sS'CGGCAT'
p4102
I367
sS'CCTCCC'
p4103
I12842
sS'CCTCCA'
p4104
I5453
sS'CCTCCG'
p4105
I4958
sS'CGTGAT'
p4106
I332
s.