(dp0
S'GGGCTT'
p1
I33826
sS'GAACGT'
p2
I5294
sS'CGTCGT'
p3
I3770
sS'CTTCTT'
p4
I29377
sS'CACCCT'
p5
I39860
sS'ATTGAA'
p6
I14760
sS'GAACGG'
p7
I8095
sS'GAACGC'
p8
I8146
sS'GAACGA'
p9
I4730
sS'CACCCA'
p10
I43343
sS'CTTCTA'
p11
I15065
sS'CACCCC'
p12
I60647
sS'CTTCTC'
p13
I41414
sS'CACCCG'
p14
I22845
sS'CTTCTG'
p15
I40242
sS'CATTAG'
p16
I12748
sS'CGTGTG'
p17
I16651
sS'TAAGGT'
p18
I8751
sS'CGTGTC'
p19
I10682
sS'CGTGTA'
p20
I4192
sS'AGGCAA'
p21
I25051
sS'GGAAAT'
p22
I27900
sS'TAAGGG'
p23
I13038
sS'CGTGTT'
p24
I7228
sS'TAAGGC'
p25
I11688
sS'TAAGGA'
p26
I14959
sS'GTCAAA'
p27
I12589
sS'GTCAAC'
p28
I8044
sS'GTCAAG'
p29
I13039
sS'CTGTCC'
p30
I44096
sS'TCAGAG'
p31
I36574
sS'CTGTCA'
p32
I28764
sS'CTGTCG'
p33
I9914
sS'GTATCT'
p34
I10421
sS'TCAGAA'
p35
I27664
sS'CTTGGT'
p36
I19040
sS'GTCAAT'
p37
I7599
sS'GTATCA'
p38
I7093
sS'TCAGAT'
p39
I20265
sS'GTATCG'
p40
I1611
sS'CTGTCT'
p41
I39018
sS'GGTGTC'
p42
I22276
sS'GGTGTA'
p43
I8193
sS'GGTGTG'
p44
I31900
sS'TATCCT'
p45
I11747
sS'CCGGGG'
p46
I54139
sS'TTCTGT'
p47
I32844
sS'ATTCCT'
p48
I21113
sS'CCGGGC'
p49
I55216
sS'CCGGGA'
p50
I35444
sS'TATCCA'
p51
I11089
sS'TATCCC'
p52
I10364
sS'TATCCG'
p53
I2479
sS'GGTGTT'
p54
I16187
sS'ATTCCG'
p55
I4948
sS'TTCTGG'
p56
I37006
sS'CCGGGT'
p57
I21727
sS'ATTCCC'
p58
I19793
sS'TTCTGC'
p59
I34424
sS'ATTCCA'
p60
I20412
sS'TTCTGA'
p61
I27916
sS'TGCACT'
p62
I22104
sS'GGNCCC'
p63
I1
sS'CGTCAT'
p64
I5005
sS'CGCGGT'
p65
I11938
sS'AGGGAG'
p66
I71351
sS'ACGAAC'
p67
I3322
sS'CGCGGG'
p68
I39731
sS'CGCGGC'
p69
I39035
sS'CGCGGA'
p70
I16039
sS'GTCCTT'
p71
I21014
sS'ACCTGT'
p72
I19747
sS'TCATGT'
p73
I15852
sS'CTCCGA'
p74
I13502
sS'TTACAG'
p75
I20232
sS'CTCCGC'
p76
I34208
sS'TTACAA'
p77
I14912
sS'TTACAC'
p78
I10113
sS'CTCCGG'
p79
I29712
sS'TCATGC'
p80
I15128
sS'ACCTGG'
p81
I40420
sS'CCGTGT'
p82
I12333
sS'TCATGG'
p83
I18441
sS'ACCTGC'
p84
I35885
sS'GCGCNN'
p85
I1
sS'ACCTGA'
p86
I19349
sS'AGAGGG'
p87
I53833
sS'CTCCGT'
p88
I14053
sS'GCCTGA'
p89
I34880
sS'GCCTGC'
p90
I61401
sS'GCCTGG'
p91
I92444
sS'TCTTGC'
p92
I20103
sS'TAAAGG'
p93
I16323
sS'CAAATT'
p94
I19365
sS'TAAAGA'
p95
I19093
sS'TAAAGC'
p96
I15399
sS'GCCTGT'
p97
I37969
sS'TATCTA'
p98
I9967
sS'TAAAGT'
p99
I14344
sS'CAAATA'
p100
I18963
sS'ACGTCC'
p101
I9137
sS'CAAATC'
p102
I17031
sS'CGTGCT'
p103
I12020
sS'CAAATG'
p104
I24107
sS'AATACT'
p105
I11606
sS'TATCTC'
p106
I14500
sS'TGGTTC'
p107
I17666
sS'GTCCTC'
p108
I31193
sS'GGCATC'
p109
I21921
sS'AATACG'
p110
I2904
sS'AATACA'
p111
I17989
sS'AATACC'
p112
I8496
sS'GGCATT'
p113
I17914
sS'CGTCAG'
p114
I10208
sS'TGCACA'
p115
I29235
sS'GAGCAC'
p116
I24673
sS'ACTGAT'
p117
I14168
sS'CATATC'
p118
I8429
sS'GAGCAG'
p119
I54884
sS'AGTAGT'
p120
I8125
sS'TCTCGC'
p121
I12064
sS'TCTCGA'
p122
I5587
sS'TCTCGG'
p123
I15429
sS'ACTGAG'
p124
I27538
sS'AGTAGA'
p125
I12662
sS'ACTGAC'
p126
I15907
sS'ACTGAA'
p127
I20866
sS'AAGGTT'
p128
I14043
sS'GGGTCA'
p129
I25454
sS'GTGTCG'
p130
I6461
sS'TCGAAC'
p131
I3363
sS'TCGAAA'
p132
I3499
sS'GTGTCC'
p133
I28098
sS'TCGAAG'
p134
I5289
sS'GTGTCA'
p135
I17631
sS'CTTGCT'
p136
I26926
sS'CCGTCT'
p137
I13426
sS'GTGTCT'
p138
I26090
sS'TTGAAG'
p139
I17461
sS'TCGAAT'
p140
I2754
sS'CTTGCG'
p141
I8000
sS'CTTGCA'
p142
I20466
sS'CTTGCC'
p143
I27570
sS'CGAAAG'
p144
I6399
sS'CGAAAA'
p145
I5019
sS'CGAAAC'
p146
I4599
sS'AATCAT'
p147
I15512
sS'AAATGC'
p148
I25512
sS'CACGGC'
p149
I20074
sS'AAATGA'
p150
I32939
sS'AAATGG'
p151
I26853
sS'CACGGG'
p152
I19806
sS'ACAGTA'
p153
I13099
sS'CGAAAT'
p154
I3761
sS'ACAGTT'
p155
I16797
sS'AATCAG'
p156
I20642
sS'AATCAA'
p157
I16952
sS'AAATGT'
p158
I29231
sS'AATCAC'
p159
I15653
sS'GGGTCT'
p160
I31046
sS'GCTCAA'
p161
I15663
sS'TCTAGT'
p162
I10277
sS'TTGCCG'
p163
I7697
sS'TTGCCA'
p164
I22679
sS'TTGCCC'
p165
I24429
sS'GGGTAC'
p166
I9254
sS'TCTAGG'
p167
I15341
sS'ATACGC'
p168
I2165
sS'TCTAGA'
p169
I13423
sS'GGGTAG'
p170
I15994
sS'TCTAGC'
p171
I11308
sS'ATACGG'
p172
I2494
sS'TAGAGG'
p173
I16738
sS'GGCTCC'
p174
I64337
sS'TCGGGC'
p175
I17640
sS'TCGCCC'
p176
I19395
sS'AGNNNN'
p177
I1
sS'TCGCCA'
p178
I9996
sS'ATAGTC'
p179
I6297
sS'TCGCCG'
p180
I12121
sS'GGTAAT'
p181
I9380
sS'ACCCAT'
p182
I14049
sS'CTCACC'
p183
I37528
sS'ACCCAC'
p184
I29531
sS'GGTAAC'
p185
I8007
sS'ACCCAA'
p186
I16790
sS'AGATGG'
p187
I32634
sS'ACCCAG'
p188
I45065
sS'GGTAAG'
p189
I11464
sS'TCGCCT'
p190
I12597
sS'AGATGC'
p191
I23721
sS'TTTGAG'
p192
I22587
sS'CCCCAT'
p193
I31824
sS'TTGGGT'
p194
I16977
sS'CACTAG'
p195
I11256
sS'CACTAA'
p196
I11743
sS'CACTAC'
p197
I8643
sS'CCCCAA'
p198
I36329
sS'CCCCAC'
p199
I71659
sS'CCCCAG'
p200
I95284
sS'CACTAT'
p201
I8445
sS'TTGGGG'
p202
I36421
sS'TCGGTT'
p203
I4953
sS'TTGGGA'
p204
I25363
sS'TTGGGC'
p205
I22391
sS'TGCCTG'
p206
I58883
sS'TGCAGA'
p207
I40999
sS'TTTCTG'
p208
I43008
sS'TGCAGC'
p209
I51087
sS'TTTCTA'
p210
I23416
sS'TTTCTC'
p211
I40199
sS'TGCAGG'
p212
I55403
sS'ACGCCT'
p213
I11699
sS'TCAGAC'
p214
I19098
sS'TTTCTT'
p215
I44490
sS'TGCCTT'
p216
I31717
sS'TGCAGT'
p217
I28667
sS'TAGTGC'
p218
I8591
sS'AAGGAA'
p219
I37397
sS'AAGGAC'
p220
I20425
sS'AAGGAG'
p221
I38946
sS'ATATGC'
p222
I9470
sS'GTTCCA'
p223
I18426
sS'ATATGA'
p224
I11695
sS'TACGAA'
p225
I2298
sS'ATATGG'
p226
I10601
sS'GAGTTC'
p227
I16224
sS'GATGGA'
p228
I23487
sS'AAGGAT'
p229
I16412
sS'TGGTTT'
p230
I25525
sS'GGCTCG'
p231
I19715
sS'TGACTT'
p232
I19857
sS'GGTCCC'
p233
I40428
sS'GCCCAG'
p234
I85888
sS'GGTCCA'
p235
I19998
sS'GCCCAA'
p236
I22149
sS'GGTCCG'
p237
I13091
sS'GCCCAC'
p238
I43877
sS'TGTGTC'
p239
I26887
sS'AGACCC'
p240
I30984
sS'CTTCGG'
p241
I11548
sS'CTTCGA'
p242
I5391
sS'CTTCGC'
p243
I10591
sS'CTTAGT'
p244
I9382
sS'TCCGGG'
p245
I26623
sS'AGGTCA'
p246
I25240
sS'AAAGTT'
p247
I17248
sS'TCCGGC'
p248
I19328
sS'GGTCCT'
p249
I27989
sS'TCCGGA'
p250
I11944
sS'CTTAGC'
p251
I12624
sS'ATTGTG'
p252
I14579
sS'CTTAGA'
p253
I12812
sS'CCACTC'
p254
I32769
sS'CTTAGG'
p255
I14034
sS'ATTGTC'
p256
I11192
sS'AGACCT'
p257
I21820
sS'GCCTTT'
p258
I28941
sS'ATTTTG'
p259
I24167
sS'CGCTAA'
p260
I3789
sS'ATTTTA'
p261
I32524
sS'TCCAGA'
p262
I36921
sS'ATTTTC'
p263
I29750
sS'TCCAGC'
p264
I50449
sS'TAGCAG'
p265
I17263
sS'GATACT'
p266
I7584
sS'TAGCAC'
p267
I10232
sS'TAGCAA'
p268
I12725
sS'GAGGTT'
p269
I18430
sS'ATTTTT'
p270
I44036
sS'TAAATC'
p271
I14873
sS'TAGTGT'
p272
I9278
sS'GCCTTA'
p273
I11835
sS'TTGACA'
p274
I13844
sS'GCCTTC'
p275
I34485
sS'GATACG'
p276
I2376
sS'TAGCAT'
p277
I10569
sS'GATACC'
p278
I6519
sS'GATACA'
p279
I9699
sS'TGAGCT'
p280
I29681
sS'ACGGAC'
p281
I6492
sS'GATCAT'
p282
I9599
sS'TACCGG'
p283
I4087
sS'AAGACA'
p284
I24017
sS'AAGACC'
p285
I16747
sS'GTGGGC'
p286
I43953
sS'AAACAT'
p287
I24040
sS'AAGACG'
p288
I7558
sS'ATGCAT'
p289
I15617
sS'TGAGCG'
p290
I13532
sS'CTCGAG'
p291
I10577
sS'TGAGCA'
p292
I29441
sS'TGAGCC'
p293
I37160
sS'CGGGGA'
p294
I37756
sS'AAGACT'
p295
I15508
sS'GCGGTC'
p296
I12313
sS'GCGGTA'
p297
I4661
sS'CGTGCA'
p298
I11914
sS'GCGGTG'
p299
I24158
sS'CTATCG'
p300
I1950
sS'CGGTGT'
p301
I9224
sS'TCGTTA'
p302
I2575
sS'TCGTTC'
p303
I4763
sS'ATGTGG'
p304
I24023
sS'ACTTGT'
p305
I13117
sS'GAGTTT'
p306
I18269
sS'TGTGTG'
p307
I69030
sS'GCGGTT'
p308
I7695
sS'ACTTGC'
p309
I15216
sS'ATGTGA'
p310
I19535
sS'ACTTGA'
p311
I14241
sS'CGGTGG'
p312
I23523
sS'ACTTGG'
p313
I20790
sS'CGGTGA'
p314
I11840
sS'CGGTGC'
p315
I17910
sS'TTCCTA'
p316
I18274
sS'TAGACT'
p317
I8607
sS'TTCCTC'
p318
I42667
sS'CTTCCG'
p319
I16064
sS'TTCCTG'
p320
I50961
sS'TCCTTT'
p321
I33756
sS'GACCCA'
p322
I26028
sS'ACGCTA'
p323
I2969
sS'TAGACG'
p324
I3285
sS'TTCCTT'
p325
I37525
sS'TAGACC'
p326
I7507
sS'TAGACA'
p327
I11652
sS'TCCTTG'
p328
I27300
sS'TCCTTA'
p329
I15198
sS'TCCTTC'
p330
I37925
sS'ATCTCT'
p331
I23846
sS'ACCGTT'
p332
I3913
sS'TGGCGC'
p333
I20340
sS'TGGCGA'
p334
I9762
sS'GGCCAT'
p335
I23622
sS'NNGAAT'
p336
I1
sS'AATGCA'
p337
I22186
sS'AATTGA'
p338
I14114
sS'ATCTCG'
p339
I5965
sS'ATCTCA'
p340
I20295
sS'ATCTCC'
p341
I23191
sS'GGCCAA'
p342
I26274
sS'ACGGAG'
p343
I13923
sS'GGCCAC'
p344
I46036
sS'ACCGTG'
p345
I10067
sS'ACCGTA'
p346
I2525
sS'TGGCGT'
p347
I10376
sS'ACCGTC'
p348
I6791
sS'ACCGAC'
p349
I5630
sS'AGATTA'
p350
I14147
sS'NGATCC'
p351
I1
sS'GGCAGT'
p352
I30099
sS'CCATAA'
p353
I11035
sS'CAAAGG'
p354
I28001
sS'CCATAC'
p355
I7277
sS'CTAACT'
p356
I9636
sS'GAAACG'
p357
I9259
sS'CAAAGC'
p358
I28117
sS'CAACGT'
p359
I4806
sS'GGCAGA'
p360
I49451
sS'GGCAGC'
p361
I71704
sS'AACGTA'
p362
I2773
sS'GGCAGG'
p363
I88344
sS'CAACGC'
p364
I6964
sS'CTAACA'
p365
I11663
sS'CAACGA'
p366
I4153
sS'CTAACC'
p367
I9448
sS'CCATAT'
p368
I10549
sS'CTAACG'
p369
I3238
sS'GGGGGT'
p370
I40810
sS'TACGCT'
p371
I2863
sS'AGATTG'
p372
I12780
sS'CGATCT'
p373
I4802
sS'CTCTAG'
p374
I16706
sS'CTCTAA'
p375
I15105
sS'CTCTAC'
p376
I13458
sS'GGGGGG'
p377
I45857
sS'TACGCA'
p378
I2989
sS'TACGCC'
p379
I3588
sS'GGGGGC'
p380
I77126
sS'CGATCG'
p381
I2121
sS'GGGGGA'
p382
I50965
sS'TACGCG'
p383
I2390
sS'CTCTAT'
p384
I11565
sS'ACCGAA'
p385
I4531
sS'CAGACC'
p386
I32251
sS'CAGACA'
p387
I38411
sS'CAGACG'
p388
I14190
sS'TAGTTG'
p389
I7864
sS'GCTAAT'
p390
I11895
sS'TAGTTC'
p391
I8563
sS'TAGTTA'
p392
I8254
sS'CGCTNN'
p393
I1
sS'CAGACT'
p394
I24473
sS'GCTAAG'
p395
I12751
sS'TAGTTT'
p396
I13576
sS'GCTAAC'
p397
I7756
sS'GCTAAA'
p398
I12315
sS'CGAGTA'
p399
I3212
sS'TGCATT'
p400
I22224
sS'GCGAAA'
p401
I5256
sS'AACCCT'
p402
I19185
sS'ATCNNN'
p403
I2
sS'AACCCC'
p404
I24269
sS'AACCCA'
p405
I22351
sS'TGCATA'
p406
I11721
sS'ATGCAC'
p407
I15112
sS'TGCATC'
p408
I17915
sS'AGATTT'
p409
I22616
sS'CTACAA'
p410
I11550
sS'CTACAC'
p411
I10257
sS'AACTGA'
p412
I19892
sS'AGTTTA'
p413
I13869
sS'CCCAGA'
p414
I56722
sS'CCCAGC'
p415
I98024
sS'AGAATC'
p416
I16374
sS'CCCAGG'
p417
I103592
sS'AACTGT'
p418
I16768
sS'AGTTTT'
p419
I22297
sS'CTACAT'
p420
I10316
sS'CGAGTC'
p421
I9356
sS'CCCAGT'
p422
I34619
sS'TTGACG'
p423
I3662
sS'TATAAT'
p424
I14767
sS'CGCATA'
p425
I2312
sS'ATACTG'
p426
I10797
sS'CGCATC'
p427
I7945
sS'ATACTA'
p428
I6650
sS'ATACTC'
p429
I7209
sS'CGCATG'
p430
I7837
sS'GCGCAA'
p431
I6408
sS'GCGAAT'
p432
I3468
sS'ATACTT'
p433
I10290
sS'CGCATT'
p434
I4966
sS'AGGCCC'
p435
I57910
sS'GCTCCG'
p436
I30387
sS'TATTGT'
p437
I12217
sS'GCTCCC'
p438
I61209
sS'GCTCCA'
p439
I40710
sS'CCTACT'
p440
I13167
sS'TGTACT'
p441
I11232
sS'TTTAGT'
p442
I14027
sS'TATTGG'
p443
I8800
sS'GCTCCT'
p444
I48126
sS'AGGCCG'
p445
I29764
sS'GCTGGG'
p446
I98406
sS'TTTAGG'
p447
I14427
sS'TGTACG'
p448
I3233
sS'CCTACG'
p449
I5290
sS'TGTACA'
p450
I13378
sS'CCTACA'
p451
I13300
sS'TGTACC'
p452
I9402
sS'CCTACC'
p453
I17055
sS'TTCGCG'
p454
I4894
sS'TTCGCA'
p455
I4812
sS'TTCGCC'
p456
I8409
sS'AGTATC'
p457
I7616
sS'GACTAA'
p458
I8154
sS'AGTATA'
p459
I7445
sS'GACTAC'
p460
I6850
sS'AGTATG'
p461
I8300
sS'TTTGGA'
p462
I23016
sS'TTTGGC'
p463
I20772
sS'TTCGCT'
p464
I6403
sS'GATCNN'
p465
I2
sS'GTGTAT'
p466
I11009
sS'GACTAT'
p467
I6196
sS'AGTTTG'
p468
I17843
sS'AGTATT'
p469
I11878
sS'TTACTC'
p470
I11100
sS'TTACTA'
p471
I9587
sS'TTACTG'
p472
I16077
sS'ACCTTG'
p473
I19005
sS'ACCTTC'
p474
I20443
sS'ACCTTA'
p475
I8567
sS'TTACTT'
p476
I16134
sS'ACGCTT'
p477
I5637
sS'ACCTTT'
p478
I17016
sS'ACAGGG'
p479
I38807
sS'CTGGGA'
p480
I67522
sS'CTGGGC'
p481
I86226
sS'ACAGGC'
p482
I37910
sS'TTATAT'
p483
I15202
sS'CTGGGG'
p484
I95112
sS'AGGACG'
p485
I15480
sS'GCAGCT'
p486
I54925
sS'CAGGAA'
p487
I50741
sS'TCGCTT'
p488
I7038
sS'CAGGAG'
p489
I68287
sS'AGGACA'
p490
I33316
sS'GCGCAT'
p491
I7300
sS'TTATAC'
p492
I7581
sS'ACAGGT'
p493
I19429
sS'CTGGGT'
p494
I45373
sS'TTATAG'
p495
I9820
sS'GTCAGA'
p496
I20613
sS'TCGCTG'
p497
I14760
sS'GAGTTG'
p498
I16229
sS'GCAGCG'
p499
I34805
sS'AGGACT'
p500
I23788
sS'TCGCTC'
p501
I12186
sS'TCGCTA'
p502
I3056
sS'CAGGAT'
p503
I26838
sS'CCTCAG'
p504
I55577
sS'CCTCAA'
p505
I20694
sS'CCTCAC'
p506
I37397
sS'TATGTT'
p507
I13462
sS'ATGGGC'
p508
I21353
sS'TCTTTG'
p509
I26264
sS'ATGGGA'
p510
I23518
sS'TCTTTA'
p511
I19210
sS'ATGGGG'
p512
I32171
sS'TCTTTC'
p513
I32468
sS'CCTCAT'
p514
I23557
sS'TCTTTT'
p515
I36428
sS'TATGTG'
p516
I14646
sS'TATGTA'
p517
I11473
sS'ATGGGT'
p518
I13957
sS'TATGTC'
p519
I8984
sS'GAAAGA'
p520
I32379
sS'ATCAAG'
p521
I12985
sS'GAAAGC'
p522
I26964
sS'ATCAAC'
p523
I9002
sS'GAAAGG'
p524
I35013
sS'ATCAAA'
p525
I17583
sS'GTCAGG'
p526
I30809
sS'ACGTGG'
p527
I15326
sS'CATGAG'
p528
I19325
sS'ATCAAT'
p529
I10451
sS'TCAAAC'
p530
I14271
sS'CATGAC'
p531
I13574
sS'CATGAA'
p532
I17914
sS'GTAGCG'
p533
I4749
sS'CAAGTT'
p534
I15114
sS'GCTTTG'
p535
I28049
sS'GTAGCC'
p536
I12092
sS'GCTTTC'
p537
I26735
sS'ACGTGT'
p538
I7955
sS'GAGGAT'
p539
I20921
sS'GCTTTT'
p540
I28620
sS'TGCCAG'
p541
I47891
sS'GTAGCT'
p542
I12116
sS'GCGGCC'
p543
I50352
sS'CAAGTC'
p544
I17114
sS'GCGGCA'
p545
I21280
sS'CAAGTA'
p546
I10732
sS'AACGGT'
p547
I3949
sS'TAATCG'
p548
I2153
sS'CTTGTG'
p549
I20577
sS'TAATCA'
p550
I14170
sS'TAATCC'
p551
I11604
sS'CTAAGC'
p552
I12115
sS'CGGCCC'
p553
I49053
sS'CGACTA'
p554
I2226
sS'CGGCCA'
p555
I25269
sS'TTGATA'
p556
I10145
sS'CGGCCG'
p557
I35828
sS'TCGTGA'
p558
I4854
sS'ATGAAG'
p559
I20327
sS'GGTCTG'
p560
I31909
sS'TAATCT'
p561
I14007
sS'GGTCTC'
p562
I27370
sS'GGTCTA'
p563
I7430
sS'AAAATG'
p564
I37764
sS'AAAATC'
p565
I23318
sS'CGGCCT'
p566
I29915
sS'TCGTCA'
p567
I4520
sS'ATCCCT'
p568
I21843
sS'TTCAGG'
p569
I28302
sS'GAACAT'
p570
I14160
sS'TCGTCG'
p571
I3612
sS'TGTTTT'
p572
I42898
sS'TCGGGA'
p573
I12673
sS'GAACAA'
p574
I17263
sS'ATCCCG'
p575
I10245
sS'GAACAC'
p576
I16463
sS'TCGTCT'
p577
I6202
sS'GAACAG'
p578
I25541
sS'ATCCCA'
p579
I24556
sS'AACGGA'
p580
I5719
sS'CACCAC'
p581
I32716
sS'CACCAA'
p582
I19763
sS'CACCAG'
p583
I42375
sS'AACATT'
p584
I19460
sS'TCGTGC'
p585
I6902
sS'TCCGTC'
p586
I9795
sS'GAGTTA'
p587
I10422
sS'TCCGTA'
p588
I3195
sS'ACCAGA'
p589
I25726
sS'ACGCGA'
p590
I3855
sS'CACCAT'
p591
I20351
sS'AACATG'
p592
I17753
sS'AACATA'
p593
I13494
sS'AACATC'
p594
I15487
sS'GTCAGN'
p595
I1
sS'TCAGCA'
p596
I33098
sS'GCACGG'
p597
I17257
sS'TCAGCC'
p598
I42037
sS'GCACGA'
p599
I6996
sS'CAGTCC'
p600
I29930
sS'GCACGC'
p601
I15331
sS'CAGTCA'
p602
I23220
sS'GCAAGC'
p603
I19686
sS'GCACGT'
p604
I10639
sS'CAGTCT'
p605
I23855
sS'TCAGCT'
p606
I33353
sS'GTCAGT'
p607
I16106
sS'GTATAC'
p608
I4065
sS'TTCCGT'
p609
I6729
sS'ACGGCT'
p610
I10261
sS'GTATAG'
p611
I4540
sS'CCGGAA'
p612
I13477
sS'CCGGAC'
p613
I14523
sS'CCGGAG'
p614
I29859
sS'TATCAT'
p615
I11202
sS'CTCGTA'
p616
I3044
sS'TTCCGG'
p617
I13427
sS'TTCCGA'
p618
I6475
sS'TTCCGC'
p619
I11874
sS'GTATAT'
p620
I8106
sS'CGTCTC'
p621
I13863
sS'TATCAA'
p622
I10067
sS'CGTCTG'
p623
I14161
sS'CCGGAT'
p624
I7517
sS'CTCTTC'
p625
I36349
sS'TGTTAT'
p626
I14776
sS'CTCTTA'
p627
I14772
sS'CTCTTG'
p628
I25302
sS'AGGGCT'
p629
I47655
sS'TACGTA'
p630
I2162
sS'TACGTC'
p631
I2518
sS'TCTGGT'
p632
I25814
sS'AACAAA'
p633
I33015
sS'CGCGAT'
p634
I3936
sS'TACGTG'
p635
I4775
sS'TGTTAG'
p636
I11823
sS'GGTTTC'
p637
I21793
sS'TGTTAC'
p638
I10505
sS'CTCTTT'
p639
I32424
sS'TGTTAA'
p640
I15986
sS'TCTGGG'
p641
I56829
sS'CGCGAC'
p642
I7709
sS'GATATT'
p643
I11219
sS'TCTGGC'
p644
I40750
sS'TACGTT'
p645
I2776
sS'CGCGAG'
p646
I13661
sS'AGTCGT'
p647
I4084
sS'TTACCT'
p648
I13124
sS'CTCCAT'
p649
I27311
sS'AATGCG'
p650
I4896
sS'GAGAAG'
p651
I41407
sS'TACGGC'
p652
I3956
sS'TTACCG'
p653
I3540
sS'CTCCAC'
p654
I40868
sS'CTCCAA'
p655
I26363
sS'TTACCC'
p656
I11250
sS'CTCCAG'
p657
I68344
sS'TTACCA'
p658
I12405
sS'AGTCGC'
p659
I7419
sS'GTACCG'
p660
I3442
sS'CCGACT'
p661
I9286
sS'GCCTAC'
p662
I10588
sS'GCCTAA'
p663
I10539
sS'GCCTAG'
p664
I15841
sS'GTGCGG'
p665
I19319
sS'CCGACA'
p666
I8339
sS'CCCTGT'
p667
I38933
sS'CCGACC'
p668
I14214
sS'CCGACG'
p669
I7928
sS'GCCTAT'
p670
I8271
sS'TGACGG'
p671
I8619
sS'ACGCTC'
p672
I9294
sS'CCCGAG'
p673
I30317
sS'CTCGTT'
p674
I6080
sS'CTAAGT'
p675
I10683
sS'AGGGCA'
p676
I47569
sS'CGCACA'
p677
I13806
sS'ATACAC'
p678
I10789
sS'CGCACC'
p679
I17449
sS'GGGTCG'
p680
I15093
sS'ACTGCT'
p681
I25319
sS'ATACAG'
p682
I13965
sS'ATTGCC'
p683
I12756
sS'GGGTCC'
p684
I39237
sS'CTCACT'
p685
I29584
sS'GGCATA'
p686
I9048
sS'TTTGTA'
p687
I18581
sS'ACTGCA'
p688
I28647
sS'TTTGTC'
p689
I19801
sS'ACTGCC'
p690
I30215
sS'CGCACT'
p691
I9711
sS'ATACAT'
p692
I13407
sS'ACTGCG'
p693
I11390
sS'CTTGAC'
p694
I12720
sS'CTCACA'
p695
I29804
sS'CTCACG'
p696
I12481
sS'TAGTGG'
p697
I11709
sS'GTGAGG'
p698
I37890
sS'GATTTT'
p699
I23527
sS'ACAATT'
p700
I14398
sS'GTGAGC'
p701
I28881
sS'TAGTGA'
p702
I10675
sS'GTGAGA'
p703
I22972
sS'TCGACG'
p704
I2369
sS'TCGACA'
p705
I3099
sS'TCGACC'
p706
I4478
sS'ACAATA'
p707
I12108
sS'GTGAGT'
p708
I21030
sS'GTGGGG'
p709
I71976
sS'GATTTC'
p710
I17932
sS'GATTTA'
p711
I14852
sS'TCGACT'
p712
I3420
sS'CTGGTT'
p713
I25147
sS'TTGAGT'
p714
I13862
sS'TCAAAA'
p715
I23250
sS'CGAACG'
p716
I3152
sS'CGAACC'
p717
I5803
sS'CGAACA'
p718
I4294
sS'CGGNCC'
p719
I1
sS'CTGGTG'
p720
I42745
sS'CTGGTA'
p721
I13954
sS'CTGGTC'
p722
I28583
sS'CGAACT'
p723
I4686
sS'CGCTGA'
p724
I13919
sS'TTGCAT'
p725
I16328
sS'GACGAG'
p726
I9669
sS'CATCGA'
p727
I4191
sS'CGTCTT'
p728
I7609
sS'TTGCAG'
p729
I28180
sS'GAGGGA'
p730
I56841
sS'TTGCAC'
p731
I13839
sS'TTGCAA'
p732
I16684
sS'AAGATC'
p733
I12147
sS'ACGTAC'
p734
I2730
sS'GAGGGC'
p735
I55245
sS'TCGCAT'
p736
I3324
sS'GTCGTG'
p737
I6329
sS'GTCGTA'
p738
I2052
sS'GTCGTC'
p739
I5956
sS'CCGTTT'
p740
I7746
sS'GAGCAA'
p741
I20933
sS'GCCTCG'
p742
I27381
sS'ATATCG'
p743
I1558
sS'GTCGTT'
p744
I3700
sS'TCGCAG'
p745
I12590
sS'TCCATG'
p746
I21476
sS'TCGCAC'
p747
I6109
sS'CCGTTG'
p748
I6109
sS'CCGTTA'
p749
I3247
sS'CCGTTC'
p750
I7915
sS'GATCGG'
p751
I4748
sS'AATGCT'
p752
I19200
sS'GGTACG'
p753
I3215
sS'GGTACA'
p754
I9439
sS'GGTACC'
p755
I9372
sS'TATTTG'
p756
I19010
sS'CCAGTT'
p757
I20845
sS'TTCAGC'
p758
I25939
sS'TATTTC'
p759
I21379
sS'TATTTA'
p760
I24492
sS'CCCCCT'
p761
I51429
sS'GGTACT'
p762
I8283
sS'TCCAGG'
p763
I58329
sS'AATGCC'
p764
I17827
sS'GCCGTG'
p765
I20571
sS'CCCCCC'
p766
I45963
sS'CCCCCA'
p767
I70847
sS'TATTTT'
p768
I39546
sS'CCCCCG'
p769
I46744
sS'GTGCGA'
p770
I6160
sS'ATGATG'
p771
I16556
sS'GAAGTA'
p772
I11368
sS'ATGATA'
p773
I11203
sS'ATGATC'
p774
I9494
sS'TGCAAC'
p775
I13279
sS'TGCAAA'
p776
I26519
sS'TGCAAG'
p777
I20224
sS'GAAGTG'
p778
I24452
sS'ATGATT'
p779
I15541
sS'CTTGAT'
p780
I13041
sS'GTGCTT'
p781
I20831
sS'TTGAGG'
p782
I20781
sS'AATCTC'
p783
I16243
sS'TTGAGC'
p784
I15837
sS'TGCAAT'
p785
I14897
sS'GAGAAT'
p786
I18958
sS'TGTCTT'
p787
I24183
sS'CGAATA'
p788
I2019
sS'AGTAGC'
p789
I11706
sS'AAGGCC'
p790
I31981
sS'ATAACC'
p791
I8680
sS'AAGGCA'
p792
I31546
sS'ATAACA'
p793
I14603
sS'AAGGCG'
p794
I14839
sS'ATAACG'
p795
I2725
sS'TCCATT'
p796
I21189
sS'TGTCTG'
p797
I38594
sS'ACGTAG'
p798
I3859
sS'GAGAAA'
p799
I39853
sS'TGTCTC'
p800
I29467
sS'GAGAAC'
p801
I20354
sS'TGTCTA'
p802
I11737
sS'TGTGGC'
p803
I36878
sS'TGTGGA'
p804
I28278
sS'TGTGGG'
p805
I45509
sS'ATAACT'
p806
I10934
sS'AAGGCT'
p807
I27177
sS'CTGTAA'
p808
I20321
sS'AGGTAT'
p809
I8066
sS'ACCAAG'
p810
I19029
sS'GAGCAT'
p811
I16264
sS'GCCCCC'
p812
I77246
sS'GGTCAA'
p813
I11019
sS'ACCAAC'
p814
I11885
sS'GGTCAC'
p815
I22694
sS'TAACGA'
p816
I2492
sS'GATCGC'
p817
I5516
sS'GGTCAT'
p818
I13393
sS'ACCAAT'
p819
I9642
sS'GCCCCT'
p820
I62700
sS'CGTGCG'
p821
I11020
sS'GATAGG'
p822
I9029
sS'TTTTGC'
p823
I22591
sS'TCTTAC'
p824
I10512
sS'AATTGG'
p825
I12744
sS'TCTTAA'
p826
I15785
sS'TTTTGG'
p827
I21928
sS'TCTTAG'
p828
I12353
sS'AATTGC'
p829
I13242
sS'TAGCCA'
p830
I14507
sS'TGGGGT'
p831
I39994
sS'TAGCCC'
p832
I13801
sS'GATAAT'
p833
I13312
sS'CGCTCA'
p834
I13596
sS'TAGCCG'
p835
I5387
sS'AATTGT'
p836
I14675
sS'CGAGAG'
p837
I14522
sS'AATCTT'
p838
I15372
sS'TCTTAT'
p839
I13737
sS'TTTTGT'
p840
I31582
sS'CGCTCT'
p841
I16677
sS'TGGGGG'
p842
I70643
sS'TCTCGT'
p843
I6032
sS'TAGCCT'
p844
I13392
sS'TGGGGC'
p845
I64278
sS'TGGGGA'
p846
I60793
sS'GATCCT'
p847
I15569
sS'AAGAAT'
p848
I19423
sS'GGGGTG'
p849
I60486
sS'CGAAGT'
p850
I5296
sS'CATTTG'
p851
I23941
sS'AAGAAC'
p852
I17788
sS'GATCCA'
p853
I13851
sS'AAGAAA'
p854
I44388
sS'GATCCC'
p855
I18318
sS'AAGAAG'
p856
I29094
sS'GATCCG'
p857
I7291
sS'GCCCCA'
p858
I64323
sS'ATGCCG'
p859
I6998
sS'GCAACG'
p860
I6625
sS'TGTGGT'
p861
I23944
sS'CAAGGG'
p862
I29450
sS'CAAGGC'
p863
I31489
sS'GGTTCT'
p864
I19781
sS'CAAGGA'
p865
I27019
sS'GGCGCN'
p866
I1
sS'GGTTCA'
p867
I14392
sS'GGTTCC'
p868
I22966
sS'CAAGGT'
p869
I19077
sS'GGTTCG'
p870
I5779
sS'TAGGCA'
p871
I13435
sS'ATTATA'
p872
I14768
sS'ATTATC'
p873
I13507
sS'TAGAAT'
p874
I13161
sS'GATAGT'
p875
I6274
sS'ATTATG'
p876
I13358
sS'AGTCTT'
p877
I15565
sS'TAGAAA'
p878
I23680
sS'TAGAAC'
p879
I9425
sS'ATTATT'
p880
I23420
sS'TAGAAG'
p881
I15054
sS'AGTCTA'
p882
I8676
sS'AGTCTC'
p883
I20820
sS'AGTCTG'
p884
I24510
sS'TAACTC'
p885
I10452
sS'TAACTA'
p886
I8077
sS'TAACTG'
p887
I13442
sS'ATCTAT'
p888
I10125
sS'ACGCGT'
p889
I3916
sS'GCCCCG'
p890
I62714
sS'TAACTT'
p891
I12582
sS'ATCTAG'
p892
I9512
sS'ATCTAC'
p893
I8348
sS'ATCTAA'
p894
I11963
sS'GTCGGA'
p895
I6500
sS'GGTCAG'
p896
I31315
sS'CCATGT'
p897
I21276
sS'ACCAAA'
p898
I17703
sS'TGGAGG'
p899
I55929
sS'TGGAGA'
p900
I40994
sS'TGGAGC'
p901
I41056
sS'CCATGC'
p902
I23271
sS'CCATGA'
p903
I18031
sS'CCATGG'
p904
I29947
sS'TGGAGT'
p905
I25445
sS'ATTACG'
p906
I2410
sS'TCAGTA'
p907
I12836
sS'TCAGTC'
p908
I18505
sS'CTCTCT'
p909
I51592
sS'GGGGAT'
p910
I24339
sS'TCAGTG'
p911
I27081
sS'CGATAT'
p912
I1558
sS'GGGGAA'
p913
I44406
sS'GGGGAC'
p914
I45818
sS'CTCTCC'
p915
I61099
sS'TCAGTT'
p916
I19884
sS'CTCTCA'
p917
I29848
sS'ATGCAG'
p918
I26465
sS'CGATAG'
p919
I2015
sS'CGATAA'
p920
I2399
sS'ATGCTG'
p921
I27917
sS'CGATAC'
p922
I1690
sS'GTGTTT'
p923
I24903
sS'GCTACT'
p924
I11682
sS'GTGGTT'
p925
I17555
sS'GTGTTC'
p926
I16653
sS'GTGTTA'
p927
I10203
sS'GTGTTG'
p928
I16257
sS'CGTGCC'
p929
I15804
sS'GTGGTA'
p930
I9961
sS'GCTACA'
p931
I12186
sS'GTGGTC'
p932
I18860
sS'GCTACC'
p933
I10931
sS'GTGGTG'
p934
I32362
sS'GCTACG'
p935
I4905
sS'AGGTAG'
p936
I14129
sS'TTTCGT'
p937
I4553
sS'TGCCCT'
p938
I47436
sS'AGCGTT'
p939
I6183
sS'AGGTAA'
p940
I13530
sS'CACGGA'
p941
I12460
sS'TTTCGC'
p942
I5248
sS'TGCCCG'
p943
I25357
sS'TTTCGG'
p944
I6497
sS'AGCGTA'
p945
I2679
sS'AGCGTC'
p946
I10446
sS'AGCGTG'
p947
I13295
sS'GGCCCC'
p948
I79440
sS'GGCCCA'
p949
I50871
sS'CACGTG'
p950
I18691
sS'GGCCCG'
p951
I42922
sS'CACGTA'
p952
I4733
sS'CACGTC'
p953
I10802
sS'CTACGC'
p954
I4516
sS'ACGTGA'
p955
I7878
sS'TTTTGA'
p956
I23210
sS'ACAGTC'
p957
I17418
sS'CACGTT'
p958
I7607
sS'TTCACG'
p959
I6774
sS'GNCCCA'
p960
I1
sS'GGCCCT'
p961
I54828
sS'GGGACA'
p962
I37661
sS'GGTATA'
p963
I5079
sS'GGGACC'
p964
I40644
sS'GTCTCA'
p965
I19794
sS'CTACGT'
p966
I3770
sS'GCTTCC'
p967
I42994
sS'AGAGAG'
p968
I51712
sS'AGAGAA'
p969
I41183
sS'AGAGAC'
p970
I28467
sS'TCTATA'
p971
I8673
sS'GTCTTT'
p972
I19677
sS'TCTATC'
p973
I9550
sS'TCTATG'
p974
I10429
sS'AGAGAT'
p975
I24123
sS'ATGTGC'
p976
I18146
sS'GTCTTG'
p977
I16353
sS'TCTATT'
p978
I15031
sS'GTCTTC'
p979
I19524
sS'GTCTTA'
p980
I8633
sS'GCAGAG'
p981
I62879
sS'CGATTG'
p982
I3146
sS'GCTCAC'
p983
I28216
sS'GCAGAC'
p984
I28158
sS'GCAGAA'
p985
I34329
sS'GCTCAG'
p986
I47904
sS'AGACGT'
p987
I6691
sS'ATGCGT'
p988
I4443
sS'TTGCTG'
p989
I30905
sS'TTGCTA'
p990
I12866
sS'TTGCTC'
p991
I21033
sS'GCAGAT'
p992
I25289
sS'GCTCAT'
p993
I17516
sS'GTACGG'
p994
I3126
sS'TTGCTT'
p995
I25155
sS'ATGCGG'
p996
I8008
sS'GAGAGG'
p997
I57345
sS'CGCTCC'
p998
I30077
sS'ATGCGC'
p999
I7299
sS'ATGCGA'
p1000
I3451
sS'TGTAAG'
p1001
I12422
sS'GGCTAG'
p1002
I13404
sS'TGTAAC'
p1003
I10297
sS'GGCTAC'
p1004
I11918
sS'GACTGT'
p1005
I17377
sS'GGCTAA'
p1006
I11985
sS'TACAAG'
p1007
I10712
sS'TTGGTA'
p1008
I9172
sS'ACTGTC'
p1009
I18272
sS'TTGGTC'
p1010
I12890
sS'TTCGAC'
p1011
I2835
sS'ACTGTG'
p1012
I27346
sS'GTTTGG'
p1013
I19750
sS'GACTGC'
p1014
I21892
sS'GGCTAT'
p1015
I9318
sS'TGTAAT'
p1016
I17945
sS'GACTGG'
p1017
I27135
sS'TTCGAT'
p1018
I2549
sS'TTGGTT'
p1019
I16283
sS'ACTGTT'
p1020
I16988
sS'GTTTCT'
p1021
I28505
sS'GAATGA'
p1022
I20150
sS'ATAATT'
p1023
I21380
sS'CCTTTT'
p1024
I30779
sS'GTTTCG'
p1025
I4655
sS'GTTTCC'
p1026
I28387
sS'GATAAA'
p1027
I18658
sS'ATAATG'
p1028
I15162
sS'CCTTTA'
p1029
I16294
sS'CCTTTC'
p1030
I35808
sS'ATAATC'
p1031
I10908
sS'ATAATA'
p1032
I16919
sS'CCTTTG'
p1033
I28722
sS'ACAGAA'
p1034
I32563
sS'CTCTCG'
p1035
I14421
sS'ACAGAC'
p1036
I26084
sS'GATAAC'
p1037
I8650
sS'ACAGAG'
p1038
I41468
sS'ATATCC'
p1039
I8527
sS'CTGGAC'
p1040
I33206
sS'CTGGAA'
p1041
I42986
sS'CTGGAG'
p1042
I68355
sS'ACAGAT'
p1043
I25009
sS'TTATCG'
p1044
I2314
sS'CCTTGC'
p1045
I28199
sS'TTATCA'
p1046
I16555
sS'CTGGAT'
p1047
I24096
sS'TTATCC'
p1048
I11472
sS'CCAATG'
p1049
I13149
sS'AAACCG'
p1050
I6679
sS'ATTTGT'
p1051
I21517
sS'CCAATC'
p1052
I12635
sS'AAACCC'
p1053
I22393
sS'CCAATA'
p1054
I8748
sS'TGTCGG'
p1055
I8281
sS'GAGATC'
p1056
I14722
sS'CCCTAT'
p1057
I9363
sS'GAGATA'
p1058
I14616
sS'TGTCGC'
p1059
I7945
sS'GAGATG'
p1060
I28000
sS'AACGAC'
p1061
I3741
sS'AAACCT'
p1062
I19407
sS'CCAATT'
p1063
I12680
sS'ATTTGC'
p1064
I18440
sS'GGGTAT'
p1065
I7678
sS'ATTTGG'
p1066
I19802
sS'CCCTAG'
p1067
I18678
sS'TGTCGT'
p1068
I4558
sS'CCCTAC'
p1069
I16265
sS'CATGGA'
p1070
I21669
sS'CCCTAA'
p1071
I14318
sS'CATTAT'
p1072
I15416
sS'ATGCAA'
p1073
I16054
sS'TGGATT'
p1074
I18056
sS'ATCACA'
p1075
I19223
sS'ATCACC'
p1076
I15347
sS'CATGCT'
p1077
I21087
sS'TGACAC'
p1078
I17422
sS'TGACAA'
p1079
I17652
sS'TGGATA'
p1080
I11122
sS'TGGATC'
p1081
I13522
sS'CATTAA'
p1082
I17279
sS'CATTAC'
p1083
I9867
sS'CATGCA'
p1084
I21612
sS'TGACAT'
p1085
I18378
sS'CATGCC'
p1086
I23055
sS'ATCACT'
p1087
I16137
sS'CATGCG'
p1088
I7884
sS'AACCTG'
p1089
I21910
sS'GTAGAA'
p1090
I12032
sS'GTAGAC'
p1091
I7111
sS'CCGCTT'
p1092
I13158
sS'GTAGAG'
p1093
I13641
sS'ACAACA'
p1094
I17931
sS'ACAACC'
p1095
I12618
sS'GATTGC'
p1096
I9646
sS'ACAACG'
p1097
I4428
sS'TAAATT'
p1098
I22827
sS'ACTAAG'
p1099
I9549
sS'GTAGAT'
p1100
I8450
sS'TGCTAC'
p1101
I10847
sS'TTGCCT'
p1102
I25443
sS'TGATGC'
p1103
I16289
sS'GATTGT'
p1104
I10239
sS'TTCAGT'
p1105
I20974
sS'ACAACT'
p1106
I12515
sS'GTCGAA'
p1107
I2726
sS'TAATAG'
p1108
I10477
sS'GTCCGG'
p1109
I14547
sS'TAATAC'
p1110
I8200
sS'GTCCGA'
p1111
I5976
sS'TAATAA'
p1112
I20451
sS'GTCCGC'
p1113
I13314
sS'TGTTTA'
p1114
I21574
sS'GANTGG'
p1115
I1
sS'CACATC'
p1116
I21029
sS'GTCCGT'
p1117
I6577
sS'TAATAT'
p1118
I14311
sS'CGTAAC'
p1119
I2267
sS'ATTCGC'
p1120
I3462
sS'TTCTCC'
p1121
I41055
sS'TGAACT'
p1122
I16611
sS'TTCTCA'
p1123
I29313
sS'ATCCAT'
p1124
I13634
sS'TTCTCG'
p1125
I9006
sS'TCGTAC'
p1126
I1915
sS'TACCTT'
p1127
I10879
sS'TCGTAA'
p1128
I2255
sS'TCGTAG'
p1129
I3244
sS'GAACCT'
p1130
I15965
sS'TGAACG'
p1131
I5401
sS'ATCCAC'
p1132
I15583
sS'TGTTTG'
p1133
I26160
sS'TTCTCT'
p1134
I41529
sS'TGAACA'
p1135
I19115
sS'GAACCC'
p1136
I20893
sS'TACCTG'
p1137
I15026
sS'TACCTA'
p1138
I6788
sS'TACCTC'
p1139
I11850
sS'TCGTAT'
p1140
I1918
sS'ACCATC'
p1141
I15335
sS'ACCATA'
p1142
I8285
sS'ACCATG'
p1143
I17206
sS'ATGTTG'
p1144
I14635
sS'AGCTCT'
p1145
I35457
sS'TGTCCT'
p1146
I33810
sS'AGTGGT'
p1147
I17388
sS'CGTGGT'
p1148
I11401
sS'AGATGT'
p1149
I21132
sS'ATGAGC'
p1150
I17322
sS'CTGTGG'
p1151
I53109
sS'ACCATT'
p1152
I12616
sS'AGTGGA'
p1153
I23693
sS'AGTGGC'
p1154
I30346
sS'AGCTCC'
p1155
I45593
sS'AGCTCA'
p1156
I30074
sS'CAGTAA'
p1157
I16210
sS'CAGTAC'
p1158
I10135
sS'CAGTAG'
p1159
I14268
sS'AAACGG'
p1160
I7885
sS'TTTCAC'
p1161
I21399
sS'CAGTAT'
p1162
I10817
sS'AAAGTA'
p1163
I16271
sS'TTAATC'
p1164
I12839
sS'CCGGCT'
p1165
I29666
sS'GATCTA'
p1166
I6802
sS'GATCTC'
p1167
I14695
sS'ATAGCG'
p1168
I2768
sS'ATTGAC'
p1169
I7680
sS'GATCTG'
p1170
I19739
sS'TCCCTT'
p1171
I34352
sS'CCGGCC'
p1172
I53497
sS'CCGGCA'
p1173
I20659
sS'CCGGCG'
p1174
I30474
sS'ACTCTC'
p1175
I19314
sS'ATTAGC'
p1176
I11975
sS'TCCCTC'
p1177
I56350
sS'TGTCCG'
p1178
I9707
sS'TCCCTA'
p1179
I16624
sS'TGCCAC'
p1180
I30110
sS'TCCCTG'
p1181
I63890
sS'GATCTT'
p1182
I12039
sS'CACAAT'
p1183
I14299
sS'AAGTGC'
p1184
I20548
sS'TGTTCT'
p1185
I26486
sS'AAGTGG'
p1186
I24293
sS'TGATTG'
p1187
I13677
sS'TCTGAT'
p1188
I20522
sS'AGACTC'
p1189
I19988
sS'TGTTCA'
p1190
I18989
sS'CACAAG'
p1191
I20305
sS'TGTTCC'
p1192
I23917
sS'CACAAA'
p1193
I25559
sS'CACAAC'
p1194
I14234
sS'TGTTCG'
p1195
I4443
sS'TCTGAA'
p1196
I26974
sS'TCTGAC'
p1197
I20618
sS'AGACTA'
p1198
I9029
sS'TCTGAG'
p1199
I36212
sS'CGCGCC'
p1200
I37478
sS'CGCGCA'
p1201
I15413
sS'GGTAAA'
p1202
I12211
sS'CGCGCG'
p1203
I30543
sS'CTCCCT'
p1204
I70948
sS'AGCGGG'
p1205
I28127
sS'AGCGGA'
p1206
I13072
sS'ACCTCT'
p1207
I24705
sS'AGATGA'
p1208
I24849
sS'GAAATA'
p1209
I21660
sS'GACATT'
p1210
I15764
sS'CGCGCT'
p1211
I18536
sS'ACCTCC'
p1212
I35671
sS'ACCTCA'
p1213
I22825
sS'CTATTG'
p1214
I8547
sS'CTCCCA'
p1215
I59721
sS'CTCCCC'
p1216
I85585
sS'GCCTCT'
p1217
I49107
sS'TAAGCC'
p1218
I12357
sS'TAGCTC'
p1219
I12299
sS'CCCATG'
p1220
I26047
sS'CGGGAA'
p1221
I19369
sS'CCCATA'
p1222
I10395
sS'TAGCTG'
p1223
I17286
sS'CCCATC'
p1224
I32498
sS'TTGTTG'
p1225
I16944
sS'CCTGCT'
p1226
I60211
sS'ANTGGA'
p1227
I1
sS'CCGAAT'
p1228
I4172
sS'CCCATT'
p1229
I21415
sS'CGGGAT'
p1230
I10244
sS'TGGGTT'
p1231
I22232
sS'GCCTCA'
p1232
I39501
sS'TAAGCT'
p1233
I11194
sS'GCCTCC'
p1234
I74836
sS'CCGAAC'
p1235
I6026
sS'CCTGCG'
p1236
I31836
sS'CCGAAA'
p1237
I6521
sS'CCGAAG'
p1238
I11661
sS'CCTGCC'
p1239
I87661
sS'CCTGCA'
p1240
I55789
sS'GTACTG'
p1241
I10248
sS'CCATTC'
p1242
I18786
sS'CCATTA'
p1243
I13124
sS'TATAAA'
p1244
I20221
sS'TATAAC'
p1245
I6972
sS'GCNNNN'
p1246
I1
sS'GATTTG'
p1247
I17080
sS'GTACTC'
p1248
I7079
sS'CCATTT'
p1249
I26713
sS'TCTACA'
p1250
I12878
sS'TCTACC'
p1251
I11927
sS'TCTACG'
p1252
I3492
sS'ACTTTC'
p1253
I18855
sS'CGCAAC'
p1254
I5015
sS'CGCAAA'
p1255
I5946
sS'ATACCG'
p1256
I2190
sS'GACGCG'
p1257
I11775
sS'ATACCA'
p1258
I9318
sS'ATACCC'
p1259
I7714
sS'TCTACT'
p1260
I12467
sS'CCGAGT'
p1261
I11862
sS'ATACCT'
p1262
I7982
sS'CGCAAT'
p1263
I3095
sS'TAGTAA'
p1264
I9410
sS'TGGGTG'
p1265
I43509
sS'TAGTAC'
p1266
I4605
sS'CTCAAG'
p1267
I20854
sS'CTCAAA'
p1268
I22145
sS'TAGTAG'
p1269
I7033
sS'CTCAAC'
p1270
I13641
sS'GTGTGC'
p1271
I28263
sS'GTGTGA'
p1272
I22369
sS'GTGTGG'
p1273
I36618
sS'TAACGG'
p1274
I3166
sS'CTCAAT'
p1275
I12352
sS'TAGTAT'
p1276
I6630
sS'GTTCTC'
p1277
I20469
sS'CTCCCG'
p1278
I40308
sS'GTGTGT'
p1279
I56390
sS'ATCTTT'
p1280
I21504
sS'GTTGGG'
p1281
I24380
sS'GTTGGA'
p1282
I14732
sS'GTTGGC'
p1283
I16410
sS'CCTTGG'
p1284
I37910
sS'CCTTGA'
p1285
I19714
sS'GCGTAT'
p1286
I2117
sS'AGGATT'
p1287
I17406
sS'GGACGT'
p1288
I8991
sS'GTTGGT'
p1289
I11789
sS'ATCTTG'
p1290
I15629
sS'GAGAGT'
p1291
I19420
sS'ATCTTA'
p1292
I11215
sS'ATCTTC'
p1293
I17197
sS'CCTTGT'
p1294
I21237
sS'AGGATA'
p1295
I11493
sS'AGGATG'
p1296
I29300
sS'GACATG'
p1297
I16359
sS'GACATC'
p1298
I15206
sS'GACATA'
p1299
I8888
sS'TCGGCG'
p1300
I11579
sS'GAATAT'
p1301
I11935
sS'GGTGCA'
p1302
I25180
sS'TCGGCC'
p1303
I20095
sS'ATCAGA'
p1304
I20184
sS'TTGCGA'
p1305
I3402
sS'TTGCGC'
p1306
I6387
sS'TTGCGG'
p1307
I8211
sS'GAATAG'
p1308
I9532
sS'TCGGCT'
p1309
I12757
sS'CATAGA'
p1310
I10381
sS'AGGAAG'
p1311
I56895
sS'GAATAA'
p1312
I15847
sS'ACTTTT'
p1313
I22093
sS'ATACAA'
p1314
I12853
sS'GACCTT'
p1315
I16855
sS'AAAATT'
p1316
I30047
sS'TGCCTC'
p1317
I43552
sS'TTATAA'
p1318
I16843
sS'GAAATG'
p1319
I29217
sS'AATGAT'
p1320
I16502
sS'TGCCTA'
p1321
I13834
sS'GAAATC'
p1322
I17845
sS'ACCGGT'
p1323
I4381
sS'GAAATT'
p1324
I20482
sS'AATGAA'
p1325
I28696
sS'AATGAC'
p1326
I16253
sS'AATGAG'
p1327
I23354
sS'TCATTG'
p1328
I15037
sS'ATGGTA'
p1329
I9427
sS'CTTGGA'
p1330
I24712
sS'CTTGGC'
p1331
I34217
sS'GTATTG'
p1332
I6799
sS'GTTTTC'
p1333
I25679
sS'CTTGGG'
p1334
I36337
sS'AGCCCT'
p1335
I48122
sS'GGGAAT'
p1336
I19985
sS'TTGAAT'
p1337
I16464
sS'GTCCTA'
p1338
I9447
sS'CAAGCT'
p1339
I21333
sS'TGCACG'
p1340
I11930
sS'CTTTTA'
p1341
I22929
sS'GTCCTG'
p1342
I39924
sS'TGCACC'
p1343
I25016
sS'TTGAAA'
p1344
I24960
sS'TTGAAC'
p1345
I11535
sS'AGCCCA'
p1346
I47702
sS'AGCCCC'
p1347
I68859
sS'CTTATG'
p1348
I8821
sS'ATAAAT'
p1349
I27737
sS'TGGTCG'
p1350
I6486
sS'TGGTCA'
p1351
I19792
sS'TGGTCC'
p1352
I22944
sS'ACGATT'
p1353
I2828
sS'GAGACT'
p1354
I21179
sS'GATTCA'
p1355
I13786
sS'TGGTCT'
p1356
I22450
sS'ATAAAG'
p1357
I19096
sS'CCTGTG'
p1358
I49292
sS'ATAAAA'
p1359
I34112
sS'ATGGTG'
p1360
I20489
sS'ATAAAC'
p1361
I15663
sS'GAGACG'
p1362
I14035
sS'ACGATG'
p1363
I5204
sS'CTACAG'
p1364
I17160
sS'GAGACC'
p1365
I27494
sS'ACGATC'
p1366
I2918
sS'GAGACA'
p1367
I29268
sS'ACGATA'
p1368
I1889
sS'GGTTAC'
p1369
I7557
sS'ATGTGT'
p1370
I22349
sS'GGTTAA'
p1371
I10437
sS'ACCACT'
p1372
I17578
sS'GCACTT'
p1373
I20624
sS'CTTCCT'
p1374
I56914
sS'GAATGT'
p1375
I15743
sS'GAGGAC'
p1376
I30673
sS'CGTGAA'
p1377
I6750
sS'CCAACA'
p1378
I20312
sS'TCCGCT'
p1379
I12861
sS'CTTCCA'
p1380
I35949
sS'CTTCCC'
p1381
I61128
sS'ACCACC'
p1382
I26031
sS'CGTATG'
p1383
I2517
sS'ACCACA'
p1384
I23770
sS'GGTTAT'
p1385
I8640
sS'TCCGCC'
p1386
I25694
sS'TCCGCA'
p1387
I12433
sS'TCCGCG'
p1388
I15878
sS'AACGTC'
p1389
I4615
sS'TAAGTT'
p1390
I10056
sS'AACGTG'
p1391
I7884
sS'CGTGAC'
p1392
I8660
sS'GGTAGC'
p1393
I11216
sS'AGTGTG'
p1394
I26103
sS'TCTTCG'
p1395
I7007
sS'AGTGTA'
p1396
I9855
sS'TCTTCA'
p1397
I23928
sS'AGTGTC'
p1398
I18444
sS'TCTTCC'
p1399
I40009
sS'CGTGAT'
p1400
I5350
sS'TAAGTC'
p1401
I8760
sS'AACGTT'
p1402
I4303
sS'GGCGAT'
p1403
I6811
sS'TCTTCT'
p1404
I31743
sS'AGTGTT'
p1405
I17192
sS'GTTTTG'
p1406
I21693
sS'TTGGCA'
p1407
I22856
sS'AAAGGT'
p1408
I16751
sS'TTGGCC'
p1409
I26342
sS'AGTAAC'
p1410
I9710
sS'CTTATT'
p1411
I15428
sS'TTGGCG'
p1412
I9329
sS'GACTTC'
p1413
I17925
sS'TCGAGT'
p1414
I4329
sS'GACTTA'
p1415
I8512
sS'GACTTG'
p1416
I17448
sS'AAAGGG'
p1417
I31381
sS'AAAGGA'
p1418
I33451
sS'TTGGCT'
p1419
I26132
sS'AAAGGC'
p1420
I27946
sS'GAGTAC'
p1421
I7090
sS'GTCGAT'
p1422
I2277
sS'GACTTT'
p1423
I16903
sS'TTCTTT'
p1424
I40866
sS'CAAGAA'
p1425
I22709
sS'GACGTT'
p1426
I4790
sS'CAAGAC'
p1427
I16017
sS'GATTCG'
p1428
I3746
sS'CAAGAG'
p1429
I25092
sS'TTCTTG'
p1430
I22568
sS'TTCTTC'
p1431
I29678
sS'TTCTTA'
p1432
I17759
sS'CAAGAT'
p1433
I15535
sS'CCCGAT'
p1434
I6074
sS'TACGGG'
p1435
I4258
sS'TACGGA'
p1436
I3179
sS'TCAGCG'
p1437
I13795
sS'CTCAGA'
p1438
I35938
sS'TAGAGT'
p1439
I9749
sS'TACGGT'
p1440
I2536
sS'AGGGCG'
p1441
I30655
sS'CCCGAA'
p1442
I10542
sS'AGGGCC'
p1443
I55161
sS'TCGAGA'
p1444
I5613
sS'TAGAGC'
p1445
I12806
sS'TAGAGA'
p1446
I17814
sS'GGCGAG'
p1447
I25298
sS'GGCGAA'
p1448
I8508
sS'GTGCTG'
p1449
I43641
sS'CGGGGT'
p1450
I24346
sS'GTGCTA'
p1451
I10222
sS'ATCTGT'
p1452
I24967
sS'GTGCTC'
p1453
I24334
sS'GGCGAC'
p1454
I13462
sS'TAGGAC'
p1455
I9594
sS'ATCTGA'
p1456
I20251
sS'CGAATC'
p1457
I3762
sS'ATCTGC'
p1458
I24821
sS'TCGAGG'
p1459
I10338
sS'CGAATG'
p1460
I4279
sS'ATCTGG'
p1461
I28728
sS'ATCATA'
p1462
I9937
sS'GATAGC'
p1463
I7106
sS'ATCATC'
p1464
I13348
sS'GATAGA'
p1465
I9365
sS'AAGCAA'
p1466
I24711
sS'CAAACT'
p1467
I17660
sS'ATCATG'
p1468
I12736
sS'GGCTCA'
p1469
I36489
sS'CATTTC'
p1470
I29481
sS'CTAGGT'
p1471
I10304
sS'CATTTA'
p1472
I23346
sS'ACGCAT'
p1473
I4404
sS'GTTATC'
p1474
I8746
sS'GTTATA'
p1475
I6831
sS'CAAACA'
p1476
I25932
sS'AAGCAT'
p1477
I17682
sS'CAAACC'
p1478
I18928
sS'CATATT'
p1479
I14403
sS'ATCATT'
p1480
I16608
sS'CAAACG'
p1481
I6752
sS'ACGCAG'
p1482
I14914
sS'CTAGGG'
p1483
I18767
sS'GTTATT'
p1484
I13562
sS'CTAGGC'
p1485
I15771
sS'CATTTT'
p1486
I37592
sS'CTAGGA'
p1487
I16039
sS'AAGTTT'
p1488
I17415
sS'TACAGT'
p1489
I13041
sS'CTCGAA'
p1490
I6176
sS'CTAAGG'
p1491
I13486
sS'CTAAGA'
p1492
I12425
sS'GGGGCT'
p1493
I68936
sS'TACAGG'
p1494
I16798
sS'AAGTTG'
p1495
I14033
sS'AAGTTA'
p1496
I12315
sS'TACAGC'
p1497
I15388
sS'AAGTTC'
p1498
I13907
sS'TACAGA'
p1499
I18717
sS'GGGGCC'
p1500
I79843
sS'GTATGA'
p1501
I7205
sS'GGGGCA'
p1502
I53559
sS'ATATGT'
p1503
I13703
sS'GGGGCG'
p1504
I65229
sS'ACAGTG'
p1505
I27839
sS'TATATC'
p1506
I7438
sS'TATATA'
p1507
I15285
sS'TATATG'
p1508
I9588
sS'TCCGGT'
p1509
I7466
sS'TATATT'
p1510
I16195
sS'CGTCTA'
p1511
I3275
sS'TGATGG'
p1512
I21533
sS'CATATG'
p1513
I12980
sS'ATGAGT'
p1514
I14016
sS'AGGTCT'
p1515
I21670
sS'TGATGA'
p1516
I18974
sS'AGCATG'
p1517
I21382
sS'TGCCAT'
p1518
I22438
sS'ACTCTT'
p1519
I16035
sS'TGTTTC'
p1520
I28699
sS'CACATA'
p1521
I14505
sS'TTAATT'
p1522
I26448
sS'CACATG'
p1523
I26780
sS'TTTCAT'
p1524
I27424
sS'ATGAGA'
p1525
I21102
sS'TGATGT'
p1526
I17433
sS'ATGAGG'
p1527
I23485
sS'TTAATA'
p1528
I17676
sS'ACTCTG'
p1529
I28181
sS'TTTCAA'
p1530
I25127
sS'ACTCTA'
p1531
I9781
sS'AGACCA'
p1532
I22562
sS'CACATT'
p1533
I21347
sS'AGCATC'
p1534
I21542
sS'AAATTC'
p1535
I19357
sS'GACTGA'
p1536
I18578
sS'AAATTA'
p1537
I28423
sS'AAATTG'
p1538
I19011
sS'CCAGTA'
p1539
I12608
sS'AGACCG'
p1540
I8617
sS'CGTACC'
p1541
I3330
sS'AAATTT'
p1542
I25920
sS'TTCGAA'
p1543
I3554
sS'GTCTAT'
p1544
I7147
sS'GGGAAC'
p1545
I26503
sS'GGTGCG'
p1546
I17555
sS'GGGAAA'
p1547
I41590
sS'GGGAAG'
p1548
I60887
sS'GGTGCC'
p1549
I36561
sS'TCGTCC'
p1550
I9103
sS'GCCCAT'
p1551
I20881
sS'AGAGCG'
p1552
I16682
sS'GCGACT'
p1553
I7662
sS'AGCGAT'
p1554
I5314
sS'AGAGCC'
p1555
I44454
sS'AGAGCA'
p1556
I36132
sS'GCGTAG'
p1557
I4479
sS'GGTGCT'
p1558
I30532
sS'GCGTAC'
p1559
I2721
sS'GCGTAA'
p1560
I2441
sS'GCGACG'
p1561
I8054
sS'AGAGCT'
p1562
I35686
sS'GCGACA'
p1563
I7884
sS'TATCGG'
p1564
I2053
sS'GCGACC'
p1565
I11705
sS'AGGTCG'
p1566
I8884
sS'GCAGGA'
p1567
I55164
sS'GCAGGC'
p1568
I61278
sS'GCAGGG'
p1569
I82715
sS'CAATTT'
p1570
I18772
sS'GCACTA'
p1571
I8705
sS'CCGTGC'
p1572
I17579
sS'GCTCGG'
p1573
I24363
sS'TATTCT'
p1574
I15827
sS'CCGTGG'
p1575
I23288
sS'CTTTAG'
p1576
I13646
sS'GCAGGT'
p1577
I36090
sS'GGCATG'
p1578
I23044
sS'ACGTCT'
p1579
I6602
sS'TATTCC'
p1580
I12207
sS'CAATTG'
p1581
I8617
sS'TATTCA'
p1582
I14879
sS'CAATTA'
p1583
I14762
sS'TATTCG'
p1584
I2079
sS'CAATTC'
p1585
I12353
sS'TGTAGA'
p1586
I13025
sS'TTTACC'
p1587
I11938
sS'TGTAGC'
p1588
I12038
sS'TTTACA'
p1589
I20851
sS'TTTACG'
p1590
I3415
sS'TGTAGG'
p1591
I13296
sS'TGCTTA'
p1592
I15168
sS'TTCGGA'
p1593
I5666
sS'TTCGGC'
p1594
I7637
sS'AAATAG'
p1595
I18829
sS'TTCAAG'
p1596
I18340
sS'TTCGGG'
p1597
I10338
sS'CACGAG'
p1598
I10218
sS'GGCTCT'
p1599
I44274
sS'TTTCAG'
p1600
I30797
sS'TTTACT'
p1601
I18188
sS'AGCATA'
p1602
I10421
sS'TTACAT'
p1603
I15666
sS'ATTGTA'
p1604
I10642
sS'TTCGGT'
p1605
I4587
sS'GTTTAT'
p1606
I15547
sS'GGGGAG'
p1607
I86313
sS'GCACTC'
p1608
I21549
sS'CGCTAC'
p1609
I4650
sS'TTAATG'
p1610
I16798
sS'GTTTAA'
p1611
I14726
sS'GAGGTG'
p1612
I40401
sS'CACGAA'
p1613
I5985
sS'CGAATT'
p1614
I3312
sS'GTTTAG'
p1615
I10412
sS'CGCTAG'
p1616
I5348
sS'CTGGCT'
p1617
I60629
sS'AGGCGG'
p1618
I38598
sS'AGGCGA'
p1619
I12753
sS'AGGCGC'
p1620
I26554
sS'AGGAGT'
p1621
I24430
sS'ACAGCC'
p1622
I42087
sS'ACAGCA'
p1623
I36721
sS'GAGGTC'
p1624
I24496
sS'ACAGCG'
p1625
I14801
sS'AGGAGC'
p1626
I48447
sS'AGGCGT'
p1627
I11791
sS'AGGAGA'
p1628
I46255
sS'CTGGCG'
p1629
I27377
sS'AGGAGG'
p1630
I76762
sS'CTGGCA'
p1631
I47880
sS'CTGGCC'
p1632
I72690
sS'GGGGAN'
p1633
I1
sS'ACAGCT'
p1634
I33977
sS'GCTCTC'
p1635
I35304
sS'AACGCT'
p1636
I6305
sS'AATTTT'
p1637
I29989
sS'AAACAG'
p1638
I35700
sS'TGTCAC'
p1639
I22341
sS'CCCTCT'
p1640
I53634
sS'AACCTT'
p1641
I14031
sS'ATTTAT'
p1642
I27599
sS'AACGCG'
p1643
I5261
sS'AATTTA'
p1644
I22947
sS'AATTTC'
p1645
I20319
sS'AACGCC'
p1646
I8434
sS'ATTGGA'
p1647
I12586
sS'AATTTG'
p1648
I19263
sS'CCCTCA'
p1649
I40732
sS'ATTTAA'
p1650
I27917
sS'ATTTAG'
p1651
I15280
sS'CCCTCG'
p1652
I26441
sS'TAAATA'
p1653
I24675
sS'CACGAT'
p1654
I4722
sS'GGCGTT'
p1655
I8336
sS'TGACCA'
p1656
I19609
sS'CATTCT'
p1657
I22512
sS'GCCTTG'
p1658
I31493
sS'GGGTTA'
p1659
I10195
sS'TGACCG'
p1660
I7951
sS'ACCACG'
p1661
I11184
sS'CATTCG'
p1662
I4423
sS'CATTCC'
p1663
I21581
sS'CATTCA'
p1664
I20794
sS'TCCATA'
p1665
I10623
sS'ACGAAA'
p1666
I4483
sS'CGCTAT'
p1667
I2850
sS'ACAAAT'
p1668
I21505
sS'GATTAA'
p1669
I12922
sS'GTAGGC'
p1670
I10501
sS'GATTAC'
p1671
I8795
sS'GTAGGA'
p1672
I12448
sS'GTAGGG'
p1673
I15809
sS'GATTAG'
p1674
I9538
sS'GCGGGT'
p1675
I19587
sS'ACAAAC'
p1676
I18389
sS'ACAAAA'
p1677
I31436
sS'ACAAAG'
p1678
I25665
sS'GCGGGC'
p1679
I47597
sS'GTCGGT'
p1680
I5679
sS'GCGGGA'
p1681
I32219
sS'GCGGGG'
p1682
I74555
sS'GATTAT'
p1683
I10919
sS'GTAGGT'
p1684
I9428
sS'CAATAC'
p1685
I6720
sS'TAATGA'
p1686
I16731
sS'GATGTT'
p1687
I15251
sS'TAATGC'
p1688
I10908
sS'GGAGAT'
p1689
I23140
sS'GCCCTT'
p1690
I31187
sS'CAATAA'
p1691
I14884
sS'GCCCTC'
p1692
I55004
sS'GATGTG'
p1693
I21152
sS'GCCCTA'
p1694
I14338
sS'GATGTA'
p1695
I9577
sS'GCCCTG'
p1696
I80407
sS'GATGTC'
p1697
I14811
sS'CAATAG'
p1698
I8363
sS'TGAAAT'
p1699
I27143
sS'TTCTAG'
p1700
I15299
sS'TTCTAA'
p1701
I18645
sS'ATCCGT'
p1702
I4161
sS'TTCTAC'
p1703
I11888
sS'TGAAAA'
p1704
I33600
sS'TGAAAC'
p1705
I18502
sS'TGAAAG'
p1706
I25541
sS'TTCTAT'
p1707
I14847
sS'ATCCGC'
p1708
I7475
sS'ATCCGA'
p1709
I4154
sS'ATCCGG'
p1710
I7681
sS'TGGCTC'
p1711
I41372
sS'TGGCTA'
p1712
I14204
sS'TGGCTG'
p1713
I59897
sS'GACCGG'
p1714
I12249
sS'GGGTGA'
p1715
I31408
sS'AGTTGT'
p1716
I12697
sS'AGCTAT'
p1717
I10864
sS'ATTAGT'
p1718
I10340
sS'GTCGGC'
p1719
I11121
sS'TGGCTT'
p1720
I33232
sS'AGTTGG'
p1721
I17077
sS'AGCTAA'
p1722
I13955
sS'AGCTAC'
p1723
I12285
sS'AGTTGC'
p1724
I13422
sS'AGTTGA'
p1725
I12153
sS'AGCTAG'
p1726
I12699
sS'CGTTGA'
p1727
I3955
sS'TCCAGT'
p1728
I23169
sS'GCACCT'
p1729
I28747
sS'CAGTGT'
p1730
I26920
sS'AGTCAG'
p1731
I24705
sS'TCAGGT'
p1732
I19818
sS'TCAAGG'
p1733
I19891
sS'GTCGGG'
p1734
I16329
sS'TCAAGC'
p1735
I14977
sS'TCAAGA'
p1736
I16107
sS'CTAATA'
p1737
I9735
sS'CAGTGC'
p1738
I33516
sS'CTAATC'
p1739
I9278
sS'CAGTGA'
p1740
I31937
sS'CAGTGG'
p1741
I40360
sS'CTAATG'
p1742
I12818
sS'TCAAGT'
p1743
I14232
sS'CTGCAA'
p1744
I28328
sS'GAGCCC'
p1745
I55297
sS'TCAGGC'
p1746
I35116
sS'GTGGGT'
p1747
I29880
sS'ATAGAG'
p1748
I11320
sS'CGTTGG'
p1749
I7134
sS'GATCAG'
p1750
I14165
sS'AGTCAA'
p1751
I12546
sS'TTCCCT'
p1752
I43679
sS'CGAGCG'
p1753
I13336
sS'GTTAGT'
p1754
I7194
sS'CGAGCA'
p1755
I10652
sS'GAGCCG'
p1756
I29955
sS'CGAGCC'
p1757
I19737
sS'TTCCCA'
p1758
I41204
sS'TTCCCC'
p1759
I44698
sS'GTTCAC'
p1760
I12738
sS'TTCCCG'
p1761
I19232
sS'GATCAC'
p1762
I11465
sS'GGACCT'
p1763
I24702
sS'TACATG'
p1764
I11560
sS'AAGTAC'
p1765
I9475
sS'CACACT'
p1766
I25661
sS'TACATC'
p1767
I9503
sS'AAGTAG'
p1768
I12344
sS'TACATA'
p1769
I11446
sS'CATGGT'
p1770
I17252
sS'GGACCG'
p1771
I14713
sS'ATTGGT'
p1772
I9650
sS'GGACCA'
p1773
I22560
sS'TCATCA'
p1774
I18682
sS'GGACCC'
p1775
I39327
sS'CACACG'
p1776
I16180
sS'TACATT'
p1777
I15478
sS'CACACC'
p1778
I31949
sS'GCACAA'
p1779
I16268
sS'AAGTAT'
p1780
I10690
sS'TCTGCC'
p1781
I49578
sS'TCTGCA'
p1782
I40838
sS'TCTGCG'
p1783
I16466
sS'TGCCCC'
p1784
I53991
sS'CCCGTC'
p1785
I18097
sS'TTAAGG'
p1786
I12725
sS'CCCGTA'
p1787
I4389
sS'CGTCGA'
p1788
I2470
sS'CCCGTG'
p1789
I20330
sS'TTAAGC'
p1790
I11385
sS'ACGCAC'
p1791
I9672
sS'TAGATC'
p1792
I6738
sS'TGTCAA'
p1793
I14025
sS'TAGATA'
p1794
I9923
sS'TGCCCA'
p1795
I46035
sS'TAGATG'
p1796
I11749
sS'TCTGCT'
p1797
I43270
sS'TTACGC'
p1798
I2445
sS'TTAAGT'
p1799
I14373
sS'TTACGA'
p1800
I2310
sS'TTACGG'
p1801
I3127
sS'CCCGTT'
p1802
I8298
sS'AGTGAC'
p1803
I21043
sS'AGTGAA'
p1804
I21289
sS'AGTGAG'
p1805
I29946
sS'CGGGCG'
p1806
I37089
sS'AAACAC'
p1807
I24930
sS'TAAGAG'
p1808
I14650
sS'CGGGCC'
p1809
I43098
sS'GAAAGT'
p1810
I18981
sS'CGGGCA'
p1811
I25338
sS'TAAGAC'
p1812
I8765
sS'AAACAA'
p1813
I34437
sS'AGTGAT'
p1814
I16310
sS'CTTTCC'
p1815
I40796
sS'TAAGAT'
p1816
I11532
sS'CCTGAA'
p1817
I27700
sS'CCTGAC'
p1818
I30676
sS'CCTGAG'
p1819
I51692
sS'GTTAGG'
p1820
I9947
sS'GCCAAC'
p1821
I16789
sS'TATACT'
p1822
I7383
sS'GTTAGC'
p1823
I7855
sS'GTTAGA'
p1824
I9101
sS'GNNNNN'
p1825
I1
sS'ACCCCC'
p1826
I40974
sS'TATACG'
p1827
I1459
sS'AGGTAC'
p1828
I9301
sS'TATACC'
p1829
I4947
sS'TATACA'
p1830
I10406
sS'ATTGGC'
p1831
I13289
sS'CGTATA'
p1832
I1486
sS'TCTTGT'
p1833
I18082
sS'ACTAGT'
p1834
I5886
sS'TTTATT'
p1835
I38517
sS'GTAATA'
p1836
I9032
sS'AACGCA'
p1837
I6221
sS'GTAATC'
p1838
I8898
sS'TCTAAC'
p1839
I9200
sS'CGTTCT'
p1840
I7555
sS'CCACCG'
p1841
I23405
sS'CGGATC'
p1842
I7169
sS'CCACCA'
p1843
I41258
sS'CCACCC'
p1844
I71560
sS'GTTCGT'
p1845
I3385
sS'TTTATG'
p1846
I18665
sS'ACTAGG'
p1847
I10255
sS'GTAACG'
p1848
I2655
sS'TTTATC'
p1849
I18729
sS'ACTAGC'
p1850
I7595
sS'TTTATA'
p1851
I19915
sS'ACTAGA'
p1852
I10273
sS'CCACCT'
p1853
I47648
sS'CGTTCG'
p1854
I3058
sS'TCGTTG'
p1855
I4255
sS'CGTTCA'
p1856
I5379
sS'CGTTCC'
p1857
I9852
sS'TCTAAT'
p1858
I14608
sS'CTTTGT'
p1859
I26327
sS'CCCTCC'
p1860
I99112
sS'ACTGGA'
p1861
I23257
sS'ACTGGC'
p1862
I25543
sS'TAGTCC'
p1863
I8790
sS'GTGACC'
p1864
I22652
sS'TAGTCA'
p1865
I9031
sS'GTGACA'
p1866
I22684
sS'TAGTCG'
p1867
I2090
sS'GTGACG'
p1868
I9036
sS'TGTCAT'
p1869
I19096
sS'ACTGGT'
p1870
I14177
sS'CTTTGG'
p1871
I28297
sS'CCTATG'
p1872
I9367
sS'CTTTGC'
p1873
I27214
sS'ACGTGC'
p1874
I10717
sS'GTGACT'
p1875
I20501
sS'TAGTCT'
p1876
I9246
sS'GTGCAC'
p1877
I19990
sS'CGACGG'
p1878
I7419
sS'ACCTAG'
p1879
I10533
sS'GCAATT'
p1880
I13096
sS'ACCTAA'
p1881
I9678
sS'CGACGC'
p1882
I7610
sS'ACCTAC'
p1883
I9442
sS'CCGCAG'
p1884
I36300
sS'CCGCAA'
p1885
I8143
sS'CCGCAC'
p1886
I18984
sS'GGGACT'
p1887
I30176
sS'ACCTAT'
p1888
I6550
sS'GCGCTG'
p1889
I32694
sS'CGAAGA'
p1890
I7099
sS'CCCCGT'
p1891
I19221
sS'CGAAGG'
p1892
I11534
sS'GCGCTC'
p1893
I24934
sS'GTGCAT'
p1894
I15337
sS'GCGCTA'
p1895
I5071
sS'CCGCAT'
p1896
I8025
sS'GTGTAA'
p1897
I10199
sS'GTTCGC'
p1898
I5220
sS'GAAGAT'
p1899
I17257
sS'GGATCT'
p1900
I16357
sS'TCATGA'
p1901
I14354
sS'TCGGAA'
p1902
I6434
sS'TCGGAC'
p1903
I6146
sS'GAATCT'
p1904
I14998
sS'TCGGAG'
p1905
I13372
sS'GGATCG'
p1906
I5744
sS'GAAGAG'
p1907
I36702
sS'GAAGAA'
p1908
I29571
sS'GGATCC'
p1909
I19619
sS'GAAGAC'
p1910
I19325
sS'GGATCA'
p1911
I13196
sS'GAATCA'
p1912
I15091
sS'GAATCC'
p1913
I15340
sS'TCGGAT'
p1914
I4078
sS'GAATCG'
p1915
I4390
sS'ATGGTC'
p1916
I11343
sS'CAGATG'
p1917
I40453
sS'ACGCCG'
p1918
I10535
sS'TGACCC'
p1919
I25206
sS'ACGCCA'
p1920
I10100
sS'CAGATC'
p1921
I19897
sS'ACGCCC'
p1922
I18527
sS'TGCGTG'
p1923
I15086
sS'TGTCAG'
p1924
I26500
sS'CTATCT'
p1925
I11936
sS'CAGATT'
p1926
I20835
sS'CTCGAC'
p1927
I5558
sS'ATGGTT'
p1928
I12719
sS'TCGCAA'
p1929
I3391
sS'GCTATT'
p1930
I11492
sS'TGCGTC'
p1931
I9398
sS'AATGGT'
p1932
I12840
sS'GTTACG'
p1933
I2216
sS'GGGACG'
p1934
I22555
sS'AATGGC'
p1935
I18107
sS'AATGGA'
p1936
I20850
sS'AATGGG'
p1937
I21419
sS'GATCAA'
p1938
I8814
sS'CCCCGA'
p1939
I24542
sS'CAACTC'
p1940
I16158
sS'CAACTA'
p1941
I7847
sS'ATTTAC'
p1942
I14817
sS'CGTTAG'
p1943
I3334
sS'TTGACC'
p1944
I10937
sS'GGAGGG'
p1945
I99722
sS'AAAAGT'
p1946
I21843
sS'GGAGGA'
p1947
I68179
sS'GGAGGC'
p1948
I74778
sS'TGGTAG'
p1949
I12108
sS'TGACCT'
p1950
I25186
sS'GAGTGT'
p1951
I18824
sS'TGGTAC'
p1952
I8281
sS'GAGGTA'
p1953
I12057
sS'TGGTAA'
p1954
I12564
sS'AAAAGG'
p1955
I30205
sS'GGAGGT'
p1956
I35780
sS'AGCCAT'
p1957
I22913
sS'AAAAGC'
p1958
I28541
sS'AAAAGA'
p1959
I36582
sS'TTGACT'
p1960
I12576
sS'GAGTGG'
p1961
I32993
sS'CGCCAG'
p1962
I27003
sS'TGGTAT'
p1963
I9599
sS'CGCCAA'
p1964
I9345
sS'GAGTGC'
p1965
I21754
sS'CGCCAC'
p1966
I21120
sS'GAGTGA'
p1967
I22969
sS'GCCAGG'
p1968
I82691
sS'GCCAGA'
p1969
I40918
sS'CTCGTG'
p1970
I10298
sS'GCCAGC'
p1971
I59534
sS'GCCCGT'
p1972
I14327
sS'CAATCC'
p1973
I12083
sS'TACCGA'
p1974
I2597
sS'TACCGC'
p1975
I4740
sS'CTTCAT'
p1976
I20241
sS'GCCCGC'
p1977
I47513
sS'GCCAGT'
p1978
I25677
sS'GCCCGA'
p1979
I17605
sS'GCCCGG'
p1980
I55175
sS'TGCGAT'
p1981
I4113
sS'CTTCAC'
p1982
I21876
sS'CTTCAA'
p1983
I17411
sS'TACCGT'
p1984
I2678
sS'TCCGAG'
p1985
I14323
sS'TCCGAA'
p1986
I5721
sS'TCCGAC'
p1987
I6508
sS'AATTCA'
p1988
I20387
sS'TNNNNN'
p1989
I1
sS'AATTCC'
p1990
I16830
sS'ATTAGG'
p1991
I11491
sS'AATTCG'
p1992
I3258
sS'TCCGAT'
p1993
I3563
sS'NNNGAT'
p1994
I1
sS'TAGCGG'
p1995
I5655
sS'AATTCT'
p1996
I19842
sS'TAGCGC'
p1997
I4932
sS'GTCATC'
p1998
I14620
sS'GTCATA'
p1999
I8147
sS'GTCATG'
p2000
I13871
sS'AGCAGG'
p2001
I59725
sS'CCAGGT'
p2002
I40520
sS'TTGGAA'
p2003
I23085
sS'TTGGAG'
p2004
I26694
sS'AGCAGA'
p2005
I43261
sS'GGATGC'
p2006
I23116
sS'CCAGGG'
p2007
I85113
sS'AGCAGT'
p2008
I25413
sS'CCAGGA'
p2009
I64021
sS'CCAGGC'
p2010
I92162
sS'TTGGAT'
p2011
I13281
sS'ACGGTA'
p2012
I2764
sS'CATCTG'
p2013
I40281
sS'ACGGTC'
p2014
I5845
sS'CATCTA'
p2015
I11782
sS'GATCGA'
p2016
I2766
sS'CATCTC'
p2017
I27929
sS'ATAGAA'
p2018
I14705
sS'GGGGTC'
p2019
I38914
sS'CAAGCC'
p2020
I27904
sS'CATCTT'
p2021
I22147
sS'CAAGCA'
p2022
I23344
sS'CAAGCG'
p2023
I9369
sS'ACTCGA'
p2024
I4441
sS'CCTGGC'
p2025
I82436
sS'GTTCTT'
p2026
I17708
sS'ACATGA'
p2027
I15992
sS'CGTAAT'
p2028
I2347
sS'ACATGC'
p2029
I17539
sS'TCTTGA'
p2030
I16019
sS'ACATGG'
p2031
I21293
sS'CCCGCT'
p2032
I28030
sS'GTACAT'
p2033
I8557
sS'TGGCGG'
p2034
I27646
sS'CGTAAG'
p2035
I3146
sS'GTTCTG'
p2036
I25788
sS'ACATGT'
p2037
I17621
sS'GTTCTA'
p2038
I9208
sS'CGTAAA'
p2039
I3281
sS'CCCGCG'
p2040
I39291
sS'ACTCGG'
p2041
I11781
sS'CCCGCC'
p2042
I78233
sS'CCCGCA'
p2043
I27392
sS'CCCTTT'
p2044
I31982
sS'TGTTGT'
p2045
I17973
sS'TCTTGG'
p2046
I25577
sS'GTTGTT'
p2047
I14265
sS'ATCCTT'
p2048
I16402
sS'TTGTCG'
p2049
I3823
sS'TTGTCC'
p2050
I18708
sS'TTGTCA'
p2051
I17490
sS'ATCCTC'
p2052
I20680
sS'GTTGTA'
p2053
I7997
sS'ATCCTA'
p2054
I9861
sS'GTTGTC'
p2055
I11185
sS'ATCCTG'
p2056
I26344
sS'GTTGTG'
p2057
I14513
sS'TTGTCT'
p2058
I21391
sS'CTATGC'
p2059
I8387
sS'TGACTA'
p2060
I9036
sS'TGGGCC'
p2061
I51731
sS'TGACTC'
p2062
I20828
sS'TGGGCA'
p2063
I46276
sS'TGGGCG'
p2064
I28022
sS'TGACTG'
p2065
I23002
sS'AAGCCG'
p2066
I13897
sS'AAGCCC'
p2067
I33965
sS'AAGCCA'
p2068
I33018
sS'CAAAAT'
p2069
I24194
sS'ACGCGG'
p2070
I12577
sS'TGGGCT'
p2071
I47908
sS'CAAAAC'
p2072
I21474
sS'CAAAAA'
p2073
I29685
sS'AAGCCT'
p2074
I27266
sS'CAAAAG'
p2075
I23632
sS'TCAATG'
p2076
I11507
sS'AAACTT'
p2077
I17590
sS'TCAATC'
p2078
I9033
sS'TCAATA'
p2079
I10262
sS'CAGTTC'
p2080
I21609
sS'GACCCG'
p2081
I17838
sS'CAGTTG'
p2082
I17212
sS'GACCCC'
p2083
I39204
sS'CTCTGT'
p2084
I41930
sS'TCAATT'
p2085
I14304
sS'GGCCAG'
p2086
I73306
sS'CTCTGC'
p2087
I62592
sS'GACCCT'
p2088
I27553
sS'CTCTGA'
p2089
I36662
sS'ACAATC'
p2090
I9801
sS'CTCTGG'
p2091
I59122
sS'CAGTTT'
p2092
I25391
sS'GCGAAG'
p2093
I10739
sS'ACGTTC'
p2094
I5117
sS'TGCTGG'
p2095
I58216
sS'CGAGGT'
p2096
I11823
sS'TGCTGA'
p2097
I32790
sS'GAGTCT'
p2098
I19908
sS'TGCTGC'
p2099
I53142
sS'TAGGGA'
p2100
I16664
sS'GCTGGT'
p2101
I33186
sS'GTGATT'
p2102
I15765
sS'CTACTA'
p2103
I6975
sS'TGCTGT'
p2104
I37074
sS'TAGGGC'
p2105
I14437
sS'TAATGG'
p2106
I13077
sS'GTGATG'
p2107
I19477
sS'CTACTG'
p2108
I14454
sS'GTGATC'
p2109
I11508
sS'GCTGGC'
p2110
I59890
sS'GTGATA'
p2111
I9488
sS'GCTGGA'
p2112
I50133
sS'TGATAA'
p2113
I16533
sS'TGTAGT'
p2114
I11128
sS'TGATAC'
p2115
I7194
sS'TGATAG'
p2116
I9347
sS'CTTGTT'
p2117
I19339
sS'GACGGT'
p2118
I6958
sS'GCTAGG'
p2119
I15328
sS'GCTAGA'
p2120
I11550
sS'ATGAAT'
p2121
I18782
sS'GCTAGC'
p2122
I9582
sS'AAGGGT'
p2123
I17564
sS'TGATAT'
p2124
I10961
sS'GTAGTG'
p2125
I8640
sS'GCTAGT'
p2126
I7327
sS'ATGAAC'
p2127
I12452
sS'GACGGG'
p2128
I17770
sS'ATGAAA'
p2129
I27401
sS'GACGGA'
p2130
I9767
sS'CTTGTA'
p2131
I10639
sS'GACGGC'
p2132
I14947
sS'CTTGTC'
p2133
I19251
sS'CAAAGA'
p2134
I25512
sS'CCATAG'
p2135
I10126
sS'GGTGAA'
p2136
I19171
sS'GGTGAC'
p2137
I23707
sS'GCGTCT'
p2138
I12689
sS'TGTAAA'
p2139
I20890
sS'GGTGAG'
p2140
I38164
sS'GGAATG'
p2141
I21500
sS'CGTCCT'
p2142
I15562
sS'GGAATC'
p2143
I15956
sS'GGAATA'
p2144
I12201
sS'GCGTCA'
p2145
I8004
sS'GTTATG'
p2146
I7837
sS'GCGTCC'
p2147
I20372
sS'GGTGAT'
p2148
I15330
sS'GCGTCG'
p2149
I7811
sS'CGTCCG'
p2150
I9287
sS'GGAATT'
p2151
I16951
sS'CGTCCC'
p2152
I22776
sS'CGTCCA'
p2153
I11122
sS'TTTCGA'
p2154
I3504
sS'CCGTAT'
p2155
I2571
sS'GAAGTC'
p2156
I17888
sS'ACGTTT'
p2157
I6422
sS'GCCGTC'
p2158
I14862
sS'GCCGTA'
p2159
I3912
sS'CCGTAC'
p2160
I3218
sS'CCGTAA'
p2161
I3207
sS'CCGTAG'
p2162
I5019
sS'AGTCCG'
p2163
I8330
sS'CAAAGT'
p2164
I19816
sS'GCCGTT'
p2165
I7053
sS'TTGGTG'
p2166
I19502
sS'GAAGTT'
p2167
I15258
sS'GGCGCG'
p2168
I37714
sS'ATGCCC'
p2169
I22077
sS'TTAGTT'
p2170
I12075
sS'TATTAG'
p2171
I9724
sS'GGCGCC'
p2172
I44935
sS'TATTAA'
p2173
I17919
sS'GGCGCA'
p2174
I20471
sS'TATTAC'
p2175
I8998
sS'ACTATG'
p2176
I7896
sS'CAACGG'
p2177
I6111
sS'TTTAAG'
p2178
I18502
sS'ACTATC'
p2179
I6290
sS'TTTAAA'
p2180
I44518
sS'ACTATA'
p2181
I6798
sS'TTTAAC'
p2182
I14614
sS'TATTAT'
p2183
I17144
sS'TTAGTG'
p2184
I11615
sS'GGCGCT'
p2185
I26923
sS'TTAGTC'
p2186
I8180
sS'ATGCCT'
p2187
I21193
sS'TTAGTA'
p2188
I9014
sS'TTTAAT'
p2189
I28438
sS'ACTATT'
p2190
I9816
sS'GGANTG'
p2191
I1
sS'GGGCAT'
p2192
I22096
sS'TTTCCG'
p2193
I9414
sS'TTTCCA'
p2194
I37039
sS'TTTCCC'
p2195
I41553
sS'GTACGT'
p2196
I2747
sS'GTTTGT'
p2197
I18724
sS'TCAGNN'
p2198
I1
sS'TTTCCT'
p2199
I48287
sS'GGGCAG'
p2200
I87353
sS'GTCTGT'
p2201
I25878
sS'GGGCAA'
p2202
I24184
sS'GGGCAC'
p2203
I39108
sS'GTTTGC'
p2204
I16944
sS'GTTTGA'
p2205
I14291
sS'GTACGC'
p2206
I2703
sS'GTACGA'
p2207
I1894
sS'CCGCTC'
p2208
I27208
sS'GCATGT'
p2209
I17640
sS'CCGCTA'
p2210
I5532
sS'CCGCTG'
p2211
I31519
sS'AGCATT'
p2212
I19049
sS'GCGCGG'
p2213
I41838
sS'GCGCGC'
p2214
I38819
sS'GTAAAC'
p2215
I10059
sS'GCGCGA'
p2216
I10386
sS'GCATGG'
p2217
I23646
sS'GCATGC'
p2218
I17705
sS'TTAGGG'
p2219
I14741
sS'GCATGA'
p2220
I15277
sS'GTCGAC'
p2221
I2683
sS'GCGCGT'
p2222
I11390
sS'GTCGAG'
p2223
I5714
sS'CGTGGC'
p2224
I21852
sS'GAGCTA'
p2225
I12625
sS'TGCGCT'
p2226
I13354
sS'GAGCTC'
p2227
I33134
sS'ATTGAT'
p2228
I10406
sS'GAGCTG'
p2229
I56548
sS'AAACGA'
p2230
I5831
sS'AAACGC'
p2231
I8097
sS'GTAGTA'
p2232
I5625
sS'GCGTTA'
p2233
I3037
sS'TGTCCC'
p2234
I37814
sS'TGCGCG'
p2235
I15616
sS'TGTCCA'
p2236
I25731
sS'GAGCTT'
p2237
I21536
sS'TGCGCC'
p2238
I20474
sS'ATTGAG'
p2239
I12315
sS'TGCGCA'
p2240
I12065
sS'GTGAAG'
p2241
I22024
sS'AAACGT'
p2242
I6459
sS'ATTTCG'
p2243
I3843
sS'ATTTCA'
p2244
I27162
sS'ATTTCC'
p2245
I27266
sS'ATCAGT'
p2246
I13912
sS'ATCGGG'
p2247
I6064
sS'CATAGT'
p2248
I8060
sS'AAATCA'
p2249
I26295
sS'ATCGGC'
p2250
I4952
sS'ATCGGA'
p2251
I3625
sS'ATTTCT'
p2252
I30741
sS'CGATCA'
p2253
I3134
sS'TGGGTC'
p2254
I26645
sS'TGGGTA'
p2255
I13773
sS'CATAGG'
p2256
I9627
sS'ATCGGT'
p2257
I2716
sS'ATCAGG'
p2258
I18643
sS'CATAGC'
p2259
I10066
sS'ATCAGC'
p2260
I19042
sS'ACGGGT'
p2261
I6477
sS'CCTGGT'
p2262
I37285
sS'ATTCGG'
p2263
I4194
sS'GATTCT'
p2264
I16514
sS'CTTTTG'
p2265
I23884
sS'TACTAG'
p2266
I5740
sS'CTTTTC'
p2267
I33371
sS'TACTAC'
p2268
I5659
sS'GATTCC'
p2269
I15693
sS'ACGGGG'
p2270
I18951
sS'ACGGGA'
p2271
I10757
sS'ACGGGC'
p2272
I14062
sS'TACTAT'
p2273
I7308
sS'CTTTTT'
p2274
I37566
sS'TCACGA'
p2275
I4608
sS'TCACGC'
p2276
I10047
sS'AGAGTG'
p2277
I25334
sS'TCACGG'
p2278
I10528
sS'GCAGCC'
p2279
I76026
sS'TCACGT'
p2280
I8045
sS'TTCCAC'
p2281
I23558
sS'TTCCAA'
p2282
I22716
sS'TTCCAG'
p2283
I42907
sS'CGAGGC'
p2284
I27541
sS'GTTTCA'
p2285
I18612
sS'ACCCTT'
p2286
I17575
sS'TGAAGT'
p2287
I17822
sS'ATGCTT'
p2288
I17673
sS'TTCCAT'
p2289
I22659
sS'ACCCTA'
p2290
I10123
sS'ACCCTC'
p2291
I31537
sS'TGAAGG'
p2292
I26783
sS'ACCCTG'
p2293
I39581
sS'CTGACT'
p2294
I24347
sS'CCCCTT'
p2295
I37776
sS'AGTTAT'
p2296
I10869
sS'ACATAT'
p2297
I13675
sS'CTGACG'
p2298
I10018
sS'CTGACC'
p2299
I31280
sS'CTGACA'
p2300
I26649
sS'AGTTAA'
p2301
I14201
sS'CCCCTG'
p2302
I65037
sS'AGTTAC'
p2303
I9534
sS'CCCCTC'
p2304
I77051
sS'AGTTAG'
p2305
I9817
sS'CCCCTA'
p2306
I17511
sS'ACACAG'
p2307
I40425
sS'CAATGC'
p2308
I13014
sS'ACACAA'
p2309
I20512
sS'ACACAC'
p2310
I55367
sS'AATGTT'
p2311
I19661
sS'CTGCAG'
p2312
I81971
sS'CATGGG'
p2313
I26559
sS'CTGCAC'
p2314
I39312
sS'CATGGC'
p2315
I27841
sS'AATGTC'
p2316
I15352
sS'ACACAT'
p2317
I22119
sS'AATGTA'
p2318
I15427
sS'AATGTG'
p2319
I21392
sS'GCACAC'
p2320
I28184
sS'CTGCAT'
p2321
I26545
sS'GCACAG'
p2322
I43991
sS'CGATTC'
p2323
I4355
sS'ACATTT'
p2324
I29443
sS'ATGTTC'
p2325
I14163
sS'CGAGAT'
p2326
I5997
sS'ATTACT'
p2327
I12989
sS'TTATCT'
p2328
I23678
sS'ACATTG'
p2329
I12763
sS'GTACCA'
p2330
I8104
sS'ACATTA'
p2331
I14182
sS'ACATTC'
p2332
I15646
sS'ATTACA'
p2333
I17619
sS'ATGCTC'
p2334
I16314
sS'ATTACC'
p2335
I9144
sS'CGAGAC'
p2336
I9756
sS'CGAGAA'
p2337
I9051
sS'AAGTCT'
p2338
I16567
sS'ATGCTA'
p2339
I10465
sS'GGACAT'
p2340
I16616
sS'CAGCGT'
p2341
I14897
sS'GCTATA'
p2342
I6501
sS'GCTATC'
p2343
I7193
sS'AAGTCG'
p2344
I5471
sS'AAGTCA'
p2345
I19803
sS'GCTATG'
p2346
I10499
sS'AAGTCC'
p2347
I18685
sS'GGACAG'
p2348
I43806
sS'GGACAC'
p2349
I27803
sS'GGACAA'
p2350
I18531
sS'CTAATT'
p2351
I16423
sS'AGGGTT'
p2352
I19353
sS'GAGGCG'
p2353
I36089
sS'TGTTGG'
p2354
I20339
sS'GAGGCA'
p2355
I42999
sS'AGCGCT'
p2356
I15387
sS'GAGGCC'
p2357
I62076
sS'TGTTGC'
p2358
I17680
sS'CAATGT'
p2359
I12717
sS'TAAAAT'
p2360
I32612
sS'ACTCGC'
p2361
I8696
sS'TGTATA'
p2362
I10398
sS'AGCGCA'
p2363
I13300
sS'GAGGCT'
p2364
I48611
sS'AGCGCC'
p2365
I27079
sS'AGGGTG'
p2366
I40158
sS'AGGGTA'
p2367
I12105
sS'AGCGCG'
p2368
I18561
sS'AGGGTC'
p2369
I27576
sS'TAAAAG'
p2370
I22829
sS'ACTCGT'
p2371
I4088
sS'TAAAAC'
p2372
I19436
sS'TAAAAA'
p2373
I39637
sS'CTACTC'
p2374
I11624
sS'AGCTGC'
p2375
I54902
sS'ACGTTA'
p2376
I3020
sS'AGCTGA'
p2377
I32768
sS'ACGTTG'
p2378
I4919
sS'AGCTGG'
p2379
I60775
sS'TAGGGG'
p2380
I17495
sS'AGTGCG'
p2381
I9904
sS'AGTGCA'
p2382
I21981
sS'AGAGTT'
p2383
I17508
sS'AGTGCC'
p2384
I27117
sS'CCAAAA'
p2385
I21842
sS'TTCGTG'
p2386
I6225
sS'TAGGGT'
p2387
I10143
sS'GCTTGG'
p2388
I30121
sS'AGCTGT'
p2389
I34100
sS'CTACTT'
p2390
I12426
sS'AGTGCT'
p2391
I25392
sS'CGTTAC'
p2392
I2721
sS'AGAGTA'
p2393
I11468
sS'AAAACA'
p2394
I42701
sS'TTCGTA'
p2395
I2368
sS'GTTAAA'
p2396
I14686
sS'GCACCA'
p2397
I26335
sS'GTTAAC'
p2398
I7488
sS'CCTGGA'
p2399
I58425
sS'CCTGGG'
p2400
I104304
sS'GTTAAG'
p2401
I9838
sS'CCGGTG'
p2402
I16948
sS'AGCCCG'
p2403
I29051
sS'TTCGTC'
p2404
I4474
sS'GCACCC'
p2405
I36678
sS'GTCTGG'
p2406
I35427
sS'GTCTGC'
p2407
I28379
sS'GTTAAT'
p2408
I11739
sS'GTCTGA'
p2409
I19480
sS'GCGGNC'
p2410
I1
sS'TCTAAA'
p2411
I17366
sS'GGAAGG'
p2412
I60624
sS'CCACAT'
p2413
I23823
sS'GGAAGC'
p2414
I42955
sS'GCACCG'
p2415
I17799
sS'GGAAGA'
p2416
I39741
sS'TGTATT'
p2417
I18070
sS'TCCTCT'
p2418
I44584
sS'GCGTTC'
p2419
I8049
sS'CCGGTA'
p2420
I4288
sS'GCGTTG'
p2421
I6917
sS'CAATGG'
p2422
I14457
sS'CCACAG'
p2423
I52702
sS'GGAAGT'
p2424
I25646
sS'CCACAC'
p2425
I35821
sS'CCACAA'
p2426
I20545
sS'AAACCA'
p2427
I25643
sS'TCCTCG'
p2428
I17682
sS'TGTATG'
p2429
I12718
sS'TCCTCA'
p2430
I34113
sS'GCGTTT'
p2431
I7813
sS'TCCTCC'
p2432
I68443
sS'TGTATC'
p2433
I9715
sS'GTGAAT'
p2434
I14344
sS'TAACCG'
p2435
I2944
sS'TCATAG'
p2436
I9722
sS'TCAGGG'
p2437
I42207
sS'TCATAA'
p2438
I13539
sS'TAACCC'
p2439
I10498
sS'TCATAC'
p2440
I7362
sS'TAACCA'
p2441
I12044
sS'ACCGCT'
p2442
I8783
sS'TCGCGA'
p2443
I3671
sS'TGCATG'
p2444
I21986
sS'TCAGGA'
p2445
I32730
sS'TTCGTT'
p2446
I4660
sS'GCCACA'
p2447
I36465
sS'TAACCT'
p2448
I10894
sS'CGTTAT'
p2449
I2695
sS'GTGAAA'
p2450
I21401
sS'GTGAAC'
p2451
I12761
sS'AACCCG'
p2452
I10089
sS'ACCGCG'
p2453
I12028
sS'ACCGCA'
p2454
I9549
sS'AACGAG'
p2455
I5995
sS'ACCGCC'
p2456
I18379
sS'CCGCCT'
p2457
I38485
sS'AGGCTT'
p2458
I27083
sS'CCTTCT'
p2459
I39545
sS'CGAGCT'
p2460
I12469
sS'GTTGCA'
p2461
I13227
sS'AACGAA'
p2462
I4600
sS'GTTGCC'
p2463
I16583
sS'GTGCCG'
p2464
I14681
sS'GTGCCA'
p2465
I27129
sS'GTTGCG'
p2466
I5235
sS'GTGCCC'
p2467
I39529
sS'CCTTCA'
p2468
I26893
sS'AGGCTA'
p2469
I13118
sS'CCTTCC'
p2470
I61390
sS'AGGCTC'
p2471
I38314
sS'CCGCCC'
p2472
I74248
sS'TGTCGA'
p2473
I2973
sS'CCTTCG'
p2474
I11531
sS'AGGCTG'
p2475
I68433
sS'GTGCCT'
p2476
I31151
sS'CAGCGA'
p2477
I15004
sS'GTTGCT'
p2478
I17500
sS'GGATAT'
p2479
I8528
sS'TCGGGT'
p2480
I8441
sS'ATTTGA'
p2481
I19475
sS'GCAGTT'
p2482
I20140
sS'GAAGCT'
p2483
I27320
sS'GGATAA'
p2484
I11215
sS'ATGCCA'
p2485
I21494
sS'GGATAC'
p2486
I7012
sS'NNNNNG'
p2487
I2
sS'TCGGGG'
p2488
I24454
sS'GGATAG'
p2489
I8612
sS'GAAGCG'
p2490
I14875
sS'GCAGTG'
p2491
I40730
sS'GAAGCC'
p2492
I37595
sS'GCAGTA'
p2493
I12859
sS'GAAGCA'
p2494
I30024
sS'GCAGTC'
p2495
I22073
sS'CGCCCG'
p2496
I37277
sS'GAGAGA'
p2497
I45950
sS'GTTCAT'
p2498
I12385
sS'CGCCCC'
p2499
I64676
sS'CGCCCA'
p2500
I28168
sS'ACGTAA'
p2501
I3129
sS'CTATAG'
p2502
I6078
sS'NNNNNN'
p2503
I849
sS'GCATTC'
p2504
I14764
sS'ACGCAA'
p2505
I4255
sS'CTCGCA'
p2506
I10818
sS'CGCCCT'
p2507
I30558
sS'CTCGCG'
p2508
I13749
sS'GTCTCG'
p2509
I9716
sS'CTATAT'
p2510
I7558
sS'AGTTTC'
p2511
I20559
sS'GCCGGG'
p2512
I59447
sS'TACCCG'
p2513
I5674
sS'GCCGGC'
p2514
I41911
sS'CATGTT'
p2515
I17801
sS'GCCGGA'
p2516
I19373
sS'AGAAAC'
p2517
I28502
sS'AACTGC'
p2518
I20077
sS'GCCACT'
p2519
I30189
sS'CATGTA'
p2520
I11632
sS'CATGTC'
p2521
I16036
sS'GCCGGT'
p2522
I13413
sS'GAGATT'
p2523
I16404
sS'CATGTG'
p2524
I26892
sS'AGTTCG'
p2525
I4750
sS'GGCCTG'
p2526
I76049
sS'GGCCTC'
p2527
I62751
sS'GGCCTA'
p2528
I12814
sS'TTTGTT'
p2529
I33527
sS'AATCGG'
p2530
I4148
sS'AATCGC'
p2531
I4356
sS'AATCGA'
p2532
I2789
sS'GTTCAG'
p2533
I18828
sS'TCACTG'
p2534
I32079
sS'TCACTA'
p2535
I10617
sS'TCACTC'
p2536
I22605
sS'AATCGT'
p2537
I2916
sS'AGCCGA'
p2538
I12624
sS'CCGCCG'
p2539
I47755
sS'AGCCGC'
p2540
I29886
sS'TAATTG'
p2541
I14763
sS'AAAAAT'
p2542
I44380
sS'AGCCGG'
p2543
I29946
sS'TAATTC'
p2544
I14125
sS'TGGTGA'
p2545
I25446
sS'TCTCAT'
p2546
I20948
sS'TGGTGC'
p2547
I26608
sS'GATGGC'
p2548
I24068
sS'GGGCTG'
p2549
I90480
sS'TGGTGG'
p2550
I41279
sS'GATGGG'
p2551
I32494
sS'TAATTT'
p2552
I28599
sS'AAAAAC'
p2553
I28720
sS'GGGCTC'
p2554
I55334
sS'GAGCGA'
p2555
I12400
sS'GTTCAA'
p2556
I11483
sS'AAAAAG'
p2557
I37224
sS'TGACAG'
p2558
I28907
sS'CCAAGG'
p2559
I37777
sS'ACGTAT'
p2560
I2531
sS'TCTCAG'
p2561
I36331
sS'TCTCAA'
p2562
I19014
sS'TGGTGT'
p2563
I21788
sS'TCTCAC'
p2564
I22985
sS'ATTCGT'
p2565
I3113
sS'AGAACT'
p2566
I19362
sS'CCGCCA'
p2567
I27482
sS'TACCAT'
p2568
I9238
sS'GTATCC'
p2569
I6895
sS'CCTATT'
p2570
I10904
sS'CACTGT'
p2571
I27936
sS'ACCCGA'
p2572
I8457
sS'AGATAC'
p2573
I10297
sS'ACCCGC'
p2574
I19882
sS'ACCAGT'
p2575
I14048
sS'TACCAC'
p2576
I9837
sS'AGAACG'
p2577
I7524
sS'TACCAA'
p2578
I9022
sS'AGAACA'
p2579
I26397
sS'TACCAG'
p2580
I13875
sS'AGAACC'
p2581
I19900
sS'ACCAGC'
p2582
I32945
sS'CACTGG'
p2583
I36980
sS'ATGTCC'
p2584
I16133
sS'ATCACG'
p2585
I5342
sS'ACCAGG'
p2586
I37231
sS'CACTGC'
p2587
I40731
sS'CCTATC'
p2588
I8890
sS'CACTGA'
p2589
I27246
sS'GAGTCA'
p2590
I20906
sS'TAGGTT'
p2591
I9011
sS'GTTTAC'
p2592
I9702
sS'AATTAT'
p2593
I21643
sS'CTGTTG'
p2594
I23648
sS'TGCTAT'
p2595
I12658
sS'CTGTTC'
p2596
I25711
sS'CGGGTT'
p2597
I10011
sS'CTGTTA'
p2598
I15271
sS'AATTAC'
p2599
I14511
sS'TAGGTG'
p2600
I12239
sS'TAGGTA'
p2601
I6757
sS'TAGGTC'
p2602
I8223
sS'CGGGTC'
p2603
I17688
sS'CTGTTT'
p2604
I35767
sS'CGGGTA'
p2605
I5535
sS'CGGGTG'
p2606
I23004
sS'ATTGTT'
p2607
I16134
sS'AAGTAA'
p2608
I16289
sS'TGGATG'
p2609
I23858
sS'GCAATG'
p2610
I14781
sS'AGCAAA'
p2611
I29012
sS'ATATAT'
p2612
I17641
sS'AGCAAC'
p2613
I17398
sS'TTAGGC'
p2614
I10175
sS'AAAGCT'
p2615
I24958
sS'TTAGGA'
p2616
I15303
sS'AAAGCA'
p2617
I34449
sS'AAAGCC'
p2618
I30282
sS'TTAGGT'
p2619
I9635
sS'ATATAA'
p2620
I15291
sS'AGCAAT'
p2621
I16131
sS'ATATAC'
p2622
I7973
sS'TACTTC'
p2623
I11343
sS'ATAGCC'
p2624
I9136
sS'TACTTG'
p2625
I10382
sS'ATGTTT'
p2626
I24221
sS'CAGCAT'
p2627
I27890
sS'CAGCGC'
p2628
I32569
sS'ATAGCT'
p2629
I10844
sS'TACTTT'
p2630
I16383
sS'GGGTAA'
p2631
I11415
sS'CGAGTT'
p2632
I5871
sS'TCCAAT'
p2633
I12447
sS'CGTACT'
p2634
I2753
sS'TCCCGT'
p2635
I11070
sS'TATGCT'
p2636
I10579
sS'CTTAAG'
p2637
I11445
sS'ACATAA'
p2638
I14605
sS'CTTAAA'
p2639
I18438
sS'ACATAG'
p2640
I9845
sS'CTTAAC'
p2641
I10088
sS'CGTACA'
p2642
I3020
sS'TGCGAA'
p2643
I4857
sS'CGAGTG'
p2644
I10496
sS'TCCAAC'
p2645
I14430
sS'CGTACG'
p2646
I1483
sS'AGGGGA'
p2647
I51321
sS'CTTAAT'
p2648
I14391
sS'AGGGGC'
p2649
I62960
sS'TATGCA'
p2650
I11498
sS'AGGGGG'
p2651
I51451
sS'CGTTTG'
p2652
I6660
sS'CGACTT'
p2653
I5557
sS'TGAATT'
p2654
I20302
sS'TTGTAA'
p2655
I15189
sS'TTGTAC'
p2656
I8262
sS'GTACCT'
p2657
I9247
sS'TTGTAG'
p2658
I11411
sS'TGAATC'
p2659
I13766
sS'GATTGG'
p2660
I12754
sS'TGAATA'
p2661
I14568
sS'CGACTC'
p2662
I8613
sS'TGAATG'
p2663
I21096
sS'CACACA'
p2664
I67790
sS'CGACTG'
p2665
I8060
sS'TTGTAT'
p2666
I12979
sS'ATCGTG'
p2667
I4724
sS'GCTTCG'
p2668
I10235
sS'GCTTCA'
p2669
I23040
sS'ATCGTA'
p2670
I1875
sS'TGGGAG'
p2671
I60717
sS'GAGGGT'
p2672
I31391
sS'TGGGAA'
p2673
I41706
sS'TGGGAC'
p2674
I29060
sS'GCTTCT'
p2675
I34309
sS'CTTGAG'
p2676
I21067
sS'TGGCAC'
p2677
I26821
sS'GATTGA'
p2678
I9101
sS'TGGGAT'
p2679
I24272
sS'GGGCTA'
p2680
I13868
sS'CTAGCC'
p2681
I13700
sS'CTAGCA'
p2682
I12383
sS'CTAGCG'
p2683
I5285
sS'CGCACG'
p2684
I10609
sS'CGGTAG'
p2685
I5119
sS'ACTTAG'
p2686
I10608
sS'TAGATT'
p2687
I11566
sS'ACTTAA'
p2688
I14444
sS'CGGTAC'
p2689
I3480
sS'ACTTAC'
p2690
I9471
sS'CGGTAA'
p2691
I3517
sS'GACCAG'
p2692
I28410
sS'GACCAC'
p2693
I18553
sS'GACCAA'
p2694
I12936
sS'TTCGAG'
p2695
I6108
sS'TACACC'
p2696
I8150
sS'CGGTAT'
p2697
I2147
sS'TACACA'
p2698
I16962
sS'TACACG'
p2699
I4147
sS'GCGAGA'
p2700
I12172
sS'GAGAGC'
p2701
I35583
sS'GCGAGC'
p2702
I18259
sS'GCTGAG'
p2703
I51762
sS'GCGAGG'
p2704
I27816
sS'TTAAGA'
p2705
I15759
sS'CAGCCG'
p2706
I33428
sS'CAGCCA'
p2707
I59724
sS'GGTATT'
p2708
I8707
sS'CAGCCC'
p2709
I90714
sS'GCGAGT'
p2710
I8648
sS'CAGCCT'
p2711
I68365
sS'TTACGT'
p2712
I3147
sS'GAACTC'
p2713
I16232
sS'GAACTA'
p2714
I8383
sS'GGACTT'
p2715
I18644
sS'CACCTA'
p2716
I12202
sS'AACTAT'
p2717
I8836
sS'CACCTC'
p2718
I40319
sS'CACCTG'
p2719
I47761
sS'TGATCC'
p2720
I13135
sS'AACACT'
p2721
I17427
sS'TGATCA'
p2722
I12043
sS'TGATCG'
p2723
I3158
sS'AACTAG'
p2724
I9063
sS'GGACTG'
p2725
I29889
sS'CACCTT'
p2726
I23318
sS'AACTAC'
p2727
I8431
sS'GGACTC'
p2728
I25131
sS'AACGAT'
p2729
I2886
sS'AACACG'
p2730
I7119
sS'AACACA'
p2731
I26988
sS'AACACC'
p2732
I16002
sS'TGATCT'
p2733
I15650
sS'AAAGAC'
p2734
I19706
sS'CTATAC'
p2735
I4569
sS'CAACAG'
p2736
I23377
sS'GACAGT'
p2737
I18385
sS'CAACAA'
p2738
I16658
sS'AAAGAA'
p2739
I40499
sS'CAACAC'
p2740
I16272
sS'GCTGAT'
p2741
I18886
sS'GCATTA'
p2742
I11099
sS'GACAGG'
p2743
I37600
sS'CAACAT'
p2744
I14775
sS'GACAGC'
p2745
I32935
sS'GGGANT'
p2746
I1
sS'GACAGA'
p2747
I32653
sS'GTATTA'
p2748
I8334
sS'GTATTC'
p2749
I7787
sS'GTAAGT'
p2750
I9528
sS'CCAGCG'
p2751
I30476
sS'AGAGGT'
p2752
I24614
sS'GGTGGC'
p2753
I48384
sS'TCCCCT'
p2754
I51278
sS'GGTGGA'
p2755
I33611
sS'TATCTT'
p2756
I16011
sS'GGTGGG'
p2757
I75471
sS'NNNGAA'
p2758
I1
sS'AGAGGC'
p2759
I48475
sS'GTAAGA'
p2760
I10577
sS'AGAGGA'
p2761
I45126
sS'GTAAGC'
p2762
I8312
sS'GTATTT'
p2763
I18597
sS'GTAAGG'
p2764
I10440
sS'CGTCAA'
p2765
I3676
sS'CGTCAC'
p2766
I9113
sS'TCCCCC'
p2767
I50782
sS'GGTGGT'
p2768
I26049
sS'TCCCCA'
p2769
I60005
sS'GTCGCG'
p2770
I7427
sS'GTCGCA'
p2771
I5666
sS'GTCGCC'
p2772
I13550
sS'TCGGTC'
p2773
I6709
sS'TCGGTA'
p2774
I2550
sS'TATTGA'
p2775
I10277
sS'TCGGTG'
p2776
I10328
sS'GTCGCT'
p2777
I8499
sS'CCGTCG'
p2778
I7327
sS'CCGTCA'
p2779
I8658
sS'CCGTCC'
p2780
I20126
sS'GGCTGT'
p2781
I42245
sS'CGCGTG'
p2782
I12261
sS'GCATTT'
p2783
I25310
sS'CGCGTC'
p2784
I11982
sS'CGCGTA'
p2785
I2399
sS'GTTTTA'
p2786
I19435
sS'CCACTG'
p2787
I40443
sS'CCACTA'
p2788
I11588
sS'TTTAGC'
p2789
I12500
sS'CGCGTT'
p2790
I5060
sS'GGCTGG'
p2791
I92001
sS'GGCTGA'
p2792
I41777
sS'GGCTGC'
p2793
I76406
sS'CCACTT'
p2794
I24756
sS'TTTAGA'
p2795
I17689
sS'ATGACG'
p2796
I5023
sS'GGAGTT'
p2797
I20238
sS'ATGACA'
p2798
I19144
sS'TTTGTG'
p2799
I26082
sS'ATGACC'
p2800
I13088
sS'CCTGAT'
p2801
I18668
sS'GGGCCT'
p2802
I58941
sS'TAAGAA'
p2803
I17794
sS'ATGACT'
p2804
I15250
sS'GGAGTA'
p2805
I10594
sS'GGAGTC'
p2806
I25414
sS'GGAGTG'
p2807
I33563
sS'GGGCCG'
p2808
I49798
sS'GGGCCC'
p2809
I70175
sS'GGGCCA'
p2810
I50939
sS'GGCAAG'
p2811
I27585
sS'ACGAGT'
p2812
I4092
sS'TTCNNN'
p2813
I1
sS'AGGCCA'
p2814
I47298
sS'GCGCAC'
p2815
I16801
sS'AAAGTC'
p2816
I16771
sS'GCGCAG'
p2817
I30743
sS'ACGAGG'
p2818
I11944
sS'ACGAGC'
p2819
I7041
sS'ACGAGA'
p2820
I6008
sS'CTGATG'
p2821
I24088
sS'AGGCCT'
p2822
I47800
sS'AGACGG'
p2823
I13300
sS'GGGTTG'
p2824
I22190
sS'TTTGGG'
p2825
I28482
sS'CTTCGT'
p2826
I6683
sS'CTCGGG'
p2827
I30486
sS'GGGTTC'
p2828
I21085
sS'TTTGAT'
p2829
I17521
sS'ATTCGA'
p2830
I2737
sS'CTACGA'
p2831
I3233
sS'ATTGCT'
p2832
I16337
sS'GGGTTT'
p2833
I22282
sS'TGCGAC'
p2834
I5680
sS'AGATCC'
p2835
I16429
sS'TGCGAG'
p2836
I10709
sS'AACGGC'
p2837
I7171
sS'AGACGC'
p2838
I12928
sS'ATTGCA'
p2839
I14841
sS'GACTAG'
p2840
I7949
sS'ATTGCG'
p2841
I3072
sS'TTTGAC'
p2842
I12623
sS'TTTGAA'
p2843
I25471
sS'AAGCAG'
p2844
I39965
sS'CGGGCT'
p2845
I29001
sS'TGACGT'
p2846
I6842
sS'CTCGTC'
p2847
I9676
sS'CCCTGG'
p2848
I85120
sS'CCCTGA'
p2849
I41837
sS'AAGCTT'
p2850
I17809
sS'CCCTGC'
p2851
I83096
sS'GCAGCA'
p2852
I53452
sS'GATATC'
p2853
I6292
sS'AAGCTC'
p2854
I21502
sS'GATATA'
p2855
I7382
sS'AAGCTA'
p2856
I11752
sS'GATATG'
p2857
I8480
sS'AAGCTG'
p2858
I33749
sS'TGACGC'
p2859
I7877
sS'TACTCT'
p2860
I11558
sS'CATCGT'
p2861
I5231
sS'GATGGT'
p2862
I15440
sS'GTAGTC'
p2863
I6753
sS'CAGGGT'
p2864
I40103
sS'CTACGG'
p2865
I5162
sS'CCAGTC'
p2866
I26950
sS'TACGAT'
p2867
I1792
sS'CCAGTG'
p2868
I37121
sS'TACTCG'
p2869
I3402
sS'TTTGGT'
p2870
I17424
sS'CATCGC'
p2871
I8301
sS'TACTCC'
p2872
I10761
sS'NGAATT'
p2873
I1
sS'TACTCA'
p2874
I11305
sS'CATCGG'
p2875
I6405
sS'CAGGGG'
p2876
I64316
sS'CAGGGA'
p2877
I63976
sS'CAGGGC'
p2878
I80430
sS'AATCTG'
p2879
I20809
sS'CGGACT'
p2880
I8454
sS'AAAGTG'
p2881
I24692
sS'GCCATT'
p2882
I17937
sS'AGTCGA'
p2883
I3422
sS'AATCTA'
p2884
I11397
sS'ATCCAA'
p2885
I13142
sS'TCACAC'
p2886
I22197
sS'TCACAA'
p2887
I17002
sS'TCACAG'
p2888
I34651
sS'GCCATA'
p2889
I9666
sS'CGGACG'
p2890
I9250
sS'TCCACC'
p2891
I33555
sS'CGGACA'
p2892
I9768
sS'CGGACC'
p2893
I13061
sS'GCCATG'
p2894
I27789
sS'TTTTAA'
p2895
I43265
sS'CGCNNN'
p2896
I1
sS'TCACAT'
p2897
I19396
sS'TGAACC'
p2898
I14339
sS'ATTAAC'
p2899
I11881
sS'ATTAAA'
p2900
I28891
sS'ATTAAG'
p2901
I14493
sS'TTTTAC'
p2902
I18016
sS'TCACTT'
p2903
I22758
sS'TCCACG'
p2904
I14075
sS'CAGNNN'
p2905
I1
sS'GTGCAG'
p2906
I39500
sS'ATTAAT'
p2907
I19242
sS'AAGCAC'
p2908
I20766
sS'GAACCA'
p2909
I17826
sS'GGTATG'
p2910
I7269
sS'CTGAAT'
p2911
I20078
sS'GGTATC'
p2912
I6443
sS'GAACCG'
p2913
I8365
sS'CAATGA'
p2914
I14994
sS'ACGAAT'
p2915
I2975
sS'CTGAAA'
p2916
I30901
sS'CTGAAC'
p2917
I18704
sS'GGAACC'
p2918
I22992
sS'CTGAAG'
p2919
I31389
sS'NNNNGA'
p2920
I2
sS'CATTGC'
p2921
I14861
sS'TATGAG'
p2922
I10394
sS'CATTGA'
p2923
I11670
sS'CTAGTT'
p2924
I9049
sS'CATTGG'
p2925
I13299
sS'TCAACT'
p2926
I12159
sS'ATGTTA'
p2927
I13143
sS'ACACCG'
p2928
I9277
sS'CTGCCA'
p2929
I51858
sS'CTGCCC'
p2930
I86814
sS'ACACCC'
p2931
I27421
sS'ACACCA'
p2932
I21809
sS'CTGCCG'
p2933
I30190
sS'CTAGTG'
p2934
I11387
sS'TCAACC'
p2935
I11246
sS'TCAACA'
p2936
I15420
sS'CTAGTC'
p2937
I7918
sS'TCAACG'
p2938
I3871
sS'CTAGTA'
p2939
I5578
sS'CATTGT'
p2940
I15482
sS'TATGAC'
p2941
I8022
sS'GTAATG'
p2942
I10120
sS'ACACCT'
p2943
I19834
sS'CTGCCT'
p2944
I70154
sS'CCTCGT'
p2945
I11982
sS'TTGTGT'
p2946
I21052
sS'AGACTG'
p2947
I24015
sS'GGCCTT'
p2948
I32523
sS'GCACTG'
p2949
I33448
sS'CCTCGG'
p2950
I33537
sS'CCTCGC'
p2951
I27652
sS'CCCGAC'
p2952
I16359
sS'CCTCGA'
p2953
I10196
sS'CGAGGA'
p2954
I17554
sS'AGACTT'
p2955
I16723
sS'CGAGGG'
p2956
I26510
sS'GGTTTA'
p2957
I11016
sS'CACCGT'
p2958
I10868
sS'ACTTTA'
p2959
I14137
sS'ACTTTG'
p2960
I20162
sS'GAATAC'
p2961
I7555
sS'GACCTG'
p2962
I30722
sS'GACCTA'
p2963
I8246
sS'GACCTC'
p2964
I24636
sS'CACCGG'
p2965
I16980
sS'GCATAG'
p2966
I8408
sS'CACCGA'
p2967
I10069
sS'CACCGC'
p2968
I23971
sS'GGACGA'
p2969
I9237
sS'GGACGC'
p2970
I20360
sS'GGACGG'
p2971
I20103
sS'CTATTA'
p2972
I10366
sS'CACAGC'
p2973
I52605
sS'CTTATC'
p2974
I13060
sS'CACAGA'
p2975
I43282
sS'CTTATA'
p2976
I7940
sS'CACAGG'
p2977
I49018
sS'TTAACT'
p2978
I14394
sS'ACTCAT'
p2979
I13933
sS'GAGGAG'
p2980
I71002
sS'GACGTA'
p2981
I2576
sS'CGTATC'
p2982
I2270
sS'GCATAC'
p2983
I6093
sS'TAAACT'
p2984
I14032
sS'GAGGAA'
p2985
I42794
sS'GACGTG'
p2986
I10532
sS'TTAACA'
p2987
I15996
sS'ACTCAC'
p2988
I20882
sS'TTAACC'
p2989
I10588
sS'ACTCAA'
p2990
I13602
sS'ACTCAG'
p2991
I27794
sS'TTAACG'
p2992
I3058
sS'CACAGT'
p2993
I26930
sS'AGCGAC'
p2994
I8449
sS'TAAACA'
p2995
I21709
sS'AGCGAA'
p2996
I6515
sS'TAAACC'
p2997
I11155
sS'AGCGAG'
p2998
I17213
sS'CGTATT'
p2999
I2860
sS'TAAACG'
p3000
I3987
sS'AGTTCC'
p3001
I19449
sS'GTATGT'
p3002
I10173
sS'AGTTCA'
p3003
I16699
sS'TACTTA'
p3004
I10304
sS'CTGTGC'
p3005
I44937
sS'CTGTGA'
p3006
I34525
sS'GAGCGT'
p3007
I9202
sS'TCTAAG'
p3008
I12612
sS'GCAAAG'
p3009
I26604
sS'TAGGAA'
p3010
I18151
sS'GCAAAA'
p3011
I22319
sS'TAGGAG'
p3012
I17624
sS'GCAAAC'
p3013
I17109
sS'CGGGGC'
p3014
I63200
sS'GTATGG'
p3015
I7364
sS'CTGTGT'
p3016
I40961
sS'CGGGGG'
p3017
I46797
sS'GTATGC'
p3018
I6031
sS'AGTTCT'
p3019
I19390
sS'GCAAAT'
p3020
I18624
sS'TAGGAT'
p3021
I9824
sS'TAATTA'
p3022
I21541
sS'TTCAAT'
p3023
I14693
sS'TCGCTN'
p3024
I1
sS'TGCTTT'
p3025
I34711
sS'ACAGGA'
p3026
I33355
sS'GTAATT'
p3027
I14809
sS'GTTACC'
p3028
I8002
sS'GTTACA'
p3029
I10174
sS'GTTTTT'
p3030
I28773
sS'TATCGA'
p3031
I1471
sS'TATCGC'
p3032
I2098
sS'TATAGT'
p3033
I6709
sS'GTCTAA'
p3034
I8027
sS'CAGGAC'
p3035
I39454
sS'GTCTAC'
p3036
I7106
sS'TGCTTC'
p3037
I30213
sS'TTCAAA'
p3038
I25499
sS'TTCAAC'
p3039
I12030
sS'TGCTTG'
p3040
I23361
sS'TATAGC'
p3041
I6400
sS'TATCGT'
p3042
I1808
sS'TATAGA'
p3043
I8693
sS'AGTGGG'
p3044
I37881
sS'TATAGG'
p3045
I6279
sS'GTGGCG'
p3046
I21021
sS'GTTACT'
p3047
I9920
sS'GGAAAA'
p3048
I40044
sS'GCTCTA'
p3049
I12862
sS'CCAAGT'
p3050
I20566
sS'GCTCTG'
p3051
I58710
sS'CCACGT'
p3052
I15260
sS'CAATAT'
p3053
I10358
sS'AGGACC'
p3054
I27565
sS'GAATGG'
p3055
I18879
sS'GGCTTT'
p3056
I29841
sS'ACTACT'
p3057
I8189
sS'GAATGC'
p3058
I14686
sS'CCACGA'
p3059
I10181
sS'GGCGTC'
p3060
I17050
sS'CCACGC'
p3061
I24157
sS'GGCGTA'
p3062
I3637
sS'AACCTC'
p3063
I18294
sS'CCACGG'
p3064
I22894
sS'AACCTA'
p3065
I8938
sS'GGCTTA'
p3066
I12327
sS'ACTACC'
p3067
I7474
sS'GGCTTC'
p3068
I37525
sS'ACTACA'
p3069
I10931
sS'ACTACG'
p3070
I2992
sS'GGCTTG'
p3071
I28070
sS'TCCTAG'
p3072
I16250
sS'TAACAA'
p3073
I14264
sS'CGTTGC'
p3074
I6605
sS'TAACAC'
p3075
I9865
sS'TCCTAC'
p3076
I12526
sS'AGTCAC'
p3077
I20380
sS'TCCTAA'
p3078
I15320
sS'TAACAG'
p3079
I15345
sS'TCATCG'
p3080
I5175
sS'AAGCGT'
p3081
I5598
sS'TCATCC'
p3082
I20524
sS'GAGCGG'
p3083
I27251
sS'CTTTCT'
p3084
I40931
sS'AGTCAT'
p3085
I15387
sS'TCCTAT'
p3086
I11160
sS'TAACAT'
p3087
I13224
sS'CGTTGT'
p3088
I4509
sS'TCCCCG'
p3089
I37696
sS'CTTTCA'
p3090
I25726
sS'CTTTCG'
p3091
I6353
sS'AGCCGT'
p3092
I10210
sS'GAGCGC'
p3093
I25266
sS'GTTGAT'
p3094
I9206
sS'CGACCA'
p3095
I6203
sS'CGACCC'
p3096
I15102
sS'CGACCG'
p3097
I5801
sS'CCTTAT'
p3098
I11590
sS'GTTGAC'
p3099
I8038
sS'GTTGAA'
p3100
I12025
sS'ACTGGG'
p3101
I34762
sS'GTTGAG'
p3102
I13893
sS'CCTTAC'
p3103
I10394
sS'CCTTAA'
p3104
I12871
sS'CCTTAG'
p3105
I13847
sS'CGACCT'
p3106
I8726
sS'AATAGA'
p3107
I14638
sS'AATAGC'
p3108
I11678
sS'CAACTG'
p3109
I17019
sS'AATAGG'
p3110
I10938
sS'CCAAGC'
p3111
I30051
sS'GGGGTT'
p3112
I24157
sS'GTCCCT'
p3113
I34742
sS'ATTCNN'
p3114
I1
sS'GGATGT'
p3115
I17933
sS'AATAGT'
p3116
I9923
sS'CCAAGA'
p3117
I25079
sS'CAACTT'
p3118
I13884
sS'ACTGTA'
p3119
I12797
sS'AAGCGG'
p3120
I13128
sS'GGATGA'
p3121
I20548
sS'GGATGG'
p3122
I33527
sS'GGGGTA'
p3123
I12900
sS'TCTCCG'
p3124
I17207
sS'GAGTCC'
p3125
I25019
sS'AAACTG'
p3126
I25522
sS'TCTCCC'
p3127
I54488
sS'AAACTA'
p3128
I13692
sS'TCTCCA'
p3129
I40993
sS'AAACTC'
p3130
I17999
sS'CTATGA'
p3131
I9832
sS'AGTACG'
p3132
I2540
sS'ACGCGC'
p3133
I11271
sS'AGTACC'
p3134
I8248
sS'CTATGG'
p3135
I10089
sS'AGTACA'
p3136
I11296
sS'CCCTTA'
p3137
I13078
sS'CCCTTC'
p3138
I46562
sS'TCTCCT'
p3139
I46200
sS'CCCTTG'
p3140
I29272
sS'TGCCAA'
p3141
I22780
sS'AGTACT'
p3142
I9214
sS'CTATGT'
p3143
I9886
sS'GCCGAA'
p3144
I7590
sS'GTGGAG'
p3145
I41010
sS'GCCGAC'
p3146
I11269
sS'GCTTAT'
p3147
I10764
sS'GTGGAC'
p3148
I19398
sS'GCCGAG'
p3149
I29020
sS'GTGGAA'
p3150
I23620
sS'NTGGAG'
p3151
I1
sS'GTGGAT'
p3152
I15436
sS'GCCATC'
p3153
I24038
sS'GCCGAT'
p3154
I4987
sS'AGATAG'
p3155
I11825
sS'TATCTG'
p3156
I17976
sS'ACCCGG'
p3157
I21631
sS'ACCGAG'
p3158
I11503
sS'AAATCG'
p3159
I4599
sS'CACGCG'
p3160
I12198
sS'CACGCA'
p3161
I14554
sS'AAATCC'
p3162
I20015
sS'CACGCC'
p3163
I21928
sS'GTTCCT'
p3164
I23219
sS'CTTTGA'
p3165
I21283
sS'ATGTCT'
p3166
I17421
sS'CACGCT'
p3167
I13144
sS'AAATCT'
p3168
I22149
sS'ACCGAT'
p3169
I2839
sS'CTTGAA'
p3170
I18163
sS'GTAGTT'
p3171
I8553
sS'AGATAA'
p3172
I23753
sS'GATGAT'
p3173
I13375
sS'GGAGCA'
p3174
I40516
sS'GGAGCC'
p3175
I64497
sS'TAAATG'
p3176
I23424
sS'CCAAAT'
p3177
I19779
sS'GGAGCG'
p3178
I30572
sS'AAAACT'
p3179
I22207
sS'GATGAC'
p3180
I14681
sS'GATGAA'
p3181
I18666
sS'GCTCTT'
p3182
I25699
sS'GATGAG'
p3183
I22882
sS'AAGGGG'
p3184
I37585
sS'AAAACC'
p3185
I22601
sS'CCAAAC'
p3186
I19485
sS'AAAACG'
p3187
I8272
sS'GGAGCT'
p3188
I46003
sS'CCAAAG'
p3189
I28268
sS'TCGCGG'
p3190
I12066
sS'CTAGAG'
p3191
I16950
sS'TCGCGC'
p3192
I10508
sS'AGATCN'
p3193
I2
sS'ACGTCG'
p3194
I3500
sS'TACCCT'
p3195
I12212
sS'AGATCA'
p3196
I15668
sS'GCCACC'
p3197
I48738
sS'AGAAAT'
p3198
I30346
sS'TCCCGG'
p3199
I35297
sS'GCGCTT'
p3200
I11479
sS'GCCACG'
p3201
I21498
sS'AGATCG'
p3202
I4921
sS'ATGTCA'
p3203
I18042
sS'TCGCGT'
p3204
I3864
sS'GTGCAA'
p3205
I13804
sS'ACCCGT'
p3206
I6491
sS'AGAAAG'
p3207
I40791
sS'CGACGA'
p3208
I3511
sS'CGGTCG'
p3209
I5814
sS'AGATCT'
p3210
I16463
sS'TACCCA'
p3211
I13673
sS'AGAAAA'
p3212
I50997
sS'TACCCC'
p3213
I13139
sS'ATGTAC'
p3214
I8666
sS'ACTTCG'
p3215
I5449
sS'ATGTAA'
p3216
I15776
sS'ATGTAG'
p3217
I10512
sS'CCTATA'
p3218
I6185
sS'ACGTCA'
p3219
I6813
sS'GTTCCG'
p3220
I8075
sS'GACGAC'
p3221
I5771
sS'ATGTCG'
p3222
I3554
sS'ATGTAT'
p3223
I13162
sS'ATTAGA'
p3224
I14674
sS'GTTCCC'
p3225
I26423
sS'AGCACT'
p3226
I25454
sS'TTAGAA'
p3227
I19094
sS'CGGCTG'
p3228
I33642
sS'TTAGAC'
p3229
I7998
sS'CGGCTC'
p3230
I29838
sS'TTAGAG'
p3231
I15175
sS'CGGCTA'
p3232
I5413
sS'AGCACC'
p3233
I30883
sS'AGCACA'
p3234
I30899
sS'AGCACG'
p3235
I12012
sS'AGTAGG'
p3236
I12760
sS'CGGCTT'
p3237
I13676
sS'TTAGAT'
p3238
I12013
sS'CCAGCA'
p3239
I57828
sS'CGAAGC'
p3240
I10303
sS'CCAGCC'
p3241
I92083
sS'AAAGAG'
p3242
I32123
sS'ATATCA'
p3243
I10970
sS'CGACGT'
p3244
I3486
sS'TTATTT'
p3245
I39513
sS'TGTGAG'
p3246
I29858
sS'TGTGAA'
p3247
I23304
sS'GGGAGG'
p3248
I112653
sS'TGTGAC'
p3249
I21485
sS'ATATCT'
p3250
I12407
sS'CCAGCT'
p3251
I60597
sS'CACGGT'
p3252
I10346
sS'AAAGAT'
p3253
I21349
sS'TGTGAT'
p3254
I19264
sS'TTATTG'
p3255
I14827
sS'TTATTA'
p3256
I20501
sS'CATGAT'
p3257
I12884
sS'TTATTC'
p3258
I16002
sS'ACATCT'
p3259
I21279
sS'TTTTAT'
p3260
I33791
sS'GCGAAC'
p3261
I5221
sS'CTTACT'
p3262
I11859
sS'TCCACT'
p3263
I23635
sS'TACAAA'
p3264
I18414
sS'AGACGA'
p3265
I6150
sS'TACAAC'
p3266
I7833
sS'CCTCTG'
p3267
I63967
sS'AGGTGG'
p3268
I47248
sS'CCTCTC'
p3269
I56595
sS'AGGTGC'
p3270
I28579
sS'CCTCTA'
p3271
I16751
sS'AGGTGA'
p3272
I27664
sS'CTTACG'
p3273
I2991
sS'TCCACA'
p3274
I27799
sS'TTTTAG'
p3275
I19364
sS'ACATCG'
p3276
I4440
sS'CTTACC'
p3277
I11273
sS'ACATCA'
p3278
I17476
sS'CTTACA'
p3279
I12271
sS'ACATCC'
p3280
I17994
sS'AGGTGT'
p3281
I19974
sS'CCTCTT'
p3282
I34713
sS'GCGTGA'
p3283
I10233
sS'CCCGGC'
p3284
I59716
sS'CCCGGA'
p3285
I26585
sS'CCCGGG'
p3286
I65031
sS'TATGAA'
p3287
I13663
sS'TGGAAT'
p3288
I20577
sS'AATTAA'
p3289
I26388
sS'TTGTGC'
p3290
I16387
sS'TATGAT'
p3291
I10062
sS'TTGTGG'
p3292
I20849
sS'CCCGGT'
p3293
I15352
sS'GGCGTG'
p3294
I22553
sS'TGGAAG'
p3295
I35560
sS'GGTTTT'
p3296
I22505
sS'TGGAAC'
p3297
I18461
sS'TGGAAA'
p3298
I37716
sS'TGAGGA'
p3299
I34494
sS'AAGAGG'
p3300
I34667
sS'TGAGGC'
p3301
I38977
sS'AAGAGA'
p3302
I32010
sS'AAGAGC'
p3303
I25851
sS'TGAGGG'
p3304
I40992
sS'GCTTAG'
p3305
I12096
sS'GCTTAC'
p3306
I8051
sS'GCTTAA'
p3307
I11273
sS'TGATTC'
p3308
I15024
sS'AAGCGC'
p3309
I11562
sS'AAGAGT'
p3310
I16036
sS'AAGCGA'
p3311
I7076
sS'TGAGGT'
p3312
I23171
sS'TGATTA'
p3313
I14317
sS'GTTCGG'
p3314
I5988
sS'CTGCTA'
p3315
I17217
sS'GCGTGT'
p3316
I12898
sS'CTGCTC'
p3317
I54583
sS'ACTTCT'
p3318
I20566
sS'GACCGT'
p3319
I5689
sS'CTGCTG'
p3320
I78683
sS'CGGTCA'
p3321
I7923
sS'GGTCGT'
p3322
I5644
sS'CGGTCC'
p3323
I14771
sS'CTAGAA'
p3324
I15430
sS'CTAGAC'
p3325
I8971
sS'GACCGA'
p3326
I6878
sS'GACCGC'
p3327
I12265
sS'ACTTCC'
p3328
I25701
sS'CTGCTT'
p3329
I39800
sS'ACTTCA'
p3330
I17847
sS'CTAGAT'
p3331
I9434
sS'GGTCGG'
p3332
I14569
sS'CGGTCT'
p3333
I8401
sS'GGTCGC'
p3334
I11544
sS'GGTCGA'
p3335
I4531
sS'CGTCGC'
p3336
I8233
sS'GCGTGG'
p3337
I24505
sS'TGAAGC'
p3338
I22738
sS'CGTCGG'
p3339
I7780
sS'GCGTGC'
p3340
I15568
sS'TGCTCA'
p3341
I29145
sS'TTCATC'
p3342
I18354
sS'TGCTCC'
p3343
I40442
sS'TTCATA'
p3344
I13695
sS'TTCATG'
p3345
I18001
sS'TGCTCG'
p3346
I10498
sS'CAGAAT'
p3347
I23345
sS'CAGCAG'
p3348
I78374
sS'TACACT'
p3349
I9844
sS'GCGGCT'
p3350
I29883
sS'CAGCAC'
p3351
I43587
sS'CAGCAA'
p3352
I31276
sS'GGGAGT'
p3353
I29155
sS'GTACAC'
p3354
I7917
sS'TGATTT'
p3355
I26210
sS'TTCATT'
p3356
I28780
sS'GCTTTA'
p3357
I15082
sS'TGGCCG'
p3358
I25319
sS'GCTGCA'
p3359
I50891
sS'AACTCT'
p3360
I17272
sS'TGGCCC'
p3361
I50922
sS'TGGCCA'
p3362
I45707
sS'GTAGCA'
p3363
I10795
sS'TCATCT'
p3364
I24633
sS'TGCTCT'
p3365
I36183
sS'AACTCA'
p3366
I17705
sS'TGGCCT'
p3367
I47474
sS'AACTCC'
p3368
I20046
sS'GCTGCT'
p3369
I61544
sS'AACTCG'
p3370
I5823
sS'CAGTCG'
p3371
I7946
sS'TGAAGA'
p3372
I23929
sS'AATATT'
p3373
I22537
sS'GTTCGA'
p3374
I3424
sS'CAACCT'
p3375
I16911
sS'CAGTTA'
p3376
I13421
sS'GCTGCC'
p3377
I71603
sS'GGCACG'
p3378
I15655
sS'GGCACA'
p3379
I32761
sS'GACAAT'
p3380
I11087
sS'GGCACC'
p3381
I36225
sS'CAACCG'
p3382
I6079
sS'CAGAAA'
p3383
I42585
sS'AATATG'
p3384
I14459
sS'AATATA'
p3385
I16192
sS'AGCAAG'
p3386
I27150
sS'CAACCA'
p3387
I16490
sS'GACAAA'
p3388
I19928
sS'GGCACT'
p3389
I27051
sS'GACAAC'
p3390
I11148
sS'CAGAAC'
p3391
I25608
sS'GACAAG'
p3392
I19273
sS'GCTGCG'
p3393
I34831
sS'GCGGCG'
p3394
I53009
sS'GCAATA'
p3395
I9157
sS'GAATTT'
p3396
I19302
sS'CAAGTG'
p3397
I20453
sS'CGATGG'
p3398
I7838
sS'TCCCAT'
p3399
I23566
sS'CGATGC'
p3400
I6477
sS'GTAAAT'
p3401
I14900
sS'CGATGA'
p3402
I5203
sS'GAATTA'
p3403
I14310
sS'GAATTC'
p3404
I14514
sS'GAATTG'
p3405
I12385
sS'TCCCAA'
p3406
I25120
sS'CGATGT'
p3407
I4310
sS'GTAAAA'
p3408
I17630
sS'GTAAAG'
p3409
I11951
sS'TCCCAG'
p3410
I66724
sS'GGATTT'
p3411
I20037
sS'GTGCGT'
p3412
I10113
sS'CTCGAT'
p3413
I4148
sS'GGATTC'
p3414
I15530
sS'AATTAG'
p3415
I16517
sS'GGATTA'
p3416
I11475
sS'AGGTCC'
p3417
I24553
sS'AGCGGC'
p3418
I27467
sS'GATAAG'
p3419
I13319
sS'CTATCA'
p3420
I9240
sS'ATATAG'
p3421
I7638
sS'TCTGTG'
p3422
I43352
sS'CTATCC'
p3423
I8788
sS'GTCCCG'
p3424
I21578
sS'TCTGTA'
p3425
I18716
sS'AACCGG'
p3426
I7311
sS'CTCCTT'
p3427
I39316
sS'GGCGGA'
p3428
I25918
sS'CAGATA'
p3429
I17833
sS'AACCGC'
p3430
I7749
sS'AACCGA'
p3431
I4952
sS'GTGGGA'
p3432
I39283
sS'TCTGTT'
p3433
I30566
sS'AAAGCG'
p3434
I9356
sS'CTCCTG'
p3435
I68466
sS'AACCGT'
p3436
I4058
sS'CTCCTA'
p3437
I17657
sS'CTCCTC'
p3438
I70326
sS'GGCGGT'
p3439
I18294
sS'AACAAG'
p3440
I19410
sS'GACGCC'
p3441
I16903
sS'CCCACA'
p3442
I44813
sS'CCCACC'
p3443
I75501
sS'ATAGCA'
p3444
I12483
sS'AGCCTT'
p3445
I27294
sS'CCGATT'
p3446
I4175
sS'CCCACT'
p3447
I38148
sS'AACAAT'
p3448
I16031
sS'GACGCT'
p3449
I10619
sS'AGCGGT'
p3450
I8794
sS'CCGATA'
p3451
I2033
sS'CCGATC'
p3452
I4765
sS'AGCCTA'
p3453
I12724
sS'AGCCTC'
p3454
I48920
sS'GTACCC'
p3455
I9555
sS'GTGCGC'
p3456
I16927
sS'TGGTTA'
p3457
I11835
sS'CGCCTT'
p3458
I15190
sS'GCGCCT'
p3459
I26485
sS'TCNNNN'
p3460
I3
sS'CAGAGT'
p3461
I28388
sS'GCATCT'
p3462
I23765
sS'ACCTCG'
p3463
I11865
sS'AGGCAC'
p3464
I31506
sS'CGCCTC'
p3465
I35583
sS'GCGCCA'
p3466
I20308
sS'CGCCTA'
p3467
I5857
sS'AGGCAG'
p3468
I69452
sS'CGCCTG'
p3469
I32665
sS'ACGAAG'
p3470
I6530
sS'CAGAGG'
p3471
I63246
sS'GCATCC'
p3472
I22795
sS'GCATCA'
p3473
I16227
sS'CAGAGC'
p3474
I58693
sS'GCATCG'
p3475
I6524
sS'CAGAGA'
p3476
I49639
sS'TAGCTA'
p3477
I7880
sS'CCTAGA'
p3478
I15523
sS'CCTAGC'
p3479
I15336
sS'TTTGCT'
p3480
I29248
sS'CGGGAG'
p3481
I40023
sS'TGCGGT'
p3482
I9815
sS'CCTAGG'
p3483
I19999
sS'TAAGCA'
p3484
I15246
sS'GTCTAG'
p3485
I8844
sS'TGCGGC'
p3486
I22091
sS'TTTGCC'
p3487
I23362
sS'CCTAGT'
p3488
I10459
sS'TGCGGG'
p3489
I27591
sS'TTTGCG'
p3490
I6005
sS'TGAGTT'
p3491
I17565
sS'CGGGAC'
p3492
I21478
sS'ATCGCT'
p3493
I5286
sS'ATCGCC'
p3494
I6808
sS'TGAGTG'
p3495
I27150
sS'ATCGCA'
p3496
I4130
sS'TGAGTA'
p3497
I11572
sS'ATCGCG'
p3498
I4037
sS'TGAGTC'
p3499
I20193
sS'AAGGTG'
p3500
I23123
sS'AAGGTC'
p3501
I16754
sS'CATCAT'
p3502
I16325
sS'AAGGTA'
p3503
I11017
sS'ACGGCA'
p3504
I9288
sS'CATCAC'
p3505
I19464
sS'ACGGCC'
p3506
I16114
sS'CATCAA'
p3507
I14176
sS'CATCAG'
p3508
I23859
sS'ACGGCG'
p3509
I10492
sS'TCACCT'
p3510
I27387
sS'TCGTTT'
p3511
I5772
sS'CGGAAT'
p3512
I4955
sS'ATCGAT'
p3513
I2172
sS'TCACCG'
p3514
I11393
sS'TCACCA'
p3515
I25747
sS'TCACCC'
p3516
I31039
sS'CGGAAG'
p3517
I15551
sS'CAACCC'
p3518
I22110
sS'AACTGG'
p3519
I20963
sS'AAAATA'
p3520
I39848
sS'CGGAAC'
p3521
I8293
sS'AGCTCG'
p3522
I12517
sS'CGGAAA'
p3523
I9639
sS'TAGCTT'
p3524
I11858
sS'ATCCAG'
p3525
I24476
sS'ATGGCG'
p3526
I10386
sS'TGTGTA'
p3527
I17313
sS'AATATC'
p3528
I11330
sS'ATGGCA'
p3529
I22626
sS'TTCAGA'
p3530
I26835
sS'ATGGCT'
p3531
I22716
sS'TGTGTT'
p3532
I27468
sS'AGAATT'
p3533
I19951
sS'AGATTC'
p3534
I14882
sS'GAAACA'
p3535
I28672
sS'GAAACC'
p3536
I21419
sS'CTGAGT'
p3537
I27572
sS'GAAACT'
p3538
I20905
sS'AGAATG'
p3539
I22561
sS'AGAATA'
p3540
I16013
sS'GCTNNN'
p3541
I1
sS'ACATAC'
p3542
I10251
sS'CTGAGC'
p3543
I47723
sS'CTGAGA'
p3544
I36442
sS'CTGAGG'
p3545
I55430
sS'CATACC'
p3546
I7261
sS'CATACA'
p3547
I12911
sS'CATACG'
p3548
I2410
sS'GCAATC'
p3549
I9562
sS'TCAAAT'
p3550
I19520
sS'GTCCAT'
p3551
I12958
sS'AGGGGT'
p3552
I31275
sS'CATACT'
p3553
I8391
sS'GTCCAG'
p3554
I33132
sS'TCAAAG'
p3555
I20852
sS'GTCCAC'
p3556
I19038
sS'GTCCAA'
p3557
I11820
sS'CGGCGG'
p3558
I48120
sS'TTGATG'
p3559
I14061
sS'ATCGAG'
p3560
I4304
sS'CGGCGC'
p3561
I34845
sS'TTGATC'
p3562
I8787
sS'CGGCGA'
p3563
I12016
sS'TCCAAG'
p3564
I24481
sS'AAGTGA'
p3565
I22948
sS'TTGATT'
p3566
I17140
sS'CGGCGT'
p3567
I10574
sS'ATGGCC'
p3568
I23674
sS'ATCGAC'
p3569
I2293
sS'TATAAG'
p3570
I7927
sS'ATCCCC'
p3571
I24096
sS'CGGTTA'
p3572
I2861
sS'TATTGC'
p3573
I9269
sS'CGGTTC'
p3574
I8253
sS'GCTGTT'
p3575
I26818
sS'CGGTTG'
p3576
I6128
sS'GGTTTG'
p3577
I19061
sS'CCATTG'
p3578
I14532
sS'TCCAAA'
p3579
I22727
sS'GCTGTG'
p3580
I53602
sS'GCTGTC'
p3581
I32674
sS'CGGTTT'
p3582
I6835
sS'GCTGTA'
p3583
I15310
sS'TATGCG'
p3584
I2282
sS'AGGTTG'
p3585
I17012
sS'AGGTTC'
p3586
I15912
sS'AGGTTA'
p3587
I10855
sS'CNNNNN'
p3588
I4
sS'ACTCCT'
p3589
I24521
sS'TTTTTC'
p3590
I40591
sS'TCCATC'
p3591
I23287
sS'TTTTTA'
p3592
I39580
sS'TTTTTG'
p3593
I29699
sS'GAGGGG'
p3594
I77602
sS'TTAAAT'
p3595
I27924
sS'AGGTTT'
p3596
I19713
sS'TAAGCG'
p3597
I3759
sS'TATGCC'
p3598
I8880
sS'TTAAAC'
p3599
I14913
sS'ATACGT'
p3600
I2566
sS'TTAAAA'
p3601
I43292
sS'ACTCCG'
p3602
I10806
sS'TTAAAG'
p3603
I20411
sS'ACTCCA'
p3604
I25542
sS'TTTTTT'
p3605
I103383
sS'ACTCCC'
p3606
I28642
sS'TAGGCT'
p3607
I12613
sS'GTCACG'
p3608
I8648
sS'CTGTAC'
p3609
I12310
sS'GCAACT'
p3610
I13206
sS'GTCACC'
p3611
I23769
sS'CTGTAG'
p3612
I17170
sS'GTCACA'
p3613
I21015
sS'AGGGAT'
p3614
I21846
sS'GGTCTT'
p3615
I16899
sS'GTCACT'
p3616
I21083
sS'TAGGCG'
p3617
I5826
sS'GCAACC'
p3618
I15062
sS'CTGTAT'
p3619
I13754
sS'GCAACA'
p3620
I17389
sS'TAGGCC'
p3621
I12773
sS'ATTCAT'
p3622
I18844
sS'TCCCAC'
p3623
I39142
sS'GCGATT'
p3624
I4336
sS'TCGTGT'
p3625
I5568
sS'TTCACT'
p3626
I21261
sS'GTCTCT'
p3627
I28387
sS'TCCGTG'
p3628
I12800
sS'ATTCAG'
p3629
I20289
sS'ATTCAA'
p3630
I16528
sS'ATTCAC'
p3631
I14163
sS'GTCTCC'
p3632
I33587
sS'TCGTGG'
p3633
I10254
sS'GCGATG'
p3634
I8141
sS'TTCACC'
p3635
I18942
sS'GCGATA'
p3636
I2240
sS'TTCACA'
p3637
I23161
sS'GCGATC'
p3638
I5462
sS'GAAGGC'
p3639
I34429
sS'GAAGGA'
p3640
I37698
sS'GAAGGG'
p3641
I46001
sS'CGATTA'
p3642
I2201
sS'CAATCT'
p3643
I12677
sS'GGAACA'
p3644
I23562
sS'GGAACG'
p3645
I10187
sS'TGACGA'
p3646
I4397
sS'TACTGC'
p3647
I12894
sS'CGATTT'
p3648
I4559
sS'GAAGGT'
p3649
I20354
sS'CTCGCT'
p3650
I16871
sS'CAATCG'
p3651
I3075
sS'CAATCA'
p3652
I13195
sS'GGAACT'
p3653
I19638
sS'TCCTGA'
p3654
I32620
sS'AGTCCA'
p3655
I20083
sS'TCCTGC'
p3656
I55144
sS'AGTCCC'
p3657
I29796
sS'ACTAAA'
p3658
I13853
sS'TCCTGG'
p3659
I64460
sS'ACTAAC'
p3660
I7042
sS'TAACGC'
p3661
I3007
sS'CAGCTG'
p3662
I74954
sS'CAGCTA'
p3663
I17528
sS'CAGCTC'
p3664
I56722
sS'ACTAAT'
p3665
I10292
sS'AGTCCT'
p3666
I24207
sS'TCCTGT'
p3667
I33440
sS'TAATGT'
p3668
I14190
sS'CAGCTT'
p3669
I33643
sS'GGTTAG'
p3670
I9155
sS'TAACGT'
p3671
I3014
sS'AGCCAG'
p3672
I60564
sS'GTACTT'
p3673
I9548
sS'CGACAT'
p3674
I3795
sS'TTGTTC'
p3675
I17308
sS'CGCAAG'
p3676
I8160
sS'TTGTTA'
p3677
I14425
sS'CCGAGA'
p3678
I15516
sS'CAGGCC'
p3679
I75938
sS'CCGAGC'
p3680
I24468
sS'CCGCGT'
p3681
I12531
sS'CGACAC'
p3682
I6382
sS'CGACAA'
p3683
I3883
sS'CGACAG'
p3684
I9993
sS'GTACTA'
p3685
I4598
sS'CCGCGC'
p3686
I41358
sS'AGCCAC'
p3687
I39596
sS'CCGCGA'
p3688
I12183
sS'CCGCGG'
p3689
I40265
sS'TTGTTT'
p3690
I34474
sS'GCATAT'
p3691
I9518
sS'TCCGTT'
p3692
I5741
sS'AGCCAA'
p3693
I25801
sS'AATAAC'
p3694
I13615
sS'AATAAA'
p3695
I38984
sS'AATAAG'
p3696
I15506
sS'ATCGTT'
p3697
I2928
sS'CGCCAT'
p3698
I10425
sS'GGATTG'
p3699
I12151
sS'TACTAA'
p3700
I9151
sS'AATAAT'
p3701
I23066
sS'ACGGTG'
p3702
I11074
sS'CCAACC'
p3703
I22654
sS'CTCAGT'
p3704
I27344
sS'CCAACG'
p3705
I7106
sS'GGGATT'
p3706
I18828
sS'CGCCGC'
p3707
I52533
sS'AGTAAA'
p3708
I18159
sS'CGCCGA'
p3709
I11588
sS'GAGTAG'
p3710
I11621
sS'CGCCGG'
p3711
I30399
sS'GAGTAA'
p3712
I11059
sS'AGTAAG'
p3713
I11839
sS'CTCAGG'
p3714
I52115
sS'CTAAAA'
p3715
I19222
sS'CTCAGC'
p3716
I52162
sS'CCAACT'
p3717
I16994
sS'GAGTAT'
p3718
I7105
sS'ATCGTC'
p3719
I3335
sS'GTGTAG'
p3720
I10354
sS'TCGAGC'
p3721
I6423
sS'AGTAAT'
p3722
I13258
sS'GTGTAC'
p3723
I7986
sS'CGCCGT'
p3724
I10568
sS'GTGGCA'
p3725
I30420
sS'GTGGCC'
p3726
I46718
sS'CTCGGA'
p3727
I14237
sS'CTCGGC'
p3728
I28822
sS'GCCGCC'
p3729
I65673
sS'GCCGCA'
p3730
I22086
sS'GCCGCG'
p3731
I39146
sS'ACACTT'
p3732
I16645
sS'CTCGGT'
p3733
I11560
sS'AGATAT'
p3734
I12318
sS'GTGGCT'
p3735
I39259
sS'CATATA'
p3736
I9700
sS'GTCAGC'
p3737
I25176
sS'ACACTC'
p3738
I18662
sS'ACACTA'
p3739
I9135
sS'ACACTG'
p3740
I26870
sS'GCCGCT'
p3741
I27741
sS'ACCGGA'
p3742
I7464
sS'AAATAA'
p3743
I39912
sS'ACCGGC'
p3744
I13345
sS'AAATAC'
p3745
I18547
sS'CTTTAA'
p3746
I20185
sS'AATCCT'
p3747
I17179
sS'CTTTAC'
p3748
I11897
sS'AACTTA'
p3749
I10088
sS'CAGGTA'
p3750
I15163
sS'AACTTC'
p3751
I15550
sS'CAGGTC'
p3752
I30922
sS'CACGAC'
p3753
I6311
sS'AACTTG'
p3754
I14954
sS'CAGGTG'
p3755
I47707
sS'CTTTAT'
p3756
I18953
sS'AATCCC'
p3757
I18977
sS'GCTCGT'
p3758
I6999
sS'AATCCA'
p3759
I18049
sS'AAATAT'
p3760
I27922
sS'AATCCG'
p3761
I4812
sS'GCAAGT'
p3762
I15362
sS'CAGGTT'
p3763
I22025
sS'AACTTT'
p3764
I17396
sS'TCTGTC'
p3765
I32912
sS'GGGATA'
p3766
I10216
sS'GGGATC'
p3767
I18429
sS'GGGTGT'
p3768
I27548
sS'GGGATG'
p3769
I33244
sS'GATGCT'
p3770
I21511
sS'CGCAGT'
p3771
I11610
sS'GAGTCG'
p3772
I8417
sS'ATTGGG'
p3773
I12042
sS'GAGCCT'
p3774
I39020
sS'GGAGAC'
p3775
I33945
sS'GGCGGC'
p3776
I65941
sS'GGAGAA'
p3777
I41020
sS'GGGTGC'
p3778
I36716
sS'GGAGAG'
p3779
I61680
sS'GGGTGG'
p3780
I71488
sS'GAGCCA'
p3781
I41594
sS'CGCAGG'
p3782
I31765
sS'GATGCG'
p3783
I8133
sS'CGCAGA'
p3784
I16873
sS'GATGCA'
p3785
I17957
sS'CGCAGC'
p3786
I34325
sS'GATGCC'
p3787
I22012
sS'CGGATT'
p3788
I4890
sS'GGTAGT'
p3789
I7291
sS'ACCCCT'
p3790
I31958
sS'GCCAAT'
p3791
I13201
sS'GGCGGG'
p3792
I78523
sS'AGAGTC'
p3793
I19300
sS'AGAAGT'
p3794
I20193
sS'ACCCCA'
p3795
I39877
sS'GGTAGA'
p3796
I11865
sS'GCCAAA'
p3797
I20378
sS'CGGATG'
p3798
I8692
sS'GCCAAG'
p3799
I33874
sS'CGGATA'
p3800
I2534
sS'ACCCCG'
p3801
I24434
sS'GGTAGG'
p3802
I16985
sS'AGAAGA'
p3803
I32031
sS'AGAAGC'
p3804
I33807
sS'TACAAT'
p3805
I10598
sS'GCAAGA'
p3806
I20064
sS'AGAAGG'
p3807
I39503
sS'CACTCC'
p3808
I33072
sS'CACTCA'
p3809
I26876
sS'CACTCG'
p3810
I10429
sS'TGCGTT'
p3811
I6239
sS'GCAAGG'
p3812
I28032
sS'AGCTTT'
p3813
I24844
sS'CCCCGG'
p3814
I54592
sS'TGCGTA'
p3815
I3038
sS'CCCCGC'
p3816
I73223
sS'CACTCT'
p3817
I25216
sS'AGCTTC'
p3818
I27746
sS'AGCTTA'
p3819
I10948
sS'AGCTTG'
p3820
I21283
sS'ATACGA'
p3821
I1919
sS'TTAGCT'
p3822
I13938
sS'GTATAA'
p3823
I7705
sS'TTAGCC'
p3824
I12179
sS'TTAGCA'
p3825
I15114
sS'GACCAT'
p3826
I11043
sS'TTAGCG'
p3827
I3695
sS'CGATCC'
p3828
I5834
sS'TCATAT'
p3829
I11796
sS'ATAGGT'
p3830
I6873
sS'ATAAGG'
p3831
I11764
sS'TGTGCT'
p3832
I31097
sS'AAGGGC'
p3833
I30925
sS'ATAAGC'
p3834
I10718
sS'AAGGGA'
p3835
I33765
sS'ATAAGA'
p3836
I13895
sS'CCAGAC'
p3837
I36017
sS'CCAGAA'
p3838
I36864
sS'CCAGAG'
p3839
I59009
sS'TGTGCG'
p3840
I14042
sS'ATAAGT'
p3841
I9389
sS'ATAGGG'
p3842
I9433
sS'TGTGCC'
p3843
I33026
sS'ATAGGA'
p3844
I11340
sS'TGTGCA'
p3845
I29566
sS'ATAGGC'
p3846
I8187
sS'GCTCGC'
p3847
I18395
sS'CCAGAT'
p3848
I28472
sS'AGACAA'
p3849
I21304
sS'GACGCA'
p3850
I9482
sS'AGACAC'
p3851
I25798
sS'AGACAG'
p3852
I38856
sS'TTTTCT'
p3853
I51083
sS'CGCTGT'
p3854
I15009
sS'CCCACG'
p3855
I25730
sS'CGTGGG'
p3856
I26259
sS'AGACAT'
p3857
I17410
sS'CGTGGA'
p3858
I13876
sS'TTTTCG'
p3859
I4960
sS'AACAAC'
p3860
I14276
sS'CGCTGC'
p3861
I34445
sS'TTTTCC'
p3862
I39906
sS'TTTTCA'
p3863
I33273
sS'CGCTGG'
p3864
I30634
sS'TATGGA'
p3865
I10667
sS'TATGGC'
p3866
I9415
sS'CGTAGG'
p3867
I5130
sS'CGTAGA'
p3868
I3648
sS'TATGGG'
p3869
I10533
sS'CGTAGC'
p3870
I4797
sS'CTTCAG'
p3871
I32188
sS'AAGTGT'
p3872
I16599
sS'TGGACT'
p3873
I20061
sS'CGTAGT'
p3874
I3028
sS'GCTCGA'
p3875
I6234
sS'TATGGT'
p3876
I8482
sS'TGGACA'
p3877
I25975
sS'TGGACC'
p3878
I20038
sS'TGGACG'
p3879
I11389
sS'GGCGGN'
p3880
I1
sS'CCGGTT'
p3881
I7323
sS'CTAGCT'
p3882
I12426
sS'GCTTGA'
p3883
I15003
sS'TGAGAC'
p3884
I19818
sS'GCTTGC'
p3885
I19454
sS'TGAGAA'
p3886
I29256
sS'TGAGAG'
p3887
I30372
sS'AGGGAC'
p3888
I34672
sS'CCTGTT'
p3889
I26069
sS'TATCAC'
p3890
I9495
sS'CCGGTC'
p3891
I12042
sS'ACTTAT'
p3892
I9186
sS'CCTGTC'
p3893
I37955
sS'CCTGTA'
p3894
I16737
sS'CTCGCC'
p3895
I25356
sS'GCTTGT'
p3896
I17428
sS'TGAGAT'
p3897
I20485
sS'GGTTGT'
p3898
I12824
sS'TATCAG'
p3899
I13138
sS'AATTCN'
p3900
I1
sS'TAGCGT'
p3901
I2911
sS'GGTTGG'
p3902
I22767
sS'GGTTGA'
p3903
I11571
sS'GGTTGC'
p3904
I14845
sS'GGAAAC'
p3905
I28621
sS'TCCCGC'
p3906
I32329
sS'TCCCGA'
p3907
I12671
sS'GTAACA'
p3908
I10367
sS'GTAACC'
p3909
I7648
sS'CGTTTT'
p3910
I8015
sS'ATTCTC'
p3911
I18954
sS'AGGGAA'
p3912
I43424
sS'ATTCTA'
p3913
I13013
sS'ATTCTG'
p3914
I23231
sS'TCATTT'
p3915
I32925
sS'GTAACT'
p3916
I9588
sS'TGCTAA'
p3917
I14958
sS'TGCTAG'
p3918
I12334
sS'CAGCGG'
p3919
I31420
sS'AGGATC'
p3920
I15799
sS'TCATTC'
p3921
I20141
sS'TCATTA'
p3922
I16867
sS'CGTTTA'
p3923
I3931
sS'ATTCTT'
p3924
I19427
sS'CGTTTC'
p3925
I9148
sS'ACCGGG'
p3926
I15426
sS'TGGCAA'
p3927
I22550
sS'AGCCTG'
p3928
I59119
sS'TGGCAG'
p3929
I52613
sS'GGCCGT'
p3930
I16428
sS'GCTGAA'
p3931
I25526
sS'GCTGAC'
p3932
I25146
sS'TGGCAT'
p3933
I21850
sS'GGCCGG'
p3934
I53509
sS'NNGATC'
p3935
I1
sS'CCGATG'
p3936
I6479
sS'GGCCGC'
p3937
I50510
sS'GAACTT'
p3938
I13982
sS'GGCCGA'
p3939
I20267
sS'GGCAAT'
p3940
I12470
sS'CGCTCG'
p3941
I13264
sS'CTATAA'
p3942
I9966
sS'CTGATT'
p3943
I20788
sS'NCCCAC'
p3944
I1
sS'CCATCG'
p3945
I7982
sS'CTAAAT'
p3946
I15152
sS'CCATCC'
p3947
I33327
sS'CCATCA'
p3948
I21402
sS'CTGATC'
p3949
I14173
sS'CTGATA'
p3950
I13152
sS'TGGTTG'
p3951
I16679
sS'GGCAAC'
p3952
I16590
sS'GGCAAA'
p3953
I23096
sS'AACGGG'
p3954
I8421
sS'CTAAAG'
p3955
I13605
sS'CCATCT'
p3956
I32448
sS'CTAAAC'
p3957
I10214
sS'TTGCGT'
p3958
I4302
sS'GACACC'
p3959
I22233
sS'GACACA'
p3960
I26631
sS'GACACG'
p3961
I10158
sS'AGGCAT'
p3962
I21031
sS'TAGCGA'
p3963
I3003
sS'TACGAG'
p3964
I3194
sS'TACGAC'
p3965
I2076
sS'GGAAAG'
p3966
I40560
sS'GACACT'
p3967
I18363
sS'CCGTGA'
p3968
I10567
sS'CGTGAG'
p3969
I12780
sS'ACGCTG'
p3970
I15025
sS'GCATAA'
p3971
I9514
sS'CTATTC'
p3972
I9398
sS'TCGATG'
p3973
I3999
sS'TCGATA'
p3974
I1500
sS'TCGATC'
p3975
I2726
sS'CTATTT'
p3976
I18925
sS'CGCGAA'
p3977
I4793
sS'GCATTG'
p3978
I13004
sS'GAACTG'
p3979
I21733
sS'TCGATT'
p3980
I2922
sS'TCGGCA'
p3981
I8098
sS'GCGCCC'
p3982
I48501
sS'ACAATG'
p3983
I15718
sS'AACCAA'
p3984
I16518
sS'TGCCGG'
p3985
I20282
sS'AACCAC'
p3986
I17469
sS'TGCCGC'
p3987
I21730
sS'AACCAG'
p3988
I25253
sS'TGCCGA'
p3989
I8376
sS'TTGGAC'
p3990
I11982
sS'TCTGGA'
p3991
I36843
sS'GCGCCG'
p3992
I34674
sS'TGCCGT'
p3993
I9194
sS'AACCAT'
p3994
I12823
sS'AACAGA'
p3995
I30427
sS'CTACCG'
p3996
I4927
sS'AACAGC'
p3997
I26686
sS'CTACCC'
p3998
I16162
sS'AACAGG'
p3999
I26075
sS'CTACCA'
p4000
I12098
sS'CCCAAG'
p4001
I36089
sS'AGCAGC'
p4002
I62081
sS'GACGAA'
p4003
I4423
sS'CTNNNN'
p4004
I1
sS'CCCAAC'
p4005
I23963
sS'CCCAAA'
p4006
I28506
sS'CTACCT'
p4007
I14181
sS'GGGAGA'
p4008
I55173
sS'AACAGT'
p4009
I16805
sS'GGGAGC'
p4010
I61481
sS'CCCAAT'
p4011
I11907
sS'GACGAT'
p4012
I3448
sS'GGGCGC'
p4013
I48297
sS'GGGCGA'
p4014
I19541
sS'GGGCGG'
p4015
I74312
sS'TCTCTT'
p4016
I32472
sS'GTACAG'
p4017
I12523
sS'CGTTAA'
p4018
I3136
sS'GTACAA'
p4019
I8142
sS'ACGACT'
p4020
I4078
sS'TCTCTC'
p4021
I45821
sS'TCTCTA'
p4022
I17450
sS'TCTCTG'
p4023
I49556
sS'GGGCGT'
p4024
I18843
sS'ACGACC'
p4025
I5441
sS'ACGACA'
p4026
I4711
sS'ACGACG'
p4027
I3672
sS'CAGAAG'
p4028
I39936
sS'TAAGTG'
p4029
I14795
sS'CACTTT'
p4030
I24618
sS'CCTAAT'
p4031
I11480
sS'GTCATT'
p4032
I16250
sS'CACTTG'
p4033
I20608
sS'CCTAAC'
p4034
I10006
sS'CCTAAA'
p4035
I14615
sS'CACTTC'
p4036
I24763
sS'CCTAAG'
p4037
I13790
sS'CACTTA'
p4038
I14764
sS'GCGGAT'
p4039
I7683
sS'CTGCGG'
p4040
I36386
sS'AAGATT'
p4041
I15605
sS'CTCATG'
p4042
I19190
sS'GACTCG'
p4043
I9346
sS'CTCATC'
p4044
I22709
sS'GACTCC'
p4045
I25611
sS'CTCATA'
p4046
I10617
sS'GACTCA'
p4047
I20324
sS'AAGATA'
p4048
I15815
sS'AGTCGG'
p4049
I9012
sS'AAGATG'
p4050
I22111
sS'GACTCT'
p4051
I19270
sS'CTCATT'
p4052
I23398
sS'TTGAGA'
p4053
I19328
sS'ATCGAA'
p4054
I2447
sS'GGACTA'
p4055
I8822
sS'ATATTT'
p4056
I27498
sS'CCGAGG'
p4057
I33322
sS'AACTAA'
p4058
I11695
sS'ATAGTT'
p4059
I8592
sS'TACTGT'
p4060
I13316
sS'ATATTC'
p4061
I11833
sS'ATATTA'
p4062
I14537
sS'ATATTG'
p4063
I10406
sS'ATAGTA'
p4064
I7423
sS'TACTGA'
p4065
I12721
sS'TACTGG'
p4066
I12684
sS'ATAGTG'
p4067
I8627
sS'ATAGAC'
p4068
I6973
sS'CAGGCA'
p4069
I59034
sS'ACGGAA'
p4070
I6715
sS'CATCCG'
p4071
I8889
sS'AGGAAA'
p4072
I48075
sS'CATCCA'
p4073
I23856
sS'AGGAAC'
p4074
I23124
sS'CATCCC'
p4075
I33101
sS'TTATGA'
p4076
I13387
sS'TTATGC'
p4077
I9346
sS'CGGAGT'
p4078
I10791
sS'TTATGG'
p4079
I11067
sS'CATCCT'
p4080
I28792
sS'AGGAAT'
p4081
I21065
sS'CAGGCT'
p4082
I58566
sS'ACGGAT'
p4083
I4003
sS'CGGAGA'
p4084
I17291
sS'CGGAGC'
p4085
I30604
sS'TTATGT'
p4086
I14840
sS'CGGAGG'
p4087
I33085
sS'ATGGAA'
p4088
I22545
sS'ATGGAC'
p4089
I12916
sS'ATGGAG'
p4090
I27388
sS'CGCTTG'
p4091
I9314
sS'CGCTTA'
p4092
I3736
sS'CGCTTC'
p4093
I15104
sS'ATGGAT'
p4094
I13781
sS'TTTGCA'
p4095
I26483
sS'CGCTTT'
p4096
I9159
sS'GATCGT'
p4097
I2912
sS'TGCGGA'
p4098
I12439
sS'TTGTGA'
p4099
I17405
sS'GAAAAG'
p4100
I33398
sS'GAAAAC'
p4101
I26170
sS'ATAGAT'
p4102
I10072
sS'GAAAAA'
p4103
I40547
sS'TAAGTA'
p4104
I10370
sS'ACGGTT'
p4105
I4103
sS'GAAAAT'
p4106
I29759
sS'CGGCAT'
p4107
I6951
sS'ACAAGG'
p4108
I21260
sS'ACAAGA'
p4109
I18027
sS'AAAAAA'
p4110
I103957
sS'ACAAGC'
p4111
I17215
sS'ACACGT'
p4112
I7883
sS'CTGCGT'
p4113
I14911
sS'GACGTC'
p4114
I8111
sS'GCGGAG'
p4115
I34614
sS'CATAAG'
p4116
I9027
sS'GCGGAA'
p4117
I11796
sS'CATAAA'
p4118
I18694
sS'GCGGAC'
p4119
I13373
sS'CATAAC'
p4120
I7733
sS'ACACGC'
p4121
I12289
sS'ACAAGT'
p4122
I13205
sS'ACACGA'
p4123
I5436
sS'ACACGG'
p4124
I12000
sS'CATAAT'
p4125
I13282
sS'GTCCCA'
p4126
I29067
sS'GCACAT'
p4127
I18321
sS'GTCCCC'
p4128
I45410
sS'CTGCGA'
p4129
I12334
sS'CTGCGC'
p4130
I30891
sS'CGGCAA'
p4131
I7934
sS'CGGCAC'
p4132
I14289
sS'CGGCAG'
p4133
I30165
sS'CCTCCT'
p4134
I77025
sS'TGTTGA'
p4135
I15492
sS'CAGGCG'
p4136
I32928
sS'CCTCCC'
p4137
I112279
sS'CCTCCA'
p4138
I55647
sS'CCTCCG'
p4139
I33089
s.